Certificate:
    Data:
        Version: 3 (0x2)
        Serial Number:
            c9:03:33:2e:bc:45:8d:6d:e0:c0:49:bd:cc:fb:fd:47
    Signature Algorithm: sha256WithRSAEncryption
        Issuer: C=US, ST=California, L=San Francisco, O=Copyleft Certificate Co, OU=My Organizational Unit, CN=ChangeMe/emailAddress=me@example.net
        Validity
            Not Before: Nov 11 10:55:08 2023 GMT
            Not After : Nov 10 10:55:08 2024 GMT
        Subject: C=US, ST=California, L=San Francisco, O=Copyleft Certificate Co, OU=My Organizational Unit, CN=ChangeMe/emailAddress=me@example.net
        Subject Public Key Info:
            Public Key Algorithm: rsaEncryption
                Public-Key: (2048 bit)
                Modulus:
                    00:99:f9:ac:0f:78:1f:bd:c9:a3:ac:7c:0f:53:97:
                    ae:00:f4:93:59:22:0e:ce:37:36:69:c2:e1:e5:6f:
                    e8:ef:02:69:94:13:78:3b:bc:f4:f6:3f:19:a6:0d:
                    46:ea:0b:c0:67:2e:e6:17:82:19:4a:29:e4:df:30:
                    99:0b:95:20:f0:81:e9:eb:5b:05:e1:12:24:93:fc:
                    01:48:f9:ba:40:63:4d:f9:89:11:16:a7:1a:a9:ee:
                    44:7f:ad:c0:dc:2a:cd:18:17:51:ce:1a:71:6b:11:
                    40:9f:50:7b:a2:0a:f5:9f:d6:f9:2a:de:2c:95:12:
                    ca:cc:c5:ab:23:11:d5:67:b3:3d:8c:48:30:f0:5f:
                    5e:bb:a8:c0:e7:f0:fd:ae:0b:76:f0:3b:5e:1f:20:
                    58:46:30:14:6a:69:a1:87:8b:f8:b4:5f:ab:49:b2:
                    7e:88:5b:9e:6f:17:75:1e:80:54:cd:e6:4a:0b:f6:
                    0e:e5:d3:43:9b:a7:89:95:b2:8f:fa:f9:fd:e5:4d:
                    d5:08:fa:fe:18:80:1e:6e:2d:db:90:82:76:08:f5:
                    fd:b7:45:02:fd:0c:f7:41:fd:34:b0:fb:5b:74:84:
                    f0:58:d2:bc:2d:95:de:e5:9b:54:a9:7a:98:56:28:
                    40:a8:4e:1d:32:b1:cd:00:08:cf:49:4f:7d:f7:06:
                    68:ed
                Exponent: 65537 (0x10001)
        X509v3 extensions:
            X509v3 Basic Constraints: 
                CA:FALSE
            X509v3 Subject Key Identifier: 
                E2:AB:04:AD:19:4A:01:53:54:31:D6:B6:1B:EF:1F:A4:52:9F:40:09
            X509v3 Authority Key Identifier: 
                keyid:44:01:CC:06:0B:41:75:CB:C8:FB:C9:37:86:2D:9D:D2:D8:79:B6:8B
                DirName:/C=US/ST=California/L=San Francisco/O=Copyleft Certificate Co/OU=My Organizational Unit/CN=ChangeMe/emailAddress=me@example.net
                serial:AF:E8:E0:DD:C5:8B:0E:DD

            X509v3 Extended Key Usage: 
                TLS Web Server Authentication
            X509v3 Key Usage: 
                Digital Signature, Key Encipherment
            X509v3 Subject Alternative Name: 
                DNS:ChangeMe
    Signature Algorithm: sha256WithRSAEncryption
         54:6b:49:97:ad:f6:48:a8:10:ea:ad:f2:b9:8e:9a:27:36:e0:
         11:57:15:39:bb:6c:4a:52:67:6f:5d:33:2c:d1:05:c0:dc:7e:
         d6:bd:4e:94:de:df:07:00:24:b3:3a:40:c0:9d:4f:6e:58:61:
         e1:3b:6c:90:5a:d7:6e:6c:8c:22:4b:ab:49:99:2b:39:5d:b4:
         61:62:a7:97:57:ab:32:0f:38:3d:91:ce:14:94:e0:17:8d:df:
         8e:c1:82:ed:93:e8:42:02:b8:e6:64:06:86:53:3e:4c:d0:27:
         27:a3:5c:2d:fd:7d:1b:6b:f5:05:34:67:e0:e0:11:95:cd:cb:
         0a:e6:62:4f:23:01:b9:57:2e:20:c1:d8:cc:e4:15:35:9b:a0:
         f9:f2:b3:c3:5e:9b:1a:e4:86:60:ad:bc:f2:72:85:f9:85:f8:
         a4:16:c5:6c:80:4f:7e:ff:be:2e:d8:d4:8f:b4:04:e9:93:7f:
         15:27:c5:aa:83:5d:40:08:64:30:10:1a:40:bf:a2:91:1b:4b:
         be:c8:57:60:15:f7:15:0b:08:cb:ba:06:12:4a:9e:39:3c:df:
         c2:3d:be:b5:80:34:ce:12:30:bb:84:0b:a1:cb:26:e9:1b:4b:
         74:66:72:da:4f:b8:ef:d3:1d:c2:69:10:cd:9f:88:e0:37:ba:
         52:33:cb:4b
-----BEGIN CERTIFICATE-----
MIIFOTCCBCGgAwIBAgIRAMkDMy68RY1t4MBJvcz7/UcwDQYJKoZIhvcNAQELBQAw
ga8xCzAJBgNVBAYTAlVTMRMwEQYDVQQIDApDYWxpZm9ybmlhMRYwFAYDVQQHDA1T
YW4gRnJhbmNpc2NvMSAwHgYDVQQKDBdDb3B5bGVmdCBDZXJ0aWZpY2F0ZSBDbzEf
MB0GA1UECwwWTXkgT3JnYW5pemF0aW9uYWwgVW5pdDERMA8GA1UEAwwIQ2hhbmdl
TWUxHTAbBgkqhkiG9w0BCQEWDm1lQGV4YW1wbGUubmV0MB4XDTIzMTExMTEwNTUw
OFoXDTI0MTExMDEwNTUwOFowga8xCzAJBgNVBAYTAlVTMRMwEQYDVQQIDApDYWxp
Zm9ybmlhMRYwFAYDVQQHDA1TYW4gRnJhbmNpc2NvMSAwHgYDVQQKDBdDb3B5bGVm
dCBDZXJ0aWZpY2F0ZSBDbzEfMB0GA1UECwwWTXkgT3JnYW5pemF0aW9uYWwgVW5p
dDERMA8GA1UEAwwIQ2hhbmdlTWUxHTAbBgkqhkiG9w0BCQEWDm1lQGV4YW1wbGUu
bmV0MIIBIjANBgkqhkiG9w0BAQEFAAOCAQ8AMIIBCgKCAQEAmfmsD3gfvcmjrHwP
U5euAPSTWSIOzjc2acLh5W/o7wJplBN4O7z09j8Zpg1G6gvAZy7mF4IZSink3zCZ
C5Ug8IHp61sF4RIkk/wBSPm6QGNN+YkRFqcaqe5Ef63A3CrNGBdRzhpxaxFAn1B7
ogr1n9b5Kt4slRLKzMWrIxHVZ7M9jEgw8F9eu6jA5/D9rgt28DteHyBYRjAUammh
h4v4tF+rSbJ+iFuebxd1HoBUzeZKC/YO5dNDm6eJlbKP+vn95U3VCPr+GIAebi3b
kIJ2CPX9t0UC/Qz3Qf00sPtbdITwWNK8LZXe5ZtUqXqYVihAqE4dMrHNAAjPSU99
9wZo7QIDAQABo4IBTDCCAUgwCQYDVR0TBAIwADAdBgNVHQ4EFgQU4qsErRlKAVNU
Mda2G+8fpFKfQAkwgeQGA1UdIwSB3DCB2YAURAHMBgtBdcvI+8k3hi2d0th5touh
gbWkgbIwga8xCzAJBgNVBAYTAlVTMRMwEQYDVQQIDApDYWxpZm9ybmlhMRYwFAYD
VQQHDA1TYW4gRnJhbmNpc2NvMSAwHgYDVQQKDBdDb3B5bGVmdCBDZXJ0aWZpY2F0
ZSBDbzEfMB0GA1UECwwWTXkgT3JnYW5pemF0aW9uYWwgVW5pdDERMA8GA1UEAwwI
Q2hhbmdlTWUxHTAbBgkqhkiG9w0BCQEWDm1lQGV4YW1wbGUubmV0ggkAr+jg3cWL
Dt0wEwYDVR0lBAwwCgYIKwYBBQUHAwEwCwYDVR0PBAQDAgWgMBMGA1UdEQQMMAqC
CENoYW5nZU1lMA0GCSqGSIb3DQEBCwUAA4IBAQBUa0mXrfZIqBDqrfK5jponNuAR
VxU5u2xKUmdvXTMs0QXA3H7WvU6U3t8HACSzOkDAnU9uWGHhO2yQWtdubIwiS6tJ
mSs5XbRhYqeXV6syDzg9kc4UlOAXjd+OwYLtk+hCArjmZAaGUz5M0Ccno1wt/X0b
a/UFNGfg4BGVzcsK5mJPIwG5Vy4gwdjM5BU1m6D58rPDXpsa5IZgrbzycoX5hfik
FsVsgE9+/74u2NSPtATpk38VJ8Wqg11ACGQwEBpAv6KRG0u+yFdgFfcVCwjLugYS
Sp45PN/CPb61gDTOEjC7hAuhyybpG0t0ZnLaT7jv0x3CaRDNn4jgN7pSM8tL
-----END CERTIFICATE-----
