Certificate:
    Data:
        Version: 3 (0x2)
        Serial Number:
            07:1a:30:52:64:da:4a:3c:c4:25:50:f5:0d:f4:40:54
    Signature Algorithm: sha256WithRSAEncryption
        Issuer: C=US, ST=California, L=San Francisco, O=Copyleft Certificate Co, OU=My Organizational Unit, CN=ChangeMe/emailAddress=me@example.net
        Validity
            Not Before: Nov 12 11:02:17 2023 GMT
            Not After : Nov 11 11:02:17 2024 GMT
        Subject: C=US, ST=California, L=San Francisco, O=Copyleft Certificate Co, OU=My Organizational Unit, CN=ChangeMe/emailAddress=me@example.net
        Subject Public Key Info:
            Public Key Algorithm: rsaEncryption
                Public-Key: (2048 bit)
                Modulus:
                    00:ac:e5:0a:6a:4d:5f:4f:6b:f1:cc:e0:32:d6:60:
                    ae:60:33:59:f1:eb:4f:3b:c6:ea:ab:c6:66:bb:79:
                    2f:ff:f3:9f:f2:7c:b1:09:d8:e7:d2:a7:35:36:43:
                    eb:d8:2e:9a:78:d3:90:83:16:76:36:98:9f:cd:41:
                    63:ae:53:b6:18:4a:61:63:be:27:d8:ec:8f:51:34:
                    d2:93:aa:0a:45:63:62:ab:2f:32:6c:1f:f1:c6:06:
                    78:92:0f:97:94:ad:2c:b4:f2:38:6b:98:36:da:a0:
                    91:3d:8a:47:2d:39:76:80:c6:4f:77:05:f8:7c:16:
                    a7:2e:8a:47:ed:2c:a7:8e:af:7e:20:0b:0c:96:f0:
                    2d:38:41:d0:6b:a3:ab:7b:b5:a1:19:55:52:6a:8f:
                    8a:71:f4:0c:32:89:dc:e9:f4:57:11:67:84:2e:0a:
                    42:c3:42:b0:26:71:79:9f:58:77:cc:b2:cc:e6:14:
                    13:31:ff:e7:14:af:5d:34:cd:74:3a:ed:65:44:da:
                    02:70:90:ae:89:6b:1b:8b:1c:05:a7:37:83:b4:86:
                    46:fd:2d:a2:92:78:9d:8b:cf:b1:62:9e:8a:76:75:
                    3a:44:62:bc:48:1e:62:fd:59:db:01:8d:63:23:f6:
                    82:f9:39:69:df:4c:4e:f6:c2:5a:15:9f:36:78:60:
                    d4:bd
                Exponent: 65537 (0x10001)
        X509v3 extensions:
            X509v3 Basic Constraints: 
                CA:FALSE
            X509v3 Subject Key Identifier: 
                C2:E8:7A:44:06:C4:67:7B:07:4F:40:95:A2:B2:D9:41:CE:04:65:6A
            X509v3 Authority Key Identifier: 
                keyid:B5:86:6F:B5:B4:CF:CA:01:31:71:A3:E2:73:47:AD:D2:95:85:79:72
                DirName:/C=US/ST=California/L=San Francisco/O=Copyleft Certificate Co/OU=My Organizational Unit/CN=ChangeMe/emailAddress=me@example.net
                serial:C9:4F:D5:79:AE:41:BB:A8

            X509v3 Extended Key Usage: 
                TLS Web Server Authentication
            X509v3 Key Usage: 
                Digital Signature, Key Encipherment
            X509v3 Subject Alternative Name: 
                DNS:ChangeMe
    Signature Algorithm: sha256WithRSAEncryption
         8e:ed:aa:3b:a5:9b:3c:d1:ac:15:d1:0d:16:12:b3:f9:89:b1:
         68:d1:6e:a3:2f:06:70:82:22:fe:06:84:c2:5b:c3:64:66:80:
         11:02:aa:72:44:45:aa:e0:b9:7e:20:08:b0:fe:a0:f0:1b:2b:
         93:5b:1e:98:f4:d7:10:8f:67:23:98:e6:3a:37:db:d2:0d:21:
         14:f7:40:9d:8f:28:b0:7e:ab:f0:e8:a6:98:c6:d6:42:16:b1:
         95:8d:51:a0:e4:8f:cb:bf:3a:af:cd:f9:6d:a4:1c:fa:e0:e7:
         b4:83:d2:ef:f4:08:b0:d5:ec:60:62:5b:5a:96:28:8c:f4:6a:
         e1:12:47:f5:e7:81:4e:e8:3a:3f:93:6f:5d:23:ad:3c:04:08:
         27:9b:36:c6:e7:2c:b2:48:ee:f3:0e:a7:ad:c6:66:40:e2:d4:
         6d:8f:3a:89:cb:dd:18:2b:a5:50:36:d1:5d:4b:e9:a7:b4:74:
         7d:2c:9a:d8:56:78:e9:e8:08:54:b8:de:a3:a4:36:eb:19:03:
         a4:ec:04:67:77:94:4d:eb:d0:0a:60:b9:5a:d8:cb:cf:d9:52:
         d8:59:17:4f:c4:51:9e:c3:b1:e6:e4:87:97:c6:57:5a:95:d8:
         a3:10:80:1e:26:4e:aa:8d:b8:37:e5:4c:04:de:e6:a4:30:6d:
         d2:eb:a9:0f
-----BEGIN CERTIFICATE-----
MIIFODCCBCCgAwIBAgIQBxowUmTaSjzEJVD1DfRAVDANBgkqhkiG9w0BAQsFADCB
rzELMAkGA1UEBhMCVVMxEzARBgNVBAgMCkNhbGlmb3JuaWExFjAUBgNVBAcMDVNh
biBGcmFuY2lzY28xIDAeBgNVBAoMF0NvcHlsZWZ0IENlcnRpZmljYXRlIENvMR8w
HQYDVQQLDBZNeSBPcmdhbml6YXRpb25hbCBVbml0MREwDwYDVQQDDAhDaGFuZ2VN
ZTEdMBsGCSqGSIb3DQEJARYObWVAZXhhbXBsZS5uZXQwHhcNMjMxMTEyMTEwMjE3
WhcNMjQxMTExMTEwMjE3WjCBrzELMAkGA1UEBhMCVVMxEzARBgNVBAgMCkNhbGlm
b3JuaWExFjAUBgNVBAcMDVNhbiBGcmFuY2lzY28xIDAeBgNVBAoMF0NvcHlsZWZ0
IENlcnRpZmljYXRlIENvMR8wHQYDVQQLDBZNeSBPcmdhbml6YXRpb25hbCBVbml0
MREwDwYDVQQDDAhDaGFuZ2VNZTEdMBsGCSqGSIb3DQEJARYObWVAZXhhbXBsZS5u
ZXQwggEiMA0GCSqGSIb3DQEBAQUAA4IBDwAwggEKAoIBAQCs5QpqTV9Pa/HM4DLW
YK5gM1nx6087xuqrxma7eS//85/yfLEJ2OfSpzU2Q+vYLpp405CDFnY2mJ/NQWOu
U7YYSmFjvifY7I9RNNKTqgpFY2KrLzJsH/HGBniSD5eUrSy08jhrmDbaoJE9ikct
OXaAxk93Bfh8FqcuikftLKeOr34gCwyW8C04QdBro6t7taEZVVJqj4px9Awyidzp
9FcRZ4QuCkLDQrAmcXmfWHfMsszmFBMx/+cUr100zXQ67WVE2gJwkK6JaxuLHAWn
N4O0hkb9LaKSeJ2Lz7Finop2dTpEYrxIHmL9WdsBjWMj9oL5OWnfTE72wloVnzZ4
YNS9AgMBAAGjggFMMIIBSDAJBgNVHRMEAjAAMB0GA1UdDgQWBBTC6HpEBsRnewdP
QJWistlBzgRlajCB5AYDVR0jBIHcMIHZgBS1hm+1tM/KATFxo+JzR63SlYV5cqGB
taSBsjCBrzELMAkGA1UEBhMCVVMxEzARBgNVBAgMCkNhbGlmb3JuaWExFjAUBgNV
BAcMDVNhbiBGcmFuY2lzY28xIDAeBgNVBAoMF0NvcHlsZWZ0IENlcnRpZmljYXRl
IENvMR8wHQYDVQQLDBZNeSBPcmdhbml6YXRpb25hbCBVbml0MREwDwYDVQQDDAhD
aGFuZ2VNZTEdMBsGCSqGSIb3DQEJARYObWVAZXhhbXBsZS5uZXSCCQDJT9V5rkG7
qDATBgNVHSUEDDAKBggrBgEFBQcDATALBgNVHQ8EBAMCBaAwEwYDVR0RBAwwCoII
Q2hhbmdlTWUwDQYJKoZIhvcNAQELBQADggEBAI7tqjulmzzRrBXRDRYSs/mJsWjR
bqMvBnCCIv4GhMJbw2RmgBECqnJERarguX4gCLD+oPAbK5NbHpj01xCPZyOY5jo3
29INIRT3QJ2PKLB+q/DoppjG1kIWsZWNUaDkj8u/Oq/N+W2kHPrg57SD0u/0CLDV
7GBiW1qWKIz0auESR/XngU7oOj+Tb10jrTwECCebNsbnLLJI7vMOp63GZkDi1G2P
OonL3RgrpVA20V1L6ae0dH0smthWeOnoCFS43qOkNusZA6TsBGd3lE3r0ApguVrY
y8/ZUthZF0/EUZ7Dsebkh5fGV1qV2KMQgB4mTqqNuDflTATe5qQwbdLrqQ8=
-----END CERTIFICATE-----
