Certificate:
    Data:
        Version: 3 (0x2)
        Serial Number:
            0c:86:ff:97:9d:a0:cb:de:ba:b5:bc:26:d2:de:fa:72
    Signature Algorithm: sha256WithRSAEncryption
        Issuer: C=US, ST=California, L=San Francisco, O=Copyleft Certificate Co, OU=My Organizational Unit, CN=ChangeMe/emailAddress=me@example.net
        Validity
            Not Before: Nov 11 02:00:23 2023 GMT
            Not After : Nov 10 02:00:23 2024 GMT
        Subject: C=US, ST=OH, L=Cincinnati, O=University of Cincinnati, OU=Dept. Elec. Comp. Eng. Comp. Sci., CN=client35/emailAddress=franco@gauss.ececs.uc.edu
        Subject Public Key Info:
            Public Key Algorithm: rsaEncryption
                Public-Key: (2048 bit)
                Modulus:
                    00:ce:01:d2:de:f7:ff:86:98:fc:ba:14:bd:1a:21:
                    43:84:39:46:03:28:2f:b6:6b:9b:b2:ed:1a:4f:e4:
                    cc:11:ba:21:91:89:83:9c:5e:c5:1f:f7:77:c8:ac:
                    78:25:66:cb:b1:34:02:00:4c:1e:0e:f6:ec:98:4f:
                    ba:30:1a:37:f4:d7:6e:33:1a:ea:79:c7:0a:44:e7:
                    52:d9:ef:01:72:ab:6a:27:c4:61:76:9f:3b:b7:48:
                    58:a6:ce:fe:ec:28:5d:2c:78:32:9e:c3:87:19:a6:
                    e5:86:26:0e:79:c2:01:5a:b8:e4:9f:ad:a5:ac:3a:
                    65:f6:8f:c9:5d:64:ab:a7:34:dc:af:d5:78:db:c5:
                    d5:b8:de:2d:c5:e1:ea:2e:9c:60:e3:22:95:bc:46:
                    d7:3e:05:e8:c1:4e:87:51:c4:8a:79:60:21:27:46:
                    93:0f:dc:ae:e8:5d:d9:89:af:bf:33:eb:b0:15:f9:
                    f5:53:f5:92:b5:b8:87:b6:1e:55:50:91:1c:c0:52:
                    0e:fa:a4:d4:48:55:a0:f9:7b:a6:1c:bf:f3:1e:14:
                    bf:d6:2c:8e:08:85:82:7b:a7:22:3c:55:a2:30:34:
                    8b:65:21:15:72:54:68:69:7c:a6:e3:e5:3f:11:82:
                    95:64:90:da:25:ba:96:9f:93:cc:16:1d:62:86:03:
                    b2:db
                Exponent: 65537 (0x10001)
        X509v3 extensions:
            X509v3 Basic Constraints: 
                CA:FALSE
            X509v3 Subject Key Identifier: 
                02:16:44:74:06:87:2C:A8:76:35:BF:24:7D:4A:BF:54:1E:DE:E0:9F
            X509v3 Authority Key Identifier: 
                keyid:7B:0F:93:16:64:9F:71:41:D3:1B:FB:ED:6A:70:9B:CA:2E:70:F0:4B
                DirName:/C=US/ST=California/L=San Francisco/O=Copyleft Certificate Co/OU=My Organizational Unit/CN=ChangeMe/emailAddress=me@example.net
                serial:B9:F2:4E:2C:79:B3:D4:6C

            X509v3 Extended Key Usage: 
                TLS Web Client Authentication
            X509v3 Key Usage: 
                Digital Signature
    Signature Algorithm: sha256WithRSAEncryption
         7b:65:cf:e8:9a:ce:e4:01:88:fd:d7:ae:a9:f9:5f:ab:0e:a3:
         fe:22:35:bd:04:fb:2b:f7:ee:b4:c4:c4:b0:8e:23:bf:4d:2f:
         55:b2:47:90:33:4f:96:85:00:c2:39:c0:ad:05:75:43:b6:17:
         63:9d:14:33:b9:8a:dc:0a:fa:aa:ca:73:13:51:2c:e1:09:a2:
         ea:7a:09:32:fc:9c:c0:c9:c0:30:d6:f3:88:bd:19:d3:79:82:
         3c:dd:e6:9e:d2:0f:59:a2:28:dc:88:d1:0e:b3:d0:a5:db:d8:
         a9:f8:0e:99:fa:d6:6a:19:ce:fe:20:10:fd:cf:70:09:62:81:
         37:99:e9:9d:07:cf:eb:b7:48:d9:69:dd:9d:c9:4f:1a:47:4e:
         cc:03:a8:16:07:dd:e2:91:6c:5e:db:f7:a8:00:a6:7f:27:62:
         ab:0c:fe:88:21:95:fa:70:fb:8a:67:29:ae:b1:72:27:c9:da:
         a1:33:43:a2:62:ee:ff:6e:13:14:20:db:fe:89:be:cf:25:ea:
         e4:3b:4d:31:b4:de:17:28:e0:53:83:0b:f3:c5:d0:71:cf:3a:
         5a:49:4c:f1:50:36:d4:af:ae:b8:a4:2c:14:04:ba:c6:74:fb:
         db:61:71:5b:b5:80:72:25:88:fd:44:0e:7d:f4:fd:46:a3:36:
         5b:48:1f:50
-----BEGIN CERTIFICATE-----
MIIFLzCCBBegAwIBAgIQDIb/l52gy966tbwm0t76cjANBgkqhkiG9w0BAQsFADCB
rzELMAkGA1UEBhMCVVMxEzARBgNVBAgMCkNhbGlmb3JuaWExFjAUBgNVBAcMDVNh
biBGcmFuY2lzY28xIDAeBgNVBAoMF0NvcHlsZWZ0IENlcnRpZmljYXRlIENvMR8w
HQYDVQQLDBZNeSBPcmdhbml6YXRpb25hbCBVbml0MREwDwYDVQQDDAhDaGFuZ2VN
ZTEdMBsGCSqGSIb3DQEJARYObWVAZXhhbXBsZS5uZXQwHhcNMjMxMTExMDIwMDIz
WhcNMjQxMTEwMDIwMDIzWjCBuzELMAkGA1UEBhMCVVMxCzAJBgNVBAgMAk9IMRMw
EQYDVQQHDApDaW5jaW5uYXRpMSEwHwYDVQQKDBhVbml2ZXJzaXR5IG9mIENpbmNp
bm5hdGkxKjAoBgNVBAsMIURlcHQuIEVsZWMuIENvbXAuIEVuZy4gQ29tcC4gU2Np
LjERMA8GA1UEAwwIY2xpZW50MzUxKDAmBgkqhkiG9w0BCQEWGWZyYW5jb0BnYXVz
cy5lY2Vjcy51Yy5lZHUwggEiMA0GCSqGSIb3DQEBAQUAA4IBDwAwggEKAoIBAQDO
AdLe9/+GmPy6FL0aIUOEOUYDKC+2a5uy7RpP5MwRuiGRiYOcXsUf93fIrHglZsux
NAIATB4O9uyYT7owGjf0124zGup5xwpE51LZ7wFyq2onxGF2nzu3SFimzv7sKF0s
eDKew4cZpuWGJg55wgFauOSfraWsOmX2j8ldZKunNNyv1XjbxdW43i3F4eounGDj
IpW8Rtc+BejBTodRxIp5YCEnRpMP3K7oXdmJr78z67AV+fVT9ZK1uIe2HlVQkRzA
Ug76pNRIVaD5e6Ycv/MeFL/WLI4IhYJ7pyI8VaIwNItlIRVyVGhpfKbj5T8RgpVk
kNolupafk8wWHWKGA7LbAgMBAAGjggE3MIIBMzAJBgNVHRMEAjAAMB0GA1UdDgQW
BBQCFkR0BocsqHY1vyR9Sr9UHt7gnzCB5AYDVR0jBIHcMIHZgBR7D5MWZJ9xQdMb
++1qcJvKLnDwS6GBtaSBsjCBrzELMAkGA1UEBhMCVVMxEzARBgNVBAgMCkNhbGlm
b3JuaWExFjAUBgNVBAcMDVNhbiBGcmFuY2lzY28xIDAeBgNVBAoMF0NvcHlsZWZ0
IENlcnRpZmljYXRlIENvMR8wHQYDVQQLDBZNeSBPcmdhbml6YXRpb25hbCBVbml0
MREwDwYDVQQDDAhDaGFuZ2VNZTEdMBsGCSqGSIb3DQEJARYObWVAZXhhbXBsZS5u
ZXSCCQC58k4sebPUbDATBgNVHSUEDDAKBggrBgEFBQcDAjALBgNVHQ8EBAMCB4Aw
DQYJKoZIhvcNAQELBQADggEBAHtlz+iazuQBiP3Xrqn5X6sOo/4iNb0E+yv37rTE
xLCOI79NL1WyR5AzT5aFAMI5wK0FdUO2F2OdFDO5itwK+qrKcxNRLOEJoup6CTL8
nMDJwDDW84i9GdN5gjzd5p7SD1miKNyI0Q6z0KXb2Kn4Dpn61moZzv4gEP3PcAli
gTeZ6Z0Hz+u3SNlp3Z3JTxpHTswDqBYH3eKRbF7b96gApn8nYqsM/oghlfpw+4pn
Ka6xcifJ2qEzQ6Ji7v9uExQg2/6Jvs8l6uQ7TTG03hco4FODC/PF0HHPOlpJTPFQ
NtSvrrikLBQEusZ0+9thcVu1gHIliP1EDn30/UajNltIH1A=
-----END CERTIFICATE-----
