Certificate:
    Data:
        Version: 3 (0x2)
        Serial Number:
            d2:6e:e1:bf:c8:13:da:26:10:4a:4a:e9:64:7b:35:d6
    Signature Algorithm: sha256WithRSAEncryption
        Issuer: C=US, ST=California, L=San Francisco, O=Copyleft Certificate Co, OU=My Organizational Unit, CN=ChangeMe/emailAddress=me@example.net
        Validity
            Not Before: Nov 11 01:58:23 2023 GMT
            Not After : Nov 10 01:58:23 2024 GMT
        Subject: C=US, ST=OH, L=Cincinnati, O=University of Cincinnati, OU=Dept. Elec. Comp. Eng. Comp. Sci., CN=client5/emailAddress=franco@gauss.ececs.uc.edu
        Subject Public Key Info:
            Public Key Algorithm: rsaEncryption
                Public-Key: (2048 bit)
                Modulus:
                    00:e0:f0:86:f3:10:bc:40:57:bd:85:ca:14:47:33:
                    07:04:82:54:ef:99:6d:44:e0:e2:bc:62:a0:e0:8d:
                    89:3d:4f:c5:43:12:dc:17:eb:e7:fd:f9:d4:1e:91:
                    15:06:82:ed:ca:a3:da:c1:31:9a:69:79:6a:c4:da:
                    da:17:b5:56:75:d5:ed:c5:66:71:3b:07:1e:f1:cf:
                    91:9d:05:5b:d9:1e:1a:22:da:eb:2d:a3:6e:e6:16:
                    51:96:04:cd:ef:2d:ef:40:6d:51:e1:f6:b0:95:76:
                    fa:a9:c0:04:5b:17:94:0c:39:e6:44:f6:dc:e2:fa:
                    76:c0:3b:8e:a3:99:28:a6:8e:26:f9:3a:25:e1:e6:
                    4c:53:e8:89:94:c2:23:d2:96:78:3f:b8:77:61:54:
                    50:fd:09:9c:0a:a5:ae:e8:42:94:a7:f0:6f:82:24:
                    6d:0a:ac:08:31:9b:4f:00:c7:bd:fc:44:cd:70:f5:
                    70:1c:43:a1:6c:5c:f5:0f:6f:5a:8c:05:c5:bb:35:
                    c4:d7:83:8a:d8:7a:6f:ee:93:99:34:e6:6d:35:19:
                    7a:47:95:80:91:e9:1e:4b:1a:76:5b:02:27:7c:b2:
                    ed:6e:e8:7d:b3:ee:c3:63:db:fe:2e:18:73:aa:81:
                    0d:80:35:c5:f2:ea:e5:ad:13:9b:a5:4c:f0:ea:0c:
                    8f:d3
                Exponent: 65537 (0x10001)
        X509v3 extensions:
            X509v3 Basic Constraints: 
                CA:FALSE
            X509v3 Subject Key Identifier: 
                22:CA:C6:D4:59:52:5F:A4:CE:74:20:AF:A5:92:F3:4B:8B:E1:86:33
            X509v3 Authority Key Identifier: 
                keyid:7B:0F:93:16:64:9F:71:41:D3:1B:FB:ED:6A:70:9B:CA:2E:70:F0:4B
                DirName:/C=US/ST=California/L=San Francisco/O=Copyleft Certificate Co/OU=My Organizational Unit/CN=ChangeMe/emailAddress=me@example.net
                serial:B9:F2:4E:2C:79:B3:D4:6C

            X509v3 Extended Key Usage: 
                TLS Web Client Authentication
            X509v3 Key Usage: 
                Digital Signature
    Signature Algorithm: sha256WithRSAEncryption
         93:bf:26:74:02:d4:09:ec:13:e6:5d:61:10:f9:ce:2d:bf:ce:
         c3:c2:12:2d:bf:09:3d:ad:29:05:4c:c9:4c:f3:c9:f9:2c:67:
         68:e3:86:1e:17:8d:39:2f:ec:56:d7:88:04:8c:35:6d:20:38:
         fa:f0:a4:d9:31:b2:77:e0:5c:67:a6:78:b0:92:ac:ae:ce:10:
         7f:7c:d8:d4:bf:ac:95:64:be:3f:a0:ca:82:89:16:99:26:72:
         8b:3e:20:e3:09:eb:ea:e6:63:ac:c4:78:09:cc:f6:8d:40:cd:
         ba:74:77:62:5d:b9:21:f9:b3:01:9c:43:df:0c:04:ef:6d:32:
         e2:1c:a5:2d:8b:a8:ee:17:f1:ed:4d:19:9e:49:28:9c:9b:1f:
         6f:66:f4:fe:4b:ea:ee:08:d4:d8:45:83:75:b2:c1:df:e5:8c:
         c2:b0:62:c1:e7:70:d3:ef:48:06:21:0c:bb:05:17:e9:ea:81:
         4f:55:5c:94:23:59:2f:cd:34:36:a2:3e:b2:9a:c1:ae:6c:68:
         10:b1:d9:74:8d:8e:f5:57:e2:b2:44:94:3b:5f:9b:78:5c:49:
         0c:1d:bd:b1:54:10:31:99:14:3d:0f:60:42:e5:f9:81:52:3f:
         9b:53:bd:29:64:0e:9a:a6:41:ba:06:c9:c8:86:e7:6e:82:da:
         4e:b2:93:68
-----BEGIN CERTIFICATE-----
MIIFLzCCBBegAwIBAgIRANJu4b/IE9omEEpK6WR7NdYwDQYJKoZIhvcNAQELBQAw
ga8xCzAJBgNVBAYTAlVTMRMwEQYDVQQIDApDYWxpZm9ybmlhMRYwFAYDVQQHDA1T
YW4gRnJhbmNpc2NvMSAwHgYDVQQKDBdDb3B5bGVmdCBDZXJ0aWZpY2F0ZSBDbzEf
MB0GA1UECwwWTXkgT3JnYW5pemF0aW9uYWwgVW5pdDERMA8GA1UEAwwIQ2hhbmdl
TWUxHTAbBgkqhkiG9w0BCQEWDm1lQGV4YW1wbGUubmV0MB4XDTIzMTExMTAxNTgy
M1oXDTI0MTExMDAxNTgyM1owgboxCzAJBgNVBAYTAlVTMQswCQYDVQQIDAJPSDET
MBEGA1UEBwwKQ2luY2lubmF0aTEhMB8GA1UECgwYVW5pdmVyc2l0eSBvZiBDaW5j
aW5uYXRpMSowKAYDVQQLDCFEZXB0LiBFbGVjLiBDb21wLiBFbmcuIENvbXAuIFNj
aS4xEDAOBgNVBAMMB2NsaWVudDUxKDAmBgkqhkiG9w0BCQEWGWZyYW5jb0BnYXVz
cy5lY2Vjcy51Yy5lZHUwggEiMA0GCSqGSIb3DQEBAQUAA4IBDwAwggEKAoIBAQDg
8IbzELxAV72FyhRHMwcEglTvmW1E4OK8YqDgjYk9T8VDEtwX6+f9+dQekRUGgu3K
o9rBMZppeWrE2toXtVZ11e3FZnE7Bx7xz5GdBVvZHhoi2usto27mFlGWBM3vLe9A
bVHh9rCVdvqpwARbF5QMOeZE9tzi+nbAO46jmSimjib5OiXh5kxT6ImUwiPSlng/
uHdhVFD9CZwKpa7oQpSn8G+CJG0KrAgxm08Ax738RM1w9XAcQ6FsXPUPb1qMBcW7
NcTXg4rYem/uk5k05m01GXpHlYCR6R5LGnZbAid8su1u6H2z7sNj2/4uGHOqgQ2A
NcXy6uWtE5ulTPDqDI/TAgMBAAGjggE3MIIBMzAJBgNVHRMEAjAAMB0GA1UdDgQW
BBQiysbUWVJfpM50IK+lkvNLi+GGMzCB5AYDVR0jBIHcMIHZgBR7D5MWZJ9xQdMb
++1qcJvKLnDwS6GBtaSBsjCBrzELMAkGA1UEBhMCVVMxEzARBgNVBAgMCkNhbGlm
b3JuaWExFjAUBgNVBAcMDVNhbiBGcmFuY2lzY28xIDAeBgNVBAoMF0NvcHlsZWZ0
IENlcnRpZmljYXRlIENvMR8wHQYDVQQLDBZNeSBPcmdhbml6YXRpb25hbCBVbml0
MREwDwYDVQQDDAhDaGFuZ2VNZTEdMBsGCSqGSIb3DQEJARYObWVAZXhhbXBsZS5u
ZXSCCQC58k4sebPUbDATBgNVHSUEDDAKBggrBgEFBQcDAjALBgNVHQ8EBAMCB4Aw
DQYJKoZIhvcNAQELBQADggEBAJO/JnQC1AnsE+ZdYRD5zi2/zsPCEi2/CT2tKQVM
yUzzyfksZ2jjhh4XjTkv7FbXiASMNW0gOPrwpNkxsnfgXGemeLCSrK7OEH982NS/
rJVkvj+gyoKJFpkmcos+IOMJ6+rmY6zEeAnM9o1Azbp0d2JduSH5swGcQ98MBO9t
MuIcpS2LqO4X8e1NGZ5JKJybH29m9P5L6u4I1NhFg3Wywd/ljMKwYsHncNPvSAYh
DLsFF+nqgU9VXJQjWS/NNDaiPrKawa5saBCx2XSNjvVX4rJElDtfm3hcSQwdvbFU
EDGZFD0PYELl+YFSP5tTvSlkDpqmQboGyciG526C2k6yk2g=
-----END CERTIFICATE-----
