Certificate:
    Data:
        Version: 3 (0x2)
        Serial Number:
            2e:fb:b8:d1:83:7d:42:54:7f:12:06:c1:6e:51:8b:1f
    Signature Algorithm: sha256WithRSAEncryption
        Issuer: C=US, ST=California, L=San Francisco, O=Copyleft Certificate Co, OU=My Organizational Unit, CN=ChangeMe/emailAddress=me@example.net
        Validity
            Not Before: Nov 11 01:47:50 2023 GMT
            Not After : Nov 10 01:47:50 2024 GMT
        Subject: C=US, ST=OH, L=Cincinnati, O=University of Cincinnati, OU=Dept. Elec. Comp. Eng. Comp. Sci., CN=client122/emailAddress=franco@gauss.ececs.uc.edu
        Subject Public Key Info:
            Public Key Algorithm: rsaEncryption
                Public-Key: (2048 bit)
                Modulus:
                    00:ee:72:ca:c5:48:82:62:23:16:d7:fc:15:ab:60:
                    9c:9a:9a:61:d8:5b:92:bc:70:70:c4:b6:ce:24:48:
                    8e:5a:0d:5b:8c:95:ec:7f:93:ba:02:27:18:db:88:
                    6d:12:1c:70:78:fa:39:e6:05:cb:9c:4b:31:a0:1c:
                    ae:fc:5d:82:5c:44:0e:2f:23:2a:f2:8d:6e:37:40:
                    8d:18:26:62:76:69:f1:86:9e:0b:7e:6e:1f:cb:34:
                    d4:ac:be:ca:72:c0:3c:89:f2:23:ff:ef:e7:04:85:
                    c8:78:af:c6:e4:e5:5a:6f:84:e9:f6:51:7b:25:9e:
                    4a:49:b4:21:cc:63:98:dc:eb:bd:73:ef:8c:d5:89:
                    46:8b:b8:4a:b1:59:14:21:c6:13:2f:1e:c3:0b:b7:
                    81:ea:6b:3a:2f:90:76:75:55:54:22:9c:9b:d6:fe:
                    58:15:c7:1e:ad:4a:ab:d7:25:b6:e3:17:14:31:de:
                    32:75:ae:3c:eb:78:48:ae:5b:c6:2e:34:d5:77:f3:
                    5a:ea:5b:a5:c9:05:ad:bf:02:3b:09:ec:8d:48:96:
                    84:58:42:84:ad:5c:5b:de:35:6b:50:17:82:69:4c:
                    28:96:41:9b:1c:89:5f:fc:d2:c7:f2:ac:0c:b7:3e:
                    03:06:da:87:00:74:4d:60:50:d1:26:b4:5b:8a:95:
                    29:1b
                Exponent: 65537 (0x10001)
        X509v3 extensions:
            X509v3 Basic Constraints: 
                CA:FALSE
            X509v3 Subject Key Identifier: 
                43:AB:A9:A7:45:E4:93:18:DD:AF:10:5C:6F:CA:B9:E4:D2:81:4B:03
            X509v3 Authority Key Identifier: 
                keyid:73:DE:A0:43:0F:AE:B1:9E:E8:59:69:18:50:A1:1A:1F:D4:A1:E3:F0
                DirName:/C=US/ST=California/L=San Francisco/O=Copyleft Certificate Co/OU=My Organizational Unit/CN=ChangeMe/emailAddress=me@example.net
                serial:E9:BB:CB:16:C5:32:BE:3B

            X509v3 Extended Key Usage: 
                TLS Web Client Authentication
            X509v3 Key Usage: 
                Digital Signature
    Signature Algorithm: sha256WithRSAEncryption
         21:17:5b:61:8c:5f:62:8d:47:23:69:b5:7a:1c:02:81:92:96:
         17:4a:3e:51:cd:32:86:88:4c:1f:f0:a9:fd:7a:6f:8e:bc:45:
         33:44:10:e5:d3:cc:ef:68:03:11:1f:93:fa:24:df:e6:82:fe:
         51:a3:4f:6d:fd:e4:9f:31:e6:3d:c1:c3:8f:9e:3e:c2:7e:ce:
         00:2c:4d:74:80:05:42:17:33:0d:1c:87:41:71:76:87:d0:19:
         e7:21:cf:33:65:05:ea:4c:f9:02:ff:07:7d:27:df:b1:8e:b2:
         9e:d1:bc:b7:0c:8e:82:a6:18:bf:d5:3b:2e:ce:65:1f:b6:76:
         08:dd:4c:4c:a5:10:3e:0b:39:cd:1f:bd:b7:a5:29:95:85:05:
         82:5d:a0:84:33:9e:4a:6c:cf:bd:44:38:81:7b:12:6a:e1:a2:
         4b:47:3a:3d:3a:be:26:f8:f7:65:e7:ed:c8:1b:48:cd:95:17:
         2a:ee:53:d2:fa:bc:0f:b0:9c:c9:4f:9b:d9:bd:a2:ee:11:a1:
         e1:f2:af:57:56:60:b7:a4:66:ad:bd:76:6b:34:ac:ec:18:bf:
         d7:da:6d:8b:f9:dc:12:55:d6:9b:69:1c:8f:bc:27:3d:6d:e3:
         af:82:2c:de:81:6f:39:2a:0a:fe:3f:2e:8c:7c:7b:51:9c:21:
         a3:3e:59:42
-----BEGIN CERTIFICATE-----
MIIFMDCCBBigAwIBAgIQLvu40YN9QlR/EgbBblGLHzANBgkqhkiG9w0BAQsFADCB
rzELMAkGA1UEBhMCVVMxEzARBgNVBAgMCkNhbGlmb3JuaWExFjAUBgNVBAcMDVNh
biBGcmFuY2lzY28xIDAeBgNVBAoMF0NvcHlsZWZ0IENlcnRpZmljYXRlIENvMR8w
HQYDVQQLDBZNeSBPcmdhbml6YXRpb25hbCBVbml0MREwDwYDVQQDDAhDaGFuZ2VN
ZTEdMBsGCSqGSIb3DQEJARYObWVAZXhhbXBsZS5uZXQwHhcNMjMxMTExMDE0NzUw
WhcNMjQxMTEwMDE0NzUwWjCBvDELMAkGA1UEBhMCVVMxCzAJBgNVBAgMAk9IMRMw
EQYDVQQHDApDaW5jaW5uYXRpMSEwHwYDVQQKDBhVbml2ZXJzaXR5IG9mIENpbmNp
bm5hdGkxKjAoBgNVBAsMIURlcHQuIEVsZWMuIENvbXAuIEVuZy4gQ29tcC4gU2Np
LjESMBAGA1UEAwwJY2xpZW50MTIyMSgwJgYJKoZIhvcNAQkBFhlmcmFuY29AZ2F1
c3MuZWNlY3MudWMuZWR1MIIBIjANBgkqhkiG9w0BAQEFAAOCAQ8AMIIBCgKCAQEA
7nLKxUiCYiMW1/wVq2Ccmpph2FuSvHBwxLbOJEiOWg1bjJXsf5O6AicY24htEhxw
ePo55gXLnEsxoByu/F2CXEQOLyMq8o1uN0CNGCZidmnxhp4Lfm4fyzTUrL7KcsA8
ifIj/+/nBIXIeK/G5OVab4Tp9lF7JZ5KSbQhzGOY3Ou9c++M1YlGi7hKsVkUIcYT
Lx7DC7eB6ms6L5B2dVVUIpyb1v5YFccerUqr1yW24xcUMd4yda4863hIrlvGLjTV
d/Na6lulyQWtvwI7CeyNSJaEWEKErVxb3jVrUBeCaUwolkGbHIlf/NLH8qwMtz4D
BtqHAHRNYFDRJrRbipUpGwIDAQABo4IBNzCCATMwCQYDVR0TBAIwADAdBgNVHQ4E
FgQUQ6upp0XkkxjdrxBcb8q55NKBSwMwgeQGA1UdIwSB3DCB2YAUc96gQw+usZ7o
WWkYUKEaH9Sh4/ChgbWkgbIwga8xCzAJBgNVBAYTAlVTMRMwEQYDVQQIDApDYWxp
Zm9ybmlhMRYwFAYDVQQHDA1TYW4gRnJhbmNpc2NvMSAwHgYDVQQKDBdDb3B5bGVm
dCBDZXJ0aWZpY2F0ZSBDbzEfMB0GA1UECwwWTXkgT3JnYW5pemF0aW9uYWwgVW5p
dDERMA8GA1UEAwwIQ2hhbmdlTWUxHTAbBgkqhkiG9w0BCQEWDm1lQGV4YW1wbGUu
bmV0ggkA6bvLFsUyvjswEwYDVR0lBAwwCgYIKwYBBQUHAwIwCwYDVR0PBAQDAgeA
MA0GCSqGSIb3DQEBCwUAA4IBAQAhF1thjF9ijUcjabV6HAKBkpYXSj5RzTKGiEwf
8Kn9em+OvEUzRBDl08zvaAMRH5P6JN/mgv5Ro09t/eSfMeY9wcOPnj7Cfs4ALE10
gAVCFzMNHIdBcXaH0BnnIc8zZQXqTPkC/wd9J9+xjrKe0by3DI6Cphi/1TsuzmUf
tnYI3UxMpRA+CznNH723pSmVhQWCXaCEM55KbM+9RDiBexJq4aJLRzo9Or4m+Pdl
5+3IG0jNlRcq7lPS+rwPsJzJT5vZvaLuEaHh8q9XVmC3pGatvXZrNKzsGL/X2m2L
+dwSVdabaRyPvCc9beOvgizegW85Kgr+Py6MfHtRnCGjPllC
-----END CERTIFICATE-----
