Certificate:
    Data:
        Version: 3 (0x2)
        Serial Number:
            a4:2f:62:0c:d4:67:25:1b:2f:a5:e9:80:22:b1:98:1d
    Signature Algorithm: sha256WithRSAEncryption
        Issuer: C=US, ST=California, L=San Francisco, O=Copyleft Certificate Co, OU=My Organizational Unit, CN=ChangeMe/emailAddress=me@example.net
        Validity
            Not Before: Nov 10 17:46:46 2023 GMT
            Not After : Nov  9 17:46:46 2024 GMT
        Subject: C=US, ST=OH, L=Cincinnati, O=University of Cincinnati, OU=Dept_Elec_Com_ Eng_Com_Sci., CN=client125/emailAddress=franco@gauss.ececs.uc.edu
        Subject Public Key Info:
            Public Key Algorithm: rsaEncryption
                Public-Key: (2048 bit)
                Modulus:
                    00:ff:73:22:bb:a0:4f:d5:43:c4:f0:77:70:54:8f:
                    17:cc:33:6b:d4:53:19:da:43:6b:d0:fb:9c:8a:6c:
                    b4:73:05:9a:91:8d:74:53:08:77:b9:79:35:fc:ac:
                    07:54:3d:db:ea:b0:68:4f:8c:0b:ac:4b:f7:95:3d:
                    34:10:1e:fd:da:97:9e:63:f7:91:f7:0f:b3:7c:c4:
                    ef:f3:34:0a:bc:e3:27:0e:7a:77:ca:14:1a:e8:e6:
                    57:2f:72:ea:06:39:aa:c2:5a:a2:12:64:29:88:af:
                    91:2b:ca:8d:00:d7:06:c0:1d:74:b1:6d:a4:91:52:
                    85:f8:a8:24:2f:48:9e:eb:d1:28:17:d4:56:0a:f5:
                    b5:bc:a3:e9:b5:db:cb:e3:7e:96:58:7d:82:d5:8f:
                    67:02:d4:94:cf:ed:e9:5a:ba:dd:3b:03:3b:bf:56:
                    2b:d4:de:46:8e:f5:3d:a9:96:35:55:de:b2:27:b8:
                    4c:2a:2d:44:df:72:d4:df:d1:48:fa:14:0e:e2:bc:
                    b6:c5:5e:6e:95:d7:91:cc:6a:de:28:d7:93:0c:28:
                    06:68:33:83:7e:f4:c5:d0:5f:6e:f5:69:49:d2:c5:
                    cf:70:17:1a:79:f8:7f:8a:53:21:5a:79:40:7f:0d:
                    e5:2b:75:f9:ff:c4:ae:a2:68:09:9e:39:70:b8:83:
                    23:3f
                Exponent: 65537 (0x10001)
        X509v3 extensions:
            X509v3 Basic Constraints: 
                CA:FALSE
            X509v3 Subject Key Identifier: 
                F2:99:E7:86:2D:69:2A:E7:17:CB:EE:A1:D3:46:92:48:23:82:F1:60
            X509v3 Authority Key Identifier: 
                keyid:C8:27:DA:64:30:08:40:08:4A:25:CC:DC:43:99:DE:77:A1:FE:77:BD
                DirName:/C=US/ST=California/L=San Francisco/O=Copyleft Certificate Co/OU=My Organizational Unit/CN=ChangeMe/emailAddress=me@example.net
                serial:A9:48:C3:7E:FC:1B:B0:A1

            X509v3 Extended Key Usage: 
                TLS Web Client Authentication
            X509v3 Key Usage: 
                Digital Signature
    Signature Algorithm: sha256WithRSAEncryption
         a6:41:9e:35:7a:c6:4b:6c:9b:bc:7e:5a:6d:1c:f1:a8:96:aa:
         d2:33:8e:c6:51:cb:0d:fb:0b:4a:3d:94:0c:34:b6:59:9c:2c:
         bf:b7:4b:ea:8a:66:73:fd:3a:a8:66:66:47:a1:f5:22:ab:70:
         06:7d:ed:60:5c:f1:e3:d0:49:ad:d3:e4:fc:45:f7:11:c6:42:
         a8:c6:39:c0:35:95:d6:b5:36:1d:6b:a1:87:6e:1b:91:02:94:
         aa:45:0e:ec:27:e1:07:2e:5e:7f:0a:e7:ae:98:84:bd:5b:a0:
         fa:4f:a7:c6:0f:68:bc:c1:8a:59:d8:7a:0b:6b:d9:50:5f:81:
         51:43:b8:5e:79:61:37:0e:ed:a0:bc:19:c1:63:14:14:7a:28:
         dd:ae:e4:10:85:d6:bb:89:54:bc:7e:fe:9d:ad:22:8f:5c:c7:
         f9:1c:70:13:02:ef:37:1b:10:5b:a3:52:fe:0a:e6:ae:51:0a:
         9c:b3:8c:b4:b5:5a:f7:51:5c:be:7e:f6:44:b3:47:05:6a:76:
         bc:4c:05:6d:35:92:c9:8f:59:31:f3:57:83:d5:aa:fa:b0:7f:
         36:b9:da:03:63:b3:09:57:01:04:f4:aa:dd:5d:52:64:dd:ba:
         9a:3b:db:e9:14:cb:56:e3:df:5d:2c:58:5f:4a:d7:46:9a:f9:
         cb:62:b1:65
-----BEGIN CERTIFICATE-----
MIIFKzCCBBOgAwIBAgIRAKQvYgzUZyUbL6XpgCKxmB0wDQYJKoZIhvcNAQELBQAw
ga8xCzAJBgNVBAYTAlVTMRMwEQYDVQQIDApDYWxpZm9ybmlhMRYwFAYDVQQHDA1T
YW4gRnJhbmNpc2NvMSAwHgYDVQQKDBdDb3B5bGVmdCBDZXJ0aWZpY2F0ZSBDbzEf
MB0GA1UECwwWTXkgT3JnYW5pemF0aW9uYWwgVW5pdDERMA8GA1UEAwwIQ2hhbmdl
TWUxHTAbBgkqhkiG9w0BCQEWDm1lQGV4YW1wbGUubmV0MB4XDTIzMTExMDE3NDY0
NloXDTI0MTEwOTE3NDY0NlowgbYxCzAJBgNVBAYTAlVTMQswCQYDVQQIDAJPSDET
MBEGA1UEBwwKQ2luY2lubmF0aTEhMB8GA1UECgwYVW5pdmVyc2l0eSBvZiBDaW5j
aW5uYXRpMSQwIgYDVQQLDBtEZXB0X0VsZWNfQ29tXyBFbmdfQ29tX1NjaS4xEjAQ
BgNVBAMMCWNsaWVudDEyNTEoMCYGCSqGSIb3DQEJARYZZnJhbmNvQGdhdXNzLmVj
ZWNzLnVjLmVkdTCCASIwDQYJKoZIhvcNAQEBBQADggEPADCCAQoCggEBAP9zIrug
T9VDxPB3cFSPF8wza9RTGdpDa9D7nIpstHMFmpGNdFMId7l5NfysB1Q92+qwaE+M
C6xL95U9NBAe/dqXnmP3kfcPs3zE7/M0CrzjJw56d8oUGujmVy9y6gY5qsJaohJk
KYivkSvKjQDXBsAddLFtpJFShfioJC9InuvRKBfUVgr1tbyj6bXby+N+llh9gtWP
ZwLUlM/t6Vq63TsDO79WK9TeRo71PamWNVXesie4TCotRN9y1N/RSPoUDuK8tsVe
bpXXkcxq3ijXkwwoBmgzg370xdBfbvVpSdLFz3AXGnn4f4pTIVp5QH8N5St1+f/E
rqJoCZ45cLiDIz8CAwEAAaOCATcwggEzMAkGA1UdEwQCMAAwHQYDVR0OBBYEFPKZ
54YtaSrnF8vuodNGkkgjgvFgMIHkBgNVHSMEgdwwgdmAFMgn2mQwCEAISiXM3EOZ
3neh/ne9oYG1pIGyMIGvMQswCQYDVQQGEwJVUzETMBEGA1UECAwKQ2FsaWZvcm5p
YTEWMBQGA1UEBwwNU2FuIEZyYW5jaXNjbzEgMB4GA1UECgwXQ29weWxlZnQgQ2Vy
dGlmaWNhdGUgQ28xHzAdBgNVBAsMFk15IE9yZ2FuaXphdGlvbmFsIFVuaXQxETAP
BgNVBAMMCENoYW5nZU1lMR0wGwYJKoZIhvcNAQkBFg5tZUBleGFtcGxlLm5ldIIJ
AKlIw378G7ChMBMGA1UdJQQMMAoGCCsGAQUFBwMCMAsGA1UdDwQEAwIHgDANBgkq
hkiG9w0BAQsFAAOCAQEApkGeNXrGS2ybvH5abRzxqJaq0jOOxlHLDfsLSj2UDDS2
WZwsv7dL6opmc/06qGZmR6H1IqtwBn3tYFzx49BJrdPk/EX3EcZCqMY5wDWV1rU2
HWuhh24bkQKUqkUO7CfhBy5efwrnrpiEvVug+k+nxg9ovMGKWdh6C2vZUF+BUUO4
XnlhNw7toLwZwWMUFHoo3a7kEIXWu4lUvH7+na0ij1zH+RxwEwLvNxsQW6NS/grm
rlEKnLOMtLVa91Fcvn72RLNHBWp2vEwFbTWSyY9ZMfNXg9Wq+rB/NrnaA2OzCVcB
BPSq3V1SZN26mjvb6RTLVuPfXSxYX0rXRpr5y2KxZQ==
-----END CERTIFICATE-----
