Certificate:
    Data:
        Version: 3 (0x2)
        Serial Number:
            30:2e:f6:36:6d:a7:3d:ab:7b:ec:fc:eb:43:50:26:a0
    Signature Algorithm: sha256WithRSAEncryption
        Issuer: C=US, ST=California, L=San Francisco, O=Copyleft Certificate Co, OU=My Organizational Unit, CN=ChangeMe/emailAddress=me@example.net
        Validity
            Not Before: Nov 10 17:44:54 2023 GMT
            Not After : Nov  9 17:44:54 2024 GMT
        Subject: C=US, ST=OH, L=Cincinnati, O=University of Cincinnati, OU=Dept_Elec_Com_ Eng_Com_Sci., CN=client97/emailAddress=franco@gauss.ececs.uc.edu
        Subject Public Key Info:
            Public Key Algorithm: rsaEncryption
                Public-Key: (2048 bit)
                Modulus:
                    00:c1:70:ac:30:a3:6c:51:db:8f:b3:01:6f:6a:21:
                    80:3e:7c:fc:d3:41:13:9e:58:4d:2b:6b:25:22:18:
                    cf:18:23:4e:50:09:c7:4a:71:3c:49:f1:8d:a6:cb:
                    68:d1:fb:9d:31:d3:1a:d1:11:3f:1b:2e:c3:27:00:
                    40:2a:f4:dc:3b:e3:1a:0f:f2:35:ed:1c:ce:f1:20:
                    ae:e4:32:eb:54:8f:f3:ff:7b:6d:f9:9f:06:37:93:
                    7f:67:8b:20:00:2f:5e:ba:d2:76:de:30:9e:76:f4:
                    ea:c0:20:13:f3:48:29:a6:2d:99:17:77:72:7c:21:
                    73:78:11:74:e3:1c:e6:81:5f:a9:9f:a1:26:e3:14:
                    90:d6:53:f2:57:c2:b5:79:69:59:b6:fd:9a:6d:98:
                    9e:c2:16:b3:ce:59:32:bf:5b:51:c6:fa:4d:29:4d:
                    93:ab:b1:b7:e4:c3:69:9f:6f:cf:ba:56:ad:b2:67:
                    63:5a:e2:f1:95:e8:f9:f4:e0:6b:9e:e5:23:1b:2b:
                    79:f8:7a:38:b7:c1:b2:93:d3:1c:c7:92:f3:2b:38:
                    1b:48:a8:79:ca:16:69:30:58:27:6f:17:2b:c3:d0:
                    65:d6:91:03:ec:1e:c5:eb:86:13:d5:c3:3a:fa:9a:
                    e8:16:fe:27:70:24:10:5c:fb:8a:96:4f:5a:74:fd:
                    66:bd
                Exponent: 65537 (0x10001)
        X509v3 extensions:
            X509v3 Basic Constraints: 
                CA:FALSE
            X509v3 Subject Key Identifier: 
                54:38:FE:BF:4A:50:B4:DB:E3:91:03:EC:49:48:98:BF:2D:F0:FB:A1
            X509v3 Authority Key Identifier: 
                keyid:C8:27:DA:64:30:08:40:08:4A:25:CC:DC:43:99:DE:77:A1:FE:77:BD
                DirName:/C=US/ST=California/L=San Francisco/O=Copyleft Certificate Co/OU=My Organizational Unit/CN=ChangeMe/emailAddress=me@example.net
                serial:A9:48:C3:7E:FC:1B:B0:A1

            X509v3 Extended Key Usage: 
                TLS Web Client Authentication
            X509v3 Key Usage: 
                Digital Signature
    Signature Algorithm: sha256WithRSAEncryption
         a6:94:1b:e8:c0:a5:f6:6d:44:d7:c5:24:41:47:b6:65:cb:8b:
         5f:99:df:56:59:6c:13:ad:50:1e:10:d1:bc:60:61:46:56:e1:
         15:40:ba:21:bb:56:30:29:f5:f2:e8:15:8b:df:45:38:ec:34:
         8b:78:be:ad:4d:d9:e3:e2:73:52:a7:5a:5d:61:82:85:00:ac:
         1b:4a:66:f5:17:e4:e7:1e:0e:fd:b5:3b:de:0b:d8:c6:fb:26:
         bf:fc:64:2b:a1:7f:a5:3a:fd:b8:0f:ba:85:83:32:9d:46:43:
         40:d1:eb:f7:c2:15:31:93:e4:14:fe:61:17:95:41:56:0c:c6:
         3c:a1:76:c8:56:a2:1c:1e:b5:5a:e1:ae:c7:44:a0:97:aa:20:
         d9:a9:74:51:82:af:b0:91:df:b2:45:b0:18:8a:bb:1a:e0:37:
         b5:14:1e:05:58:9e:78:9a:86:97:b5:96:80:dc:f9:00:9d:0a:
         c1:fa:ec:14:4d:1f:7d:f7:be:57:1b:fb:11:96:ed:be:bb:44:
         d8:45:85:fc:81:0e:19:43:ea:c4:fa:1d:61:7b:3e:28:33:e3:
         e0:d5:14:1b:f4:4e:50:2b:bf:b3:51:b9:45:17:47:4e:48:9a:
         ea:71:28:ac:af:c6:67:8f:e3:36:ea:0b:13:3f:6a:a4:0b:42:
         5d:54:35:59
-----BEGIN CERTIFICATE-----
MIIFKTCCBBGgAwIBAgIQMC72Nm2nPat77PzrQ1AmoDANBgkqhkiG9w0BAQsFADCB
rzELMAkGA1UEBhMCVVMxEzARBgNVBAgMCkNhbGlmb3JuaWExFjAUBgNVBAcMDVNh
biBGcmFuY2lzY28xIDAeBgNVBAoMF0NvcHlsZWZ0IENlcnRpZmljYXRlIENvMR8w
HQYDVQQLDBZNeSBPcmdhbml6YXRpb25hbCBVbml0MREwDwYDVQQDDAhDaGFuZ2VN
ZTEdMBsGCSqGSIb3DQEJARYObWVAZXhhbXBsZS5uZXQwHhcNMjMxMTEwMTc0NDU0
WhcNMjQxMTA5MTc0NDU0WjCBtTELMAkGA1UEBhMCVVMxCzAJBgNVBAgMAk9IMRMw
EQYDVQQHDApDaW5jaW5uYXRpMSEwHwYDVQQKDBhVbml2ZXJzaXR5IG9mIENpbmNp
bm5hdGkxJDAiBgNVBAsMG0RlcHRfRWxlY19Db21fIEVuZ19Db21fU2NpLjERMA8G
A1UEAwwIY2xpZW50OTcxKDAmBgkqhkiG9w0BCQEWGWZyYW5jb0BnYXVzcy5lY2Vj
cy51Yy5lZHUwggEiMA0GCSqGSIb3DQEBAQUAA4IBDwAwggEKAoIBAQDBcKwwo2xR
24+zAW9qIYA+fPzTQROeWE0rayUiGM8YI05QCcdKcTxJ8Y2my2jR+50x0xrRET8b
LsMnAEAq9Nw74xoP8jXtHM7xIK7kMutUj/P/e235nwY3k39niyAAL1660nbeMJ52
9OrAIBPzSCmmLZkXd3J8IXN4EXTjHOaBX6mfoSbjFJDWU/JXwrV5aVm2/ZptmJ7C
FrPOWTK/W1HG+k0pTZOrsbfkw2mfb8+6Vq2yZ2Na4vGV6Pn04Gue5SMbK3n4eji3
wbKT0xzHkvMrOBtIqHnKFmkwWCdvFyvD0GXWkQPsHsXrhhPVwzr6mugW/idwJBBc
+4qWT1p0/Wa9AgMBAAGjggE3MIIBMzAJBgNVHRMEAjAAMB0GA1UdDgQWBBRUOP6/
SlC02+ORA+xJSJi/LfD7oTCB5AYDVR0jBIHcMIHZgBTIJ9pkMAhACEolzNxDmd53
of53vaGBtaSBsjCBrzELMAkGA1UEBhMCVVMxEzARBgNVBAgMCkNhbGlmb3JuaWEx
FjAUBgNVBAcMDVNhbiBGcmFuY2lzY28xIDAeBgNVBAoMF0NvcHlsZWZ0IENlcnRp
ZmljYXRlIENvMR8wHQYDVQQLDBZNeSBPcmdhbml6YXRpb25hbCBVbml0MREwDwYD
VQQDDAhDaGFuZ2VNZTEdMBsGCSqGSIb3DQEJARYObWVAZXhhbXBsZS5uZXSCCQCp
SMN+/BuwoTATBgNVHSUEDDAKBggrBgEFBQcDAjALBgNVHQ8EBAMCB4AwDQYJKoZI
hvcNAQELBQADggEBAKaUG+jApfZtRNfFJEFHtmXLi1+Z31ZZbBOtUB4Q0bxgYUZW
4RVAuiG7VjAp9fLoFYvfRTjsNIt4vq1N2ePic1KnWl1hgoUArBtKZvUX5OceDv21
O94L2Mb7Jr/8ZCuhf6U6/bgPuoWDMp1GQ0DR6/fCFTGT5BT+YReVQVYMxjyhdshW
ohwetVrhrsdEoJeqINmpdFGCr7CR37JFsBiKuxrgN7UUHgVYnniahpe1loDc+QCd
CsH67BRNH333vlcb+xGW7b67RNhFhfyBDhlD6sT6HWF7Pigz4+DVFBv0TlArv7NR
uUUXR05ImupxKKyvxmeP4zbqCxM/aqQLQl1UNVk=
-----END CERTIFICATE-----
