Certificate:
    Data:
        Version: 3 (0x2)
        Serial Number:
            d4:28:97:2a:8e:5d:27:ad:c9:ef:ae:70:ee:d3:06:3e
    Signature Algorithm: sha256WithRSAEncryption
        Issuer: C=US, ST=California, L=San Francisco, O=Copyleft Certificate Co, OU=My Organizational Unit, CN=ChangeMe/emailAddress=me@example.net
        Validity
            Not Before: Jan 23 18:30:11 2021 GMT
            Not After : Jan 23 18:30:11 2022 GMT
        Subject: C=US, ST=OH, L=Cincinnati, O=University of Cincinnati, OU=Dept. Electrical Eng. and Computer Sci., CN=client124/emailAddress=franco@gauss.ececs.uc.edu
        Subject Public Key Info:
            Public Key Algorithm: rsaEncryption
                Public-Key: (2048 bit)
                Modulus:
                    00:c4:4f:62:f8:eb:ad:b2:4a:b0:78:b2:f3:c0:f3:
                    0d:91:5e:2c:e9:6b:41:fc:29:ef:6b:1f:71:a9:3f:
                    39:e1:6c:d4:cb:d3:dc:62:15:01:88:85:61:71:bd:
                    67:ce:07:c2:4c:ac:e1:3f:d7:46:27:8e:43:0a:8c:
                    ba:51:63:ad:46:12:b9:ea:7e:8b:10:02:84:45:64:
                    95:72:4a:33:ac:c2:da:c9:76:df:2b:f6:27:6e:d7:
                    54:45:cb:9e:34:35:4d:41:40:39:63:4d:81:01:36:
                    49:ef:f4:11:ec:aa:a8:96:f9:0d:ba:91:5f:af:03:
                    2f:db:ad:74:00:20:6e:4b:3b:20:ea:59:f9:aa:8f:
                    c9:8c:f3:73:79:29:21:60:ec:df:ea:36:3a:ab:44:
                    51:bf:55:2d:e4:90:7c:db:b8:b5:a5:fa:86:c0:50:
                    fa:2f:1b:af:08:77:91:15:48:36:d5:55:e3:3e:42:
                    61:23:37:d4:81:a1:f0:d0:6b:d1:8c:62:e6:af:79:
                    b8:b7:a4:cc:bc:94:65:d3:81:fa:62:21:1d:3c:6d:
                    77:a7:96:b0:ec:fa:97:b8:3c:14:b2:02:df:f2:0a:
                    d5:c1:56:12:96:91:b8:d4:f7:32:9a:ec:9b:77:fd:
                    40:fe:03:d1:7d:7d:cf:86:84:7f:6c:55:db:dd:f0:
                    42:bd
                Exponent: 65537 (0x10001)
        X509v3 extensions:
            X509v3 Basic Constraints: 
                CA:FALSE
            X509v3 Subject Key Identifier: 
                FC:DD:3C:8B:38:6C:CD:0B:5A:97:D8:1A:E7:CD:F2:9F:37:BF:2E:6F
            X509v3 Authority Key Identifier: 
                keyid:EF:DC:B6:3D:4B:FD:A7:87:05:C5:22:3D:8B:DC:BF:99:2A:EE:E4:DB
                DirName:/C=US/ST=California/L=San Francisco/O=Copyleft Certificate Co/OU=My Organizational Unit/CN=ChangeMe/emailAddress=me@example.net
                serial:87:1E:1D:DC:6B:8C:66:88

            X509v3 Extended Key Usage: 
                TLS Web Client Authentication
            X509v3 Key Usage: 
                Digital Signature
    Signature Algorithm: sha256WithRSAEncryption
         6e:80:f9:4c:b1:06:a0:39:28:59:5d:f7:21:82:5f:e0:f9:5b:
         4a:07:4b:c7:6e:bf:bb:17:a0:de:61:96:77:cb:84:53:88:f1:
         75:58:be:1e:45:6d:1f:51:ba:27:34:7f:85:b3:aa:e3:11:f0:
         58:af:cd:e9:18:c5:90:76:15:f6:8d:28:11:d3:1f:c4:24:8b:
         ed:b5:ea:dd:50:2a:36:ca:ca:77:0e:b7:b1:51:6a:90:f9:ad:
         3a:9c:63:52:3f:7a:d2:07:1c:1c:38:bd:98:e2:4f:41:98:dd:
         d2:54:6d:79:cb:73:2b:af:a1:6d:63:d6:77:03:5c:35:c0:7c:
         cd:97:fe:c5:1d:31:14:e8:21:57:25:b2:35:a9:7c:03:66:4a:
         80:45:de:d6:40:51:df:ef:56:55:f8:5b:da:aa:09:1a:8b:c7:
         8c:9b:71:a3:9f:72:cf:ae:fd:93:ab:6e:3e:e3:b7:f6:aa:47:
         c0:74:39:ab:e3:7e:72:bf:2c:b5:e6:6c:b0:eb:74:28:ea:7c:
         a9:b1:f6:60:37:da:ba:f9:bb:d8:f4:24:ab:5f:5d:20:69:eb:
         68:e9:06:7d:81:98:12:fd:86:1f:ef:79:1b:92:ba:c6:34:9c:
         b0:6c:fd:31:7d:d7:e7:1b:68:fe:77:e6:52:66:3e:30:15:41:
         1e:9b:5b:bd
-----BEGIN CERTIFICATE-----
MIIFNzCCBB+gAwIBAgIRANQolyqOXSetye+ucO7TBj4wDQYJKoZIhvcNAQELBQAw
ga8xCzAJBgNVBAYTAlVTMRMwEQYDVQQIDApDYWxpZm9ybmlhMRYwFAYDVQQHDA1T
YW4gRnJhbmNpc2NvMSAwHgYDVQQKDBdDb3B5bGVmdCBDZXJ0aWZpY2F0ZSBDbzEf
MB0GA1UECwwWTXkgT3JnYW5pemF0aW9uYWwgVW5pdDERMA8GA1UEAwwIQ2hhbmdl
TWUxHTAbBgkqhkiG9w0BCQEWDm1lQGV4YW1wbGUubmV0MB4XDTIxMDEyMzE4MzAx
MVoXDTIyMDEyMzE4MzAxMVowgcIxCzAJBgNVBAYTAlVTMQswCQYDVQQIDAJPSDET
MBEGA1UEBwwKQ2luY2lubmF0aTEhMB8GA1UECgwYVW5pdmVyc2l0eSBvZiBDaW5j
aW5uYXRpMTAwLgYDVQQLDCdEZXB0LiBFbGVjdHJpY2FsIEVuZy4gYW5kIENvbXB1
dGVyIFNjaS4xEjAQBgNVBAMMCWNsaWVudDEyNDEoMCYGCSqGSIb3DQEJARYZZnJh
bmNvQGdhdXNzLmVjZWNzLnVjLmVkdTCCASIwDQYJKoZIhvcNAQEBBQADggEPADCC
AQoCggEBAMRPYvjrrbJKsHiy88DzDZFeLOlrQfwp72sfcak/OeFs1MvT3GIVAYiF
YXG9Z84Hwkys4T/XRieOQwqMulFjrUYSuep+ixAChEVklXJKM6zC2sl23yv2J27X
VEXLnjQ1TUFAOWNNgQE2Se/0EeyqqJb5DbqRX68DL9utdAAgbks7IOpZ+aqPyYzz
c3kpIWDs3+o2OqtEUb9VLeSQfNu4taX6hsBQ+i8brwh3kRVINtVV4z5CYSM31IGh
8NBr0Yxi5q95uLekzLyUZdOB+mIhHTxtd6eWsOz6l7g8FLIC3/IK1cFWEpaRuNT3
Mprsm3f9QP4D0X19z4aEf2xV293wQr0CAwEAAaOCATcwggEzMAkGA1UdEwQCMAAw
HQYDVR0OBBYEFPzdPIs4bM0LWpfYGufN8p83vy5vMIHkBgNVHSMEgdwwgdmAFO/c
tj1L/aeHBcUiPYvcv5kq7uTboYG1pIGyMIGvMQswCQYDVQQGEwJVUzETMBEGA1UE
CAwKQ2FsaWZvcm5pYTEWMBQGA1UEBwwNU2FuIEZyYW5jaXNjbzEgMB4GA1UECgwX
Q29weWxlZnQgQ2VydGlmaWNhdGUgQ28xHzAdBgNVBAsMFk15IE9yZ2FuaXphdGlv
bmFsIFVuaXQxETAPBgNVBAMMCENoYW5nZU1lMR0wGwYJKoZIhvcNAQkBFg5tZUBl
eGFtcGxlLm5ldIIJAIceHdxrjGaIMBMGA1UdJQQMMAoGCCsGAQUFBwMCMAsGA1Ud
DwQEAwIHgDANBgkqhkiG9w0BAQsFAAOCAQEAboD5TLEGoDkoWV33IYJf4PlbSgdL
x26/uxeg3mGWd8uEU4jxdVi+HkVtH1G6JzR/hbOq4xHwWK/N6RjFkHYV9o0oEdMf
xCSL7bXq3VAqNsrKdw63sVFqkPmtOpxjUj960gccHDi9mOJPQZjd0lRtectzK6+h
bWPWdwNcNcB8zZf+xR0xFOghVyWyNal8A2ZKgEXe1kBR3+9WVfhb2qoJGovHjJtx
o59yz679k6tuPuO39qpHwHQ5q+N+cr8steZssOt0KOp8qbH2YDfauvm72PQkq19d
IGnraOkGfYGYEv2GH+95G5K6xjScsGz9MX3X5xto/nfmUmY+MBVBHptbvQ==
-----END CERTIFICATE-----
