Certificate:
    Data:
        Version: 3 (0x2)
        Serial Number:
            0e:12:bf:83:81:85:8b:a3:0b:ba:f5:65:a4:cc:40:f1
    Signature Algorithm: sha256WithRSAEncryption
        Issuer: C=US, ST=California, L=San Francisco, O=Copyleft Certificate Co, OU=My Organizational Unit, CN=ChangeMe/emailAddress=me@example.net
        Validity
            Not Before: Nov 12 11:47:35 2023 GMT
            Not After : Nov 11 11:47:35 2024 GMT
        Subject: C=US, ST=OH, L=Cincinnati, O=University of Cincinnati, OU=Dept. Elec. Comp. Eng. Comp. Sci., CN=client20/emailAddress=franco@gauss.ececs.uc.edu
        Subject Public Key Info:
            Public Key Algorithm: rsaEncryption
                Public-Key: (2048 bit)
                Modulus:
                    00:d1:39:3b:86:51:0d:d4:e5:f8:15:40:42:2f:14:
                    6a:e5:83:00:d2:3e:66:e8:88:97:9f:65:e4:44:52:
                    50:40:c8:07:b0:97:ff:9b:44:56:a4:19:4b:50:af:
                    d5:eb:0b:47:e5:28:14:36:f0:18:6d:e3:81:c7:17:
                    00:ea:c7:84:34:be:06:39:2a:25:09:80:3b:76:89:
                    ea:b0:f5:c0:51:22:d1:68:7c:7b:4d:e9:ad:d5:b7:
                    16:9d:37:b6:c2:10:19:1b:77:89:a3:cc:0a:67:72:
                    f4:31:28:0c:fa:af:bd:0d:2c:f7:5e:c8:c2:4f:dd:
                    c3:83:32:7c:60:9d:c7:21:ca:16:c4:0c:0d:38:79:
                    8f:c7:99:21:72:c7:dc:f7:69:d4:83:ab:e2:3f:a3:
                    8a:30:b8:00:d3:2d:f8:fc:00:8c:d1:8f:23:e0:bf:
                    09:3f:2b:40:1a:10:c8:b0:a9:3e:21:91:17:8c:87:
                    2a:13:cf:c8:f3:81:35:16:34:ea:6c:cc:86:39:77:
                    f0:8f:03:57:db:19:dc:76:ba:96:f9:3c:34:99:21:
                    21:44:7f:59:6c:dd:78:2d:13:33:d3:4e:a7:0f:c3:
                    d3:f5:27:24:09:d4:67:dd:16:ba:25:2b:4c:82:a1:
                    fb:5d:2b:31:ff:cb:b0:1c:2d:51:49:b9:d7:7d:79:
                    43:5d
                Exponent: 65537 (0x10001)
        X509v3 extensions:
            X509v3 Basic Constraints: 
                CA:FALSE
            X509v3 Subject Key Identifier: 
                AC:AF:73:58:0E:89:A0:CD:0F:4A:38:31:B8:96:0B:C8:3E:E6:B7:79
            X509v3 Authority Key Identifier: 
                keyid:C4:46:F2:96:38:56:02:B8:9D:09:04:52:25:91:35:97:6A:D7:B1:F0
                DirName:/C=US/ST=California/L=San Francisco/O=Copyleft Certificate Co/OU=My Organizational Unit/CN=ChangeMe/emailAddress=me@example.net
                serial:D1:5A:15:1C:F0:20:95:62

            X509v3 Extended Key Usage: 
                TLS Web Client Authentication
            X509v3 Key Usage: 
                Digital Signature
    Signature Algorithm: sha256WithRSAEncryption
         69:d0:b3:41:75:26:4c:22:e5:84:fa:1f:69:ef:e0:a8:25:78:
         15:a8:25:80:1d:c8:a4:26:d9:84:ad:23:6d:8c:62:7c:f9:4d:
         25:e4:b9:36:10:2f:69:40:e6:77:0c:3b:a1:1d:a5:a8:39:04:
         32:35:ce:a6:8f:5d:5d:47:47:2a:d2:4b:dd:8b:45:63:e0:e7:
         1f:8b:4b:02:94:36:87:50:1c:f9:36:b9:0d:01:c8:60:25:7e:
         6b:14:02:87:e0:07:2e:fe:f0:00:2f:e7:7a:9c:d0:5d:39:29:
         af:d2:09:c6:34:03:b4:2a:b6:1f:ee:07:a2:9f:5a:19:37:38:
         f7:a0:8d:9d:c8:e9:57:e2:13:f9:0b:5c:c2:9a:4b:a4:60:2c:
         b2:4a:7d:f4:2a:33:dd:cc:f4:dd:9c:9a:10:95:79:6a:7f:e2:
         93:6e:90:2f:80:a6:55:4a:35:d7:f5:3c:eb:32:96:86:4b:b6:
         00:7a:ff:6c:b2:e4:6e:83:2f:0a:7f:9e:d5:79:3a:41:e0:a6:
         8b:c8:36:fb:95:67:db:52:0d:f3:86:ff:73:4a:59:15:8d:96:
         75:6f:92:27:ae:13:da:8d:77:18:17:95:cf:bf:07:82:8c:91:
         de:26:f9:b2:87:cf:40:aa:3c:ee:7e:90:2a:d3:21:3c:1f:1c:
         f4:e9:a7:a9
-----BEGIN CERTIFICATE-----
MIIFLzCCBBegAwIBAgIQDhK/g4GFi6MLuvVlpMxA8TANBgkqhkiG9w0BAQsFADCB
rzELMAkGA1UEBhMCVVMxEzARBgNVBAgMCkNhbGlmb3JuaWExFjAUBgNVBAcMDVNh
biBGcmFuY2lzY28xIDAeBgNVBAoMF0NvcHlsZWZ0IENlcnRpZmljYXRlIENvMR8w
HQYDVQQLDBZNeSBPcmdhbml6YXRpb25hbCBVbml0MREwDwYDVQQDDAhDaGFuZ2VN
ZTEdMBsGCSqGSIb3DQEJARYObWVAZXhhbXBsZS5uZXQwHhcNMjMxMTEyMTE0NzM1
WhcNMjQxMTExMTE0NzM1WjCBuzELMAkGA1UEBhMCVVMxCzAJBgNVBAgMAk9IMRMw
EQYDVQQHDApDaW5jaW5uYXRpMSEwHwYDVQQKDBhVbml2ZXJzaXR5IG9mIENpbmNp
bm5hdGkxKjAoBgNVBAsMIURlcHQuIEVsZWMuIENvbXAuIEVuZy4gQ29tcC4gU2Np
LjERMA8GA1UEAwwIY2xpZW50MjAxKDAmBgkqhkiG9w0BCQEWGWZyYW5jb0BnYXVz
cy5lY2Vjcy51Yy5lZHUwggEiMA0GCSqGSIb3DQEBAQUAA4IBDwAwggEKAoIBAQDR
OTuGUQ3U5fgVQEIvFGrlgwDSPmboiJefZeREUlBAyAewl/+bRFakGUtQr9XrC0fl
KBQ28Bht44HHFwDqx4Q0vgY5KiUJgDt2ieqw9cBRItFofHtN6a3VtxadN7bCEBkb
d4mjzApncvQxKAz6r70NLPdeyMJP3cODMnxgncchyhbEDA04eY/HmSFyx9z3adSD
q+I/o4owuADTLfj8AIzRjyPgvwk/K0AaEMiwqT4hkReMhyoTz8jzgTUWNOpszIY5
d/CPA1fbGdx2upb5PDSZISFEf1ls3XgtEzPTTqcPw9P1JyQJ1GfdFrolK0yCoftd
KzH/y7AcLVFJudd9eUNdAgMBAAGjggE3MIIBMzAJBgNVHRMEAjAAMB0GA1UdDgQW
BBSsr3NYDomgzQ9KODG4lgvIPua3eTCB5AYDVR0jBIHcMIHZgBTERvKWOFYCuJ0J
BFIlkTWXatex8KGBtaSBsjCBrzELMAkGA1UEBhMCVVMxEzARBgNVBAgMCkNhbGlm
b3JuaWExFjAUBgNVBAcMDVNhbiBGcmFuY2lzY28xIDAeBgNVBAoMF0NvcHlsZWZ0
IENlcnRpZmljYXRlIENvMR8wHQYDVQQLDBZNeSBPcmdhbml6YXRpb25hbCBVbml0
MREwDwYDVQQDDAhDaGFuZ2VNZTEdMBsGCSqGSIb3DQEJARYObWVAZXhhbXBsZS5u
ZXSCCQDRWhUc8CCVYjATBgNVHSUEDDAKBggrBgEFBQcDAjALBgNVHQ8EBAMCB4Aw
DQYJKoZIhvcNAQELBQADggEBAGnQs0F1Jkwi5YT6H2nv4KgleBWoJYAdyKQm2YSt
I22MYnz5TSXkuTYQL2lA5ncMO6Edpag5BDI1zqaPXV1HRyrSS92LRWPg5x+LSwKU
NodQHPk2uQ0ByGAlfmsUAofgBy7+8AAv53qc0F05Ka/SCcY0A7Qqth/uB6KfWhk3
OPegjZ3I6VfiE/kLXMKaS6RgLLJKffQqM93M9N2cmhCVeWp/4pNukC+AplVKNdf1
POsyloZLtgB6/2yy5G6DLwp/ntV5OkHgpovINvuVZ9tSDfOG/3NKWRWNlnVvkieu
E9qNdxgXlc+/B4KMkd4m+bKHz0CqPO5+kCrTITwfHPTpp6k=
-----END CERTIFICATE-----
