Certificate:
    Data:
        Version: 3 (0x2)
        Serial Number:
            f7:89:04:34:8f:24:82:c9:d8:f8:9b:56:4b:e2:74:89
    Signature Algorithm: sha256WithRSAEncryption
        Issuer: C=US, ST=California, L=San Francisco, O=Copyleft Certificate Co, OU=My Organizational Unit, CN=ChangeMe/emailAddress=me@example.net
        Validity
            Not Before: Nov 10 17:42:13 2023 GMT
            Not After : Nov  9 17:42:13 2024 GMT
        Subject: C=US, ST=OH, L=Cincinnati, O=University of Cincinnati, OU=Dept_Elec_Com_ Eng_Com_Sci., CN=client57/emailAddress=franco@gauss.ececs.uc.edu
        Subject Public Key Info:
            Public Key Algorithm: rsaEncryption
                Public-Key: (2048 bit)
                Modulus:
                    00:c6:c5:cb:db:ce:e2:37:12:53:8d:bc:4c:3a:d7:
                    26:ef:fd:d0:8f:f0:64:b5:d4:1c:5f:24:00:3c:de:
                    50:54:f7:21:48:43:2a:77:88:9a:52:d2:10:56:dd:
                    dc:96:8d:15:9f:6a:82:89:c0:2c:cc:33:b9:c7:86:
                    38:4f:d3:ce:4f:57:80:b4:3b:86:4d:30:55:b4:27:
                    3d:53:c2:e0:39:f2:99:b6:f0:e5:6e:53:9e:4b:3d:
                    6c:94:45:98:40:4c:0b:70:f9:11:e1:33:bb:d3:96:
                    3d:88:50:84:b1:13:d9:a6:21:33:3b:47:f6:bf:5e:
                    06:dc:8d:33:b6:65:ab:67:3a:ad:ed:7b:a2:b3:37:
                    60:a3:0d:4f:ba:d3:99:29:da:b8:68:54:34:9e:f8:
                    09:72:ef:54:e5:55:38:80:39:91:59:8e:88:c3:3d:
                    24:1f:f9:6e:3f:7b:82:27:21:03:db:8b:4b:06:cc:
                    b1:d5:cf:1b:43:a7:04:94:0c:01:84:08:90:e2:56:
                    01:57:5d:93:0a:91:65:bd:96:8c:5a:fc:54:2d:59:
                    33:20:0f:cb:cc:34:87:b9:96:a3:ca:03:1b:0c:8a:
                    01:df:ff:20:54:4a:5f:4b:a6:fa:c6:65:24:51:f3:
                    bc:de:09:32:31:d4:e2:64:13:aa:9d:c3:c3:ab:41:
                    2f:db
                Exponent: 65537 (0x10001)
        X509v3 extensions:
            X509v3 Basic Constraints: 
                CA:FALSE
            X509v3 Subject Key Identifier: 
                1F:14:DC:44:DB:A2:81:64:BE:8F:87:DA:67:0D:03:21:E0:6E:7F:98
            X509v3 Authority Key Identifier: 
                keyid:C8:27:DA:64:30:08:40:08:4A:25:CC:DC:43:99:DE:77:A1:FE:77:BD
                DirName:/C=US/ST=California/L=San Francisco/O=Copyleft Certificate Co/OU=My Organizational Unit/CN=ChangeMe/emailAddress=me@example.net
                serial:A9:48:C3:7E:FC:1B:B0:A1

            X509v3 Extended Key Usage: 
                TLS Web Client Authentication
            X509v3 Key Usage: 
                Digital Signature
    Signature Algorithm: sha256WithRSAEncryption
         20:0e:c3:d5:ea:ba:cb:d6:27:4a:29:db:99:ef:ab:9c:5e:6c:
         9e:48:f6:09:58:3d:83:42:f4:8b:2d:a0:08:45:b0:bd:3c:cf:
         cc:d3:1f:02:c2:1b:de:d5:f8:6b:19:07:ac:60:b2:90:73:c3:
         04:f9:76:3c:6e:c0:36:61:85:37:a3:be:ef:2d:05:5b:d2:a0:
         e0:fd:4b:25:4f:96:f2:99:81:49:42:48:18:46:19:e2:99:c0:
         43:b1:03:fa:9b:c4:a0:99:12:46:a7:ec:2c:a6:da:ee:28:c9:
         80:81:69:e0:4c:1d:a0:ff:38:8c:27:00:16:3c:06:41:8d:6a:
         af:f3:3d:f4:3e:e0:13:63:c3:33:5a:ae:3e:83:c1:52:97:45:
         b0:3f:a5:86:5b:8a:9f:44:1d:ac:e2:94:07:75:1e:f4:25:fa:
         54:23:77:e0:45:a1:e7:45:b3:17:e4:97:97:83:f7:1b:d5:3d:
         73:88:0d:74:df:f1:88:2d:73:97:b9:40:5c:08:28:a4:80:8a:
         c8:04:7f:37:43:b9:8f:4a:47:7e:21:14:0a:bd:58:55:ae:77:
         b8:d9:35:c6:cb:66:6b:c7:5a:10:67:06:c0:80:74:5e:50:a8:
         c8:5e:57:54:dc:4d:76:79:ee:10:90:67:75:7e:4d:f8:6b:5d:
         c2:ed:28:3e
-----BEGIN CERTIFICATE-----
MIIFKjCCBBKgAwIBAgIRAPeJBDSPJILJ2PibVkvidIkwDQYJKoZIhvcNAQELBQAw
ga8xCzAJBgNVBAYTAlVTMRMwEQYDVQQIDApDYWxpZm9ybmlhMRYwFAYDVQQHDA1T
YW4gRnJhbmNpc2NvMSAwHgYDVQQKDBdDb3B5bGVmdCBDZXJ0aWZpY2F0ZSBDbzEf
MB0GA1UECwwWTXkgT3JnYW5pemF0aW9uYWwgVW5pdDERMA8GA1UEAwwIQ2hhbmdl
TWUxHTAbBgkqhkiG9w0BCQEWDm1lQGV4YW1wbGUubmV0MB4XDTIzMTExMDE3NDIx
M1oXDTI0MTEwOTE3NDIxM1owgbUxCzAJBgNVBAYTAlVTMQswCQYDVQQIDAJPSDET
MBEGA1UEBwwKQ2luY2lubmF0aTEhMB8GA1UECgwYVW5pdmVyc2l0eSBvZiBDaW5j
aW5uYXRpMSQwIgYDVQQLDBtEZXB0X0VsZWNfQ29tXyBFbmdfQ29tX1NjaS4xETAP
BgNVBAMMCGNsaWVudDU3MSgwJgYJKoZIhvcNAQkBFhlmcmFuY29AZ2F1c3MuZWNl
Y3MudWMuZWR1MIIBIjANBgkqhkiG9w0BAQEFAAOCAQ8AMIIBCgKCAQEAxsXL287i
NxJTjbxMOtcm7/3Qj/BktdQcXyQAPN5QVPchSEMqd4iaUtIQVt3clo0Vn2qCicAs
zDO5x4Y4T9POT1eAtDuGTTBVtCc9U8LgOfKZtvDlblOeSz1slEWYQEwLcPkR4TO7
05Y9iFCEsRPZpiEzO0f2v14G3I0ztmWrZzqt7Xuiszdgow1PutOZKdq4aFQ0nvgJ
cu9U5VU4gDmRWY6Iwz0kH/luP3uCJyED24tLBsyx1c8bQ6cElAwBhAiQ4lYBV12T
CpFlvZaMWvxULVkzIA/LzDSHuZajygMbDIoB3/8gVEpfS6b6xmUkUfO83gkyMdTi
ZBOqncPDq0Ev2wIDAQABo4IBNzCCATMwCQYDVR0TBAIwADAdBgNVHQ4EFgQUHxTc
RNuigWS+j4faZw0DIeBuf5gwgeQGA1UdIwSB3DCB2YAUyCfaZDAIQAhKJczcQ5ne
d6H+d72hgbWkgbIwga8xCzAJBgNVBAYTAlVTMRMwEQYDVQQIDApDYWxpZm9ybmlh
MRYwFAYDVQQHDA1TYW4gRnJhbmNpc2NvMSAwHgYDVQQKDBdDb3B5bGVmdCBDZXJ0
aWZpY2F0ZSBDbzEfMB0GA1UECwwWTXkgT3JnYW5pemF0aW9uYWwgVW5pdDERMA8G
A1UEAwwIQ2hhbmdlTWUxHTAbBgkqhkiG9w0BCQEWDm1lQGV4YW1wbGUubmV0ggkA
qUjDfvwbsKEwEwYDVR0lBAwwCgYIKwYBBQUHAwIwCwYDVR0PBAQDAgeAMA0GCSqG
SIb3DQEBCwUAA4IBAQAgDsPV6rrL1idKKduZ76ucXmyeSPYJWD2DQvSLLaAIRbC9
PM/M0x8Cwhve1fhrGQesYLKQc8ME+XY8bsA2YYU3o77vLQVb0qDg/UslT5bymYFJ
QkgYRhnimcBDsQP6m8SgmRJGp+wsptruKMmAgWngTB2g/ziMJwAWPAZBjWqv8z30
PuATY8MzWq4+g8FSl0WwP6WGW4qfRB2s4pQHdR70JfpUI3fgRaHnRbMX5JeXg/cb
1T1ziA103/GILXOXuUBcCCikgIrIBH83Q7mPSkd+IRQKvVhVrne42TXGy2Zrx1oQ
ZwbAgHReUKjIXldU3E12ee4QkGd1fk34a13C7Sg+
-----END CERTIFICATE-----
