Certificate:
    Data:
        Version: 3 (0x2)
        Serial Number:
            55:c9:f3:1b:7e:a8:f0:3f:6f:ec:a1:d7:e9:b8:09:d1
    Signature Algorithm: sha256WithRSAEncryption
        Issuer: C=US, ST=California, L=San Francisco, O=Copyleft Certificate Co, OU=My Organizational Unit, CN=ChangeMe/emailAddress=me@example.net
        Validity
            Not Before: Jan 23 18:29:35 2021 GMT
            Not After : Jan 23 18:29:35 2022 GMT
        Subject: C=US, ST=OH, L=Cincinnati, O=University of Cincinnati, OU=Dept. Electrical Eng. and Computer Sci., CN=client99/emailAddress=franco@gauss.ececs.uc.edu
        Subject Public Key Info:
            Public Key Algorithm: rsaEncryption
                Public-Key: (2048 bit)
                Modulus:
                    00:c9:37:6e:77:96:dc:4a:af:07:92:2c:cc:e1:19:
                    12:45:48:9b:d2:a6:bd:f3:4e:f3:ac:5a:f2:f1:bc:
                    c4:cf:86:32:41:55:78:0c:cd:bd:04:7f:69:d3:eb:
                    36:30:16:1d:09:b6:ac:2d:14:49:c7:22:b4:d2:c8:
                    0c:b8:38:31:2c:59:77:26:a3:54:19:85:f5:f9:9b:
                    82:7c:76:b8:c6:07:ab:ff:d1:52:f6:30:74:af:b5:
                    3b:d8:4f:8a:24:5b:e2:9a:18:7a:0d:b0:74:ab:a2:
                    c2:25:73:09:fe:9a:9d:fc:a7:ab:76:c2:38:9d:e8:
                    03:52:a5:38:f8:1e:e8:9e:c6:4c:23:ec:0e:c4:22:
                    b3:39:cf:a0:7d:5d:4b:99:63:8d:c3:63:91:e3:e3:
                    f4:74:6c:0a:de:32:69:59:51:5a:e8:f4:a0:00:eb:
                    a8:09:a7:26:84:9e:9d:ff:8e:c0:d9:86:e9:c6:31:
                    a5:31:3e:e3:72:4e:88:55:0c:b5:05:41:cc:6b:2a:
                    f2:56:7c:a4:91:66:75:1f:b5:b0:96:76:39:54:07:
                    fb:b5:8c:d0:3b:70:f6:fc:89:2e:de:a8:df:bf:1f:
                    46:67:72:05:5f:27:a6:1d:26:4d:49:46:ec:16:50:
                    c2:73:b6:1e:f0:2b:54:8d:7c:4a:73:d7:cb:17:14:
                    24:af
                Exponent: 65537 (0x10001)
        X509v3 extensions:
            X509v3 Basic Constraints: 
                CA:FALSE
            X509v3 Subject Key Identifier: 
                91:C3:B1:A3:27:29:70:4D:D1:F9:F6:CE:52:24:2D:06:12:4A:BC:76
            X509v3 Authority Key Identifier: 
                keyid:EF:DC:B6:3D:4B:FD:A7:87:05:C5:22:3D:8B:DC:BF:99:2A:EE:E4:DB
                DirName:/C=US/ST=California/L=San Francisco/O=Copyleft Certificate Co/OU=My Organizational Unit/CN=ChangeMe/emailAddress=me@example.net
                serial:87:1E:1D:DC:6B:8C:66:88

            X509v3 Extended Key Usage: 
                TLS Web Client Authentication
            X509v3 Key Usage: 
                Digital Signature
    Signature Algorithm: sha256WithRSAEncryption
         21:50:65:a8:37:3f:a0:55:79:ac:4d:5f:48:8a:ad:37:ef:f7:
         03:4d:8e:f3:e6:dd:94:b0:3c:cf:32:f7:83:16:4b:1b:c9:71:
         af:14:4b:d9:fb:e7:fe:06:98:0e:30:e5:48:32:cf:31:0a:2f:
         36:a2:ab:b5:f8:ea:07:cf:9f:f2:2e:c2:de:de:d1:b1:bd:18:
         4f:af:ce:1a:28:2d:2c:e6:70:de:d7:3c:2e:99:5e:88:20:62:
         b1:19:d3:6b:29:33:73:dc:e8:5d:e2:ba:4d:4c:b2:98:57:3b:
         21:03:b1:9f:60:c2:32:d4:5a:3a:d1:b8:4c:40:64:f2:f4:51:
         6d:5a:cb:a6:81:da:39:3b:ab:c7:b8:4a:c9:87:a5:a2:84:ab:
         a4:06:d5:f3:3e:fe:00:0c:57:30:c5:13:96:67:c8:17:c0:54:
         5b:ef:3e:52:89:7c:58:2f:be:dc:24:fa:1f:21:2a:4f:3c:d4:
         a9:46:2d:c4:22:34:f6:6d:ee:7a:27:71:91:1c:41:5d:77:00:
         bb:6e:df:fe:ff:6a:99:01:57:1a:d1:2a:54:c7:e7:a7:c7:a6:
         14:70:c1:c5:ce:8c:50:c8:66:3a:84:15:8b:eb:ff:bd:3b:f6:
         16:39:25:35:ee:ec:5f:4e:cc:a8:fd:62:7f:73:8e:32:7f:73:
         69:06:bb:2b
-----BEGIN CERTIFICATE-----
MIIFNTCCBB2gAwIBAgIQVcnzG36o8D9v7KHX6bgJ0TANBgkqhkiG9w0BAQsFADCB
rzELMAkGA1UEBhMCVVMxEzARBgNVBAgMCkNhbGlmb3JuaWExFjAUBgNVBAcMDVNh
biBGcmFuY2lzY28xIDAeBgNVBAoMF0NvcHlsZWZ0IENlcnRpZmljYXRlIENvMR8w
HQYDVQQLDBZNeSBPcmdhbml6YXRpb25hbCBVbml0MREwDwYDVQQDDAhDaGFuZ2VN
ZTEdMBsGCSqGSIb3DQEJARYObWVAZXhhbXBsZS5uZXQwHhcNMjEwMTIzMTgyOTM1
WhcNMjIwMTIzMTgyOTM1WjCBwTELMAkGA1UEBhMCVVMxCzAJBgNVBAgMAk9IMRMw
EQYDVQQHDApDaW5jaW5uYXRpMSEwHwYDVQQKDBhVbml2ZXJzaXR5IG9mIENpbmNp
bm5hdGkxMDAuBgNVBAsMJ0RlcHQuIEVsZWN0cmljYWwgRW5nLiBhbmQgQ29tcHV0
ZXIgU2NpLjERMA8GA1UEAwwIY2xpZW50OTkxKDAmBgkqhkiG9w0BCQEWGWZyYW5j
b0BnYXVzcy5lY2Vjcy51Yy5lZHUwggEiMA0GCSqGSIb3DQEBAQUAA4IBDwAwggEK
AoIBAQDJN253ltxKrweSLMzhGRJFSJvSpr3zTvOsWvLxvMTPhjJBVXgMzb0Ef2nT
6zYwFh0JtqwtFEnHIrTSyAy4ODEsWXcmo1QZhfX5m4J8drjGB6v/0VL2MHSvtTvY
T4okW+KaGHoNsHSrosIlcwn+mp38p6t2wjid6ANSpTj4Huiexkwj7A7EIrM5z6B9
XUuZY43DY5Hj4/R0bAreMmlZUVro9KAA66gJpyaEnp3/jsDZhunGMaUxPuNyTohV
DLUFQcxrKvJWfKSRZnUftbCWdjlUB/u1jNA7cPb8iS7eqN+/H0ZncgVfJ6YdJk1J
RuwWUMJzth7wK1SNfEpz18sXFCSvAgMBAAGjggE3MIIBMzAJBgNVHRMEAjAAMB0G
A1UdDgQWBBSRw7GjJylwTdH59s5SJC0GEkq8djCB5AYDVR0jBIHcMIHZgBTv3LY9
S/2nhwXFIj2L3L+ZKu7k26GBtaSBsjCBrzELMAkGA1UEBhMCVVMxEzARBgNVBAgM
CkNhbGlmb3JuaWExFjAUBgNVBAcMDVNhbiBGcmFuY2lzY28xIDAeBgNVBAoMF0Nv
cHlsZWZ0IENlcnRpZmljYXRlIENvMR8wHQYDVQQLDBZNeSBPcmdhbml6YXRpb25h
bCBVbml0MREwDwYDVQQDDAhDaGFuZ2VNZTEdMBsGCSqGSIb3DQEJARYObWVAZXhh
bXBsZS5uZXSCCQCHHh3ca4xmiDATBgNVHSUEDDAKBggrBgEFBQcDAjALBgNVHQ8E
BAMCB4AwDQYJKoZIhvcNAQELBQADggEBACFQZag3P6BVeaxNX0iKrTfv9wNNjvPm
3ZSwPM8y94MWSxvJca8US9n75/4GmA4w5UgyzzEKLzaiq7X46gfPn/Iuwt7e0bG9
GE+vzhooLSzmcN7XPC6ZXoggYrEZ02spM3Pc6F3iuk1MsphXOyEDsZ9gwjLUWjrR
uExAZPL0UW1ay6aB2jk7q8e4SsmHpaKEq6QG1fM+/gAMVzDFE5ZnyBfAVFvvPlKJ
fFgvvtwk+h8hKk881KlGLcQiNPZt7noncZEcQV13ALtu3/7/apkBVxrRKlTH56fH
phRwwcXOjFDIZjqEFYvr/7079hY5JTXu7F9OzKj9Yn9zjjJ/c2kGuys=
-----END CERTIFICATE-----
