Certificate:
    Data:
        Version: 3 (0x2)
        Serial Number:
            95:60:25:80:47:cb:60:28:59:63:20:84:1a:b4:14:f0
    Signature Algorithm: sha256WithRSAEncryption
        Issuer: C=US, ST=California, L=San Francisco, O=Copyleft Certificate Co, OU=My Organizational Unit, CN=ChangeMe/emailAddress=me@example.net
        Validity
            Not Before: Nov 11 01:47:42 2023 GMT
            Not After : Nov 10 01:47:42 2024 GMT
        Subject: C=US, ST=OH, L=Cincinnati, O=University of Cincinnati, OU=Dept. Elec. Comp. Eng. Comp. Sci., CN=client120/emailAddress=franco@gauss.ececs.uc.edu
        Subject Public Key Info:
            Public Key Algorithm: rsaEncryption
                Public-Key: (2048 bit)
                Modulus:
                    00:aa:d2:4f:e8:01:a1:10:0c:34:df:9b:ca:16:a1:
                    51:a2:44:79:e4:59:ad:71:87:46:b0:c2:b2:30:7d:
                    cc:50:65:44:17:d9:c1:8d:4a:12:33:30:0f:5d:3a:
                    c9:d3:43:17:c8:9a:76:76:60:9d:35:39:d3:95:f8:
                    0d:ca:e4:32:94:6c:a1:46:62:16:5d:13:cc:b3:31:
                    ee:10:7a:82:47:1d:65:dc:d7:3a:a1:64:cc:bc:f1:
                    63:f9:1c:31:1f:fc:7a:35:d2:85:e4:17:45:68:48:
                    32:d0:e1:eb:81:f2:b7:88:59:72:76:13:1c:c9:c3:
                    36:28:03:63:b5:9e:d9:33:ed:ee:e9:46:ab:96:df:
                    ed:36:67:9d:98:d7:77:4f:07:b4:ff:49:2f:61:09:
                    0a:c1:cc:50:22:3b:53:f1:22:cb:a6:3a:ed:57:8b:
                    38:92:73:88:72:20:40:53:ad:c7:98:44:42:9c:f2:
                    17:43:01:15:64:84:95:72:c3:26:23:16:70:14:38:
                    69:f1:70:28:e8:b7:dc:16:26:a4:56:15:9e:34:6f:
                    c8:83:b0:1c:79:46:cd:aa:32:b4:e6:fd:aa:ad:ab:
                    89:75:76:b2:08:19:f7:a8:da:30:17:e0:3a:4e:06:
                    28:39:c2:c9:f2:90:0d:82:74:2e:c5:54:ea:43:d6:
                    f4:5f
                Exponent: 65537 (0x10001)
        X509v3 extensions:
            X509v3 Basic Constraints: 
                CA:FALSE
            X509v3 Subject Key Identifier: 
                7B:5A:11:37:72:58:CE:72:52:64:51:21:3C:5C:AA:28:AF:EB:02:1F
            X509v3 Authority Key Identifier: 
                keyid:73:DE:A0:43:0F:AE:B1:9E:E8:59:69:18:50:A1:1A:1F:D4:A1:E3:F0
                DirName:/C=US/ST=California/L=San Francisco/O=Copyleft Certificate Co/OU=My Organizational Unit/CN=ChangeMe/emailAddress=me@example.net
                serial:E9:BB:CB:16:C5:32:BE:3B

            X509v3 Extended Key Usage: 
                TLS Web Client Authentication
            X509v3 Key Usage: 
                Digital Signature
    Signature Algorithm: sha256WithRSAEncryption
         0b:40:30:49:bc:fc:52:7b:5f:7f:1e:48:6f:a6:0f:19:32:09:
         da:6e:1c:fe:8d:67:63:cc:f3:fd:01:27:c1:6c:e9:98:84:d3:
         8f:6d:b2:0d:8e:8a:76:2b:69:c4:34:48:76:80:c7:d6:6a:da:
         fc:cf:f5:46:c3:bf:b9:66:fc:40:33:aa:25:c5:15:7a:4b:f4:
         de:82:e2:68:41:b3:83:92:c8:02:c1:f5:88:15:f1:cc:c6:15:
         9a:f2:1b:5a:11:d1:51:07:9b:ac:ba:0f:8e:26:54:c9:89:ea:
         f6:54:9b:15:c4:a3:f8:5e:29:71:32:d3:92:fe:c1:7f:35:0f:
         18:19:e1:6b:32:ec:49:59:94:6e:91:42:c0:6a:f8:d7:78:f3:
         a3:b6:8c:a4:89:32:56:38:0e:63:e8:ba:f8:b5:a3:4d:cc:75:
         90:15:f4:32:5f:b4:ad:e9:98:c5:bc:3e:8c:b2:d3:c4:ab:14:
         fb:fd:b6:f6:87:8b:fc:86:07:ca:af:65:2d:b9:03:c1:d4:e5:
         a8:e2:0c:7e:bb:e0:e6:d1:d0:b6:c8:ba:9b:e8:e9:a5:40:16:
         3b:33:de:ae:5b:d9:41:85:22:d2:b2:86:cb:69:12:7f:50:a7:
         8e:bc:b5:ff:22:a3:71:8e:93:37:88:95:63:b4:8a:e8:d1:d9:
         ed:39:a2:29
-----BEGIN CERTIFICATE-----
MIIFMTCCBBmgAwIBAgIRAJVgJYBHy2AoWWMghBq0FPAwDQYJKoZIhvcNAQELBQAw
ga8xCzAJBgNVBAYTAlVTMRMwEQYDVQQIDApDYWxpZm9ybmlhMRYwFAYDVQQHDA1T
YW4gRnJhbmNpc2NvMSAwHgYDVQQKDBdDb3B5bGVmdCBDZXJ0aWZpY2F0ZSBDbzEf
MB0GA1UECwwWTXkgT3JnYW5pemF0aW9uYWwgVW5pdDERMA8GA1UEAwwIQ2hhbmdl
TWUxHTAbBgkqhkiG9w0BCQEWDm1lQGV4YW1wbGUubmV0MB4XDTIzMTExMTAxNDc0
MloXDTI0MTExMDAxNDc0MlowgbwxCzAJBgNVBAYTAlVTMQswCQYDVQQIDAJPSDET
MBEGA1UEBwwKQ2luY2lubmF0aTEhMB8GA1UECgwYVW5pdmVyc2l0eSBvZiBDaW5j
aW5uYXRpMSowKAYDVQQLDCFEZXB0LiBFbGVjLiBDb21wLiBFbmcuIENvbXAuIFNj
aS4xEjAQBgNVBAMMCWNsaWVudDEyMDEoMCYGCSqGSIb3DQEJARYZZnJhbmNvQGdh
dXNzLmVjZWNzLnVjLmVkdTCCASIwDQYJKoZIhvcNAQEBBQADggEPADCCAQoCggEB
AKrST+gBoRAMNN+byhahUaJEeeRZrXGHRrDCsjB9zFBlRBfZwY1KEjMwD106ydND
F8iadnZgnTU505X4DcrkMpRsoUZiFl0TzLMx7hB6gkcdZdzXOqFkzLzxY/kcMR/8
ejXSheQXRWhIMtDh64Hyt4hZcnYTHMnDNigDY7We2TPt7ulGq5bf7TZnnZjXd08H
tP9JL2EJCsHMUCI7U/Eiy6Y67VeLOJJziHIgQFOtx5hEQpzyF0MBFWSElXLDJiMW
cBQ4afFwKOi33BYmpFYVnjRvyIOwHHlGzaoytOb9qq2riXV2sggZ96jaMBfgOk4G
KDnCyfKQDYJ0LsVU6kPW9F8CAwEAAaOCATcwggEzMAkGA1UdEwQCMAAwHQYDVR0O
BBYEFHtaETdyWM5yUmRRITxcqiiv6wIfMIHkBgNVHSMEgdwwgdmAFHPeoEMPrrGe
6FlpGFChGh/UoePwoYG1pIGyMIGvMQswCQYDVQQGEwJVUzETMBEGA1UECAwKQ2Fs
aWZvcm5pYTEWMBQGA1UEBwwNU2FuIEZyYW5jaXNjbzEgMB4GA1UECgwXQ29weWxl
ZnQgQ2VydGlmaWNhdGUgQ28xHzAdBgNVBAsMFk15IE9yZ2FuaXphdGlvbmFsIFVu
aXQxETAPBgNVBAMMCENoYW5nZU1lMR0wGwYJKoZIhvcNAQkBFg5tZUBleGFtcGxl
Lm5ldIIJAOm7yxbFMr47MBMGA1UdJQQMMAoGCCsGAQUFBwMCMAsGA1UdDwQEAwIH
gDANBgkqhkiG9w0BAQsFAAOCAQEAC0AwSbz8Untffx5Ib6YPGTIJ2m4c/o1nY8zz
/QEnwWzpmITTj22yDY6KditpxDRIdoDH1mra/M/1RsO/uWb8QDOqJcUVekv03oLi
aEGzg5LIAsH1iBXxzMYVmvIbWhHRUQebrLoPjiZUyYnq9lSbFcSj+F4pcTLTkv7B
fzUPGBnhazLsSVmUbpFCwGr413jzo7aMpIkyVjgOY+i6+LWjTcx1kBX0Ml+0remY
xbw+jLLTxKsU+/229oeL/IYHyq9lLbkDwdTlqOIMfrvg5tHQtsi6m+jppUAWOzPe
rlvZQYUi0rKGy2kSf1Cnjry1/yKjcY6TN4iVY7SK6NHZ7TmiKQ==
-----END CERTIFICATE-----
