Certificate:
    Data:
        Version: 3 (0x2)
        Serial Number:
            04:cb:9d:41:e6:aa:99:f9:37:fe:ac:08:e1:84:a2:bb
    Signature Algorithm: sha256WithRSAEncryption
        Issuer: C=US, ST=California, L=San Francisco, O=Copyleft Certificate Co, OU=My Organizational Unit, CN=ChangeMe/emailAddress=me@example.net
        Validity
            Not Before: Nov 11 01:45:02 2023 GMT
            Not After : Nov 10 01:45:02 2024 GMT
        Subject: C=US, ST=OH, L=Cincinnati, O=University of Cincinnati, OU=Dept. Elec. Comp. Eng. Comp. Sci., CN=client80/emailAddress=franco@gauss.ececs.uc.edu
        Subject Public Key Info:
            Public Key Algorithm: rsaEncryption
                Public-Key: (2048 bit)
                Modulus:
                    00:bc:08:f3:04:a7:26:cf:ab:8e:a6:ec:3f:3d:db:
                    d5:c4:b5:72:a2:2f:df:57:b0:c1:2a:9d:72:b4:d3:
                    31:46:1e:68:ed:fc:33:d7:2c:34:7e:64:c6:2e:bb:
                    a0:30:b3:2f:48:11:14:dc:9b:f7:90:09:9b:8c:63:
                    0d:73:cb:04:99:af:55:09:34:01:20:d6:86:4e:83:
                    4a:24:70:05:1f:0f:00:72:99:ae:90:7a:8a:fb:b1:
                    5a:99:bb:13:bd:e3:57:88:26:3e:ea:b8:69:7a:27:
                    c0:bc:6d:c7:74:c5:10:68:a7:12:3b:a7:6d:dd:bd:
                    96:83:9b:f9:e0:ab:34:92:c4:d7:b9:f2:4c:29:bf:
                    62:2d:bf:f5:9e:21:f4:dc:2c:60:46:b0:25:b0:8e:
                    a6:bd:a5:78:1f:84:9e:c2:e7:9f:08:8f:16:12:93:
                    65:b0:45:a7:44:99:19:9c:7f:1b:a9:90:7b:e9:d2:
                    0f:fc:c1:a4:46:6e:26:04:32:e1:e3:5f:88:ce:84:
                    e3:0a:4b:1b:1d:f2:3d:94:b6:c0:30:f9:c7:e6:61:
                    3e:ea:52:1e:a6:61:80:ab:d6:58:e0:15:a5:67:c6:
                    52:fb:c8:d5:06:79:c8:e3:09:98:0a:72:35:1f:a3:
                    9c:c4:5e:ab:3d:f4:a0:62:1a:60:17:e4:8c:03:9b:
                    d1:47
                Exponent: 65537 (0x10001)
        X509v3 extensions:
            X509v3 Basic Constraints: 
                CA:FALSE
            X509v3 Subject Key Identifier: 
                6C:AF:9E:E7:4C:BC:35:12:76:67:C6:62:01:1A:2D:E6:67:B4:08:33
            X509v3 Authority Key Identifier: 
                keyid:73:DE:A0:43:0F:AE:B1:9E:E8:59:69:18:50:A1:1A:1F:D4:A1:E3:F0
                DirName:/C=US/ST=California/L=San Francisco/O=Copyleft Certificate Co/OU=My Organizational Unit/CN=ChangeMe/emailAddress=me@example.net
                serial:E9:BB:CB:16:C5:32:BE:3B

            X509v3 Extended Key Usage: 
                TLS Web Client Authentication
            X509v3 Key Usage: 
                Digital Signature
    Signature Algorithm: sha256WithRSAEncryption
         7f:8f:ac:2e:78:f0:c0:ed:56:42:2a:f4:58:86:5d:f8:48:00:
         40:30:97:e7:4b:bd:88:63:57:ef:3a:83:26:d0:85:7d:f7:80:
         d2:a4:e3:83:b1:a3:fe:30:78:1c:bb:40:d1:b8:6d:83:fb:2f:
         4b:80:b4:76:6e:aa:79:50:52:21:e8:bf:ef:40:78:f5:8a:02:
         46:c1:ca:98:d0:5e:e1:3f:a7:0d:c9:2f:17:4e:de:cf:cc:f2:
         07:5d:f0:84:88:e7:4d:09:ef:09:54:2b:31:06:3f:d6:36:38:
         b0:03:7c:ae:d5:9e:ea:c0:80:4c:65:54:dd:66:25:82:c0:27:
         77:da:59:b5:78:ab:32:3d:7d:75:55:58:46:a5:bc:26:4e:7f:
         dc:e3:23:8f:8d:b3:82:9a:2e:8b:06:b4:7e:86:0f:db:e6:bb:
         2a:4e:47:64:8f:49:fe:d2:94:d5:33:26:ff:d7:5f:8b:8a:49:
         a2:e5:c0:cb:0a:29:ec:c3:a6:b1:21:0c:c9:a0:65:1c:55:53:
         05:3b:27:43:fa:71:3f:61:02:08:80:15:5c:0e:f8:28:94:62:
         2b:0d:4d:51:2f:fa:89:d2:b7:c6:84:76:15:77:3d:d2:b7:57:
         08:4f:f8:94:bc:7e:8e:fd:de:e0:fc:c6:ee:78:3d:06:d2:68:
         9f:5b:32:bf
-----BEGIN CERTIFICATE-----
MIIFLzCCBBegAwIBAgIQBMudQeaqmfk3/qwI4YSiuzANBgkqhkiG9w0BAQsFADCB
rzELMAkGA1UEBhMCVVMxEzARBgNVBAgMCkNhbGlmb3JuaWExFjAUBgNVBAcMDVNh
biBGcmFuY2lzY28xIDAeBgNVBAoMF0NvcHlsZWZ0IENlcnRpZmljYXRlIENvMR8w
HQYDVQQLDBZNeSBPcmdhbml6YXRpb25hbCBVbml0MREwDwYDVQQDDAhDaGFuZ2VN
ZTEdMBsGCSqGSIb3DQEJARYObWVAZXhhbXBsZS5uZXQwHhcNMjMxMTExMDE0NTAy
WhcNMjQxMTEwMDE0NTAyWjCBuzELMAkGA1UEBhMCVVMxCzAJBgNVBAgMAk9IMRMw
EQYDVQQHDApDaW5jaW5uYXRpMSEwHwYDVQQKDBhVbml2ZXJzaXR5IG9mIENpbmNp
bm5hdGkxKjAoBgNVBAsMIURlcHQuIEVsZWMuIENvbXAuIEVuZy4gQ29tcC4gU2Np
LjERMA8GA1UEAwwIY2xpZW50ODAxKDAmBgkqhkiG9w0BCQEWGWZyYW5jb0BnYXVz
cy5lY2Vjcy51Yy5lZHUwggEiMA0GCSqGSIb3DQEBAQUAA4IBDwAwggEKAoIBAQC8
CPMEpybPq46m7D8929XEtXKiL99XsMEqnXK00zFGHmjt/DPXLDR+ZMYuu6Awsy9I
ERTcm/eQCZuMYw1zywSZr1UJNAEg1oZOg0okcAUfDwByma6Qeor7sVqZuxO941eI
Jj7quGl6J8C8bcd0xRBopxI7p23dvZaDm/ngqzSSxNe58kwpv2Itv/WeIfTcLGBG
sCWwjqa9pXgfhJ7C558IjxYSk2WwRadEmRmcfxupkHvp0g/8waRGbiYEMuHjX4jO
hOMKSxsd8j2UtsAw+cfmYT7qUh6mYYCr1ljgFaVnxlL7yNUGecjjCZgKcjUfo5zE
Xqs99KBiGmAX5IwDm9FHAgMBAAGjggE3MIIBMzAJBgNVHRMEAjAAMB0GA1UdDgQW
BBRsr57nTLw1EnZnxmIBGi3mZ7QIMzCB5AYDVR0jBIHcMIHZgBRz3qBDD66xnuhZ
aRhQoRof1KHj8KGBtaSBsjCBrzELMAkGA1UEBhMCVVMxEzARBgNVBAgMCkNhbGlm
b3JuaWExFjAUBgNVBAcMDVNhbiBGcmFuY2lzY28xIDAeBgNVBAoMF0NvcHlsZWZ0
IENlcnRpZmljYXRlIENvMR8wHQYDVQQLDBZNeSBPcmdhbml6YXRpb25hbCBVbml0
MREwDwYDVQQDDAhDaGFuZ2VNZTEdMBsGCSqGSIb3DQEJARYObWVAZXhhbXBsZS5u
ZXSCCQDpu8sWxTK+OzATBgNVHSUEDDAKBggrBgEFBQcDAjALBgNVHQ8EBAMCB4Aw
DQYJKoZIhvcNAQELBQADggEBAH+PrC548MDtVkIq9FiGXfhIAEAwl+dLvYhjV+86
gybQhX33gNKk44Oxo/4weBy7QNG4bYP7L0uAtHZuqnlQUiHov+9AePWKAkbBypjQ
XuE/pw3JLxdO3s/M8gdd8ISI500J7wlUKzEGP9Y2OLADfK7VnurAgExlVN1mJYLA
J3faWbV4qzI9fXVVWEalvCZOf9zjI4+Ns4KaLosGtH6GD9vmuypOR2SPSf7SlNUz
Jv/XX4uKSaLlwMsKKezDprEhDMmgZRxVUwU7J0P6cT9hAgiAFVwO+CiUYisNTVEv
+onSt8aEdhV3PdK3VwhP+JS8fo793uD8xu54PQbSaJ9bMr8=
-----END CERTIFICATE-----
