Certificate:
    Data:
        Version: 3 (0x2)
        Serial Number:
            45:b7:2a:87:18:fd:07:1c:9e:c3:4e:3d:60:6b:72:1f
    Signature Algorithm: sha256WithRSAEncryption
        Issuer: C=US, ST=California, L=San Francisco, O=Copyleft Certificate Co, OU=My Organizational Unit, CN=ChangeMe/emailAddress=me@example.net
        Validity
            Not Before: Nov 11 01:47:30 2023 GMT
            Not After : Nov 10 01:47:30 2024 GMT
        Subject: C=US, ST=OH, L=Cincinnati, O=University of Cincinnati, OU=Dept. Elec. Comp. Eng. Comp. Sci., CN=client117/emailAddress=franco@gauss.ececs.uc.edu
        Subject Public Key Info:
            Public Key Algorithm: rsaEncryption
                Public-Key: (2048 bit)
                Modulus:
                    00:d0:be:15:ea:65:b1:da:85:e4:db:56:7c:eb:43:
                    27:37:86:8d:74:7a:67:cc:fb:bc:1e:38:24:bf:ea:
                    da:a4:c6:af:cb:5e:3e:f9:a1:c2:aa:c7:4c:7f:1d:
                    df:84:d2:af:03:59:f9:bb:ed:6d:93:b7:3c:19:5d:
                    5e:ba:8c:a0:3e:d4:d0:c6:6e:b1:d1:97:59:f3:5a:
                    0f:6b:9d:ed:08:2e:f3:5f:78:34:b6:6e:70:ed:b4:
                    2c:8d:c2:d4:f1:4e:b1:da:e8:92:be:5b:d4:21:f3:
                    78:e4:3f:f7:b9:fd:d6:00:82:23:0d:53:8f:d4:35:
                    e1:00:1c:d4:20:0f:9b:cf:6c:fa:99:e4:62:b4:c8:
                    62:65:ec:29:fd:e4:88:fa:e7:10:04:cf:bd:c3:26:
                    58:b4:7d:8e:03:a6:61:75:51:b3:76:6f:7b:0c:e6:
                    c3:0a:25:22:c5:4a:91:46:7b:09:57:2f:3f:29:74:
                    47:22:6f:aa:3b:14:ab:4c:a3:66:e6:47:2b:4a:3f:
                    ca:ac:0a:db:52:7a:26:3e:eb:a2:31:a2:c2:7d:dd:
                    54:ab:76:79:61:c1:77:c5:34:77:d1:3c:1f:08:94:
                    74:d6:b3:ac:70:1d:a8:c3:d2:2b:28:8c:e4:50:ce:
                    6e:d4:ac:43:e5:5c:35:05:63:d3:26:a9:94:38:c8:
                    5e:3f
                Exponent: 65537 (0x10001)
        X509v3 extensions:
            X509v3 Basic Constraints: 
                CA:FALSE
            X509v3 Subject Key Identifier: 
                62:1B:28:1C:1E:97:FE:FD:32:8F:24:3E:C0:4C:50:C5:05:0A:F4:72
            X509v3 Authority Key Identifier: 
                keyid:73:DE:A0:43:0F:AE:B1:9E:E8:59:69:18:50:A1:1A:1F:D4:A1:E3:F0
                DirName:/C=US/ST=California/L=San Francisco/O=Copyleft Certificate Co/OU=My Organizational Unit/CN=ChangeMe/emailAddress=me@example.net
                serial:E9:BB:CB:16:C5:32:BE:3B

            X509v3 Extended Key Usage: 
                TLS Web Client Authentication
            X509v3 Key Usage: 
                Digital Signature
    Signature Algorithm: sha256WithRSAEncryption
         08:e9:bf:85:c7:29:3b:dc:a6:a4:76:21:64:ef:a1:65:47:d5:
         76:e3:fe:a2:23:8f:bd:e5:4a:8b:fc:ac:f4:be:f0:45:bc:45:
         3a:c4:72:8f:ab:26:b3:33:2d:d3:0f:5f:43:1b:bf:ec:d9:7f:
         ff:5e:fc:f1:72:b5:7c:a8:95:50:25:51:f8:f2:50:2e:51:84:
         73:8a:7f:6d:b6:87:fe:91:c5:f5:65:c6:bc:62:53:26:8d:37:
         42:85:ce:62:a0:d2:78:7e:76:85:78:bb:d2:99:9e:d6:e2:2e:
         c9:40:c3:3b:bb:57:34:6b:1f:07:20:cc:49:7e:4c:c8:b6:2f:
         d1:1c:c9:c4:6b:07:aa:38:b4:ac:05:3d:71:97:b0:00:ae:13:
         35:56:61:8b:b3:d1:a9:de:95:a4:50:1d:8c:1a:48:d1:35:71:
         9f:8a:e6:2c:87:5d:6d:16:74:38:b3:e9:94:79:29:a5:91:af:
         6b:2d:ea:24:b8:fa:82:b7:60:eb:55:e0:4d:25:b4:62:5d:f9:
         53:59:7e:e8:dd:b0:8f:f4:a7:56:52:c9:ca:74:17:11:b5:c3:
         62:a3:1e:4a:c7:42:76:35:15:39:5e:df:9a:4e:f2:19:f9:9b:
         2a:0c:c0:14:f3:af:fb:58:8f:a5:9f:19:99:29:53:2f:01:45:
         3b:fe:84:d4
-----BEGIN CERTIFICATE-----
MIIFMDCCBBigAwIBAgIQRbcqhxj9Bxyew049YGtyHzANBgkqhkiG9w0BAQsFADCB
rzELMAkGA1UEBhMCVVMxEzARBgNVBAgMCkNhbGlmb3JuaWExFjAUBgNVBAcMDVNh
biBGcmFuY2lzY28xIDAeBgNVBAoMF0NvcHlsZWZ0IENlcnRpZmljYXRlIENvMR8w
HQYDVQQLDBZNeSBPcmdhbml6YXRpb25hbCBVbml0MREwDwYDVQQDDAhDaGFuZ2VN
ZTEdMBsGCSqGSIb3DQEJARYObWVAZXhhbXBsZS5uZXQwHhcNMjMxMTExMDE0NzMw
WhcNMjQxMTEwMDE0NzMwWjCBvDELMAkGA1UEBhMCVVMxCzAJBgNVBAgMAk9IMRMw
EQYDVQQHDApDaW5jaW5uYXRpMSEwHwYDVQQKDBhVbml2ZXJzaXR5IG9mIENpbmNp
bm5hdGkxKjAoBgNVBAsMIURlcHQuIEVsZWMuIENvbXAuIEVuZy4gQ29tcC4gU2Np
LjESMBAGA1UEAwwJY2xpZW50MTE3MSgwJgYJKoZIhvcNAQkBFhlmcmFuY29AZ2F1
c3MuZWNlY3MudWMuZWR1MIIBIjANBgkqhkiG9w0BAQEFAAOCAQ8AMIIBCgKCAQEA
0L4V6mWx2oXk21Z860MnN4aNdHpnzPu8Hjgkv+rapMavy14++aHCqsdMfx3fhNKv
A1n5u+1tk7c8GV1euoygPtTQxm6x0ZdZ81oPa53tCC7zX3g0tm5w7bQsjcLU8U6x
2uiSvlvUIfN45D/3uf3WAIIjDVOP1DXhABzUIA+bz2z6meRitMhiZewp/eSI+ucQ
BM+9wyZYtH2OA6ZhdVGzdm97DObDCiUixUqRRnsJVy8/KXRHIm+qOxSrTKNm5kcr
Sj/KrArbUnomPuuiMaLCfd1Uq3Z5YcF3xTR30TwfCJR01rOscB2ow9IrKIzkUM5u
1KxD5Vw1BWPTJqmUOMhePwIDAQABo4IBNzCCATMwCQYDVR0TBAIwADAdBgNVHQ4E
FgQUYhsoHB6X/v0yjyQ+wExQxQUK9HIwgeQGA1UdIwSB3DCB2YAUc96gQw+usZ7o
WWkYUKEaH9Sh4/ChgbWkgbIwga8xCzAJBgNVBAYTAlVTMRMwEQYDVQQIDApDYWxp
Zm9ybmlhMRYwFAYDVQQHDA1TYW4gRnJhbmNpc2NvMSAwHgYDVQQKDBdDb3B5bGVm
dCBDZXJ0aWZpY2F0ZSBDbzEfMB0GA1UECwwWTXkgT3JnYW5pemF0aW9uYWwgVW5p
dDERMA8GA1UEAwwIQ2hhbmdlTWUxHTAbBgkqhkiG9w0BCQEWDm1lQGV4YW1wbGUu
bmV0ggkA6bvLFsUyvjswEwYDVR0lBAwwCgYIKwYBBQUHAwIwCwYDVR0PBAQDAgeA
MA0GCSqGSIb3DQEBCwUAA4IBAQAI6b+Fxyk73KakdiFk76FlR9V24/6iI4+95UqL
/Kz0vvBFvEU6xHKPqyazMy3TD19DG7/s2X//XvzxcrV8qJVQJVH48lAuUYRzin9t
tof+kcX1Zca8YlMmjTdChc5ioNJ4fnaFeLvSmZ7W4i7JQMM7u1c0ax8HIMxJfkzI
ti/RHMnEaweqOLSsBT1xl7AArhM1VmGLs9Gp3pWkUB2MGkjRNXGfiuYsh11tFnQ4
s+mUeSmlka9rLeokuPqCt2DrVeBNJbRiXflTWX7o3bCP9KdWUsnKdBcRtcNiox5K
x0J2NRU5Xt+aTvIZ+ZsqDMAU86/7WI+lnxmZKVMvAUU7/oTU
-----END CERTIFICATE-----
