Certificate:
    Data:
        Version: 3 (0x2)
        Serial Number:
            c2:73:93:66:55:22:f9:3a:df:63:de:f1:41:7f:0f:15
    Signature Algorithm: sha256WithRSAEncryption
        Issuer: C=US, ST=California, L=San Francisco, O=Copyleft Certificate Co, OU=My Organizational Unit, CN=ChangeMe/emailAddress=me@example.net
        Validity
            Not Before: Nov 11 10:55:44 2023 GMT
            Not After : Nov 10 10:55:44 2024 GMT
        Subject: C=US, ST=OH, L=Cincinnati, O=University of Cincinnati, OU=Dept. Elec. Comp. Eng. Comp. Sci., CN=client7/emailAddress=franco@gauss.ececs.uc.edu
        Subject Public Key Info:
            Public Key Algorithm: rsaEncryption
                Public-Key: (2048 bit)
                Modulus:
                    00:bc:4f:a8:19:c7:0b:7c:97:f5:08:5a:b7:95:e7:
                    e1:95:8a:4e:a4:d6:96:b6:3e:1d:bf:55:d1:0e:05:
                    e2:79:49:ee:72:ef:b0:3a:0e:82:0c:f0:3b:d1:ab:
                    20:f7:96:70:2d:e0:1c:d0:50:f2:7d:f7:c3:a3:dd:
                    ed:4d:9e:b8:a2:dc:1f:44:5f:a3:b6:cf:42:2d:8c:
                    6c:8a:7d:07:91:51:f3:28:f3:81:04:51:68:8d:db:
                    a7:d7:da:48:d3:f6:e4:6c:56:93:de:22:7d:4a:4b:
                    8d:c0:f4:a6:2b:1a:bd:20:64:b4:a3:3e:f6:ec:fd:
                    06:eb:4b:13:29:48:cc:eb:f9:4b:da:03:af:7d:0a:
                    36:c5:32:35:10:4d:e3:2a:4d:7d:18:17:0a:cd:4b:
                    49:51:b1:e0:a1:53:18:ed:42:a1:f9:39:3c:1d:93:
                    89:0e:df:1a:50:31:b7:eb:c3:2d:5e:f7:03:a7:d8:
                    2e:13:8f:78:d8:56:df:9f:0e:cc:9a:1a:d5:60:0b:
                    f3:63:d0:31:78:a4:c8:96:a3:41:d6:b4:39:74:a1:
                    e5:1b:49:b7:b4:63:45:47:9f:19:a4:78:c5:eb:ee:
                    9c:05:68:46:c1:b1:19:18:01:d0:56:dd:53:b3:ac:
                    12:51:6e:aa:69:5d:83:10:7d:13:f2:aa:18:33:1d:
                    53:c7
                Exponent: 65537 (0x10001)
        X509v3 extensions:
            X509v3 Basic Constraints: 
                CA:FALSE
            X509v3 Subject Key Identifier: 
                8F:35:EF:3C:34:71:89:C5:DA:A6:ED:27:B2:43:2A:05:7D:70:DC:9E
            X509v3 Authority Key Identifier: 
                keyid:44:01:CC:06:0B:41:75:CB:C8:FB:C9:37:86:2D:9D:D2:D8:79:B6:8B
                DirName:/C=US/ST=California/L=San Francisco/O=Copyleft Certificate Co/OU=My Organizational Unit/CN=ChangeMe/emailAddress=me@example.net
                serial:AF:E8:E0:DD:C5:8B:0E:DD

            X509v3 Extended Key Usage: 
                TLS Web Client Authentication
            X509v3 Key Usage: 
                Digital Signature
    Signature Algorithm: sha256WithRSAEncryption
         27:3f:88:61:9c:bb:1e:31:7f:31:03:dd:e7:ed:6e:fd:6e:f6:
         79:bd:68:03:40:d6:3b:a2:c9:85:b9:4c:82:77:4b:4d:f3:8a:
         5f:c1:d3:04:69:56:c6:d3:fe:f0:18:66:a1:3d:24:dc:c3:7f:
         00:b0:2a:c9:34:cf:e0:6b:24:5f:85:35:51:e0:0a:61:82:c3:
         2f:9e:c1:1f:4a:f3:78:08:ce:2c:e1:7e:a3:b9:67:44:f8:7b:
         20:fd:6e:ae:3e:47:63:0d:c0:04:48:8b:31:f3:d7:24:bf:61:
         0a:cf:dc:ba:25:f5:5b:75:76:57:68:f8:72:95:56:56:4e:62:
         11:ae:8e:59:24:f6:ee:06:01:4c:ed:0d:a9:81:c3:be:ca:07:
         b0:b9:47:c6:0e:e4:99:9b:72:8c:b0:b5:96:f1:68:c2:2b:91:
         79:b4:64:ce:70:77:0f:22:6e:df:d7:2b:87:fe:13:df:2f:f5:
         b1:cb:89:ee:08:5d:06:62:e0:34:e5:3a:1c:2e:ad:d1:c0:52:
         0f:9e:11:b1:81:e7:e3:9a:30:f1:b9:ca:9e:e3:50:04:ff:7c:
         44:72:12:fb:d3:80:2a:e8:e1:5f:89:6f:f1:3d:3d:86:95:29:
         4f:4a:b0:65:82:ba:b4:c7:a0:54:81:da:b3:8b:00:f9:8c:a5:
         87:b5:1b:56
-----BEGIN CERTIFICATE-----
MIIFLzCCBBegAwIBAgIRAMJzk2ZVIvk632Pe8UF/DxUwDQYJKoZIhvcNAQELBQAw
ga8xCzAJBgNVBAYTAlVTMRMwEQYDVQQIDApDYWxpZm9ybmlhMRYwFAYDVQQHDA1T
YW4gRnJhbmNpc2NvMSAwHgYDVQQKDBdDb3B5bGVmdCBDZXJ0aWZpY2F0ZSBDbzEf
MB0GA1UECwwWTXkgT3JnYW5pemF0aW9uYWwgVW5pdDERMA8GA1UEAwwIQ2hhbmdl
TWUxHTAbBgkqhkiG9w0BCQEWDm1lQGV4YW1wbGUubmV0MB4XDTIzMTExMTEwNTU0
NFoXDTI0MTExMDEwNTU0NFowgboxCzAJBgNVBAYTAlVTMQswCQYDVQQIDAJPSDET
MBEGA1UEBwwKQ2luY2lubmF0aTEhMB8GA1UECgwYVW5pdmVyc2l0eSBvZiBDaW5j
aW5uYXRpMSowKAYDVQQLDCFEZXB0LiBFbGVjLiBDb21wLiBFbmcuIENvbXAuIFNj
aS4xEDAOBgNVBAMMB2NsaWVudDcxKDAmBgkqhkiG9w0BCQEWGWZyYW5jb0BnYXVz
cy5lY2Vjcy51Yy5lZHUwggEiMA0GCSqGSIb3DQEBAQUAA4IBDwAwggEKAoIBAQC8
T6gZxwt8l/UIWreV5+GVik6k1pa2Ph2/VdEOBeJ5Se5y77A6DoIM8DvRqyD3lnAt
4BzQUPJ998Oj3e1Nnrii3B9EX6O2z0ItjGyKfQeRUfMo84EEUWiN26fX2kjT9uRs
VpPeIn1KS43A9KYrGr0gZLSjPvbs/QbrSxMpSMzr+UvaA699CjbFMjUQTeMqTX0Y
FwrNS0lRseChUxjtQqH5OTwdk4kO3xpQMbfrwy1e9wOn2C4Tj3jYVt+fDsyaGtVg
C/Nj0DF4pMiWo0HWtDl0oeUbSbe0Y0VHnxmkeMXr7pwFaEbBsRkYAdBW3VOzrBJR
bqppXYMQfRPyqhgzHVPHAgMBAAGjggE3MIIBMzAJBgNVHRMEAjAAMB0GA1UdDgQW
BBSPNe88NHGJxdqm7SeyQyoFfXDcnjCB5AYDVR0jBIHcMIHZgBREAcwGC0F1y8j7
yTeGLZ3S2Hm2i6GBtaSBsjCBrzELMAkGA1UEBhMCVVMxEzARBgNVBAgMCkNhbGlm
b3JuaWExFjAUBgNVBAcMDVNhbiBGcmFuY2lzY28xIDAeBgNVBAoMF0NvcHlsZWZ0
IENlcnRpZmljYXRlIENvMR8wHQYDVQQLDBZNeSBPcmdhbml6YXRpb25hbCBVbml0
MREwDwYDVQQDDAhDaGFuZ2VNZTEdMBsGCSqGSIb3DQEJARYObWVAZXhhbXBsZS5u
ZXSCCQCv6ODdxYsO3TATBgNVHSUEDDAKBggrBgEFBQcDAjALBgNVHQ8EBAMCB4Aw
DQYJKoZIhvcNAQELBQADggEBACc/iGGcux4xfzED3eftbv1u9nm9aANA1juiyYW5
TIJ3S03zil/B0wRpVsbT/vAYZqE9JNzDfwCwKsk0z+BrJF+FNVHgCmGCwy+ewR9K
83gIzizhfqO5Z0T4eyD9bq4+R2MNwARIizHz1yS/YQrP3Lol9Vt1dldo+HKVVlZO
YhGujlkk9u4GAUztDamBw77KB7C5R8YO5JmbcoywtZbxaMIrkXm0ZM5wdw8ibt/X
K4f+E98v9bHLie4IXQZi4DTlOhwurdHAUg+eEbGB5+OaMPG5yp7jUAT/fERyEvvT
gCro4V+Jb/E9PYaVKU9KsGWCurTHoFSB2rOLAPmMpYe1G1Y=
-----END CERTIFICATE-----
