Certificate:
    Data:
        Version: 3 (0x2)
        Serial Number:
            a2:00:7d:bc:61:03:c5:86:b6:a4:43:7e:0d:19:0a:01
    Signature Algorithm: sha256WithRSAEncryption
        Issuer: C=US, ST=California, L=San Francisco, O=Copyleft Certificate Co, OU=My Organizational Unit, CN=ChangeMe/emailAddress=me@example.net
        Validity
            Not Before: Nov 11 01:44:10 2023 GMT
            Not After : Nov 10 01:44:10 2024 GMT
        Subject: C=US, ST=OH, L=Cincinnati, O=University of Cincinnati, OU=Dept. Elec. Comp. Eng. Comp. Sci., CN=client67/emailAddress=franco@gauss.ececs.uc.edu
        Subject Public Key Info:
            Public Key Algorithm: rsaEncryption
                Public-Key: (2048 bit)
                Modulus:
                    00:ca:36:d2:02:44:85:75:79:a3:db:fe:bb:9c:b2:
                    10:1b:72:c0:0e:40:19:d8:0f:55:82:83:5f:22:8b:
                    43:9a:29:92:ca:57:54:a7:64:f9:15:e0:d5:8d:a2:
                    98:72:0c:ee:fe:63:5f:a5:a9:2c:6d:ce:25:66:06:
                    36:aa:6e:40:21:e1:33:dc:96:3e:cb:55:ac:8d:27:
                    7c:22:a0:e9:89:06:da:0f:30:7a:8b:e2:4b:23:8d:
                    8f:1a:17:92:8f:2c:65:1d:b9:e4:b7:16:40:a6:42:
                    b0:fb:6d:d4:13:5a:16:89:e1:15:70:2a:3f:3a:72:
                    7e:b3:19:34:bf:c9:fc:53:98:60:69:01:5c:da:07:
                    a1:e8:97:be:50:5d:db:df:9e:fb:00:c7:d6:34:bb:
                    be:cb:b5:f6:c2:44:c2:3a:39:ea:7b:98:39:28:e9:
                    ed:0f:30:1a:b8:b1:4b:1c:6f:44:c9:31:57:1a:47:
                    87:01:b8:93:f8:5d:25:5d:20:b4:5b:c8:0e:55:4a:
                    92:6a:5c:86:e9:65:ac:82:44:81:ed:45:c6:1d:9c:
                    c0:42:f7:6b:df:6c:54:0f:68:9e:34:4c:7e:76:cd:
                    2f:dd:fb:9a:e5:61:62:6d:10:b2:1f:a1:16:47:1e:
                    eb:53:fb:1a:8c:e5:4d:d6:5b:23:78:60:b6:89:4d:
                    de:e9
                Exponent: 65537 (0x10001)
        X509v3 extensions:
            X509v3 Basic Constraints: 
                CA:FALSE
            X509v3 Subject Key Identifier: 
                43:90:78:08:DC:D2:9A:2F:6D:C8:88:18:0F:4A:8F:DF:9C:DA:B4:75
            X509v3 Authority Key Identifier: 
                keyid:73:DE:A0:43:0F:AE:B1:9E:E8:59:69:18:50:A1:1A:1F:D4:A1:E3:F0
                DirName:/C=US/ST=California/L=San Francisco/O=Copyleft Certificate Co/OU=My Organizational Unit/CN=ChangeMe/emailAddress=me@example.net
                serial:E9:BB:CB:16:C5:32:BE:3B

            X509v3 Extended Key Usage: 
                TLS Web Client Authentication
            X509v3 Key Usage: 
                Digital Signature
    Signature Algorithm: sha256WithRSAEncryption
         32:17:00:c0:62:30:d2:f2:5e:ab:94:14:73:e3:d3:5e:62:17:
         6d:ba:fa:f8:6b:ae:52:14:eb:05:f4:6e:6f:73:56:1d:d1:07:
         5e:52:12:98:24:57:bb:8c:ec:69:b3:0b:49:c7:c1:62:af:4c:
         e6:15:0a:7f:c2:b0:0c:a1:d4:fd:06:b5:2f:f6:d7:d7:b0:e4:
         50:e3:2c:6d:c0:47:99:25:c8:9b:db:36:94:87:e5:d2:48:dc:
         64:34:54:ea:49:e6:4e:ce:86:e3:29:55:60:7e:7f:02:cf:41:
         28:7a:f9:51:5c:62:2e:1b:f6:5f:84:e9:e9:59:fa:f0:30:7a:
         f3:60:3a:31:b0:11:10:e5:06:2a:e3:52:0d:99:e5:60:3d:75:
         1a:7a:6a:04:d3:15:c3:90:11:6b:88:60:b0:8a:01:c6:a6:1e:
         73:4a:f9:d2:92:b1:bf:24:4d:e6:23:98:ba:fd:21:80:b5:d5:
         a4:af:85:55:7f:3c:7d:93:c8:0b:1e:51:ef:a1:02:23:67:8b:
         c3:d0:86:43:0a:fe:70:b4:65:4a:37:fe:e4:55:0e:c7:df:01:
         f1:07:f6:6e:42:db:af:d0:6f:62:db:6c:fe:3b:ce:f8:1d:1e:
         6a:af:b6:49:fd:5a:d8:50:ae:3d:37:cd:2b:37:54:a2:a3:b7:
         3a:06:be:00
-----BEGIN CERTIFICATE-----
MIIFMDCCBBigAwIBAgIRAKIAfbxhA8WGtqRDfg0ZCgEwDQYJKoZIhvcNAQELBQAw
ga8xCzAJBgNVBAYTAlVTMRMwEQYDVQQIDApDYWxpZm9ybmlhMRYwFAYDVQQHDA1T
YW4gRnJhbmNpc2NvMSAwHgYDVQQKDBdDb3B5bGVmdCBDZXJ0aWZpY2F0ZSBDbzEf
MB0GA1UECwwWTXkgT3JnYW5pemF0aW9uYWwgVW5pdDERMA8GA1UEAwwIQ2hhbmdl
TWUxHTAbBgkqhkiG9w0BCQEWDm1lQGV4YW1wbGUubmV0MB4XDTIzMTExMTAxNDQx
MFoXDTI0MTExMDAxNDQxMFowgbsxCzAJBgNVBAYTAlVTMQswCQYDVQQIDAJPSDET
MBEGA1UEBwwKQ2luY2lubmF0aTEhMB8GA1UECgwYVW5pdmVyc2l0eSBvZiBDaW5j
aW5uYXRpMSowKAYDVQQLDCFEZXB0LiBFbGVjLiBDb21wLiBFbmcuIENvbXAuIFNj
aS4xETAPBgNVBAMMCGNsaWVudDY3MSgwJgYJKoZIhvcNAQkBFhlmcmFuY29AZ2F1
c3MuZWNlY3MudWMuZWR1MIIBIjANBgkqhkiG9w0BAQEFAAOCAQ8AMIIBCgKCAQEA
yjbSAkSFdXmj2/67nLIQG3LADkAZ2A9VgoNfIotDmimSyldUp2T5FeDVjaKYcgzu
/mNfpaksbc4lZgY2qm5AIeEz3JY+y1WsjSd8IqDpiQbaDzB6i+JLI42PGheSjyxl
HbnktxZApkKw+23UE1oWieEVcCo/OnJ+sxk0v8n8U5hgaQFc2geh6Je+UF3b3577
AMfWNLu+y7X2wkTCOjnqe5g5KOntDzAauLFLHG9EyTFXGkeHAbiT+F0lXSC0W8gO
VUqSalyG6WWsgkSB7UXGHZzAQvdr32xUD2ieNEx+ds0v3fua5WFibRCyH6EWRx7r
U/sajOVN1lsjeGC2iU3e6QIDAQABo4IBNzCCATMwCQYDVR0TBAIwADAdBgNVHQ4E
FgQUQ5B4CNzSmi9tyIgYD0qP35zatHUwgeQGA1UdIwSB3DCB2YAUc96gQw+usZ7o
WWkYUKEaH9Sh4/ChgbWkgbIwga8xCzAJBgNVBAYTAlVTMRMwEQYDVQQIDApDYWxp
Zm9ybmlhMRYwFAYDVQQHDA1TYW4gRnJhbmNpc2NvMSAwHgYDVQQKDBdDb3B5bGVm
dCBDZXJ0aWZpY2F0ZSBDbzEfMB0GA1UECwwWTXkgT3JnYW5pemF0aW9uYWwgVW5p
dDERMA8GA1UEAwwIQ2hhbmdlTWUxHTAbBgkqhkiG9w0BCQEWDm1lQGV4YW1wbGUu
bmV0ggkA6bvLFsUyvjswEwYDVR0lBAwwCgYIKwYBBQUHAwIwCwYDVR0PBAQDAgeA
MA0GCSqGSIb3DQEBCwUAA4IBAQAyFwDAYjDS8l6rlBRz49NeYhdtuvr4a65SFOsF
9G5vc1Yd0QdeUhKYJFe7jOxpswtJx8Fir0zmFQp/wrAModT9BrUv9tfXsORQ4yxt
wEeZJcib2zaUh+XSSNxkNFTqSeZOzobjKVVgfn8Cz0EoevlRXGIuG/ZfhOnpWfrw
MHrzYDoxsBEQ5QYq41INmeVgPXUaemoE0xXDkBFriGCwigHGph5zSvnSkrG/JE3m
I5i6/SGAtdWkr4VVfzx9k8gLHlHvoQIjZ4vD0IZDCv5wtGVKN/7kVQ7H3wHxB/Zu
Qtuv0G9i22z+O874HR5qr7ZJ/VrYUK49N80rN1Sio7c6Br4A
-----END CERTIFICATE-----
