Certificate:
    Data:
        Version: 3 (0x2)
        Serial Number:
            1a:6e:29:4d:1d:f6:de:4a:57:85:90:6d:a5:ec:6e:e4
    Signature Algorithm: sha256WithRSAEncryption
        Issuer: C=US, ST=California, L=San Francisco, O=Copyleft Certificate Co, OU=My Organizational Unit, CN=ChangeMe/emailAddress=me@example.net
        Validity
            Not Before: Nov 11 10:57:16 2023 GMT
            Not After : Nov 10 10:57:16 2024 GMT
        Subject: C=US, ST=OH, L=Cincinnati, O=University of Cincinnati, OU=Dept. Elec. Comp. Eng. Comp. Sci., CN=client30/emailAddress=franco@gauss.ececs.uc.edu
        Subject Public Key Info:
            Public Key Algorithm: rsaEncryption
                Public-Key: (2048 bit)
                Modulus:
                    00:da:89:a8:1d:76:ef:44:36:89:43:b4:88:bc:62:
                    59:87:9c:a9:8a:4b:8e:e3:0d:f5:69:e8:bc:4e:34:
                    76:39:ac:7e:50:bc:1b:85:a7:e7:1b:7c:fb:85:b3:
                    66:48:3f:b2:d6:67:8c:63:8f:e5:15:3b:e5:1e:63:
                    04:6f:05:14:85:e4:5e:f4:ec:ad:3a:72:28:84:da:
                    ac:cd:14:eb:b0:06:bc:63:b4:d6:b2:f2:f0:da:f1:
                    8a:b1:5e:e2:ca:11:e7:0a:28:a4:33:79:5d:d8:79:
                    e9:e6:db:73:38:2e:3a:79:8d:53:cd:6b:cc:4e:02:
                    21:d3:6a:4f:19:8c:14:90:4e:d0:68:9d:16:64:1a:
                    ca:f6:fa:b2:94:de:2f:7c:30:ae:eb:b2:a6:93:78:
                    c6:02:2a:aa:3d:dd:0d:95:9f:c6:53:96:67:11:6b:
                    fc:61:78:54:c5:29:23:91:05:d5:bf:7a:6c:aa:48:
                    4a:aa:09:13:0b:b1:be:6e:e7:86:1c:0e:5b:92:5f:
                    0e:c0:66:ce:5c:45:f2:b6:9f:64:18:4d:1a:81:06:
                    cc:36:14:84:c4:6f:66:74:d3:7b:d8:4c:b0:26:fc:
                    15:c8:61:d1:3a:2a:4e:e9:d2:05:53:48:79:c5:b2:
                    2a:c9:7d:eb:10:79:5b:32:f6:ff:be:dc:1a:c9:09:
                    71:bd
                Exponent: 65537 (0x10001)
        X509v3 extensions:
            X509v3 Basic Constraints: 
                CA:FALSE
            X509v3 Subject Key Identifier: 
                1A:7E:BF:5A:51:A7:FE:F9:72:7F:AE:89:9F:95:C5:19:81:1E:26:21
            X509v3 Authority Key Identifier: 
                keyid:44:01:CC:06:0B:41:75:CB:C8:FB:C9:37:86:2D:9D:D2:D8:79:B6:8B
                DirName:/C=US/ST=California/L=San Francisco/O=Copyleft Certificate Co/OU=My Organizational Unit/CN=ChangeMe/emailAddress=me@example.net
                serial:AF:E8:E0:DD:C5:8B:0E:DD

            X509v3 Extended Key Usage: 
                TLS Web Client Authentication
            X509v3 Key Usage: 
                Digital Signature
    Signature Algorithm: sha256WithRSAEncryption
         08:bd:84:91:da:a3:da:19:f9:47:f7:2f:41:d9:d8:03:f9:3d:
         d7:df:5e:2f:fa:52:bf:88:da:5b:d0:57:a2:8a:f5:6b:63:08:
         60:43:be:d3:33:52:36:93:4b:a6:c6:ce:01:20:92:29:d8:4c:
         78:07:c7:bc:55:ed:80:37:09:3b:8d:6b:2c:87:e1:e7:f8:7a:
         0d:cd:13:35:64:ff:46:fe:6d:87:39:41:fa:fd:a1:43:7d:d6:
         27:49:ac:6d:b0:cc:b5:12:cd:7e:6c:8d:6d:2d:08:51:37:15:
         28:e8:17:e1:12:7d:eb:eb:e5:7c:24:f6:91:10:c0:43:a0:00:
         cc:b6:04:75:68:42:43:0d:99:47:b5:7f:37:56:68:a8:28:48:
         68:20:d1:e4:73:8a:d1:11:62:08:ee:47:10:65:52:13:ad:68:
         3c:5e:fd:c8:69:a5:13:fc:c0:71:98:80:ee:14:fd:d0:77:3e:
         b8:cc:3e:42:cd:36:ee:51:a2:c7:e6:8c:bc:e0:1a:0b:e4:1c:
         fe:d0:fd:49:ad:34:59:86:42:62:11:9e:68:dd:73:ba:77:9d:
         22:70:61:ef:2a:66:e6:33:e4:3a:c8:e8:30:d8:76:d7:d3:df:
         a5:ce:20:99:7a:01:4e:77:3b:56:8e:7f:b3:31:6b:62:c1:d2:
         81:a1:d3:d8
-----BEGIN CERTIFICATE-----
MIIFLzCCBBegAwIBAgIQGm4pTR323kpXhZBtpexu5DANBgkqhkiG9w0BAQsFADCB
rzELMAkGA1UEBhMCVVMxEzARBgNVBAgMCkNhbGlmb3JuaWExFjAUBgNVBAcMDVNh
biBGcmFuY2lzY28xIDAeBgNVBAoMF0NvcHlsZWZ0IENlcnRpZmljYXRlIENvMR8w
HQYDVQQLDBZNeSBPcmdhbml6YXRpb25hbCBVbml0MREwDwYDVQQDDAhDaGFuZ2VN
ZTEdMBsGCSqGSIb3DQEJARYObWVAZXhhbXBsZS5uZXQwHhcNMjMxMTExMTA1NzE2
WhcNMjQxMTEwMTA1NzE2WjCBuzELMAkGA1UEBhMCVVMxCzAJBgNVBAgMAk9IMRMw
EQYDVQQHDApDaW5jaW5uYXRpMSEwHwYDVQQKDBhVbml2ZXJzaXR5IG9mIENpbmNp
bm5hdGkxKjAoBgNVBAsMIURlcHQuIEVsZWMuIENvbXAuIEVuZy4gQ29tcC4gU2Np
LjERMA8GA1UEAwwIY2xpZW50MzAxKDAmBgkqhkiG9w0BCQEWGWZyYW5jb0BnYXVz
cy5lY2Vjcy51Yy5lZHUwggEiMA0GCSqGSIb3DQEBAQUAA4IBDwAwggEKAoIBAQDa
iagddu9ENolDtIi8YlmHnKmKS47jDfVp6LxONHY5rH5QvBuFp+cbfPuFs2ZIP7LW
Z4xjj+UVO+UeYwRvBRSF5F707K06ciiE2qzNFOuwBrxjtNay8vDa8YqxXuLKEecK
KKQzeV3Yeenm23M4Ljp5jVPNa8xOAiHTak8ZjBSQTtBonRZkGsr2+rKU3i98MK7r
sqaTeMYCKqo93Q2Vn8ZTlmcRa/xheFTFKSORBdW/emyqSEqqCRMLsb5u54YcDluS
Xw7AZs5cRfK2n2QYTRqBBsw2FITEb2Z003vYTLAm/BXIYdE6Kk7p0gVTSHnFsirJ
fesQeVsy9v++3BrJCXG9AgMBAAGjggE3MIIBMzAJBgNVHRMEAjAAMB0GA1UdDgQW
BBQafr9aUaf++XJ/romflcUZgR4mITCB5AYDVR0jBIHcMIHZgBREAcwGC0F1y8j7
yTeGLZ3S2Hm2i6GBtaSBsjCBrzELMAkGA1UEBhMCVVMxEzARBgNVBAgMCkNhbGlm
b3JuaWExFjAUBgNVBAcMDVNhbiBGcmFuY2lzY28xIDAeBgNVBAoMF0NvcHlsZWZ0
IENlcnRpZmljYXRlIENvMR8wHQYDVQQLDBZNeSBPcmdhbml6YXRpb25hbCBVbml0
MREwDwYDVQQDDAhDaGFuZ2VNZTEdMBsGCSqGSIb3DQEJARYObWVAZXhhbXBsZS5u
ZXSCCQCv6ODdxYsO3TATBgNVHSUEDDAKBggrBgEFBQcDAjALBgNVHQ8EBAMCB4Aw
DQYJKoZIhvcNAQELBQADggEBAAi9hJHao9oZ+Uf3L0HZ2AP5PdffXi/6Ur+I2lvQ
V6KK9WtjCGBDvtMzUjaTS6bGzgEgkinYTHgHx7xV7YA3CTuNayyH4ef4eg3NEzVk
/0b+bYc5Qfr9oUN91idJrG2wzLUSzX5sjW0tCFE3FSjoF+ESfevr5Xwk9pEQwEOg
AMy2BHVoQkMNmUe1fzdWaKgoSGgg0eRzitERYgjuRxBlUhOtaDxe/chppRP8wHGY
gO4U/dB3PrjMPkLNNu5RosfmjLzgGgvkHP7Q/UmtNFmGQmIRnmjdc7p3nSJwYe8q
ZuYz5DrI6DDYdtfT36XOIJl6AU53O1aOf7Mxa2LB0oGh09g=
-----END CERTIFICATE-----
