Certificate:
    Data:
        Version: 3 (0x2)
        Serial Number:
            1d:c7:4a:3a:8d:79:cd:17:88:16:57:88:e1:27:05:c3
    Signature Algorithm: sha256WithRSAEncryption
        Issuer: C=US, ST=California, L=San Francisco, O=Copyleft Certificate Co, OU=My Organizational Unit, CN=ChangeMe/emailAddress=me@example.net
        Validity
            Not Before: Nov 11 10:55:21 2023 GMT
            Not After : Nov 10 10:55:21 2024 GMT
        Subject: C=US, ST=OH, L=Cincinnati, O=University of Cincinnati, OU=Dept. Elec. Comp. Eng. Comp. Sci., CN=client2/emailAddress=franco@gauss.ececs.uc.edu
        Subject Public Key Info:
            Public Key Algorithm: rsaEncryption
                Public-Key: (2048 bit)
                Modulus:
                    00:a4:1f:13:0b:75:3a:48:04:8f:02:9d:ad:82:42:
                    09:86:e4:9d:3a:f8:ef:ff:c9:79:de:f0:ba:f7:a6:
                    a7:3f:6a:29:61:3f:3b:9e:e6:43:5f:55:38:d9:2c:
                    80:8d:49:2c:0a:6f:b1:ab:c1:94:97:e4:c3:51:9f:
                    cc:d1:2a:e6:8c:7a:ac:51:a9:18:54:7c:4a:ef:b8:
                    92:4b:23:61:ea:8b:1c:65:c1:21:da:ed:ae:55:e3:
                    ae:7c:ec:3e:01:be:51:d3:50:18:b9:49:f5:07:da:
                    2d:73:77:eb:f9:7b:2d:f6:7b:3a:6a:d4:55:bb:9d:
                    34:29:c2:62:39:5b:54:2b:ca:43:bd:3c:04:ca:a4:
                    b3:e5:5d:4d:51:eb:4f:c2:d4:62:e2:f6:6b:30:2e:
                    87:e6:44:0a:8e:41:97:8c:c0:30:67:2b:82:b3:ae:
                    47:52:45:56:6f:d2:6b:fe:ba:8e:b9:78:ef:d4:c7:
                    32:be:7a:fd:cc:a1:78:ea:01:3b:5d:ca:73:4a:17:
                    5e:39:18:82:b5:9f:e4:50:07:94:10:43:41:76:3b:
                    f1:f6:1f:66:0f:2f:0b:a4:ae:fa:4d:5e:c7:57:e4:
                    d2:94:10:1f:f9:7d:eb:6e:62:b9:2d:7b:b5:b1:a3:
                    7a:4b:62:ee:f0:ac:b6:c6:cc:b9:08:ca:5c:73:8e:
                    9e:5d
                Exponent: 65537 (0x10001)
        X509v3 extensions:
            X509v3 Basic Constraints: 
                CA:FALSE
            X509v3 Subject Key Identifier: 
                C1:C9:CA:10:69:76:9F:C9:5C:CB:78:63:61:29:C0:FC:EF:51:4C:8E
            X509v3 Authority Key Identifier: 
                keyid:44:01:CC:06:0B:41:75:CB:C8:FB:C9:37:86:2D:9D:D2:D8:79:B6:8B
                DirName:/C=US/ST=California/L=San Francisco/O=Copyleft Certificate Co/OU=My Organizational Unit/CN=ChangeMe/emailAddress=me@example.net
                serial:AF:E8:E0:DD:C5:8B:0E:DD

            X509v3 Extended Key Usage: 
                TLS Web Client Authentication
            X509v3 Key Usage: 
                Digital Signature
    Signature Algorithm: sha256WithRSAEncryption
         aa:92:c5:e6:b4:ca:e0:34:6c:2f:d1:eb:cb:6d:99:06:46:eb:
         27:eb:0c:bd:8f:a4:23:15:cf:aa:43:a9:44:02:33:13:35:9b:
         9d:a5:24:10:56:da:a5:6b:a4:77:2d:4e:22:60:c3:9f:69:63:
         91:bb:b8:7b:7d:79:ef:80:dc:fe:c0:c4:7a:e5:b0:13:b4:74:
         3e:a2:79:74:64:83:33:d2:93:d0:27:50:50:6c:94:46:83:73:
         70:25:d2:5d:81:e1:73:bb:e2:c3:16:a7:d2:6f:b6:99:04:7c:
         1f:b5:bb:05:80:b3:7b:7e:61:09:d9:1c:1d:03:ad:23:7b:18:
         0d:f8:73:9a:c7:f6:f3:52:71:98:91:e2:01:97:fa:01:7d:d4:
         73:b7:3f:03:66:25:b8:19:ca:fe:dc:68:45:92:63:41:36:8f:
         ca:47:29:82:80:29:d0:71:ea:eb:7f:65:24:77:c4:4b:3a:0f:
         b0:5f:52:d3:26:20:29:ad:77:e2:7c:3d:8f:3a:12:d3:bc:d9:
         d2:f3:07:5e:fe:90:64:15:16:96:8c:5c:e0:dc:e0:bd:de:99:
         ba:11:c3:27:c5:c5:a6:96:10:03:f2:fe:c2:34:48:4f:78:60:
         8f:a7:d2:c1:fb:d2:c6:79:0d:49:7c:ea:f8:38:33:5e:30:34:
         13:72:40:7e
-----BEGIN CERTIFICATE-----
MIIFLjCCBBagAwIBAgIQHcdKOo15zReIFleI4ScFwzANBgkqhkiG9w0BAQsFADCB
rzELMAkGA1UEBhMCVVMxEzARBgNVBAgMCkNhbGlmb3JuaWExFjAUBgNVBAcMDVNh
biBGcmFuY2lzY28xIDAeBgNVBAoMF0NvcHlsZWZ0IENlcnRpZmljYXRlIENvMR8w
HQYDVQQLDBZNeSBPcmdhbml6YXRpb25hbCBVbml0MREwDwYDVQQDDAhDaGFuZ2VN
ZTEdMBsGCSqGSIb3DQEJARYObWVAZXhhbXBsZS5uZXQwHhcNMjMxMTExMTA1NTIx
WhcNMjQxMTEwMTA1NTIxWjCBujELMAkGA1UEBhMCVVMxCzAJBgNVBAgMAk9IMRMw
EQYDVQQHDApDaW5jaW5uYXRpMSEwHwYDVQQKDBhVbml2ZXJzaXR5IG9mIENpbmNp
bm5hdGkxKjAoBgNVBAsMIURlcHQuIEVsZWMuIENvbXAuIEVuZy4gQ29tcC4gU2Np
LjEQMA4GA1UEAwwHY2xpZW50MjEoMCYGCSqGSIb3DQEJARYZZnJhbmNvQGdhdXNz
LmVjZWNzLnVjLmVkdTCCASIwDQYJKoZIhvcNAQEBBQADggEPADCCAQoCggEBAKQf
Ewt1OkgEjwKdrYJCCYbknTr47//Jed7wuvempz9qKWE/O57mQ19VONksgI1JLApv
savBlJfkw1GfzNEq5ox6rFGpGFR8Su+4kksjYeqLHGXBIdrtrlXjrnzsPgG+UdNQ
GLlJ9QfaLXN36/l7LfZ7OmrUVbudNCnCYjlbVCvKQ708BMqks+VdTVHrT8LUYuL2
azAuh+ZECo5Bl4zAMGcrgrOuR1JFVm/Sa/66jrl479THMr56/cyheOoBO13Kc0oX
XjkYgrWf5FAHlBBDQXY78fYfZg8vC6Su+k1ex1fk0pQQH/l9625iuS17tbGjekti
7vCstsbMuQjKXHOOnl0CAwEAAaOCATcwggEzMAkGA1UdEwQCMAAwHQYDVR0OBBYE
FMHJyhBpdp/JXMt4Y2EpwPzvUUyOMIHkBgNVHSMEgdwwgdmAFEQBzAYLQXXLyPvJ
N4YtndLYebaLoYG1pIGyMIGvMQswCQYDVQQGEwJVUzETMBEGA1UECAwKQ2FsaWZv
cm5pYTEWMBQGA1UEBwwNU2FuIEZyYW5jaXNjbzEgMB4GA1UECgwXQ29weWxlZnQg
Q2VydGlmaWNhdGUgQ28xHzAdBgNVBAsMFk15IE9yZ2FuaXphdGlvbmFsIFVuaXQx
ETAPBgNVBAMMCENoYW5nZU1lMR0wGwYJKoZIhvcNAQkBFg5tZUBleGFtcGxlLm5l
dIIJAK/o4N3Fiw7dMBMGA1UdJQQMMAoGCCsGAQUFBwMCMAsGA1UdDwQEAwIHgDAN
BgkqhkiG9w0BAQsFAAOCAQEAqpLF5rTK4DRsL9Hry22ZBkbrJ+sMvY+kIxXPqkOp
RAIzEzWbnaUkEFbapWukdy1OImDDn2ljkbu4e31574Dc/sDEeuWwE7R0PqJ5dGSD
M9KT0CdQUGyURoNzcCXSXYHhc7viwxan0m+2mQR8H7W7BYCze35hCdkcHQOtI3sY
Dfhzmsf281JxmJHiAZf6AX3Uc7c/A2YluBnK/txoRZJjQTaPykcpgoAp0HHq639l
JHfESzoPsF9S0yYgKa134nw9jzoS07zZ0vMHXv6QZBUWloxc4Nzgvd6ZuhHDJ8XF
ppYQA/L+wjRIT3hgj6fSwfvSxnkNSXzq+DgzXjA0E3JAfg==
-----END CERTIFICATE-----
