Certificate:
    Data:
        Version: 3 (0x2)
        Serial Number:
            44:da:a0:1a:ab:0f:24:2e:ef:0e:ed:78:36:1a:77:46
    Signature Algorithm: sha256WithRSAEncryption
        Issuer: C=US, ST=California, L=San Francisco, O=Copyleft Certificate Co, OU=My Organizational Unit, CN=ChangeMe/emailAddress=me@example.net
        Validity
            Not Before: Nov 10 17:44:26 2023 GMT
            Not After : Nov  9 17:44:26 2024 GMT
        Subject: C=US, ST=OH, L=Cincinnati, O=University of Cincinnati, OU=Dept_Elec_Com_ Eng_Com_Sci., CN=client90/emailAddress=franco@gauss.ececs.uc.edu
        Subject Public Key Info:
            Public Key Algorithm: rsaEncryption
                Public-Key: (2048 bit)
                Modulus:
                    00:c5:57:1e:54:a4:9a:b6:97:b4:ff:10:65:fc:5f:
                    c4:64:31:1f:41:03:a9:9d:24:a8:47:48:3a:bc:b7:
                    b1:56:da:e2:a8:86:0f:c2:b4:87:c2:f7:55:d5:df:
                    2a:fc:24:88:97:5c:8e:dd:63:6e:a0:05:d9:87:31:
                    8f:60:54:86:70:9b:91:50:ce:42:69:54:fa:bf:16:
                    e9:a8:9d:35:67:b0:d8:5a:b0:c4:fc:0f:06:c4:46:
                    9b:7b:48:8e:bc:26:cb:3f:e2:74:17:f9:bf:02:fe:
                    65:e6:b9:4d:01:13:ad:2c:4a:64:70:9b:dd:c0:5f:
                    32:ec:c5:bd:45:b1:65:8b:0f:09:1a:a3:a5:72:1b:
                    64:6a:d8:fa:82:8d:39:8c:4d:8e:de:11:52:23:7d:
                    e5:14:c7:c7:0d:4d:d6:ac:d8:f4:ae:e9:6d:5e:d0:
                    18:43:39:ca:c1:51:11:27:01:97:71:f5:5d:8f:1e:
                    8e:a0:ba:71:31:8b:2a:67:3b:a8:a0:21:86:63:dc:
                    f5:d7:4b:82:3c:bc:37:b2:62:9d:95:33:03:f5:58:
                    b4:01:4a:6c:ce:ae:db:f2:ee:b2:cd:82:46:29:6d:
                    42:73:d1:fd:c7:cd:af:e1:9d:e6:61:2e:da:d4:26:
                    ca:31:ee:12:03:ec:30:26:fd:41:38:aa:0b:f4:bc:
                    55:91
                Exponent: 65537 (0x10001)
        X509v3 extensions:
            X509v3 Basic Constraints: 
                CA:FALSE
            X509v3 Subject Key Identifier: 
                4C:1B:66:BA:EB:2F:90:09:F8:B7:00:49:68:1F:65:D2:ED:D8:54:74
            X509v3 Authority Key Identifier: 
                keyid:C8:27:DA:64:30:08:40:08:4A:25:CC:DC:43:99:DE:77:A1:FE:77:BD
                DirName:/C=US/ST=California/L=San Francisco/O=Copyleft Certificate Co/OU=My Organizational Unit/CN=ChangeMe/emailAddress=me@example.net
                serial:A9:48:C3:7E:FC:1B:B0:A1

            X509v3 Extended Key Usage: 
                TLS Web Client Authentication
            X509v3 Key Usage: 
                Digital Signature
    Signature Algorithm: sha256WithRSAEncryption
         ab:cf:35:d4:92:0d:33:44:ad:03:37:84:8e:30:a1:23:f0:73:
         92:97:1d:35:ea:92:c7:16:e8:a8:dc:5f:3f:9d:50:c3:40:a6:
         8c:d9:95:41:44:32:78:a1:93:ee:40:b6:19:2c:4f:b5:d7:58:
         81:c3:e1:8c:c6:34:26:9c:9a:e7:22:d1:ae:b6:ba:97:03:dc:
         57:92:aa:ab:8e:39:6b:38:4c:c6:3c:7a:26:53:9e:f2:ed:93:
         8d:fd:b2:d8:3b:90:7a:dc:7c:6a:89:4a:ac:7c:f1:97:ce:e4:
         17:e0:2b:da:a1:e5:99:fe:16:d0:56:31:03:ab:65:c7:0a:fa:
         13:e4:32:77:b5:25:78:6f:0f:4e:3f:9a:de:48:15:94:b5:e1:
         f9:69:c3:2c:52:4e:77:2d:24:83:03:b7:10:10:66:9c:77:a4:
         5d:56:44:23:c7:d8:95:ea:ad:98:07:12:85:42:5f:4b:3b:ec:
         f5:9c:5a:d5:7b:98:6b:f3:69:f9:36:73:09:2c:28:0c:9d:4b:
         97:35:1e:16:67:42:26:b6:5d:2f:f8:1e:48:5f:24:78:f3:f9:
         c5:ea:b1:16:2c:1e:cd:cf:cc:a4:0b:8b:da:80:35:e2:34:79:
         4c:1c:9b:58:e5:a1:38:43:68:13:fc:62:0c:7a:5b:09:67:fc:
         1a:7a:69:2e
-----BEGIN CERTIFICATE-----
MIIFKTCCBBGgAwIBAgIQRNqgGqsPJC7vDu14Nhp3RjANBgkqhkiG9w0BAQsFADCB
rzELMAkGA1UEBhMCVVMxEzARBgNVBAgMCkNhbGlmb3JuaWExFjAUBgNVBAcMDVNh
biBGcmFuY2lzY28xIDAeBgNVBAoMF0NvcHlsZWZ0IENlcnRpZmljYXRlIENvMR8w
HQYDVQQLDBZNeSBPcmdhbml6YXRpb25hbCBVbml0MREwDwYDVQQDDAhDaGFuZ2VN
ZTEdMBsGCSqGSIb3DQEJARYObWVAZXhhbXBsZS5uZXQwHhcNMjMxMTEwMTc0NDI2
WhcNMjQxMTA5MTc0NDI2WjCBtTELMAkGA1UEBhMCVVMxCzAJBgNVBAgMAk9IMRMw
EQYDVQQHDApDaW5jaW5uYXRpMSEwHwYDVQQKDBhVbml2ZXJzaXR5IG9mIENpbmNp
bm5hdGkxJDAiBgNVBAsMG0RlcHRfRWxlY19Db21fIEVuZ19Db21fU2NpLjERMA8G
A1UEAwwIY2xpZW50OTAxKDAmBgkqhkiG9w0BCQEWGWZyYW5jb0BnYXVzcy5lY2Vj
cy51Yy5lZHUwggEiMA0GCSqGSIb3DQEBAQUAA4IBDwAwggEKAoIBAQDFVx5UpJq2
l7T/EGX8X8RkMR9BA6mdJKhHSDq8t7FW2uKohg/CtIfC91XV3yr8JIiXXI7dY26g
BdmHMY9gVIZwm5FQzkJpVPq/FumonTVnsNhasMT8DwbERpt7SI68Jss/4nQX+b8C
/mXmuU0BE60sSmRwm93AXzLsxb1FsWWLDwkao6VyG2Rq2PqCjTmMTY7eEVIjfeUU
x8cNTdas2PSu6W1e0BhDOcrBUREnAZdx9V2PHo6gunExiypnO6igIYZj3PXXS4I8
vDeyYp2VMwP1WLQBSmzOrtvy7rLNgkYpbUJz0f3Hza/hneZhLtrUJsox7hID7DAm
/UE4qgv0vFWRAgMBAAGjggE3MIIBMzAJBgNVHRMEAjAAMB0GA1UdDgQWBBRMG2a6
6y+QCfi3AEloH2XS7dhUdDCB5AYDVR0jBIHcMIHZgBTIJ9pkMAhACEolzNxDmd53
of53vaGBtaSBsjCBrzELMAkGA1UEBhMCVVMxEzARBgNVBAgMCkNhbGlmb3JuaWEx
FjAUBgNVBAcMDVNhbiBGcmFuY2lzY28xIDAeBgNVBAoMF0NvcHlsZWZ0IENlcnRp
ZmljYXRlIENvMR8wHQYDVQQLDBZNeSBPcmdhbml6YXRpb25hbCBVbml0MREwDwYD
VQQDDAhDaGFuZ2VNZTEdMBsGCSqGSIb3DQEJARYObWVAZXhhbXBsZS5uZXSCCQCp
SMN+/BuwoTATBgNVHSUEDDAKBggrBgEFBQcDAjALBgNVHQ8EBAMCB4AwDQYJKoZI
hvcNAQELBQADggEBAKvPNdSSDTNErQM3hI4woSPwc5KXHTXqkscW6KjcXz+dUMNA
pozZlUFEMnihk+5AthksT7XXWIHD4YzGNCacmuci0a62upcD3FeSqquOOWs4TMY8
eiZTnvLtk439stg7kHrcfGqJSqx88ZfO5BfgK9qh5Zn+FtBWMQOrZccK+hPkMne1
JXhvD04/mt5IFZS14flpwyxSTnctJIMDtxAQZpx3pF1WRCPH2JXqrZgHEoVCX0s7
7PWcWtV7mGvzafk2cwksKAydS5c1HhZnQia2XS/4HkhfJHjz+cXqsRYsHs3PzKQL
i9qANeI0eUwcm1jloThDaBP8Ygx6Wwln/Bp6aS4=
-----END CERTIFICATE-----
