Certificate:
    Data:
        Version: 3 (0x2)
        Serial Number:
            85:cb:88:db:da:e5:3d:94:e5:0c:50:a7:56:64:c7:ad
    Signature Algorithm: sha256WithRSAEncryption
        Issuer: C=US, ST=California, L=San Francisco, O=Copyleft Certificate Co, OU=My Organizational Unit, CN=ChangeMe/emailAddress=me@example.net
        Validity
            Not Before: Nov 11 01:48:14 2023 GMT
            Not After : Nov 10 01:48:14 2024 GMT
        Subject: C=US, ST=OH, L=Cincinnati, O=University of Cincinnati, OU=Dept. Elec. Comp. Eng. Comp. Sci., CN=client128/emailAddress=franco@gauss.ececs.uc.edu
        Subject Public Key Info:
            Public Key Algorithm: rsaEncryption
                Public-Key: (2048 bit)
                Modulus:
                    00:d7:da:58:77:d8:bb:f0:c0:d7:18:d9:62:53:d1:
                    02:b6:7c:5b:25:ff:63:da:04:c6:f3:71:84:3f:2a:
                    f9:87:b8:85:49:19:e9:ca:1a:b4:70:a6:00:ff:fd:
                    e8:8a:f7:21:39:b8:04:9b:a9:6f:2b:ea:27:24:e5:
                    20:13:aa:34:af:45:5b:b6:0a:30:89:5b:14:87:5a:
                    3a:55:5c:cf:98:e0:9d:17:7b:bd:8c:08:d4:5f:ab:
                    6c:cb:32:13:70:b6:8d:4b:62:b9:d9:88:18:52:a6:
                    6d:55:d0:00:25:3f:07:f1:35:47:f9:7b:f7:eb:0e:
                    86:3a:ce:6f:47:9e:02:f2:5f:5c:f0:1f:d4:1a:e3:
                    f5:7c:c6:d4:02:56:8f:e7:cb:9c:3b:dc:a4:2b:c6:
                    af:28:6d:77:69:78:1f:8c:65:57:7d:c3:1a:2f:85:
                    f5:0f:11:58:51:cc:8f:17:85:16:4e:be:8d:a6:9e:
                    0b:52:b2:2f:5e:0b:a1:e4:28:80:ae:79:c6:86:35:
                    76:5d:7b:25:7c:2a:47:70:9e:60:63:ba:b5:74:eb:
                    de:41:cf:f1:ae:42:00:ad:51:9e:a0:ed:e6:ab:84:
                    d0:34:8a:62:c6:50:29:67:75:28:12:26:07:2a:c4:
                    51:d2:a8:48:76:f8:01:c4:57:3f:b4:26:bc:ec:41:
                    93:55
                Exponent: 65537 (0x10001)
        X509v3 extensions:
            X509v3 Basic Constraints: 
                CA:FALSE
            X509v3 Subject Key Identifier: 
                0F:30:2C:3A:FE:21:7A:CE:05:48:CB:93:E9:A5:99:28:CC:F3:69:49
            X509v3 Authority Key Identifier: 
                keyid:73:DE:A0:43:0F:AE:B1:9E:E8:59:69:18:50:A1:1A:1F:D4:A1:E3:F0
                DirName:/C=US/ST=California/L=San Francisco/O=Copyleft Certificate Co/OU=My Organizational Unit/CN=ChangeMe/emailAddress=me@example.net
                serial:E9:BB:CB:16:C5:32:BE:3B

            X509v3 Extended Key Usage: 
                TLS Web Client Authentication
            X509v3 Key Usage: 
                Digital Signature
    Signature Algorithm: sha256WithRSAEncryption
         74:cb:b2:3c:32:da:5a:28:44:90:5d:d5:7f:23:cb:c4:a8:a8:
         ab:71:f1:6f:e7:56:7c:e2:be:66:5f:0c:fa:a6:b4:1b:26:8a:
         97:73:d2:4b:4a:1a:94:7a:8f:eb:83:01:5b:94:cf:75:38:57:
         c3:27:e6:00:f8:61:1b:67:ad:5a:a2:44:87:d5:34:2d:57:36:
         43:12:eb:7d:eb:96:df:f5:2c:79:32:0b:90:7d:8f:a7:37:b7:
         57:3c:1f:e6:17:dc:ba:53:ef:72:6a:9e:aa:32:b1:60:ac:4e:
         ef:54:f8:18:70:17:6f:67:19:53:a7:ec:e9:4a:d6:b7:f3:fa:
         0e:b6:2b:2c:3b:11:ca:6c:b8:02:8f:81:04:d7:58:16:9c:d2:
         d5:b3:c8:45:2f:29:07:5d:27:20:73:37:96:3a:66:89:63:4f:
         83:54:c9:1f:bb:4b:a8:0f:83:8a:7a:69:e7:84:3c:e2:2c:cc:
         60:de:7a:9c:c5:4d:70:f4:7d:ca:88:47:74:31:1a:aa:ef:e3:
         c4:1f:68:9e:14:a7:44:b8:20:1b:5f:1c:b1:fd:47:c0:c1:6e:
         96:a1:89:92:4c:64:d0:27:b7:03:98:3f:ed:f9:9f:d7:99:c8:
         e7:1a:2d:59:ad:20:48:78:fb:ad:9e:85:d4:80:f8:06:86:3a:
         c5:5a:c0:fc
-----BEGIN CERTIFICATE-----
MIIFMTCCBBmgAwIBAgIRAIXLiNva5T2U5QxQp1Zkx60wDQYJKoZIhvcNAQELBQAw
ga8xCzAJBgNVBAYTAlVTMRMwEQYDVQQIDApDYWxpZm9ybmlhMRYwFAYDVQQHDA1T
YW4gRnJhbmNpc2NvMSAwHgYDVQQKDBdDb3B5bGVmdCBDZXJ0aWZpY2F0ZSBDbzEf
MB0GA1UECwwWTXkgT3JnYW5pemF0aW9uYWwgVW5pdDERMA8GA1UEAwwIQ2hhbmdl
TWUxHTAbBgkqhkiG9w0BCQEWDm1lQGV4YW1wbGUubmV0MB4XDTIzMTExMTAxNDgx
NFoXDTI0MTExMDAxNDgxNFowgbwxCzAJBgNVBAYTAlVTMQswCQYDVQQIDAJPSDET
MBEGA1UEBwwKQ2luY2lubmF0aTEhMB8GA1UECgwYVW5pdmVyc2l0eSBvZiBDaW5j
aW5uYXRpMSowKAYDVQQLDCFEZXB0LiBFbGVjLiBDb21wLiBFbmcuIENvbXAuIFNj
aS4xEjAQBgNVBAMMCWNsaWVudDEyODEoMCYGCSqGSIb3DQEJARYZZnJhbmNvQGdh
dXNzLmVjZWNzLnVjLmVkdTCCASIwDQYJKoZIhvcNAQEBBQADggEPADCCAQoCggEB
ANfaWHfYu/DA1xjZYlPRArZ8WyX/Y9oExvNxhD8q+Ye4hUkZ6coatHCmAP/96Ir3
ITm4BJupbyvqJyTlIBOqNK9FW7YKMIlbFIdaOlVcz5jgnRd7vYwI1F+rbMsyE3C2
jUtiudmIGFKmbVXQACU/B/E1R/l79+sOhjrOb0eeAvJfXPAf1Brj9XzG1AJWj+fL
nDvcpCvGryhtd2l4H4xlV33DGi+F9Q8RWFHMjxeFFk6+jaaeC1KyL14LoeQogK55
xoY1dl17JXwqR3CeYGO6tXTr3kHP8a5CAK1RnqDt5quE0DSKYsZQKWd1KBImByrE
UdKoSHb4AcRXP7QmvOxBk1UCAwEAAaOCATcwggEzMAkGA1UdEwQCMAAwHQYDVR0O
BBYEFA8wLDr+IXrOBUjLk+mlmSjM82lJMIHkBgNVHSMEgdwwgdmAFHPeoEMPrrGe
6FlpGFChGh/UoePwoYG1pIGyMIGvMQswCQYDVQQGEwJVUzETMBEGA1UECAwKQ2Fs
aWZvcm5pYTEWMBQGA1UEBwwNU2FuIEZyYW5jaXNjbzEgMB4GA1UECgwXQ29weWxl
ZnQgQ2VydGlmaWNhdGUgQ28xHzAdBgNVBAsMFk15IE9yZ2FuaXphdGlvbmFsIFVu
aXQxETAPBgNVBAMMCENoYW5nZU1lMR0wGwYJKoZIhvcNAQkBFg5tZUBleGFtcGxl
Lm5ldIIJAOm7yxbFMr47MBMGA1UdJQQMMAoGCCsGAQUFBwMCMAsGA1UdDwQEAwIH
gDANBgkqhkiG9w0BAQsFAAOCAQEAdMuyPDLaWihEkF3VfyPLxKioq3Hxb+dWfOK+
Zl8M+qa0GyaKl3PSS0oalHqP64MBW5TPdThXwyfmAPhhG2etWqJEh9U0LVc2QxLr
feuW3/UseTILkH2Ppze3Vzwf5hfculPvcmqeqjKxYKxO71T4GHAXb2cZU6fs6UrW
t/P6DrYrLDsRymy4Ao+BBNdYFpzS1bPIRS8pB10nIHM3ljpmiWNPg1TJH7tLqA+D
inpp54Q84izMYN56nMVNcPR9yohHdDEaqu/jxB9onhSnRLggG18csf1HwMFulqGJ
kkxk0Ce3A5g/7fmf15nI5xotWa0gSHj7rZ6F1ID4BoY6xVrA/A==
-----END CERTIFICATE-----
