Certificate:
    Data:
        Version: 3 (0x2)
        Serial Number:
            37:ea:28:c6:35:34:de:c9:c8:67:65:2f:24:ed:43:64
    Signature Algorithm: sha256WithRSAEncryption
        Issuer: C=US, ST=California, L=San Francisco, O=Copyleft Certificate Co, OU=My Organizational Unit, CN=ChangeMe/emailAddress=me@example.net
        Validity
            Not Before: Nov 13 11:48:14 2023 GMT
            Not After : Nov 12 11:48:14 2024 GMT
        Subject: C=US, ST=OH, L=Cincinnati, O=University of Cincinnati, OU=Dept. Elec. Comp. Eng. Comp. Sci., CN=client27/emailAddress=franco@gauss.ececs.uc.edu
        Subject Public Key Info:
            Public Key Algorithm: rsaEncryption
                Public-Key: (2048 bit)
                Modulus:
                    00:a4:b7:3f:fa:2a:aa:e5:41:cc:26:47:0d:5b:fb:
                    e4:62:90:88:95:30:8c:d1:f5:36:2e:d4:89:3e:d2:
                    c5:78:d6:73:76:67:b8:5d:29:8e:02:4b:22:bf:d6:
                    1e:05:bb:c0:12:c3:6c:bf:bb:b6:ca:3d:5b:ec:79:
                    69:d4:63:4e:bb:a3:14:9a:86:12:68:2f:95:80:98:
                    8a:ca:82:34:20:3e:d1:e8:bd:01:de:e2:77:a4:db:
                    2e:33:a6:66:8b:8d:97:2e:08:4b:89:d2:32:52:75:
                    38:44:8a:a1:95:91:0a:45:cb:a6:c4:e5:5c:03:92:
                    4f:b8:32:5e:89:78:35:f1:42:34:70:c6:9d:eb:46:
                    08:4e:30:8f:cf:9c:dd:fd:4f:03:2d:29:d1:22:33:
                    31:13:1a:82:a8:72:35:a5:0c:81:b1:09:8d:09:a5:
                    a8:dc:22:d3:ec:57:2e:cf:2b:7e:3d:cf:82:1a:ea:
                    ac:82:03:14:f7:29:0b:e5:73:12:f4:af:4c:cf:66:
                    71:e5:2c:6e:ea:58:1b:ec:5e:1f:25:20:51:4a:40:
                    5d:45:d3:7f:af:94:58:f2:2b:da:1b:5f:a7:92:06:
                    1c:ed:ab:bb:6d:7e:61:79:6d:e0:ca:2d:be:cb:71:
                    7b:2a:1a:33:9e:5b:ee:dc:b0:93:3b:21:d2:01:c5:
                    70:a5
                Exponent: 65537 (0x10001)
        X509v3 extensions:
            X509v3 Basic Constraints: 
                CA:FALSE
            X509v3 Subject Key Identifier: 
                F9:B9:51:3D:A6:D9:03:49:DD:5B:23:2F:E4:99:1E:35:3D:05:DF:7E
            X509v3 Authority Key Identifier: 
                keyid:B4:AE:AB:ED:FC:ED:84:AA:AD:77:5D:7C:84:28:1C:CA:CE:AE:2A:44
                DirName:/C=US/ST=California/L=San Francisco/O=Copyleft Certificate Co/OU=My Organizational Unit/CN=ChangeMe/emailAddress=me@example.net
                serial:BD:6C:3B:F4:D3:07:C9:D1

            X509v3 Extended Key Usage: 
                TLS Web Client Authentication
            X509v3 Key Usage: 
                Digital Signature
    Signature Algorithm: sha256WithRSAEncryption
         ab:0d:3f:51:c1:34:b8:f6:44:20:26:4c:63:e4:1c:d5:63:82:
         e5:10:cf:2c:17:4e:a6:77:97:24:15:50:13:7b:91:36:1e:3c:
         97:d1:10:d9:c9:3e:6f:03:22:f7:7e:8b:3e:7e:29:75:0b:ce:
         db:ce:04:1f:33:e4:b5:d1:79:fd:5e:8c:95:8b:8c:60:09:fe:
         59:e5:b7:58:92:1e:ba:25:a4:4b:85:b9:19:28:78:9d:9a:f8:
         44:af:95:ea:c4:35:ee:6b:f3:b3:f9:50:4c:ee:ea:8c:e5:eb:
         9e:21:b4:4b:22:24:1d:85:76:b2:b2:46:0f:0a:3c:6f:ec:1f:
         3f:bf:0b:95:58:33:b9:8c:08:67:dc:62:d2:da:d8:e8:05:6b:
         ed:b2:00:38:ad:14:9c:78:2a:03:c9:57:22:83:63:81:b6:42:
         75:b1:99:54:40:70:52:49:e0:99:dd:73:eb:d1:75:76:fe:89:
         ee:02:5f:d6:2a:98:15:5a:92:2c:3a:b0:19:6e:a0:45:e7:ba:
         42:db:a8:d4:ad:a4:eb:c7:d9:eb:a8:be:5d:8f:02:de:50:e0:
         f8:05:77:93:4a:8e:c7:2f:98:13:bc:e0:d0:3a:d6:8a:2f:1d:
         c5:cb:5d:89:24:20:19:ca:ec:62:a6:1a:79:5b:3d:80:fc:0b:
         f3:23:29:04
-----BEGIN CERTIFICATE-----
MIIFLzCCBBegAwIBAgIQN+ooxjU03snIZ2UvJO1DZDANBgkqhkiG9w0BAQsFADCB
rzELMAkGA1UEBhMCVVMxEzARBgNVBAgMCkNhbGlmb3JuaWExFjAUBgNVBAcMDVNh
biBGcmFuY2lzY28xIDAeBgNVBAoMF0NvcHlsZWZ0IENlcnRpZmljYXRlIENvMR8w
HQYDVQQLDBZNeSBPcmdhbml6YXRpb25hbCBVbml0MREwDwYDVQQDDAhDaGFuZ2VN
ZTEdMBsGCSqGSIb3DQEJARYObWVAZXhhbXBsZS5uZXQwHhcNMjMxMTEzMTE0ODE0
WhcNMjQxMTEyMTE0ODE0WjCBuzELMAkGA1UEBhMCVVMxCzAJBgNVBAgMAk9IMRMw
EQYDVQQHDApDaW5jaW5uYXRpMSEwHwYDVQQKDBhVbml2ZXJzaXR5IG9mIENpbmNp
bm5hdGkxKjAoBgNVBAsMIURlcHQuIEVsZWMuIENvbXAuIEVuZy4gQ29tcC4gU2Np
LjERMA8GA1UEAwwIY2xpZW50MjcxKDAmBgkqhkiG9w0BCQEWGWZyYW5jb0BnYXVz
cy5lY2Vjcy51Yy5lZHUwggEiMA0GCSqGSIb3DQEBAQUAA4IBDwAwggEKAoIBAQCk
tz/6KqrlQcwmRw1b++RikIiVMIzR9TYu1Ik+0sV41nN2Z7hdKY4CSyK/1h4Fu8AS
w2y/u7bKPVvseWnUY067oxSahhJoL5WAmIrKgjQgPtHovQHe4nek2y4zpmaLjZcu
CEuJ0jJSdThEiqGVkQpFy6bE5VwDkk+4Ml6JeDXxQjRwxp3rRghOMI/PnN39TwMt
KdEiMzETGoKocjWlDIGxCY0JpajcItPsVy7PK349z4Ia6qyCAxT3KQvlcxL0r0zP
ZnHlLG7qWBvsXh8lIFFKQF1F03+vlFjyK9obX6eSBhztq7ttfmF5beDKLb7LcXsq
GjOeW+7csJM7IdIBxXClAgMBAAGjggE3MIIBMzAJBgNVHRMEAjAAMB0GA1UdDgQW
BBT5uVE9ptkDSd1bIy/kmR41PQXffjCB5AYDVR0jBIHcMIHZgBS0rqvt/O2Eqq13
XXyEKBzKzq4qRKGBtaSBsjCBrzELMAkGA1UEBhMCVVMxEzARBgNVBAgMCkNhbGlm
b3JuaWExFjAUBgNVBAcMDVNhbiBGcmFuY2lzY28xIDAeBgNVBAoMF0NvcHlsZWZ0
IENlcnRpZmljYXRlIENvMR8wHQYDVQQLDBZNeSBPcmdhbml6YXRpb25hbCBVbml0
MREwDwYDVQQDDAhDaGFuZ2VNZTEdMBsGCSqGSIb3DQEJARYObWVAZXhhbXBsZS5u
ZXSCCQC9bDv00wfJ0TATBgNVHSUEDDAKBggrBgEFBQcDAjALBgNVHQ8EBAMCB4Aw
DQYJKoZIhvcNAQELBQADggEBAKsNP1HBNLj2RCAmTGPkHNVjguUQzywXTqZ3lyQV
UBN7kTYePJfRENnJPm8DIvd+iz5+KXULztvOBB8z5LXRef1ejJWLjGAJ/lnlt1iS
HrolpEuFuRkoeJ2a+ESvlerENe5r87P5UEzu6ozl654htEsiJB2FdrKyRg8KPG/s
Hz+/C5VYM7mMCGfcYtLa2OgFa+2yADitFJx4KgPJVyKDY4G2QnWxmVRAcFJJ4Jnd
c+vRdXb+ie4CX9YqmBVakiw6sBluoEXnukLbqNStpOvH2euovl2PAt5Q4PgFd5NK
jscvmBO84NA61oovHcXLXYkkIBnK7GKmGnlbPYD8C/MjKQQ=
-----END CERTIFICATE-----
