Certificate:
    Data:
        Version: 3 (0x2)
        Serial Number:
            a3:11:12:2d:3b:1c:92:de:4b:2a:a5:58:df:b4:14:9b
    Signature Algorithm: sha256WithRSAEncryption
        Issuer: C=US, ST=California, L=San Francisco, O=Copyleft Certificate Co, OU=My Organizational Unit, CN=ChangeMe/emailAddress=me@example.net
        Validity
            Not Before: Nov 11 10:56:56 2023 GMT
            Not After : Nov 10 10:56:56 2024 GMT
        Subject: C=US, ST=OH, L=Cincinnati, O=University of Cincinnati, OU=Dept. Elec. Comp. Eng. Comp. Sci., CN=client25/emailAddress=franco@gauss.ececs.uc.edu
        Subject Public Key Info:
            Public Key Algorithm: rsaEncryption
                Public-Key: (2048 bit)
                Modulus:
                    00:ce:e2:e6:45:e1:05:7b:fd:7a:cb:f7:e6:1c:c1:
                    96:8d:cb:ac:0d:b8:42:e8:36:d5:33:e9:18:2c:ea:
                    3a:b5:27:90:55:06:d2:94:3e:58:f3:4d:07:d7:2c:
                    7d:b6:8d:25:a7:4e:a5:86:be:5c:34:0b:c0:89:b3:
                    1b:73:6c:49:b0:81:df:67:61:30:fe:a9:11:53:df:
                    72:58:f8:03:b7:e6:76:95:04:7e:d2:82:10:20:40:
                    4e:3a:45:4c:81:56:f2:98:2d:1d:d7:93:94:43:64:
                    ac:b0:ff:35:bb:82:c9:de:c8:b5:1d:f5:b9:28:74:
                    d8:89:60:4a:76:15:16:55:0f:a1:e1:1c:7d:fc:7d:
                    6e:26:e4:eb:f7:2c:0e:b5:ed:b1:e5:c4:1e:19:9f:
                    2f:9b:6a:1b:67:6a:43:b6:a5:1f:19:08:22:ff:4e:
                    d6:27:d6:a7:3d:63:21:c0:99:cd:c3:7b:33:51:e6:
                    59:73:16:4c:56:88:f0:0b:12:ea:3d:67:0b:2e:3f:
                    f3:e1:e5:4b:44:96:42:f6:28:0e:6f:d6:0e:1e:86:
                    42:40:76:81:ac:9b:6b:fe:a9:95:60:8f:a1:4c:12:
                    fb:a2:81:cb:02:76:d5:46:30:3f:7a:ed:fc:97:ef:
                    94:b6:be:31:6d:a4:af:4a:6d:5f:a1:d0:12:ee:eb:
                    47:fb
                Exponent: 65537 (0x10001)
        X509v3 extensions:
            X509v3 Basic Constraints: 
                CA:FALSE
            X509v3 Subject Key Identifier: 
                D0:20:ED:B5:5C:CA:A1:A1:EB:19:01:BF:F4:53:C4:95:81:B6:AD:73
            X509v3 Authority Key Identifier: 
                keyid:44:01:CC:06:0B:41:75:CB:C8:FB:C9:37:86:2D:9D:D2:D8:79:B6:8B
                DirName:/C=US/ST=California/L=San Francisco/O=Copyleft Certificate Co/OU=My Organizational Unit/CN=ChangeMe/emailAddress=me@example.net
                serial:AF:E8:E0:DD:C5:8B:0E:DD

            X509v3 Extended Key Usage: 
                TLS Web Client Authentication
            X509v3 Key Usage: 
                Digital Signature
    Signature Algorithm: sha256WithRSAEncryption
         32:95:b2:f1:33:7d:4e:c0:3f:61:b5:d7:37:fc:18:19:45:e0:
         fc:c9:18:02:cb:e1:f2:2e:55:ee:d5:44:9b:4c:5a:c2:c5:3c:
         d8:df:53:c7:b6:80:2a:f9:64:cf:f9:1b:a9:a1:67:57:bf:25:
         57:64:80:80:6d:05:bf:c2:a9:70:13:91:39:3a:25:26:7e:76:
         be:09:7f:96:21:bc:cf:29:0a:69:18:07:43:28:47:52:35:6a:
         00:c8:01:b0:77:c4:03:ef:47:6a:24:1c:0d:59:a2:12:e8:90:
         a8:b1:ca:a5:09:94:f8:26:4b:0e:17:7d:b1:f4:c7:ae:e5:a8:
         c3:3f:eb:37:a2:ee:68:fc:7d:49:f8:0a:51:dd:f0:48:08:9a:
         39:e0:f9:96:f4:9d:d5:89:31:4c:70:d0:e0:90:c2:c3:89:ef:
         47:ba:fb:08:84:da:2d:b3:a7:ad:d9:a6:14:8c:81:82:9f:f4:
         d2:93:64:38:5f:e8:32:4c:fd:6c:61:3f:80:0f:99:da:3e:32:
         b3:12:71:54:3c:02:e9:60:1d:2f:1d:59:70:bb:b7:2c:18:fe:
         8b:42:c3:3e:1d:6d:59:14:da:ca:87:bf:40:07:d2:3a:6b:06:
         db:a4:23:13:f7:1c:17:a0:c8:f8:b3:02:92:cd:b7:c3:b2:47:
         bc:46:52:94
-----BEGIN CERTIFICATE-----
MIIFMDCCBBigAwIBAgIRAKMREi07HJLeSyqlWN+0FJswDQYJKoZIhvcNAQELBQAw
ga8xCzAJBgNVBAYTAlVTMRMwEQYDVQQIDApDYWxpZm9ybmlhMRYwFAYDVQQHDA1T
YW4gRnJhbmNpc2NvMSAwHgYDVQQKDBdDb3B5bGVmdCBDZXJ0aWZpY2F0ZSBDbzEf
MB0GA1UECwwWTXkgT3JnYW5pemF0aW9uYWwgVW5pdDERMA8GA1UEAwwIQ2hhbmdl
TWUxHTAbBgkqhkiG9w0BCQEWDm1lQGV4YW1wbGUubmV0MB4XDTIzMTExMTEwNTY1
NloXDTI0MTExMDEwNTY1NlowgbsxCzAJBgNVBAYTAlVTMQswCQYDVQQIDAJPSDET
MBEGA1UEBwwKQ2luY2lubmF0aTEhMB8GA1UECgwYVW5pdmVyc2l0eSBvZiBDaW5j
aW5uYXRpMSowKAYDVQQLDCFEZXB0LiBFbGVjLiBDb21wLiBFbmcuIENvbXAuIFNj
aS4xETAPBgNVBAMMCGNsaWVudDI1MSgwJgYJKoZIhvcNAQkBFhlmcmFuY29AZ2F1
c3MuZWNlY3MudWMuZWR1MIIBIjANBgkqhkiG9w0BAQEFAAOCAQ8AMIIBCgKCAQEA
zuLmReEFe/16y/fmHMGWjcusDbhC6DbVM+kYLOo6tSeQVQbSlD5Y800H1yx9to0l
p06lhr5cNAvAibMbc2xJsIHfZ2Ew/qkRU99yWPgDt+Z2lQR+0oIQIEBOOkVMgVby
mC0d15OUQ2SssP81u4LJ3si1HfW5KHTYiWBKdhUWVQ+h4Rx9/H1uJuTr9ywOte2x
5cQeGZ8vm2obZ2pDtqUfGQgi/07WJ9anPWMhwJnNw3szUeZZcxZMVojwCxLqPWcL
Lj/z4eVLRJZC9igOb9YOHoZCQHaBrJtr/qmVYI+hTBL7ooHLAnbVRjA/eu38l++U
tr4xbaSvSm1fodAS7utH+wIDAQABo4IBNzCCATMwCQYDVR0TBAIwADAdBgNVHQ4E
FgQU0CDttVzKoaHrGQG/9FPElYG2rXMwgeQGA1UdIwSB3DCB2YAURAHMBgtBdcvI
+8k3hi2d0th5touhgbWkgbIwga8xCzAJBgNVBAYTAlVTMRMwEQYDVQQIDApDYWxp
Zm9ybmlhMRYwFAYDVQQHDA1TYW4gRnJhbmNpc2NvMSAwHgYDVQQKDBdDb3B5bGVm
dCBDZXJ0aWZpY2F0ZSBDbzEfMB0GA1UECwwWTXkgT3JnYW5pemF0aW9uYWwgVW5p
dDERMA8GA1UEAwwIQ2hhbmdlTWUxHTAbBgkqhkiG9w0BCQEWDm1lQGV4YW1wbGUu
bmV0ggkAr+jg3cWLDt0wEwYDVR0lBAwwCgYIKwYBBQUHAwIwCwYDVR0PBAQDAgeA
MA0GCSqGSIb3DQEBCwUAA4IBAQAylbLxM31OwD9htdc3/BgZReD8yRgCy+HyLlXu
1USbTFrCxTzY31PHtoAq+WTP+RupoWdXvyVXZICAbQW/wqlwE5E5OiUmfna+CX+W
IbzPKQppGAdDKEdSNWoAyAGwd8QD70dqJBwNWaIS6JCoscqlCZT4JksOF32x9Meu
5ajDP+s3ou5o/H1J+ApR3fBICJo54PmW9J3ViTFMcNDgkMLDie9HuvsIhNots6et
2aYUjIGCn/TSk2Q4X+gyTP1sYT+AD5naPjKzEnFUPALpYB0vHVlwu7csGP6LQsM+
HW1ZFNrKh79AB9I6awbbpCMT9xwXoMj4swKSzbfDske8RlKU
-----END CERTIFICATE-----
