Certificate:
    Data:
        Version: 3 (0x2)
        Serial Number:
            55:95:e5:9d:c6:6a:cd:c2:28:e3:fa:b6:59:a1:f0:93
    Signature Algorithm: sha256WithRSAEncryption
        Issuer: C=US, ST=California, L=San Francisco, O=Copyleft Certificate Co, OU=My Organizational Unit, CN=ChangeMe/emailAddress=me@example.net
        Validity
            Not Before: Nov 11 10:55:48 2023 GMT
            Not After : Nov 10 10:55:48 2024 GMT
        Subject: C=US, ST=OH, L=Cincinnati, O=University of Cincinnati, OU=Dept. Elec. Comp. Eng. Comp. Sci., CN=client8/emailAddress=franco@gauss.ececs.uc.edu
        Subject Public Key Info:
            Public Key Algorithm: rsaEncryption
                Public-Key: (2048 bit)
                Modulus:
                    00:e1:41:0b:03:4a:28:b8:fd:02:0c:57:4c:3b:a4:
                    f0:50:48:e7:47:58:5c:3b:48:2d:cc:83:8e:f1:76:
                    fd:2c:fc:27:01:c7:26:46:58:cf:16:f7:95:6d:46:
                    2f:d8:ee:2b:d0:3e:bb:f4:86:6a:2b:0f:66:54:a3:
                    89:cc:9e:55:9a:77:3d:e8:73:fe:51:62:54:03:ec:
                    df:c9:01:c4:8a:78:ea:09:2c:a0:ca:cd:22:74:37:
                    9a:66:cb:22:8d:21:87:1f:e7:6c:3e:46:b0:1e:0e:
                    bb:e9:32:39:a6:dc:ba:9e:7e:fe:ca:a6:c3:1f:b5:
                    35:60:eb:89:c9:0a:1c:80:7f:4e:23:d8:c0:b5:ca:
                    82:c5:93:45:c7:c4:83:d6:80:81:d6:c5:e0:97:8c:
                    5e:ed:95:89:99:f0:39:47:d5:93:78:29:43:39:f8:
                    68:08:39:4b:9c:e8:ef:7f:02:18:11:82:4a:4a:e6:
                    91:a9:93:64:d6:e6:b0:60:4e:94:cc:30:d0:ae:0f:
                    3d:39:0c:90:d1:95:e3:ce:84:51:87:cc:a9:ea:61:
                    5f:b6:a8:76:b4:f8:df:78:88:22:d0:d1:29:78:3c:
                    f0:8c:8f:04:83:68:5f:5c:e7:87:b7:85:00:0b:ca:
                    ec:86:11:ed:e6:62:c2:50:17:2c:1f:16:f5:f8:2a:
                    6d:b7
                Exponent: 65537 (0x10001)
        X509v3 extensions:
            X509v3 Basic Constraints: 
                CA:FALSE
            X509v3 Subject Key Identifier: 
                E9:F0:BC:E0:D1:CB:6F:1B:D4:26:10:28:F2:ED:C9:B5:7A:58:2E:37
            X509v3 Authority Key Identifier: 
                keyid:44:01:CC:06:0B:41:75:CB:C8:FB:C9:37:86:2D:9D:D2:D8:79:B6:8B
                DirName:/C=US/ST=California/L=San Francisco/O=Copyleft Certificate Co/OU=My Organizational Unit/CN=ChangeMe/emailAddress=me@example.net
                serial:AF:E8:E0:DD:C5:8B:0E:DD

            X509v3 Extended Key Usage: 
                TLS Web Client Authentication
            X509v3 Key Usage: 
                Digital Signature
    Signature Algorithm: sha256WithRSAEncryption
         75:b1:3a:39:31:c2:0c:01:79:12:3f:e6:3e:80:21:f7:6b:e4:
         1f:4d:d0:84:a6:01:3f:e6:6b:05:2d:53:56:e2:6e:34:e3:9d:
         d0:38:18:c3:4e:4e:99:e1:02:88:e8:da:96:47:42:87:f9:46:
         84:9f:74:71:bd:ff:c1:bf:a2:9a:e3:7c:9d:0d:a9:84:07:3c:
         f7:a4:81:95:73:c7:fb:21:20:fc:df:4c:87:29:4e:63:dd:19:
         37:43:aa:08:c0:ff:b2:da:1f:ba:0e:e7:e3:34:79:fb:e1:78:
         98:5f:5f:8f:46:77:2a:e4:be:0f:eb:28:1d:f1:13:d0:df:e6:
         fb:53:19:97:17:98:e2:47:2c:22:ef:3a:2a:c5:05:27:e2:4d:
         54:8c:0c:80:70:84:a9:48:26:ab:1e:7c:d4:19:58:75:a4:02:
         f1:36:0c:fa:28:8f:d8:4c:b2:24:2c:04:ee:b8:1f:6c:04:38:
         44:22:fd:08:2f:f8:78:dd:e9:57:81:a3:36:0f:94:47:42:7c:
         26:06:99:bd:54:98:6f:c6:fe:3d:28:80:84:4e:55:69:d5:19:
         5c:9a:57:7e:6f:5e:c9:98:36:40:17:67:11:c8:b0:ad:77:46:
         f8:c9:33:8c:8f:f6:45:8a:98:40:a4:71:da:05:15:17:12:05:
         f1:46:86:22
-----BEGIN CERTIFICATE-----
MIIFLjCCBBagAwIBAgIQVZXlncZqzcIo4/q2WaHwkzANBgkqhkiG9w0BAQsFADCB
rzELMAkGA1UEBhMCVVMxEzARBgNVBAgMCkNhbGlmb3JuaWExFjAUBgNVBAcMDVNh
biBGcmFuY2lzY28xIDAeBgNVBAoMF0NvcHlsZWZ0IENlcnRpZmljYXRlIENvMR8w
HQYDVQQLDBZNeSBPcmdhbml6YXRpb25hbCBVbml0MREwDwYDVQQDDAhDaGFuZ2VN
ZTEdMBsGCSqGSIb3DQEJARYObWVAZXhhbXBsZS5uZXQwHhcNMjMxMTExMTA1NTQ4
WhcNMjQxMTEwMTA1NTQ4WjCBujELMAkGA1UEBhMCVVMxCzAJBgNVBAgMAk9IMRMw
EQYDVQQHDApDaW5jaW5uYXRpMSEwHwYDVQQKDBhVbml2ZXJzaXR5IG9mIENpbmNp
bm5hdGkxKjAoBgNVBAsMIURlcHQuIEVsZWMuIENvbXAuIEVuZy4gQ29tcC4gU2Np
LjEQMA4GA1UEAwwHY2xpZW50ODEoMCYGCSqGSIb3DQEJARYZZnJhbmNvQGdhdXNz
LmVjZWNzLnVjLmVkdTCCASIwDQYJKoZIhvcNAQEBBQADggEPADCCAQoCggEBAOFB
CwNKKLj9AgxXTDuk8FBI50dYXDtILcyDjvF2/Sz8JwHHJkZYzxb3lW1GL9juK9A+
u/SGaisPZlSjicyeVZp3Pehz/lFiVAPs38kBxIp46gksoMrNInQ3mmbLIo0hhx/n
bD5GsB4Ou+kyOabcup5+/sqmwx+1NWDrickKHIB/TiPYwLXKgsWTRcfEg9aAgdbF
4JeMXu2ViZnwOUfVk3gpQzn4aAg5S5zo738CGBGCSkrmkamTZNbmsGBOlMww0K4P
PTkMkNGV486EUYfMqephX7aodrT433iIItDRKXg88IyPBINoX1znh7eFAAvK7IYR
7eZiwlAXLB8W9fgqbbcCAwEAAaOCATcwggEzMAkGA1UdEwQCMAAwHQYDVR0OBBYE
FOnwvODRy28b1CYQKPLtybV6WC43MIHkBgNVHSMEgdwwgdmAFEQBzAYLQXXLyPvJ
N4YtndLYebaLoYG1pIGyMIGvMQswCQYDVQQGEwJVUzETMBEGA1UECAwKQ2FsaWZv
cm5pYTEWMBQGA1UEBwwNU2FuIEZyYW5jaXNjbzEgMB4GA1UECgwXQ29weWxlZnQg
Q2VydGlmaWNhdGUgQ28xHzAdBgNVBAsMFk15IE9yZ2FuaXphdGlvbmFsIFVuaXQx
ETAPBgNVBAMMCENoYW5nZU1lMR0wGwYJKoZIhvcNAQkBFg5tZUBleGFtcGxlLm5l
dIIJAK/o4N3Fiw7dMBMGA1UdJQQMMAoGCCsGAQUFBwMCMAsGA1UdDwQEAwIHgDAN
BgkqhkiG9w0BAQsFAAOCAQEAdbE6OTHCDAF5Ej/mPoAh92vkH03QhKYBP+ZrBS1T
VuJuNOOd0DgYw05OmeECiOjalkdCh/lGhJ90cb3/wb+imuN8nQ2phAc896SBlXPH
+yEg/N9MhylOY90ZN0OqCMD/stofug7n4zR5++F4mF9fj0Z3KuS+D+soHfET0N/m
+1MZlxeY4kcsIu86KsUFJ+JNVIwMgHCEqUgmqx581BlYdaQC8TYM+iiP2EyyJCwE
7rgfbAQ4RCL9CC/4eN3pV4GjNg+UR0J8JgaZvVSYb8b+PSiAhE5VadUZXJpXfm9e
yZg2QBdnEciwrXdG+MkzjI/2RYqYQKRx2gUVFxIF8UaGIg==
-----END CERTIFICATE-----
