Certificate:
    Data:
        Version: 3 (0x2)
        Serial Number:
            74:39:e4:ef:e3:f2:9e:80:ba:51:14:a0:c8:cf:86:ce
    Signature Algorithm: sha256WithRSAEncryption
        Issuer: C=US, ST=California, L=San Francisco, O=Copyleft Certificate Co, OU=My Organizational Unit, CN=ChangeMe/emailAddress=me@example.net
        Validity
            Not Before: Nov 11 01:48:22 2023 GMT
            Not After : Nov 10 01:48:22 2024 GMT
        Subject: C=US, ST=OH, L=Cincinnati, O=University of Cincinnati, OU=Dept. Elec. Comp. Eng. Comp. Sci., CN=client130/emailAddress=franco@gauss.ececs.uc.edu
        Subject Public Key Info:
            Public Key Algorithm: rsaEncryption
                Public-Key: (2048 bit)
                Modulus:
                    00:a8:24:b9:f5:17:02:f1:97:71:4b:63:9d:20:a9:
                    9f:f5:9b:b7:03:46:30:ae:06:d1:18:36:42:a6:7f:
                    ed:28:f3:2e:05:4b:74:de:b1:ab:9c:f6:24:58:7d:
                    6a:4a:1e:64:3a:fe:25:1f:f6:52:8d:e9:db:31:15:
                    3b:0a:9e:14:38:58:65:3d:a9:06:e1:60:43:86:d1:
                    f9:77:b2:cc:9c:7f:d5:da:8c:a4:8f:8e:ae:ad:6e:
                    3d:d8:77:4d:68:b3:29:43:c6:48:8f:4b:84:db:46:
                    75:31:99:ac:18:65:43:6d:79:85:58:29:51:1a:8e:
                    f2:27:01:1f:cf:7c:c6:d8:0f:78:22:2e:ca:58:e5:
                    12:19:9e:4c:8b:06:89:bc:6d:97:29:92:1d:8d:31:
                    5e:e7:35:ac:c9:0c:4f:58:cb:6a:cc:c8:39:94:02:
                    7b:ba:62:b4:67:aa:c5:99:03:4b:b7:46:bd:de:6c:
                    2f:e0:b5:41:44:06:8f:8f:50:be:c8:be:64:56:cb:
                    4f:21:88:1e:18:54:4e:bb:7f:f9:3d:8d:43:85:64:
                    23:54:ee:af:ff:1e:28:19:f3:bc:6b:27:ed:0c:a6:
                    e6:3e:b2:da:a5:e0:9a:c4:8e:86:f4:7e:b9:d0:b6:
                    1c:b3:95:a6:94:88:a0:0c:fc:64:50:45:96:ee:8f:
                    f3:3d
                Exponent: 65537 (0x10001)
        X509v3 extensions:
            X509v3 Basic Constraints: 
                CA:FALSE
            X509v3 Subject Key Identifier: 
                20:55:5C:3A:E9:99:EE:DC:F8:14:67:B6:16:22:3C:8A:D1:22:E7:E3
            X509v3 Authority Key Identifier: 
                keyid:73:DE:A0:43:0F:AE:B1:9E:E8:59:69:18:50:A1:1A:1F:D4:A1:E3:F0
                DirName:/C=US/ST=California/L=San Francisco/O=Copyleft Certificate Co/OU=My Organizational Unit/CN=ChangeMe/emailAddress=me@example.net
                serial:E9:BB:CB:16:C5:32:BE:3B

            X509v3 Extended Key Usage: 
                TLS Web Client Authentication
            X509v3 Key Usage: 
                Digital Signature
    Signature Algorithm: sha256WithRSAEncryption
         5b:d1:2f:ce:f7:61:11:e0:95:c3:51:b1:8f:65:82:d9:13:6d:
         7e:71:36:42:e4:20:37:4f:10:64:0c:13:de:83:57:f8:85:91:
         fe:69:5e:03:24:8e:e1:8c:6c:77:00:ed:fc:df:bf:42:2b:8b:
         5b:39:e7:cf:d3:da:10:e7:1b:ee:df:fe:ed:13:78:a9:3f:17:
         8c:57:dc:47:70:b9:ab:bb:f1:5c:d4:cd:01:75:61:73:75:a4:
         7b:82:93:a9:03:5a:96:5c:16:7b:6b:90:ac:49:f6:48:07:ad:
         91:f8:b8:ef:ab:9e:8e:1e:2c:50:1a:59:c6:0b:14:bc:83:f5:
         c3:8f:c3:a5:e6:54:cd:89:c9:9a:23:20:d2:8c:4f:b2:5c:68:
         71:0e:cd:54:1f:85:fd:e2:56:df:27:d8:59:f8:2f:4c:8c:50:
         e0:93:b0:cf:8d:f9:ca:8f:03:4a:0d:b0:f2:e7:b3:0e:32:72:
         39:c3:06:12:60:87:de:02:cf:eb:78:2e:96:17:a0:76:8c:2e:
         66:3e:ba:4a:5b:e7:99:20:f5:98:87:1c:72:ab:d7:f2:0e:8c:
         cd:35:de:df:73:b8:86:8e:30:9d:2b:ce:a9:b3:a3:67:a9:31:
         ac:a2:f9:eb:e1:7c:89:77:e2:9b:4b:7c:3d:98:73:95:22:f5:
         30:23:6e:65
-----BEGIN CERTIFICATE-----
MIIFMDCCBBigAwIBAgIQdDnk7+PynoC6URSgyM+GzjANBgkqhkiG9w0BAQsFADCB
rzELMAkGA1UEBhMCVVMxEzARBgNVBAgMCkNhbGlmb3JuaWExFjAUBgNVBAcMDVNh
biBGcmFuY2lzY28xIDAeBgNVBAoMF0NvcHlsZWZ0IENlcnRpZmljYXRlIENvMR8w
HQYDVQQLDBZNeSBPcmdhbml6YXRpb25hbCBVbml0MREwDwYDVQQDDAhDaGFuZ2VN
ZTEdMBsGCSqGSIb3DQEJARYObWVAZXhhbXBsZS5uZXQwHhcNMjMxMTExMDE0ODIy
WhcNMjQxMTEwMDE0ODIyWjCBvDELMAkGA1UEBhMCVVMxCzAJBgNVBAgMAk9IMRMw
EQYDVQQHDApDaW5jaW5uYXRpMSEwHwYDVQQKDBhVbml2ZXJzaXR5IG9mIENpbmNp
bm5hdGkxKjAoBgNVBAsMIURlcHQuIEVsZWMuIENvbXAuIEVuZy4gQ29tcC4gU2Np
LjESMBAGA1UEAwwJY2xpZW50MTMwMSgwJgYJKoZIhvcNAQkBFhlmcmFuY29AZ2F1
c3MuZWNlY3MudWMuZWR1MIIBIjANBgkqhkiG9w0BAQEFAAOCAQ8AMIIBCgKCAQEA
qCS59RcC8ZdxS2OdIKmf9Zu3A0YwrgbRGDZCpn/tKPMuBUt03rGrnPYkWH1qSh5k
Ov4lH/ZSjenbMRU7Cp4UOFhlPakG4WBDhtH5d7LMnH/V2oykj46urW492HdNaLMp
Q8ZIj0uE20Z1MZmsGGVDbXmFWClRGo7yJwEfz3zG2A94Ii7KWOUSGZ5MiwaJvG2X
KZIdjTFe5zWsyQxPWMtqzMg5lAJ7umK0Z6rFmQNLt0a93mwv4LVBRAaPj1C+yL5k
VstPIYgeGFROu3/5PY1DhWQjVO6v/x4oGfO8ayftDKbmPrLapeCaxI6G9H650LYc
s5WmlIigDPxkUEWW7o/zPQIDAQABo4IBNzCCATMwCQYDVR0TBAIwADAdBgNVHQ4E
FgQUIFVcOumZ7tz4FGe2FiI8itEi5+MwgeQGA1UdIwSB3DCB2YAUc96gQw+usZ7o
WWkYUKEaH9Sh4/ChgbWkgbIwga8xCzAJBgNVBAYTAlVTMRMwEQYDVQQIDApDYWxp
Zm9ybmlhMRYwFAYDVQQHDA1TYW4gRnJhbmNpc2NvMSAwHgYDVQQKDBdDb3B5bGVm
dCBDZXJ0aWZpY2F0ZSBDbzEfMB0GA1UECwwWTXkgT3JnYW5pemF0aW9uYWwgVW5p
dDERMA8GA1UEAwwIQ2hhbmdlTWUxHTAbBgkqhkiG9w0BCQEWDm1lQGV4YW1wbGUu
bmV0ggkA6bvLFsUyvjswEwYDVR0lBAwwCgYIKwYBBQUHAwIwCwYDVR0PBAQDAgeA
MA0GCSqGSIb3DQEBCwUAA4IBAQBb0S/O92ER4JXDUbGPZYLZE21+cTZC5CA3TxBk
DBPeg1f4hZH+aV4DJI7hjGx3AO38379CK4tbOefP09oQ5xvu3/7tE3ipPxeMV9xH
cLmru/Fc1M0BdWFzdaR7gpOpA1qWXBZ7a5CsSfZIB62R+Ljvq56OHixQGlnGCxS8
g/XDj8Ol5lTNicmaIyDSjE+yXGhxDs1UH4X94lbfJ9hZ+C9MjFDgk7DPjfnKjwNK
DbDy57MOMnI5wwYSYIfeAs/reC6WF6B2jC5mPrpKW+eZIPWYhxxyq9fyDozNNd7f
c7iGjjCdK86ps6NnqTGsovnr4XyJd+KbS3w9mHOVIvUwI25l
-----END CERTIFICATE-----
