Certificate:
    Data:
        Version: 3 (0x2)
        Serial Number:
            de:00:8b:5c:2e:36:ec:56:75:47:79:7a:06:f0:76:b5
    Signature Algorithm: sha256WithRSAEncryption
        Issuer: C=US, ST=California, L=San Francisco, O=Copyleft Certificate Co, OU=My Organizational Unit, CN=ChangeMe/emailAddress=me@example.net
        Validity
            Not Before: Nov 10 17:46:54 2023 GMT
            Not After : Nov  9 17:46:54 2024 GMT
        Subject: C=US, ST=OH, L=Cincinnati, O=University of Cincinnati, OU=Dept_Elec_Com_ Eng_Com_Sci., CN=client127/emailAddress=franco@gauss.ececs.uc.edu
        Subject Public Key Info:
            Public Key Algorithm: rsaEncryption
                Public-Key: (2048 bit)
                Modulus:
                    00:a7:f9:f2:e3:48:f1:dc:92:fc:9e:32:e3:a9:d5:
                    22:d1:fe:ae:37:db:11:ac:a1:ea:65:08:84:0a:48:
                    21:3a:0c:f9:67:26:36:2e:c6:db:ef:b6:f7:cf:08:
                    f5:df:d0:40:c9:6b:2f:dc:1a:ab:c2:d2:75:3c:1f:
                    c6:31:65:a7:b8:97:8a:8f:4c:51:f9:21:45:e5:4b:
                    1a:c4:aa:e5:ee:d8:47:c2:76:39:73:a6:40:b2:2f:
                    a3:64:f5:15:10:12:3b:44:64:ca:de:ad:99:5c:48:
                    f5:bf:c1:07:ff:72:98:43:3c:e4:32:99:7c:68:6d:
                    b0:60:b6:88:ee:bc:cc:96:2e:36:75:b9:f8:4e:e6:
                    65:e0:37:97:ef:1b:80:b6:8e:d4:8c:2a:d1:6b:9a:
                    c5:9d:ef:4e:2c:a5:32:ec:47:8e:61:de:c6:f8:e6:
                    94:41:ba:a3:2a:0f:4a:e2:a7:36:67:d1:2e:c3:69:
                    7b:b2:c6:ce:0e:8b:0f:8f:60:56:7c:56:ce:7a:4a:
                    f9:4e:a2:a0:1b:f2:94:b6:e1:79:d3:78:59:7d:70:
                    15:fc:26:73:67:ee:1d:ca:ed:68:ee:85:05:a4:19:
                    55:35:4f:48:ca:29:42:f1:31:cf:a1:3e:0d:38:de:
                    82:f6:80:a9:ff:34:2c:d0:af:d7:94:de:1b:0d:63:
                    e8:a3
                Exponent: 65537 (0x10001)
        X509v3 extensions:
            X509v3 Basic Constraints: 
                CA:FALSE
            X509v3 Subject Key Identifier: 
                01:C8:6A:90:28:1C:1C:E0:53:79:81:3B:6C:7A:72:CF:A3:B3:8F:CB
            X509v3 Authority Key Identifier: 
                keyid:C8:27:DA:64:30:08:40:08:4A:25:CC:DC:43:99:DE:77:A1:FE:77:BD
                DirName:/C=US/ST=California/L=San Francisco/O=Copyleft Certificate Co/OU=My Organizational Unit/CN=ChangeMe/emailAddress=me@example.net
                serial:A9:48:C3:7E:FC:1B:B0:A1

            X509v3 Extended Key Usage: 
                TLS Web Client Authentication
            X509v3 Key Usage: 
                Digital Signature
    Signature Algorithm: sha256WithRSAEncryption
         b4:d2:14:d5:90:a8:fe:69:7c:5f:0c:88:7d:9a:7c:65:44:e2:
         3c:e1:53:56:28:6c:8b:2b:aa:a2:37:c8:29:77:23:76:70:db:
         43:e3:78:45:93:1e:9e:9a:c5:5e:81:77:90:7b:49:d0:11:51:
         64:1f:c7:10:f0:01:a5:74:cd:6d:99:d5:4b:51:05:f8:5b:e4:
         58:e5:bf:89:46:64:5a:38:14:51:94:09:70:66:ce:e0:48:f6:
         4a:8c:80:31:6d:32:6a:79:16:4c:6a:14:40:7a:a5:95:e7:d4:
         75:1d:fd:7d:30:c7:7d:19:ce:50:d7:fc:cd:ee:72:64:e5:d5:
         d0:23:a6:43:09:a8:ed:9d:3c:59:c8:68:30:91:1d:77:76:0a:
         8b:24:ab:95:16:14:ca:ac:03:b6:0b:eb:6c:9d:4c:fc:17:c4:
         ce:8d:22:03:63:b4:b5:a7:50:6f:00:01:cc:2e:13:95:45:aa:
         49:ef:bd:85:86:e8:f9:cd:af:36:c2:08:df:3f:27:d9:99:06:
         e8:4c:87:17:98:af:76:a2:4d:60:2e:21:eb:bc:41:2a:91:cb:
         1c:13:43:7d:c9:f9:ef:b0:d4:6a:81:f3:a4:63:b4:86:58:9b:
         5c:ee:60:04:dc:74:24:13:0b:5e:4a:e6:f5:dd:2e:9f:df:57:
         54:3e:59:fa
-----BEGIN CERTIFICATE-----
MIIFKzCCBBOgAwIBAgIRAN4Ai1wuNuxWdUd5egbwdrUwDQYJKoZIhvcNAQELBQAw
ga8xCzAJBgNVBAYTAlVTMRMwEQYDVQQIDApDYWxpZm9ybmlhMRYwFAYDVQQHDA1T
YW4gRnJhbmNpc2NvMSAwHgYDVQQKDBdDb3B5bGVmdCBDZXJ0aWZpY2F0ZSBDbzEf
MB0GA1UECwwWTXkgT3JnYW5pemF0aW9uYWwgVW5pdDERMA8GA1UEAwwIQ2hhbmdl
TWUxHTAbBgkqhkiG9w0BCQEWDm1lQGV4YW1wbGUubmV0MB4XDTIzMTExMDE3NDY1
NFoXDTI0MTEwOTE3NDY1NFowgbYxCzAJBgNVBAYTAlVTMQswCQYDVQQIDAJPSDET
MBEGA1UEBwwKQ2luY2lubmF0aTEhMB8GA1UECgwYVW5pdmVyc2l0eSBvZiBDaW5j
aW5uYXRpMSQwIgYDVQQLDBtEZXB0X0VsZWNfQ29tXyBFbmdfQ29tX1NjaS4xEjAQ
BgNVBAMMCWNsaWVudDEyNzEoMCYGCSqGSIb3DQEJARYZZnJhbmNvQGdhdXNzLmVj
ZWNzLnVjLmVkdTCCASIwDQYJKoZIhvcNAQEBBQADggEPADCCAQoCggEBAKf58uNI
8dyS/J4y46nVItH+rjfbEayh6mUIhApIIToM+WcmNi7G2++2988I9d/QQMlrL9wa
q8LSdTwfxjFlp7iXio9MUfkhReVLGsSq5e7YR8J2OXOmQLIvo2T1FRASO0Rkyt6t
mVxI9b/BB/9ymEM85DKZfGhtsGC2iO68zJYuNnW5+E7mZeA3l+8bgLaO1Iwq0Wua
xZ3vTiylMuxHjmHexvjmlEG6oyoPSuKnNmfRLsNpe7LGzg6LD49gVnxWznpK+U6i
oBvylLbhedN4WX1wFfwmc2fuHcrtaO6FBaQZVTVPSMopQvExz6E+DTjegvaAqf80
LNCv15TeGw1j6KMCAwEAAaOCATcwggEzMAkGA1UdEwQCMAAwHQYDVR0OBBYEFAHI
apAoHBzgU3mBO2x6cs+js4/LMIHkBgNVHSMEgdwwgdmAFMgn2mQwCEAISiXM3EOZ
3neh/ne9oYG1pIGyMIGvMQswCQYDVQQGEwJVUzETMBEGA1UECAwKQ2FsaWZvcm5p
YTEWMBQGA1UEBwwNU2FuIEZyYW5jaXNjbzEgMB4GA1UECgwXQ29weWxlZnQgQ2Vy
dGlmaWNhdGUgQ28xHzAdBgNVBAsMFk15IE9yZ2FuaXphdGlvbmFsIFVuaXQxETAP
BgNVBAMMCENoYW5nZU1lMR0wGwYJKoZIhvcNAQkBFg5tZUBleGFtcGxlLm5ldIIJ
AKlIw378G7ChMBMGA1UdJQQMMAoGCCsGAQUFBwMCMAsGA1UdDwQEAwIHgDANBgkq
hkiG9w0BAQsFAAOCAQEAtNIU1ZCo/ml8XwyIfZp8ZUTiPOFTVihsiyuqojfIKXcj
dnDbQ+N4RZMenprFXoF3kHtJ0BFRZB/HEPABpXTNbZnVS1EF+FvkWOW/iUZkWjgU
UZQJcGbO4Ej2SoyAMW0yankWTGoUQHqllefUdR39fTDHfRnOUNf8ze5yZOXV0COm
Qwmo7Z08WchoMJEdd3YKiySrlRYUyqwDtgvrbJ1M/BfEzo0iA2O0tadQbwABzC4T
lUWqSe+9hYbo+c2vNsII3z8n2ZkG6EyHF5ivdqJNYC4h67xBKpHLHBNDfcn577DU
aoHzpGO0hlibXO5gBNx0JBMLXkrm9d0un99XVD5Z+g==
-----END CERTIFICATE-----
