Certificate:
    Data:
        Version: 3 (0x2)
        Serial Number:
            0f:09:ee:8d:3a:b1:66:d2:28:ff:22:9b:92:90:fe:ca
    Signature Algorithm: sha256WithRSAEncryption
        Issuer: C=US, ST=California, L=San Francisco, O=Copyleft Certificate Co, OU=My Organizational Unit, CN=ChangeMe/emailAddress=me@example.net
        Validity
            Not Before: Nov 11 01:47:46 2023 GMT
            Not After : Nov 10 01:47:46 2024 GMT
        Subject: C=US, ST=OH, L=Cincinnati, O=University of Cincinnati, OU=Dept. Elec. Comp. Eng. Comp. Sci., CN=client121/emailAddress=franco@gauss.ececs.uc.edu
        Subject Public Key Info:
            Public Key Algorithm: rsaEncryption
                Public-Key: (2048 bit)
                Modulus:
                    00:9c:ae:3d:2f:e9:94:5d:ac:f5:ea:5e:02:cf:f0:
                    19:7d:27:63:b9:08:2d:f1:80:0d:44:03:bc:7a:e1:
                    5b:66:89:0b:dd:dd:f5:8a:31:47:87:e0:84:26:84:
                    1a:07:9b:d2:32:c8:9c:96:60:b5:3c:cd:85:70:1d:
                    a8:13:71:4b:4b:c1:91:80:54:5f:e7:a1:91:97:b9:
                    8c:22:ee:d2:93:cd:f5:ec:6d:05:a4:b3:c3:2a:4c:
                    5c:45:4a:3b:ff:f3:ec:42:f7:e1:b5:88:c2:36:8f:
                    b6:c4:3b:2c:0d:f0:d7:2b:51:9e:6a:fe:fd:89:5d:
                    9a:8c:88:ec:e5:c8:b9:32:78:c9:86:21:9e:07:ca:
                    51:c6:cc:9c:10:8c:d4:e6:4a:ee:60:c4:8f:7d:29:
                    95:26:79:73:f0:d4:32:b7:61:35:92:ff:5b:d8:2a:
                    55:10:d7:23:30:c9:c0:84:64:30:a4:de:a3:65:53:
                    08:da:9e:a4:02:3c:7a:cf:d3:14:b2:ac:e6:45:c4:
                    4b:c2:c9:09:fa:1f:a1:e4:ea:53:fe:60:4c:f4:c5:
                    4a:f1:f3:95:d5:c7:20:e7:67:52:18:70:6c:19:9f:
                    99:e3:9b:2b:82:88:31:34:95:09:69:29:0e:2f:9b:
                    63:a6:dd:42:fb:ec:44:c4:da:d1:de:cd:3d:ee:d1:
                    dd:5d
                Exponent: 65537 (0x10001)
        X509v3 extensions:
            X509v3 Basic Constraints: 
                CA:FALSE
            X509v3 Subject Key Identifier: 
                63:B8:30:9F:3B:E6:AE:2C:7E:A6:E2:EB:65:D9:28:D6:8F:60:54:48
            X509v3 Authority Key Identifier: 
                keyid:73:DE:A0:43:0F:AE:B1:9E:E8:59:69:18:50:A1:1A:1F:D4:A1:E3:F0
                DirName:/C=US/ST=California/L=San Francisco/O=Copyleft Certificate Co/OU=My Organizational Unit/CN=ChangeMe/emailAddress=me@example.net
                serial:E9:BB:CB:16:C5:32:BE:3B

            X509v3 Extended Key Usage: 
                TLS Web Client Authentication
            X509v3 Key Usage: 
                Digital Signature
    Signature Algorithm: sha256WithRSAEncryption
         3f:94:38:e7:a8:d5:2b:22:1b:5e:56:29:7c:d8:8c:c6:e6:b5:
         cc:bc:e5:7c:b9:8e:cd:e3:5d:fc:9e:a2:f6:ee:30:21:33:e1:
         6f:bc:0e:66:ad:11:0e:3c:5a:81:89:64:ee:44:6e:d4:bd:42:
         12:80:b9:fb:a2:8b:f3:ba:ab:ea:f9:be:f4:3d:d5:03:1e:3f:
         8f:b8:b3:c1:4e:64:dc:35:73:20:93:03:90:1a:92:06:9b:d3:
         90:43:64:74:89:62:c7:0a:e2:99:ea:ea:62:cc:f1:d6:5d:6d:
         b1:73:85:91:bc:44:45:30:82:35:b8:6c:be:26:af:66:07:35:
         8c:a2:7e:68:3c:1a:8c:1b:e2:76:2e:af:28:cc:98:7e:7b:36:
         2c:44:21:34:ec:07:7e:f5:60:11:d6:bb:2d:68:8a:c1:41:db:
         73:90:c0:4b:d5:e6:e5:fd:06:0a:08:75:c7:a3:91:08:cb:a8:
         9f:6d:ca:2e:ae:03:6c:53:4a:85:73:9e:cf:21:1b:d9:34:66:
         46:50:24:6e:c7:e4:c9:7b:00:86:c4:a1:28:a1:59:b4:31:92:
         7d:3a:98:59:f5:dd:21:7e:4f:43:cb:88:9e:24:7f:85:5b:91:
         50:8c:cb:14:1c:9d:17:25:29:b0:fd:a9:60:31:cc:a2:8e:f4:
         b9:69:d2:95
-----BEGIN CERTIFICATE-----
MIIFMDCCBBigAwIBAgIQDwnujTqxZtIo/yKbkpD+yjANBgkqhkiG9w0BAQsFADCB
rzELMAkGA1UEBhMCVVMxEzARBgNVBAgMCkNhbGlmb3JuaWExFjAUBgNVBAcMDVNh
biBGcmFuY2lzY28xIDAeBgNVBAoMF0NvcHlsZWZ0IENlcnRpZmljYXRlIENvMR8w
HQYDVQQLDBZNeSBPcmdhbml6YXRpb25hbCBVbml0MREwDwYDVQQDDAhDaGFuZ2VN
ZTEdMBsGCSqGSIb3DQEJARYObWVAZXhhbXBsZS5uZXQwHhcNMjMxMTExMDE0NzQ2
WhcNMjQxMTEwMDE0NzQ2WjCBvDELMAkGA1UEBhMCVVMxCzAJBgNVBAgMAk9IMRMw
EQYDVQQHDApDaW5jaW5uYXRpMSEwHwYDVQQKDBhVbml2ZXJzaXR5IG9mIENpbmNp
bm5hdGkxKjAoBgNVBAsMIURlcHQuIEVsZWMuIENvbXAuIEVuZy4gQ29tcC4gU2Np
LjESMBAGA1UEAwwJY2xpZW50MTIxMSgwJgYJKoZIhvcNAQkBFhlmcmFuY29AZ2F1
c3MuZWNlY3MudWMuZWR1MIIBIjANBgkqhkiG9w0BAQEFAAOCAQ8AMIIBCgKCAQEA
nK49L+mUXaz16l4Cz/AZfSdjuQgt8YANRAO8euFbZokL3d31ijFHh+CEJoQaB5vS
MsiclmC1PM2FcB2oE3FLS8GRgFRf56GRl7mMIu7Sk8317G0FpLPDKkxcRUo7//Ps
QvfhtYjCNo+2xDssDfDXK1Geav79iV2ajIjs5ci5MnjJhiGeB8pRxsycEIzU5kru
YMSPfSmVJnlz8NQyt2E1kv9b2CpVENcjMMnAhGQwpN6jZVMI2p6kAjx6z9MUsqzm
RcRLwskJ+h+h5OpT/mBM9MVK8fOV1ccg52dSGHBsGZ+Z45srgogxNJUJaSkOL5tj
pt1C++xExNrR3s097tHdXQIDAQABo4IBNzCCATMwCQYDVR0TBAIwADAdBgNVHQ4E
FgQUY7gwnzvmrix+puLrZdko1o9gVEgwgeQGA1UdIwSB3DCB2YAUc96gQw+usZ7o
WWkYUKEaH9Sh4/ChgbWkgbIwga8xCzAJBgNVBAYTAlVTMRMwEQYDVQQIDApDYWxp
Zm9ybmlhMRYwFAYDVQQHDA1TYW4gRnJhbmNpc2NvMSAwHgYDVQQKDBdDb3B5bGVm
dCBDZXJ0aWZpY2F0ZSBDbzEfMB0GA1UECwwWTXkgT3JnYW5pemF0aW9uYWwgVW5p
dDERMA8GA1UEAwwIQ2hhbmdlTWUxHTAbBgkqhkiG9w0BCQEWDm1lQGV4YW1wbGUu
bmV0ggkA6bvLFsUyvjswEwYDVR0lBAwwCgYIKwYBBQUHAwIwCwYDVR0PBAQDAgeA
MA0GCSqGSIb3DQEBCwUAA4IBAQA/lDjnqNUrIhteVil82IzG5rXMvOV8uY7N4138
nqL27jAhM+FvvA5mrREOPFqBiWTuRG7UvUISgLn7oovzuqvq+b70PdUDHj+PuLPB
TmTcNXMgkwOQGpIGm9OQQ2R0iWLHCuKZ6upizPHWXW2xc4WRvERFMII1uGy+Jq9m
BzWMon5oPBqMG+J2Lq8ozJh+ezYsRCE07Ad+9WAR1rstaIrBQdtzkMBL1ebl/QYK
CHXHo5EIy6ifbcourgNsU0qFc57PIRvZNGZGUCRux+TJewCGxKEooVm0MZJ9OphZ
9d0hfk9Dy4ieJH+FW5FQjMsUHJ0XJSmw/algMcyijvS5adKV
-----END CERTIFICATE-----
