Certificate:
    Data:
        Version: 3 (0x2)
        Serial Number:
            28:e4:56:94:b5:5c:12:38:b7:a4:ef:e2:c5:cc:a5:63
    Signature Algorithm: sha256WithRSAEncryption
        Issuer: C=US, ST=California, L=San Francisco, O=Copyleft Certificate Co, OU=My Organizational Unit, CN=ChangeMe/emailAddress=me@example.net
        Validity
            Not Before: Nov 11 02:00:31 2023 GMT
            Not After : Nov 10 02:00:31 2024 GMT
        Subject: C=US, ST=OH, L=Cincinnati, O=University of Cincinnati, OU=Dept. Elec. Comp. Eng. Comp. Sci., CN=client37/emailAddress=franco@gauss.ececs.uc.edu
        Subject Public Key Info:
            Public Key Algorithm: rsaEncryption
                Public-Key: (2048 bit)
                Modulus:
                    00:d6:2f:73:0f:70:33:df:32:8e:47:e7:14:62:6d:
                    54:c0:b2:03:32:48:d5:67:fc:c4:55:36:e7:67:1a:
                    7b:80:a8:83:3b:a0:e5:5a:a2:cc:ba:3e:ec:a4:c8:
                    66:69:63:ba:80:9e:ad:03:0d:2a:42:e5:af:45:24:
                    f7:67:c1:c3:38:4b:36:44:00:cd:5c:49:aa:1e:30:
                    f3:a5:69:ad:83:55:40:b8:a7:e3:0e:f2:6a:d2:2d:
                    5a:df:b8:80:3b:01:12:f4:cf:29:b0:85:f1:c9:fe:
                    43:65:d3:3a:f7:49:96:fe:9c:0f:9f:e1:1b:2a:c5:
                    92:6d:99:85:97:cc:f6:22:57:b1:0c:df:f4:cc:cd:
                    96:4a:db:ae:81:44:4f:a0:e7:cf:04:80:b1:de:25:
                    f0:1e:ff:c2:7f:1b:cf:a0:ca:28:6c:ba:e3:aa:b0:
                    40:70:32:1f:93:3b:30:d2:4f:dc:f8:8d:e3:59:f6:
                    44:43:e0:de:a6:c1:dc:bf:d4:bc:2d:94:1f:70:6a:
                    78:62:63:fc:fc:a7:bf:87:17:df:6f:38:bf:7c:23:
                    a9:a8:e2:4c:ee:f7:01:ca:96:88:ae:72:fd:39:02:
                    40:4b:cc:55:45:29:81:f8:32:e6:5a:7e:d3:83:9e:
                    da:4a:a9:60:41:db:43:4e:e4:b8:85:36:1e:83:2e:
                    e9:a7
                Exponent: 65537 (0x10001)
        X509v3 extensions:
            X509v3 Basic Constraints: 
                CA:FALSE
            X509v3 Subject Key Identifier: 
                7A:4C:FA:5F:EE:1B:B5:A8:10:A1:A4:13:96:E8:4A:42:19:E2:9D:79
            X509v3 Authority Key Identifier: 
                keyid:7B:0F:93:16:64:9F:71:41:D3:1B:FB:ED:6A:70:9B:CA:2E:70:F0:4B
                DirName:/C=US/ST=California/L=San Francisco/O=Copyleft Certificate Co/OU=My Organizational Unit/CN=ChangeMe/emailAddress=me@example.net
                serial:B9:F2:4E:2C:79:B3:D4:6C

            X509v3 Extended Key Usage: 
                TLS Web Client Authentication
            X509v3 Key Usage: 
                Digital Signature
    Signature Algorithm: sha256WithRSAEncryption
         50:cf:99:6f:12:75:f5:0a:ea:60:43:94:8f:37:de:87:c1:60:
         3c:3e:a6:c1:56:ef:97:d0:5d:2a:26:60:4d:2e:b1:51:74:c6:
         5a:1c:11:85:1e:6d:0c:c9:3b:c7:78:a9:17:7d:61:cc:27:50:
         1b:b0:01:af:a3:b5:3e:8f:24:25:33:a8:7f:29:ad:d6:fd:45:
         76:49:5c:ea:42:c9:53:87:0c:13:c2:7a:9c:c7:e7:cc:b8:71:
         00:16:af:0d:c3:97:4c:07:7b:97:cc:2e:c9:61:a2:75:bd:4b:
         79:23:1b:0c:d6:f8:c6:de:b1:8b:5d:85:d8:ab:a6:25:87:7b:
         81:73:55:5b:cb:c3:83:5e:93:7f:3e:24:c1:51:3e:37:e0:0d:
         44:92:e5:2c:52:4f:af:d7:6e:44:04:33:f1:01:d6:a6:d9:cd:
         c7:03:62:df:18:0b:04:a3:51:b4:f8:5f:32:58:0b:5a:12:f9:
         a0:17:88:54:47:9a:10:fc:65:bc:6e:07:23:b5:08:7e:7d:41:
         69:33:5b:64:59:0b:7e:28:70:04:e2:d0:e5:e5:76:5c:37:73:
         3d:42:b9:d1:5b:e7:bd:f0:5c:e5:bf:8a:1d:2e:41:50:d6:e0:
         68:c6:04:70:cb:44:16:93:12:db:d2:5c:2d:60:93:d5:a3:d6:
         36:99:35:21
-----BEGIN CERTIFICATE-----
MIIFLzCCBBegAwIBAgIQKORWlLVcEji3pO/ixcylYzANBgkqhkiG9w0BAQsFADCB
rzELMAkGA1UEBhMCVVMxEzARBgNVBAgMCkNhbGlmb3JuaWExFjAUBgNVBAcMDVNh
biBGcmFuY2lzY28xIDAeBgNVBAoMF0NvcHlsZWZ0IENlcnRpZmljYXRlIENvMR8w
HQYDVQQLDBZNeSBPcmdhbml6YXRpb25hbCBVbml0MREwDwYDVQQDDAhDaGFuZ2VN
ZTEdMBsGCSqGSIb3DQEJARYObWVAZXhhbXBsZS5uZXQwHhcNMjMxMTExMDIwMDMx
WhcNMjQxMTEwMDIwMDMxWjCBuzELMAkGA1UEBhMCVVMxCzAJBgNVBAgMAk9IMRMw
EQYDVQQHDApDaW5jaW5uYXRpMSEwHwYDVQQKDBhVbml2ZXJzaXR5IG9mIENpbmNp
bm5hdGkxKjAoBgNVBAsMIURlcHQuIEVsZWMuIENvbXAuIEVuZy4gQ29tcC4gU2Np
LjERMA8GA1UEAwwIY2xpZW50MzcxKDAmBgkqhkiG9w0BCQEWGWZyYW5jb0BnYXVz
cy5lY2Vjcy51Yy5lZHUwggEiMA0GCSqGSIb3DQEBAQUAA4IBDwAwggEKAoIBAQDW
L3MPcDPfMo5H5xRibVTAsgMySNVn/MRVNudnGnuAqIM7oOVaosy6PuykyGZpY7qA
nq0DDSpC5a9FJPdnwcM4SzZEAM1cSaoeMPOlaa2DVUC4p+MO8mrSLVrfuIA7ARL0
zymwhfHJ/kNl0zr3SZb+nA+f4RsqxZJtmYWXzPYiV7EM3/TMzZZK266BRE+g588E
gLHeJfAe/8J/G8+gyihsuuOqsEBwMh+TOzDST9z4jeNZ9kRD4N6mwdy/1LwtlB9w
anhiY/z8p7+HF99vOL98I6mo4kzu9wHKloiucv05AkBLzFVFKYH4MuZaftODntpK
qWBB20NO5LiFNh6DLumnAgMBAAGjggE3MIIBMzAJBgNVHRMEAjAAMB0GA1UdDgQW
BBR6TPpf7hu1qBChpBOW6EpCGeKdeTCB5AYDVR0jBIHcMIHZgBR7D5MWZJ9xQdMb
++1qcJvKLnDwS6GBtaSBsjCBrzELMAkGA1UEBhMCVVMxEzARBgNVBAgMCkNhbGlm
b3JuaWExFjAUBgNVBAcMDVNhbiBGcmFuY2lzY28xIDAeBgNVBAoMF0NvcHlsZWZ0
IENlcnRpZmljYXRlIENvMR8wHQYDVQQLDBZNeSBPcmdhbml6YXRpb25hbCBVbml0
MREwDwYDVQQDDAhDaGFuZ2VNZTEdMBsGCSqGSIb3DQEJARYObWVAZXhhbXBsZS5u
ZXSCCQC58k4sebPUbDATBgNVHSUEDDAKBggrBgEFBQcDAjALBgNVHQ8EBAMCB4Aw
DQYJKoZIhvcNAQELBQADggEBAFDPmW8SdfUK6mBDlI833ofBYDw+psFW75fQXSom
YE0usVF0xlocEYUebQzJO8d4qRd9YcwnUBuwAa+jtT6PJCUzqH8prdb9RXZJXOpC
yVOHDBPCepzH58y4cQAWrw3Dl0wHe5fMLslhonW9S3kjGwzW+MbesYtdhdirpiWH
e4FzVVvLw4Nek38+JMFRPjfgDUSS5SxST6/XbkQEM/EB1qbZzccDYt8YCwSjUbT4
XzJYC1oS+aAXiFRHmhD8ZbxuByO1CH59QWkzW2RZC34ocATi0OXldlw3cz1CudFb
573wXOW/ih0uQVDW4GjGBHDLRBaTEtvSXC1gk9Wj1jaZNSE=
-----END CERTIFICATE-----
