Certificate:
    Data:
        Version: 3 (0x2)
        Serial Number:
            f3:17:41:7c:87:bb:43:95:4f:8e:aa:32:77:a2:49:37
    Signature Algorithm: sha256WithRSAEncryption
        Issuer: C=US, ST=California, L=San Francisco, O=Copyleft Certificate Co, OU=My Organizational Unit, CN=ChangeMe/emailAddress=me@example.net
        Validity
            Not Before: Nov 10 17:44:42 2023 GMT
            Not After : Nov  9 17:44:42 2024 GMT
        Subject: C=US, ST=OH, L=Cincinnati, O=University of Cincinnati, OU=Dept_Elec_Com_ Eng_Com_Sci., CN=client94/emailAddress=franco@gauss.ececs.uc.edu
        Subject Public Key Info:
            Public Key Algorithm: rsaEncryption
                Public-Key: (2048 bit)
                Modulus:
                    00:ba:46:fa:62:33:2d:82:e8:d1:ec:99:04:64:cc:
                    39:24:ed:a8:90:a6:11:dc:e3:35:b0:3d:89:a6:d3:
                    e0:37:aa:4e:52:07:10:77:0e:24:0a:12:75:7f:4f:
                    18:2e:41:d0:4b:71:be:3c:db:34:69:4b:f1:27:5a:
                    dc:eb:c6:0c:b5:64:3d:20:45:3e:1f:2d:7d:aa:cd:
                    7c:73:d2:dd:66:95:e8:50:61:b7:2d:05:6d:7f:cf:
                    2e:c5:01:f7:f7:e8:7b:4d:09:0e:45:9b:02:cb:ae:
                    df:30:ab:70:48:6f:bf:b0:42:3b:3c:74:e2:d2:2e:
                    8d:9b:46:ac:3f:08:38:51:33:a4:14:ce:af:0d:b5:
                    ff:ba:7a:a7:26:e6:2f:18:32:24:c3:66:21:01:d0:
                    27:d8:6e:11:0a:71:7f:35:26:f9:93:1b:fd:0a:97:
                    1a:b5:1e:e2:a9:86:be:b8:ea:ce:1b:39:24:c7:a6:
                    3b:4d:03:17:a9:9d:e2:c0:bb:a4:09:ef:4f:2d:6b:
                    d9:62:ce:0f:65:a6:4c:ce:84:ba:af:57:5e:14:11:
                    a6:58:b6:15:1d:d9:01:a9:4f:83:73:3e:fa:70:f2:
                    94:6f:1e:de:a6:14:a5:97:9b:c7:00:10:28:fe:10:
                    18:aa:a9:9a:b2:fe:a5:2b:70:48:74:28:63:3e:d0:
                    8e:c9
                Exponent: 65537 (0x10001)
        X509v3 extensions:
            X509v3 Basic Constraints: 
                CA:FALSE
            X509v3 Subject Key Identifier: 
                89:36:AF:B7:21:69:09:8E:8E:6F:C3:EE:FE:EB:38:91:40:00:C5:5D
            X509v3 Authority Key Identifier: 
                keyid:C8:27:DA:64:30:08:40:08:4A:25:CC:DC:43:99:DE:77:A1:FE:77:BD
                DirName:/C=US/ST=California/L=San Francisco/O=Copyleft Certificate Co/OU=My Organizational Unit/CN=ChangeMe/emailAddress=me@example.net
                serial:A9:48:C3:7E:FC:1B:B0:A1

            X509v3 Extended Key Usage: 
                TLS Web Client Authentication
            X509v3 Key Usage: 
                Digital Signature
    Signature Algorithm: sha256WithRSAEncryption
         32:57:90:70:82:8b:99:17:96:0e:0d:a5:e9:05:66:d7:3d:81:
         16:7d:5b:f5:eb:be:ae:54:a1:38:1d:a7:fd:3a:55:96:e6:14:
         bb:11:7a:f0:bb:74:89:a4:83:09:ee:3e:02:34:1d:ad:72:3e:
         c5:2b:4e:a3:9e:31:86:92:0b:e3:f1:f8:1e:84:9d:07:bd:98:
         a7:d0:43:33:da:73:2b:f5:7a:48:f4:4b:2a:4e:17:67:72:08:
         6e:50:39:02:9c:b1:1f:4e:7a:8c:96:93:ff:22:9a:36:17:53:
         b1:c3:e3:df:a1:4c:c8:6d:48:f7:6c:3e:6d:53:ab:42:42:85:
         87:7e:04:0e:9f:80:5c:e3:eb:de:75:7f:bd:e5:cb:3c:2f:0f:
         e9:1a:52:00:2b:24:f5:82:98:a8:34:d4:30:d7:b6:45:99:33:
         a6:88:65:4b:ed:80:cc:da:49:fa:c3:4c:4c:39:33:8a:6a:9c:
         26:dc:e7:d8:7f:00:3f:f1:63:c8:be:ec:10:67:5d:2d:04:7e:
         07:97:43:7a:9d:2d:17:af:70:0d:d1:78:c4:2d:4c:55:3b:57:
         60:68:a0:44:e1:50:8f:db:b8:39:c4:3f:5e:e4:5d:10:1a:bd:
         09:6a:3a:a8:40:e0:f6:5c:65:27:58:25:8d:e3:77:fb:1e:5c:
         ec:80:a3:6d
-----BEGIN CERTIFICATE-----
MIIFKjCCBBKgAwIBAgIRAPMXQXyHu0OVT46qMneiSTcwDQYJKoZIhvcNAQELBQAw
ga8xCzAJBgNVBAYTAlVTMRMwEQYDVQQIDApDYWxpZm9ybmlhMRYwFAYDVQQHDA1T
YW4gRnJhbmNpc2NvMSAwHgYDVQQKDBdDb3B5bGVmdCBDZXJ0aWZpY2F0ZSBDbzEf
MB0GA1UECwwWTXkgT3JnYW5pemF0aW9uYWwgVW5pdDERMA8GA1UEAwwIQ2hhbmdl
TWUxHTAbBgkqhkiG9w0BCQEWDm1lQGV4YW1wbGUubmV0MB4XDTIzMTExMDE3NDQ0
MloXDTI0MTEwOTE3NDQ0MlowgbUxCzAJBgNVBAYTAlVTMQswCQYDVQQIDAJPSDET
MBEGA1UEBwwKQ2luY2lubmF0aTEhMB8GA1UECgwYVW5pdmVyc2l0eSBvZiBDaW5j
aW5uYXRpMSQwIgYDVQQLDBtEZXB0X0VsZWNfQ29tXyBFbmdfQ29tX1NjaS4xETAP
BgNVBAMMCGNsaWVudDk0MSgwJgYJKoZIhvcNAQkBFhlmcmFuY29AZ2F1c3MuZWNl
Y3MudWMuZWR1MIIBIjANBgkqhkiG9w0BAQEFAAOCAQ8AMIIBCgKCAQEAukb6YjMt
gujR7JkEZMw5JO2okKYR3OM1sD2JptPgN6pOUgcQdw4kChJ1f08YLkHQS3G+PNs0
aUvxJ1rc68YMtWQ9IEU+Hy19qs18c9LdZpXoUGG3LQVtf88uxQH39+h7TQkORZsC
y67fMKtwSG+/sEI7PHTi0i6Nm0asPwg4UTOkFM6vDbX/unqnJuYvGDIkw2YhAdAn
2G4RCnF/NSb5kxv9CpcatR7iqYa+uOrOGzkkx6Y7TQMXqZ3iwLukCe9PLWvZYs4P
ZaZMzoS6r1deFBGmWLYVHdkBqU+Dcz76cPKUbx7ephSll5vHABAo/hAYqqmasv6l
K3BIdChjPtCOyQIDAQABo4IBNzCCATMwCQYDVR0TBAIwADAdBgNVHQ4EFgQUiTav
tyFpCY6Ob8Pu/us4kUAAxV0wgeQGA1UdIwSB3DCB2YAUyCfaZDAIQAhKJczcQ5ne
d6H+d72hgbWkgbIwga8xCzAJBgNVBAYTAlVTMRMwEQYDVQQIDApDYWxpZm9ybmlh
MRYwFAYDVQQHDA1TYW4gRnJhbmNpc2NvMSAwHgYDVQQKDBdDb3B5bGVmdCBDZXJ0
aWZpY2F0ZSBDbzEfMB0GA1UECwwWTXkgT3JnYW5pemF0aW9uYWwgVW5pdDERMA8G
A1UEAwwIQ2hhbmdlTWUxHTAbBgkqhkiG9w0BCQEWDm1lQGV4YW1wbGUubmV0ggkA
qUjDfvwbsKEwEwYDVR0lBAwwCgYIKwYBBQUHAwIwCwYDVR0PBAQDAgeAMA0GCSqG
SIb3DQEBCwUAA4IBAQAyV5BwgouZF5YODaXpBWbXPYEWfVv1676uVKE4Haf9OlWW
5hS7EXrwu3SJpIMJ7j4CNB2tcj7FK06jnjGGkgvj8fgehJ0HvZin0EMz2nMr9XpI
9EsqThdncghuUDkCnLEfTnqMlpP/Ipo2F1Oxw+PfoUzIbUj3bD5tU6tCQoWHfgQO
n4Bc4+vedX+95cs8Lw/pGlIAKyT1gpioNNQw17ZFmTOmiGVL7YDM2kn6w0xMOTOK
apwm3OfYfwA/8WPIvuwQZ10tBH4Hl0N6nS0Xr3AN0XjELUxVO1dgaKBE4VCP27g5
xD9e5F0QGr0JajqoQOD2XGUnWCWN43f7HlzsgKNt
-----END CERTIFICATE-----
