Certificate:
    Data:
        Version: 3 (0x2)
        Serial Number:
            8b:2a:b1:ff:64:49:70:ed:85:7e:42:8d:b5:b2:07:7c
    Signature Algorithm: sha256WithRSAEncryption
        Issuer: C=US, ST=California, L=San Francisco, O=Copyleft Certificate Co, OU=My Organizational Unit, CN=ChangeMe/emailAddress=me@example.net
        Validity
            Not Before: Nov 10 17:43:29 2023 GMT
            Not After : Nov  9 17:43:29 2024 GMT
        Subject: C=US, ST=OH, L=Cincinnati, O=University of Cincinnati, OU=Dept_Elec_Com_ Eng_Com_Sci., CN=client76/emailAddress=franco@gauss.ececs.uc.edu
        Subject Public Key Info:
            Public Key Algorithm: rsaEncryption
                Public-Key: (2048 bit)
                Modulus:
                    00:ae:53:b4:48:3a:fc:ce:e7:5d:42:28:8e:45:23:
                    0a:b8:22:58:c0:a6:b6:2c:88:17:9d:69:ce:3d:07:
                    3a:2f:06:1e:47:76:9c:93:ca:ff:78:3f:de:fc:a8:
                    1d:66:87:77:12:aa:12:2b:9e:84:b2:96:55:59:4f:
                    cb:54:4e:b1:5f:88:4e:2b:70:82:5e:39:29:db:40:
                    9f:5d:a6:d7:de:cb:34:e5:ea:15:03:1f:da:ff:eb:
                    dd:88:f4:92:fa:e7:cb:56:39:ea:e1:47:cd:8c:c2:
                    15:f1:73:06:9d:62:fb:d3:13:22:a5:1f:9e:52:78:
                    0f:ad:4f:83:c1:16:23:12:e0:be:16:8e:84:cd:2e:
                    c3:cc:c1:54:64:70:27:81:c0:ea:0f:a2:42:ae:6c:
                    b6:37:21:d0:d8:11:01:96:3c:cd:e6:a5:79:3e:15:
                    63:13:d2:99:7c:a6:bb:c3:26:7c:3f:33:80:81:2d:
                    3a:7a:e5:ce:9b:f8:6a:32:1e:ed:1e:b2:b5:f9:16:
                    9e:34:5a:85:f0:89:78:c5:29:5e:c9:da:f8:0b:18:
                    25:78:eb:15:f7:db:67:87:f3:9b:ac:cc:ab:5b:ae:
                    33:30:3e:99:df:d3:f9:c8:6c:18:d0:39:91:be:1d:
                    0c:14:52:1a:b7:16:43:a0:b1:7d:95:17:d2:99:d4:
                    df:35
                Exponent: 65537 (0x10001)
        X509v3 extensions:
            X509v3 Basic Constraints: 
                CA:FALSE
            X509v3 Subject Key Identifier: 
                3E:B4:3D:BC:96:81:F2:B0:1E:5E:32:93:0B:2A:33:6E:11:F7:13:12
            X509v3 Authority Key Identifier: 
                keyid:C8:27:DA:64:30:08:40:08:4A:25:CC:DC:43:99:DE:77:A1:FE:77:BD
                DirName:/C=US/ST=California/L=San Francisco/O=Copyleft Certificate Co/OU=My Organizational Unit/CN=ChangeMe/emailAddress=me@example.net
                serial:A9:48:C3:7E:FC:1B:B0:A1

            X509v3 Extended Key Usage: 
                TLS Web Client Authentication
            X509v3 Key Usage: 
                Digital Signature
    Signature Algorithm: sha256WithRSAEncryption
         94:35:ff:5e:dc:f3:dc:a4:33:38:b9:73:4b:ea:3b:9f:20:87:
         f8:5a:2c:ff:b4:00:c4:58:9a:c3:d2:44:02:01:92:5d:15:85:
         79:0d:40:e4:3b:6b:4c:c8:93:37:a9:ee:6a:23:4f:d4:2e:cb:
         38:d2:30:50:b9:6d:d6:6b:3f:bc:fb:3f:e6:95:10:9b:57:8e:
         0b:fb:53:f0:8b:1c:dd:72:34:0c:d9:08:85:83:67:59:20:9c:
         2e:16:01:b8:b5:df:5e:1c:28:a8:1b:31:e5:17:ee:7b:45:b0:
         c7:8d:ad:eb:72:ea:b3:cc:86:6f:37:dd:50:27:fa:ae:a8:cf:
         55:e8:38:af:39:1f:70:b5:0c:bf:7b:ce:07:cb:40:ac:59:29:
         e9:bd:20:49:cd:98:1d:17:c5:74:b3:b7:d3:48:ae:f3:7c:71:
         15:47:bf:8f:e8:4f:ac:45:1c:c4:f2:f1:d0:35:45:dd:b1:e2:
         52:a3:22:6d:8f:4a:ab:50:9c:e2:65:96:af:3c:9e:04:eb:a4:
         52:d9:fa:40:08:a5:c2:63:e2:04:21:e9:e7:07:20:f0:97:18:
         8c:30:61:a4:ca:ac:c1:17:cf:ab:c6:91:36:ff:f4:5d:d0:3c:
         4a:1c:45:b5:02:67:5c:24:17:0d:26:f6:4c:99:7d:08:e7:86:
         70:07:21:77
-----BEGIN CERTIFICATE-----
MIIFKjCCBBKgAwIBAgIRAIsqsf9kSXDthX5CjbWyB3wwDQYJKoZIhvcNAQELBQAw
ga8xCzAJBgNVBAYTAlVTMRMwEQYDVQQIDApDYWxpZm9ybmlhMRYwFAYDVQQHDA1T
YW4gRnJhbmNpc2NvMSAwHgYDVQQKDBdDb3B5bGVmdCBDZXJ0aWZpY2F0ZSBDbzEf
MB0GA1UECwwWTXkgT3JnYW5pemF0aW9uYWwgVW5pdDERMA8GA1UEAwwIQ2hhbmdl
TWUxHTAbBgkqhkiG9w0BCQEWDm1lQGV4YW1wbGUubmV0MB4XDTIzMTExMDE3NDMy
OVoXDTI0MTEwOTE3NDMyOVowgbUxCzAJBgNVBAYTAlVTMQswCQYDVQQIDAJPSDET
MBEGA1UEBwwKQ2luY2lubmF0aTEhMB8GA1UECgwYVW5pdmVyc2l0eSBvZiBDaW5j
aW5uYXRpMSQwIgYDVQQLDBtEZXB0X0VsZWNfQ29tXyBFbmdfQ29tX1NjaS4xETAP
BgNVBAMMCGNsaWVudDc2MSgwJgYJKoZIhvcNAQkBFhlmcmFuY29AZ2F1c3MuZWNl
Y3MudWMuZWR1MIIBIjANBgkqhkiG9w0BAQEFAAOCAQ8AMIIBCgKCAQEArlO0SDr8
zuddQiiORSMKuCJYwKa2LIgXnWnOPQc6LwYeR3ack8r/eD/e/KgdZod3EqoSK56E
spZVWU/LVE6xX4hOK3CCXjkp20CfXabX3ss05eoVAx/a/+vdiPSS+ufLVjnq4UfN
jMIV8XMGnWL70xMipR+eUngPrU+DwRYjEuC+Fo6EzS7DzMFUZHAngcDqD6JCrmy2
NyHQ2BEBljzN5qV5PhVjE9KZfKa7wyZ8PzOAgS06euXOm/hqMh7tHrK1+RaeNFqF
8Il4xSleydr4CxgleOsV99tnh/ObrMyrW64zMD6Z39P5yGwY0DmRvh0MFFIatxZD
oLF9lRfSmdTfNQIDAQABo4IBNzCCATMwCQYDVR0TBAIwADAdBgNVHQ4EFgQUPrQ9
vJaB8rAeXjKTCyozbhH3ExIwgeQGA1UdIwSB3DCB2YAUyCfaZDAIQAhKJczcQ5ne
d6H+d72hgbWkgbIwga8xCzAJBgNVBAYTAlVTMRMwEQYDVQQIDApDYWxpZm9ybmlh
MRYwFAYDVQQHDA1TYW4gRnJhbmNpc2NvMSAwHgYDVQQKDBdDb3B5bGVmdCBDZXJ0
aWZpY2F0ZSBDbzEfMB0GA1UECwwWTXkgT3JnYW5pemF0aW9uYWwgVW5pdDERMA8G
A1UEAwwIQ2hhbmdlTWUxHTAbBgkqhkiG9w0BCQEWDm1lQGV4YW1wbGUubmV0ggkA
qUjDfvwbsKEwEwYDVR0lBAwwCgYIKwYBBQUHAwIwCwYDVR0PBAQDAgeAMA0GCSqG
SIb3DQEBCwUAA4IBAQCUNf9e3PPcpDM4uXNL6jufIIf4Wiz/tADEWJrD0kQCAZJd
FYV5DUDkO2tMyJM3qe5qI0/ULss40jBQuW3Waz+8+z/mlRCbV44L+1PwixzdcjQM
2QiFg2dZIJwuFgG4td9eHCioGzHlF+57RbDHja3rcuqzzIZvN91QJ/quqM9V6Div
OR9wtQy/e84Hy0CsWSnpvSBJzZgdF8V0s7fTSK7zfHEVR7+P6E+sRRzE8vHQNUXd
seJSoyJtj0qrUJziZZavPJ4E66RS2fpACKXCY+IEIennByDwlxiMMGGkyqzBF8+r
xpE2//Rd0DxKHEW1AmdcJBcNJvZMmX0I54ZwByF3
-----END CERTIFICATE-----
