Certificate:
    Data:
        Version: 3 (0x2)
        Serial Number:
            c1:e0:af:ff:0b:7f:ff:7a:9a:05:80:44:81:cd:e4:ee
    Signature Algorithm: sha256WithRSAEncryption
        Issuer: C=US, ST=California, L=San Francisco, O=Copyleft Certificate Co, OU=My Organizational Unit, CN=ChangeMe/emailAddress=me@example.net
        Validity
            Not Before: Nov 11 02:00:07 2023 GMT
            Not After : Nov 10 02:00:07 2024 GMT
        Subject: C=US, ST=OH, L=Cincinnati, O=University of Cincinnati, OU=Dept. Elec. Comp. Eng. Comp. Sci., CN=client31/emailAddress=franco@gauss.ececs.uc.edu
        Subject Public Key Info:
            Public Key Algorithm: rsaEncryption
                Public-Key: (2048 bit)
                Modulus:
                    00:d0:33:e0:af:f4:1d:9c:d0:fa:de:66:0f:49:36:
                    b7:36:1a:97:7c:8c:a4:64:94:cd:ef:ba:12:47:b9:
                    a4:f1:3b:44:d7:0b:82:16:1a:4f:85:eb:4e:7d:19:
                    a5:9b:12:49:bd:2c:e3:30:e9:e3:d3:ef:21:14:ca:
                    28:af:81:7e:1a:30:6f:f0:59:78:17:c5:24:e0:33:
                    e1:e9:f3:7a:21:2b:3f:0d:f4:ec:45:db:e3:b5:12:
                    61:d2:14:9b:f6:fa:44:64:5c:7b:61:67:58:90:70:
                    00:36:96:5e:a4:a4:bd:a8:1d:83:a6:23:83:f3:15:
                    d8:99:64:9f:41:8b:db:7b:2d:73:ab:59:cb:2b:0f:
                    fd:7a:89:4c:84:4e:4a:11:eb:78:44:9f:67:8a:24:
                    ef:a6:23:57:18:8d:56:1a:8c:0c:41:e8:8d:e6:3d:
                    e8:b3:cf:1d:88:3d:02:1b:a0:ef:82:de:2b:a0:39:
                    5e:e4:60:ad:1a:09:5f:6e:6a:37:d2:78:55:60:08:
                    da:f0:3a:e9:17:f6:8e:f5:66:d4:e6:a6:4c:6c:db:
                    c9:a9:57:c8:ea:10:b7:23:fc:67:70:e0:d1:de:19:
                    3f:e0:c5:91:c5:25:a8:5a:65:f1:c6:0e:b7:b1:ca:
                    78:c9:1f:28:ad:2a:a3:5b:f1:07:e0:c7:04:38:ff:
                    86:e1
                Exponent: 65537 (0x10001)
        X509v3 extensions:
            X509v3 Basic Constraints: 
                CA:FALSE
            X509v3 Subject Key Identifier: 
                7F:9D:89:1D:16:22:CE:F2:14:5D:41:C0:0C:8E:17:3B:8E:7C:77:EF
            X509v3 Authority Key Identifier: 
                keyid:7B:0F:93:16:64:9F:71:41:D3:1B:FB:ED:6A:70:9B:CA:2E:70:F0:4B
                DirName:/C=US/ST=California/L=San Francisco/O=Copyleft Certificate Co/OU=My Organizational Unit/CN=ChangeMe/emailAddress=me@example.net
                serial:B9:F2:4E:2C:79:B3:D4:6C

            X509v3 Extended Key Usage: 
                TLS Web Client Authentication
            X509v3 Key Usage: 
                Digital Signature
    Signature Algorithm: sha256WithRSAEncryption
         24:9e:e1:9b:37:17:eb:0b:42:00:5a:65:44:e1:b7:48:e9:ea:
         cd:dd:84:29:12:55:00:a1:93:49:93:90:79:f6:1d:3f:af:8a:
         28:ae:1d:59:72:3d:4b:a0:20:a2:13:f2:7b:ac:70:e2:96:9c:
         13:cf:35:02:da:ce:2a:ab:48:15:0f:b6:6c:0d:32:c3:b4:29:
         0e:ca:0e:b5:7e:7f:18:60:41:47:84:f8:13:91:73:fd:d0:7d:
         2d:0c:1b:e8:74:09:62:5f:7d:aa:ef:d3:0a:7a:30:49:04:f0:
         d0:0a:b3:a7:0a:42:02:48:88:b0:a0:ed:32:b0:3e:b8:f3:35:
         d2:7d:b1:4f:60:94:79:86:ca:37:32:c6:03:6c:5e:0f:22:9b:
         88:9c:8e:a1:f2:9a:08:70:ea:ac:3e:aa:ba:fd:87:77:40:45:
         fe:1d:dd:ba:ad:fc:3e:c1:c7:90:41:1d:dc:30:07:ed:28:80:
         e9:8b:f2:06:ae:3b:6c:a3:c1:cc:43:4d:4c:e7:47:d7:8e:90:
         71:7a:6e:45:b6:0b:77:08:4d:30:92:2a:ac:d0:44:4a:66:39:
         7c:b6:e4:15:90:d8:5f:8c:5e:b6:f3:55:de:f9:1e:98:88:5c:
         60:fa:fc:39:b4:4d:a1:99:62:3b:db:93:9e:66:60:c7:4e:97:
         3b:58:2b:1d
-----BEGIN CERTIFICATE-----
MIIFMDCCBBigAwIBAgIRAMHgr/8Lf/96mgWARIHN5O4wDQYJKoZIhvcNAQELBQAw
ga8xCzAJBgNVBAYTAlVTMRMwEQYDVQQIDApDYWxpZm9ybmlhMRYwFAYDVQQHDA1T
YW4gRnJhbmNpc2NvMSAwHgYDVQQKDBdDb3B5bGVmdCBDZXJ0aWZpY2F0ZSBDbzEf
MB0GA1UECwwWTXkgT3JnYW5pemF0aW9uYWwgVW5pdDERMA8GA1UEAwwIQ2hhbmdl
TWUxHTAbBgkqhkiG9w0BCQEWDm1lQGV4YW1wbGUubmV0MB4XDTIzMTExMTAyMDAw
N1oXDTI0MTExMDAyMDAwN1owgbsxCzAJBgNVBAYTAlVTMQswCQYDVQQIDAJPSDET
MBEGA1UEBwwKQ2luY2lubmF0aTEhMB8GA1UECgwYVW5pdmVyc2l0eSBvZiBDaW5j
aW5uYXRpMSowKAYDVQQLDCFEZXB0LiBFbGVjLiBDb21wLiBFbmcuIENvbXAuIFNj
aS4xETAPBgNVBAMMCGNsaWVudDMxMSgwJgYJKoZIhvcNAQkBFhlmcmFuY29AZ2F1
c3MuZWNlY3MudWMuZWR1MIIBIjANBgkqhkiG9w0BAQEFAAOCAQ8AMIIBCgKCAQEA
0DPgr/QdnND63mYPSTa3NhqXfIykZJTN77oSR7mk8TtE1wuCFhpPhetOfRmlmxJJ
vSzjMOnj0+8hFMoor4F+GjBv8Fl4F8Uk4DPh6fN6ISs/DfTsRdvjtRJh0hSb9vpE
ZFx7YWdYkHAANpZepKS9qB2DpiOD8xXYmWSfQYvbey1zq1nLKw/9eolMhE5KEet4
RJ9niiTvpiNXGI1WGowMQeiN5j3os88diD0CG6Dvgt4roDle5GCtGglfbmo30nhV
YAja8DrpF/aO9WbU5qZMbNvJqVfI6hC3I/xncODR3hk/4MWRxSWoWmXxxg63scp4
yR8orSqjW/EH4McEOP+G4QIDAQABo4IBNzCCATMwCQYDVR0TBAIwADAdBgNVHQ4E
FgQUf52JHRYizvIUXUHADI4XO458d+8wgeQGA1UdIwSB3DCB2YAUew+TFmSfcUHT
G/vtanCbyi5w8EuhgbWkgbIwga8xCzAJBgNVBAYTAlVTMRMwEQYDVQQIDApDYWxp
Zm9ybmlhMRYwFAYDVQQHDA1TYW4gRnJhbmNpc2NvMSAwHgYDVQQKDBdDb3B5bGVm
dCBDZXJ0aWZpY2F0ZSBDbzEfMB0GA1UECwwWTXkgT3JnYW5pemF0aW9uYWwgVW5p
dDERMA8GA1UEAwwIQ2hhbmdlTWUxHTAbBgkqhkiG9w0BCQEWDm1lQGV4YW1wbGUu
bmV0ggkAufJOLHmz1GwwEwYDVR0lBAwwCgYIKwYBBQUHAwIwCwYDVR0PBAQDAgeA
MA0GCSqGSIb3DQEBCwUAA4IBAQAknuGbNxfrC0IAWmVE4bdI6erN3YQpElUAoZNJ
k5B59h0/r4oorh1Zcj1LoCCiE/J7rHDilpwTzzUC2s4qq0gVD7ZsDTLDtCkOyg61
fn8YYEFHhPgTkXP90H0tDBvodAliX32q79MKejBJBPDQCrOnCkICSIiwoO0ysD64
8zXSfbFPYJR5hso3MsYDbF4PIpuInI6h8poIcOqsPqq6/Yd3QEX+Hd26rfw+wceQ
QR3cMAftKIDpi/IGrjtso8HMQ01M50fXjpBxem5Ftgt3CE0wkiqs0ERKZjl8tuQV
kNhfjF6281Xe+R6YiFxg+vw5tE2hmWI725OeZmDHTpc7WCsd
-----END CERTIFICATE-----
