Certificate:
    Data:
        Version: 3 (0x2)
        Serial Number:
            a6:2b:36:2a:d3:f5:ed:5c:ce:37:b2:8e:c8:3a:80:1a
    Signature Algorithm: sha256WithRSAEncryption
        Issuer: C=US, ST=California, L=San Francisco, O=Copyleft Certificate Co, OU=My Organizational Unit, CN=ChangeMe/emailAddress=me@example.net
        Validity
            Not Before: Nov 11 01:43:13 2023 GMT
            Not After : Nov 10 01:43:13 2024 GMT
        Subject: C=US, ST=OH, L=Cincinnati, O=University of Cincinnati, OU=Dept. Elec. Comp. Eng. Comp. Sci., CN=client53/emailAddress=franco@gauss.ececs.uc.edu
        Subject Public Key Info:
            Public Key Algorithm: rsaEncryption
                Public-Key: (2048 bit)
                Modulus:
                    00:c7:46:f7:6d:c0:33:a4:0c:24:d3:19:df:9d:8f:
                    3a:95:b8:73:d7:1c:61:6a:5b:36:4e:6d:22:da:b5:
                    0e:56:6b:a7:79:16:30:ba:17:54:f7:4d:c4:c2:99:
                    8c:0a:e3:f8:e5:df:82:a3:1a:6d:68:5a:c8:21:c2:
                    d4:d7:99:32:f5:64:e0:62:f3:59:17:33:81:7e:c5:
                    82:69:5f:23:62:2c:1b:6e:43:9c:46:bb:a6:89:7a:
                    9c:c3:b9:67:1c:ba:be:40:7b:05:41:7a:e0:c6:b3:
                    1a:e4:5e:fe:4f:e0:0d:e0:f5:19:cd:12:15:11:d3:
                    6c:ab:d1:68:bd:ec:f9:c9:5d:1a:c9:65:42:bf:93:
                    a4:48:be:2f:36:cf:07:c8:18:f5:55:3c:8d:b6:7b:
                    1f:1b:41:73:45:f2:09:9a:b6:5f:20:48:f0:fe:e5:
                    17:46:4f:c3:20:6f:fb:c0:52:65:cc:cb:59:1a:d0:
                    b4:b5:3b:1c:61:68:e1:43:c2:5f:55:c6:27:c5:7e:
                    38:da:47:72:29:8a:ff:12:1b:f7:ff:c5:df:75:53:
                    b8:7f:61:25:8e:c2:a2:9e:f3:2d:70:7b:99:28:d1:
                    ec:56:f3:2f:98:25:62:4f:6c:02:c5:41:b0:53:0c:
                    18:da:4f:7b:f9:e8:37:c9:c0:b1:89:bd:a7:5c:b5:
                    80:59
                Exponent: 65537 (0x10001)
        X509v3 extensions:
            X509v3 Basic Constraints: 
                CA:FALSE
            X509v3 Subject Key Identifier: 
                76:1D:3D:1C:4E:DA:79:AE:04:98:E4:63:42:6B:45:BB:3E:BC:58:1A
            X509v3 Authority Key Identifier: 
                keyid:73:DE:A0:43:0F:AE:B1:9E:E8:59:69:18:50:A1:1A:1F:D4:A1:E3:F0
                DirName:/C=US/ST=California/L=San Francisco/O=Copyleft Certificate Co/OU=My Organizational Unit/CN=ChangeMe/emailAddress=me@example.net
                serial:E9:BB:CB:16:C5:32:BE:3B

            X509v3 Extended Key Usage: 
                TLS Web Client Authentication
            X509v3 Key Usage: 
                Digital Signature
    Signature Algorithm: sha256WithRSAEncryption
         bc:1b:ea:c1:5b:6d:72:4c:39:63:02:f9:49:ae:0c:aa:93:8f:
         d3:25:c0:29:9f:b6:12:7c:48:36:8f:6c:ae:32:f5:a1:29:a3:
         e1:23:29:ee:9f:b6:97:e7:a1:40:78:a8:a7:7a:cb:89:91:c2:
         b6:26:58:a5:89:7d:86:02:46:c2:d8:cc:b2:3e:79:48:5f:7c:
         f7:1b:99:6c:37:92:82:57:30:62:e5:c3:66:6d:67:9a:ce:96:
         d8:80:e1:18:16:ab:5a:68:51:1c:a5:41:11:6a:65:10:44:23:
         1b:5d:73:9d:ee:02:09:69:60:eb:00:8f:7d:46:b5:84:7a:23:
         81:7c:ee:12:ac:91:37:6e:1e:fc:6c:10:c4:f5:1a:c7:65:d9:
         c6:1a:81:ee:86:f7:9a:5d:76:2c:eb:d9:c9:f9:f3:96:3b:ae:
         bf:4a:0d:7a:df:be:07:5e:97:e9:30:d4:98:c4:cc:37:a8:d0:
         51:11:25:2c:95:3a:e2:27:bf:e9:94:8e:84:d7:42:9c:8c:e4:
         e2:a2:23:6a:bc:bb:f4:cb:89:ca:62:56:78:82:16:5f:25:f2:
         f3:81:7b:db:ca:e7:b0:e7:e7:6e:67:60:27:9e:a5:84:2e:21:
         d8:e2:0e:57:f6:b3:d5:57:5c:ed:65:e9:25:08:0f:36:72:ed:
         33:aa:ef:6d
-----BEGIN CERTIFICATE-----
MIIFMDCCBBigAwIBAgIRAKYrNirT9e1czjeyjsg6gBowDQYJKoZIhvcNAQELBQAw
ga8xCzAJBgNVBAYTAlVTMRMwEQYDVQQIDApDYWxpZm9ybmlhMRYwFAYDVQQHDA1T
YW4gRnJhbmNpc2NvMSAwHgYDVQQKDBdDb3B5bGVmdCBDZXJ0aWZpY2F0ZSBDbzEf
MB0GA1UECwwWTXkgT3JnYW5pemF0aW9uYWwgVW5pdDERMA8GA1UEAwwIQ2hhbmdl
TWUxHTAbBgkqhkiG9w0BCQEWDm1lQGV4YW1wbGUubmV0MB4XDTIzMTExMTAxNDMx
M1oXDTI0MTExMDAxNDMxM1owgbsxCzAJBgNVBAYTAlVTMQswCQYDVQQIDAJPSDET
MBEGA1UEBwwKQ2luY2lubmF0aTEhMB8GA1UECgwYVW5pdmVyc2l0eSBvZiBDaW5j
aW5uYXRpMSowKAYDVQQLDCFEZXB0LiBFbGVjLiBDb21wLiBFbmcuIENvbXAuIFNj
aS4xETAPBgNVBAMMCGNsaWVudDUzMSgwJgYJKoZIhvcNAQkBFhlmcmFuY29AZ2F1
c3MuZWNlY3MudWMuZWR1MIIBIjANBgkqhkiG9w0BAQEFAAOCAQ8AMIIBCgKCAQEA
x0b3bcAzpAwk0xnfnY86lbhz1xxhals2Tm0i2rUOVmuneRYwuhdU903EwpmMCuP4
5d+CoxptaFrIIcLU15ky9WTgYvNZFzOBfsWCaV8jYiwbbkOcRrumiXqcw7lnHLq+
QHsFQXrgxrMa5F7+T+AN4PUZzRIVEdNsq9Fovez5yV0ayWVCv5OkSL4vNs8HyBj1
VTyNtnsfG0FzRfIJmrZfIEjw/uUXRk/DIG/7wFJlzMtZGtC0tTscYWjhQ8JfVcYn
xX442kdyKYr/Ehv3/8XfdVO4f2EljsKinvMtcHuZKNHsVvMvmCViT2wCxUGwUwwY
2k97+eg3ycCxib2nXLWAWQIDAQABo4IBNzCCATMwCQYDVR0TBAIwADAdBgNVHQ4E
FgQUdh09HE7aea4EmORjQmtFuz68WBowgeQGA1UdIwSB3DCB2YAUc96gQw+usZ7o
WWkYUKEaH9Sh4/ChgbWkgbIwga8xCzAJBgNVBAYTAlVTMRMwEQYDVQQIDApDYWxp
Zm9ybmlhMRYwFAYDVQQHDA1TYW4gRnJhbmNpc2NvMSAwHgYDVQQKDBdDb3B5bGVm
dCBDZXJ0aWZpY2F0ZSBDbzEfMB0GA1UECwwWTXkgT3JnYW5pemF0aW9uYWwgVW5p
dDERMA8GA1UEAwwIQ2hhbmdlTWUxHTAbBgkqhkiG9w0BCQEWDm1lQGV4YW1wbGUu
bmV0ggkA6bvLFsUyvjswEwYDVR0lBAwwCgYIKwYBBQUHAwIwCwYDVR0PBAQDAgeA
MA0GCSqGSIb3DQEBCwUAA4IBAQC8G+rBW21yTDljAvlJrgyqk4/TJcApn7YSfEg2
j2yuMvWhKaPhIynun7aX56FAeKinesuJkcK2JliliX2GAkbC2MyyPnlIX3z3G5ls
N5KCVzBi5cNmbWeazpbYgOEYFqtaaFEcpUERamUQRCMbXXOd7gIJaWDrAI99RrWE
eiOBfO4SrJE3bh78bBDE9RrHZdnGGoHuhveaXXYs69nJ+fOWO66/Sg16374HXpfp
MNSYxMw3qNBRESUslTriJ7/plI6E10KcjOTioiNqvLv0y4nKYlZ4ghZfJfLzgXvb
yuew5+duZ2AnnqWELiHY4g5X9rPVV1ztZeklCA82cu0zqu9t
-----END CERTIFICATE-----
