Certificate:
    Data:
        Version: 3 (0x2)
        Serial Number:
            3b:b9:f3:48:33:3f:d8:37:7f:d8:24:c6:3e:99:f3:57
    Signature Algorithm: sha256WithRSAEncryption
        Issuer: C=US, ST=California, L=San Francisco, O=Copyleft Certificate Co, OU=My Organizational Unit, CN=ChangeMe/emailAddress=me@example.net
        Validity
            Not Before: Nov 11 01:46:10 2023 GMT
            Not After : Nov 10 01:46:10 2024 GMT
        Subject: C=US, ST=OH, L=Cincinnati, O=University of Cincinnati, OU=Dept. Elec. Comp. Eng. Comp. Sci., CN=client97/emailAddress=franco@gauss.ececs.uc.edu
        Subject Public Key Info:
            Public Key Algorithm: rsaEncryption
                Public-Key: (2048 bit)
                Modulus:
                    00:b0:46:02:af:85:0c:2e:c3:b6:ac:15:83:df:a5:
                    0a:e2:71:77:9a:c1:6a:47:3e:85:df:aa:40:e0:aa:
                    9a:ff:9e:d0:37:30:94:4b:44:ba:64:86:ef:92:d2:
                    27:27:af:bd:b6:7e:27:4c:35:c9:50:60:84:2d:ae:
                    0b:96:8b:3b:cd:7d:b2:a7:f2:fa:82:57:ca:06:77:
                    6c:12:b7:a3:02:23:b4:87:e9:04:f6:5b:0d:58:87:
                    3d:ee:e0:29:9f:3d:a5:92:0d:57:02:4b:25:6f:b6:
                    58:19:f4:85:58:54:d1:e6:f3:15:ab:18:36:b4:4f:
                    df:ab:f0:c4:89:e5:91:8f:f4:71:95:dc:b2:89:f7:
                    bb:81:b8:f9:13:16:79:75:d1:04:f5:ee:ad:4d:e2:
                    08:a7:fd:c4:24:eb:23:79:15:f5:90:8a:5b:f4:ad:
                    7e:71:05:98:84:07:ac:52:64:5c:ec:ae:ec:54:a6:
                    38:56:54:20:d5:39:d2:2a:82:73:21:64:14:66:11:
                    cc:c7:a9:80:44:2b:8c:12:dc:25:c1:3a:d9:16:c9:
                    6d:5f:ce:c8:19:56:91:69:16:f2:f4:f6:fc:62:fd:
                    c5:5e:1f:61:84:c6:e4:eb:bb:7f:5c:f9:dd:1e:47:
                    fe:d4:13:38:15:ba:d2:04:a1:fd:0d:49:b9:22:01:
                    9d:d3
                Exponent: 65537 (0x10001)
        X509v3 extensions:
            X509v3 Basic Constraints: 
                CA:FALSE
            X509v3 Subject Key Identifier: 
                25:BD:20:2D:31:3D:A5:3E:76:40:69:DF:69:48:D1:34:59:AF:EF:4C
            X509v3 Authority Key Identifier: 
                keyid:73:DE:A0:43:0F:AE:B1:9E:E8:59:69:18:50:A1:1A:1F:D4:A1:E3:F0
                DirName:/C=US/ST=California/L=San Francisco/O=Copyleft Certificate Co/OU=My Organizational Unit/CN=ChangeMe/emailAddress=me@example.net
                serial:E9:BB:CB:16:C5:32:BE:3B

            X509v3 Extended Key Usage: 
                TLS Web Client Authentication
            X509v3 Key Usage: 
                Digital Signature
    Signature Algorithm: sha256WithRSAEncryption
         3e:d9:8b:ed:b0:ea:92:46:2f:d4:f9:2f:22:d4:fd:43:56:60:
         07:02:b5:08:3d:6d:af:8f:c9:af:2d:41:f6:08:d0:eb:f2:43:
         65:cc:1a:08:8d:97:78:cf:10:e0:e8:fa:2e:ab:e6:55:92:cf:
         c7:47:cd:f9:dd:55:5a:42:a0:f2:37:ee:3a:50:9d:72:85:6b:
         b8:76:04:5c:3a:a8:00:fe:43:7a:ec:d5:16:5b:7a:61:c1:b0:
         24:93:6d:8f:13:83:6e:a0:19:8a:ac:68:3e:16:ce:3f:74:67:
         03:7a:aa:4a:ce:6a:03:7c:83:0a:19:8e:78:a8:08:4d:de:d9:
         44:3d:91:16:5d:fe:ba:e1:2d:85:ed:c5:81:08:f6:71:aa:28:
         a5:eb:9c:23:3d:e1:bf:ae:c9:00:44:71:14:00:25:c4:e8:2d:
         b0:a0:3e:dd:28:04:b6:54:37:ba:63:f4:c8:d4:d7:93:47:1c:
         94:2c:b1:d1:24:73:42:15:ca:43:51:ef:ed:34:72:4d:bf:71:
         e8:c3:c4:8c:3e:33:53:3f:d4:0b:da:91:6a:f6:0e:9c:10:25:
         ad:da:09:ad:d3:48:6f:ed:a4:99:6f:c5:1a:fa:5d:9f:8e:4f:
         3b:60:54:ae:e7:2a:55:fc:f9:cb:7f:69:94:71:d5:8f:a6:ab:
         ab:32:82:59
-----BEGIN CERTIFICATE-----
MIIFLzCCBBegAwIBAgIQO7nzSDM/2Dd/2CTGPpnzVzANBgkqhkiG9w0BAQsFADCB
rzELMAkGA1UEBhMCVVMxEzARBgNVBAgMCkNhbGlmb3JuaWExFjAUBgNVBAcMDVNh
biBGcmFuY2lzY28xIDAeBgNVBAoMF0NvcHlsZWZ0IENlcnRpZmljYXRlIENvMR8w
HQYDVQQLDBZNeSBPcmdhbml6YXRpb25hbCBVbml0MREwDwYDVQQDDAhDaGFuZ2VN
ZTEdMBsGCSqGSIb3DQEJARYObWVAZXhhbXBsZS5uZXQwHhcNMjMxMTExMDE0NjEw
WhcNMjQxMTEwMDE0NjEwWjCBuzELMAkGA1UEBhMCVVMxCzAJBgNVBAgMAk9IMRMw
EQYDVQQHDApDaW5jaW5uYXRpMSEwHwYDVQQKDBhVbml2ZXJzaXR5IG9mIENpbmNp
bm5hdGkxKjAoBgNVBAsMIURlcHQuIEVsZWMuIENvbXAuIEVuZy4gQ29tcC4gU2Np
LjERMA8GA1UEAwwIY2xpZW50OTcxKDAmBgkqhkiG9w0BCQEWGWZyYW5jb0BnYXVz
cy5lY2Vjcy51Yy5lZHUwggEiMA0GCSqGSIb3DQEBAQUAA4IBDwAwggEKAoIBAQCw
RgKvhQwuw7asFYPfpQricXeawWpHPoXfqkDgqpr/ntA3MJRLRLpkhu+S0icnr722
fidMNclQYIQtrguWizvNfbKn8vqCV8oGd2wSt6MCI7SH6QT2Ww1Yhz3u4CmfPaWS
DVcCSyVvtlgZ9IVYVNHm8xWrGDa0T9+r8MSJ5ZGP9HGV3LKJ97uBuPkTFnl10QT1
7q1N4gin/cQk6yN5FfWQilv0rX5xBZiEB6xSZFzsruxUpjhWVCDVOdIqgnMhZBRm
EczHqYBEK4wS3CXBOtkWyW1fzsgZVpFpFvL09vxi/cVeH2GExuTru39c+d0eR/7U
EzgVutIEof0NSbkiAZ3TAgMBAAGjggE3MIIBMzAJBgNVHRMEAjAAMB0GA1UdDgQW
BBQlvSAtMT2lPnZAad9pSNE0Wa/vTDCB5AYDVR0jBIHcMIHZgBRz3qBDD66xnuhZ
aRhQoRof1KHj8KGBtaSBsjCBrzELMAkGA1UEBhMCVVMxEzARBgNVBAgMCkNhbGlm
b3JuaWExFjAUBgNVBAcMDVNhbiBGcmFuY2lzY28xIDAeBgNVBAoMF0NvcHlsZWZ0
IENlcnRpZmljYXRlIENvMR8wHQYDVQQLDBZNeSBPcmdhbml6YXRpb25hbCBVbml0
MREwDwYDVQQDDAhDaGFuZ2VNZTEdMBsGCSqGSIb3DQEJARYObWVAZXhhbXBsZS5u
ZXSCCQDpu8sWxTK+OzATBgNVHSUEDDAKBggrBgEFBQcDAjALBgNVHQ8EBAMCB4Aw
DQYJKoZIhvcNAQELBQADggEBAD7Zi+2w6pJGL9T5LyLU/UNWYAcCtQg9ba+Pya8t
QfYI0OvyQ2XMGgiNl3jPEODo+i6r5lWSz8dHzfndVVpCoPI37jpQnXKFa7h2BFw6
qAD+Q3rs1RZbemHBsCSTbY8Tg26gGYqsaD4Wzj90ZwN6qkrOagN8gwoZjnioCE3e
2UQ9kRZd/rrhLYXtxYEI9nGqKKXrnCM94b+uyQBEcRQAJcToLbCgPt0oBLZUN7pj
9MjU15NHHJQssdEkc0IVykNR7+00ck2/cejDxIw+M1M/1AvakWr2DpwQJa3aCa3T
SG/tpJlvxRr6XZ+OTztgVK7nKlX8+ct/aZRx1Y+mq6syglk=
-----END CERTIFICATE-----
