Certificate:
    Data:
        Version: 3 (0x2)
        Serial Number:
            ea:a0:2d:ce:f5:ae:82:b8:e2:00:ed:1a:2c:2e:b7:d1
    Signature Algorithm: sha256WithRSAEncryption
        Issuer: C=US, ST=California, L=San Francisco, O=Copyleft Certificate Co, OU=My Organizational Unit, CN=ChangeMe/emailAddress=me@example.net
        Validity
            Not Before: Nov 11 02:00:55 2023 GMT
            Not After : Nov 10 02:00:55 2024 GMT
        Subject: C=US, ST=OH, L=Cincinnati, O=University of Cincinnati, OU=Dept. Elec. Comp. Eng. Comp. Sci., CN=client43/emailAddress=franco@gauss.ececs.uc.edu
        Subject Public Key Info:
            Public Key Algorithm: rsaEncryption
                Public-Key: (2048 bit)
                Modulus:
                    00:aa:91:4c:bc:e5:f3:fe:0e:a9:83:cf:bf:b0:4d:
                    f4:c6:a2:34:10:91:17:a8:b3:d8:5a:c4:91:8f:80:
                    a9:eb:ab:ea:50:6b:cb:a5:cf:37:a4:3b:ce:41:d5:
                    50:ba:ed:8c:48:47:54:9d:b1:36:2f:c5:9a:96:e9:
                    e4:ad:2d:b5:ba:94:17:bb:ac:16:3f:8b:c5:df:90:
                    f3:40:04:65:f4:32:9c:61:8b:f6:c4:17:1d:11:da:
                    bb:d9:6f:1c:aa:8d:f8:c8:fd:cf:f9:41:73:5a:bb:
                    97:3f:2f:8d:07:d0:ea:49:04:ce:a2:88:0d:a1:7f:
                    da:1a:e8:a7:3a:60:d3:67:05:e4:ea:18:65:31:29:
                    be:8b:48:c3:b1:e0:b7:34:7e:aa:5b:fb:1c:6e:d0:
                    a1:5f:c8:57:e2:fd:04:9e:03:c3:15:c3:a1:ab:ea:
                    5e:8d:ce:d5:90:8d:99:23:fa:00:4e:b5:6c:54:05:
                    42:b3:f6:5d:f8:ac:94:36:2e:1e:c5:75:6a:38:ba:
                    9b:97:72:06:89:0d:e7:a4:26:e7:a2:9a:05:2b:73:
                    de:96:93:15:97:e0:80:45:4a:c1:b2:5f:93:eb:10:
                    40:35:32:ed:e9:86:01:fa:33:c4:8c:2a:ad:51:96:
                    ef:68:cd:9a:ea:25:ab:6d:f6:91:30:c0:a8:59:fe:
                    4b:01
                Exponent: 65537 (0x10001)
        X509v3 extensions:
            X509v3 Basic Constraints: 
                CA:FALSE
            X509v3 Subject Key Identifier: 
                C2:7D:26:A3:2B:82:20:AB:EF:9B:AF:05:7F:2C:18:43:05:97:E5:E1
            X509v3 Authority Key Identifier: 
                keyid:7B:0F:93:16:64:9F:71:41:D3:1B:FB:ED:6A:70:9B:CA:2E:70:F0:4B
                DirName:/C=US/ST=California/L=San Francisco/O=Copyleft Certificate Co/OU=My Organizational Unit/CN=ChangeMe/emailAddress=me@example.net
                serial:B9:F2:4E:2C:79:B3:D4:6C

            X509v3 Extended Key Usage: 
                TLS Web Client Authentication
            X509v3 Key Usage: 
                Digital Signature
    Signature Algorithm: sha256WithRSAEncryption
         20:fe:11:98:a5:a9:64:37:65:1d:11:57:dd:86:9f:89:8d:46:
         31:f7:20:f3:85:69:95:5d:79:20:5a:a2:17:21:c6:35:ad:17:
         b7:4f:4a:a6:ee:54:a2:38:dd:2d:28:97:f6:73:07:99:47:c1:
         97:b9:ee:5b:c5:64:3e:d8:c7:20:90:67:5e:a4:e1:f6:e7:93:
         1c:bc:00:10:d3:5d:16:3e:df:2f:aa:de:a9:d5:f9:d0:9b:cb:
         6a:9e:1b:dc:be:18:28:10:89:2d:bb:3a:c3:c0:11:95:92:8d:
         ca:70:a8:fd:88:b6:96:c3:79:8e:7b:c2:5f:cf:cd:1a:85:19:
         9b:d5:8d:ad:f5:d8:ed:32:1b:76:e6:71:40:61:7d:82:d9:a8:
         66:58:f4:ff:47:6d:c0:42:57:c0:fe:4f:2d:e9:89:10:58:f0:
         44:86:17:08:5e:ac:8e:31:f9:f7:c0:bb:4b:e5:5d:0b:98:1d:
         b3:54:74:3e:f8:ec:4b:e8:ad:39:da:af:62:f3:df:73:20:e3:
         4e:b4:ac:80:a4:8f:1c:44:7c:6a:f8:49:a2:f1:8e:d1:84:8e:
         70:db:a3:81:ad:79:e9:9c:38:06:09:e3:d6:30:cf:93:70:6e:
         2d:e0:5c:40:2d:4d:04:0f:93:3e:01:ef:90:23:18:fa:f5:2f:
         7f:6f:22:b3
-----BEGIN CERTIFICATE-----
MIIFMDCCBBigAwIBAgIRAOqgLc71roK44gDtGiwut9EwDQYJKoZIhvcNAQELBQAw
ga8xCzAJBgNVBAYTAlVTMRMwEQYDVQQIDApDYWxpZm9ybmlhMRYwFAYDVQQHDA1T
YW4gRnJhbmNpc2NvMSAwHgYDVQQKDBdDb3B5bGVmdCBDZXJ0aWZpY2F0ZSBDbzEf
MB0GA1UECwwWTXkgT3JnYW5pemF0aW9uYWwgVW5pdDERMA8GA1UEAwwIQ2hhbmdl
TWUxHTAbBgkqhkiG9w0BCQEWDm1lQGV4YW1wbGUubmV0MB4XDTIzMTExMTAyMDA1
NVoXDTI0MTExMDAyMDA1NVowgbsxCzAJBgNVBAYTAlVTMQswCQYDVQQIDAJPSDET
MBEGA1UEBwwKQ2luY2lubmF0aTEhMB8GA1UECgwYVW5pdmVyc2l0eSBvZiBDaW5j
aW5uYXRpMSowKAYDVQQLDCFEZXB0LiBFbGVjLiBDb21wLiBFbmcuIENvbXAuIFNj
aS4xETAPBgNVBAMMCGNsaWVudDQzMSgwJgYJKoZIhvcNAQkBFhlmcmFuY29AZ2F1
c3MuZWNlY3MudWMuZWR1MIIBIjANBgkqhkiG9w0BAQEFAAOCAQ8AMIIBCgKCAQEA
qpFMvOXz/g6pg8+/sE30xqI0EJEXqLPYWsSRj4Cp66vqUGvLpc83pDvOQdVQuu2M
SEdUnbE2L8WalunkrS21upQXu6wWP4vF35DzQARl9DKcYYv2xBcdEdq72W8cqo34
yP3P+UFzWruXPy+NB9DqSQTOoogNoX/aGuinOmDTZwXk6hhlMSm+i0jDseC3NH6q
W/scbtChX8hX4v0EngPDFcOhq+pejc7VkI2ZI/oATrVsVAVCs/Zd+KyUNi4exXVq
OLqbl3IGiQ3npCbnopoFK3PelpMVl+CARUrBsl+T6xBANTLt6YYB+jPEjCqtUZbv
aM2a6iWrbfaRMMCoWf5LAQIDAQABo4IBNzCCATMwCQYDVR0TBAIwADAdBgNVHQ4E
FgQUwn0moyuCIKvvm68FfywYQwWX5eEwgeQGA1UdIwSB3DCB2YAUew+TFmSfcUHT
G/vtanCbyi5w8EuhgbWkgbIwga8xCzAJBgNVBAYTAlVTMRMwEQYDVQQIDApDYWxp
Zm9ybmlhMRYwFAYDVQQHDA1TYW4gRnJhbmNpc2NvMSAwHgYDVQQKDBdDb3B5bGVm
dCBDZXJ0aWZpY2F0ZSBDbzEfMB0GA1UECwwWTXkgT3JnYW5pemF0aW9uYWwgVW5p
dDERMA8GA1UEAwwIQ2hhbmdlTWUxHTAbBgkqhkiG9w0BCQEWDm1lQGV4YW1wbGUu
bmV0ggkAufJOLHmz1GwwEwYDVR0lBAwwCgYIKwYBBQUHAwIwCwYDVR0PBAQDAgeA
MA0GCSqGSIb3DQEBCwUAA4IBAQAg/hGYpalkN2UdEVfdhp+JjUYx9yDzhWmVXXkg
WqIXIcY1rRe3T0qm7lSiON0tKJf2cweZR8GXue5bxWQ+2McgkGdepOH255McvAAQ
010WPt8vqt6p1fnQm8tqnhvcvhgoEIktuzrDwBGVko3KcKj9iLaWw3mOe8Jfz80a
hRmb1Y2t9djtMht25nFAYX2C2ahmWPT/R23AQlfA/k8t6YkQWPBEhhcIXqyOMfn3
wLtL5V0LmB2zVHQ++OxL6K052q9i899zIONOtKyApI8cRHxq+Emi8Y7RhI5w26OB
rXnpnDgGCePWMM+TcG4t4FxALU0ED5M+Ae+QIxj69S9/byKz
-----END CERTIFICATE-----
