Certificate:
    Data:
        Version: 3 (0x2)
        Serial Number:
            f5:33:f9:d9:da:60:20:99:ab:95:ff:12:f5:d5:ae:73
    Signature Algorithm: sha256WithRSAEncryption
        Issuer: C=US, ST=California, L=San Francisco, O=Copyleft Certificate Co, OU=My Organizational Unit, CN=ChangeMe/emailAddress=me@example.net
        Validity
            Not Before: Nov 11 01:45:30 2023 GMT
            Not After : Nov 10 01:45:30 2024 GMT
        Subject: C=US, ST=OH, L=Cincinnati, O=University of Cincinnati, OU=Dept. Elec. Comp. Eng. Comp. Sci., CN=client87/emailAddress=franco@gauss.ececs.uc.edu
        Subject Public Key Info:
            Public Key Algorithm: rsaEncryption
                Public-Key: (2048 bit)
                Modulus:
                    00:dd:72:22:4c:0c:ab:0b:38:3c:7d:8e:e8:1f:af:
                    f0:41:9a:b0:e2:fe:0a:4f:87:60:57:67:c6:9d:fc:
                    9f:12:12:9b:b5:96:e8:b1:ef:54:2b:82:35:fc:d0:
                    4b:bf:40:0f:bf:96:cd:df:a1:91:3b:4e:d5:1a:2c:
                    b1:06:45:12:dd:61:1b:1a:10:ce:4b:f8:2e:ef:6b:
                    ce:61:f4:73:e0:4d:e7:af:7b:45:18:43:c2:34:58:
                    bb:d6:e2:f7:d9:b6:e5:4f:f2:0b:83:15:9e:d3:c6:
                    9a:24:99:c3:cd:82:fe:82:ed:cb:20:b0:69:90:66:
                    a6:91:ac:d2:18:60:57:82:79:31:05:83:5f:28:2a:
                    9e:aa:22:0f:12:3d:80:18:3c:bd:c9:82:aa:91:6a:
                    6b:42:ab:da:6f:06:84:e5:86:07:9b:1c:95:3f:48:
                    7d:53:e8:5f:af:62:31:4b:52:49:7f:02:e8:bc:1a:
                    ba:9d:62:be:e4:a4:66:94:ca:0e:7c:b0:a8:68:53:
                    1d:05:ed:dc:7b:b6:67:2d:ca:8a:ad:74:8c:d2:14:
                    68:d6:4f:88:df:7a:e4:ae:70:4c:77:a8:a1:66:2f:
                    44:d3:bc:32:d9:5d:72:fd:8a:1b:70:e0:11:dd:4f:
                    c5:3e:46:8e:cb:a5:13:5b:bb:af:e0:bc:0b:c0:cd:
                    a6:3b
                Exponent: 65537 (0x10001)
        X509v3 extensions:
            X509v3 Basic Constraints: 
                CA:FALSE
            X509v3 Subject Key Identifier: 
                52:81:14:02:93:89:F6:7D:93:64:DD:C9:9F:1C:5A:25:12:EE:91:BB
            X509v3 Authority Key Identifier: 
                keyid:73:DE:A0:43:0F:AE:B1:9E:E8:59:69:18:50:A1:1A:1F:D4:A1:E3:F0
                DirName:/C=US/ST=California/L=San Francisco/O=Copyleft Certificate Co/OU=My Organizational Unit/CN=ChangeMe/emailAddress=me@example.net
                serial:E9:BB:CB:16:C5:32:BE:3B

            X509v3 Extended Key Usage: 
                TLS Web Client Authentication
            X509v3 Key Usage: 
                Digital Signature
    Signature Algorithm: sha256WithRSAEncryption
         2f:d8:5d:de:c4:c8:7a:30:2e:a1:bc:20:47:cd:86:ee:6e:30:
         28:c2:d3:7a:e8:5c:86:4e:6e:6a:15:ca:41:45:ed:d4:ab:86:
         91:b5:9c:e3:de:2d:f5:80:73:5c:11:7e:95:40:84:ae:62:64:
         f8:d9:5a:7f:55:f2:15:49:62:fe:29:b5:61:6b:b2:5a:d1:24:
         98:2e:9b:81:b3:35:35:ce:89:c3:48:f9:8e:aa:dd:4e:82:b0:
         8a:df:aa:93:cf:f5:62:e6:59:80:90:d6:23:47:46:ba:4c:00:
         07:9e:6e:6e:43:10:9e:1d:11:84:27:13:e5:f5:ca:a2:b3:e9:
         55:77:47:af:3e:1d:7e:d1:4b:6b:54:33:f7:83:65:aa:ef:00:
         c1:ac:21:22:75:30:35:7a:0a:2c:59:33:a9:6d:3c:33:7c:df:
         00:af:b2:c5:b6:03:04:71:ca:0e:d8:15:56:10:59:4f:bb:c4:
         ed:d7:7a:12:a5:a5:77:ab:2d:f0:f2:70:c8:36:d4:ef:e2:93:
         62:3d:dc:e7:89:ab:19:2e:bd:57:c3:72:06:78:62:b2:35:40:
         3f:bf:31:34:14:98:c5:d4:8f:e6:10:7e:ae:c3:f4:0b:17:5b:
         4e:7d:b2:37:35:cb:cb:79:df:4a:85:3b:1b:2c:30:79:72:0c:
         01:d5:ee:fa
-----BEGIN CERTIFICATE-----
MIIFMDCCBBigAwIBAgIRAPUz+dnaYCCZq5X/EvXVrnMwDQYJKoZIhvcNAQELBQAw
ga8xCzAJBgNVBAYTAlVTMRMwEQYDVQQIDApDYWxpZm9ybmlhMRYwFAYDVQQHDA1T
YW4gRnJhbmNpc2NvMSAwHgYDVQQKDBdDb3B5bGVmdCBDZXJ0aWZpY2F0ZSBDbzEf
MB0GA1UECwwWTXkgT3JnYW5pemF0aW9uYWwgVW5pdDERMA8GA1UEAwwIQ2hhbmdl
TWUxHTAbBgkqhkiG9w0BCQEWDm1lQGV4YW1wbGUubmV0MB4XDTIzMTExMTAxNDUz
MFoXDTI0MTExMDAxNDUzMFowgbsxCzAJBgNVBAYTAlVTMQswCQYDVQQIDAJPSDET
MBEGA1UEBwwKQ2luY2lubmF0aTEhMB8GA1UECgwYVW5pdmVyc2l0eSBvZiBDaW5j
aW5uYXRpMSowKAYDVQQLDCFEZXB0LiBFbGVjLiBDb21wLiBFbmcuIENvbXAuIFNj
aS4xETAPBgNVBAMMCGNsaWVudDg3MSgwJgYJKoZIhvcNAQkBFhlmcmFuY29AZ2F1
c3MuZWNlY3MudWMuZWR1MIIBIjANBgkqhkiG9w0BAQEFAAOCAQ8AMIIBCgKCAQEA
3XIiTAyrCzg8fY7oH6/wQZqw4v4KT4dgV2fGnfyfEhKbtZbose9UK4I1/NBLv0AP
v5bN36GRO07VGiyxBkUS3WEbGhDOS/gu72vOYfRz4E3nr3tFGEPCNFi71uL32bbl
T/ILgxWe08aaJJnDzYL+gu3LILBpkGamkazSGGBXgnkxBYNfKCqeqiIPEj2AGDy9
yYKqkWprQqvabwaE5YYHmxyVP0h9U+hfr2IxS1JJfwLovBq6nWK+5KRmlMoOfLCo
aFMdBe3ce7ZnLcqKrXSM0hRo1k+I33rkrnBMd6ihZi9E07wy2V1y/YobcOAR3U/F
PkaOy6UTW7uv4LwLwM2mOwIDAQABo4IBNzCCATMwCQYDVR0TBAIwADAdBgNVHQ4E
FgQUUoEUApOJ9n2TZN3JnxxaJRLukbswgeQGA1UdIwSB3DCB2YAUc96gQw+usZ7o
WWkYUKEaH9Sh4/ChgbWkgbIwga8xCzAJBgNVBAYTAlVTMRMwEQYDVQQIDApDYWxp
Zm9ybmlhMRYwFAYDVQQHDA1TYW4gRnJhbmNpc2NvMSAwHgYDVQQKDBdDb3B5bGVm
dCBDZXJ0aWZpY2F0ZSBDbzEfMB0GA1UECwwWTXkgT3JnYW5pemF0aW9uYWwgVW5p
dDERMA8GA1UEAwwIQ2hhbmdlTWUxHTAbBgkqhkiG9w0BCQEWDm1lQGV4YW1wbGUu
bmV0ggkA6bvLFsUyvjswEwYDVR0lBAwwCgYIKwYBBQUHAwIwCwYDVR0PBAQDAgeA
MA0GCSqGSIb3DQEBCwUAA4IBAQAv2F3exMh6MC6hvCBHzYbubjAowtN66FyGTm5q
FcpBRe3Uq4aRtZzj3i31gHNcEX6VQISuYmT42Vp/VfIVSWL+KbVha7Ja0SSYLpuB
szU1zonDSPmOqt1OgrCK36qTz/Vi5lmAkNYjR0a6TAAHnm5uQxCeHRGEJxPl9cqi
s+lVd0evPh1+0UtrVDP3g2Wq7wDBrCEidTA1egosWTOpbTwzfN8Ar7LFtgMEccoO
2BVWEFlPu8Tt13oSpaV3qy3w8nDINtTv4pNiPdzniasZLr1Xw3IGeGKyNUA/vzE0
FJjF1I/mEH6uw/QLF1tOfbI3NcvLed9KhTsbLDB5cgwB1e76
-----END CERTIFICATE-----
