Certificate:
    Data:
        Version: 3 (0x2)
        Serial Number:
            93:d2:cb:d1:a2:c1:1b:74:75:32:24:3c:a3:b9:b9:4f
    Signature Algorithm: sha256WithRSAEncryption
        Issuer: C=US, ST=California, L=San Francisco, O=Copyleft Certificate Co, OU=My Organizational Unit, CN=ChangeMe/emailAddress=me@example.net
        Validity
            Not Before: Nov 12 11:49:11 2023 GMT
            Not After : Nov 11 11:49:11 2024 GMT
        Subject: C=US, ST=OH, L=Cincinnati, O=University of Cincinnati, OU=Dept. Elec. Comp. Eng. Comp. Sci., CN=client44/emailAddress=franco@gauss.ececs.uc.edu
        Subject Public Key Info:
            Public Key Algorithm: rsaEncryption
                Public-Key: (2048 bit)
                Modulus:
                    00:e2:bd:27:d9:84:ef:00:c1:1f:73:3b:35:b2:ea:
                    ea:f7:d5:75:1a:cd:ba:e7:89:b6:1f:a3:87:9c:36:
                    3e:45:21:ec:40:56:9a:20:27:13:aa:b4:e1:88:e7:
                    e5:e8:25:22:5b:2e:d7:ce:d7:1e:96:c5:5a:36:f2:
                    1f:f8:ce:86:09:54:fa:08:11:71:3b:4e:44:3e:b6:
                    51:a5:c8:f2:9f:13:02:47:26:6c:ec:96:d6:fb:8d:
                    d8:26:4e:55:bd:68:d9:9a:a1:2d:ca:40:8d:b4:6e:
                    e1:d5:4b:9f:a1:75:3f:ef:d2:1f:a4:1c:8b:79:80:
                    51:79:4e:36:98:1e:aa:5b:90:5d:70:47:64:e9:fd:
                    38:33:5d:4e:7d:fa:07:71:74:39:83:6b:9e:b0:a0:
                    2e:79:a6:39:83:33:8d:65:be:94:58:62:88:43:22:
                    79:74:70:2a:39:bf:14:4e:a6:29:0f:fe:bd:12:67:
                    b5:c5:07:06:53:e3:0a:a9:46:15:24:75:bb:79:fd:
                    6e:46:3f:a2:4d:f6:8d:b7:7c:83:69:9d:e4:85:43:
                    a5:58:92:14:b7:69:9c:8c:14:00:7c:fe:a5:83:cf:
                    ea:4f:79:15:5f:6d:04:d6:76:06:2f:c3:03:ce:4b:
                    d8:5b:93:f9:45:79:1f:aa:af:16:92:88:99:0a:2a:
                    9d:f5
                Exponent: 65537 (0x10001)
        X509v3 extensions:
            X509v3 Basic Constraints: 
                CA:FALSE
            X509v3 Subject Key Identifier: 
                1F:25:5F:61:CF:6A:89:E9:E1:FA:E2:5D:8D:C8:FC:FE:BC:F8:31:6F
            X509v3 Authority Key Identifier: 
                keyid:C4:46:F2:96:38:56:02:B8:9D:09:04:52:25:91:35:97:6A:D7:B1:F0
                DirName:/C=US/ST=California/L=San Francisco/O=Copyleft Certificate Co/OU=My Organizational Unit/CN=ChangeMe/emailAddress=me@example.net
                serial:D1:5A:15:1C:F0:20:95:62

            X509v3 Extended Key Usage: 
                TLS Web Client Authentication
            X509v3 Key Usage: 
                Digital Signature
    Signature Algorithm: sha256WithRSAEncryption
         70:f2:61:29:20:68:8b:41:3e:3c:19:66:4b:a5:f1:13:ee:08:
         50:1e:34:75:8e:7b:c5:a4:0d:c8:33:6d:84:1e:87:66:44:fc:
         71:09:af:1c:e2:0b:a4:12:49:4a:76:76:8e:62:1e:29:73:57:
         61:5b:c2:c4:10:56:e2:c6:dc:54:97:f6:64:82:f4:c7:8c:2d:
         ef:a2:bd:c1:77:78:34:bc:65:2c:ca:2e:b4:0f:ef:1c:fa:6a:
         7a:63:65:b0:35:ed:02:23:bf:38:19:20:5c:24:b2:dc:95:fe:
         64:d9:e1:f1:a7:1d:2f:f8:c9:d0:99:cd:ce:db:d1:3a:e5:74:
         91:a3:7f:86:7b:e1:c0:af:ed:a0:3c:91:03:7a:01:74:5f:e4:
         6f:55:39:35:f7:b9:90:cb:30:22:c1:e0:65:92:91:61:59:48:
         53:49:30:15:31:aa:df:8b:d5:04:95:05:45:7f:d0:ae:f1:75:
         09:23:de:1a:cf:6c:a9:5c:70:d6:03:d2:b2:bf:35:be:d3:a7:
         5e:ee:0e:eb:f9:34:9f:e0:c7:e3:f6:63:27:42:6c:b8:b4:e9:
         dc:20:90:ae:81:9f:ac:35:38:68:8f:b7:e9:70:0d:4f:17:17:
         ff:92:a1:3d:5e:70:c3:82:45:91:d5:87:5b:f3:98:86:0e:e7:
         62:08:18:16
-----BEGIN CERTIFICATE-----
MIIFMDCCBBigAwIBAgIRAJPSy9GiwRt0dTIkPKO5uU8wDQYJKoZIhvcNAQELBQAw
ga8xCzAJBgNVBAYTAlVTMRMwEQYDVQQIDApDYWxpZm9ybmlhMRYwFAYDVQQHDA1T
YW4gRnJhbmNpc2NvMSAwHgYDVQQKDBdDb3B5bGVmdCBDZXJ0aWZpY2F0ZSBDbzEf
MB0GA1UECwwWTXkgT3JnYW5pemF0aW9uYWwgVW5pdDERMA8GA1UEAwwIQ2hhbmdl
TWUxHTAbBgkqhkiG9w0BCQEWDm1lQGV4YW1wbGUubmV0MB4XDTIzMTExMjExNDkx
MVoXDTI0MTExMTExNDkxMVowgbsxCzAJBgNVBAYTAlVTMQswCQYDVQQIDAJPSDET
MBEGA1UEBwwKQ2luY2lubmF0aTEhMB8GA1UECgwYVW5pdmVyc2l0eSBvZiBDaW5j
aW5uYXRpMSowKAYDVQQLDCFEZXB0LiBFbGVjLiBDb21wLiBFbmcuIENvbXAuIFNj
aS4xETAPBgNVBAMMCGNsaWVudDQ0MSgwJgYJKoZIhvcNAQkBFhlmcmFuY29AZ2F1
c3MuZWNlY3MudWMuZWR1MIIBIjANBgkqhkiG9w0BAQEFAAOCAQ8AMIIBCgKCAQEA
4r0n2YTvAMEfczs1surq99V1Gs2654m2H6OHnDY+RSHsQFaaICcTqrThiOfl6CUi
Wy7XztcelsVaNvIf+M6GCVT6CBFxO05EPrZRpcjynxMCRyZs7JbW+43YJk5VvWjZ
mqEtykCNtG7h1UufoXU/79IfpByLeYBReU42mB6qW5BdcEdk6f04M11OffoHcXQ5
g2uesKAueaY5gzONZb6UWGKIQyJ5dHAqOb8UTqYpD/69Eme1xQcGU+MKqUYVJHW7
ef1uRj+iTfaNt3yDaZ3khUOlWJIUt2mcjBQAfP6lg8/qT3kVX20E1nYGL8MDzkvY
W5P5RXkfqq8WkoiZCiqd9QIDAQABo4IBNzCCATMwCQYDVR0TBAIwADAdBgNVHQ4E
FgQUHyVfYc9qienh+uJdjcj8/rz4MW8wgeQGA1UdIwSB3DCB2YAUxEbyljhWArid
CQRSJZE1l2rXsfChgbWkgbIwga8xCzAJBgNVBAYTAlVTMRMwEQYDVQQIDApDYWxp
Zm9ybmlhMRYwFAYDVQQHDA1TYW4gRnJhbmNpc2NvMSAwHgYDVQQKDBdDb3B5bGVm
dCBDZXJ0aWZpY2F0ZSBDbzEfMB0GA1UECwwWTXkgT3JnYW5pemF0aW9uYWwgVW5p
dDERMA8GA1UEAwwIQ2hhbmdlTWUxHTAbBgkqhkiG9w0BCQEWDm1lQGV4YW1wbGUu
bmV0ggkA0VoVHPAglWIwEwYDVR0lBAwwCgYIKwYBBQUHAwIwCwYDVR0PBAQDAgeA
MA0GCSqGSIb3DQEBCwUAA4IBAQBw8mEpIGiLQT48GWZLpfET7ghQHjR1jnvFpA3I
M22EHodmRPxxCa8c4gukEklKdnaOYh4pc1dhW8LEEFbixtxUl/ZkgvTHjC3vor3B
d3g0vGUsyi60D+8c+mp6Y2WwNe0CI784GSBcJLLclf5k2eHxpx0v+MnQmc3O29E6
5XSRo3+Ge+HAr+2gPJEDegF0X+RvVTk197mQyzAiweBlkpFhWUhTSTAVMarfi9UE
lQVFf9Cu8XUJI94az2ypXHDWA9KyvzW+06de7g7r+TSf4Mfj9mMnQmy4tOncIJCu
gZ+sNThoj7fpcA1PFxf/kqE9XnDDgkWR1Ydb85iGDudiCBgW
-----END CERTIFICATE-----
