Certificate:
    Data:
        Version: 3 (0x2)
        Serial Number:
            21:3c:7f:ae:95:d3:66:22:be:bb:b1:60:a1:b5:df:5e
    Signature Algorithm: sha256WithRSAEncryption
        Issuer: C=US, ST=California, L=San Francisco, O=Copyleft Certificate Co, OU=My Organizational Unit, CN=ChangeMe/emailAddress=me@example.net
        Validity
            Not Before: Nov 11 01:45:46 2023 GMT
            Not After : Nov 10 01:45:46 2024 GMT
        Subject: C=US, ST=OH, L=Cincinnati, O=University of Cincinnati, OU=Dept. Elec. Comp. Eng. Comp. Sci., CN=client91/emailAddress=franco@gauss.ececs.uc.edu
        Subject Public Key Info:
            Public Key Algorithm: rsaEncryption
                Public-Key: (2048 bit)
                Modulus:
                    00:e5:bb:58:37:d8:34:b8:11:33:3a:02:0b:9d:a3:
                    9e:19:ab:cc:7f:f3:ad:4f:e8:98:7f:9f:f6:a5:84:
                    a1:a2:2a:82:3a:72:ec:56:65:80:38:79:de:ff:6a:
                    9d:bd:7f:05:42:23:d5:99:a6:ab:45:68:3c:43:6f:
                    f3:95:ee:92:b5:b2:9a:95:bb:93:10:8c:fd:e1:3d:
                    13:95:b8:c2:44:61:b0:74:0f:c9:96:47:fb:6b:70:
                    53:1a:ea:c9:f1:f2:be:c5:7c:3c:75:4c:95:3a:93:
                    23:0c:0f:c0:d1:db:f9:4c:6f:4a:cb:f0:67:7c:01:
                    83:0e:b4:81:fd:27:c0:3a:41:9b:7c:b7:12:7c:93:
                    1c:6b:e2:ea:63:f7:79:ef:89:12:c7:b2:34:87:72:
                    bc:99:13:2b:66:9b:f0:8f:30:1a:c3:b7:25:d9:58:
                    5e:65:a3:78:d3:8c:4f:33:26:03:0e:3e:6d:a5:98:
                    18:f3:81:67:f8:bc:56:7b:7b:a4:82:a5:af:c9:28:
                    66:c3:46:48:86:0d:c5:52:b9:dd:93:d1:ef:1e:b2:
                    87:09:9b:37:12:58:92:28:3b:e7:04:98:ac:59:79:
                    cc:d8:d7:d8:9a:63:23:6d:f5:5b:8c:2b:c4:7a:f4:
                    f5:af:4b:ac:48:49:21:36:74:46:17:03:28:25:20:
                    8f:f7
                Exponent: 65537 (0x10001)
        X509v3 extensions:
            X509v3 Basic Constraints: 
                CA:FALSE
            X509v3 Subject Key Identifier: 
                4A:01:61:6C:5A:A6:3A:A7:8C:88:69:03:72:C0:D9:C3:45:BE:F4:18
            X509v3 Authority Key Identifier: 
                keyid:73:DE:A0:43:0F:AE:B1:9E:E8:59:69:18:50:A1:1A:1F:D4:A1:E3:F0
                DirName:/C=US/ST=California/L=San Francisco/O=Copyleft Certificate Co/OU=My Organizational Unit/CN=ChangeMe/emailAddress=me@example.net
                serial:E9:BB:CB:16:C5:32:BE:3B

            X509v3 Extended Key Usage: 
                TLS Web Client Authentication
            X509v3 Key Usage: 
                Digital Signature
    Signature Algorithm: sha256WithRSAEncryption
         ba:9f:0f:1c:da:8f:bd:fe:43:68:86:6c:9f:ec:44:c4:93:a4:
         73:e5:03:d5:53:6c:73:8f:5b:22:17:46:1f:c7:61:1a:62:34:
         a2:e3:e3:c3:7e:78:fa:c1:e6:09:bb:41:be:f5:7a:2b:b1:b2:
         ac:6e:71:b1:fa:18:e3:83:66:c5:b8:fb:2a:be:79:cc:a0:19:
         d3:2d:5b:5e:87:f0:e0:19:8d:d6:24:35:76:26:1a:8e:db:90:
         3a:7e:d8:fb:de:5d:ce:28:fa:df:83:74:4f:13:f2:ac:f1:11:
         3d:98:23:64:46:a6:1d:e0:d2:19:ab:3e:17:23:1c:2a:cf:87:
         e0:f2:b4:4f:95:81:b8:dd:7c:f0:a5:58:b4:47:c6:b5:9d:f0:
         d4:e7:78:71:11:37:2b:b9:8b:16:37:2c:c6:a0:ee:65:c6:fe:
         e2:d5:1f:a6:d8:cd:b1:a6:9e:f6:ad:3f:bf:7a:86:22:aa:98:
         d4:c6:80:91:8b:4f:f6:42:67:7b:af:29:4e:f2:0c:68:bd:30:
         2b:51:c0:1f:11:4c:7d:d9:30:de:fe:1a:93:97:c4:4b:ef:89:
         d7:50:8f:2d:df:72:71:4b:bc:6c:d7:a1:df:18:93:a4:c2:0e:
         7f:20:4b:ea:ca:ac:53:ca:25:e9:1e:c0:46:38:34:58:17:22:
         96:ff:52:c0
-----BEGIN CERTIFICATE-----
MIIFLzCCBBegAwIBAgIQITx/rpXTZiK+u7FgobXfXjANBgkqhkiG9w0BAQsFADCB
rzELMAkGA1UEBhMCVVMxEzARBgNVBAgMCkNhbGlmb3JuaWExFjAUBgNVBAcMDVNh
biBGcmFuY2lzY28xIDAeBgNVBAoMF0NvcHlsZWZ0IENlcnRpZmljYXRlIENvMR8w
HQYDVQQLDBZNeSBPcmdhbml6YXRpb25hbCBVbml0MREwDwYDVQQDDAhDaGFuZ2VN
ZTEdMBsGCSqGSIb3DQEJARYObWVAZXhhbXBsZS5uZXQwHhcNMjMxMTExMDE0NTQ2
WhcNMjQxMTEwMDE0NTQ2WjCBuzELMAkGA1UEBhMCVVMxCzAJBgNVBAgMAk9IMRMw
EQYDVQQHDApDaW5jaW5uYXRpMSEwHwYDVQQKDBhVbml2ZXJzaXR5IG9mIENpbmNp
bm5hdGkxKjAoBgNVBAsMIURlcHQuIEVsZWMuIENvbXAuIEVuZy4gQ29tcC4gU2Np
LjERMA8GA1UEAwwIY2xpZW50OTExKDAmBgkqhkiG9w0BCQEWGWZyYW5jb0BnYXVz
cy5lY2Vjcy51Yy5lZHUwggEiMA0GCSqGSIb3DQEBAQUAA4IBDwAwggEKAoIBAQDl
u1g32DS4ETM6Agudo54Zq8x/861P6Jh/n/alhKGiKoI6cuxWZYA4ed7/ap29fwVC
I9WZpqtFaDxDb/OV7pK1spqVu5MQjP3hPROVuMJEYbB0D8mWR/trcFMa6snx8r7F
fDx1TJU6kyMMD8DR2/lMb0rL8Gd8AYMOtIH9J8A6QZt8txJ8kxxr4upj93nviRLH
sjSHcryZEytmm/CPMBrDtyXZWF5lo3jTjE8zJgMOPm2lmBjzgWf4vFZ7e6SCpa/J
KGbDRkiGDcVSud2T0e8esocJmzcSWJIoO+cEmKxZeczY19iaYyNt9VuMK8R69PWv
S6xISSE2dEYXAyglII/3AgMBAAGjggE3MIIBMzAJBgNVHRMEAjAAMB0GA1UdDgQW
BBRKAWFsWqY6p4yIaQNywNnDRb70GDCB5AYDVR0jBIHcMIHZgBRz3qBDD66xnuhZ
aRhQoRof1KHj8KGBtaSBsjCBrzELMAkGA1UEBhMCVVMxEzARBgNVBAgMCkNhbGlm
b3JuaWExFjAUBgNVBAcMDVNhbiBGcmFuY2lzY28xIDAeBgNVBAoMF0NvcHlsZWZ0
IENlcnRpZmljYXRlIENvMR8wHQYDVQQLDBZNeSBPcmdhbml6YXRpb25hbCBVbml0
MREwDwYDVQQDDAhDaGFuZ2VNZTEdMBsGCSqGSIb3DQEJARYObWVAZXhhbXBsZS5u
ZXSCCQDpu8sWxTK+OzATBgNVHSUEDDAKBggrBgEFBQcDAjALBgNVHQ8EBAMCB4Aw
DQYJKoZIhvcNAQELBQADggEBALqfDxzaj73+Q2iGbJ/sRMSTpHPlA9VTbHOPWyIX
Rh/HYRpiNKLj48N+ePrB5gm7Qb71eiuxsqxucbH6GOODZsW4+yq+ecygGdMtW16H
8OAZjdYkNXYmGo7bkDp+2PveXc4o+t+DdE8T8qzxET2YI2RGph3g0hmrPhcjHCrP
h+DytE+VgbjdfPClWLRHxrWd8NTneHERNyu5ixY3LMag7mXG/uLVH6bYzbGmnvat
P796hiKqmNTGgJGLT/ZCZ3uvKU7yDGi9MCtRwB8RTH3ZMN7+GpOXxEvviddQjy3f
cnFLvGzXod8Yk6TCDn8gS+rKrFPKJekewEY4NFgXIpb/UsA=
-----END CERTIFICATE-----
