Certificate:
    Data:
        Version: 3 (0x2)
        Serial Number:
            ee:bd:00:87:02:58:30:9d:fd:c0:6b:93:ce:29:3a:be
    Signature Algorithm: sha256WithRSAEncryption
        Issuer: C=US, ST=California, L=San Francisco, O=Copyleft Certificate Co, OU=My Organizational Unit, CN=ChangeMe/emailAddress=me@example.net
        Validity
            Not Before: Nov 11 10:57:52 2023 GMT
            Not After : Nov 10 10:57:52 2024 GMT
        Subject: C=US, ST=OH, L=Cincinnati, O=University of Cincinnati, OU=Dept. Elec. Comp. Eng. Comp. Sci., CN=client39/emailAddress=franco@gauss.ececs.uc.edu
        Subject Public Key Info:
            Public Key Algorithm: rsaEncryption
                Public-Key: (2048 bit)
                Modulus:
                    00:d7:ac:de:c3:fc:51:ab:2b:20:5f:81:d5:be:47:
                    fc:1e:ea:4f:7d:9a:41:35:db:6a:31:54:b7:89:bd:
                    f1:dd:3a:0b:83:45:c5:06:83:02:f9:ef:74:8a:e1:
                    a1:c7:2d:e7:25:ba:6e:63:ec:b5:c7:83:d2:5b:45:
                    c6:27:a1:af:19:71:ef:54:4e:02:42:ee:15:b9:aa:
                    6d:25:ba:7a:e9:28:d4:67:5f:c0:9c:60:9b:0a:fd:
                    79:28:8f:06:f6:5d:51:11:6a:77:6c:88:42:d5:3a:
                    8b:19:5d:4a:b1:03:00:87:85:fd:94:d0:13:5c:d1:
                    c4:94:e0:bd:ad:31:07:d1:29:4a:23:f7:44:e2:2c:
                    1d:ad:f0:ba:d0:83:fe:01:f7:bb:5f:69:1d:2d:4f:
                    0d:06:cb:85:b4:15:5b:ae:5e:6d:12:f6:52:08:76:
                    ee:d6:9e:a1:6b:20:b9:4e:38:a0:99:d3:20:4a:53:
                    fe:15:bb:dd:6e:2e:fc:e1:e7:c0:2c:dd:2b:b4:60:
                    f1:03:73:c6:c6:cd:2c:a5:d6:44:3c:22:64:98:96:
                    5d:17:ca:9c:7c:74:3c:81:a3:56:ce:f6:72:73:e2:
                    56:f2:a5:77:f3:4d:8b:c0:cb:75:c2:22:10:be:9b:
                    db:ca:b5:dc:6f:f6:66:a4:35:14:b3:3b:af:d5:a5:
                    35:21
                Exponent: 65537 (0x10001)
        X509v3 extensions:
            X509v3 Basic Constraints: 
                CA:FALSE
            X509v3 Subject Key Identifier: 
                46:64:20:1B:BA:DC:C2:06:4E:26:07:1A:E0:6F:79:67:F6:EC:18:2C
            X509v3 Authority Key Identifier: 
                keyid:44:01:CC:06:0B:41:75:CB:C8:FB:C9:37:86:2D:9D:D2:D8:79:B6:8B
                DirName:/C=US/ST=California/L=San Francisco/O=Copyleft Certificate Co/OU=My Organizational Unit/CN=ChangeMe/emailAddress=me@example.net
                serial:AF:E8:E0:DD:C5:8B:0E:DD

            X509v3 Extended Key Usage: 
                TLS Web Client Authentication
            X509v3 Key Usage: 
                Digital Signature
    Signature Algorithm: sha256WithRSAEncryption
         27:fd:0b:89:67:0f:5a:2a:4b:32:cf:be:d3:5c:81:2f:0c:cc:
         33:94:b3:1b:e5:c9:62:77:7c:24:f0:6b:e6:2f:0e:2f:30:04:
         8e:5c:c9:22:ec:e1:a2:fa:7a:9d:9d:88:ca:63:e0:1a:e9:6b:
         dc:df:5c:e5:f5:17:d2:e5:58:46:3c:9e:7f:d5:48:f9:70:87:
         22:b3:8a:19:64:79:d9:5a:f7:eb:5a:75:62:82:07:ab:51:61:
         d7:9f:2d:9b:60:8d:81:cc:76:1b:68:e5:73:ce:d7:cb:88:af:
         9e:4b:1f:c9:df:e8:47:1b:2e:94:de:60:47:96:a7:13:44:1e:
         17:cf:cd:78:12:ba:0d:3e:64:34:d5:81:bb:66:14:0d:58:78:
         b3:c2:34:db:42:e0:ec:24:1f:44:eb:d8:1d:47:4a:c3:86:ca:
         2d:e1:ee:fb:a7:9f:6c:ea:5b:53:52:37:fc:36:6b:ff:39:3a:
         bb:40:3b:5a:f4:dc:1d:8e:96:c3:06:c0:6b:02:9c:c1:f7:a0:
         1f:a9:8f:0a:c1:79:e6:a9:dc:cc:a1:5a:94:e3:e6:04:92:81:
         28:2d:7a:b0:2c:3d:5f:4f:a5:80:2b:23:25:d6:f1:fa:ce:e6:
         30:bb:ea:2f:99:2d:07:2f:7a:78:00:db:eb:d9:9e:c0:3f:95:
         fb:10:62:46
-----BEGIN CERTIFICATE-----
MIIFMDCCBBigAwIBAgIRAO69AIcCWDCd/cBrk84pOr4wDQYJKoZIhvcNAQELBQAw
ga8xCzAJBgNVBAYTAlVTMRMwEQYDVQQIDApDYWxpZm9ybmlhMRYwFAYDVQQHDA1T
YW4gRnJhbmNpc2NvMSAwHgYDVQQKDBdDb3B5bGVmdCBDZXJ0aWZpY2F0ZSBDbzEf
MB0GA1UECwwWTXkgT3JnYW5pemF0aW9uYWwgVW5pdDERMA8GA1UEAwwIQ2hhbmdl
TWUxHTAbBgkqhkiG9w0BCQEWDm1lQGV4YW1wbGUubmV0MB4XDTIzMTExMTEwNTc1
MloXDTI0MTExMDEwNTc1MlowgbsxCzAJBgNVBAYTAlVTMQswCQYDVQQIDAJPSDET
MBEGA1UEBwwKQ2luY2lubmF0aTEhMB8GA1UECgwYVW5pdmVyc2l0eSBvZiBDaW5j
aW5uYXRpMSowKAYDVQQLDCFEZXB0LiBFbGVjLiBDb21wLiBFbmcuIENvbXAuIFNj
aS4xETAPBgNVBAMMCGNsaWVudDM5MSgwJgYJKoZIhvcNAQkBFhlmcmFuY29AZ2F1
c3MuZWNlY3MudWMuZWR1MIIBIjANBgkqhkiG9w0BAQEFAAOCAQ8AMIIBCgKCAQEA
16zew/xRqysgX4HVvkf8HupPfZpBNdtqMVS3ib3x3ToLg0XFBoMC+e90iuGhxy3n
JbpuY+y1x4PSW0XGJ6GvGXHvVE4CQu4VuaptJbp66SjUZ1/AnGCbCv15KI8G9l1R
EWp3bIhC1TqLGV1KsQMAh4X9lNATXNHElOC9rTEH0SlKI/dE4iwdrfC60IP+Afe7
X2kdLU8NBsuFtBVbrl5tEvZSCHbu1p6hayC5TjigmdMgSlP+Fbvdbi784efALN0r
tGDxA3PGxs0spdZEPCJkmJZdF8qcfHQ8gaNWzvZyc+JW8qV3802LwMt1wiIQvpvb
yrXcb/ZmpDUUszuv1aU1IQIDAQABo4IBNzCCATMwCQYDVR0TBAIwADAdBgNVHQ4E
FgQURmQgG7rcwgZOJgca4G95Z/bsGCwwgeQGA1UdIwSB3DCB2YAURAHMBgtBdcvI
+8k3hi2d0th5touhgbWkgbIwga8xCzAJBgNVBAYTAlVTMRMwEQYDVQQIDApDYWxp
Zm9ybmlhMRYwFAYDVQQHDA1TYW4gRnJhbmNpc2NvMSAwHgYDVQQKDBdDb3B5bGVm
dCBDZXJ0aWZpY2F0ZSBDbzEfMB0GA1UECwwWTXkgT3JnYW5pemF0aW9uYWwgVW5p
dDERMA8GA1UEAwwIQ2hhbmdlTWUxHTAbBgkqhkiG9w0BCQEWDm1lQGV4YW1wbGUu
bmV0ggkAr+jg3cWLDt0wEwYDVR0lBAwwCgYIKwYBBQUHAwIwCwYDVR0PBAQDAgeA
MA0GCSqGSIb3DQEBCwUAA4IBAQAn/QuJZw9aKksyz77TXIEvDMwzlLMb5clid3wk
8GvmLw4vMASOXMki7OGi+nqdnYjKY+Aa6Wvc31zl9RfS5VhGPJ5/1Uj5cIcis4oZ
ZHnZWvfrWnViggerUWHXny2bYI2BzHYbaOVzztfLiK+eSx/J3+hHGy6U3mBHlqcT
RB4Xz814EroNPmQ01YG7ZhQNWHizwjTbQuDsJB9E69gdR0rDhsot4e77p59s6ltT
Ujf8Nmv/OTq7QDta9NwdjpbDBsBrApzB96AfqY8KwXnmqdzMoVqU4+YEkoEoLXqw
LD1fT6WAKyMl1vH6zuYwu+ovmS0HL3p4ANvr2Z7AP5X7EGJG
-----END CERTIFICATE-----
