Certificate:
    Data:
        Version: 3 (0x2)
        Serial Number:
            77:a1:5d:58:99:cd:15:59:30:e3:66:f6:70:a7:c1:21
    Signature Algorithm: sha256WithRSAEncryption
        Issuer: C=US, ST=California, L=San Francisco, O=Copyleft Certificate Co, OU=My Organizational Unit, CN=ChangeMe/emailAddress=me@example.net
        Validity
            Not Before: Nov 11 01:59:07 2023 GMT
            Not After : Nov 10 01:59:07 2024 GMT
        Subject: C=US, ST=OH, L=Cincinnati, O=University of Cincinnati, OU=Dept. Elec. Comp. Eng. Comp. Sci., CN=client16/emailAddress=franco@gauss.ececs.uc.edu
        Subject Public Key Info:
            Public Key Algorithm: rsaEncryption
                Public-Key: (2048 bit)
                Modulus:
                    00:96:c7:41:8a:f8:43:73:43:bc:58:5d:b1:85:11:
                    20:83:27:10:20:70:d4:04:97:38:6b:52:2f:e0:23:
                    cc:58:ef:78:aa:3f:bf:b6:00:5c:45:50:a4:3c:e3:
                    ef:6e:54:33:eb:ec:65:6c:05:88:a6:c1:da:e5:66:
                    1e:ed:6f:86:ca:db:ea:42:f8:a3:c8:29:2a:d6:02:
                    41:8b:73:9d:6a:c4:cc:2f:59:40:54:9c:85:16:2d:
                    dd:1e:49:02:2d:3a:0a:55:3c:ce:62:5f:9d:df:fd:
                    6b:ec:99:91:69:4c:9b:41:d2:37:42:89:0b:eb:27:
                    c3:6a:6f:00:3e:21:e3:74:a4:27:29:ba:df:74:55:
                    f3:f1:4f:1b:31:c2:45:d1:80:8f:45:14:e9:9e:07:
                    5e:c0:dc:26:9a:69:b9:c9:bf:e7:a3:b7:7b:68:69:
                    78:8c:9a:2a:1b:d7:a8:c5:ca:b6:f3:73:c7:cb:ed:
                    65:ef:a1:cf:07:f4:c6:e4:5f:b4:18:a4:2c:8b:0c:
                    c1:6f:1a:38:ac:dd:a0:90:72:7a:ed:6e:9a:82:06:
                    04:e4:98:c9:49:fb:17:81:32:5d:b5:e5:77:78:6e:
                    78:d4:ff:be:ba:f9:ae:e1:9a:33:e8:19:95:0e:9b:
                    be:98:a9:42:4f:9c:01:7d:5a:f3:6d:eb:cb:9e:ff:
                    e4:33
                Exponent: 65537 (0x10001)
        X509v3 extensions:
            X509v3 Basic Constraints: 
                CA:FALSE
            X509v3 Subject Key Identifier: 
                29:62:CD:B9:F7:D6:9F:B5:2A:91:85:13:1F:91:2B:F1:8D:8C:5C:39
            X509v3 Authority Key Identifier: 
                keyid:7B:0F:93:16:64:9F:71:41:D3:1B:FB:ED:6A:70:9B:CA:2E:70:F0:4B
                DirName:/C=US/ST=California/L=San Francisco/O=Copyleft Certificate Co/OU=My Organizational Unit/CN=ChangeMe/emailAddress=me@example.net
                serial:B9:F2:4E:2C:79:B3:D4:6C

            X509v3 Extended Key Usage: 
                TLS Web Client Authentication
            X509v3 Key Usage: 
                Digital Signature
    Signature Algorithm: sha256WithRSAEncryption
         2c:36:b4:bb:91:7c:b5:c6:89:2a:ee:17:aa:55:a7:f4:c5:d0:
         2f:c5:e8:27:de:fa:30:b6:57:c7:14:09:f6:56:ab:1a:de:9b:
         0c:f2:4e:a2:bb:5e:da:75:55:cf:08:67:29:e7:de:0a:dd:ce:
         c3:a4:37:41:b3:0c:7d:45:40:1e:d8:6e:dd:cf:7c:38:07:fe:
         dc:4f:34:13:f3:e9:2b:cb:a1:9b:de:b2:dc:70:61:b3:f1:ed:
         1a:79:4c:5e:9e:77:a8:a1:dc:51:46:96:6a:58:de:29:be:99:
         c3:0a:43:78:ce:20:05:24:b0:77:87:f7:ff:57:55:51:b5:d9:
         16:af:90:0e:4a:60:29:f3:e3:b2:11:e0:09:24:f0:04:34:91:
         7c:ff:ba:d7:52:2b:f3:d6:e9:77:7e:fd:74:2d:22:e4:7a:c9:
         0a:c5:a2:ac:18:f6:76:f0:0e:1d:a4:4a:62:ad:db:73:c3:b5:
         ff:28:aa:04:b3:72:ea:84:9c:da:0e:36:e7:15:1b:17:fc:fe:
         70:a9:aa:e7:1a:72:42:12:31:6e:d0:78:48:53:f5:6d:0a:86:
         0b:30:e2:5b:6c:41:91:67:f4:f6:82:f0:52:bb:b4:88:b3:f3:
         69:b7:84:96:13:85:24:1b:7a:fe:c4:fd:1e:48:b8:18:3e:29:
         be:69:6a:86
-----BEGIN CERTIFICATE-----
MIIFLzCCBBegAwIBAgIQd6FdWJnNFVkw42b2cKfBITANBgkqhkiG9w0BAQsFADCB
rzELMAkGA1UEBhMCVVMxEzARBgNVBAgMCkNhbGlmb3JuaWExFjAUBgNVBAcMDVNh
biBGcmFuY2lzY28xIDAeBgNVBAoMF0NvcHlsZWZ0IENlcnRpZmljYXRlIENvMR8w
HQYDVQQLDBZNeSBPcmdhbml6YXRpb25hbCBVbml0MREwDwYDVQQDDAhDaGFuZ2VN
ZTEdMBsGCSqGSIb3DQEJARYObWVAZXhhbXBsZS5uZXQwHhcNMjMxMTExMDE1OTA3
WhcNMjQxMTEwMDE1OTA3WjCBuzELMAkGA1UEBhMCVVMxCzAJBgNVBAgMAk9IMRMw
EQYDVQQHDApDaW5jaW5uYXRpMSEwHwYDVQQKDBhVbml2ZXJzaXR5IG9mIENpbmNp
bm5hdGkxKjAoBgNVBAsMIURlcHQuIEVsZWMuIENvbXAuIEVuZy4gQ29tcC4gU2Np
LjERMA8GA1UEAwwIY2xpZW50MTYxKDAmBgkqhkiG9w0BCQEWGWZyYW5jb0BnYXVz
cy5lY2Vjcy51Yy5lZHUwggEiMA0GCSqGSIb3DQEBAQUAA4IBDwAwggEKAoIBAQCW
x0GK+ENzQ7xYXbGFESCDJxAgcNQElzhrUi/gI8xY73iqP7+2AFxFUKQ84+9uVDPr
7GVsBYimwdrlZh7tb4bK2+pC+KPIKSrWAkGLc51qxMwvWUBUnIUWLd0eSQItOgpV
PM5iX53f/WvsmZFpTJtB0jdCiQvrJ8NqbwA+IeN0pCcput90VfPxTxsxwkXRgI9F
FOmeB17A3CaaabnJv+ejt3toaXiMmiob16jFyrbzc8fL7WXvoc8H9MbkX7QYpCyL
DMFvGjis3aCQcnrtbpqCBgTkmMlJ+xeBMl215Xd4bnjU/766+a7hmjPoGZUOm76Y
qUJPnAF9WvNt68ue/+QzAgMBAAGjggE3MIIBMzAJBgNVHRMEAjAAMB0GA1UdDgQW
BBQpYs2599aftSqRhRMfkSvxjYxcOTCB5AYDVR0jBIHcMIHZgBR7D5MWZJ9xQdMb
++1qcJvKLnDwS6GBtaSBsjCBrzELMAkGA1UEBhMCVVMxEzARBgNVBAgMCkNhbGlm
b3JuaWExFjAUBgNVBAcMDVNhbiBGcmFuY2lzY28xIDAeBgNVBAoMF0NvcHlsZWZ0
IENlcnRpZmljYXRlIENvMR8wHQYDVQQLDBZNeSBPcmdhbml6YXRpb25hbCBVbml0
MREwDwYDVQQDDAhDaGFuZ2VNZTEdMBsGCSqGSIb3DQEJARYObWVAZXhhbXBsZS5u
ZXSCCQC58k4sebPUbDATBgNVHSUEDDAKBggrBgEFBQcDAjALBgNVHQ8EBAMCB4Aw
DQYJKoZIhvcNAQELBQADggEBACw2tLuRfLXGiSruF6pVp/TF0C/F6Cfe+jC2V8cU
CfZWqxremwzyTqK7Xtp1Vc8IZynn3grdzsOkN0GzDH1FQB7Ybt3PfDgH/txPNBPz
6SvLoZvestxwYbPx7Rp5TF6ed6ih3FFGlmpY3im+mcMKQ3jOIAUksHeH9/9XVVG1
2RavkA5KYCnz47IR4Akk8AQ0kXz/utdSK/PW6Xd+/XQtIuR6yQrFoqwY9nbwDh2k
SmKt23PDtf8oqgSzcuqEnNoONucVGxf8/nCpqucackISMW7QeEhT9W0Khgsw4lts
QZFn9PaC8FK7tIiz82m3hJYThSQbev7E/R5IuBg+Kb5paoY=
-----END CERTIFICATE-----
