Certificate:
    Data:
        Version: 3 (0x2)
        Serial Number:
            45:a3:5f:8c:33:34:07:54:b6:b3:ad:ab:5b:6c:19:bb
    Signature Algorithm: sha256WithRSAEncryption
        Issuer: C=US, ST=California, L=San Francisco, O=Copyleft Certificate Co, OU=My Organizational Unit, CN=ChangeMe/emailAddress=me@example.net
        Validity
            Not Before: Nov 11 01:48:30 2023 GMT
            Not After : Nov 10 01:48:30 2024 GMT
        Subject: C=US, ST=OH, L=Cincinnati, O=University of Cincinnati, OU=Dept. Elec. Comp. Eng. Comp. Sci., CN=client132/emailAddress=franco@gauss.ececs.uc.edu
        Subject Public Key Info:
            Public Key Algorithm: rsaEncryption
                Public-Key: (2048 bit)
                Modulus:
                    00:c2:a8:6b:18:a3:06:15:e6:30:b8:65:f0:fb:24:
                    2c:fa:e8:79:f3:7d:ba:c2:86:5e:0f:07:11:de:0d:
                    d0:72:c1:a2:2a:ed:c5:c9:55:64:28:9b:6a:5d:03:
                    a5:d8:ca:25:7a:f0:04:50:23:83:82:2f:c0:30:0a:
                    db:40:64:4e:be:b0:a3:41:ff:bc:b3:8e:e8:de:36:
                    0a:d8:23:b4:39:fe:60:9d:09:fb:e3:67:0d:25:ae:
                    fa:b9:ae:96:d8:2e:39:68:7b:d8:46:c8:b1:a8:08:
                    70:58:0a:43:96:4e:5f:f0:ab:22:26:1e:ab:c5:f8:
                    d4:c9:52:a3:33:30:1f:da:81:b6:f5:76:89:3e:4e:
                    6c:6c:2e:cd:19:b8:f8:52:60:0e:32:03:cc:d3:5f:
                    a1:13:76:35:2e:95:f4:30:3c:49:87:4f:d0:25:69:
                    a9:1f:fe:ab:57:1d:c8:45:15:8a:65:fb:21:03:61:
                    17:eb:66:bc:23:41:e8:af:06:38:cf:cd:85:22:f8:
                    a6:89:1a:a1:93:f6:2e:d5:dd:8e:e4:ce:1b:c8:46:
                    9c:2a:e2:86:aa:ec:eb:51:44:97:3a:2f:9c:fb:a0:
                    f9:a8:e2:85:bb:ea:7e:82:4b:eb:00:90:30:4d:b4:
                    c1:05:70:16:d1:ed:9f:b3:9c:90:3b:ec:c2:08:1b:
                    bc:57
                Exponent: 65537 (0x10001)
        X509v3 extensions:
            X509v3 Basic Constraints: 
                CA:FALSE
            X509v3 Subject Key Identifier: 
                66:D3:E5:DE:9B:45:DA:61:F0:E6:47:10:A0:2F:8F:A0:61:7A:CD:2E
            X509v3 Authority Key Identifier: 
                keyid:73:DE:A0:43:0F:AE:B1:9E:E8:59:69:18:50:A1:1A:1F:D4:A1:E3:F0
                DirName:/C=US/ST=California/L=San Francisco/O=Copyleft Certificate Co/OU=My Organizational Unit/CN=ChangeMe/emailAddress=me@example.net
                serial:E9:BB:CB:16:C5:32:BE:3B

            X509v3 Extended Key Usage: 
                TLS Web Client Authentication
            X509v3 Key Usage: 
                Digital Signature
    Signature Algorithm: sha256WithRSAEncryption
         60:43:96:f1:f5:06:b5:d8:e3:9c:4d:15:55:9a:9d:db:41:fe:
         77:2d:14:50:3f:e1:00:43:ca:b9:24:9f:12:e8:7e:89:15:6c:
         56:46:02:c5:9f:83:9e:49:dc:a0:b3:fa:d0:e6:07:cc:82:c7:
         df:b5:3f:67:ac:fb:36:31:45:76:f1:86:58:7f:b8:b7:f7:31:
         b1:39:16:23:f6:ac:71:50:a9:9d:cf:1b:d3:12:83:f8:df:28:
         18:d2:28:7a:d6:9e:55:db:6c:b3:e9:d7:a6:3b:93:98:91:3b:
         73:1f:6f:3c:80:fb:2b:bb:f6:e9:76:a4:df:bd:9f:7a:f7:f7:
         b3:54:b7:ec:7e:dd:8d:64:57:79:f8:2c:b1:80:c4:b7:90:28:
         76:ac:70:d8:8b:f1:f3:6a:03:42:6f:39:c1:ca:82:ca:24:e1:
         fa:59:41:7c:cd:ae:eb:05:e6:7d:b4:43:36:11:0f:a0:0e:a0:
         13:f6:24:a6:e1:b5:62:da:33:a4:ba:e6:44:a6:3c:94:bb:46:
         75:a5:f5:0a:0f:94:2e:16:e7:01:1e:78:87:94:1d:d4:13:f0:
         b5:4d:3b:7c:0b:06:4d:f8:17:0f:8e:7e:5f:03:d0:fc:e7:de:
         10:d0:f7:73:85:e4:f4:74:38:b2:b6:d2:8f:31:c4:87:f6:eb:
         78:38:f7:f9
-----BEGIN CERTIFICATE-----
MIIFMDCCBBigAwIBAgIQRaNfjDM0B1S2s62rW2wZuzANBgkqhkiG9w0BAQsFADCB
rzELMAkGA1UEBhMCVVMxEzARBgNVBAgMCkNhbGlmb3JuaWExFjAUBgNVBAcMDVNh
biBGcmFuY2lzY28xIDAeBgNVBAoMF0NvcHlsZWZ0IENlcnRpZmljYXRlIENvMR8w
HQYDVQQLDBZNeSBPcmdhbml6YXRpb25hbCBVbml0MREwDwYDVQQDDAhDaGFuZ2VN
ZTEdMBsGCSqGSIb3DQEJARYObWVAZXhhbXBsZS5uZXQwHhcNMjMxMTExMDE0ODMw
WhcNMjQxMTEwMDE0ODMwWjCBvDELMAkGA1UEBhMCVVMxCzAJBgNVBAgMAk9IMRMw
EQYDVQQHDApDaW5jaW5uYXRpMSEwHwYDVQQKDBhVbml2ZXJzaXR5IG9mIENpbmNp
bm5hdGkxKjAoBgNVBAsMIURlcHQuIEVsZWMuIENvbXAuIEVuZy4gQ29tcC4gU2Np
LjESMBAGA1UEAwwJY2xpZW50MTMyMSgwJgYJKoZIhvcNAQkBFhlmcmFuY29AZ2F1
c3MuZWNlY3MudWMuZWR1MIIBIjANBgkqhkiG9w0BAQEFAAOCAQ8AMIIBCgKCAQEA
wqhrGKMGFeYwuGXw+yQs+uh58326woZeDwcR3g3QcsGiKu3FyVVkKJtqXQOl2Mol
evAEUCODgi/AMArbQGROvrCjQf+8s47o3jYK2CO0Of5gnQn742cNJa76ua6W2C45
aHvYRsixqAhwWApDlk5f8KsiJh6rxfjUyVKjMzAf2oG29XaJPk5sbC7NGbj4UmAO
MgPM01+hE3Y1LpX0MDxJh0/QJWmpH/6rVx3IRRWKZfshA2EX62a8I0HorwY4z82F
IvimiRqhk/Yu1d2O5M4byEacKuKGquzrUUSXOi+c+6D5qOKFu+p+gkvrAJAwTbTB
BXAW0e2fs5yQO+zCCBu8VwIDAQABo4IBNzCCATMwCQYDVR0TBAIwADAdBgNVHQ4E
FgQUZtPl3ptF2mHw5kcQoC+PoGF6zS4wgeQGA1UdIwSB3DCB2YAUc96gQw+usZ7o
WWkYUKEaH9Sh4/ChgbWkgbIwga8xCzAJBgNVBAYTAlVTMRMwEQYDVQQIDApDYWxp
Zm9ybmlhMRYwFAYDVQQHDA1TYW4gRnJhbmNpc2NvMSAwHgYDVQQKDBdDb3B5bGVm
dCBDZXJ0aWZpY2F0ZSBDbzEfMB0GA1UECwwWTXkgT3JnYW5pemF0aW9uYWwgVW5p
dDERMA8GA1UEAwwIQ2hhbmdlTWUxHTAbBgkqhkiG9w0BCQEWDm1lQGV4YW1wbGUu
bmV0ggkA6bvLFsUyvjswEwYDVR0lBAwwCgYIKwYBBQUHAwIwCwYDVR0PBAQDAgeA
MA0GCSqGSIb3DQEBCwUAA4IBAQBgQ5bx9Qa12OOcTRVVmp3bQf53LRRQP+EAQ8q5
JJ8S6H6JFWxWRgLFn4OeSdygs/rQ5gfMgsfftT9nrPs2MUV28YZYf7i39zGxORYj
9qxxUKmdzxvTEoP43ygY0ih61p5V22yz6demO5OYkTtzH288gPsru/bpdqTfvZ96
9/ezVLfsft2NZFd5+CyxgMS3kCh2rHDYi/HzagNCbznByoLKJOH6WUF8za7rBeZ9
tEM2EQ+gDqAT9iSm4bVi2jOkuuZEpjyUu0Z1pfUKD5QuFucBHniHlB3UE/C1TTt8
CwZN+BcPjn5fA9D8594Q0PdzheT0dDiyttKPMcSH9ut4OPf5
-----END CERTIFICATE-----
