Certificate:
    Data:
        Version: 3 (0x2)
        Serial Number:
            16:18:b9:95:8a:29:45:11:cf:32:56:89:57:fb:08:a1
    Signature Algorithm: sha256WithRSAEncryption
        Issuer: C=US, ST=California, L=San Francisco, O=Copyleft Certificate Co, OU=My Organizational Unit, CN=ChangeMe/emailAddress=me@example.net
        Validity
            Not Before: Nov 12 11:48:27 2023 GMT
            Not After : Nov 11 11:48:27 2024 GMT
        Subject: C=US, ST=OH, L=Cincinnati, O=University of Cincinnati, OU=Dept. Elec. Comp. Eng. Comp. Sci., CN=client33/emailAddress=franco@gauss.ececs.uc.edu
        Subject Public Key Info:
            Public Key Algorithm: rsaEncryption
                Public-Key: (2048 bit)
                Modulus:
                    00:bc:4a:72:54:64:de:d0:3a:f5:68:06:00:3b:1b:
                    7e:d0:e5:d7:2a:42:b5:44:e9:d7:78:b7:60:b7:64:
                    d7:42:3c:89:00:73:cc:e9:1d:cb:59:ba:06:c4:b3:
                    0b:02:c3:94:17:80:55:9d:a7:98:d3:93:d2:1d:2c:
                    80:cc:f0:cc:98:3e:ce:15:e0:f9:3c:4c:74:e3:28:
                    ab:da:ce:58:64:d2:fb:64:1b:93:fa:f9:51:3c:1a:
                    65:55:2d:ad:33:15:e6:f4:a8:0a:ad:dd:cd:ec:7b:
                    be:0c:f7:32:93:65:1f:a2:61:2d:2d:40:fb:d7:f2:
                    32:fb:d9:43:c2:fa:ae:66:2e:88:22:64:46:71:8e:
                    83:5f:c7:e9:6b:84:79:46:94:ed:39:19:23:8f:56:
                    4c:59:28:ae:0e:64:06:59:e1:d6:ec:41:0b:af:ee:
                    c4:04:bc:30:1c:87:ab:0d:df:11:0a:a1:dd:a0:ad:
                    fa:e2:e0:15:e0:08:8e:33:f9:99:b2:cb:ad:03:9f:
                    c8:e9:39:d0:33:0b:70:ec:44:b9:f4:1f:1d:ac:ea:
                    14:bf:73:0d:e1:9e:9b:e1:70:33:13:72:09:75:d6:
                    06:91:58:6f:d5:d6:f2:0d:b7:1f:d3:1c:54:db:e4:
                    12:df:64:24:96:d6:3f:73:78:1a:5b:11:60:d2:3e:
                    d6:6d
                Exponent: 65537 (0x10001)
        X509v3 extensions:
            X509v3 Basic Constraints: 
                CA:FALSE
            X509v3 Subject Key Identifier: 
                6D:2F:8B:E6:D2:38:0F:15:BD:49:6F:F4:85:36:13:CC:1E:83:6C:17
            X509v3 Authority Key Identifier: 
                keyid:C4:46:F2:96:38:56:02:B8:9D:09:04:52:25:91:35:97:6A:D7:B1:F0
                DirName:/C=US/ST=California/L=San Francisco/O=Copyleft Certificate Co/OU=My Organizational Unit/CN=ChangeMe/emailAddress=me@example.net
                serial:D1:5A:15:1C:F0:20:95:62

            X509v3 Extended Key Usage: 
                TLS Web Client Authentication
            X509v3 Key Usage: 
                Digital Signature
    Signature Algorithm: sha256WithRSAEncryption
         09:ad:73:31:49:a7:e3:2d:70:e0:16:f3:4a:ea:a8:50:f5:1f:
         46:3f:bc:9b:e5:ea:1b:b2:be:b3:3f:aa:6a:d6:17:d8:12:af:
         2f:37:81:8e:4d:5e:25:b3:c4:99:84:29:3a:8d:77:03:d9:e8:
         4d:f5:10:4d:2c:38:aa:2d:4e:ae:b3:b9:21:70:31:af:88:0a:
         90:65:84:ee:75:56:b4:31:b4:f9:b4:cb:dd:cf:26:89:31:e3:
         58:a5:f2:d3:04:66:fb:a2:a4:fe:97:6f:f2:ba:79:6f:07:d9:
         ea:09:2f:e0:f7:87:a0:82:bc:e1:79:ea:24:bf:e6:bc:05:78:
         34:44:91:a0:ac:12:74:d1:2f:5c:ec:b1:9c:d6:86:c3:d9:ee:
         27:79:77:da:cd:07:28:29:18:42:fb:43:17:1f:1f:59:cc:ec:
         19:3d:80:ee:a5:58:c4:45:c8:40:05:ad:3f:7f:c3:0a:59:29:
         c4:09:35:91:aa:58:94:80:e9:66:31:a1:30:73:e7:d4:f7:60:
         7e:b7:4a:f7:f2:1c:70:10:a4:dc:9b:88:85:d7:18:9e:76:e2:
         02:24:cf:ef:9c:05:9c:c3:60:d5:e6:5b:36:ef:3b:13:07:4f:
         8f:25:c2:87:36:e3:90:9e:e1:20:06:0f:21:68:04:e4:97:be:
         04:67:1b:84
-----BEGIN CERTIFICATE-----
MIIFLzCCBBegAwIBAgIQFhi5lYopRRHPMlaJV/sIoTANBgkqhkiG9w0BAQsFADCB
rzELMAkGA1UEBhMCVVMxEzARBgNVBAgMCkNhbGlmb3JuaWExFjAUBgNVBAcMDVNh
biBGcmFuY2lzY28xIDAeBgNVBAoMF0NvcHlsZWZ0IENlcnRpZmljYXRlIENvMR8w
HQYDVQQLDBZNeSBPcmdhbml6YXRpb25hbCBVbml0MREwDwYDVQQDDAhDaGFuZ2VN
ZTEdMBsGCSqGSIb3DQEJARYObWVAZXhhbXBsZS5uZXQwHhcNMjMxMTEyMTE0ODI3
WhcNMjQxMTExMTE0ODI3WjCBuzELMAkGA1UEBhMCVVMxCzAJBgNVBAgMAk9IMRMw
EQYDVQQHDApDaW5jaW5uYXRpMSEwHwYDVQQKDBhVbml2ZXJzaXR5IG9mIENpbmNp
bm5hdGkxKjAoBgNVBAsMIURlcHQuIEVsZWMuIENvbXAuIEVuZy4gQ29tcC4gU2Np
LjERMA8GA1UEAwwIY2xpZW50MzMxKDAmBgkqhkiG9w0BCQEWGWZyYW5jb0BnYXVz
cy5lY2Vjcy51Yy5lZHUwggEiMA0GCSqGSIb3DQEBAQUAA4IBDwAwggEKAoIBAQC8
SnJUZN7QOvVoBgA7G37Q5dcqQrVE6dd4t2C3ZNdCPIkAc8zpHctZugbEswsCw5QX
gFWdp5jTk9IdLIDM8MyYPs4V4Pk8THTjKKvazlhk0vtkG5P6+VE8GmVVLa0zFeb0
qAqt3c3se74M9zKTZR+iYS0tQPvX8jL72UPC+q5mLogiZEZxjoNfx+lrhHlGlO05
GSOPVkxZKK4OZAZZ4dbsQQuv7sQEvDAch6sN3xEKod2grfri4BXgCI4z+Zmyy60D
n8jpOdAzC3DsRLn0Hx2s6hS/cw3hnpvhcDMTcgl11gaRWG/V1vINtx/THFTb5BLf
ZCSW1j9zeBpbEWDSPtZtAgMBAAGjggE3MIIBMzAJBgNVHRMEAjAAMB0GA1UdDgQW
BBRtL4vm0jgPFb1Jb/SFNhPMHoNsFzCB5AYDVR0jBIHcMIHZgBTERvKWOFYCuJ0J
BFIlkTWXatex8KGBtaSBsjCBrzELMAkGA1UEBhMCVVMxEzARBgNVBAgMCkNhbGlm
b3JuaWExFjAUBgNVBAcMDVNhbiBGcmFuY2lzY28xIDAeBgNVBAoMF0NvcHlsZWZ0
IENlcnRpZmljYXRlIENvMR8wHQYDVQQLDBZNeSBPcmdhbml6YXRpb25hbCBVbml0
MREwDwYDVQQDDAhDaGFuZ2VNZTEdMBsGCSqGSIb3DQEJARYObWVAZXhhbXBsZS5u
ZXSCCQDRWhUc8CCVYjATBgNVHSUEDDAKBggrBgEFBQcDAjALBgNVHQ8EBAMCB4Aw
DQYJKoZIhvcNAQELBQADggEBAAmtczFJp+MtcOAW80rqqFD1H0Y/vJvl6huyvrM/
qmrWF9gSry83gY5NXiWzxJmEKTqNdwPZ6E31EE0sOKotTq6zuSFwMa+ICpBlhO51
VrQxtPm0y93PJokx41il8tMEZvuipP6Xb/K6eW8H2eoJL+D3h6CCvOF56iS/5rwF
eDREkaCsEnTRL1zssZzWhsPZ7id5d9rNBygpGEL7QxcfH1nM7Bk9gO6lWMRFyEAF
rT9/wwpZKcQJNZGqWJSA6WYxoTBz59T3YH63SvfyHHAQpNybiIXXGJ524gIkz++c
BZzDYNXmWzbvOxMHT48lwoc245Ce4SAGDyFoBOSXvgRnG4Q=
-----END CERTIFICATE-----
