Certificate:
    Data:
        Version: 3 (0x2)
        Serial Number:
            1b:6c:e6:d2:3e:be:28:51:61:73:7f:90:a5:14:de:f7
    Signature Algorithm: sha256WithRSAEncryption
        Issuer: C=US, ST=California, L=San Francisco, O=Copyleft Certificate Co, OU=My Organizational Unit, CN=ChangeMe/emailAddress=me@example.net
        Validity
            Not Before: Nov 10 17:46:42 2023 GMT
            Not After : Nov  9 17:46:42 2024 GMT
        Subject: C=US, ST=OH, L=Cincinnati, O=University of Cincinnati, OU=Dept_Elec_Com_ Eng_Com_Sci., CN=client124/emailAddress=franco@gauss.ececs.uc.edu
        Subject Public Key Info:
            Public Key Algorithm: rsaEncryption
                Public-Key: (2048 bit)
                Modulus:
                    00:a5:a2:41:eb:50:a5:35:18:23:6f:0b:20:fb:77:
                    71:ca:1d:9d:70:32:ba:cc:31:a7:06:1b:80:17:42:
                    58:f2:1e:11:09:cb:d3:67:18:84:52:8f:3b:7f:f7:
                    4c:1a:64:0f:04:be:c5:a7:5b:68:3c:a6:17:ce:b9:
                    0d:52:c5:f9:19:8a:16:30:ca:77:5c:f7:e0:04:64:
                    7c:62:4e:59:ca:55:83:7e:8a:47:18:79:8b:b1:66:
                    ad:1a:61:85:e1:70:8b:41:16:c6:c2:54:19:44:cf:
                    e6:5c:d6:cb:51:07:80:e7:6a:4f:f6:e6:dc:c7:4d:
                    4d:5a:40:cb:4f:ec:9c:e0:15:c2:97:89:8a:37:bb:
                    9d:f5:4c:21:ec:6b:aa:88:cf:88:a1:44:08:fd:0e:
                    83:68:8a:3e:9a:19:4f:93:6e:99:8e:e2:df:f4:cb:
                    e3:58:bb:e8:6c:1f:12:a1:45:98:ba:66:50:c3:08:
                    7c:d7:d5:d8:34:04:d2:c9:26:2b:d9:c7:24:69:ec:
                    24:72:09:61:ae:55:d1:aa:03:55:64:58:3b:3a:8f:
                    f4:3e:00:a9:b4:84:a9:0e:9f:7e:9a:8a:f6:d8:ca:
                    f0:7c:80:49:e0:58:d0:0f:b2:df:10:57:1b:54:32:
                    7b:2f:68:29:39:49:f8:a1:69:88:6c:0f:19:0d:2b:
                    3b:89
                Exponent: 65537 (0x10001)
        X509v3 extensions:
            X509v3 Basic Constraints: 
                CA:FALSE
            X509v3 Subject Key Identifier: 
                3E:AE:D8:59:83:83:70:BB:15:6D:8F:25:3A:BB:03:99:E8:54:AE:72
            X509v3 Authority Key Identifier: 
                keyid:C8:27:DA:64:30:08:40:08:4A:25:CC:DC:43:99:DE:77:A1:FE:77:BD
                DirName:/C=US/ST=California/L=San Francisco/O=Copyleft Certificate Co/OU=My Organizational Unit/CN=ChangeMe/emailAddress=me@example.net
                serial:A9:48:C3:7E:FC:1B:B0:A1

            X509v3 Extended Key Usage: 
                TLS Web Client Authentication
            X509v3 Key Usage: 
                Digital Signature
    Signature Algorithm: sha256WithRSAEncryption
         b1:57:fe:da:93:d5:b3:a1:d3:f5:18:16:b0:5a:53:ea:ca:15:
         0b:38:4f:32:b4:86:16:da:04:4a:41:9d:24:26:a7:df:17:f1:
         bf:d2:1a:fe:d6:cb:3a:2f:3c:28:f7:6d:a3:c9:15:41:cc:59:
         f6:24:c1:f1:b6:50:4f:1d:53:8f:52:f2:31:13:bc:cd:a0:7b:
         3c:ea:5b:d6:fa:be:64:08:ef:70:d9:49:4d:aa:b5:4c:90:24:
         b3:b0:ea:0f:49:09:ac:35:8b:f3:91:19:2a:fa:aa:6e:33:d2:
         ed:61:12:d3:bb:aa:7a:4e:7b:a2:e2:2b:62:f7:05:61:d9:4d:
         bd:d2:22:d7:b7:e6:b2:64:04:0d:48:88:fd:16:19:68:44:b0:
         6e:fd:f4:b3:fa:03:78:84:4b:be:1d:ad:f5:28:2c:9c:13:39:
         35:cf:b5:4d:29:4e:2f:61:37:fa:78:45:89:8b:8b:fd:7b:ef:
         b5:89:1b:a8:80:6d:db:1d:8e:77:88:a9:39:33:81:ea:f2:ec:
         18:45:70:7e:26:88:d0:79:2d:4e:05:4b:8e:fe:df:73:0e:20:
         d1:c1:85:02:cd:5b:15:9c:99:03:69:af:43:58:ba:ea:fb:d2:
         0e:63:24:3f:27:d2:76:99:d0:54:97:a0:4d:5d:4d:31:65:f4:
         04:76:9b:f0
-----BEGIN CERTIFICATE-----
MIIFKjCCBBKgAwIBAgIQG2zm0j6+KFFhc3+QpRTe9zANBgkqhkiG9w0BAQsFADCB
rzELMAkGA1UEBhMCVVMxEzARBgNVBAgMCkNhbGlmb3JuaWExFjAUBgNVBAcMDVNh
biBGcmFuY2lzY28xIDAeBgNVBAoMF0NvcHlsZWZ0IENlcnRpZmljYXRlIENvMR8w
HQYDVQQLDBZNeSBPcmdhbml6YXRpb25hbCBVbml0MREwDwYDVQQDDAhDaGFuZ2VN
ZTEdMBsGCSqGSIb3DQEJARYObWVAZXhhbXBsZS5uZXQwHhcNMjMxMTEwMTc0NjQy
WhcNMjQxMTA5MTc0NjQyWjCBtjELMAkGA1UEBhMCVVMxCzAJBgNVBAgMAk9IMRMw
EQYDVQQHDApDaW5jaW5uYXRpMSEwHwYDVQQKDBhVbml2ZXJzaXR5IG9mIENpbmNp
bm5hdGkxJDAiBgNVBAsMG0RlcHRfRWxlY19Db21fIEVuZ19Db21fU2NpLjESMBAG
A1UEAwwJY2xpZW50MTI0MSgwJgYJKoZIhvcNAQkBFhlmcmFuY29AZ2F1c3MuZWNl
Y3MudWMuZWR1MIIBIjANBgkqhkiG9w0BAQEFAAOCAQ8AMIIBCgKCAQEApaJB61Cl
NRgjbwsg+3dxyh2dcDK6zDGnBhuAF0JY8h4RCcvTZxiEUo87f/dMGmQPBL7Fp1to
PKYXzrkNUsX5GYoWMMp3XPfgBGR8Yk5ZylWDfopHGHmLsWatGmGF4XCLQRbGwlQZ
RM/mXNbLUQeA52pP9ubcx01NWkDLT+yc4BXCl4mKN7ud9Uwh7GuqiM+IoUQI/Q6D
aIo+mhlPk26ZjuLf9MvjWLvobB8SoUWYumZQwwh819XYNATSySYr2cckaewkcglh
rlXRqgNVZFg7Oo/0PgCptISpDp9+mor22MrwfIBJ4FjQD7LfEFcbVDJ7L2gpOUn4
oWmIbA8ZDSs7iQIDAQABo4IBNzCCATMwCQYDVR0TBAIwADAdBgNVHQ4EFgQUPq7Y
WYODcLsVbY8lOrsDmehUrnIwgeQGA1UdIwSB3DCB2YAUyCfaZDAIQAhKJczcQ5ne
d6H+d72hgbWkgbIwga8xCzAJBgNVBAYTAlVTMRMwEQYDVQQIDApDYWxpZm9ybmlh
MRYwFAYDVQQHDA1TYW4gRnJhbmNpc2NvMSAwHgYDVQQKDBdDb3B5bGVmdCBDZXJ0
aWZpY2F0ZSBDbzEfMB0GA1UECwwWTXkgT3JnYW5pemF0aW9uYWwgVW5pdDERMA8G
A1UEAwwIQ2hhbmdlTWUxHTAbBgkqhkiG9w0BCQEWDm1lQGV4YW1wbGUubmV0ggkA
qUjDfvwbsKEwEwYDVR0lBAwwCgYIKwYBBQUHAwIwCwYDVR0PBAQDAgeAMA0GCSqG
SIb3DQEBCwUAA4IBAQCxV/7ak9WzodP1GBawWlPqyhULOE8ytIYW2gRKQZ0kJqff
F/G/0hr+1ss6Lzwo922jyRVBzFn2JMHxtlBPHVOPUvIxE7zNoHs86lvW+r5kCO9w
2UlNqrVMkCSzsOoPSQmsNYvzkRkq+qpuM9LtYRLTu6p6Tnui4iti9wVh2U290iLX
t+ayZAQNSIj9FhloRLBu/fSz+gN4hEu+Ha31KCycEzk1z7VNKU4vYTf6eEWJi4v9
e++1iRuogG3bHY53iKk5M4Hq8uwYRXB+JojQeS1OBUuO/t9zDiDRwYUCzVsVnJkD
aa9DWLrq+9IOYyQ/J9J2mdBUl6BNXU0xZfQEdpvw
-----END CERTIFICATE-----
