Certificate:
    Data:
        Version: 3 (0x2)
        Serial Number:
            e9:89:88:ab:7a:72:d1:8d:51:cf:2d:cd:27:19:6f:31
    Signature Algorithm: sha256WithRSAEncryption
        Issuer: C=US, ST=California, L=San Francisco, O=Copyleft Certificate Co, OU=My Organizational Unit, CN=ChangeMe/emailAddress=me@example.net
        Validity
            Not Before: Nov 11 10:58:32 2023 GMT
            Not After : Nov 10 10:58:32 2024 GMT
        Subject: C=US, ST=OH, L=Cincinnati, O=University of Cincinnati, OU=Dept. Elec. Comp. Eng. Comp. Sci., CN=client49/emailAddress=franco@gauss.ececs.uc.edu
        Subject Public Key Info:
            Public Key Algorithm: rsaEncryption
                Public-Key: (2048 bit)
                Modulus:
                    00:a8:94:1d:a0:66:e1:a7:56:a7:03:c4:84:95:09:
                    60:e2:1c:37:23:04:52:0d:a7:4c:96:0d:80:b8:e1:
                    f2:fb:2d:3c:cd:28:c3:ab:23:fd:12:17:dc:ef:6d:
                    39:10:d3:40:64:db:98:40:10:12:c4:9e:c4:78:c9:
                    35:b1:71:f1:e3:0c:f4:5b:c0:45:47:ba:ca:79:c5:
                    40:0c:1e:ab:75:90:e1:85:de:56:c8:ff:62:c9:b9:
                    22:76:57:08:85:47:c0:15:db:aa:4c:d8:f1:b5:27:
                    6c:f1:cc:fe:c9:e6:a2:c9:0d:77:b3:aa:3c:71:ea:
                    0e:b3:f3:b6:cf:6a:13:89:1c:68:27:da:bb:e5:e2:
                    06:db:ef:f0:07:23:b5:70:e3:c9:f4:6b:0f:59:15:
                    83:b8:02:23:b7:43:66:aa:b6:b6:ba:14:48:88:83:
                    b3:56:98:4e:ce:0b:17:ac:8f:e8:d0:3c:c9:ad:67:
                    1e:e1:38:45:4d:77:94:11:7a:f4:19:40:e2:52:f0:
                    c5:b1:c7:f1:a8:49:6e:ec:0a:19:34:a3:90:b7:d7:
                    49:23:39:93:d5:e8:9d:b6:2e:9b:77:f9:49:5e:45:
                    f0:48:a3:aa:0a:2d:54:a7:09:e3:a4:80:2f:04:07:
                    e3:23:09:a2:23:b4:ae:e5:34:87:19:a3:d6:c0:50:
                    ce:03
                Exponent: 65537 (0x10001)
        X509v3 extensions:
            X509v3 Basic Constraints: 
                CA:FALSE
            X509v3 Subject Key Identifier: 
                80:51:59:19:27:A8:7B:E7:57:BB:CE:A8:39:C3:FC:08:30:02:ED:C5
            X509v3 Authority Key Identifier: 
                keyid:44:01:CC:06:0B:41:75:CB:C8:FB:C9:37:86:2D:9D:D2:D8:79:B6:8B
                DirName:/C=US/ST=California/L=San Francisco/O=Copyleft Certificate Co/OU=My Organizational Unit/CN=ChangeMe/emailAddress=me@example.net
                serial:AF:E8:E0:DD:C5:8B:0E:DD

            X509v3 Extended Key Usage: 
                TLS Web Client Authentication
            X509v3 Key Usage: 
                Digital Signature
    Signature Algorithm: sha256WithRSAEncryption
         28:f2:58:26:a4:81:bd:a2:c4:ef:03:9b:0d:c2:d6:5f:20:3f:
         4b:eb:dc:a5:6a:c4:45:7b:8e:69:5b:2f:83:a9:68:30:71:c5:
         1c:ab:33:cd:3c:cd:25:6d:55:e3:5c:72:80:71:e8:38:36:ea:
         6e:07:0b:61:79:9f:b0:f1:d5:a8:9e:e5:ba:2b:47:95:43:9a:
         7a:76:8d:0c:be:b4:82:37:a9:24:0d:5b:44:b0:61:5b:6a:89:
         fe:83:89:28:87:a4:c1:ee:fa:5d:5c:ee:a7:09:0a:2e:77:fd:
         46:38:9b:e9:f6:ae:62:1c:c9:44:ac:4c:3b:c5:75:b4:6d:3b:
         d2:49:da:1b:ee:98:23:89:ec:0c:e6:7d:3c:7f:93:86:9a:2b:
         b4:af:a6:ff:97:4a:8d:33:9e:da:cc:e6:20:bc:08:81:76:58:
         fd:7a:ea:ef:33:df:59:aa:d1:cc:3f:48:3d:98:a3:c7:b5:83:
         23:53:5e:1a:2f:95:d7:0d:6d:a1:b2:c5:bb:86:70:7d:80:9d:
         76:41:4c:66:cf:6f:bb:89:07:99:58:35:fd:93:7c:c1:bb:1e:
         9a:30:86:d0:63:13:59:30:7f:93:98:81:f4:31:4b:78:28:6f:
         44:05:87:3c:40:50:cc:d8:af:16:b4:37:64:c6:26:04:6b:86:
         f0:22:85:54
-----BEGIN CERTIFICATE-----
MIIFMDCCBBigAwIBAgIRAOmJiKt6ctGNUc8tzScZbzEwDQYJKoZIhvcNAQELBQAw
ga8xCzAJBgNVBAYTAlVTMRMwEQYDVQQIDApDYWxpZm9ybmlhMRYwFAYDVQQHDA1T
YW4gRnJhbmNpc2NvMSAwHgYDVQQKDBdDb3B5bGVmdCBDZXJ0aWZpY2F0ZSBDbzEf
MB0GA1UECwwWTXkgT3JnYW5pemF0aW9uYWwgVW5pdDERMA8GA1UEAwwIQ2hhbmdl
TWUxHTAbBgkqhkiG9w0BCQEWDm1lQGV4YW1wbGUubmV0MB4XDTIzMTExMTEwNTgz
MloXDTI0MTExMDEwNTgzMlowgbsxCzAJBgNVBAYTAlVTMQswCQYDVQQIDAJPSDET
MBEGA1UEBwwKQ2luY2lubmF0aTEhMB8GA1UECgwYVW5pdmVyc2l0eSBvZiBDaW5j
aW5uYXRpMSowKAYDVQQLDCFEZXB0LiBFbGVjLiBDb21wLiBFbmcuIENvbXAuIFNj
aS4xETAPBgNVBAMMCGNsaWVudDQ5MSgwJgYJKoZIhvcNAQkBFhlmcmFuY29AZ2F1
c3MuZWNlY3MudWMuZWR1MIIBIjANBgkqhkiG9w0BAQEFAAOCAQ8AMIIBCgKCAQEA
qJQdoGbhp1anA8SElQlg4hw3IwRSDadMlg2AuOHy+y08zSjDqyP9Ehfc7205ENNA
ZNuYQBASxJ7EeMk1sXHx4wz0W8BFR7rKecVADB6rdZDhhd5WyP9iybkidlcIhUfA
FduqTNjxtSds8cz+yeaiyQ13s6o8ceoOs/O2z2oTiRxoJ9q75eIG2+/wByO1cOPJ
9GsPWRWDuAIjt0Nmqra2uhRIiIOzVphOzgsXrI/o0DzJrWce4ThFTXeUEXr0GUDi
UvDFscfxqElu7AoZNKOQt9dJIzmT1eidti6bd/lJXkXwSKOqCi1UpwnjpIAvBAfj
IwmiI7Su5TSHGaPWwFDOAwIDAQABo4IBNzCCATMwCQYDVR0TBAIwADAdBgNVHQ4E
FgQUgFFZGSeoe+dXu86oOcP8CDAC7cUwgeQGA1UdIwSB3DCB2YAURAHMBgtBdcvI
+8k3hi2d0th5touhgbWkgbIwga8xCzAJBgNVBAYTAlVTMRMwEQYDVQQIDApDYWxp
Zm9ybmlhMRYwFAYDVQQHDA1TYW4gRnJhbmNpc2NvMSAwHgYDVQQKDBdDb3B5bGVm
dCBDZXJ0aWZpY2F0ZSBDbzEfMB0GA1UECwwWTXkgT3JnYW5pemF0aW9uYWwgVW5p
dDERMA8GA1UEAwwIQ2hhbmdlTWUxHTAbBgkqhkiG9w0BCQEWDm1lQGV4YW1wbGUu
bmV0ggkAr+jg3cWLDt0wEwYDVR0lBAwwCgYIKwYBBQUHAwIwCwYDVR0PBAQDAgeA
MA0GCSqGSIb3DQEBCwUAA4IBAQAo8lgmpIG9osTvA5sNwtZfID9L69ylasRFe45p
Wy+DqWgwccUcqzPNPM0lbVXjXHKAceg4NupuBwtheZ+w8dWonuW6K0eVQ5p6do0M
vrSCN6kkDVtEsGFbaon+g4koh6TB7vpdXO6nCQoud/1GOJvp9q5iHMlErEw7xXW0
bTvSSdob7pgjiewM5n08f5OGmiu0r6b/l0qNM57azOYgvAiBdlj9eurvM99ZqtHM
P0g9mKPHtYMjU14aL5XXDW2hssW7hnB9gJ12QUxmz2+7iQeZWDX9k3zBux6aMIbQ
YxNZMH+TmIH0MUt4KG9EBYc8QFDM2K8WtDdkxiYEa4bwIoVU
-----END CERTIFICATE-----
