Certificate:
    Data:
        Version: 3 (0x2)
        Serial Number:
            c8:20:5d:22:12:00:1c:7d:f3:67:2d:31:87:79:62:ba
    Signature Algorithm: sha256WithRSAEncryption
        Issuer: C=US, ST=California, L=San Francisco, O=Copyleft Certificate Co, OU=My Organizational Unit, CN=ChangeMe/emailAddress=me@example.net
        Validity
            Not Before: Nov 11 10:58:36 2023 GMT
            Not After : Nov 10 10:58:36 2024 GMT
        Subject: C=US, ST=OH, L=Cincinnati, O=University of Cincinnati, OU=Dept. Elec. Comp. Eng. Comp. Sci., CN=client50/emailAddress=franco@gauss.ececs.uc.edu
        Subject Public Key Info:
            Public Key Algorithm: rsaEncryption
                Public-Key: (2048 bit)
                Modulus:
                    00:b3:2f:ef:61:42:c6:ba:a0:50:d3:75:c3:11:7c:
                    d1:33:aa:6d:e2:f6:db:46:dc:73:19:89:c4:1b:c0:
                    69:99:60:8d:14:26:56:2f:4c:ce:a2:59:a5:9c:c5:
                    78:8c:af:0d:eb:e9:4e:b2:df:80:a0:78:fe:b0:73:
                    ab:dd:43:ef:6f:de:b8:f7:ab:f7:5b:46:45:1b:56:
                    cc:8c:1a:6b:44:1a:12:31:4d:a4:15:ff:9f:73:ad:
                    42:5f:fd:c5:0f:7b:33:1f:9e:5d:46:f7:ed:e6:58:
                    ed:93:fb:71:65:78:8a:a6:0a:44:78:c6:af:0a:87:
                    ac:f2:ae:c1:8f:db:c3:12:dc:44:f4:0b:2a:d3:65:
                    d8:e9:91:87:c4:87:3a:5a:ca:2f:cd:6f:16:6b:7a:
                    6e:a9:5d:77:d8:af:d9:8e:e9:80:12:c9:84:55:35:
                    c4:d7:43:a7:b4:1f:7d:f8:5c:43:7e:8b:c6:05:a4:
                    28:ee:3f:d3:bc:c9:81:5a:c1:13:be:1d:95:d7:58:
                    51:2f:c5:f8:b6:ea:a9:5f:bb:c9:b1:b7:46:94:d8:
                    a3:fa:8b:bc:18:f3:4c:cc:0b:22:a6:72:39:21:9d:
                    c7:f6:8a:9c:65:33:ac:49:cd:b3:a4:8c:27:36:ab:
                    a6:78:df:e6:88:b2:87:02:e9:10:3e:4d:e5:79:50:
                    89:e1
                Exponent: 65537 (0x10001)
        X509v3 extensions:
            X509v3 Basic Constraints: 
                CA:FALSE
            X509v3 Subject Key Identifier: 
                19:E2:B0:5B:24:B3:F0:6C:7B:2B:EE:5C:F0:1F:98:72:B0:BC:CD:53
            X509v3 Authority Key Identifier: 
                keyid:44:01:CC:06:0B:41:75:CB:C8:FB:C9:37:86:2D:9D:D2:D8:79:B6:8B
                DirName:/C=US/ST=California/L=San Francisco/O=Copyleft Certificate Co/OU=My Organizational Unit/CN=ChangeMe/emailAddress=me@example.net
                serial:AF:E8:E0:DD:C5:8B:0E:DD

            X509v3 Extended Key Usage: 
                TLS Web Client Authentication
            X509v3 Key Usage: 
                Digital Signature
    Signature Algorithm: sha256WithRSAEncryption
         08:65:ff:19:2b:e1:7c:a3:cc:3e:71:95:ec:b8:04:e7:3d:d4:
         3f:63:56:91:dc:e3:a0:d7:fb:24:9c:f9:62:62:d5:78:a8:65:
         44:b4:b3:87:f4:35:ed:ed:6e:ec:15:ef:20:ba:cf:fd:85:23:
         bb:c9:4d:38:d7:9d:c0:d8:a5:ad:fb:6f:64:38:6a:73:b1:a4:
         ba:99:77:01:2b:6c:49:47:19:51:46:ee:75:c8:2f:8e:f2:98:
         4a:af:a2:b8:23:f6:07:07:fd:74:8d:cd:80:a0:0e:33:b2:6e:
         42:37:68:00:48:82:3e:ec:13:ce:9b:13:9a:a1:07:7c:e3:53:
         ed:4d:b6:bd:07:ac:28:e3:86:1f:0b:84:ec:c0:ec:99:ce:2d:
         74:cd:db:98:11:8e:31:d0:8b:71:ea:06:71:02:6f:7a:76:aa:
         a5:af:ce:a9:b0:94:3e:aa:d1:51:64:72:78:66:a7:d5:b9:18:
         cf:5f:4a:b9:d9:6c:6d:78:af:05:88:95:9c:79:2f:f1:a8:4d:
         ca:c4:e5:ef:2a:f4:49:93:69:4b:28:bc:8c:71:3a:7e:4b:2a:
         cf:45:65:64:9f:c3:bb:57:11:3e:e0:62:69:7d:a8:6c:1f:20:
         47:88:bf:23:64:cb:2f:f3:5e:9a:5c:8a:85:ab:8d:7e:fc:1c:
         15:37:30:89
-----BEGIN CERTIFICATE-----
MIIFMDCCBBigAwIBAgIRAMggXSISABx982ctMYd5YrowDQYJKoZIhvcNAQELBQAw
ga8xCzAJBgNVBAYTAlVTMRMwEQYDVQQIDApDYWxpZm9ybmlhMRYwFAYDVQQHDA1T
YW4gRnJhbmNpc2NvMSAwHgYDVQQKDBdDb3B5bGVmdCBDZXJ0aWZpY2F0ZSBDbzEf
MB0GA1UECwwWTXkgT3JnYW5pemF0aW9uYWwgVW5pdDERMA8GA1UEAwwIQ2hhbmdl
TWUxHTAbBgkqhkiG9w0BCQEWDm1lQGV4YW1wbGUubmV0MB4XDTIzMTExMTEwNTgz
NloXDTI0MTExMDEwNTgzNlowgbsxCzAJBgNVBAYTAlVTMQswCQYDVQQIDAJPSDET
MBEGA1UEBwwKQ2luY2lubmF0aTEhMB8GA1UECgwYVW5pdmVyc2l0eSBvZiBDaW5j
aW5uYXRpMSowKAYDVQQLDCFEZXB0LiBFbGVjLiBDb21wLiBFbmcuIENvbXAuIFNj
aS4xETAPBgNVBAMMCGNsaWVudDUwMSgwJgYJKoZIhvcNAQkBFhlmcmFuY29AZ2F1
c3MuZWNlY3MudWMuZWR1MIIBIjANBgkqhkiG9w0BAQEFAAOCAQ8AMIIBCgKCAQEA
sy/vYULGuqBQ03XDEXzRM6pt4vbbRtxzGYnEG8BpmWCNFCZWL0zOolmlnMV4jK8N
6+lOst+AoHj+sHOr3UPvb96496v3W0ZFG1bMjBprRBoSMU2kFf+fc61CX/3FD3sz
H55dRvft5ljtk/txZXiKpgpEeMavCoes8q7Bj9vDEtxE9Asq02XY6ZGHxIc6Wsov
zW8Wa3puqV132K/ZjumAEsmEVTXE10OntB99+FxDfovGBaQo7j/TvMmBWsETvh2V
11hRL8X4tuqpX7vJsbdGlNij+ou8GPNMzAsipnI5IZ3H9oqcZTOsSc2zpIwnNqum
eN/miLKHAukQPk3leVCJ4QIDAQABo4IBNzCCATMwCQYDVR0TBAIwADAdBgNVHQ4E
FgQUGeKwWySz8Gx7K+5c8B+YcrC8zVMwgeQGA1UdIwSB3DCB2YAURAHMBgtBdcvI
+8k3hi2d0th5touhgbWkgbIwga8xCzAJBgNVBAYTAlVTMRMwEQYDVQQIDApDYWxp
Zm9ybmlhMRYwFAYDVQQHDA1TYW4gRnJhbmNpc2NvMSAwHgYDVQQKDBdDb3B5bGVm
dCBDZXJ0aWZpY2F0ZSBDbzEfMB0GA1UECwwWTXkgT3JnYW5pemF0aW9uYWwgVW5p
dDERMA8GA1UEAwwIQ2hhbmdlTWUxHTAbBgkqhkiG9w0BCQEWDm1lQGV4YW1wbGUu
bmV0ggkAr+jg3cWLDt0wEwYDVR0lBAwwCgYIKwYBBQUHAwIwCwYDVR0PBAQDAgeA
MA0GCSqGSIb3DQEBCwUAA4IBAQAIZf8ZK+F8o8w+cZXsuATnPdQ/Y1aR3OOg1/sk
nPliYtV4qGVEtLOH9DXt7W7sFe8gus/9hSO7yU04153A2KWt+29kOGpzsaS6mXcB
K2xJRxlRRu51yC+O8phKr6K4I/YHB/10jc2AoA4zsm5CN2gASII+7BPOmxOaoQd8
41PtTba9B6wo44YfC4TswOyZzi10zduYEY4x0Itx6gZxAm96dqqlr86psJQ+qtFR
ZHJ4ZqfVuRjPX0q52WxteK8FiJWceS/xqE3KxOXvKvRJk2lLKLyMcTp+SyrPRWVk
n8O7VxE+4GJpfahsHyBHiL8jZMsv816aXIqFq41+/BwVNzCJ
-----END CERTIFICATE-----
