Certificate:
    Data:
        Version: 3 (0x2)
        Serial Number:
            17:cf:f0:fd:01:20:b1:00:76:f3:13:f3:1a:59:9a:f6
    Signature Algorithm: sha256WithRSAEncryption
        Issuer: C=US, ST=California, L=San Francisco, O=Copyleft Certificate Co, OU=My Organizational Unit, CN=ChangeMe/emailAddress=me@example.net
        Validity
            Not Before: Nov 11 01:47:58 2023 GMT
            Not After : Nov 10 01:47:58 2024 GMT
        Subject: C=US, ST=OH, L=Cincinnati, O=University of Cincinnati, OU=Dept. Elec. Comp. Eng. Comp. Sci., CN=client124/emailAddress=franco@gauss.ececs.uc.edu
        Subject Public Key Info:
            Public Key Algorithm: rsaEncryption
                Public-Key: (2048 bit)
                Modulus:
                    00:c5:01:af:64:f4:d0:bc:4b:cd:2d:9b:55:3f:7c:
                    2e:cc:28:ce:9c:a0:a2:e1:68:25:05:9f:71:2c:fe:
                    2b:07:e3:24:35:84:5c:c9:d2:43:71:0c:87:51:c6:
                    25:a0:17:11:84:17:ba:4b:ba:0f:6a:b2:c7:96:ac:
                    4c:d6:db:7f:8a:8a:d5:d9:31:89:23:81:77:ec:d1:
                    10:81:28:be:56:10:a2:25:0f:4f:8f:b1:4d:d0:8b:
                    94:6d:63:86:fe:84:21:82:54:7d:76:57:22:96:7d:
                    f3:fd:04:7a:df:fa:4b:70:a1:79:c6:45:70:76:9b:
                    1d:f9:dd:27:62:60:57:4a:37:6e:44:a9:3f:ca:b6:
                    95:67:c3:01:17:b4:08:5f:c8:35:34:47:ec:59:16:
                    85:6d:45:97:6a:81:e7:8b:1b:fd:03:d9:c7:e6:8b:
                    a6:f1:32:54:41:25:d8:c2:fb:1b:d7:bd:b3:67:e3:
                    0c:a0:a7:93:ef:7f:e2:15:a0:1b:a3:81:ab:03:1e:
                    3e:a7:45:9a:43:10:29:c5:7d:7f:2a:05:8b:f8:2a:
                    42:c0:4c:f3:95:5a:64:9a:bf:0b:76:8f:36:12:90:
                    3d:fb:81:f6:74:0e:06:6b:c9:9a:75:c5:93:11:ee:
                    c3:69:eb:af:8d:bb:06:ec:d1:d1:dd:66:5c:00:d1:
                    ab:a5
                Exponent: 65537 (0x10001)
        X509v3 extensions:
            X509v3 Basic Constraints: 
                CA:FALSE
            X509v3 Subject Key Identifier: 
                E4:04:14:FF:27:BA:EF:03:E2:EB:20:64:0A:1D:F7:9F:32:40:DA:97
            X509v3 Authority Key Identifier: 
                keyid:73:DE:A0:43:0F:AE:B1:9E:E8:59:69:18:50:A1:1A:1F:D4:A1:E3:F0
                DirName:/C=US/ST=California/L=San Francisco/O=Copyleft Certificate Co/OU=My Organizational Unit/CN=ChangeMe/emailAddress=me@example.net
                serial:E9:BB:CB:16:C5:32:BE:3B

            X509v3 Extended Key Usage: 
                TLS Web Client Authentication
            X509v3 Key Usage: 
                Digital Signature
    Signature Algorithm: sha256WithRSAEncryption
         9d:9a:46:7b:51:52:53:ed:d2:7e:d7:d9:8e:42:50:21:26:91:
         8e:24:a4:42:2c:70:f9:16:4f:4c:d5:06:ff:08:fe:d3:21:61:
         e9:3b:61:c7:e8:5e:4d:7e:76:e0:2c:16:97:a5:f6:15:f3:53:
         e9:f8:3a:fa:64:03:6f:97:ca:28:78:86:58:ca:b8:c4:85:e7:
         48:c8:d2:e9:5c:40:5d:cf:b2:6f:13:f3:28:b9:f4:c2:1d:7d:
         b2:1b:e3:fe:5b:60:97:55:cc:cf:e3:71:0a:0d:42:95:80:95:
         42:32:7b:80:9f:4b:0b:5b:92:5e:34:36:1b:19:1a:3d:48:79:
         e9:81:83:27:df:29:1a:cc:48:e4:3d:b8:f8:2e:f5:e3:d6:28:
         0d:e0:dd:0f:f5:44:94:da:2e:75:12:09:4a:bb:09:44:dd:61:
         80:da:a6:80:ae:29:a2:d7:df:4d:0d:74:b9:2a:56:ea:1f:ec:
         c4:08:b3:27:ca:8f:a0:8c:62:29:a1:2a:e4:48:12:0f:76:90:
         41:29:9d:e6:35:67:8e:62:15:b7:86:cb:7c:1d:49:5c:bc:3d:
         3e:a9:48:06:88:f3:2c:d3:1c:d3:b3:17:8e:1c:33:86:17:45:
         e0:5d:9e:56:c5:ea:4e:d5:44:a4:47:18:84:2c:a0:a7:2f:d7:
         bf:ea:21:d1
-----BEGIN CERTIFICATE-----
MIIFMDCCBBigAwIBAgIQF8/w/QEgsQB28xPzGlma9jANBgkqhkiG9w0BAQsFADCB
rzELMAkGA1UEBhMCVVMxEzARBgNVBAgMCkNhbGlmb3JuaWExFjAUBgNVBAcMDVNh
biBGcmFuY2lzY28xIDAeBgNVBAoMF0NvcHlsZWZ0IENlcnRpZmljYXRlIENvMR8w
HQYDVQQLDBZNeSBPcmdhbml6YXRpb25hbCBVbml0MREwDwYDVQQDDAhDaGFuZ2VN
ZTEdMBsGCSqGSIb3DQEJARYObWVAZXhhbXBsZS5uZXQwHhcNMjMxMTExMDE0NzU4
WhcNMjQxMTEwMDE0NzU4WjCBvDELMAkGA1UEBhMCVVMxCzAJBgNVBAgMAk9IMRMw
EQYDVQQHDApDaW5jaW5uYXRpMSEwHwYDVQQKDBhVbml2ZXJzaXR5IG9mIENpbmNp
bm5hdGkxKjAoBgNVBAsMIURlcHQuIEVsZWMuIENvbXAuIEVuZy4gQ29tcC4gU2Np
LjESMBAGA1UEAwwJY2xpZW50MTI0MSgwJgYJKoZIhvcNAQkBFhlmcmFuY29AZ2F1
c3MuZWNlY3MudWMuZWR1MIIBIjANBgkqhkiG9w0BAQEFAAOCAQ8AMIIBCgKCAQEA
xQGvZPTQvEvNLZtVP3wuzCjOnKCi4WglBZ9xLP4rB+MkNYRcydJDcQyHUcYloBcR
hBe6S7oParLHlqxM1tt/iorV2TGJI4F37NEQgSi+VhCiJQ9Pj7FN0IuUbWOG/oQh
glR9dlciln3z/QR63/pLcKF5xkVwdpsd+d0nYmBXSjduRKk/yraVZ8MBF7QIX8g1
NEfsWRaFbUWXaoHnixv9A9nH5oum8TJUQSXYwvsb172zZ+MMoKeT73/iFaAbo4Gr
Ax4+p0WaQxApxX1/KgWL+CpCwEzzlVpkmr8Ldo82EpA9+4H2dA4Ga8madcWTEe7D
aeuvjbsG7NHR3WZcANGrpQIDAQABo4IBNzCCATMwCQYDVR0TBAIwADAdBgNVHQ4E
FgQU5AQU/ye67wPi6yBkCh33nzJA2pcwgeQGA1UdIwSB3DCB2YAUc96gQw+usZ7o
WWkYUKEaH9Sh4/ChgbWkgbIwga8xCzAJBgNVBAYTAlVTMRMwEQYDVQQIDApDYWxp
Zm9ybmlhMRYwFAYDVQQHDA1TYW4gRnJhbmNpc2NvMSAwHgYDVQQKDBdDb3B5bGVm
dCBDZXJ0aWZpY2F0ZSBDbzEfMB0GA1UECwwWTXkgT3JnYW5pemF0aW9uYWwgVW5p
dDERMA8GA1UEAwwIQ2hhbmdlTWUxHTAbBgkqhkiG9w0BCQEWDm1lQGV4YW1wbGUu
bmV0ggkA6bvLFsUyvjswEwYDVR0lBAwwCgYIKwYBBQUHAwIwCwYDVR0PBAQDAgeA
MA0GCSqGSIb3DQEBCwUAA4IBAQCdmkZ7UVJT7dJ+19mOQlAhJpGOJKRCLHD5Fk9M
1Qb/CP7TIWHpO2HH6F5NfnbgLBaXpfYV81Pp+Dr6ZANvl8ooeIZYyrjEhedIyNLp
XEBdz7JvE/MoufTCHX2yG+P+W2CXVczP43EKDUKVgJVCMnuAn0sLW5JeNDYbGRo9
SHnpgYMn3ykazEjkPbj4LvXj1igN4N0P9USU2i51EglKuwlE3WGA2qaArimi199N
DXS5KlbqH+zECLMnyo+gjGIpoSrkSBIPdpBBKZ3mNWeOYhW3hst8HUlcvD0+qUgG
iPMs0xzTsxeOHDOGF0XgXZ5WxepO1USkRxiELKCnL9e/6iHR
-----END CERTIFICATE-----
