Certificate:
    Data:
        Version: 3 (0x2)
        Serial Number:
            6f:ed:db:e1:23:be:e9:d9:b4:d4:5a:57:3d:0b:31:1b
    Signature Algorithm: sha256WithRSAEncryption
        Issuer: C=US, ST=California, L=San Francisco, O=Copyleft Certificate Co, OU=My Organizational Unit, CN=ChangeMe/emailAddress=me@example.net
        Validity
            Not Before: Nov 11 01:44:58 2023 GMT
            Not After : Nov 10 01:44:58 2024 GMT
        Subject: C=US, ST=OH, L=Cincinnati, O=University of Cincinnati, OU=Dept. Elec. Comp. Eng. Comp. Sci., CN=client79/emailAddress=franco@gauss.ececs.uc.edu
        Subject Public Key Info:
            Public Key Algorithm: rsaEncryption
                Public-Key: (2048 bit)
                Modulus:
                    00:e4:41:b2:91:98:34:eb:13:d7:54:99:f9:49:9b:
                    ca:71:30:f7:b3:88:31:cf:93:f6:24:95:7f:9c:d9:
                    3c:72:6a:ee:ef:0d:fb:0b:ce:e2:c3:01:19:5b:d8:
                    9a:c1:1f:e9:04:4a:e9:2c:b5:66:19:4f:56:0d:a4:
                    25:36:26:41:27:99:a5:00:a5:fe:72:6c:be:23:b0:
                    14:47:5a:a3:af:7d:d4:d2:ab:f8:cd:76:e0:65:52:
                    ab:4a:24:09:a3:a6:c1:fc:56:ea:d1:c1:6e:c7:47:
                    aa:ef:f8:02:87:6c:87:a8:8c:67:db:e2:21:cb:2c:
                    98:3b:fa:e6:6e:3c:14:ac:d5:29:91:70:d4:df:4f:
                    54:15:83:ed:bd:3d:db:b9:50:25:ad:02:b7:55:e9:
                    ee:a9:ca:5c:6e:a4:8c:b9:3b:c6:0b:dd:81:49:03:
                    01:a7:f8:84:cf:0b:40:73:d0:10:af:95:e6:b0:a7:
                    91:2b:03:65:a5:56:f9:e8:a4:7f:05:34:f4:b1:fe:
                    5f:d4:2c:32:d1:0c:96:f6:e2:cb:a0:28:28:0b:29:
                    d0:ec:e6:35:a6:f3:be:49:f8:0c:03:10:cc:91:77:
                    45:6b:6f:9d:32:8e:8b:2f:35:dd:c8:61:9c:fd:72:
                    f5:8f:38:6f:0a:13:64:af:05:ba:5d:91:fa:56:be:
                    d4:3f
                Exponent: 65537 (0x10001)
        X509v3 extensions:
            X509v3 Basic Constraints: 
                CA:FALSE
            X509v3 Subject Key Identifier: 
                AB:70:7D:F1:C3:1A:E3:E2:3B:D1:B7:84:EB:7B:07:53:4B:F8:C9:05
            X509v3 Authority Key Identifier: 
                keyid:73:DE:A0:43:0F:AE:B1:9E:E8:59:69:18:50:A1:1A:1F:D4:A1:E3:F0
                DirName:/C=US/ST=California/L=San Francisco/O=Copyleft Certificate Co/OU=My Organizational Unit/CN=ChangeMe/emailAddress=me@example.net
                serial:E9:BB:CB:16:C5:32:BE:3B

            X509v3 Extended Key Usage: 
                TLS Web Client Authentication
            X509v3 Key Usage: 
                Digital Signature
    Signature Algorithm: sha256WithRSAEncryption
         27:2c:1b:26:4f:b2:86:dc:61:2b:15:6c:b9:fe:36:1d:01:54:
         d8:3e:d7:1a:53:f5:35:12:03:86:08:e9:b9:6c:9f:e3:bf:bf:
         c9:db:de:ee:d0:60:ad:0b:8b:ff:ff:63:97:49:71:05:c6:59:
         9f:78:d5:63:aa:d2:03:6e:7c:11:4e:a3:68:3c:3f:c7:fc:e1:
         f5:cc:93:d7:0b:82:82:8a:09:92:70:44:f8:bb:5d:ce:a0:5c:
         89:fa:85:9d:59:c4:96:ae:b8:40:e6:97:58:4f:0e:9f:ac:c1:
         dc:bc:ff:82:34:ca:3a:09:20:6b:e8:ce:65:0b:be:1c:15:48:
         31:cb:36:8e:15:93:3d:64:9b:53:59:b6:1d:a8:ee:17:a0:da:
         e0:ab:77:a0:3b:d3:32:43:47:97:27:bd:18:4e:7e:46:dc:63:
         e0:f3:34:f8:80:c7:d5:80:2b:10:db:41:f1:f0:80:a5:14:f1:
         32:eb:cf:22:90:58:91:df:97:1b:ee:cd:af:a3:da:54:6f:01:
         a8:fd:b9:62:86:f0:ac:17:f9:eb:83:3f:91:f5:7f:5a:a9:8b:
         2a:fc:7e:83:2b:58:c2:6c:01:a3:2e:d9:ec:e0:d9:70:e6:88:
         a7:0a:91:ed:96:6d:96:a9:e3:ce:74:d6:f4:24:85:ce:e2:3a:
         24:5a:92:7b
-----BEGIN CERTIFICATE-----
MIIFLzCCBBegAwIBAgIQb+3b4SO+6dm01FpXPQsxGzANBgkqhkiG9w0BAQsFADCB
rzELMAkGA1UEBhMCVVMxEzARBgNVBAgMCkNhbGlmb3JuaWExFjAUBgNVBAcMDVNh
biBGcmFuY2lzY28xIDAeBgNVBAoMF0NvcHlsZWZ0IENlcnRpZmljYXRlIENvMR8w
HQYDVQQLDBZNeSBPcmdhbml6YXRpb25hbCBVbml0MREwDwYDVQQDDAhDaGFuZ2VN
ZTEdMBsGCSqGSIb3DQEJARYObWVAZXhhbXBsZS5uZXQwHhcNMjMxMTExMDE0NDU4
WhcNMjQxMTEwMDE0NDU4WjCBuzELMAkGA1UEBhMCVVMxCzAJBgNVBAgMAk9IMRMw
EQYDVQQHDApDaW5jaW5uYXRpMSEwHwYDVQQKDBhVbml2ZXJzaXR5IG9mIENpbmNp
bm5hdGkxKjAoBgNVBAsMIURlcHQuIEVsZWMuIENvbXAuIEVuZy4gQ29tcC4gU2Np
LjERMA8GA1UEAwwIY2xpZW50NzkxKDAmBgkqhkiG9w0BCQEWGWZyYW5jb0BnYXVz
cy5lY2Vjcy51Yy5lZHUwggEiMA0GCSqGSIb3DQEBAQUAA4IBDwAwggEKAoIBAQDk
QbKRmDTrE9dUmflJm8pxMPeziDHPk/YklX+c2Txyau7vDfsLzuLDARlb2JrBH+kE
SukstWYZT1YNpCU2JkEnmaUApf5ybL4jsBRHWqOvfdTSq/jNduBlUqtKJAmjpsH8
VurRwW7HR6rv+AKHbIeojGfb4iHLLJg7+uZuPBSs1SmRcNTfT1QVg+29Pdu5UCWt
ArdV6e6pylxupIy5O8YL3YFJAwGn+ITPC0Bz0BCvleawp5ErA2WlVvnopH8FNPSx
/l/ULDLRDJb24sugKCgLKdDs5jWm875J+AwDEMyRd0Vrb50yjosvNd3IYZz9cvWP
OG8KE2SvBbpdkfpWvtQ/AgMBAAGjggE3MIIBMzAJBgNVHRMEAjAAMB0GA1UdDgQW
BBSrcH3xwxrj4jvRt4TrewdTS/jJBTCB5AYDVR0jBIHcMIHZgBRz3qBDD66xnuhZ
aRhQoRof1KHj8KGBtaSBsjCBrzELMAkGA1UEBhMCVVMxEzARBgNVBAgMCkNhbGlm
b3JuaWExFjAUBgNVBAcMDVNhbiBGcmFuY2lzY28xIDAeBgNVBAoMF0NvcHlsZWZ0
IENlcnRpZmljYXRlIENvMR8wHQYDVQQLDBZNeSBPcmdhbml6YXRpb25hbCBVbml0
MREwDwYDVQQDDAhDaGFuZ2VNZTEdMBsGCSqGSIb3DQEJARYObWVAZXhhbXBsZS5u
ZXSCCQDpu8sWxTK+OzATBgNVHSUEDDAKBggrBgEFBQcDAjALBgNVHQ8EBAMCB4Aw
DQYJKoZIhvcNAQELBQADggEBACcsGyZPsobcYSsVbLn+Nh0BVNg+1xpT9TUSA4YI
6blsn+O/v8nb3u7QYK0Li///Y5dJcQXGWZ941WOq0gNufBFOo2g8P8f84fXMk9cL
goKKCZJwRPi7Xc6gXIn6hZ1ZxJauuEDml1hPDp+swdy8/4I0yjoJIGvozmULvhwV
SDHLNo4Vkz1km1NZth2o7heg2uCrd6A70zJDR5cnvRhOfkbcY+DzNPiAx9WAKxDb
QfHwgKUU8TLrzyKQWJHflxvuza+j2lRvAaj9uWKG8KwX+euDP5H1f1qpiyr8foMr
WMJsAaMu2ezg2XDmiKcKke2WbZap48501vQkhc7iOiRakns=
-----END CERTIFICATE-----
