Certificate:
    Data:
        Version: 3 (0x2)
        Serial Number:
            6f:44:80:68:c5:7d:a5:ff:33:d5:20:4c:8d:92:6b:d2
    Signature Algorithm: sha256WithRSAEncryption
        Issuer: C=US, ST=California, L=San Francisco, O=Copyleft Certificate Co, OU=My Organizational Unit, CN=ChangeMe/emailAddress=me@example.net
        Validity
            Not Before: Nov 10 17:44:06 2023 GMT
            Not After : Nov  9 17:44:06 2024 GMT
        Subject: C=US, ST=OH, L=Cincinnati, O=University of Cincinnati, OU=Dept_Elec_Com_ Eng_Com_Sci., CN=client85/emailAddress=franco@gauss.ececs.uc.edu
        Subject Public Key Info:
            Public Key Algorithm: rsaEncryption
                Public-Key: (2048 bit)
                Modulus:
                    00:d1:fb:b1:3a:99:1d:6f:d1:88:02:c4:25:b6:be:
                    a6:f8:bd:01:00:d5:a7:c6:68:46:f4:52:56:71:9e:
                    69:a5:4b:3d:a4:83:f5:59:c9:0f:13:7f:48:5c:b3:
                    d4:a8:d6:df:c9:d9:a5:ca:1a:71:82:a8:86:eb:f4:
                    c1:2e:ac:28:56:e1:3b:b2:9a:12:be:19:db:ed:df:
                    db:60:67:70:a8:25:e5:13:dc:f7:5f:6c:e3:54:b7:
                    73:0a:b5:d9:53:53:9e:f7:89:05:a9:e4:e7:c3:c6:
                    c8:d9:a6:cb:af:24:2b:91:dc:32:4c:bd:fb:69:20:
                    0f:e5:9e:85:92:62:a2:a1:ba:76:b2:3f:6c:af:15:
                    25:52:16:a7:1b:45:5a:de:3b:d0:7a:70:2e:5a:ea:
                    9e:1e:b6:ac:33:40:12:4d:2b:23:d9:e7:a5:a3:13:
                    8c:54:bf:b6:17:0f:d9:07:46:d1:3a:43:6d:11:37:
                    4a:70:f2:0e:52:4a:59:92:8a:79:88:f7:06:e2:38:
                    fe:5f:f6:a4:43:4f:e8:f4:78:6e:de:6a:a6:70:39:
                    a9:22:6e:49:0a:49:3a:36:66:69:54:1d:66:61:ff:
                    0e:39:24:e8:1d:b0:05:e8:08:72:bd:3a:5c:76:c8:
                    52:e1:df:31:83:b7:54:7b:de:59:92:06:a8:a2:c1:
                    3a:ad
                Exponent: 65537 (0x10001)
        X509v3 extensions:
            X509v3 Basic Constraints: 
                CA:FALSE
            X509v3 Subject Key Identifier: 
                7D:2B:6C:DB:BD:54:E9:A4:30:FA:20:0B:53:AD:14:7A:21:FA:B4:1D
            X509v3 Authority Key Identifier: 
                keyid:C8:27:DA:64:30:08:40:08:4A:25:CC:DC:43:99:DE:77:A1:FE:77:BD
                DirName:/C=US/ST=California/L=San Francisco/O=Copyleft Certificate Co/OU=My Organizational Unit/CN=ChangeMe/emailAddress=me@example.net
                serial:A9:48:C3:7E:FC:1B:B0:A1

            X509v3 Extended Key Usage: 
                TLS Web Client Authentication
            X509v3 Key Usage: 
                Digital Signature
    Signature Algorithm: sha256WithRSAEncryption
         6d:41:32:a6:52:c5:40:81:43:a2:7e:e6:1a:04:39:a4:92:81:
         56:6c:4a:ab:ea:fe:fd:02:6c:3a:a4:a0:35:97:a9:28:50:46:
         b0:39:3a:b9:17:a6:95:61:5c:41:38:ed:e9:28:be:16:0e:ce:
         cb:b5:9e:49:a4:74:06:d7:4c:53:67:4b:ca:af:14:17:48:05:
         eb:fe:8a:48:3c:e3:1c:8c:b1:84:a6:14:d7:e3:c6:44:85:b4:
         ef:a7:7c:80:f1:5e:47:da:e2:5a:3d:ce:79:5b:d8:09:ea:d3:
         3f:9b:f3:c0:96:a5:cd:4a:16:5c:17:9a:f1:e2:71:a9:bf:d1:
         64:50:e6:7f:ab:3d:be:2e:83:3e:bb:01:eb:a8:c9:95:f2:e9:
         e7:a3:6f:a1:6d:18:43:3e:1d:bb:35:02:61:35:82:31:0f:a7:
         67:a3:f7:27:0c:e7:42:39:c9:2f:c4:25:1f:0a:19:42:06:7c:
         82:37:40:1a:21:b2:59:c1:75:00:eb:c1:39:8c:cd:96:41:66:
         fc:47:9e:ea:0a:cb:68:39:de:8a:ea:7e:0d:d6:e2:3d:de:4d:
         14:b7:a8:e4:fe:6f:67:b9:06:1b:9d:b7:4b:1a:69:08:be:91:
         4a:4f:c9:33:1e:6c:9d:6c:98:d7:db:3a:9f:11:92:c5:e1:81:
         c7:19:a4:d4
-----BEGIN CERTIFICATE-----
MIIFKTCCBBGgAwIBAgIQb0SAaMV9pf8z1SBMjZJr0jANBgkqhkiG9w0BAQsFADCB
rzELMAkGA1UEBhMCVVMxEzARBgNVBAgMCkNhbGlmb3JuaWExFjAUBgNVBAcMDVNh
biBGcmFuY2lzY28xIDAeBgNVBAoMF0NvcHlsZWZ0IENlcnRpZmljYXRlIENvMR8w
HQYDVQQLDBZNeSBPcmdhbml6YXRpb25hbCBVbml0MREwDwYDVQQDDAhDaGFuZ2VN
ZTEdMBsGCSqGSIb3DQEJARYObWVAZXhhbXBsZS5uZXQwHhcNMjMxMTEwMTc0NDA2
WhcNMjQxMTA5MTc0NDA2WjCBtTELMAkGA1UEBhMCVVMxCzAJBgNVBAgMAk9IMRMw
EQYDVQQHDApDaW5jaW5uYXRpMSEwHwYDVQQKDBhVbml2ZXJzaXR5IG9mIENpbmNp
bm5hdGkxJDAiBgNVBAsMG0RlcHRfRWxlY19Db21fIEVuZ19Db21fU2NpLjERMA8G
A1UEAwwIY2xpZW50ODUxKDAmBgkqhkiG9w0BCQEWGWZyYW5jb0BnYXVzcy5lY2Vj
cy51Yy5lZHUwggEiMA0GCSqGSIb3DQEBAQUAA4IBDwAwggEKAoIBAQDR+7E6mR1v
0YgCxCW2vqb4vQEA1afGaEb0UlZxnmmlSz2kg/VZyQ8Tf0hcs9So1t/J2aXKGnGC
qIbr9MEurChW4TuymhK+Gdvt39tgZ3CoJeUT3PdfbONUt3MKtdlTU573iQWp5OfD
xsjZpsuvJCuR3DJMvftpIA/lnoWSYqKhunayP2yvFSVSFqcbRVreO9B6cC5a6p4e
tqwzQBJNKyPZ56WjE4xUv7YXD9kHRtE6Q20RN0pw8g5SSlmSinmI9wbiOP5f9qRD
T+j0eG7eaqZwOakibkkKSTo2ZmlUHWZh/w45JOgdsAXoCHK9Olx2yFLh3zGDt1R7
3lmSBqiiwTqtAgMBAAGjggE3MIIBMzAJBgNVHRMEAjAAMB0GA1UdDgQWBBR9K2zb
vVTppDD6IAtTrRR6Ifq0HTCB5AYDVR0jBIHcMIHZgBTIJ9pkMAhACEolzNxDmd53
of53vaGBtaSBsjCBrzELMAkGA1UEBhMCVVMxEzARBgNVBAgMCkNhbGlmb3JuaWEx
FjAUBgNVBAcMDVNhbiBGcmFuY2lzY28xIDAeBgNVBAoMF0NvcHlsZWZ0IENlcnRp
ZmljYXRlIENvMR8wHQYDVQQLDBZNeSBPcmdhbml6YXRpb25hbCBVbml0MREwDwYD
VQQDDAhDaGFuZ2VNZTEdMBsGCSqGSIb3DQEJARYObWVAZXhhbXBsZS5uZXSCCQCp
SMN+/BuwoTATBgNVHSUEDDAKBggrBgEFBQcDAjALBgNVHQ8EBAMCB4AwDQYJKoZI
hvcNAQELBQADggEBAG1BMqZSxUCBQ6J+5hoEOaSSgVZsSqvq/v0CbDqkoDWXqShQ
RrA5OrkXppVhXEE47ekovhYOzsu1nkmkdAbXTFNnS8qvFBdIBev+ikg84xyMsYSm
FNfjxkSFtO+nfIDxXkfa4lo9znlb2Anq0z+b88CWpc1KFlwXmvHicam/0WRQ5n+r
Pb4ugz67AeuoyZXy6eejb6FtGEM+Hbs1AmE1gjEPp2ej9ycM50I5yS/EJR8KGUIG
fII3QBohslnBdQDrwTmMzZZBZvxHnuoKy2g53orqfg3W4j3eTRS3qOT+b2e5Bhud
t0saaQi+kUpPyTMebJ1smNfbOp8RksXhgccZpNQ=
-----END CERTIFICATE-----
