Certificate:
    Data:
        Version: 3 (0x2)
        Serial Number:
            0a:d5:bb:dd:32:7f:4b:cb:08:70:91:99:df:6d:0d:32
    Signature Algorithm: sha256WithRSAEncryption
        Issuer: C=US, ST=California, L=San Francisco, O=Copyleft Certificate Co, OU=My Organizational Unit, CN=ChangeMe/emailAddress=me@example.net
        Validity
            Not Before: Nov 12 11:47:23 2023 GMT
            Not After : Nov 11 11:47:23 2024 GMT
        Subject: C=US, ST=OH, L=Cincinnati, O=University of Cincinnati, OU=Dept. Elec. Comp. Eng. Comp. Sci., CN=client17/emailAddress=franco@gauss.ececs.uc.edu
        Subject Public Key Info:
            Public Key Algorithm: rsaEncryption
                Public-Key: (2048 bit)
                Modulus:
                    00:b7:63:da:fa:e3:53:7b:2d:82:cf:91:ec:1f:57:
                    e5:09:71:cb:f8:24:45:d6:70:9e:4c:b2:4c:31:34:
                    f5:61:0b:4c:38:92:c0:be:4d:a0:a5:50:39:ad:bc:
                    e3:70:c9:3d:14:7d:92:8e:9e:0d:61:61:f5:c7:be:
                    6e:59:c6:1e:7f:10:92:c2:1b:27:78:f7:44:0d:3e:
                    3d:06:9e:81:75:41:9c:36:9f:2d:05:bf:8d:93:08:
                    53:f8:b3:18:54:66:28:81:47:93:8d:3e:20:55:37:
                    3c:c9:4d:00:e9:fd:2d:0e:5d:dd:d4:a3:f7:cc:53:
                    d3:c3:79:fd:d3:12:8c:b0:36:25:bc:7b:c1:cf:30:
                    61:93:15:f5:36:27:f3:76:74:17:c9:e7:82:63:17:
                    ee:4a:16:a7:76:57:44:2a:df:7c:59:b8:35:b4:b1:
                    b0:e6:3e:c4:4d:c5:59:e9:57:2b:81:36:ad:a4:72:
                    af:17:b7:61:e4:90:2e:0c:83:eb:af:1a:b7:a2:05:
                    b4:5d:f6:d3:8d:0b:4d:2d:f2:ff:8f:5e:3c:96:32:
                    0f:f5:aa:a4:7c:b3:84:52:6e:71:f7:d5:2f:2a:1f:
                    b1:c7:0b:b2:a7:bb:51:f9:01:b5:af:be:e8:10:50:
                    67:a5:92:02:c0:06:79:43:40:9d:65:53:bc:b4:8d:
                    3c:0b
                Exponent: 65537 (0x10001)
        X509v3 extensions:
            X509v3 Basic Constraints: 
                CA:FALSE
            X509v3 Subject Key Identifier: 
                26:DF:7A:02:50:B1:AF:56:D9:43:25:CA:C5:25:41:E2:0D:49:16:97
            X509v3 Authority Key Identifier: 
                keyid:C4:46:F2:96:38:56:02:B8:9D:09:04:52:25:91:35:97:6A:D7:B1:F0
                DirName:/C=US/ST=California/L=San Francisco/O=Copyleft Certificate Co/OU=My Organizational Unit/CN=ChangeMe/emailAddress=me@example.net
                serial:D1:5A:15:1C:F0:20:95:62

            X509v3 Extended Key Usage: 
                TLS Web Client Authentication
            X509v3 Key Usage: 
                Digital Signature
    Signature Algorithm: sha256WithRSAEncryption
         a8:40:8d:62:d1:3d:8a:be:8b:59:2b:d5:d7:8f:56:21:3e:b4:
         2f:83:fc:31:25:e0:c0:24:c1:03:43:c6:6b:0f:ff:eb:11:4f:
         f0:55:d0:3c:d9:74:62:70:03:03:3b:f6:32:83:d2:1c:ff:6f:
         ae:43:7f:e5:2d:31:a4:76:89:21:6c:de:12:a4:05:20:49:db:
         37:b3:66:23:ca:47:c3:02:03:bc:b0:c5:1a:e3:b7:fd:df:88:
         ad:4a:5b:6e:6f:fa:27:a8:e5:99:72:d4:b8:92:9a:03:e2:81:
         41:21:1e:4c:a2:c5:7e:93:0e:a5:33:b1:52:f7:71:9c:85:d3:
         a6:57:1f:63:29:90:0e:27:92:87:cf:24:9a:66:c2:cc:f1:52:
         f5:a0:a3:e8:e1:50:81:c5:9f:fb:3a:2a:fe:67:f7:45:66:ed:
         1c:1b:e9:53:46:b2:62:0a:b7:07:15:bf:3d:6f:01:65:09:3a:
         1f:a1:48:b4:40:84:f3:ca:dd:ff:00:fd:bd:0f:8c:6c:19:f1:
         95:dd:ca:ac:26:3d:f8:eb:8b:e3:af:58:84:ea:fc:a9:ff:f9:
         b1:ec:83:7e:36:74:8c:84:4c:cd:c0:e3:85:fe:54:fc:0e:b2:
         38:2f:da:1d:12:1d:da:17:88:3c:1f:fc:fc:57:da:cd:28:68:
         95:e1:2b:03
-----BEGIN CERTIFICATE-----
MIIFLzCCBBegAwIBAgIQCtW73TJ/S8sIcJGZ320NMjANBgkqhkiG9w0BAQsFADCB
rzELMAkGA1UEBhMCVVMxEzARBgNVBAgMCkNhbGlmb3JuaWExFjAUBgNVBAcMDVNh
biBGcmFuY2lzY28xIDAeBgNVBAoMF0NvcHlsZWZ0IENlcnRpZmljYXRlIENvMR8w
HQYDVQQLDBZNeSBPcmdhbml6YXRpb25hbCBVbml0MREwDwYDVQQDDAhDaGFuZ2VN
ZTEdMBsGCSqGSIb3DQEJARYObWVAZXhhbXBsZS5uZXQwHhcNMjMxMTEyMTE0NzIz
WhcNMjQxMTExMTE0NzIzWjCBuzELMAkGA1UEBhMCVVMxCzAJBgNVBAgMAk9IMRMw
EQYDVQQHDApDaW5jaW5uYXRpMSEwHwYDVQQKDBhVbml2ZXJzaXR5IG9mIENpbmNp
bm5hdGkxKjAoBgNVBAsMIURlcHQuIEVsZWMuIENvbXAuIEVuZy4gQ29tcC4gU2Np
LjERMA8GA1UEAwwIY2xpZW50MTcxKDAmBgkqhkiG9w0BCQEWGWZyYW5jb0BnYXVz
cy5lY2Vjcy51Yy5lZHUwggEiMA0GCSqGSIb3DQEBAQUAA4IBDwAwggEKAoIBAQC3
Y9r641N7LYLPkewfV+UJccv4JEXWcJ5MskwxNPVhC0w4ksC+TaClUDmtvONwyT0U
fZKOng1hYfXHvm5Zxh5/EJLCGyd490QNPj0GnoF1QZw2ny0Fv42TCFP4sxhUZiiB
R5ONPiBVNzzJTQDp/S0OXd3Uo/fMU9PDef3TEoywNiW8e8HPMGGTFfU2J/N2dBfJ
54JjF+5KFqd2V0Qq33xZuDW0sbDmPsRNxVnpVyuBNq2kcq8Xt2HkkC4Mg+uvGrei
BbRd9tONC00t8v+PXjyWMg/1qqR8s4RSbnH31S8qH7HHC7Knu1H5AbWvvugQUGel
kgLABnlDQJ1lU7y0jTwLAgMBAAGjggE3MIIBMzAJBgNVHRMEAjAAMB0GA1UdDgQW
BBQm33oCULGvVtlDJcrFJUHiDUkWlzCB5AYDVR0jBIHcMIHZgBTERvKWOFYCuJ0J
BFIlkTWXatex8KGBtaSBsjCBrzELMAkGA1UEBhMCVVMxEzARBgNVBAgMCkNhbGlm
b3JuaWExFjAUBgNVBAcMDVNhbiBGcmFuY2lzY28xIDAeBgNVBAoMF0NvcHlsZWZ0
IENlcnRpZmljYXRlIENvMR8wHQYDVQQLDBZNeSBPcmdhbml6YXRpb25hbCBVbml0
MREwDwYDVQQDDAhDaGFuZ2VNZTEdMBsGCSqGSIb3DQEJARYObWVAZXhhbXBsZS5u
ZXSCCQDRWhUc8CCVYjATBgNVHSUEDDAKBggrBgEFBQcDAjALBgNVHQ8EBAMCB4Aw
DQYJKoZIhvcNAQELBQADggEBAKhAjWLRPYq+i1kr1dePViE+tC+D/DEl4MAkwQND
xmsP/+sRT/BV0DzZdGJwAwM79jKD0hz/b65Df+UtMaR2iSFs3hKkBSBJ2zezZiPK
R8MCA7ywxRrjt/3fiK1KW25v+ieo5Zly1LiSmgPigUEhHkyixX6TDqUzsVL3cZyF
06ZXH2MpkA4nkofPJJpmwszxUvWgo+jhUIHFn/s6Kv5n90Vm7Rwb6VNGsmIKtwcV
vz1vAWUJOh+hSLRAhPPK3f8A/b0PjGwZ8ZXdyqwmPfjri+OvWITq/Kn/+bHsg342
dIyETM3A44X+VPwOsjgv2h0SHdoXiDwf/PxX2s0oaJXhKwM=
-----END CERTIFICATE-----
