Certificate:
    Data:
        Version: 3 (0x2)
        Serial Number:
            2f:20:9a:cb:b6:da:39:30:f6:87:f7:89:04:62:45:a5
    Signature Algorithm: sha256WithRSAEncryption
        Issuer: C=US, ST=California, L=San Francisco, O=Copyleft Certificate Co, OU=My Organizational Unit, CN=ChangeMe/emailAddress=me@example.net
        Validity
            Not Before: Nov 10 17:46:02 2023 GMT
            Not After : Nov  9 17:46:02 2024 GMT
        Subject: C=US, ST=OH, L=Cincinnati, O=University of Cincinnati, OU=Dept_Elec_Com_ Eng_Com_Sci., CN=client114/emailAddress=franco@gauss.ececs.uc.edu
        Subject Public Key Info:
            Public Key Algorithm: rsaEncryption
                Public-Key: (2048 bit)
                Modulus:
                    00:c9:9d:13:e9:0d:3a:d3:d4:bf:a9:6d:a4:d2:bf:
                    94:03:97:d6:42:44:eb:1c:cd:c7:6e:12:38:fa:54:
                    51:11:a5:11:42:20:3c:d6:cd:02:3d:08:dd:40:8d:
                    a1:66:74:c1:81:98:72:41:2a:e1:fe:63:c3:2f:95:
                    9f:cb:70:c5:7e:43:df:64:34:52:fe:64:eb:9a:f3:
                    30:90:57:ad:50:14:fa:dc:77:93:4e:43:a9:7b:0e:
                    e0:ad:1d:bc:61:e9:c0:1f:77:58:2e:f8:96:44:5b:
                    62:c2:03:05:40:88:a9:d4:7b:a4:11:36:af:e5:2a:
                    da:30:0f:21:02:35:c0:59:54:c7:c9:3e:81:97:41:
                    e4:1c:96:cc:15:03:5a:55:ac:8d:bd:42:3d:f1:ea:
                    15:63:8a:b7:d0:15:ce:aa:d1:e0:59:7a:c1:66:4d:
                    72:19:de:2e:6b:8c:9a:d3:5e:99:e9:45:25:68:58:
                    0f:66:5b:18:d7:cd:cf:7e:75:92:64:27:6f:1e:5e:
                    28:e2:21:99:ca:5c:46:a1:25:4a:5e:f5:27:8a:f2:
                    22:32:fc:d5:fc:06:1f:20:1a:e4:a5:d0:d7:27:4e:
                    3a:34:15:0c:2f:6d:22:dc:7f:6c:a5:70:01:11:bf:
                    6a:8a:05:ec:e8:23:26:4c:6c:6c:8b:eb:44:37:87:
                    e8:5f
                Exponent: 65537 (0x10001)
        X509v3 extensions:
            X509v3 Basic Constraints: 
                CA:FALSE
            X509v3 Subject Key Identifier: 
                BB:C9:48:E2:C9:12:83:B7:70:68:82:AA:0B:0A:EF:EE:60:D2:3F:C3
            X509v3 Authority Key Identifier: 
                keyid:C8:27:DA:64:30:08:40:08:4A:25:CC:DC:43:99:DE:77:A1:FE:77:BD
                DirName:/C=US/ST=California/L=San Francisco/O=Copyleft Certificate Co/OU=My Organizational Unit/CN=ChangeMe/emailAddress=me@example.net
                serial:A9:48:C3:7E:FC:1B:B0:A1

            X509v3 Extended Key Usage: 
                TLS Web Client Authentication
            X509v3 Key Usage: 
                Digital Signature
    Signature Algorithm: sha256WithRSAEncryption
         93:d0:83:e2:23:f1:ec:3c:91:e4:be:e6:d7:e6:88:bf:31:bb:
         fc:1a:f3:6d:6b:2a:a1:88:6c:ce:6c:b7:d9:ec:cf:6f:6c:ef:
         51:fe:00:b6:31:75:c1:fb:d3:8a:a8:fc:13:73:5d:b2:b6:52:
         f1:a4:88:f0:71:05:56:30:34:26:55:90:d6:87:3e:14:10:43:
         dc:a0:1c:c1:17:45:24:cf:9d:db:94:ef:f8:10:c7:b2:72:d3:
         21:c7:3a:e6:94:e7:c9:57:97:a0:ac:ba:d1:71:29:a3:88:8c:
         d4:12:aa:21:9f:42:60:5f:08:10:4c:05:0e:51:af:d7:1a:c7:
         c0:13:52:85:2c:29:2f:7d:2f:25:63:80:c3:47:69:45:9d:23:
         7a:68:24:a6:97:e1:c0:7e:a7:15:83:81:d5:8c:1e:f7:50:f3:
         bc:19:76:70:27:d8:6c:79:88:b0:e7:34:43:96:42:56:1e:7f:
         33:a7:97:dc:3d:f9:ce:63:58:a6:db:39:61:90:9d:63:9d:27:
         61:d8:aa:cf:3d:07:b9:5e:b4:61:57:1a:3b:44:07:d7:49:f3:
         8f:4d:04:de:32:bf:7e:20:4a:c6:09:41:fc:c1:b1:17:39:60:
         07:65:55:84:62:7c:26:a2:c4:2a:93:cc:33:79:7c:1b:bc:8a:
         bd:4e:d0:77
-----BEGIN CERTIFICATE-----
MIIFKjCCBBKgAwIBAgIQLyCay7baOTD2h/eJBGJFpTANBgkqhkiG9w0BAQsFADCB
rzELMAkGA1UEBhMCVVMxEzARBgNVBAgMCkNhbGlmb3JuaWExFjAUBgNVBAcMDVNh
biBGcmFuY2lzY28xIDAeBgNVBAoMF0NvcHlsZWZ0IENlcnRpZmljYXRlIENvMR8w
HQYDVQQLDBZNeSBPcmdhbml6YXRpb25hbCBVbml0MREwDwYDVQQDDAhDaGFuZ2VN
ZTEdMBsGCSqGSIb3DQEJARYObWVAZXhhbXBsZS5uZXQwHhcNMjMxMTEwMTc0NjAy
WhcNMjQxMTA5MTc0NjAyWjCBtjELMAkGA1UEBhMCVVMxCzAJBgNVBAgMAk9IMRMw
EQYDVQQHDApDaW5jaW5uYXRpMSEwHwYDVQQKDBhVbml2ZXJzaXR5IG9mIENpbmNp
bm5hdGkxJDAiBgNVBAsMG0RlcHRfRWxlY19Db21fIEVuZ19Db21fU2NpLjESMBAG
A1UEAwwJY2xpZW50MTE0MSgwJgYJKoZIhvcNAQkBFhlmcmFuY29AZ2F1c3MuZWNl
Y3MudWMuZWR1MIIBIjANBgkqhkiG9w0BAQEFAAOCAQ8AMIIBCgKCAQEAyZ0T6Q06
09S/qW2k0r+UA5fWQkTrHM3HbhI4+lRREaURQiA81s0CPQjdQI2hZnTBgZhyQSrh
/mPDL5Wfy3DFfkPfZDRS/mTrmvMwkFetUBT63HeTTkOpew7grR28YenAH3dYLviW
RFtiwgMFQIip1HukETav5SraMA8hAjXAWVTHyT6Bl0HkHJbMFQNaVayNvUI98eoV
Y4q30BXOqtHgWXrBZk1yGd4ua4ya016Z6UUlaFgPZlsY183PfnWSZCdvHl4o4iGZ
ylxGoSVKXvUnivIiMvzV/AYfIBrkpdDXJ046NBUML20i3H9spXABEb9qigXs6CMm
TGxsi+tEN4foXwIDAQABo4IBNzCCATMwCQYDVR0TBAIwADAdBgNVHQ4EFgQUu8lI
4skSg7dwaIKqCwrv7mDSP8MwgeQGA1UdIwSB3DCB2YAUyCfaZDAIQAhKJczcQ5ne
d6H+d72hgbWkgbIwga8xCzAJBgNVBAYTAlVTMRMwEQYDVQQIDApDYWxpZm9ybmlh
MRYwFAYDVQQHDA1TYW4gRnJhbmNpc2NvMSAwHgYDVQQKDBdDb3B5bGVmdCBDZXJ0
aWZpY2F0ZSBDbzEfMB0GA1UECwwWTXkgT3JnYW5pemF0aW9uYWwgVW5pdDERMA8G
A1UEAwwIQ2hhbmdlTWUxHTAbBgkqhkiG9w0BCQEWDm1lQGV4YW1wbGUubmV0ggkA
qUjDfvwbsKEwEwYDVR0lBAwwCgYIKwYBBQUHAwIwCwYDVR0PBAQDAgeAMA0GCSqG
SIb3DQEBCwUAA4IBAQCT0IPiI/HsPJHkvubX5oi/Mbv8GvNtayqhiGzObLfZ7M9v
bO9R/gC2MXXB+9OKqPwTc12ytlLxpIjwcQVWMDQmVZDWhz4UEEPcoBzBF0Ukz53b
lO/4EMeyctMhxzrmlOfJV5egrLrRcSmjiIzUEqohn0JgXwgQTAUOUa/XGsfAE1KF
LCkvfS8lY4DDR2lFnSN6aCSml+HAfqcVg4HVjB73UPO8GXZwJ9hseYiw5zRDlkJW
Hn8zp5fcPfnOY1im2zlhkJ1jnSdh2KrPPQe5XrRhVxo7RAfXSfOPTQTeMr9+IErG
CUH8wbEXOWAHZVWEYnwmosQqk8wzeXwbvIq9TtB3
-----END CERTIFICATE-----
