Certificate:
    Data:
        Version: 3 (0x2)
        Serial Number:
            58:09:74:e7:ae:4a:40:e8:b5:e8:6b:21:b3:49:fc:6f
    Signature Algorithm: sha256WithRSAEncryption
        Issuer: C=US, ST=California, L=San Francisco, O=Copyleft Certificate Co, OU=My Organizational Unit, CN=ChangeMe/emailAddress=me@example.net
        Validity
            Not Before: Nov 11 01:47:10 2023 GMT
            Not After : Nov 10 01:47:10 2024 GMT
        Subject: C=US, ST=OH, L=Cincinnati, O=University of Cincinnati, OU=Dept. Elec. Comp. Eng. Comp. Sci., CN=client112/emailAddress=franco@gauss.ececs.uc.edu
        Subject Public Key Info:
            Public Key Algorithm: rsaEncryption
                Public-Key: (2048 bit)
                Modulus:
                    00:e9:21:e1:5f:04:ef:0f:7b:16:26:e0:05:80:13:
                    8b:44:da:9f:97:37:8b:cd:f9:80:a4:8e:21:ca:4b:
                    f3:22:36:21:14:e8:12:fd:89:4d:59:52:77:ee:f6:
                    89:13:29:5f:90:7c:22:42:f2:33:16:13:0e:25:8a:
                    81:84:ae:45:17:82:be:4d:90:c0:d1:5d:f5:fe:5a:
                    07:cb:26:19:10:d2:a7:ee:0f:b5:51:7c:1b:0e:9f:
                    cb:13:8b:5f:75:13:14:61:4f:7a:6c:98:63:3a:25:
                    c2:29:e5:16:df:d2:f8:de:5f:6a:6d:21:22:e5:6e:
                    d8:24:8d:d1:02:6c:4f:14:a8:24:c4:c0:3c:bd:ab:
                    66:78:90:48:7e:39:49:24:44:3d:ca:76:cc:3d:5e:
                    86:5a:c3:46:40:16:9a:14:ff:cd:85:21:53:fc:ac:
                    15:d1:82:51:fe:29:dd:15:0a:74:8b:5d:3b:19:9e:
                    93:a8:bb:fb:9a:6d:84:a4:0b:be:c2:5e:43:ca:ad:
                    47:dc:e4:fd:a9:41:d0:b4:46:f1:7e:0c:86:5a:25:
                    05:1f:a0:38:73:d9:51:29:af:f5:3c:37:b8:84:d0:
                    48:4f:d3:fb:bb:4b:0a:cd:58:e0:ce:e3:f9:b5:b8:
                    80:c5:cc:ae:c7:92:e8:52:15:09:eb:72:5a:cd:9c:
                    7f:db
                Exponent: 65537 (0x10001)
        X509v3 extensions:
            X509v3 Basic Constraints: 
                CA:FALSE
            X509v3 Subject Key Identifier: 
                4E:22:71:49:CA:FA:7A:E7:DA:64:38:2E:CC:3A:76:60:68:68:AB:4A
            X509v3 Authority Key Identifier: 
                keyid:73:DE:A0:43:0F:AE:B1:9E:E8:59:69:18:50:A1:1A:1F:D4:A1:E3:F0
                DirName:/C=US/ST=California/L=San Francisco/O=Copyleft Certificate Co/OU=My Organizational Unit/CN=ChangeMe/emailAddress=me@example.net
                serial:E9:BB:CB:16:C5:32:BE:3B

            X509v3 Extended Key Usage: 
                TLS Web Client Authentication
            X509v3 Key Usage: 
                Digital Signature
    Signature Algorithm: sha256WithRSAEncryption
         6e:72:77:ec:49:b7:c1:ee:64:df:9d:db:c8:68:aa:c5:fc:9b:
         86:7f:f4:df:30:e7:f9:01:a6:e0:4e:fd:85:d9:fa:4e:dd:d3:
         51:3e:22:90:1b:c6:9c:1e:71:5c:69:24:30:23:62:26:61:ee:
         40:24:c1:d2:cf:58:b8:05:16:48:45:f5:d0:e7:a3:74:75:e2:
         51:a7:ec:5a:5e:4e:02:bb:ef:03:38:9c:a2:cd:0b:d2:4b:11:
         6c:0e:fa:2d:45:e3:ce:e2:5b:c1:57:e7:0d:f3:a7:cb:af:26:
         62:b4:53:32:68:aa:f5:84:7e:59:30:fa:8c:35:f6:ad:cc:53:
         8e:f8:2b:76:1b:32:74:f7:2a:6c:45:8c:c0:3b:1c:54:57:87:
         b8:0f:ac:ae:93:96:af:08:c1:96:e8:22:79:e2:e3:3f:e5:c5:
         80:6c:07:43:a5:5f:97:b9:59:36:ea:27:e3:c4:f8:79:08:a3:
         e1:52:c0:b8:0a:e3:01:3e:8b:0f:7d:ec:0f:53:9c:c9:08:0d:
         0b:66:b0:13:e4:f7:18:63:4b:9e:5e:96:05:97:eb:02:be:62:
         86:56:b7:ea:51:67:47:9d:a8:42:cc:43:0c:b2:b6:bb:ad:8b:
         44:b5:50:ad:08:d6:be:05:4e:58:20:86:59:48:4e:da:25:cb:
         d3:2a:ee:b7
-----BEGIN CERTIFICATE-----
MIIFMDCCBBigAwIBAgIQWAl0565KQOi16Gshs0n8bzANBgkqhkiG9w0BAQsFADCB
rzELMAkGA1UEBhMCVVMxEzARBgNVBAgMCkNhbGlmb3JuaWExFjAUBgNVBAcMDVNh
biBGcmFuY2lzY28xIDAeBgNVBAoMF0NvcHlsZWZ0IENlcnRpZmljYXRlIENvMR8w
HQYDVQQLDBZNeSBPcmdhbml6YXRpb25hbCBVbml0MREwDwYDVQQDDAhDaGFuZ2VN
ZTEdMBsGCSqGSIb3DQEJARYObWVAZXhhbXBsZS5uZXQwHhcNMjMxMTExMDE0NzEw
WhcNMjQxMTEwMDE0NzEwWjCBvDELMAkGA1UEBhMCVVMxCzAJBgNVBAgMAk9IMRMw
EQYDVQQHDApDaW5jaW5uYXRpMSEwHwYDVQQKDBhVbml2ZXJzaXR5IG9mIENpbmNp
bm5hdGkxKjAoBgNVBAsMIURlcHQuIEVsZWMuIENvbXAuIEVuZy4gQ29tcC4gU2Np
LjESMBAGA1UEAwwJY2xpZW50MTEyMSgwJgYJKoZIhvcNAQkBFhlmcmFuY29AZ2F1
c3MuZWNlY3MudWMuZWR1MIIBIjANBgkqhkiG9w0BAQEFAAOCAQ8AMIIBCgKCAQEA
6SHhXwTvD3sWJuAFgBOLRNqflzeLzfmApI4hykvzIjYhFOgS/YlNWVJ37vaJEylf
kHwiQvIzFhMOJYqBhK5FF4K+TZDA0V31/loHyyYZENKn7g+1UXwbDp/LE4tfdRMU
YU96bJhjOiXCKeUW39L43l9qbSEi5W7YJI3RAmxPFKgkxMA8vatmeJBIfjlJJEQ9
ynbMPV6GWsNGQBaaFP/NhSFT/KwV0YJR/indFQp0i107GZ6TqLv7mm2EpAu+wl5D
yq1H3OT9qUHQtEbxfgyGWiUFH6A4c9lRKa/1PDe4hNBIT9P7u0sKzVjgzuP5tbiA
xcyux5LoUhUJ63JazZx/2wIDAQABo4IBNzCCATMwCQYDVR0TBAIwADAdBgNVHQ4E
FgQUTiJxScr6eufaZDguzDp2YGhoq0owgeQGA1UdIwSB3DCB2YAUc96gQw+usZ7o
WWkYUKEaH9Sh4/ChgbWkgbIwga8xCzAJBgNVBAYTAlVTMRMwEQYDVQQIDApDYWxp
Zm9ybmlhMRYwFAYDVQQHDA1TYW4gRnJhbmNpc2NvMSAwHgYDVQQKDBdDb3B5bGVm
dCBDZXJ0aWZpY2F0ZSBDbzEfMB0GA1UECwwWTXkgT3JnYW5pemF0aW9uYWwgVW5p
dDERMA8GA1UEAwwIQ2hhbmdlTWUxHTAbBgkqhkiG9w0BCQEWDm1lQGV4YW1wbGUu
bmV0ggkA6bvLFsUyvjswEwYDVR0lBAwwCgYIKwYBBQUHAwIwCwYDVR0PBAQDAgeA
MA0GCSqGSIb3DQEBCwUAA4IBAQBucnfsSbfB7mTfndvIaKrF/JuGf/TfMOf5Aabg
Tv2F2fpO3dNRPiKQG8acHnFcaSQwI2ImYe5AJMHSz1i4BRZIRfXQ56N0deJRp+xa
Xk4Cu+8DOJyizQvSSxFsDvotRePO4lvBV+cN86fLryZitFMyaKr1hH5ZMPqMNfat
zFOO+Ct2GzJ09ypsRYzAOxxUV4e4D6yuk5avCMGW6CJ54uM/5cWAbAdDpV+XuVk2
6ifjxPh5CKPhUsC4CuMBPosPfewPU5zJCA0LZrAT5PcYY0ueXpYFl+sCvmKGVrfq
UWdHnahCzEMMsra7rYtEtVCtCNa+BU5YIIZZSE7aJcvTKu63
-----END CERTIFICATE-----
