Certificate:
    Data:
        Version: 3 (0x2)
        Serial Number:
            15:6a:11:89:c4:cb:c1:72:6d:01:7d:b4:ce:66:30:48
    Signature Algorithm: sha256WithRSAEncryption
        Issuer: C=US, ST=California, L=San Francisco, O=Copyleft Certificate Co, OU=My Organizational Unit, CN=ChangeMe/emailAddress=me@example.net
        Validity
            Not Before: Nov 11 01:48:50 2023 GMT
            Not After : Nov 10 01:48:50 2024 GMT
        Subject: C=US, ST=OH, L=Cincinnati, O=University of Cincinnati, OU=Dept. Elec. Comp. Eng. Comp. Sci., CN=client137/emailAddress=franco@gauss.ececs.uc.edu
        Subject Public Key Info:
            Public Key Algorithm: rsaEncryption
                Public-Key: (2048 bit)
                Modulus:
                    00:a2:ab:4f:0a:f9:f0:dc:27:84:8a:85:0f:84:8a:
                    82:40:02:a3:47:b6:ca:19:7e:23:9a:bd:5d:a9:bf:
                    20:83:03:c1:f5:cb:98:05:17:24:95:f1:e3:f7:f4:
                    7b:cf:8c:cf:74:9e:16:c3:7c:36:70:2d:2b:f9:ba:
                    4f:29:21:06:87:83:8b:91:b5:d7:c0:c6:92:a2:4f:
                    63:77:27:7c:bd:2e:53:14:e0:fa:7d:f6:dd:7f:2d:
                    95:89:0e:ac:5f:3c:89:a9:f6:9d:d7:a4:68:af:b2:
                    2d:a9:86:34:44:89:a8:19:bb:b3:70:55:09:61:3a:
                    5f:42:80:e1:1d:32:30:05:ca:b4:df:d6:2a:51:11:
                    ad:6b:d2:ce:ac:8f:ff:34:77:b3:5b:29:57:85:74:
                    0e:89:cf:80:71:f4:db:d3:29:34:ae:4b:63:bc:43:
                    62:f4:3d:99:07:f0:1f:c3:77:a1:e1:25:2e:ac:36:
                    b6:bc:9c:e4:9f:ed:01:5d:6d:b1:5f:f5:01:64:d1:
                    0d:c2:f4:6e:fb:d8:1f:0f:34:80:d8:90:07:4d:61:
                    b4:8c:0d:49:99:47:bf:5b:f4:04:a3:73:5e:ae:ac:
                    a3:f7:35:8a:f0:76:64:fb:b8:12:e4:11:84:d1:ff:
                    19:e9:84:43:f8:33:9d:0d:16:b0:ba:c1:36:c4:bd:
                    45:ef
                Exponent: 65537 (0x10001)
        X509v3 extensions:
            X509v3 Basic Constraints: 
                CA:FALSE
            X509v3 Subject Key Identifier: 
                ED:BE:5D:F9:13:1B:67:79:8F:6C:7F:73:24:43:84:7B:C5:04:50:0E
            X509v3 Authority Key Identifier: 
                keyid:73:DE:A0:43:0F:AE:B1:9E:E8:59:69:18:50:A1:1A:1F:D4:A1:E3:F0
                DirName:/C=US/ST=California/L=San Francisco/O=Copyleft Certificate Co/OU=My Organizational Unit/CN=ChangeMe/emailAddress=me@example.net
                serial:E9:BB:CB:16:C5:32:BE:3B

            X509v3 Extended Key Usage: 
                TLS Web Client Authentication
            X509v3 Key Usage: 
                Digital Signature
    Signature Algorithm: sha256WithRSAEncryption
         35:67:2a:9c:88:69:3d:e5:12:3b:6b:6f:ed:19:9a:ec:c5:eb:
         de:f5:ac:df:c6:95:47:fd:42:46:9f:01:d3:dd:e9:16:0c:d2:
         63:95:e7:03:72:e9:cb:c6:90:70:72:4f:16:b4:a2:ea:6e:a7:
         2d:ca:36:fa:be:b0:45:86:16:e6:af:85:87:d6:49:58:73:e5:
         1c:52:7c:d8:fc:18:0b:19:48:32:09:e6:f2:1e:9f:c0:f6:a5:
         fc:de:db:98:86:27:8f:b2:7a:11:71:d7:82:aa:8c:25:66:a7:
         33:3e:c7:bd:8e:b2:5d:40:98:3c:63:3e:86:78:03:4c:48:a5:
         18:a5:58:54:5e:c6:86:5a:1f:0f:82:f6:c8:c1:e5:06:25:90:
         b1:6b:6a:bc:c2:83:62:77:c7:a9:6c:9f:d2:8b:c9:46:0d:b0:
         de:09:6b:f0:6a:b5:f5:61:82:b1:49:54:a9:75:70:97:82:bc:
         24:42:2e:2b:0b:57:5f:58:60:15:3a:5f:dc:e5:aa:95:47:3d:
         8d:64:54:dd:1f:d9:2d:f2:cf:14:7d:b5:07:af:0a:c7:36:17:
         a3:da:16:89:ea:ed:96:88:b6:d6:8b:ac:78:bc:99:12:d7:7a:
         e3:67:6a:52:49:98:05:b2:85:c9:16:d2:21:9d:f6:aa:a0:4f:
         27:e1:6c:86
-----BEGIN CERTIFICATE-----
MIIFMDCCBBigAwIBAgIQFWoRicTLwXJtAX20zmYwSDANBgkqhkiG9w0BAQsFADCB
rzELMAkGA1UEBhMCVVMxEzARBgNVBAgMCkNhbGlmb3JuaWExFjAUBgNVBAcMDVNh
biBGcmFuY2lzY28xIDAeBgNVBAoMF0NvcHlsZWZ0IENlcnRpZmljYXRlIENvMR8w
HQYDVQQLDBZNeSBPcmdhbml6YXRpb25hbCBVbml0MREwDwYDVQQDDAhDaGFuZ2VN
ZTEdMBsGCSqGSIb3DQEJARYObWVAZXhhbXBsZS5uZXQwHhcNMjMxMTExMDE0ODUw
WhcNMjQxMTEwMDE0ODUwWjCBvDELMAkGA1UEBhMCVVMxCzAJBgNVBAgMAk9IMRMw
EQYDVQQHDApDaW5jaW5uYXRpMSEwHwYDVQQKDBhVbml2ZXJzaXR5IG9mIENpbmNp
bm5hdGkxKjAoBgNVBAsMIURlcHQuIEVsZWMuIENvbXAuIEVuZy4gQ29tcC4gU2Np
LjESMBAGA1UEAwwJY2xpZW50MTM3MSgwJgYJKoZIhvcNAQkBFhlmcmFuY29AZ2F1
c3MuZWNlY3MudWMuZWR1MIIBIjANBgkqhkiG9w0BAQEFAAOCAQ8AMIIBCgKCAQEA
oqtPCvnw3CeEioUPhIqCQAKjR7bKGX4jmr1dqb8ggwPB9cuYBRcklfHj9/R7z4zP
dJ4Ww3w2cC0r+bpPKSEGh4OLkbXXwMaSok9jdyd8vS5TFOD6ffbdfy2ViQ6sXzyJ
qfad16Ror7ItqYY0RImoGbuzcFUJYTpfQoDhHTIwBcq039YqURGta9LOrI//NHez
WylXhXQOic+AcfTb0yk0rktjvENi9D2ZB/Afw3eh4SUurDa2vJzkn+0BXW2xX/UB
ZNENwvRu+9gfDzSA2JAHTWG0jA1JmUe/W/QEo3Nerqyj9zWK8HZk+7gS5BGE0f8Z
6YRD+DOdDRawusE2xL1F7wIDAQABo4IBNzCCATMwCQYDVR0TBAIwADAdBgNVHQ4E
FgQU7b5d+RMbZ3mPbH9zJEOEe8UEUA4wgeQGA1UdIwSB3DCB2YAUc96gQw+usZ7o
WWkYUKEaH9Sh4/ChgbWkgbIwga8xCzAJBgNVBAYTAlVTMRMwEQYDVQQIDApDYWxp
Zm9ybmlhMRYwFAYDVQQHDA1TYW4gRnJhbmNpc2NvMSAwHgYDVQQKDBdDb3B5bGVm
dCBDZXJ0aWZpY2F0ZSBDbzEfMB0GA1UECwwWTXkgT3JnYW5pemF0aW9uYWwgVW5p
dDERMA8GA1UEAwwIQ2hhbmdlTWUxHTAbBgkqhkiG9w0BCQEWDm1lQGV4YW1wbGUu
bmV0ggkA6bvLFsUyvjswEwYDVR0lBAwwCgYIKwYBBQUHAwIwCwYDVR0PBAQDAgeA
MA0GCSqGSIb3DQEBCwUAA4IBAQA1ZyqciGk95RI7a2/tGZrsxeve9azfxpVH/UJG
nwHT3ekWDNJjlecDcunLxpBwck8WtKLqbqctyjb6vrBFhhbmr4WH1klYc+UcUnzY
/BgLGUgyCebyHp/A9qX83tuYhiePsnoRcdeCqowlZqczPse9jrJdQJg8Yz6GeANM
SKUYpVhUXsaGWh8PgvbIweUGJZCxa2q8woNid8epbJ/Si8lGDbDeCWvwarX1YYKx
SVSpdXCXgrwkQi4rC1dfWGAVOl/c5aqVRz2NZFTdH9kt8s8UfbUHrwrHNhej2haJ
6u2WiLbWi6x4vJkS13rjZ2pSSZgFsoXJFtIhnfaqoE8n4WyG
-----END CERTIFICATE-----
