Certificate:
    Data:
        Version: 3 (0x2)
        Serial Number:
            10:62:ec:76:d5:69:56:3c:03:e2:71:96:41:7c:f3:70
    Signature Algorithm: sha256WithRSAEncryption
        Issuer: C=US, ST=California, L=San Francisco, O=Copyleft Certificate Co, OU=My Organizational Unit, CN=ChangeMe/emailAddress=me@example.net
        Validity
            Not Before: Nov 10 17:41:53 2023 GMT
            Not After : Nov  9 17:41:53 2024 GMT
        Subject: C=US, ST=OH, L=Cincinnati, O=University of Cincinnati, OU=Dept_Elec_Com_ Eng_Com_Sci., CN=client52/emailAddress=franco@gauss.ececs.uc.edu
        Subject Public Key Info:
            Public Key Algorithm: rsaEncryption
                Public-Key: (2048 bit)
                Modulus:
                    00:a9:45:26:a3:55:65:34:be:d3:dd:a8:6d:34:8d:
                    8b:19:d1:44:25:ab:87:ea:8c:0e:c9:54:f2:43:8b:
                    44:16:24:ec:16:45:07:30:75:aa:4b:38:b1:3f:08:
                    26:8c:3c:fa:cb:d1:1b:66:95:d7:d8:f8:c1:b2:4f:
                    98:ae:4a:e7:ba:40:90:2e:9a:76:25:fe:20:c6:fa:
                    40:17:11:a9:8e:f2:5b:8e:da:b5:48:41:4f:e8:28:
                    06:1f:48:ea:83:de:60:06:9f:3c:4b:55:ca:97:2a:
                    a5:0a:7a:0f:e8:ce:e9:5d:b9:d0:17:8c:8d:c8:a8:
                    8e:b7:47:b5:5c:5d:b2:ca:af:d5:c1:80:b1:d3:ae:
                    55:90:10:61:bd:cb:f9:7c:39:73:db:36:36:5d:9f:
                    1e:c4:b8:fe:2a:19:56:7c:9a:7e:a8:e9:41:5e:c1:
                    a6:aa:02:20:58:35:80:23:28:9e:b9:76:0a:04:54:
                    b7:ac:24:e6:c2:58:e1:b5:66:ea:d0:65:cb:8f:2b:
                    25:40:26:10:36:f1:30:b4:5a:72:ba:3e:f5:79:ea:
                    32:1a:95:96:4a:47:e8:28:22:26:67:1e:53:4e:99:
                    a3:e9:7f:a6:49:76:c7:a9:d4:0e:c5:59:1f:26:99:
                    d4:b7:2a:ba:ae:82:ec:16:f2:2f:35:21:f0:9d:81:
                    e7:09
                Exponent: 65537 (0x10001)
        X509v3 extensions:
            X509v3 Basic Constraints: 
                CA:FALSE
            X509v3 Subject Key Identifier: 
                85:3F:B6:7F:0E:E5:3D:6F:E2:34:E3:18:3F:15:E0:02:C2:82:CF:CA
            X509v3 Authority Key Identifier: 
                keyid:C8:27:DA:64:30:08:40:08:4A:25:CC:DC:43:99:DE:77:A1:FE:77:BD
                DirName:/C=US/ST=California/L=San Francisco/O=Copyleft Certificate Co/OU=My Organizational Unit/CN=ChangeMe/emailAddress=me@example.net
                serial:A9:48:C3:7E:FC:1B:B0:A1

            X509v3 Extended Key Usage: 
                TLS Web Client Authentication
            X509v3 Key Usage: 
                Digital Signature
    Signature Algorithm: sha256WithRSAEncryption
         27:15:00:2f:97:17:cc:c4:4d:1b:2e:ea:2b:00:6f:db:2b:9e:
         19:6c:48:47:b6:91:ec:35:e0:67:18:10:76:b2:ee:14:4a:d5:
         07:a1:fb:6d:39:d0:ff:4d:2c:e6:ec:4d:5c:5d:f7:64:29:30:
         33:45:28:c0:ae:df:69:11:74:e1:23:df:83:dd:ad:07:68:c2:
         e9:d3:09:24:04:e0:8c:6d:20:38:76:be:b7:85:d6:5f:b3:0c:
         31:0c:33:e3:68:67:72:8d:59:28:76:0f:3f:82:ef:ff:a9:c6:
         a0:a7:b9:02:b6:b3:2b:75:9c:8c:26:ea:08:58:5e:b3:67:22:
         0c:69:ee:79:c0:3d:da:b3:b1:73:a6:b4:85:c8:82:2f:ca:9b:
         0e:a6:69:b9:fe:c8:88:ef:be:42:39:02:78:93:3b:32:8e:8c:
         93:a0:35:e0:f4:d4:e2:75:fa:fc:49:3d:7c:42:fa:17:1e:6e:
         19:d4:fb:71:33:1c:a6:26:57:6e:57:0e:95:c2:39:38:75:d7:
         e1:00:9f:98:d9:8c:03:14:74:03:fd:15:86:5b:61:77:32:d8:
         99:3c:40:f1:68:6e:e4:73:b0:50:2d:2c:f4:aa:d3:63:98:bc:
         88:73:e9:f9:c5:82:a8:79:5c:61:39:d7:26:6e:da:92:1c:ca:
         32:72:75:70
-----BEGIN CERTIFICATE-----
MIIFKTCCBBGgAwIBAgIQEGLsdtVpVjwD4nGWQXzzcDANBgkqhkiG9w0BAQsFADCB
rzELMAkGA1UEBhMCVVMxEzARBgNVBAgMCkNhbGlmb3JuaWExFjAUBgNVBAcMDVNh
biBGcmFuY2lzY28xIDAeBgNVBAoMF0NvcHlsZWZ0IENlcnRpZmljYXRlIENvMR8w
HQYDVQQLDBZNeSBPcmdhbml6YXRpb25hbCBVbml0MREwDwYDVQQDDAhDaGFuZ2VN
ZTEdMBsGCSqGSIb3DQEJARYObWVAZXhhbXBsZS5uZXQwHhcNMjMxMTEwMTc0MTUz
WhcNMjQxMTA5MTc0MTUzWjCBtTELMAkGA1UEBhMCVVMxCzAJBgNVBAgMAk9IMRMw
EQYDVQQHDApDaW5jaW5uYXRpMSEwHwYDVQQKDBhVbml2ZXJzaXR5IG9mIENpbmNp
bm5hdGkxJDAiBgNVBAsMG0RlcHRfRWxlY19Db21fIEVuZ19Db21fU2NpLjERMA8G
A1UEAwwIY2xpZW50NTIxKDAmBgkqhkiG9w0BCQEWGWZyYW5jb0BnYXVzcy5lY2Vj
cy51Yy5lZHUwggEiMA0GCSqGSIb3DQEBAQUAA4IBDwAwggEKAoIBAQCpRSajVWU0
vtPdqG00jYsZ0UQlq4fqjA7JVPJDi0QWJOwWRQcwdapLOLE/CCaMPPrL0RtmldfY
+MGyT5iuSue6QJAumnYl/iDG+kAXEamO8luO2rVIQU/oKAYfSOqD3mAGnzxLVcqX
KqUKeg/ozuldudAXjI3IqI63R7VcXbLKr9XBgLHTrlWQEGG9y/l8OXPbNjZdnx7E
uP4qGVZ8mn6o6UFewaaqAiBYNYAjKJ65dgoEVLesJObCWOG1ZurQZcuPKyVAJhA2
8TC0WnK6PvV56jIalZZKR+goIiZnHlNOmaPpf6ZJdsep1A7FWR8mmdS3KrquguwW
8i81IfCdgecJAgMBAAGjggE3MIIBMzAJBgNVHRMEAjAAMB0GA1UdDgQWBBSFP7Z/
DuU9b+I04xg/FeACwoLPyjCB5AYDVR0jBIHcMIHZgBTIJ9pkMAhACEolzNxDmd53
of53vaGBtaSBsjCBrzELMAkGA1UEBhMCVVMxEzARBgNVBAgMCkNhbGlmb3JuaWEx
FjAUBgNVBAcMDVNhbiBGcmFuY2lzY28xIDAeBgNVBAoMF0NvcHlsZWZ0IENlcnRp
ZmljYXRlIENvMR8wHQYDVQQLDBZNeSBPcmdhbml6YXRpb25hbCBVbml0MREwDwYD
VQQDDAhDaGFuZ2VNZTEdMBsGCSqGSIb3DQEJARYObWVAZXhhbXBsZS5uZXSCCQCp
SMN+/BuwoTATBgNVHSUEDDAKBggrBgEFBQcDAjALBgNVHQ8EBAMCB4AwDQYJKoZI
hvcNAQELBQADggEBACcVAC+XF8zETRsu6isAb9srnhlsSEe2kew14GcYEHay7hRK
1Qeh+2050P9NLObsTVxd92QpMDNFKMCu32kRdOEj34PdrQdowunTCSQE4IxtIDh2
vreF1l+zDDEMM+NoZ3KNWSh2Dz+C7/+pxqCnuQK2syt1nIwm6ghYXrNnIgxp7nnA
PdqzsXOmtIXIgi/Kmw6mabn+yIjvvkI5AniTOzKOjJOgNeD01OJ1+vxJPXxC+hce
bhnU+3EzHKYmV25XDpXCOTh11+EAn5jZjAMUdAP9FYZbYXcy2Jk8QPFobuRzsFAt
LPSq02OYvIhz6fnFgqh5XGE51yZu2pIcyjJydXA=
-----END CERTIFICATE-----
