Certificate:
    Data:
        Version: 3 (0x2)
        Serial Number:
            40:86:00:50:c5:54:77:1d:fb:6f:a5:ec:d9:03:4a:ee
    Signature Algorithm: sha256WithRSAEncryption
        Issuer: C=US, ST=California, L=San Francisco, O=Copyleft Certificate Co, OU=My Organizational Unit, CN=ChangeMe/emailAddress=me@example.net
        Validity
            Not Before: Nov 11 10:56:40 2023 GMT
            Not After : Nov 10 10:56:40 2024 GMT
        Subject: C=US, ST=OH, L=Cincinnati, O=University of Cincinnati, OU=Dept. Elec. Comp. Eng. Comp. Sci., CN=client21/emailAddress=franco@gauss.ececs.uc.edu
        Subject Public Key Info:
            Public Key Algorithm: rsaEncryption
                Public-Key: (2048 bit)
                Modulus:
                    00:cb:d6:6e:90:e8:1f:ba:9a:00:51:be:26:2d:81:
                    27:c6:db:7f:33:2a:15:49:e7:20:b8:0c:02:ee:7a:
                    b5:c7:61:71:83:d9:2a:66:f2:1d:de:35:00:7f:5d:
                    f6:0b:f6:6a:e8:24:6b:0b:22:33:6c:ab:2b:a4:8a:
                    3f:fe:85:28:53:c1:72:b9:a8:b4:2b:9b:c4:c1:79:
                    75:fc:4a:7a:83:3b:a4:94:27:31:82:21:17:ea:86:
                    1a:68:64:04:c2:b7:65:b8:21:a5:ff:7c:dc:d8:44:
                    be:42:58:ec:21:03:2c:fa:07:b9:a6:26:8e:67:fd:
                    38:1e:5b:a8:91:90:eb:ce:47:64:ed:ab:59:b4:db:
                    d8:44:a7:1a:21:ce:92:1a:f8:6a:f3:a7:13:9d:a2:
                    e1:b8:45:43:e2:84:ed:b5:5a:b2:98:e2:40:9f:1e:
                    b8:5f:96:d1:26:d4:2e:fe:c2:c5:7b:ea:e7:7e:b6:
                    99:ad:58:8c:81:5c:48:1b:66:5b:99:c7:d2:cb:63:
                    b2:ab:62:66:71:56:41:d4:ee:11:ef:b9:ea:c5:b0:
                    ed:d0:b4:31:4d:57:09:44:06:7f:0e:dc:05:cd:ac:
                    cc:bd:11:49:1f:f7:58:b7:df:6f:07:09:f9:93:7f:
                    6d:e6:10:db:7d:62:3b:64:b7:ab:94:c1:51:d8:59:
                    aa:a1
                Exponent: 65537 (0x10001)
        X509v3 extensions:
            X509v3 Basic Constraints: 
                CA:FALSE
            X509v3 Subject Key Identifier: 
                13:16:F2:93:D2:9B:71:E8:16:25:22:F8:D1:47:A9:9F:3C:4E:C1:B0
            X509v3 Authority Key Identifier: 
                keyid:44:01:CC:06:0B:41:75:CB:C8:FB:C9:37:86:2D:9D:D2:D8:79:B6:8B
                DirName:/C=US/ST=California/L=San Francisco/O=Copyleft Certificate Co/OU=My Organizational Unit/CN=ChangeMe/emailAddress=me@example.net
                serial:AF:E8:E0:DD:C5:8B:0E:DD

            X509v3 Extended Key Usage: 
                TLS Web Client Authentication
            X509v3 Key Usage: 
                Digital Signature
    Signature Algorithm: sha256WithRSAEncryption
         13:7c:03:c1:f1:31:b3:2c:58:40:4a:67:a8:e6:ee:6b:16:d1:
         4f:a2:11:fc:2a:46:fc:84:09:dc:dc:33:79:55:77:5e:c0:34:
         12:2b:79:c8:65:9f:73:e4:64:a8:9c:90:5d:1f:ab:f2:3e:e2:
         97:78:c3:be:cf:b8:e9:24:2a:d9:20:d1:41:87:87:40:11:c8:
         fa:2d:73:8a:cf:3c:28:0f:27:4a:09:7a:b3:6a:ff:9b:09:c0:
         de:c3:eb:2f:1e:98:bd:b9:d0:ca:cb:60:fb:f8:10:19:bd:b6:
         ec:14:1a:c2:de:16:47:2b:47:34:f7:ad:91:9f:d9:65:f3:19:
         9c:af:eb:ed:6f:03:79:f3:f5:61:e5:8a:d0:14:34:be:33:76:
         19:70:c0:53:8a:42:59:78:72:e3:8a:8d:02:19:50:56:60:f6:
         d2:ce:69:bb:d9:f9:0a:44:b9:0a:68:8b:b9:24:c7:d0:fd:06:
         74:4f:21:53:2d:42:58:8b:b8:02:de:73:89:0e:ee:cb:bf:8c:
         3b:3e:c4:53:98:b4:c3:cf:43:e4:a1:8f:f4:13:af:17:ec:5f:
         03:c4:87:32:e3:43:c2:10:f1:6b:60:64:17:aa:94:16:59:36:
         24:b3:4c:60:ab:41:38:71:76:5b:2c:0d:54:7f:c7:39:81:99:
         f4:53:7f:66
-----BEGIN CERTIFICATE-----
MIIFLzCCBBegAwIBAgIQQIYAUMVUdx37b6Xs2QNK7jANBgkqhkiG9w0BAQsFADCB
rzELMAkGA1UEBhMCVVMxEzARBgNVBAgMCkNhbGlmb3JuaWExFjAUBgNVBAcMDVNh
biBGcmFuY2lzY28xIDAeBgNVBAoMF0NvcHlsZWZ0IENlcnRpZmljYXRlIENvMR8w
HQYDVQQLDBZNeSBPcmdhbml6YXRpb25hbCBVbml0MREwDwYDVQQDDAhDaGFuZ2VN
ZTEdMBsGCSqGSIb3DQEJARYObWVAZXhhbXBsZS5uZXQwHhcNMjMxMTExMTA1NjQw
WhcNMjQxMTEwMTA1NjQwWjCBuzELMAkGA1UEBhMCVVMxCzAJBgNVBAgMAk9IMRMw
EQYDVQQHDApDaW5jaW5uYXRpMSEwHwYDVQQKDBhVbml2ZXJzaXR5IG9mIENpbmNp
bm5hdGkxKjAoBgNVBAsMIURlcHQuIEVsZWMuIENvbXAuIEVuZy4gQ29tcC4gU2Np
LjERMA8GA1UEAwwIY2xpZW50MjExKDAmBgkqhkiG9w0BCQEWGWZyYW5jb0BnYXVz
cy5lY2Vjcy51Yy5lZHUwggEiMA0GCSqGSIb3DQEBAQUAA4IBDwAwggEKAoIBAQDL
1m6Q6B+6mgBRviYtgSfG238zKhVJ5yC4DALuerXHYXGD2Spm8h3eNQB/XfYL9mro
JGsLIjNsqyukij/+hShTwXK5qLQrm8TBeXX8SnqDO6SUJzGCIRfqhhpoZATCt2W4
IaX/fNzYRL5CWOwhAyz6B7mmJo5n/TgeW6iRkOvOR2Ttq1m029hEpxohzpIa+Grz
pxOdouG4RUPihO21WrKY4kCfHrhfltEm1C7+wsV76ud+tpmtWIyBXEgbZluZx9LL
Y7KrYmZxVkHU7hHvuerFsO3QtDFNVwlEBn8O3AXNrMy9EUkf91i3328HCfmTf23m
ENt9Yjtkt6uUwVHYWaqhAgMBAAGjggE3MIIBMzAJBgNVHRMEAjAAMB0GA1UdDgQW
BBQTFvKT0ptx6BYlIvjRR6mfPE7BsDCB5AYDVR0jBIHcMIHZgBREAcwGC0F1y8j7
yTeGLZ3S2Hm2i6GBtaSBsjCBrzELMAkGA1UEBhMCVVMxEzARBgNVBAgMCkNhbGlm
b3JuaWExFjAUBgNVBAcMDVNhbiBGcmFuY2lzY28xIDAeBgNVBAoMF0NvcHlsZWZ0
IENlcnRpZmljYXRlIENvMR8wHQYDVQQLDBZNeSBPcmdhbml6YXRpb25hbCBVbml0
MREwDwYDVQQDDAhDaGFuZ2VNZTEdMBsGCSqGSIb3DQEJARYObWVAZXhhbXBsZS5u
ZXSCCQCv6ODdxYsO3TATBgNVHSUEDDAKBggrBgEFBQcDAjALBgNVHQ8EBAMCB4Aw
DQYJKoZIhvcNAQELBQADggEBABN8A8HxMbMsWEBKZ6jm7msW0U+iEfwqRvyECdzc
M3lVd17ANBIrechln3PkZKickF0fq/I+4pd4w77PuOkkKtkg0UGHh0ARyPotc4rP
PCgPJ0oJerNq/5sJwN7D6y8emL250MrLYPv4EBm9tuwUGsLeFkcrRzT3rZGf2WXz
GZyv6+1vA3nz9WHlitAUNL4zdhlwwFOKQll4cuOKjQIZUFZg9tLOabvZ+QpEuQpo
i7kkx9D9BnRPIVMtQliLuALec4kO7su/jDs+xFOYtMPPQ+Shj/QTrxfsXwPEhzLj
Q8IQ8WtgZBeqlBZZNiSzTGCrQThxdlssDVR/xzmBmfRTf2Y=
-----END CERTIFICATE-----
