Certificate:
    Data:
        Version: 3 (0x2)
        Serial Number:
            f0:33:7d:18:54:a5:58:7b:e7:07:d2:6d:8f:24:ad:20
    Signature Algorithm: sha256WithRSAEncryption
        Issuer: C=US, ST=California, L=San Francisco, O=Copyleft Certificate Co, OU=My Organizational Unit, CN=ChangeMe/emailAddress=me@example.net
        Validity
            Not Before: Nov 13 11:46:26 2023 GMT
            Not After : Nov 12 11:46:26 2024 GMT
        Subject: C=US, ST=OH, L=Cincinnati, O=University of Cincinnati, OU=Dept. Elec. Comp. Eng. Comp. Sci., CN=client0/emailAddress=franco@gauss.ececs.uc.edu
        Subject Public Key Info:
            Public Key Algorithm: rsaEncryption
                Public-Key: (2048 bit)
                Modulus:
                    00:bf:e4:b9:6d:50:f1:17:05:69:17:4c:35:1c:c5:
                    92:15:41:3f:69:e5:1c:ae:be:e5:98:90:5e:b1:07:
                    f8:6a:98:db:58:36:c9:61:00:c4:78:ff:3b:fe:3a:
                    c5:ad:02:18:26:0f:1e:66:b1:73:fe:0e:ee:02:8b:
                    13:27:fe:10:ef:7c:d2:4b:5f:79:0e:7a:aa:49:50:
                    6b:92:55:29:33:76:43:99:4f:1d:6d:68:fc:68:a1:
                    95:18:fb:6c:1a:49:07:51:60:67:30:19:59:c7:62:
                    3f:5e:a3:4e:f2:1b:54:10:5d:c4:0c:4e:b1:aa:9b:
                    4d:74:90:eb:23:d9:44:95:fb:99:71:41:51:8e:1b:
                    74:ed:10:24:88:31:ef:d4:c6:45:d1:ef:5b:6f:3d:
                    e0:5b:94:92:5a:33:4b:90:3f:e9:da:d3:70:20:bf:
                    34:8b:a1:2e:1a:e7:44:6e:f5:10:16:b8:93:f1:fe:
                    82:74:41:9a:14:e5:51:83:43:22:63:c7:86:89:ab:
                    58:ef:12:5f:56:3c:e7:f4:cd:be:02:e0:f6:dc:ad:
                    f2:9f:7d:c0:ed:c1:ff:5f:3a:3e:cf:8a:63:64:c2:
                    25:cd:25:91:b5:bd:6f:ad:5d:8d:b1:f3:6e:10:7b:
                    f1:11:e7:88:35:23:d5:11:13:31:21:12:4a:b3:be:
                    46:6d
                Exponent: 65537 (0x10001)
        X509v3 extensions:
            X509v3 Basic Constraints: 
                CA:FALSE
            X509v3 Subject Key Identifier: 
                11:14:2C:70:98:F5:91:1D:8E:AC:E8:0A:CA:ED:D2:26:F5:10:51:A8
            X509v3 Authority Key Identifier: 
                keyid:B4:AE:AB:ED:FC:ED:84:AA:AD:77:5D:7C:84:28:1C:CA:CE:AE:2A:44
                DirName:/C=US/ST=California/L=San Francisco/O=Copyleft Certificate Co/OU=My Organizational Unit/CN=ChangeMe/emailAddress=me@example.net
                serial:BD:6C:3B:F4:D3:07:C9:D1

            X509v3 Extended Key Usage: 
                TLS Web Client Authentication
            X509v3 Key Usage: 
                Digital Signature
    Signature Algorithm: sha256WithRSAEncryption
         1f:09:62:07:c0:2d:92:89:cf:25:da:38:25:1f:76:95:cf:b8:
         af:e4:43:45:dc:8e:6e:c2:5a:d7:36:b4:58:89:3e:03:62:6a:
         98:74:be:fe:31:ee:6b:e3:71:1e:d4:f1:cb:04:a0:f9:bf:08:
         83:d7:e3:e1:30:8b:f2:92:96:72:3a:1e:12:29:3e:c0:a4:6d:
         fa:b9:a9:53:56:44:07:56:11:e5:ac:bb:e4:13:ef:5d:f4:cc:
         7e:13:c9:4c:fc:47:46:e1:2f:9f:d6:4d:66:a1:5f:1b:a7:0d:
         05:0b:5b:cb:21:76:04:b1:a6:e1:8b:d6:08:30:6b:ab:be:d3:
         2b:a9:8d:05:9f:6e:3a:a7:cf:43:2c:bf:db:5b:d6:f9:cc:eb:
         c3:e0:3f:65:ad:03:ff:75:87:48:20:a3:e8:54:44:d7:24:be:
         d0:13:f3:44:41:f2:a7:44:f5:04:8a:06:5f:b9:c3:68:84:3e:
         a8:f3:17:74:8a:7b:e8:4b:79:ab:d7:6b:a9:bd:25:9a:42:e0:
         f5:5c:d1:55:bc:65:17:81:1f:c4:37:0d:82:6c:f3:5c:48:58:
         c3:06:7d:0d:40:b9:e9:26:76:e1:3b:26:9d:9f:4c:3c:bf:e4:
         97:a5:fa:1e:90:5a:91:d7:ee:43:1d:29:55:77:92:0e:32:3c:
         7f:77:ad:36
-----BEGIN CERTIFICATE-----
MIIFLzCCBBegAwIBAgIRAPAzfRhUpVh75wfSbY8krSAwDQYJKoZIhvcNAQELBQAw
ga8xCzAJBgNVBAYTAlVTMRMwEQYDVQQIDApDYWxpZm9ybmlhMRYwFAYDVQQHDA1T
YW4gRnJhbmNpc2NvMSAwHgYDVQQKDBdDb3B5bGVmdCBDZXJ0aWZpY2F0ZSBDbzEf
MB0GA1UECwwWTXkgT3JnYW5pemF0aW9uYWwgVW5pdDERMA8GA1UEAwwIQ2hhbmdl
TWUxHTAbBgkqhkiG9w0BCQEWDm1lQGV4YW1wbGUubmV0MB4XDTIzMTExMzExNDYy
NloXDTI0MTExMjExNDYyNlowgboxCzAJBgNVBAYTAlVTMQswCQYDVQQIDAJPSDET
MBEGA1UEBwwKQ2luY2lubmF0aTEhMB8GA1UECgwYVW5pdmVyc2l0eSBvZiBDaW5j
aW5uYXRpMSowKAYDVQQLDCFEZXB0LiBFbGVjLiBDb21wLiBFbmcuIENvbXAuIFNj
aS4xEDAOBgNVBAMMB2NsaWVudDAxKDAmBgkqhkiG9w0BCQEWGWZyYW5jb0BnYXVz
cy5lY2Vjcy51Yy5lZHUwggEiMA0GCSqGSIb3DQEBAQUAA4IBDwAwggEKAoIBAQC/
5LltUPEXBWkXTDUcxZIVQT9p5RyuvuWYkF6xB/hqmNtYNslhAMR4/zv+OsWtAhgm
Dx5msXP+Du4CixMn/hDvfNJLX3kOeqpJUGuSVSkzdkOZTx1taPxooZUY+2waSQdR
YGcwGVnHYj9eo07yG1QQXcQMTrGqm010kOsj2USV+5lxQVGOG3TtECSIMe/UxkXR
71tvPeBblJJaM0uQP+na03AgvzSLoS4a50Ru9RAWuJPx/oJ0QZoU5VGDQyJjx4aJ
q1jvEl9WPOf0zb4C4PbcrfKffcDtwf9fOj7PimNkwiXNJZG1vW+tXY2x824Qe/ER
54g1I9UREzEhEkqzvkZtAgMBAAGjggE3MIIBMzAJBgNVHRMEAjAAMB0GA1UdDgQW
BBQRFCxwmPWRHY6s6ArK7dIm9RBRqDCB5AYDVR0jBIHcMIHZgBS0rqvt/O2Eqq13
XXyEKBzKzq4qRKGBtaSBsjCBrzELMAkGA1UEBhMCVVMxEzARBgNVBAgMCkNhbGlm
b3JuaWExFjAUBgNVBAcMDVNhbiBGcmFuY2lzY28xIDAeBgNVBAoMF0NvcHlsZWZ0
IENlcnRpZmljYXRlIENvMR8wHQYDVQQLDBZNeSBPcmdhbml6YXRpb25hbCBVbml0
MREwDwYDVQQDDAhDaGFuZ2VNZTEdMBsGCSqGSIb3DQEJARYObWVAZXhhbXBsZS5u
ZXSCCQC9bDv00wfJ0TATBgNVHSUEDDAKBggrBgEFBQcDAjALBgNVHQ8EBAMCB4Aw
DQYJKoZIhvcNAQELBQADggEBAB8JYgfALZKJzyXaOCUfdpXPuK/kQ0Xcjm7CWtc2
tFiJPgNiaph0vv4x7mvjcR7U8csEoPm/CIPX4+Ewi/KSlnI6HhIpPsCkbfq5qVNW
RAdWEeWsu+QT7130zH4TyUz8R0bhL5/WTWahXxunDQULW8shdgSxpuGL1ggwa6u+
0yupjQWfbjqnz0Msv9tb1vnM68PgP2WtA/91h0ggo+hURNckvtAT80RB8qdE9QSK
Bl+5w2iEPqjzF3SKe+hLeavXa6m9JZpC4PVc0VW8ZReBH8Q3DYJs81xIWMMGfQ1A
uekmduE7Jp2fTDy/5Jel+h6QWpHX7kMdKVV3kg4yPH93rTY=
-----END CERTIFICATE-----
