Certificate:
    Data:
        Version: 3 (0x2)
        Serial Number:
            25:be:58:90:75:a5:53:02:bd:c8:e4:0f:63:eb:84:05
    Signature Algorithm: sha256WithRSAEncryption
        Issuer: C=US, ST=California, L=San Francisco, O=Copyleft Certificate Co, OU=My Organizational Unit, CN=ChangeMe/emailAddress=me@example.net
        Validity
            Not Before: Jan 23 18:28:16 2021 GMT
            Not After : Jan 23 18:28:16 2022 GMT
        Subject: C=US, ST=OH, L=Cincinnati, O=University of Cincinnati, OU=Dept. Electrical Eng. and Computer Sci., CN=client42/emailAddress=franco@gauss.ececs.uc.edu
        Subject Public Key Info:
            Public Key Algorithm: rsaEncryption
                Public-Key: (2048 bit)
                Modulus:
                    00:c3:d1:c2:0c:c0:8a:01:15:f1:d0:31:a4:ac:50:
                    bf:3c:56:e8:9b:b0:1d:cd:0d:d1:e4:e4:5a:34:df:
                    a5:f1:1b:c1:0b:3f:63:e7:d4:4e:eb:eb:b5:be:17:
                    56:ef:e0:7a:0d:b6:ce:a0:61:0d:61:76:27:9f:4d:
                    95:33:1a:74:9d:7e:19:38:df:46:c8:69:5d:24:5a:
                    35:a0:40:f6:46:d2:0f:47:1f:8a:1f:dc:9f:1e:bf:
                    13:73:d6:64:2a:ae:c1:eb:c7:cb:2a:10:44:8b:b2:
                    ca:05:57:97:83:75:77:d2:24:bc:03:f0:b2:d5:b5:
                    32:07:14:1b:0a:96:af:47:5c:30:a7:86:b9:4f:11:
                    8c:3f:12:1c:c9:ab:c9:1e:9d:03:fc:b8:8c:64:94:
                    5a:fc:1d:84:38:42:cc:95:14:27:d8:59:71:2f:75:
                    ae:f0:21:e2:58:65:56:ab:80:db:26:0c:95:91:d0:
                    e7:97:94:4a:34:67:d3:f1:04:91:c5:9e:3e:97:dd:
                    bb:fb:df:82:59:4f:32:fa:fb:b2:60:5b:27:9b:64:
                    8e:cc:96:96:66:0a:eb:da:28:60:07:28:c6:de:e0:
                    c0:dc:c4:88:22:26:8d:7e:3a:37:5e:75:a0:04:a1:
                    e1:27:63:8e:10:cd:08:25:a4:e7:8e:07:c9:1f:9b:
                    b4:ed
                Exponent: 65537 (0x10001)
        X509v3 extensions:
            X509v3 Basic Constraints: 
                CA:FALSE
            X509v3 Subject Key Identifier: 
                B7:26:A0:07:D5:2D:07:CA:7C:A5:61:56:8C:11:5B:17:B4:59:BB:42
            X509v3 Authority Key Identifier: 
                keyid:EF:DC:B6:3D:4B:FD:A7:87:05:C5:22:3D:8B:DC:BF:99:2A:EE:E4:DB
                DirName:/C=US/ST=California/L=San Francisco/O=Copyleft Certificate Co/OU=My Organizational Unit/CN=ChangeMe/emailAddress=me@example.net
                serial:87:1E:1D:DC:6B:8C:66:88

            X509v3 Extended Key Usage: 
                TLS Web Client Authentication
            X509v3 Key Usage: 
                Digital Signature
    Signature Algorithm: sha256WithRSAEncryption
         d1:dd:27:87:d5:42:ca:58:ed:15:79:c2:e3:b1:94:10:01:d5:
         e3:01:25:18:b9:1f:14:5d:e3:42:39:a7:6c:34:a7:6f:44:ee:
         01:44:1e:89:b6:5e:35:0b:60:1f:e7:ef:69:63:3d:5f:c4:9e:
         54:47:01:0a:d8:49:11:25:10:b3:8e:d3:61:27:f7:3e:b0:48:
         36:89:ab:2f:ab:b3:b6:36:b0:d8:98:cd:31:b7:e8:b9:38:44:
         6f:e7:64:99:99:ad:1c:60:bf:c6:65:8f:37:b4:72:d0:44:80:
         e3:dc:db:a2:90:60:a6:01:77:ee:20:c8:ad:7e:e3:b1:94:1e:
         7a:e8:c9:e9:3c:c8:e5:92:db:a2:71:b4:87:d5:dd:fb:86:77:
         e2:2e:13:ba:a1:98:1b:0c:8a:c8:51:92:a4:c2:91:06:28:30:
         91:90:87:e8:9a:eb:5f:8d:fc:4a:51:dd:74:c5:27:73:0d:b3:
         21:b2:f3:81:11:71:52:63:95:b4:12:87:d8:d0:33:e6:bd:f5:
         31:ac:85:d8:d7:b4:86:8f:35:b8:14:67:2f:07:10:79:fb:1b:
         93:e0:7b:74:7e:d4:e3:82:07:1a:61:17:86:b1:43:57:53:90:
         62:3f:a3:ef:ad:4f:2f:17:5c:b8:da:58:83:0f:6e:9f:a9:54:
         be:01:a3:7a
-----BEGIN CERTIFICATE-----
MIIFNTCCBB2gAwIBAgIQJb5YkHWlUwK9yOQPY+uEBTANBgkqhkiG9w0BAQsFADCB
rzELMAkGA1UEBhMCVVMxEzARBgNVBAgMCkNhbGlmb3JuaWExFjAUBgNVBAcMDVNh
biBGcmFuY2lzY28xIDAeBgNVBAoMF0NvcHlsZWZ0IENlcnRpZmljYXRlIENvMR8w
HQYDVQQLDBZNeSBPcmdhbml6YXRpb25hbCBVbml0MREwDwYDVQQDDAhDaGFuZ2VN
ZTEdMBsGCSqGSIb3DQEJARYObWVAZXhhbXBsZS5uZXQwHhcNMjEwMTIzMTgyODE2
WhcNMjIwMTIzMTgyODE2WjCBwTELMAkGA1UEBhMCVVMxCzAJBgNVBAgMAk9IMRMw
EQYDVQQHDApDaW5jaW5uYXRpMSEwHwYDVQQKDBhVbml2ZXJzaXR5IG9mIENpbmNp
bm5hdGkxMDAuBgNVBAsMJ0RlcHQuIEVsZWN0cmljYWwgRW5nLiBhbmQgQ29tcHV0
ZXIgU2NpLjERMA8GA1UEAwwIY2xpZW50NDIxKDAmBgkqhkiG9w0BCQEWGWZyYW5j
b0BnYXVzcy5lY2Vjcy51Yy5lZHUwggEiMA0GCSqGSIb3DQEBAQUAA4IBDwAwggEK
AoIBAQDD0cIMwIoBFfHQMaSsUL88VuibsB3NDdHk5Fo036XxG8ELP2Pn1E7r67W+
F1bv4HoNts6gYQ1hdiefTZUzGnSdfhk430bIaV0kWjWgQPZG0g9HH4of3J8evxNz
1mQqrsHrx8sqEESLssoFV5eDdXfSJLwD8LLVtTIHFBsKlq9HXDCnhrlPEYw/EhzJ
q8kenQP8uIxklFr8HYQ4QsyVFCfYWXEvda7wIeJYZVargNsmDJWR0OeXlEo0Z9Px
BJHFnj6X3bv734JZTzL6+7JgWyebZI7MlpZmCuvaKGAHKMbe4MDcxIgiJo1+Ojde
daAEoeEnY44QzQglpOeOB8kfm7TtAgMBAAGjggE3MIIBMzAJBgNVHRMEAjAAMB0G
A1UdDgQWBBS3JqAH1S0HynylYVaMEVsXtFm7QjCB5AYDVR0jBIHcMIHZgBTv3LY9
S/2nhwXFIj2L3L+ZKu7k26GBtaSBsjCBrzELMAkGA1UEBhMCVVMxEzARBgNVBAgM
CkNhbGlmb3JuaWExFjAUBgNVBAcMDVNhbiBGcmFuY2lzY28xIDAeBgNVBAoMF0Nv
cHlsZWZ0IENlcnRpZmljYXRlIENvMR8wHQYDVQQLDBZNeSBPcmdhbml6YXRpb25h
bCBVbml0MREwDwYDVQQDDAhDaGFuZ2VNZTEdMBsGCSqGSIb3DQEJARYObWVAZXhh
bXBsZS5uZXSCCQCHHh3ca4xmiDATBgNVHSUEDDAKBggrBgEFBQcDAjALBgNVHQ8E
BAMCB4AwDQYJKoZIhvcNAQELBQADggEBANHdJ4fVQspY7RV5wuOxlBAB1eMBJRi5
HxRd40I5p2w0p29E7gFEHom2XjULYB/n72ljPV/EnlRHAQrYSRElELOO02En9z6w
SDaJqy+rs7Y2sNiYzTG36Lk4RG/nZJmZrRxgv8Zljze0ctBEgOPc26KQYKYBd+4g
yK1+47GUHnroyek8yOWS26JxtIfV3fuGd+IuE7qhmBsMishRkqTCkQYoMJGQh+ia
61+N/EpR3XTFJ3MNsyGy84ERcVJjlbQSh9jQM+a99TGshdjXtIaPNbgUZy8HEHn7
G5Pge3R+1OOCBxphF4axQ1dTkGI/o++tTy8XXLjaWIMPbp+pVL4Bo3o=
-----END CERTIFICATE-----
