Certificate:
    Data:
        Version: 3 (0x2)
        Serial Number:
            af:8c:51:47:60:d5:d2:6a:96:69:d9:0c:62:a3:54:83
    Signature Algorithm: sha256WithRSAEncryption
        Issuer: C=US, ST=California, L=San Francisco, O=Copyleft Certificate Co, OU=My Organizational Unit, CN=ChangeMe/emailAddress=me@example.net
        Validity
            Not Before: Nov 11 01:58:51 2023 GMT
            Not After : Nov 10 01:58:51 2024 GMT
        Subject: C=US, ST=OH, L=Cincinnati, O=University of Cincinnati, OU=Dept. Elec. Comp. Eng. Comp. Sci., CN=client12/emailAddress=franco@gauss.ececs.uc.edu
        Subject Public Key Info:
            Public Key Algorithm: rsaEncryption
                Public-Key: (2048 bit)
                Modulus:
                    00:aa:a3:e6:1e:1b:33:fd:86:96:bb:1b:bf:74:8d:
                    47:f0:e7:b3:ab:12:f6:1f:c6:9b:cd:79:48:c5:ce:
                    c2:1f:cb:66:e8:16:85:12:aa:99:bd:60:b2:9e:1a:
                    f8:24:a7:2d:bf:64:84:d9:01:fb:6c:41:65:4a:57:
                    89:14:cc:28:97:e0:9b:41:cd:4e:0a:90:e8:c6:76:
                    b7:66:96:4e:bb:82:99:bc:8d:a8:dd:0a:34:60:76:
                    ef:ea:6c:df:4c:1d:ba:b0:1a:f7:bb:82:70:97:9e:
                    74:bc:af:84:ba:0e:f4:65:7d:ab:96:62:ce:9c:36:
                    92:40:1f:35:9f:0c:13:d5:38:c0:ed:b2:1d:93:cc:
                    17:e9:cf:dc:b0:c4:5f:10:64:ef:f7:a2:1a:b7:df:
                    32:39:24:35:48:0d:45:4e:c7:59:88:c7:a6:18:0b:
                    ee:29:ec:a4:38:74:54:de:07:9b:1e:18:b5:52:76:
                    72:11:4c:6c:7a:c6:bb:2a:63:16:09:46:27:76:b0:
                    25:e2:d8:f1:10:2a:1c:96:63:de:39:b4:78:8e:b3:
                    11:ce:1f:4d:a6:05:4e:01:64:e2:18:9c:cb:8d:1f:
                    01:99:a6:4b:87:fa:1b:3a:f5:23:6f:32:25:14:2d:
                    87:17:c4:36:6a:2e:a2:27:27:dc:c1:14:43:56:7f:
                    ce:d1
                Exponent: 65537 (0x10001)
        X509v3 extensions:
            X509v3 Basic Constraints: 
                CA:FALSE
            X509v3 Subject Key Identifier: 
                2D:67:A4:75:2E:BD:9E:66:9E:44:37:D9:B5:42:30:CA:6B:C1:E9:7B
            X509v3 Authority Key Identifier: 
                keyid:7B:0F:93:16:64:9F:71:41:D3:1B:FB:ED:6A:70:9B:CA:2E:70:F0:4B
                DirName:/C=US/ST=California/L=San Francisco/O=Copyleft Certificate Co/OU=My Organizational Unit/CN=ChangeMe/emailAddress=me@example.net
                serial:B9:F2:4E:2C:79:B3:D4:6C

            X509v3 Extended Key Usage: 
                TLS Web Client Authentication
            X509v3 Key Usage: 
                Digital Signature
    Signature Algorithm: sha256WithRSAEncryption
         7b:fb:c0:df:2f:8b:97:67:80:f9:e8:12:eb:ee:6f:d4:1c:87:
         05:38:9f:49:de:98:8f:47:cb:e2:02:75:71:3d:86:90:68:d2:
         58:26:0a:b6:e1:76:1d:90:66:a7:66:2d:24:da:dd:f7:7c:af:
         ea:0f:d9:9f:ec:bb:b8:9c:97:f5:48:a7:2b:0c:3e:41:67:9a:
         f7:be:2b:af:b2:52:18:80:20:44:1a:33:92:0d:32:cf:8d:9e:
         5a:28:4e:13:19:37:b8:30:7c:27:b3:f4:48:48:d3:79:f1:0c:
         5a:f2:05:a5:79:23:ff:b5:12:00:5d:af:80:45:d3:c1:b4:87:
         8b:ec:0c:76:8d:39:55:48:41:c8:c4:05:cd:29:38:32:b6:1b:
         af:97:59:55:fe:72:ce:be:ff:08:31:f2:f9:17:9a:5d:cd:fa:
         88:26:4d:e1:a3:1f:57:15:96:7d:2c:29:dc:8f:b6:4b:8c:b1:
         e0:0e:07:d6:e3:33:ad:4c:da:17:7b:ef:5b:f7:41:16:7c:21:
         d9:38:2f:68:42:56:9f:f3:a4:65:c4:66:ff:ee:cd:49:e5:1e:
         8e:c6:0c:92:7b:0b:e9:6d:43:b5:f2:ce:e8:4d:d1:fd:8d:bb:
         59:0d:3a:8f:7a:bd:a0:de:58:4d:73:3e:d4:a7:d0:87:b8:08:
         33:d8:70:8a
-----BEGIN CERTIFICATE-----
MIIFMDCCBBigAwIBAgIRAK+MUUdg1dJqlmnZDGKjVIMwDQYJKoZIhvcNAQELBQAw
ga8xCzAJBgNVBAYTAlVTMRMwEQYDVQQIDApDYWxpZm9ybmlhMRYwFAYDVQQHDA1T
YW4gRnJhbmNpc2NvMSAwHgYDVQQKDBdDb3B5bGVmdCBDZXJ0aWZpY2F0ZSBDbzEf
MB0GA1UECwwWTXkgT3JnYW5pemF0aW9uYWwgVW5pdDERMA8GA1UEAwwIQ2hhbmdl
TWUxHTAbBgkqhkiG9w0BCQEWDm1lQGV4YW1wbGUubmV0MB4XDTIzMTExMTAxNTg1
MVoXDTI0MTExMDAxNTg1MVowgbsxCzAJBgNVBAYTAlVTMQswCQYDVQQIDAJPSDET
MBEGA1UEBwwKQ2luY2lubmF0aTEhMB8GA1UECgwYVW5pdmVyc2l0eSBvZiBDaW5j
aW5uYXRpMSowKAYDVQQLDCFEZXB0LiBFbGVjLiBDb21wLiBFbmcuIENvbXAuIFNj
aS4xETAPBgNVBAMMCGNsaWVudDEyMSgwJgYJKoZIhvcNAQkBFhlmcmFuY29AZ2F1
c3MuZWNlY3MudWMuZWR1MIIBIjANBgkqhkiG9w0BAQEFAAOCAQ8AMIIBCgKCAQEA
qqPmHhsz/YaWuxu/dI1H8OezqxL2H8abzXlIxc7CH8tm6BaFEqqZvWCynhr4JKct
v2SE2QH7bEFlSleJFMwol+CbQc1OCpDoxna3ZpZOu4KZvI2o3Qo0YHbv6mzfTB26
sBr3u4Jwl550vK+Eug70ZX2rlmLOnDaSQB81nwwT1TjA7bIdk8wX6c/csMRfEGTv
96Iat98yOSQ1SA1FTsdZiMemGAvuKeykOHRU3gebHhi1UnZyEUxsesa7KmMWCUYn
drAl4tjxECoclmPeObR4jrMRzh9NpgVOAWTiGJzLjR8BmaZLh/obOvUjbzIlFC2H
F8Q2ai6iJyfcwRRDVn/O0QIDAQABo4IBNzCCATMwCQYDVR0TBAIwADAdBgNVHQ4E
FgQULWekdS69nmaeRDfZtUIwymvB6XswgeQGA1UdIwSB3DCB2YAUew+TFmSfcUHT
G/vtanCbyi5w8EuhgbWkgbIwga8xCzAJBgNVBAYTAlVTMRMwEQYDVQQIDApDYWxp
Zm9ybmlhMRYwFAYDVQQHDA1TYW4gRnJhbmNpc2NvMSAwHgYDVQQKDBdDb3B5bGVm
dCBDZXJ0aWZpY2F0ZSBDbzEfMB0GA1UECwwWTXkgT3JnYW5pemF0aW9uYWwgVW5p
dDERMA8GA1UEAwwIQ2hhbmdlTWUxHTAbBgkqhkiG9w0BCQEWDm1lQGV4YW1wbGUu
bmV0ggkAufJOLHmz1GwwEwYDVR0lBAwwCgYIKwYBBQUHAwIwCwYDVR0PBAQDAgeA
MA0GCSqGSIb3DQEBCwUAA4IBAQB7+8DfL4uXZ4D56BLr7m/UHIcFOJ9J3piPR8vi
AnVxPYaQaNJYJgq24XYdkGanZi0k2t33fK/qD9mf7Lu4nJf1SKcrDD5BZ5r3viuv
slIYgCBEGjOSDTLPjZ5aKE4TGTe4MHwns/RISNN58Qxa8gWleSP/tRIAXa+ARdPB
tIeL7Ax2jTlVSEHIxAXNKTgythuvl1lV/nLOvv8IMfL5F5pdzfqIJk3hox9XFZZ9
LCncj7ZLjLHgDgfW4zOtTNoXe+9b90EWfCHZOC9oQlaf86RlxGb/7s1J5R6OxgyS
ewvpbUO18s7oTdH9jbtZDTqPer2g3lhNcz7Up9CHuAgz2HCK
-----END CERTIFICATE-----
