Certificate:
    Data:
        Version: 3 (0x2)
        Serial Number:
            3f:da:52:c6:d7:fb:fb:40:3c:92:d3:d7:89:e3:3e:bf
    Signature Algorithm: sha256WithRSAEncryption
        Issuer: C=US, ST=California, L=San Francisco, O=Copyleft Certificate Co, OU=My Organizational Unit, CN=ChangeMe/emailAddress=me@example.net
        Validity
            Not Before: Nov 12 11:48:03 2023 GMT
            Not After : Nov 11 11:48:03 2024 GMT
        Subject: C=US, ST=OH, L=Cincinnati, O=University of Cincinnati, OU=Dept. Elec. Comp. Eng. Comp. Sci., CN=client27/emailAddress=franco@gauss.ececs.uc.edu
        Subject Public Key Info:
            Public Key Algorithm: rsaEncryption
                Public-Key: (2048 bit)
                Modulus:
                    00:d0:50:40:d8:a0:4b:c2:f1:fa:ae:e7:9e:95:80:
                    92:c6:43:a8:5d:cb:a2:2c:c4:ae:08:b8:ff:32:21:
                    97:46:ad:94:51:a5:b6:d2:ab:99:14:15:b0:d8:8a:
                    8a:02:83:4e:5e:2d:80:fb:e3:e9:0e:86:a7:aa:b2:
                    a7:14:d5:7d:28:45:ad:3e:ac:fb:31:8f:75:11:ac:
                    4d:fd:be:4a:ac:84:3e:18:20:09:87:e6:02:d6:b9:
                    f5:da:61:28:2f:f6:f3:13:23:ee:2e:f8:33:5e:e3:
                    29:f9:a3:84:86:2d:0c:b9:fd:99:4f:cc:64:8a:5d:
                    84:3c:e0:f7:71:56:a7:c3:31:3c:48:30:86:66:8c:
                    5b:9b:71:e5:c4:54:02:a5:bb:39:5d:1e:55:45:ee:
                    c2:93:16:dd:e1:7c:49:56:aa:bd:d9:69:0c:b5:c1:
                    90:b6:bb:65:f6:3a:f3:ac:37:24:77:3d:19:08:86:
                    83:aa:4b:6e:22:eb:82:89:35:c5:ef:49:1f:4a:b2:
                    92:a0:42:4f:21:e9:b8:4b:fa:e7:0a:fc:83:96:2a:
                    7f:4d:7d:c5:4c:7a:5a:5a:93:9d:e0:be:52:5f:69:
                    6c:4d:f0:fe:8f:68:a4:84:ed:15:b7:66:44:42:b1:
                    67:43:0e:c8:4b:b2:2f:80:d0:43:3c:f5:e2:09:6f:
                    ec:23
                Exponent: 65537 (0x10001)
        X509v3 extensions:
            X509v3 Basic Constraints: 
                CA:FALSE
            X509v3 Subject Key Identifier: 
                68:EF:E6:78:E9:89:A4:4B:FF:ED:23:F3:F0:05:ED:25:A9:A9:38:29
            X509v3 Authority Key Identifier: 
                keyid:C4:46:F2:96:38:56:02:B8:9D:09:04:52:25:91:35:97:6A:D7:B1:F0
                DirName:/C=US/ST=California/L=San Francisco/O=Copyleft Certificate Co/OU=My Organizational Unit/CN=ChangeMe/emailAddress=me@example.net
                serial:D1:5A:15:1C:F0:20:95:62

            X509v3 Extended Key Usage: 
                TLS Web Client Authentication
            X509v3 Key Usage: 
                Digital Signature
    Signature Algorithm: sha256WithRSAEncryption
         77:4b:9c:59:a6:0d:d1:2b:e6:c0:d9:cc:29:88:27:f7:9e:30:
         e0:fb:97:7e:9e:20:da:ec:c9:bf:a2:5c:84:29:18:6c:d7:f1:
         b5:55:0c:2c:00:62:03:7c:5c:99:a9:6b:9c:05:48:94:cb:b9:
         15:4d:fa:ea:6d:45:c7:37:08:de:4c:f7:c0:18:65:8e:fc:b8:
         43:7f:15:aa:72:ab:0b:a9:56:bd:b2:4c:70:7e:40:62:76:a7:
         0e:b7:8a:b6:65:6c:a4:c1:56:00:55:6a:86:31:74:ca:6d:41:
         09:78:c6:96:ef:9b:8d:5b:2b:af:de:c7:19:e0:10:f8:5e:5d:
         ce:a9:eb:ce:ce:a3:c8:44:43:6f:ef:3d:b1:34:ba:5c:6b:a1:
         ef:72:d3:95:6a:66:f7:a7:29:26:d6:02:fd:58:09:3a:f8:84:
         be:5a:92:a7:aa:eb:e8:0f:32:98:56:31:40:ee:d6:e7:e4:2a:
         c4:d0:ac:c1:b2:7e:d1:07:2f:23:e9:d1:03:75:e3:f5:9a:f4:
         d3:45:1f:bc:1b:8c:4d:cc:80:94:5a:c3:3d:7b:40:fe:df:89:
         f8:27:7e:d5:70:1b:31:01:86:93:38:15:a0:0f:e2:0d:5b:05:
         d6:63:ed:bc:60:61:91:1f:4e:85:38:5a:77:f5:74:03:db:c3:
         b6:0e:6e:cf
-----BEGIN CERTIFICATE-----
MIIFLzCCBBegAwIBAgIQP9pSxtf7+0A8ktPXieM+vzANBgkqhkiG9w0BAQsFADCB
rzELMAkGA1UEBhMCVVMxEzARBgNVBAgMCkNhbGlmb3JuaWExFjAUBgNVBAcMDVNh
biBGcmFuY2lzY28xIDAeBgNVBAoMF0NvcHlsZWZ0IENlcnRpZmljYXRlIENvMR8w
HQYDVQQLDBZNeSBPcmdhbml6YXRpb25hbCBVbml0MREwDwYDVQQDDAhDaGFuZ2VN
ZTEdMBsGCSqGSIb3DQEJARYObWVAZXhhbXBsZS5uZXQwHhcNMjMxMTEyMTE0ODAz
WhcNMjQxMTExMTE0ODAzWjCBuzELMAkGA1UEBhMCVVMxCzAJBgNVBAgMAk9IMRMw
EQYDVQQHDApDaW5jaW5uYXRpMSEwHwYDVQQKDBhVbml2ZXJzaXR5IG9mIENpbmNp
bm5hdGkxKjAoBgNVBAsMIURlcHQuIEVsZWMuIENvbXAuIEVuZy4gQ29tcC4gU2Np
LjERMA8GA1UEAwwIY2xpZW50MjcxKDAmBgkqhkiG9w0BCQEWGWZyYW5jb0BnYXVz
cy5lY2Vjcy51Yy5lZHUwggEiMA0GCSqGSIb3DQEBAQUAA4IBDwAwggEKAoIBAQDQ
UEDYoEvC8fqu556VgJLGQ6hdy6IsxK4IuP8yIZdGrZRRpbbSq5kUFbDYiooCg05e
LYD74+kOhqeqsqcU1X0oRa0+rPsxj3URrE39vkqshD4YIAmH5gLWufXaYSgv9vMT
I+4u+DNe4yn5o4SGLQy5/ZlPzGSKXYQ84PdxVqfDMTxIMIZmjFubceXEVAKluzld
HlVF7sKTFt3hfElWqr3ZaQy1wZC2u2X2OvOsNyR3PRkIhoOqS24i64KJNcXvSR9K
spKgQk8h6bhL+ucK/IOWKn9NfcVMelpak53gvlJfaWxN8P6PaKSE7RW3ZkRCsWdD
DshLsi+A0EM89eIJb+wjAgMBAAGjggE3MIIBMzAJBgNVHRMEAjAAMB0GA1UdDgQW
BBRo7+Z46YmkS//tI/PwBe0lqak4KTCB5AYDVR0jBIHcMIHZgBTERvKWOFYCuJ0J
BFIlkTWXatex8KGBtaSBsjCBrzELMAkGA1UEBhMCVVMxEzARBgNVBAgMCkNhbGlm
b3JuaWExFjAUBgNVBAcMDVNhbiBGcmFuY2lzY28xIDAeBgNVBAoMF0NvcHlsZWZ0
IENlcnRpZmljYXRlIENvMR8wHQYDVQQLDBZNeSBPcmdhbml6YXRpb25hbCBVbml0
MREwDwYDVQQDDAhDaGFuZ2VNZTEdMBsGCSqGSIb3DQEJARYObWVAZXhhbXBsZS5u
ZXSCCQDRWhUc8CCVYjATBgNVHSUEDDAKBggrBgEFBQcDAjALBgNVHQ8EBAMCB4Aw
DQYJKoZIhvcNAQELBQADggEBAHdLnFmmDdEr5sDZzCmIJ/eeMOD7l36eINrsyb+i
XIQpGGzX8bVVDCwAYgN8XJmpa5wFSJTLuRVN+uptRcc3CN5M98AYZY78uEN/Fapy
qwupVr2yTHB+QGJ2pw63irZlbKTBVgBVaoYxdMptQQl4xpbvm41bK6/exxngEPhe
Xc6p687Oo8hEQ2/vPbE0ulxroe9y05VqZvenKSbWAv1YCTr4hL5akqeq6+gPMphW
MUDu1ufkKsTQrMGyftEHLyPp0QN14/Wa9NNFH7wbjE3MgJRawz17QP7fifgnftVw
GzEBhpM4FaAP4g1bBdZj7bxgYZEfToU4Wnf1dAPbw7YObs8=
-----END CERTIFICATE-----
