Certificate:
    Data:
        Version: 3 (0x2)
        Serial Number:
            1e:9d:83:c6:92:e1:98:8d:f0:74:08:eb:d1:4a:e4:0f
    Signature Algorithm: sha256WithRSAEncryption
        Issuer: C=US, ST=California, L=San Francisco, O=Copyleft Certificate Co, OU=My Organizational Unit, CN=ChangeMe/emailAddress=me@example.net
        Validity
            Not Before: Nov 10 17:43:05 2023 GMT
            Not After : Nov  9 17:43:05 2024 GMT
        Subject: C=US, ST=OH, L=Cincinnati, O=University of Cincinnati, OU=Dept_Elec_Com_ Eng_Com_Sci., CN=client70/emailAddress=franco@gauss.ececs.uc.edu
        Subject Public Key Info:
            Public Key Algorithm: rsaEncryption
                Public-Key: (2048 bit)
                Modulus:
                    00:96:d8:63:73:3e:bb:29:99:28:8b:ff:dd:eb:62:
                    3d:06:92:b5:94:e8:18:ae:a2:5c:ec:f3:47:50:51:
                    7a:e9:a7:81:8e:69:24:f6:cf:84:86:97:23:cd:06:
                    ac:16:a3:e8:a4:53:23:2b:67:ab:08:03:e4:c3:44:
                    f0:f9:a9:00:34:b8:d6:f2:91:5f:c7:1c:65:77:a9:
                    4b:1b:40:17:d4:b0:76:33:62:e9:aa:6f:db:ef:a9:
                    63:3e:c2:50:69:5f:c5:52:5c:ab:ff:fa:e5:84:4f:
                    0e:9a:65:49:d5:5f:33:73:8e:bd:63:33:d5:a6:ba:
                    4a:bd:6b:e1:a7:4c:1a:1a:3c:1b:aa:f1:9c:dc:f0:
                    41:7b:b1:e0:df:76:0e:55:42:d3:5c:dc:81:9f:06:
                    79:44:b6:e8:5b:de:3c:0f:86:d7:38:cc:f1:4d:a2:
                    5b:52:96:ad:e8:8f:64:37:ff:c8:de:9a:95:50:a4:
                    ec:1e:bd:ea:9f:15:9e:22:47:b9:4e:0c:e5:a0:40:
                    f6:2c:dd:55:0a:12:55:f5:27:e1:6e:80:5b:4e:a4:
                    ee:4c:85:8d:a2:0b:46:42:b3:00:93:c4:80:ea:4f:
                    4e:58:e1:d5:b8:6e:c0:a3:82:c8:5f:05:4a:0c:11:
                    c1:46:98:e9:05:5e:d4:82:0e:84:e8:6a:43:2e:5c:
                    37:61
                Exponent: 65537 (0x10001)
        X509v3 extensions:
            X509v3 Basic Constraints: 
                CA:FALSE
            X509v3 Subject Key Identifier: 
                2B:93:78:CD:89:FC:D5:C0:F4:17:C0:EA:78:5C:56:A2:0B:5C:DD:03
            X509v3 Authority Key Identifier: 
                keyid:C8:27:DA:64:30:08:40:08:4A:25:CC:DC:43:99:DE:77:A1:FE:77:BD
                DirName:/C=US/ST=California/L=San Francisco/O=Copyleft Certificate Co/OU=My Organizational Unit/CN=ChangeMe/emailAddress=me@example.net
                serial:A9:48:C3:7E:FC:1B:B0:A1

            X509v3 Extended Key Usage: 
                TLS Web Client Authentication
            X509v3 Key Usage: 
                Digital Signature
    Signature Algorithm: sha256WithRSAEncryption
         a5:5a:c2:48:a4:14:d8:35:bc:2a:70:d5:c3:8a:d9:8a:ea:b5:
         26:5a:87:c5:5c:ee:f0:7e:a6:35:56:7c:19:f5:9a:50:7d:c1:
         0f:65:5b:22:4c:bf:7d:d1:7a:dd:ec:91:26:27:4e:72:dc:34:
         fd:3b:04:e4:79:14:4f:19:5c:3f:4d:4d:55:c0:c5:d9:3a:cc:
         3a:7c:9f:58:07:a0:11:27:d0:da:b9:40:86:0e:8a:0b:9e:66:
         b3:83:c3:23:75:d3:9a:d0:f6:4a:e1:d0:10:ec:9d:4d:09:50:
         e9:0a:a9:a7:5a:df:41:38:dc:10:22:86:81:e4:50:52:b5:fc:
         dc:34:a2:90:20:20:0d:27:68:49:5d:a8:a8:5e:1f:14:56:ad:
         0f:2d:67:68:bd:62:78:f2:2c:ca:31:3e:39:ad:21:0c:f2:91:
         d7:b3:04:57:14:e6:0e:3e:97:87:86:aa:b2:93:9f:94:44:42:
         1f:11:c7:c3:35:98:ab:7c:1d:eb:e9:64:46:d4:ad:d1:26:39:
         db:89:73:7d:f3:10:d9:e8:01:70:85:88:6b:47:11:72:20:fa:
         5f:c1:ee:73:2d:b2:fc:c4:35:d9:16:67:0e:b9:e3:9f:ce:d7:
         08:9c:cf:0c:04:50:9b:57:c1:07:48:30:b7:68:22:26:1c:9e:
         b0:5e:c1:3d
-----BEGIN CERTIFICATE-----
MIIFKTCCBBGgAwIBAgIQHp2DxpLhmI3wdAjr0UrkDzANBgkqhkiG9w0BAQsFADCB
rzELMAkGA1UEBhMCVVMxEzARBgNVBAgMCkNhbGlmb3JuaWExFjAUBgNVBAcMDVNh
biBGcmFuY2lzY28xIDAeBgNVBAoMF0NvcHlsZWZ0IENlcnRpZmljYXRlIENvMR8w
HQYDVQQLDBZNeSBPcmdhbml6YXRpb25hbCBVbml0MREwDwYDVQQDDAhDaGFuZ2VN
ZTEdMBsGCSqGSIb3DQEJARYObWVAZXhhbXBsZS5uZXQwHhcNMjMxMTEwMTc0MzA1
WhcNMjQxMTA5MTc0MzA1WjCBtTELMAkGA1UEBhMCVVMxCzAJBgNVBAgMAk9IMRMw
EQYDVQQHDApDaW5jaW5uYXRpMSEwHwYDVQQKDBhVbml2ZXJzaXR5IG9mIENpbmNp
bm5hdGkxJDAiBgNVBAsMG0RlcHRfRWxlY19Db21fIEVuZ19Db21fU2NpLjERMA8G
A1UEAwwIY2xpZW50NzAxKDAmBgkqhkiG9w0BCQEWGWZyYW5jb0BnYXVzcy5lY2Vj
cy51Yy5lZHUwggEiMA0GCSqGSIb3DQEBAQUAA4IBDwAwggEKAoIBAQCW2GNzPrsp
mSiL/93rYj0GkrWU6Biuolzs80dQUXrpp4GOaST2z4SGlyPNBqwWo+ikUyMrZ6sI
A+TDRPD5qQA0uNbykV/HHGV3qUsbQBfUsHYzYumqb9vvqWM+wlBpX8VSXKv/+uWE
Tw6aZUnVXzNzjr1jM9Wmukq9a+GnTBoaPBuq8Zzc8EF7seDfdg5VQtNc3IGfBnlE
tuhb3jwPhtc4zPFNoltSlq3oj2Q3/8jempVQpOweveqfFZ4iR7lODOWgQPYs3VUK
ElX1J+FugFtOpO5MhY2iC0ZCswCTxIDqT05Y4dW4bsCjgshfBUoMEcFGmOkFXtSC
DoToakMuXDdhAgMBAAGjggE3MIIBMzAJBgNVHRMEAjAAMB0GA1UdDgQWBBQrk3jN
ifzVwPQXwOp4XFaiC1zdAzCB5AYDVR0jBIHcMIHZgBTIJ9pkMAhACEolzNxDmd53
of53vaGBtaSBsjCBrzELMAkGA1UEBhMCVVMxEzARBgNVBAgMCkNhbGlmb3JuaWEx
FjAUBgNVBAcMDVNhbiBGcmFuY2lzY28xIDAeBgNVBAoMF0NvcHlsZWZ0IENlcnRp
ZmljYXRlIENvMR8wHQYDVQQLDBZNeSBPcmdhbml6YXRpb25hbCBVbml0MREwDwYD
VQQDDAhDaGFuZ2VNZTEdMBsGCSqGSIb3DQEJARYObWVAZXhhbXBsZS5uZXSCCQCp
SMN+/BuwoTATBgNVHSUEDDAKBggrBgEFBQcDAjALBgNVHQ8EBAMCB4AwDQYJKoZI
hvcNAQELBQADggEBAKVawkikFNg1vCpw1cOK2YrqtSZah8Vc7vB+pjVWfBn1mlB9
wQ9lWyJMv33Ret3skSYnTnLcNP07BOR5FE8ZXD9NTVXAxdk6zDp8n1gHoBEn0Nq5
QIYOigueZrODwyN105rQ9krh0BDsnU0JUOkKqada30E43BAihoHkUFK1/Nw0opAg
IA0naEldqKheHxRWrQ8tZ2i9YnjyLMoxPjmtIQzykdezBFcU5g4+l4eGqrKTn5RE
Qh8Rx8M1mKt8HevpZEbUrdEmOduJc33zENnoAXCFiGtHEXIg+l/B7nMtsvzENdkW
Zw6545/O1wiczwwEUJtXwQdIMLdoIiYcnrBewT0=
-----END CERTIFICATE-----
