Certificate:
    Data:
        Version: 3 (0x2)
        Serial Number:
            3e:45:03:ae:8b:f4:f7:58:e9:98:65:62:85:a1:e7:99
    Signature Algorithm: sha256WithRSAEncryption
        Issuer: C=US, ST=California, L=San Francisco, O=Copyleft Certificate Co, OU=My Organizational Unit, CN=ChangeMe/emailAddress=me@example.net
        Validity
            Not Before: Nov 10 17:45:02 2023 GMT
            Not After : Nov  9 17:45:02 2024 GMT
        Subject: C=US, ST=OH, L=Cincinnati, O=University of Cincinnati, OU=Dept_Elec_Com_ Eng_Com_Sci., CN=client99/emailAddress=franco@gauss.ececs.uc.edu
        Subject Public Key Info:
            Public Key Algorithm: rsaEncryption
                Public-Key: (2048 bit)
                Modulus:
                    00:b7:53:ae:11:db:4d:fa:84:52:86:b7:28:ca:c8:
                    f0:31:fe:2f:ab:5f:2d:24:04:2d:c1:ad:86:a6:37:
                    e5:61:c3:6d:04:47:c2:88:65:a2:d1:bc:5d:26:bc:
                    16:0a:4f:a6:c7:0e:31:48:2f:a4:2c:bf:2e:98:d7:
                    e6:e4:45:cc:a2:ee:e7:17:22:29:0a:01:2f:f4:f5:
                    e1:52:d5:49:84:8c:dd:77:07:17:34:ba:c4:68:b0:
                    ea:7f:cd:cf:94:38:90:c2:2b:0d:e9:b9:fa:b2:6c:
                    60:56:e1:60:75:65:bb:63:8a:87:f2:60:96:de:e2:
                    69:a8:e2:c6:6d:8f:ca:23:04:9f:04:e2:d7:e0:e8:
                    22:da:a2:f1:40:aa:2a:c0:92:4c:40:07:56:6a:80:
                    1f:70:d0:82:17:58:72:03:9e:7c:f6:80:ee:be:7f:
                    6d:09:8f:c8:5e:2a:b3:67:d3:40:b9:fa:5a:89:b4:
                    83:bd:e9:66:13:52:f2:d0:6d:dd:4e:6a:5f:27:44:
                    40:a2:10:aa:80:7b:17:51:78:98:d4:72:4b:10:aa:
                    4e:9a:a6:28:46:63:72:f0:c2:48:96:a2:b6:b1:ac:
                    2e:1b:d6:f8:e6:4e:28:e4:56:af:53:24:f8:37:66:
                    3d:0f:75:81:75:ef:be:81:b5:20:62:a1:55:5c:39:
                    38:2d
                Exponent: 65537 (0x10001)
        X509v3 extensions:
            X509v3 Basic Constraints: 
                CA:FALSE
            X509v3 Subject Key Identifier: 
                E8:99:7B:8D:DE:BA:B7:44:1D:EC:40:74:8D:E2:1C:5D:6F:44:39:97
            X509v3 Authority Key Identifier: 
                keyid:C8:27:DA:64:30:08:40:08:4A:25:CC:DC:43:99:DE:77:A1:FE:77:BD
                DirName:/C=US/ST=California/L=San Francisco/O=Copyleft Certificate Co/OU=My Organizational Unit/CN=ChangeMe/emailAddress=me@example.net
                serial:A9:48:C3:7E:FC:1B:B0:A1

            X509v3 Extended Key Usage: 
                TLS Web Client Authentication
            X509v3 Key Usage: 
                Digital Signature
    Signature Algorithm: sha256WithRSAEncryption
         ae:5d:9d:8b:42:43:92:0f:4f:c4:e4:6a:04:ac:97:c6:7a:d9:
         0b:dc:11:8c:1b:c2:79:86:6d:68:c0:8a:96:1e:37:71:48:17:
         47:78:ef:4d:66:d9:14:1a:2c:cb:92:fc:73:a0:9f:e6:66:da:
         81:37:cd:db:f4:19:12:62:f3:2b:7e:4c:0d:09:cd:67:95:27:
         06:93:a8:87:e7:eb:d2:8d:88:7f:4f:8a:c2:d1:1a:25:0e:c3:
         a1:93:a5:20:a8:33:37:a1:fb:a4:ad:5f:59:c2:84:6d:2a:1b:
         ff:56:ec:8b:f5:1b:f0:64:2e:3d:50:60:83:30:ab:01:93:a4:
         e6:b3:cd:3e:21:d0:71:69:4f:66:df:64:e1:8a:f2:db:d2:cf:
         cc:3f:a7:3f:92:d0:03:90:1f:16:67:d3:59:3e:31:20:c5:a2:
         33:1b:09:b5:dc:30:ea:7c:d6:55:9c:22:f7:d3:06:46:8f:c7:
         84:94:84:5c:4d:c5:9a:e5:95:79:95:f3:2d:47:61:97:2e:8f:
         41:4c:85:25:78:cd:2b:20:94:c9:84:8a:e1:11:49:99:e6:58:
         56:c5:e7:e3:cd:3d:37:70:17:14:3a:31:68:98:80:d7:a9:94:
         20:b7:35:2d:0b:b3:05:c8:24:6f:44:71:d0:7f:35:e3:41:5a:
         71:fd:3a:a6
-----BEGIN CERTIFICATE-----
MIIFKTCCBBGgAwIBAgIQPkUDrov091jpmGVihaHnmTANBgkqhkiG9w0BAQsFADCB
rzELMAkGA1UEBhMCVVMxEzARBgNVBAgMCkNhbGlmb3JuaWExFjAUBgNVBAcMDVNh
biBGcmFuY2lzY28xIDAeBgNVBAoMF0NvcHlsZWZ0IENlcnRpZmljYXRlIENvMR8w
HQYDVQQLDBZNeSBPcmdhbml6YXRpb25hbCBVbml0MREwDwYDVQQDDAhDaGFuZ2VN
ZTEdMBsGCSqGSIb3DQEJARYObWVAZXhhbXBsZS5uZXQwHhcNMjMxMTEwMTc0NTAy
WhcNMjQxMTA5MTc0NTAyWjCBtTELMAkGA1UEBhMCVVMxCzAJBgNVBAgMAk9IMRMw
EQYDVQQHDApDaW5jaW5uYXRpMSEwHwYDVQQKDBhVbml2ZXJzaXR5IG9mIENpbmNp
bm5hdGkxJDAiBgNVBAsMG0RlcHRfRWxlY19Db21fIEVuZ19Db21fU2NpLjERMA8G
A1UEAwwIY2xpZW50OTkxKDAmBgkqhkiG9w0BCQEWGWZyYW5jb0BnYXVzcy5lY2Vj
cy51Yy5lZHUwggEiMA0GCSqGSIb3DQEBAQUAA4IBDwAwggEKAoIBAQC3U64R2036
hFKGtyjKyPAx/i+rXy0kBC3BrYamN+Vhw20ER8KIZaLRvF0mvBYKT6bHDjFIL6Qs
vy6Y1+bkRcyi7ucXIikKAS/09eFS1UmEjN13Bxc0usRosOp/zc+UOJDCKw3pufqy
bGBW4WB1ZbtjiofyYJbe4mmo4sZtj8ojBJ8E4tfg6CLaovFAqirAkkxAB1ZqgB9w
0IIXWHIDnnz2gO6+f20Jj8heKrNn00C5+lqJtIO96WYTUvLQbd1Oal8nRECiEKqA
exdReJjUcksQqk6apihGY3LwwkiWoraxrC4b1vjmTijkVq9TJPg3Zj0PdYF1776B
tSBioVVcOTgtAgMBAAGjggE3MIIBMzAJBgNVHRMEAjAAMB0GA1UdDgQWBBTomXuN
3rq3RB3sQHSN4hxdb0Q5lzCB5AYDVR0jBIHcMIHZgBTIJ9pkMAhACEolzNxDmd53
of53vaGBtaSBsjCBrzELMAkGA1UEBhMCVVMxEzARBgNVBAgMCkNhbGlmb3JuaWEx
FjAUBgNVBAcMDVNhbiBGcmFuY2lzY28xIDAeBgNVBAoMF0NvcHlsZWZ0IENlcnRp
ZmljYXRlIENvMR8wHQYDVQQLDBZNeSBPcmdhbml6YXRpb25hbCBVbml0MREwDwYD
VQQDDAhDaGFuZ2VNZTEdMBsGCSqGSIb3DQEJARYObWVAZXhhbXBsZS5uZXSCCQCp
SMN+/BuwoTATBgNVHSUEDDAKBggrBgEFBQcDAjALBgNVHQ8EBAMCB4AwDQYJKoZI
hvcNAQELBQADggEBAK5dnYtCQ5IPT8TkagSsl8Z62QvcEYwbwnmGbWjAipYeN3FI
F0d4701m2RQaLMuS/HOgn+Zm2oE3zdv0GRJi8yt+TA0JzWeVJwaTqIfn69KNiH9P
isLRGiUOw6GTpSCoMzeh+6StX1nChG0qG/9W7Iv1G/BkLj1QYIMwqwGTpOazzT4h
0HFpT2bfZOGK8tvSz8w/pz+S0AOQHxZn01k+MSDFojMbCbXcMOp81lWcIvfTBkaP
x4SUhFxNxZrllXmV8y1HYZcuj0FMhSV4zSsglMmEiuERSZnmWFbF5+PNPTdwFxQ6
MWiYgNeplCC3NS0LswXIJG9EcdB/NeNBWnH9OqY=
-----END CERTIFICATE-----
