Certificate:
    Data:
        Version: 3 (0x2)
        Serial Number:
            b4:2d:9a:fe:9f:59:af:bc:ea:54:73:56:4b:32:89:46
    Signature Algorithm: sha256WithRSAEncryption
        Issuer: C=US, ST=California, L=San Francisco, O=Copyleft Certificate Co, OU=My Organizational Unit, CN=ChangeMe/emailAddress=me@example.net
        Validity
            Not Before: Nov 10 17:42:29 2023 GMT
            Not After : Nov  9 17:42:29 2024 GMT
        Subject: C=US, ST=OH, L=Cincinnati, O=University of Cincinnati, OU=Dept_Elec_Com_ Eng_Com_Sci., CN=client61/emailAddress=franco@gauss.ececs.uc.edu
        Subject Public Key Info:
            Public Key Algorithm: rsaEncryption
                Public-Key: (2048 bit)
                Modulus:
                    00:cf:76:0d:1d:b3:e1:5f:61:73:85:ee:db:95:51:
                    07:5b:f2:31:54:6e:97:be:53:0d:ec:34:7e:e5:15:
                    e7:bc:92:53:be:7f:b4:8b:fa:a4:f4:21:c4:6b:8a:
                    54:b7:cb:d9:fe:e2:f4:03:73:82:16:50:75:28:cf:
                    e3:f2:51:32:05:d1:ba:2e:7c:8c:6e:3e:a8:c0:c2:
                    b7:d6:ee:aa:b5:aa:37:f2:b9:21:79:f8:81:44:e6:
                    51:7f:8d:66:c3:b5:39:0a:ff:40:1f:96:8b:0b:33:
                    ec:2b:6a:d7:51:46:c5:41:58:13:78:57:26:02:00:
                    a1:9a:f5:b3:7e:fc:93:b0:6a:ed:26:78:73:8e:9a:
                    36:9c:4a:e3:09:43:6c:5f:32:e2:74:4c:1a:4c:fc:
                    86:07:53:4f:1d:a1:1b:da:79:75:06:5d:89:a1:1e:
                    ca:7a:20:0b:a5:92:58:b4:78:3d:4f:03:3e:9f:84:
                    cd:d9:2e:d7:b6:1f:ab:45:18:33:6f:a1:c7:83:dc:
                    2d:07:af:a4:12:59:ba:50:15:50:b8:ff:ae:16:a7:
                    42:a0:8c:04:06:eb:91:7a:46:22:09:10:2e:65:17:
                    aa:14:e3:3f:b0:7a:88:dd:bb:a5:97:5c:b5:35:6a:
                    d9:da:b6:cc:37:05:5c:54:df:4c:ca:0c:00:b2:59:
                    30:d1
                Exponent: 65537 (0x10001)
        X509v3 extensions:
            X509v3 Basic Constraints: 
                CA:FALSE
            X509v3 Subject Key Identifier: 
                67:ED:62:69:DC:60:38:2F:A9:DD:20:36:42:D8:F8:14:4F:61:42:9D
            X509v3 Authority Key Identifier: 
                keyid:C8:27:DA:64:30:08:40:08:4A:25:CC:DC:43:99:DE:77:A1:FE:77:BD
                DirName:/C=US/ST=California/L=San Francisco/O=Copyleft Certificate Co/OU=My Organizational Unit/CN=ChangeMe/emailAddress=me@example.net
                serial:A9:48:C3:7E:FC:1B:B0:A1

            X509v3 Extended Key Usage: 
                TLS Web Client Authentication
            X509v3 Key Usage: 
                Digital Signature
    Signature Algorithm: sha256WithRSAEncryption
         4b:21:bd:f7:1d:b8:c7:44:1f:4e:d6:ca:69:1d:80:16:f2:45:
         1b:10:a7:5a:b6:16:0f:da:33:ff:6d:9a:ea:1c:1d:d4:1b:a5:
         fb:cf:b5:17:0b:28:11:a9:67:15:1b:8c:38:af:6a:3e:59:0b:
         9f:90:b4:83:ae:be:79:d8:7c:ef:76:20:49:99:cb:21:b3:ce:
         3f:2d:1b:59:cc:7e:42:63:84:9b:6e:b6:f0:49:e9:41:2c:4d:
         d7:71:fe:9d:59:c4:d1:59:69:29:45:c2:c9:46:51:d2:6c:37:
         72:b9:4d:29:b8:11:39:f5:9a:e9:f8:e8:12:83:c1:17:97:8c:
         ef:31:5c:73:bf:b7:d1:f0:04:15:a7:c2:f7:31:c7:b9:ae:16:
         42:b3:4e:cc:99:1a:1d:25:8c:29:d1:40:d7:c3:6a:77:29:f1:
         d4:07:5f:d9:51:22:d5:56:60:65:5f:55:7d:75:8f:69:b9:00:
         14:ad:ef:84:82:47:c1:46:6c:46:c4:cb:f8:7e:43:5b:7c:b6:
         eb:a9:7e:ef:91:0b:e7:93:9f:c3:dc:8c:17:7f:a7:26:86:a4:
         b5:59:29:f6:ec:d6:5b:69:ae:58:2d:f9:77:74:3b:a3:0c:73:
         3b:86:3b:90:a2:20:ab:02:70:09:4c:c2:41:95:f7:b1:c8:dd:
         a8:a4:f0:c8
-----BEGIN CERTIFICATE-----
MIIFKjCCBBKgAwIBAgIRALQtmv6fWa+86lRzVksyiUYwDQYJKoZIhvcNAQELBQAw
ga8xCzAJBgNVBAYTAlVTMRMwEQYDVQQIDApDYWxpZm9ybmlhMRYwFAYDVQQHDA1T
YW4gRnJhbmNpc2NvMSAwHgYDVQQKDBdDb3B5bGVmdCBDZXJ0aWZpY2F0ZSBDbzEf
MB0GA1UECwwWTXkgT3JnYW5pemF0aW9uYWwgVW5pdDERMA8GA1UEAwwIQ2hhbmdl
TWUxHTAbBgkqhkiG9w0BCQEWDm1lQGV4YW1wbGUubmV0MB4XDTIzMTExMDE3NDIy
OVoXDTI0MTEwOTE3NDIyOVowgbUxCzAJBgNVBAYTAlVTMQswCQYDVQQIDAJPSDET
MBEGA1UEBwwKQ2luY2lubmF0aTEhMB8GA1UECgwYVW5pdmVyc2l0eSBvZiBDaW5j
aW5uYXRpMSQwIgYDVQQLDBtEZXB0X0VsZWNfQ29tXyBFbmdfQ29tX1NjaS4xETAP
BgNVBAMMCGNsaWVudDYxMSgwJgYJKoZIhvcNAQkBFhlmcmFuY29AZ2F1c3MuZWNl
Y3MudWMuZWR1MIIBIjANBgkqhkiG9w0BAQEFAAOCAQ8AMIIBCgKCAQEAz3YNHbPh
X2Fzhe7blVEHW/IxVG6XvlMN7DR+5RXnvJJTvn+0i/qk9CHEa4pUt8vZ/uL0A3OC
FlB1KM/j8lEyBdG6LnyMbj6owMK31u6qtao38rkhefiBROZRf41mw7U5Cv9AH5aL
CzPsK2rXUUbFQVgTeFcmAgChmvWzfvyTsGrtJnhzjpo2nErjCUNsXzLidEwaTPyG
B1NPHaEb2nl1Bl2JoR7KeiALpZJYtHg9TwM+n4TN2S7Xth+rRRgzb6HHg9wtB6+k
Elm6UBVQuP+uFqdCoIwEBuuRekYiCRAuZReqFOM/sHqI3bull1y1NWrZ2rbMNwVc
VN9MygwAslkw0QIDAQABo4IBNzCCATMwCQYDVR0TBAIwADAdBgNVHQ4EFgQUZ+1i
adxgOC+p3SA2Qtj4FE9hQp0wgeQGA1UdIwSB3DCB2YAUyCfaZDAIQAhKJczcQ5ne
d6H+d72hgbWkgbIwga8xCzAJBgNVBAYTAlVTMRMwEQYDVQQIDApDYWxpZm9ybmlh
MRYwFAYDVQQHDA1TYW4gRnJhbmNpc2NvMSAwHgYDVQQKDBdDb3B5bGVmdCBDZXJ0
aWZpY2F0ZSBDbzEfMB0GA1UECwwWTXkgT3JnYW5pemF0aW9uYWwgVW5pdDERMA8G
A1UEAwwIQ2hhbmdlTWUxHTAbBgkqhkiG9w0BCQEWDm1lQGV4YW1wbGUubmV0ggkA
qUjDfvwbsKEwEwYDVR0lBAwwCgYIKwYBBQUHAwIwCwYDVR0PBAQDAgeAMA0GCSqG
SIb3DQEBCwUAA4IBAQBLIb33HbjHRB9O1sppHYAW8kUbEKdathYP2jP/bZrqHB3U
G6X7z7UXCygRqWcVG4w4r2o+WQufkLSDrr552HzvdiBJmcshs84/LRtZzH5CY4Sb
brbwSelBLE3Xcf6dWcTRWWkpRcLJRlHSbDdyuU0puBE59Zrp+OgSg8EXl4zvMVxz
v7fR8AQVp8L3Mce5rhZCs07MmRodJYwp0UDXw2p3KfHUB1/ZUSLVVmBlX1V9dY9p
uQAUre+EgkfBRmxGxMv4fkNbfLbrqX7vkQvnk5/D3IwXf6cmhqS1WSn27NZbaa5Y
Lfl3dDujDHM7hjuQoiCrAnAJTMJBlfexyN2opPDI
-----END CERTIFICATE-----
