Certificate:
    Data:
        Version: 3 (0x2)
        Serial Number:
            19:33:4d:57:19:ad:3f:09:2c:57:ff:13:c3:85:03:87
    Signature Algorithm: sha256WithRSAEncryption
        Issuer: C=US, ST=California, L=San Francisco, O=Copyleft Certificate Co, OU=My Organizational Unit, CN=ChangeMe/emailAddress=me@example.net
        Validity
            Not Before: Jan 23 18:28:49 2021 GMT
            Not After : Jan 23 18:28:49 2022 GMT
        Subject: C=US, ST=OH, L=Cincinnati, O=University of Cincinnati, OU=Dept. Electrical Eng. and Computer Sci., CN=client66/emailAddress=franco@gauss.ececs.uc.edu
        Subject Public Key Info:
            Public Key Algorithm: rsaEncryption
                Public-Key: (2048 bit)
                Modulus:
                    00:c1:e8:c6:04:f6:89:d1:ff:1a:98:ca:7a:b1:1b:
                    5a:ed:76:34:a9:89:93:33:92:49:c8:1c:14:e4:2c:
                    18:32:6d:7f:2f:d9:91:44:18:e6:07:e5:f4:e0:48:
                    f0:c5:d8:9d:6e:19:02:09:7c:b5:9a:9d:3d:b2:05:
                    8d:60:51:50:9f:16:23:83:ab:f8:73:e1:d2:55:61:
                    12:4c:dc:0e:26:43:70:c6:23:49:7e:f3:db:cf:32:
                    5d:9f:f6:0e:c0:4b:97:7f:63:d4:5c:d8:1d:3b:4c:
                    42:a2:42:0d:b6:6d:1f:b8:b7:08:49:8e:85:67:04:
                    42:c1:8e:3b:77:b6:d9:cd:d6:8d:d3:a3:f0:dd:72:
                    1e:0b:2b:4c:ed:fa:3b:c8:10:66:67:80:d6:aa:d2:
                    54:9e:0d:fc:87:70:16:5e:f5:34:3f:cb:4b:dd:9b:
                    a6:06:2c:76:59:21:a0:e2:69:77:f4:d2:ff:a9:ef:
                    d3:82:95:c6:bb:6d:f0:83:8d:82:8a:c2:97:af:5c:
                    f9:c3:c0:17:51:07:69:ab:e0:31:d8:57:2a:41:0d:
                    06:61:ff:f3:c0:08:25:19:24:ff:13:fd:ed:e2:58:
                    5a:3c:e3:87:1b:77:65:f5:52:ae:5c:2f:7e:30:0d:
                    9c:9f:c9:59:4d:c5:79:1a:a9:ea:17:d0:0a:66:0a:
                    e0:07
                Exponent: 65537 (0x10001)
        X509v3 extensions:
            X509v3 Basic Constraints: 
                CA:FALSE
            X509v3 Subject Key Identifier: 
                3A:FB:DE:57:E0:C4:C3:D7:10:15:D1:2A:86:46:B7:C4:43:F0:38:F5
            X509v3 Authority Key Identifier: 
                keyid:EF:DC:B6:3D:4B:FD:A7:87:05:C5:22:3D:8B:DC:BF:99:2A:EE:E4:DB
                DirName:/C=US/ST=California/L=San Francisco/O=Copyleft Certificate Co/OU=My Organizational Unit/CN=ChangeMe/emailAddress=me@example.net
                serial:87:1E:1D:DC:6B:8C:66:88

            X509v3 Extended Key Usage: 
                TLS Web Client Authentication
            X509v3 Key Usage: 
                Digital Signature
    Signature Algorithm: sha256WithRSAEncryption
         17:e7:16:00:26:53:b5:16:29:e3:46:fc:c1:68:39:01:c6:60:
         60:a0:17:38:10:e6:9b:cf:6b:98:fa:b0:cd:2b:ed:10:c6:3c:
         ed:77:a8:6f:7d:4f:4f:40:93:ce:87:a2:5a:1e:a4:c8:85:fd:
         b3:1f:a7:f4:de:d6:b4:e5:de:af:ba:b8:d3:74:c3:e4:ce:fc:
         40:52:fb:13:67:41:75:14:3f:d4:80:6c:fe:8a:15:f8:6b:44:
         78:e5:c7:6d:b9:e4:94:b7:ac:9c:f9:ea:23:2a:99:8b:21:76:
         c3:58:7f:1f:c2:b3:51:ff:f7:13:85:e2:35:8e:9c:2c:04:d6:
         92:4b:25:7b:f8:90:96:7a:76:2e:93:93:7c:d5:0a:44:06:d4:
         8a:55:c0:7d:4f:0c:ae:5b:ec:24:d9:bf:73:57:1a:d1:6b:a1:
         73:54:b5:4a:92:04:5f:82:3f:ad:55:9b:22:fa:c6:89:48:e3:
         27:7c:79:d5:ba:07:89:74:3c:94:55:b9:ee:4f:bb:71:53:7f:
         b0:2d:5a:fd:10:55:b0:7e:2c:4d:be:36:bc:57:6f:d9:d2:d7:
         7f:b1:6e:8d:d5:8b:1f:55:69:7e:49:24:8a:5b:54:81:9b:85:
         3a:3d:d3:5a:5d:06:77:4c:ee:2a:68:87:d2:77:24:db:a0:94:
         80:1c:62:15
-----BEGIN CERTIFICATE-----
MIIFNTCCBB2gAwIBAgIQGTNNVxmtPwksV/8Tw4UDhzANBgkqhkiG9w0BAQsFADCB
rzELMAkGA1UEBhMCVVMxEzARBgNVBAgMCkNhbGlmb3JuaWExFjAUBgNVBAcMDVNh
biBGcmFuY2lzY28xIDAeBgNVBAoMF0NvcHlsZWZ0IENlcnRpZmljYXRlIENvMR8w
HQYDVQQLDBZNeSBPcmdhbml6YXRpb25hbCBVbml0MREwDwYDVQQDDAhDaGFuZ2VN
ZTEdMBsGCSqGSIb3DQEJARYObWVAZXhhbXBsZS5uZXQwHhcNMjEwMTIzMTgyODQ5
WhcNMjIwMTIzMTgyODQ5WjCBwTELMAkGA1UEBhMCVVMxCzAJBgNVBAgMAk9IMRMw
EQYDVQQHDApDaW5jaW5uYXRpMSEwHwYDVQQKDBhVbml2ZXJzaXR5IG9mIENpbmNp
bm5hdGkxMDAuBgNVBAsMJ0RlcHQuIEVsZWN0cmljYWwgRW5nLiBhbmQgQ29tcHV0
ZXIgU2NpLjERMA8GA1UEAwwIY2xpZW50NjYxKDAmBgkqhkiG9w0BCQEWGWZyYW5j
b0BnYXVzcy5lY2Vjcy51Yy5lZHUwggEiMA0GCSqGSIb3DQEBAQUAA4IBDwAwggEK
AoIBAQDB6MYE9onR/xqYynqxG1rtdjSpiZMzkknIHBTkLBgybX8v2ZFEGOYH5fTg
SPDF2J1uGQIJfLWanT2yBY1gUVCfFiODq/hz4dJVYRJM3A4mQ3DGI0l+89vPMl2f
9g7AS5d/Y9Rc2B07TEKiQg22bR+4twhJjoVnBELBjjt3ttnN1o3To/Ddch4LK0zt
+jvIEGZngNaq0lSeDfyHcBZe9TQ/y0vdm6YGLHZZIaDiaXf00v+p79OClca7bfCD
jYKKwpevXPnDwBdRB2mr4DHYVypBDQZh//PACCUZJP8T/e3iWFo844cbd2X1Uq5c
L34wDZyfyVlNxXkaqeoX0ApmCuAHAgMBAAGjggE3MIIBMzAJBgNVHRMEAjAAMB0G
A1UdDgQWBBQ6+95X4MTD1xAV0SqGRrfEQ/A49TCB5AYDVR0jBIHcMIHZgBTv3LY9
S/2nhwXFIj2L3L+ZKu7k26GBtaSBsjCBrzELMAkGA1UEBhMCVVMxEzARBgNVBAgM
CkNhbGlmb3JuaWExFjAUBgNVBAcMDVNhbiBGcmFuY2lzY28xIDAeBgNVBAoMF0Nv
cHlsZWZ0IENlcnRpZmljYXRlIENvMR8wHQYDVQQLDBZNeSBPcmdhbml6YXRpb25h
bCBVbml0MREwDwYDVQQDDAhDaGFuZ2VNZTEdMBsGCSqGSIb3DQEJARYObWVAZXhh
bXBsZS5uZXSCCQCHHh3ca4xmiDATBgNVHSUEDDAKBggrBgEFBQcDAjALBgNVHQ8E
BAMCB4AwDQYJKoZIhvcNAQELBQADggEBABfnFgAmU7UWKeNG/MFoOQHGYGCgFzgQ
5pvPa5j6sM0r7RDGPO13qG99T09Ak86HoloepMiF/bMfp/Te1rTl3q+6uNN0w+TO
/EBS+xNnQXUUP9SAbP6KFfhrRHjlx2255JS3rJz56iMqmYshdsNYfx/Cs1H/9xOF
4jWOnCwE1pJLJXv4kJZ6di6Tk3zVCkQG1IpVwH1PDK5b7CTZv3NXGtFroXNUtUqS
BF+CP61VmyL6xolI4yd8edW6B4l0PJRVue5Pu3FTf7AtWv0QVbB+LE2+NrxXb9nS
13+xbo3Vix9VaX5JJIpbVIGbhTo901pdBndM7ipoh9J3JNuglIAcYhU=
-----END CERTIFICATE-----
