Certificate:
    Data:
        Version: 3 (0x2)
        Serial Number:
            84:91:6c:65:bb:e0:cd:a6:68:d1:59:28:5a:16:04:96
    Signature Algorithm: sha256WithRSAEncryption
        Issuer: C=US, ST=California, L=San Francisco, O=Copyleft Certificate Co, OU=My Organizational Unit, CN=ChangeMe/emailAddress=me@example.net
        Validity
            Not Before: Nov 10 17:43:38 2023 GMT
            Not After : Nov  9 17:43:38 2024 GMT
        Subject: C=US, ST=OH, L=Cincinnati, O=University of Cincinnati, OU=Dept_Elec_Com_ Eng_Com_Sci., CN=client78/emailAddress=franco@gauss.ececs.uc.edu
        Subject Public Key Info:
            Public Key Algorithm: rsaEncryption
                Public-Key: (2048 bit)
                Modulus:
                    00:b1:42:32:d1:88:1d:00:f8:33:c4:2b:bd:ee:69:
                    85:ec:49:f4:e5:4b:b6:0d:95:2e:7f:a1:2e:20:18:
                    78:c6:25:1a:f6:a5:4e:a4:4e:cb:81:80:7f:d3:f3:
                    20:a3:64:33:c5:a4:4e:25:b2:64:14:94:c3:40:83:
                    02:7b:c9:7d:26:06:e5:b8:6f:9b:14:ee:7e:b8:a2:
                    44:59:ee:75:4c:7e:62:41:03:40:19:ef:43:5b:a2:
                    83:ba:32:d2:c5:c4:81:fb:01:2e:4f:4d:bc:07:b4:
                    a1:90:39:27:e4:a9:6e:42:e6:39:e8:40:45:78:91:
                    88:13:af:f4:b9:a4:4b:9d:f1:d7:b4:3b:04:bd:b1:
                    ea:af:9d:6e:4b:ba:85:d7:89:86:a3:40:d3:d5:95:
                    e7:df:3e:21:e5:fa:3c:5e:db:c2:78:25:49:28:2d:
                    a5:2e:a5:08:68:5b:4b:b7:88:33:97:de:c6:ae:f7:
                    7f:ac:fd:54:9e:ea:a0:25:9c:58:e3:4a:9f:34:27:
                    83:4c:89:34:a2:4a:8b:ac:57:90:ab:c0:7f:05:c3:
                    a8:6e:cc:47:62:01:42:fb:32:ec:b9:4b:77:aa:c4:
                    93:c0:40:bc:6d:5b:c0:93:d8:c0:20:6c:d3:6a:91:
                    3f:b7:8e:c1:84:68:73:0a:c4:c8:d6:b6:7b:58:5f:
                    49:ff
                Exponent: 65537 (0x10001)
        X509v3 extensions:
            X509v3 Basic Constraints: 
                CA:FALSE
            X509v3 Subject Key Identifier: 
                A3:8F:D9:96:50:97:95:4F:1F:F1:4A:AE:38:35:37:39:CB:69:08:F5
            X509v3 Authority Key Identifier: 
                keyid:C8:27:DA:64:30:08:40:08:4A:25:CC:DC:43:99:DE:77:A1:FE:77:BD
                DirName:/C=US/ST=California/L=San Francisco/O=Copyleft Certificate Co/OU=My Organizational Unit/CN=ChangeMe/emailAddress=me@example.net
                serial:A9:48:C3:7E:FC:1B:B0:A1

            X509v3 Extended Key Usage: 
                TLS Web Client Authentication
            X509v3 Key Usage: 
                Digital Signature
    Signature Algorithm: sha256WithRSAEncryption
         07:75:9d:dd:86:f4:17:1e:30:45:d9:c8:2f:f9:09:82:ea:43:
         ef:36:88:1d:d4:1e:d2:5c:6c:03:44:aa:49:63:e7:b1:e3:93:
         89:66:06:65:44:e7:17:0e:37:42:0f:f8:75:c8:5f:26:88:1b:
         44:5c:5d:76:32:1b:61:f1:f1:a2:07:8e:f5:ce:80:53:c8:0e:
         4c:1e:0c:9f:76:c9:37:10:07:8f:c7:eb:b0:84:f4:c4:93:08:
         41:4a:e2:c9:f7:0c:a7:67:1b:f3:61:b4:3f:06:92:41:90:17:
         bf:b1:88:4c:ea:58:09:be:d1:08:6e:5c:6d:dc:f4:3d:85:51:
         9c:9d:62:75:97:47:38:2b:48:49:4f:b8:38:c2:88:af:4e:e5:
         5e:21:2b:eb:4c:49:15:5f:cb:65:39:64:f2:cd:af:d0:0f:47:
         c3:75:77:19:98:3b:2e:7c:b8:ed:18:0d:58:61:38:40:31:1c:
         b5:ec:93:9c:f2:d0:a1:86:48:dc:88:52:84:86:13:57:d2:70:
         08:6c:82:8a:31:be:1b:bd:d3:d3:27:4a:64:95:62:e0:a6:27:
         bd:8e:3b:00:f6:a7:6d:67:74:b3:49:79:2e:88:60:7a:9a:30:
         b5:c6:f0:c9:f0:39:0f:bb:a7:71:40:0a:fb:00:82:0c:60:4f:
         d6:b0:e2:2d
-----BEGIN CERTIFICATE-----
MIIFKjCCBBKgAwIBAgIRAISRbGW74M2maNFZKFoWBJYwDQYJKoZIhvcNAQELBQAw
ga8xCzAJBgNVBAYTAlVTMRMwEQYDVQQIDApDYWxpZm9ybmlhMRYwFAYDVQQHDA1T
YW4gRnJhbmNpc2NvMSAwHgYDVQQKDBdDb3B5bGVmdCBDZXJ0aWZpY2F0ZSBDbzEf
MB0GA1UECwwWTXkgT3JnYW5pemF0aW9uYWwgVW5pdDERMA8GA1UEAwwIQ2hhbmdl
TWUxHTAbBgkqhkiG9w0BCQEWDm1lQGV4YW1wbGUubmV0MB4XDTIzMTExMDE3NDMz
OFoXDTI0MTEwOTE3NDMzOFowgbUxCzAJBgNVBAYTAlVTMQswCQYDVQQIDAJPSDET
MBEGA1UEBwwKQ2luY2lubmF0aTEhMB8GA1UECgwYVW5pdmVyc2l0eSBvZiBDaW5j
aW5uYXRpMSQwIgYDVQQLDBtEZXB0X0VsZWNfQ29tXyBFbmdfQ29tX1NjaS4xETAP
BgNVBAMMCGNsaWVudDc4MSgwJgYJKoZIhvcNAQkBFhlmcmFuY29AZ2F1c3MuZWNl
Y3MudWMuZWR1MIIBIjANBgkqhkiG9w0BAQEFAAOCAQ8AMIIBCgKCAQEAsUIy0Ygd
APgzxCu97mmF7En05Uu2DZUuf6EuIBh4xiUa9qVOpE7LgYB/0/Mgo2QzxaROJbJk
FJTDQIMCe8l9JgbluG+bFO5+uKJEWe51TH5iQQNAGe9DW6KDujLSxcSB+wEuT028
B7ShkDkn5KluQuY56EBFeJGIE6/0uaRLnfHXtDsEvbHqr51uS7qF14mGo0DT1ZXn
3z4h5fo8XtvCeCVJKC2lLqUIaFtLt4gzl97Grvd/rP1UnuqgJZxY40qfNCeDTIk0
okqLrFeQq8B/BcOobsxHYgFC+zLsuUt3qsSTwEC8bVvAk9jAIGzTapE/t47BhGhz
CsTI1rZ7WF9J/wIDAQABo4IBNzCCATMwCQYDVR0TBAIwADAdBgNVHQ4EFgQUo4/Z
llCXlU8f8UquODU3OctpCPUwgeQGA1UdIwSB3DCB2YAUyCfaZDAIQAhKJczcQ5ne
d6H+d72hgbWkgbIwga8xCzAJBgNVBAYTAlVTMRMwEQYDVQQIDApDYWxpZm9ybmlh
MRYwFAYDVQQHDA1TYW4gRnJhbmNpc2NvMSAwHgYDVQQKDBdDb3B5bGVmdCBDZXJ0
aWZpY2F0ZSBDbzEfMB0GA1UECwwWTXkgT3JnYW5pemF0aW9uYWwgVW5pdDERMA8G
A1UEAwwIQ2hhbmdlTWUxHTAbBgkqhkiG9w0BCQEWDm1lQGV4YW1wbGUubmV0ggkA
qUjDfvwbsKEwEwYDVR0lBAwwCgYIKwYBBQUHAwIwCwYDVR0PBAQDAgeAMA0GCSqG
SIb3DQEBCwUAA4IBAQAHdZ3dhvQXHjBF2cgv+QmC6kPvNogd1B7SXGwDRKpJY+ex
45OJZgZlROcXDjdCD/h1yF8miBtEXF12Mhth8fGiB471zoBTyA5MHgyfdsk3EAeP
x+uwhPTEkwhBSuLJ9wynZxvzYbQ/BpJBkBe/sYhM6lgJvtEIblxt3PQ9hVGcnWJ1
l0c4K0hJT7g4woivTuVeISvrTEkVX8tlOWTyza/QD0fDdXcZmDsufLjtGA1YYThA
MRy17JOc8tChhkjciFKEhhNX0nAIbIKKMb4bvdPTJ0pklWLgpie9jjsA9qdtZ3Sz
SXkuiGB6mjC1xvDJ8DkPu6dxQAr7AIIMYE/WsOIt
-----END CERTIFICATE-----
