Certificate:
    Data:
        Version: 3 (0x2)
        Serial Number:
            38:2f:4a:84:29:f3:ce:e1:2c:1f:97:b2:ea:73:c8:2e
    Signature Algorithm: sha256WithRSAEncryption
        Issuer: C=US, ST=California, L=San Francisco, O=Copyleft Certificate Co, OU=My Organizational Unit, CN=ChangeMe/emailAddress=me@example.net
        Validity
            Not Before: Nov 11 10:56:08 2023 GMT
            Not After : Nov 10 10:56:08 2024 GMT
        Subject: C=US, ST=OH, L=Cincinnati, O=University of Cincinnati, OU=Dept. Elec. Comp. Eng. Comp. Sci., CN=client13/emailAddress=franco@gauss.ececs.uc.edu
        Subject Public Key Info:
            Public Key Algorithm: rsaEncryption
                Public-Key: (2048 bit)
                Modulus:
                    00:ab:ee:41:f6:be:75:e6:0b:82:b7:07:f0:bf:9f:
                    43:d0:98:f8:11:97:f9:06:a4:35:4c:71:9d:ff:88:
                    78:fb:a2:3b:73:da:ab:aa:bc:7a:64:47:e1:7d:d8:
                    0a:c8:a7:82:2b:a4:b1:ae:87:80:0c:d2:b6:6a:38:
                    7a:c5:bf:4d:93:77:73:00:81:d6:0f:33:8a:cd:4e:
                    e0:f9:90:aa:be:e0:da:e2:46:6c:07:4a:f3:98:5c:
                    56:56:32:47:59:a8:79:1d:c3:9c:46:ed:66:4c:01:
                    20:50:6d:5b:13:ba:8b:27:84:e5:a4:b1:63:4c:3b:
                    ef:d6:f5:c1:2d:b1:f6:62:b0:9b:ee:bb:c2:47:08:
                    bd:28:a9:de:57:91:8b:ce:b4:d3:20:d1:1e:21:d8:
                    35:7f:35:33:41:90:7b:36:51:fc:2a:1b:81:e3:61:
                    3f:ae:14:b2:1a:c2:9f:7b:de:12:bf:a8:cb:48:03:
                    69:5b:ac:23:09:56:65:d2:28:6e:d6:cd:e5:b4:96:
                    ef:94:ac:14:66:28:31:57:21:69:15:9b:08:9a:59:
                    8f:e0:38:58:c6:8e:6e:4f:9a:5d:dc:90:b9:e2:fd:
                    fc:6a:77:0c:cf:82:cc:23:52:54:ab:4a:12:92:c6:
                    49:e9:d2:51:83:fd:3f:5c:84:b8:27:06:89:99:c6:
                    54:b9
                Exponent: 65537 (0x10001)
        X509v3 extensions:
            X509v3 Basic Constraints: 
                CA:FALSE
            X509v3 Subject Key Identifier: 
                0E:06:BD:97:9E:78:E9:A4:A1:69:B6:4A:D1:C2:24:AE:CD:DD:77:97
            X509v3 Authority Key Identifier: 
                keyid:44:01:CC:06:0B:41:75:CB:C8:FB:C9:37:86:2D:9D:D2:D8:79:B6:8B
                DirName:/C=US/ST=California/L=San Francisco/O=Copyleft Certificate Co/OU=My Organizational Unit/CN=ChangeMe/emailAddress=me@example.net
                serial:AF:E8:E0:DD:C5:8B:0E:DD

            X509v3 Extended Key Usage: 
                TLS Web Client Authentication
            X509v3 Key Usage: 
                Digital Signature
    Signature Algorithm: sha256WithRSAEncryption
         23:19:31:b3:ad:15:b4:8e:29:21:0b:81:8d:ba:57:06:5e:8a:
         03:b4:f2:5f:f9:76:99:70:b9:97:ca:f4:71:da:ad:d5:d4:d3:
         a9:51:77:0c:2c:5c:cf:0b:73:a8:33:72:24:f3:31:a2:8d:55:
         3d:92:89:98:e1:10:03:25:23:3d:81:5b:35:3f:8a:39:49:cd:
         33:dd:2a:70:dd:a6:07:7a:6b:a7:a4:dd:9f:32:c1:32:c3:42:
         6d:75:3e:4e:c2:91:c4:e5:4b:5f:44:b0:c5:d5:53:36:05:fe:
         20:8a:2c:1d:45:fe:c2:37:52:c9:7d:48:43:1f:a5:c8:8b:ba:
         b1:b2:39:bf:43:67:30:b6:76:33:40:2c:ce:c1:d2:b5:20:b5:
         3c:5d:c4:e3:3d:08:76:4e:c0:a3:69:57:1f:5a:49:de:69:d3:
         fc:5c:20:54:d4:46:04:b9:eb:2c:c1:2b:5c:db:ff:0e:f5:06:
         39:1e:02:54:52:3a:43:d2:dc:c3:10:8b:8d:f1:3b:c0:9f:97:
         e5:42:40:e6:4d:77:12:c4:c5:3f:78:43:72:b0:3f:13:1e:28:
         1a:f8:83:91:81:d7:e4:b9:00:e3:28:b7:9b:9a:6f:7e:72:2d:
         c2:0c:fc:14:d6:b8:b9:0c:98:cf:92:96:e4:39:77:02:5c:ff:
         3b:db:1a:94
-----BEGIN CERTIFICATE-----
MIIFLzCCBBegAwIBAgIQOC9KhCnzzuEsH5ey6nPILjANBgkqhkiG9w0BAQsFADCB
rzELMAkGA1UEBhMCVVMxEzARBgNVBAgMCkNhbGlmb3JuaWExFjAUBgNVBAcMDVNh
biBGcmFuY2lzY28xIDAeBgNVBAoMF0NvcHlsZWZ0IENlcnRpZmljYXRlIENvMR8w
HQYDVQQLDBZNeSBPcmdhbml6YXRpb25hbCBVbml0MREwDwYDVQQDDAhDaGFuZ2VN
ZTEdMBsGCSqGSIb3DQEJARYObWVAZXhhbXBsZS5uZXQwHhcNMjMxMTExMTA1NjA4
WhcNMjQxMTEwMTA1NjA4WjCBuzELMAkGA1UEBhMCVVMxCzAJBgNVBAgMAk9IMRMw
EQYDVQQHDApDaW5jaW5uYXRpMSEwHwYDVQQKDBhVbml2ZXJzaXR5IG9mIENpbmNp
bm5hdGkxKjAoBgNVBAsMIURlcHQuIEVsZWMuIENvbXAuIEVuZy4gQ29tcC4gU2Np
LjERMA8GA1UEAwwIY2xpZW50MTMxKDAmBgkqhkiG9w0BCQEWGWZyYW5jb0BnYXVz
cy5lY2Vjcy51Yy5lZHUwggEiMA0GCSqGSIb3DQEBAQUAA4IBDwAwggEKAoIBAQCr
7kH2vnXmC4K3B/C/n0PQmPgRl/kGpDVMcZ3/iHj7ojtz2quqvHpkR+F92ArIp4Ir
pLGuh4AM0rZqOHrFv02Td3MAgdYPM4rNTuD5kKq+4NriRmwHSvOYXFZWMkdZqHkd
w5xG7WZMASBQbVsTuosnhOWksWNMO+/W9cEtsfZisJvuu8JHCL0oqd5XkYvOtNMg
0R4h2DV/NTNBkHs2UfwqG4HjYT+uFLIawp973hK/qMtIA2lbrCMJVmXSKG7WzeW0
lu+UrBRmKDFXIWkVmwiaWY/gOFjGjm5Pml3ckLni/fxqdwzPgswjUlSrShKSxknp
0lGD/T9chLgnBomZxlS5AgMBAAGjggE3MIIBMzAJBgNVHRMEAjAAMB0GA1UdDgQW
BBQOBr2XnnjppKFptkrRwiSuzd13lzCB5AYDVR0jBIHcMIHZgBREAcwGC0F1y8j7
yTeGLZ3S2Hm2i6GBtaSBsjCBrzELMAkGA1UEBhMCVVMxEzARBgNVBAgMCkNhbGlm
b3JuaWExFjAUBgNVBAcMDVNhbiBGcmFuY2lzY28xIDAeBgNVBAoMF0NvcHlsZWZ0
IENlcnRpZmljYXRlIENvMR8wHQYDVQQLDBZNeSBPcmdhbml6YXRpb25hbCBVbml0
MREwDwYDVQQDDAhDaGFuZ2VNZTEdMBsGCSqGSIb3DQEJARYObWVAZXhhbXBsZS5u
ZXSCCQCv6ODdxYsO3TATBgNVHSUEDDAKBggrBgEFBQcDAjALBgNVHQ8EBAMCB4Aw
DQYJKoZIhvcNAQELBQADggEBACMZMbOtFbSOKSELgY26VwZeigO08l/5dplwuZfK
9HHardXU06lRdwwsXM8Lc6gzciTzMaKNVT2SiZjhEAMlIz2BWzU/ijlJzTPdKnDd
pgd6a6ek3Z8ywTLDQm11Pk7CkcTlS19EsMXVUzYF/iCKLB1F/sI3Usl9SEMfpciL
urGyOb9DZzC2djNALM7B0rUgtTxdxOM9CHZOwKNpVx9aSd5p0/xcIFTURgS56yzB
K1zb/w71BjkeAlRSOkPS3MMQi43xO8Cfl+VCQOZNdxLExT94Q3KwPxMeKBr4g5GB
1+S5AOMot5uab35yLcIM/BTWuLkMmM+SluQ5dwJc/zvbGpQ=
-----END CERTIFICATE-----
