Certificate:
    Data:
        Version: 3 (0x2)
        Serial Number:
            04:d5:60:e5:e6:20:c1:48:e6:a4:36:ef:34:62:b4:9d
    Signature Algorithm: sha256WithRSAEncryption
        Issuer: C=US, ST=California, L=San Francisco, O=Copyleft Certificate Co, OU=My Organizational Unit, CN=ChangeMe/emailAddress=me@example.net
        Validity
            Not Before: Nov 12 11:47:03 2023 GMT
            Not After : Nov 11 11:47:03 2024 GMT
        Subject: C=US, ST=OH, L=Cincinnati, O=University of Cincinnati, OU=Dept. Elec. Comp. Eng. Comp. Sci., CN=client12/emailAddress=franco@gauss.ececs.uc.edu
        Subject Public Key Info:
            Public Key Algorithm: rsaEncryption
                Public-Key: (2048 bit)
                Modulus:
                    00:ae:f9:d5:2f:79:83:9f:7a:bc:86:86:b3:00:77:
                    c7:3f:f7:d8:d2:a9:12:6f:ac:c1:c3:94:b6:29:2e:
                    5f:05:bb:49:3f:ae:7d:2b:70:5f:c9:eb:b2:be:3d:
                    12:28:fd:1c:47:e5:e1:80:1c:e8:8f:fc:99:44:37:
                    19:f5:b3:25:fb:df:03:af:e5:0f:b4:c8:5d:3e:41:
                    4c:bf:69:1e:b4:1c:12:d5:ad:00:4f:b7:c7:0d:2a:
                    c0:e9:15:48:52:6a:51:b0:b0:09:dd:c1:de:2b:ac:
                    a2:e4:91:7f:b2:6b:95:39:9f:00:2f:5a:eb:f1:ad:
                    c7:ce:64:c7:fb:ca:ad:d3:15:84:5c:8e:cf:6a:5f:
                    ec:d4:76:69:44:82:61:2a:21:3f:2b:80:cb:ba:26:
                    84:d0:08:c6:68:08:5a:6a:5a:ec:c5:b0:fa:36:00:
                    22:70:b6:ee:ff:e2:4f:e0:1d:f6:e2:fe:b0:b3:73:
                    3e:40:5c:51:d0:47:18:95:66:83:ea:f3:5c:72:2f:
                    3b:94:90:03:5a:21:f4:3e:59:5c:a6:b4:a6:4e:8d:
                    d2:56:5c:35:64:18:9a:fd:f1:71:39:d9:8f:99:e6:
                    d4:7e:28:c6:24:7d:69:42:20:21:d0:b3:3b:a2:53:
                    13:5f:1e:37:3f:62:91:51:93:82:a8:f2:eb:33:49:
                    fc:d9
                Exponent: 65537 (0x10001)
        X509v3 extensions:
            X509v3 Basic Constraints: 
                CA:FALSE
            X509v3 Subject Key Identifier: 
                8C:10:FD:61:41:19:DC:C9:E6:6F:CC:2C:3A:87:8F:31:C9:1E:17:35
            X509v3 Authority Key Identifier: 
                keyid:C4:46:F2:96:38:56:02:B8:9D:09:04:52:25:91:35:97:6A:D7:B1:F0
                DirName:/C=US/ST=California/L=San Francisco/O=Copyleft Certificate Co/OU=My Organizational Unit/CN=ChangeMe/emailAddress=me@example.net
                serial:D1:5A:15:1C:F0:20:95:62

            X509v3 Extended Key Usage: 
                TLS Web Client Authentication
            X509v3 Key Usage: 
                Digital Signature
    Signature Algorithm: sha256WithRSAEncryption
         77:8c:0b:4c:09:18:ba:a4:d2:19:d8:0b:9e:8a:fc:ce:f3:7b:
         7c:bd:2d:52:7d:2e:11:cf:83:90:f2:cf:16:15:51:06:9b:cd:
         29:ab:70:60:81:50:ef:0f:e5:d9:75:81:25:ee:9e:17:e2:16:
         2f:07:65:39:da:b6:23:af:5c:1c:b9:49:9d:2b:34:d4:37:06:
         f3:54:87:44:70:8f:4f:b9:58:79:86:0a:86:32:5f:1c:96:a5:
         1c:4b:e6:c2:f2:e7:59:e2:1b:0e:ef:37:c8:20:fa:9f:bb:26:
         50:c2:17:4c:fd:57:93:f8:91:b4:6e:51:5c:1c:01:26:42:3b:
         2d:43:d0:4c:ac:62:a6:cd:47:f0:d9:2d:2f:5d:1c:b5:83:0a:
         5c:81:ca:97:0d:25:33:67:de:f5:c7:1a:11:4d:5f:bd:f4:bd:
         74:4c:8f:84:b3:b6:43:fb:4b:99:0f:f4:00:63:d3:ec:8f:1c:
         65:81:96:ba:34:d2:23:69:d8:b6:68:e7:e5:f2:71:86:7e:16:
         14:67:5b:c4:fd:56:11:2e:cd:ca:88:9d:f1:9a:40:bc:69:0d:
         45:f2:b2:09:f0:3b:38:8d:5b:e6:c3:0f:23:20:09:cb:88:1b:
         7b:69:8e:76:8c:7f:b1:3f:e0:42:d2:15:d2:5d:e8:e7:a3:7e:
         66:4f:a9:c5
-----BEGIN CERTIFICATE-----
MIIFLzCCBBegAwIBAgIQBNVg5eYgwUjmpDbvNGK0nTANBgkqhkiG9w0BAQsFADCB
rzELMAkGA1UEBhMCVVMxEzARBgNVBAgMCkNhbGlmb3JuaWExFjAUBgNVBAcMDVNh
biBGcmFuY2lzY28xIDAeBgNVBAoMF0NvcHlsZWZ0IENlcnRpZmljYXRlIENvMR8w
HQYDVQQLDBZNeSBPcmdhbml6YXRpb25hbCBVbml0MREwDwYDVQQDDAhDaGFuZ2VN
ZTEdMBsGCSqGSIb3DQEJARYObWVAZXhhbXBsZS5uZXQwHhcNMjMxMTEyMTE0NzAz
WhcNMjQxMTExMTE0NzAzWjCBuzELMAkGA1UEBhMCVVMxCzAJBgNVBAgMAk9IMRMw
EQYDVQQHDApDaW5jaW5uYXRpMSEwHwYDVQQKDBhVbml2ZXJzaXR5IG9mIENpbmNp
bm5hdGkxKjAoBgNVBAsMIURlcHQuIEVsZWMuIENvbXAuIEVuZy4gQ29tcC4gU2Np
LjERMA8GA1UEAwwIY2xpZW50MTIxKDAmBgkqhkiG9w0BCQEWGWZyYW5jb0BnYXVz
cy5lY2Vjcy51Yy5lZHUwggEiMA0GCSqGSIb3DQEBAQUAA4IBDwAwggEKAoIBAQCu
+dUveYOferyGhrMAd8c/99jSqRJvrMHDlLYpLl8Fu0k/rn0rcF/J67K+PRIo/RxH
5eGAHOiP/JlENxn1syX73wOv5Q+0yF0+QUy/aR60HBLVrQBPt8cNKsDpFUhSalGw
sAndwd4rrKLkkX+ya5U5nwAvWuvxrcfOZMf7yq3TFYRcjs9qX+zUdmlEgmEqIT8r
gMu6JoTQCMZoCFpqWuzFsPo2ACJwtu7/4k/gHfbi/rCzcz5AXFHQRxiVZoPq81xy
LzuUkANaIfQ+WVymtKZOjdJWXDVkGJr98XE52Y+Z5tR+KMYkfWlCICHQszuiUxNf
Hjc/YpFRk4Ko8uszSfzZAgMBAAGjggE3MIIBMzAJBgNVHRMEAjAAMB0GA1UdDgQW
BBSMEP1hQRncyeZvzCw6h48xyR4XNTCB5AYDVR0jBIHcMIHZgBTERvKWOFYCuJ0J
BFIlkTWXatex8KGBtaSBsjCBrzELMAkGA1UEBhMCVVMxEzARBgNVBAgMCkNhbGlm
b3JuaWExFjAUBgNVBAcMDVNhbiBGcmFuY2lzY28xIDAeBgNVBAoMF0NvcHlsZWZ0
IENlcnRpZmljYXRlIENvMR8wHQYDVQQLDBZNeSBPcmdhbml6YXRpb25hbCBVbml0
MREwDwYDVQQDDAhDaGFuZ2VNZTEdMBsGCSqGSIb3DQEJARYObWVAZXhhbXBsZS5u
ZXSCCQDRWhUc8CCVYjATBgNVHSUEDDAKBggrBgEFBQcDAjALBgNVHQ8EBAMCB4Aw
DQYJKoZIhvcNAQELBQADggEBAHeMC0wJGLqk0hnYC56K/M7ze3y9LVJ9LhHPg5Dy
zxYVUQabzSmrcGCBUO8P5dl1gSXunhfiFi8HZTnatiOvXBy5SZ0rNNQ3BvNUh0Rw
j0+5WHmGCoYyXxyWpRxL5sLy51niGw7vN8gg+p+7JlDCF0z9V5P4kbRuUVwcASZC
Oy1D0EysYqbNR/DZLS9dHLWDClyBypcNJTNn3vXHGhFNX730vXRMj4SztkP7S5kP
9ABj0+yPHGWBlro00iNp2LZo5+XycYZ+FhRnW8T9VhEuzcqInfGaQLxpDUXysgnw
OziNW+bDDyMgCcuIG3tpjnaMf7E/4ELSFdJd6OejfmZPqcU=
-----END CERTIFICATE-----
