Certificate:
    Data:
        Version: 3 (0x2)
        Serial Number:
            38:82:e0:3c:ec:92:b9:66:aa:8d:b8:1c:fa:78:83:25
    Signature Algorithm: sha256WithRSAEncryption
        Issuer: C=US, ST=California, L=San Francisco, O=Copyleft Certificate Co, OU=My Organizational Unit, CN=ChangeMe/emailAddress=me@example.net
        Validity
            Not Before: Nov 12 11:49:03 2023 GMT
            Not After : Nov 11 11:49:03 2024 GMT
        Subject: C=US, ST=OH, L=Cincinnati, O=University of Cincinnati, OU=Dept. Elec. Comp. Eng. Comp. Sci., CN=client42/emailAddress=franco@gauss.ececs.uc.edu
        Subject Public Key Info:
            Public Key Algorithm: rsaEncryption
                Public-Key: (2048 bit)
                Modulus:
                    00:d0:4c:96:ae:28:7b:ee:7a:a1:fe:46:b1:fe:07:
                    84:57:9d:f3:55:0b:72:c2:00:8e:5c:fd:96:86:3f:
                    3c:55:c1:4f:c6:30:ba:29:df:20:2f:2c:78:6e:68:
                    54:b9:4c:f6:98:04:99:22:13:6c:9f:57:c0:50:ea:
                    9c:96:7b:6a:9f:fb:3b:5d:21:5d:5c:3f:ed:b2:0e:
                    3c:85:e6:d8:0f:09:9d:16:82:7a:ed:fb:64:2b:f7:
                    40:6c:ba:5b:c9:39:e7:41:9c:1c:01:6f:34:8c:49:
                    1c:ae:85:6a:3f:df:a4:2a:91:21:cc:8b:03:36:88:
                    14:a3:01:cb:d8:aa:9c:9f:aa:58:e4:4e:6a:b1:91:
                    f3:93:5b:d6:9a:85:9f:36:29:1c:00:3a:60:a0:4b:
                    b6:b3:8d:e2:fe:9d:28:5e:7a:14:16:28:18:59:48:
                    9d:ef:4b:d3:b1:ce:ea:ea:13:8e:13:71:a6:1a:f9:
                    46:68:00:41:a3:e3:d7:83:a1:76:59:17:0d:6d:f6:
                    fc:da:c4:bf:37:1a:e1:37:f8:59:65:94:5c:fc:57:
                    fb:92:42:05:f9:8c:cf:b5:a6:6f:be:0a:2d:ac:c9:
                    a3:1d:79:49:68:69:e0:aa:bc:d5:1e:57:5f:1a:2c:
                    a3:24:03:a3:3b:0d:ea:3e:5b:27:12:24:3b:6a:84:
                    35:09
                Exponent: 65537 (0x10001)
        X509v3 extensions:
            X509v3 Basic Constraints: 
                CA:FALSE
            X509v3 Subject Key Identifier: 
                A9:3F:6D:2E:A1:48:0F:D8:3A:B9:D2:84:46:55:61:DB:84:8E:DC:60
            X509v3 Authority Key Identifier: 
                keyid:C4:46:F2:96:38:56:02:B8:9D:09:04:52:25:91:35:97:6A:D7:B1:F0
                DirName:/C=US/ST=California/L=San Francisco/O=Copyleft Certificate Co/OU=My Organizational Unit/CN=ChangeMe/emailAddress=me@example.net
                serial:D1:5A:15:1C:F0:20:95:62

            X509v3 Extended Key Usage: 
                TLS Web Client Authentication
            X509v3 Key Usage: 
                Digital Signature
    Signature Algorithm: sha256WithRSAEncryption
         bd:64:d4:ca:f3:cd:76:db:f0:93:1b:60:8d:09:db:d9:1d:5d:
         80:fe:30:7f:59:33:09:a1:02:5c:fd:00:ce:9e:36:b9:61:40:
         ab:2c:d9:42:18:4f:dd:50:60:13:5a:bf:d0:09:eb:96:64:3d:
         d6:82:86:9b:ad:9e:16:98:94:aa:ca:6a:0f:c2:4c:b8:39:8e:
         f7:4d:ce:7b:6c:be:02:f7:c1:ea:20:aa:80:bd:68:0f:a7:4a:
         a0:ba:da:d0:e4:58:a9:8e:f5:d5:91:90:5f:1b:6e:26:66:15:
         8e:14:52:ed:55:1a:42:6c:d7:10:6e:99:92:1b:6b:aa:d6:a7:
         77:f9:1c:59:45:fe:33:c9:58:5a:18:30:a1:9e:21:a8:ce:2c:
         33:14:af:e4:af:16:60:86:e2:4c:28:3e:15:e9:3c:dc:6c:4b:
         0a:6a:ff:24:80:30:79:e6:a2:81:43:83:a3:60:0b:ff:0f:ee:
         38:8b:e0:d9:2d:aa:2e:ae:f3:40:32:bc:0c:f0:51:d0:af:3b:
         4f:50:ef:5d:12:14:64:81:9e:46:df:cc:d1:e9:a2:a8:a5:99:
         53:4a:8b:c9:39:ac:d3:d0:3e:e0:ca:ab:cc:d9:02:b0:d9:cb:
         7e:bb:ef:3b:b2:12:38:a3:93:3e:08:10:c4:98:09:8b:64:0c:
         be:f8:30:73
-----BEGIN CERTIFICATE-----
MIIFLzCCBBegAwIBAgIQOILgPOySuWaqjbgc+niDJTANBgkqhkiG9w0BAQsFADCB
rzELMAkGA1UEBhMCVVMxEzARBgNVBAgMCkNhbGlmb3JuaWExFjAUBgNVBAcMDVNh
biBGcmFuY2lzY28xIDAeBgNVBAoMF0NvcHlsZWZ0IENlcnRpZmljYXRlIENvMR8w
HQYDVQQLDBZNeSBPcmdhbml6YXRpb25hbCBVbml0MREwDwYDVQQDDAhDaGFuZ2VN
ZTEdMBsGCSqGSIb3DQEJARYObWVAZXhhbXBsZS5uZXQwHhcNMjMxMTEyMTE0OTAz
WhcNMjQxMTExMTE0OTAzWjCBuzELMAkGA1UEBhMCVVMxCzAJBgNVBAgMAk9IMRMw
EQYDVQQHDApDaW5jaW5uYXRpMSEwHwYDVQQKDBhVbml2ZXJzaXR5IG9mIENpbmNp
bm5hdGkxKjAoBgNVBAsMIURlcHQuIEVsZWMuIENvbXAuIEVuZy4gQ29tcC4gU2Np
LjERMA8GA1UEAwwIY2xpZW50NDIxKDAmBgkqhkiG9w0BCQEWGWZyYW5jb0BnYXVz
cy5lY2Vjcy51Yy5lZHUwggEiMA0GCSqGSIb3DQEBAQUAA4IBDwAwggEKAoIBAQDQ
TJauKHvueqH+RrH+B4RXnfNVC3LCAI5c/ZaGPzxVwU/GMLop3yAvLHhuaFS5TPaY
BJkiE2yfV8BQ6pyWe2qf+ztdIV1cP+2yDjyF5tgPCZ0Wgnrt+2Qr90BsulvJOedB
nBwBbzSMSRyuhWo/36QqkSHMiwM2iBSjAcvYqpyfqljkTmqxkfOTW9aahZ82KRwA
OmCgS7azjeL+nSheehQWKBhZSJ3vS9OxzurqE44TcaYa+UZoAEGj49eDoXZZFw1t
9vzaxL83GuE3+FlllFz8V/uSQgX5jM+1pm++Ci2syaMdeUloaeCqvNUeV18aLKMk
A6M7Deo+WycSJDtqhDUJAgMBAAGjggE3MIIBMzAJBgNVHRMEAjAAMB0GA1UdDgQW
BBSpP20uoUgP2Dq50oRGVWHbhI7cYDCB5AYDVR0jBIHcMIHZgBTERvKWOFYCuJ0J
BFIlkTWXatex8KGBtaSBsjCBrzELMAkGA1UEBhMCVVMxEzARBgNVBAgMCkNhbGlm
b3JuaWExFjAUBgNVBAcMDVNhbiBGcmFuY2lzY28xIDAeBgNVBAoMF0NvcHlsZWZ0
IENlcnRpZmljYXRlIENvMR8wHQYDVQQLDBZNeSBPcmdhbml6YXRpb25hbCBVbml0
MREwDwYDVQQDDAhDaGFuZ2VNZTEdMBsGCSqGSIb3DQEJARYObWVAZXhhbXBsZS5u
ZXSCCQDRWhUc8CCVYjATBgNVHSUEDDAKBggrBgEFBQcDAjALBgNVHQ8EBAMCB4Aw
DQYJKoZIhvcNAQELBQADggEBAL1k1MrzzXbb8JMbYI0J29kdXYD+MH9ZMwmhAlz9
AM6eNrlhQKss2UIYT91QYBNav9AJ65ZkPdaChputnhaYlKrKag/CTLg5jvdNznts
vgL3weogqoC9aA+nSqC62tDkWKmO9dWRkF8bbiZmFY4UUu1VGkJs1xBumZIba6rW
p3f5HFlF/jPJWFoYMKGeIajOLDMUr+SvFmCG4kwoPhXpPNxsSwpq/ySAMHnmooFD
g6NgC/8P7jiL4Nktqi6u80AyvAzwUdCvO09Q710SFGSBnkbfzNHpoqilmVNKi8k5
rNPQPuDKq8zZArDZy3677zuyEjijkz4IEMSYCYtkDL74MHM=
-----END CERTIFICATE-----
