Certificate:
    Data:
        Version: 3 (0x2)
        Serial Number:
            95:34:43:5b:4a:c7:84:5b:c6:98:9f:a1:f7:1b:5f:f0
    Signature Algorithm: sha256WithRSAEncryption
        Issuer: C=US, ST=California, L=San Francisco, O=Copyleft Certificate Co, OU=My Organizational Unit, CN=ChangeMe/emailAddress=me@example.net
        Validity
            Not Before: Nov 11 01:43:38 2023 GMT
            Not After : Nov 10 01:43:38 2024 GMT
        Subject: C=US, ST=OH, L=Cincinnati, O=University of Cincinnati, OU=Dept. Elec. Comp. Eng. Comp. Sci., CN=client59/emailAddress=franco@gauss.ececs.uc.edu
        Subject Public Key Info:
            Public Key Algorithm: rsaEncryption
                Public-Key: (2048 bit)
                Modulus:
                    00:ac:9a:04:c8:12:2b:b5:37:d7:fa:f9:e9:33:88:
                    6c:12:50:60:d3:85:10:5c:1a:07:11:f6:7b:39:61:
                    da:86:4a:6e:f4:fc:e4:82:10:16:56:d2:c8:db:ba:
                    b9:ea:67:25:16:55:eb:33:8e:3a:2d:25:95:69:79:
                    34:98:97:22:18:1f:c1:7c:83:73:11:1e:bb:ec:71:
                    3d:a1:85:a2:96:bb:cb:3b:3e:f8:b0:77:c0:46:1a:
                    84:fe:9c:67:3d:f7:50:f1:a7:b8:22:23:fa:f2:d5:
                    97:4f:f2:70:de:11:4a:17:10:49:5a:fe:b8:62:3c:
                    9e:d8:c9:eb:3e:16:33:2b:db:f0:b7:af:b0:de:18:
                    3c:54:cd:3d:ae:1b:b8:0b:7c:5e:5d:eb:9b:2d:79:
                    42:24:5c:10:36:4b:4e:d1:fb:6a:c9:0e:78:38:09:
                    5e:fe:e9:c5:66:9b:24:ba:aa:5a:01:8c:b0:76:18:
                    b8:bd:92:ea:67:fb:ee:bb:8c:23:9c:75:82:30:49:
                    b6:ca:5b:7d:d2:0e:c6:e8:48:bb:fe:1c:d6:7d:9e:
                    0e:8d:5c:49:6e:52:81:35:ab:3a:5a:36:70:67:d5:
                    f9:ad:7b:cd:4c:1a:17:56:4a:56:d3:34:5a:6c:f7:
                    cf:d6:42:03:bf:60:50:e8:d9:f7:0b:54:d1:bb:61:
                    bf:c5
                Exponent: 65537 (0x10001)
        X509v3 extensions:
            X509v3 Basic Constraints: 
                CA:FALSE
            X509v3 Subject Key Identifier: 
                D6:80:97:6F:54:2B:B8:78:01:24:07:52:A8:75:5C:34:FE:82:25:81
            X509v3 Authority Key Identifier: 
                keyid:73:DE:A0:43:0F:AE:B1:9E:E8:59:69:18:50:A1:1A:1F:D4:A1:E3:F0
                DirName:/C=US/ST=California/L=San Francisco/O=Copyleft Certificate Co/OU=My Organizational Unit/CN=ChangeMe/emailAddress=me@example.net
                serial:E9:BB:CB:16:C5:32:BE:3B

            X509v3 Extended Key Usage: 
                TLS Web Client Authentication
            X509v3 Key Usage: 
                Digital Signature
    Signature Algorithm: sha256WithRSAEncryption
         a6:fe:00:59:7c:7e:90:1e:c6:4a:be:4e:00:a1:12:25:ae:1f:
         b2:63:9e:57:08:2e:57:7c:40:ba:ea:96:7e:e9:48:eb:1e:0f:
         79:c2:f2:18:e7:b1:fa:df:00:95:cb:12:62:ec:bf:5e:60:da:
         48:d7:83:da:16:70:69:ee:19:42:d8:a3:c1:25:ad:61:c8:55:
         ab:1c:4e:1e:1a:a0:47:64:03:88:ab:bb:ea:66:5d:13:71:0d:
         a6:13:86:ee:f6:20:c5:88:e7:5b:f5:80:be:50:01:26:60:82:
         c2:6b:4b:43:d5:4d:7a:10:6f:ac:02:44:ad:0b:62:34:38:46:
         a3:79:1f:ff:5a:20:29:84:62:d8:03:84:56:93:2d:f2:3b:3a:
         fd:32:a1:17:a5:55:4b:e4:bc:47:c4:3d:7f:46:8a:1e:a0:a4:
         57:7b:ac:31:4b:50:8f:44:b6:30:6f:bc:8a:f3:50:d7:64:64:
         b0:7c:cc:2c:24:df:df:80:d0:49:87:e9:4d:2e:55:b5:53:25:
         08:0d:66:43:6a:e2:f9:db:66:cf:a1:60:35:ef:bd:88:e5:5e:
         eb:9e:ba:7a:02:4e:92:9a:d1:16:e1:2d:33:48:e5:2c:d9:41:
         01:cb:10:94:37:b3:91:a4:48:cb:78:eb:e7:15:be:6a:cb:73:
         21:8a:87:e0
-----BEGIN CERTIFICATE-----
MIIFMDCCBBigAwIBAgIRAJU0Q1tKx4RbxpifofcbX/AwDQYJKoZIhvcNAQELBQAw
ga8xCzAJBgNVBAYTAlVTMRMwEQYDVQQIDApDYWxpZm9ybmlhMRYwFAYDVQQHDA1T
YW4gRnJhbmNpc2NvMSAwHgYDVQQKDBdDb3B5bGVmdCBDZXJ0aWZpY2F0ZSBDbzEf
MB0GA1UECwwWTXkgT3JnYW5pemF0aW9uYWwgVW5pdDERMA8GA1UEAwwIQ2hhbmdl
TWUxHTAbBgkqhkiG9w0BCQEWDm1lQGV4YW1wbGUubmV0MB4XDTIzMTExMTAxNDMz
OFoXDTI0MTExMDAxNDMzOFowgbsxCzAJBgNVBAYTAlVTMQswCQYDVQQIDAJPSDET
MBEGA1UEBwwKQ2luY2lubmF0aTEhMB8GA1UECgwYVW5pdmVyc2l0eSBvZiBDaW5j
aW5uYXRpMSowKAYDVQQLDCFEZXB0LiBFbGVjLiBDb21wLiBFbmcuIENvbXAuIFNj
aS4xETAPBgNVBAMMCGNsaWVudDU5MSgwJgYJKoZIhvcNAQkBFhlmcmFuY29AZ2F1
c3MuZWNlY3MudWMuZWR1MIIBIjANBgkqhkiG9w0BAQEFAAOCAQ8AMIIBCgKCAQEA
rJoEyBIrtTfX+vnpM4hsElBg04UQXBoHEfZ7OWHahkpu9PzkghAWVtLI27q56mcl
FlXrM446LSWVaXk0mJciGB/BfINzER677HE9oYWilrvLOz74sHfARhqE/pxnPfdQ
8ae4IiP68tWXT/Jw3hFKFxBJWv64Yjye2MnrPhYzK9vwt6+w3hg8VM09rhu4C3xe
XeubLXlCJFwQNktO0ftqyQ54OAle/unFZpskuqpaAYywdhi4vZLqZ/vuu4wjnHWC
MEm2ylt90g7G6Ei7/hzWfZ4OjVxJblKBNas6WjZwZ9X5rXvNTBoXVkpW0zRabPfP
1kIDv2BQ6Nn3C1TRu2G/xQIDAQABo4IBNzCCATMwCQYDVR0TBAIwADAdBgNVHQ4E
FgQU1oCXb1QruHgBJAdSqHVcNP6CJYEwgeQGA1UdIwSB3DCB2YAUc96gQw+usZ7o
WWkYUKEaH9Sh4/ChgbWkgbIwga8xCzAJBgNVBAYTAlVTMRMwEQYDVQQIDApDYWxp
Zm9ybmlhMRYwFAYDVQQHDA1TYW4gRnJhbmNpc2NvMSAwHgYDVQQKDBdDb3B5bGVm
dCBDZXJ0aWZpY2F0ZSBDbzEfMB0GA1UECwwWTXkgT3JnYW5pemF0aW9uYWwgVW5p
dDERMA8GA1UEAwwIQ2hhbmdlTWUxHTAbBgkqhkiG9w0BCQEWDm1lQGV4YW1wbGUu
bmV0ggkA6bvLFsUyvjswEwYDVR0lBAwwCgYIKwYBBQUHAwIwCwYDVR0PBAQDAgeA
MA0GCSqGSIb3DQEBCwUAA4IBAQCm/gBZfH6QHsZKvk4AoRIlrh+yY55XCC5XfEC6
6pZ+6UjrHg95wvIY57H63wCVyxJi7L9eYNpI14PaFnBp7hlC2KPBJa1hyFWrHE4e
GqBHZAOIq7vqZl0TcQ2mE4bu9iDFiOdb9YC+UAEmYILCa0tD1U16EG+sAkStC2I0
OEajeR//WiAphGLYA4RWky3yOzr9MqEXpVVL5LxHxD1/RooeoKRXe6wxS1CPRLYw
b7yK81DXZGSwfMwsJN/fgNBJh+lNLlW1UyUIDWZDauL522bPoWA1772I5V7rnrp6
Ak6SmtEW4S0zSOUs2UEByxCUN7ORpEjLeOvnFb5qy3Mhiofg
-----END CERTIFICATE-----
