Certificate:
    Data:
        Version: 3 (0x2)
        Serial Number:
            55:ca:52:74:e6:15:18:96:c8:5f:09:e1:30:f1:19:9d
    Signature Algorithm: sha256WithRSAEncryption
        Issuer: C=US, ST=California, L=San Francisco, O=Copyleft Certificate Co, OU=My Organizational Unit, CN=ChangeMe/emailAddress=me@example.net
        Validity
            Not Before: Nov 11 01:46:50 2023 GMT
            Not After : Nov 10 01:46:50 2024 GMT
        Subject: C=US, ST=OH, L=Cincinnati, O=University of Cincinnati, OU=Dept. Elec. Comp. Eng. Comp. Sci., CN=client107/emailAddress=franco@gauss.ececs.uc.edu
        Subject Public Key Info:
            Public Key Algorithm: rsaEncryption
                Public-Key: (2048 bit)
                Modulus:
                    00:a2:39:43:e8:00:50:32:a9:2b:ed:04:c5:f9:77:
                    e1:04:96:ee:89:ee:db:ea:6f:77:08:dd:d9:1a:1b:
                    a5:01:b9:10:3c:ad:6c:08:32:4d:c1:a4:75:d3:59:
                    30:71:02:88:7c:bb:a4:b5:c6:78:92:4b:c1:5e:5d:
                    ff:e3:24:b4:67:f8:07:8a:b3:d3:5f:08:ac:b9:74:
                    2b:82:57:4e:86:bc:83:58:5c:5c:e9:02:dd:31:f3:
                    dd:cd:2b:a2:b3:a6:e1:46:48:66:ac:88:60:12:4e:
                    af:97:37:c4:ec:82:65:9a:bf:39:f6:b0:b7:16:9a:
                    69:d0:5c:63:58:dd:7e:9e:d0:ba:e5:5e:6c:91:79:
                    59:9b:f6:fd:b9:5a:63:ae:cf:8e:30:4a:d2:04:b3:
                    2a:e5:34:71:c9:20:61:05:8e:d0:94:d5:9e:34:f1:
                    c2:86:72:98:ad:51:7a:e6:66:9b:90:10:f9:a6:38:
                    2b:78:af:68:42:e7:71:fb:7d:7c:4a:7e:79:16:3a:
                    5b:fb:95:13:fc:5a:d0:65:aa:2b:13:af:7c:94:35:
                    d4:59:96:e1:a6:49:a7:be:78:de:73:90:d4:55:2b:
                    a0:32:f7:ba:d9:40:01:af:e4:3b:0e:14:0d:98:e0:
                    85:ce:ab:6c:61:9e:97:90:9b:4f:f9:8e:6b:a6:fc:
                    17:e9
                Exponent: 65537 (0x10001)
        X509v3 extensions:
            X509v3 Basic Constraints: 
                CA:FALSE
            X509v3 Subject Key Identifier: 
                7C:79:76:2A:20:7A:92:F5:4C:4D:CB:FE:ED:B4:88:B6:EA:A1:78:57
            X509v3 Authority Key Identifier: 
                keyid:73:DE:A0:43:0F:AE:B1:9E:E8:59:69:18:50:A1:1A:1F:D4:A1:E3:F0
                DirName:/C=US/ST=California/L=San Francisco/O=Copyleft Certificate Co/OU=My Organizational Unit/CN=ChangeMe/emailAddress=me@example.net
                serial:E9:BB:CB:16:C5:32:BE:3B

            X509v3 Extended Key Usage: 
                TLS Web Client Authentication
            X509v3 Key Usage: 
                Digital Signature
    Signature Algorithm: sha256WithRSAEncryption
         4d:9e:60:0a:9e:f2:0b:ea:74:a5:97:0d:58:b7:25:74:0c:b5:
         8f:19:b9:50:de:e6:83:d9:5a:a7:81:0d:9a:a1:43:54:b4:67:
         8f:61:78:02:dd:07:0e:38:c5:06:e1:b3:2b:cc:1b:01:48:4b:
         78:d9:47:e6:1c:05:50:08:14:c2:db:9f:92:1c:f0:e2:53:07:
         96:d3:77:bb:b9:bf:a6:32:1f:73:5b:cb:1f:24:04:e9:a9:4e:
         ad:7a:cd:2e:e1:73:e4:62:e1:29:1e:c0:09:3d:3f:fe:17:8e:
         bb:70:0e:4d:e1:3d:a4:a2:4e:0f:78:a1:7f:45:12:75:cb:01:
         6e:3b:d6:df:cb:7d:ee:ca:7d:82:f1:05:80:eb:29:78:08:9e:
         4a:c2:ca:74:58:93:02:da:96:40:58:2b:ea:14:3e:0e:00:16:
         42:7c:ab:4e:be:6c:86:3b:ac:07:a2:c8:04:60:29:96:90:56:
         5b:0f:52:a0:ec:93:78:a2:3f:ff:d7:2a:53:49:91:ad:e4:44:
         60:03:73:49:86:58:20:4b:a9:4b:63:e8:3e:4e:8b:bf:f0:aa:
         92:dc:87:7e:ff:cd:1c:23:cd:15:17:d1:4c:eb:4a:15:42:70:
         49:71:e8:ac:04:f9:2b:7e:97:5b:f0:55:c0:02:5a:84:43:ae:
         40:92:37:c2
-----BEGIN CERTIFICATE-----
MIIFMDCCBBigAwIBAgIQVcpSdOYVGJbIXwnhMPEZnTANBgkqhkiG9w0BAQsFADCB
rzELMAkGA1UEBhMCVVMxEzARBgNVBAgMCkNhbGlmb3JuaWExFjAUBgNVBAcMDVNh
biBGcmFuY2lzY28xIDAeBgNVBAoMF0NvcHlsZWZ0IENlcnRpZmljYXRlIENvMR8w
HQYDVQQLDBZNeSBPcmdhbml6YXRpb25hbCBVbml0MREwDwYDVQQDDAhDaGFuZ2VN
ZTEdMBsGCSqGSIb3DQEJARYObWVAZXhhbXBsZS5uZXQwHhcNMjMxMTExMDE0NjUw
WhcNMjQxMTEwMDE0NjUwWjCBvDELMAkGA1UEBhMCVVMxCzAJBgNVBAgMAk9IMRMw
EQYDVQQHDApDaW5jaW5uYXRpMSEwHwYDVQQKDBhVbml2ZXJzaXR5IG9mIENpbmNp
bm5hdGkxKjAoBgNVBAsMIURlcHQuIEVsZWMuIENvbXAuIEVuZy4gQ29tcC4gU2Np
LjESMBAGA1UEAwwJY2xpZW50MTA3MSgwJgYJKoZIhvcNAQkBFhlmcmFuY29AZ2F1
c3MuZWNlY3MudWMuZWR1MIIBIjANBgkqhkiG9w0BAQEFAAOCAQ8AMIIBCgKCAQEA
ojlD6ABQMqkr7QTF+XfhBJbuie7b6m93CN3ZGhulAbkQPK1sCDJNwaR101kwcQKI
fLuktcZ4kkvBXl3/4yS0Z/gHirPTXwisuXQrgldOhryDWFxc6QLdMfPdzSuis6bh
RkhmrIhgEk6vlzfE7IJlmr859rC3Fppp0FxjWN1+ntC65V5skXlZm/b9uVpjrs+O
MErSBLMq5TRxySBhBY7QlNWeNPHChnKYrVF65mabkBD5pjgreK9oQudx+318Sn55
Fjpb+5UT/FrQZaorE698lDXUWZbhpkmnvnjec5DUVSugMve62UABr+Q7DhQNmOCF
zqtsYZ6XkJtP+Y5rpvwX6QIDAQABo4IBNzCCATMwCQYDVR0TBAIwADAdBgNVHQ4E
FgQUfHl2KiB6kvVMTcv+7bSItuqheFcwgeQGA1UdIwSB3DCB2YAUc96gQw+usZ7o
WWkYUKEaH9Sh4/ChgbWkgbIwga8xCzAJBgNVBAYTAlVTMRMwEQYDVQQIDApDYWxp
Zm9ybmlhMRYwFAYDVQQHDA1TYW4gRnJhbmNpc2NvMSAwHgYDVQQKDBdDb3B5bGVm
dCBDZXJ0aWZpY2F0ZSBDbzEfMB0GA1UECwwWTXkgT3JnYW5pemF0aW9uYWwgVW5p
dDERMA8GA1UEAwwIQ2hhbmdlTWUxHTAbBgkqhkiG9w0BCQEWDm1lQGV4YW1wbGUu
bmV0ggkA6bvLFsUyvjswEwYDVR0lBAwwCgYIKwYBBQUHAwIwCwYDVR0PBAQDAgeA
MA0GCSqGSIb3DQEBCwUAA4IBAQBNnmAKnvIL6nSllw1YtyV0DLWPGblQ3uaD2Vqn
gQ2aoUNUtGePYXgC3QcOOMUG4bMrzBsBSEt42UfmHAVQCBTC25+SHPDiUweW03e7
ub+mMh9zW8sfJATpqU6tes0u4XPkYuEpHsAJPT/+F467cA5N4T2kok4PeKF/RRJ1
ywFuO9bfy33uyn2C8QWA6yl4CJ5Kwsp0WJMC2pZAWCvqFD4OABZCfKtOvmyGO6wH
osgEYCmWkFZbD1Kg7JN4oj//1ypTSZGt5ERgA3NJhlggS6lLY+g+Tou/8KqS3Id+
/80cI80VF9FM60oVQnBJceisBPkrfpdb8FXAAlqEQ65AkjfC
-----END CERTIFICATE-----
