Certificate:
    Data:
        Version: 3 (0x2)
        Serial Number:
            11:53:20:83:96:d9:b1:1c:f5:c3:bf:b2:c7:7b:8f:05
    Signature Algorithm: sha256WithRSAEncryption
        Issuer: C=US, ST=California, L=San Francisco, O=Copyleft Certificate Co, OU=My Organizational Unit, CN=ChangeMe/emailAddress=me@example.net
        Validity
            Not Before: Nov 11 01:49:38 2023 GMT
            Not After : Nov 10 01:49:38 2024 GMT
        Subject: C=US, ST=OH, L=Cincinnati, O=University of Cincinnati, OU=Dept. Elec. Comp. Eng. Comp. Sci., CN=client149/emailAddress=franco@gauss.ececs.uc.edu
        Subject Public Key Info:
            Public Key Algorithm: rsaEncryption
                Public-Key: (2048 bit)
                Modulus:
                    00:b8:ba:55:47:38:ae:98:83:e6:57:4b:c9:80:b0:
                    7a:92:61:6e:1a:02:21:0b:fb:0d:07:7c:ae:de:e7:
                    16:ef:18:0f:ae:dd:e2:4b:f8:a1:a4:15:35:5d:64:
                    f3:1d:89:f5:77:d8:c0:b2:c9:75:05:9e:2f:d7:eb:
                    4d:f0:d3:c0:8e:9a:8b:d8:a5:94:e6:3b:7b:97:5a:
                    50:26:75:ae:65:1f:37:71:71:14:29:a3:8e:34:c7:
                    8a:2e:8b:52:a5:75:69:53:0a:be:ac:6e:d6:3c:47:
                    e1:9b:a3:9d:b4:42:da:13:78:6b:8d:10:50:bd:46:
                    e5:15:71:8f:3e:26:ee:38:a0:30:0a:bc:72:d5:6d:
                    1a:c1:3b:d7:f4:cc:d9:fd:10:9f:63:4f:f9:7d:8f:
                    50:69:f3:e2:dd:fd:f2:9b:b5:5f:2d:29:bb:7c:04:
                    79:26:41:6f:5c:f9:6c:60:a5:f1:3a:fc:b2:31:50:
                    4a:cc:b5:aa:65:11:33:7c:fe:61:ea:c8:08:bf:a9:
                    80:bc:ec:cd:83:62:a8:6b:93:bd:51:84:0b:f2:46:
                    cb:23:61:99:55:8c:6a:65:3d:63:b3:de:61:71:14:
                    0b:4a:8e:4f:0d:bf:f8:c1:2c:7b:89:79:84:fb:b4:
                    61:fe:c1:bd:ee:2c:f2:a5:a2:d4:ae:de:1d:85:f4:
                    f5:9d
                Exponent: 65537 (0x10001)
        X509v3 extensions:
            X509v3 Basic Constraints: 
                CA:FALSE
            X509v3 Subject Key Identifier: 
                CD:E7:BA:34:2F:61:58:2A:B5:83:BD:EA:60:64:30:62:8A:CB:FE:80
            X509v3 Authority Key Identifier: 
                keyid:73:DE:A0:43:0F:AE:B1:9E:E8:59:69:18:50:A1:1A:1F:D4:A1:E3:F0
                DirName:/C=US/ST=California/L=San Francisco/O=Copyleft Certificate Co/OU=My Organizational Unit/CN=ChangeMe/emailAddress=me@example.net
                serial:E9:BB:CB:16:C5:32:BE:3B

            X509v3 Extended Key Usage: 
                TLS Web Client Authentication
            X509v3 Key Usage: 
                Digital Signature
    Signature Algorithm: sha256WithRSAEncryption
         58:44:8a:d6:9c:80:8a:a4:6e:33:c7:0b:cb:07:7b:bb:db:87:
         8b:50:41:e3:ca:0c:c1:87:a4:5c:ef:4e:37:d1:33:ce:19:4e:
         31:03:38:4b:41:fb:75:46:7b:13:29:cf:80:1a:50:37:1f:54:
         71:3d:5f:2f:78:67:0d:76:dd:17:10:dd:7c:07:0e:a6:a6:1b:
         ed:4a:80:0c:8a:8b:5d:dd:ec:58:45:f2:63:8d:49:95:4c:65:
         97:40:51:d8:91:a2:26:2b:a6:57:aa:50:90:c4:9f:19:d6:4f:
         d7:2b:f0:f2:5b:31:2a:89:30:c7:f2:ea:77:ca:c9:83:c5:99:
         9e:84:e3:44:c2:e6:da:12:8b:63:ec:0b:68:8a:5c:8a:d4:f6:
         24:cb:72:40:e7:7b:91:99:26:c9:59:a5:32:a7:15:e0:eb:27:
         29:04:58:07:7c:94:d6:e4:c6:4b:06:37:69:82:0f:63:ae:68:
         a0:28:0f:17:f1:0a:5b:11:a8:d2:d4:b7:13:0a:b1:99:66:2c:
         99:3f:8a:e2:79:0d:5c:4f:bc:5c:99:f3:e0:54:ed:79:19:ee:
         ba:ba:4e:06:30:38:3c:34:7d:90:19:d4:fc:be:85:a4:70:1a:
         24:77:01:28:26:ef:6d:16:db:be:d5:77:25:3a:8c:04:59:15:
         4a:b7:48:72
-----BEGIN CERTIFICATE-----
MIIFMDCCBBigAwIBAgIQEVMgg5bZsRz1w7+yx3uPBTANBgkqhkiG9w0BAQsFADCB
rzELMAkGA1UEBhMCVVMxEzARBgNVBAgMCkNhbGlmb3JuaWExFjAUBgNVBAcMDVNh
biBGcmFuY2lzY28xIDAeBgNVBAoMF0NvcHlsZWZ0IENlcnRpZmljYXRlIENvMR8w
HQYDVQQLDBZNeSBPcmdhbml6YXRpb25hbCBVbml0MREwDwYDVQQDDAhDaGFuZ2VN
ZTEdMBsGCSqGSIb3DQEJARYObWVAZXhhbXBsZS5uZXQwHhcNMjMxMTExMDE0OTM4
WhcNMjQxMTEwMDE0OTM4WjCBvDELMAkGA1UEBhMCVVMxCzAJBgNVBAgMAk9IMRMw
EQYDVQQHDApDaW5jaW5uYXRpMSEwHwYDVQQKDBhVbml2ZXJzaXR5IG9mIENpbmNp
bm5hdGkxKjAoBgNVBAsMIURlcHQuIEVsZWMuIENvbXAuIEVuZy4gQ29tcC4gU2Np
LjESMBAGA1UEAwwJY2xpZW50MTQ5MSgwJgYJKoZIhvcNAQkBFhlmcmFuY29AZ2F1
c3MuZWNlY3MudWMuZWR1MIIBIjANBgkqhkiG9w0BAQEFAAOCAQ8AMIIBCgKCAQEA
uLpVRziumIPmV0vJgLB6kmFuGgIhC/sNB3yu3ucW7xgPrt3iS/ihpBU1XWTzHYn1
d9jAssl1BZ4v1+tN8NPAjpqL2KWU5jt7l1pQJnWuZR83cXEUKaOONMeKLotSpXVp
Uwq+rG7WPEfhm6OdtELaE3hrjRBQvUblFXGPPibuOKAwCrxy1W0awTvX9MzZ/RCf
Y0/5fY9QafPi3f3ym7VfLSm7fAR5JkFvXPlsYKXxOvyyMVBKzLWqZREzfP5h6sgI
v6mAvOzNg2Koa5O9UYQL8kbLI2GZVYxqZT1js95hcRQLSo5PDb/4wSx7iXmE+7Rh
/sG97izypaLUrt4dhfT1nQIDAQABo4IBNzCCATMwCQYDVR0TBAIwADAdBgNVHQ4E
FgQUzee6NC9hWCq1g73qYGQwYorL/oAwgeQGA1UdIwSB3DCB2YAUc96gQw+usZ7o
WWkYUKEaH9Sh4/ChgbWkgbIwga8xCzAJBgNVBAYTAlVTMRMwEQYDVQQIDApDYWxp
Zm9ybmlhMRYwFAYDVQQHDA1TYW4gRnJhbmNpc2NvMSAwHgYDVQQKDBdDb3B5bGVm
dCBDZXJ0aWZpY2F0ZSBDbzEfMB0GA1UECwwWTXkgT3JnYW5pemF0aW9uYWwgVW5p
dDERMA8GA1UEAwwIQ2hhbmdlTWUxHTAbBgkqhkiG9w0BCQEWDm1lQGV4YW1wbGUu
bmV0ggkA6bvLFsUyvjswEwYDVR0lBAwwCgYIKwYBBQUHAwIwCwYDVR0PBAQDAgeA
MA0GCSqGSIb3DQEBCwUAA4IBAQBYRIrWnICKpG4zxwvLB3u724eLUEHjygzBh6Rc
70430TPOGU4xAzhLQft1RnsTKc+AGlA3H1RxPV8veGcNdt0XEN18Bw6mphvtSoAM
iotd3exYRfJjjUmVTGWXQFHYkaImK6ZXqlCQxJ8Z1k/XK/DyWzEqiTDH8up3ysmD
xZmehONEwubaEotj7AtoilyK1PYky3JA53uRmSbJWaUypxXg6ycpBFgHfJTW5MZL
Bjdpgg9jrmigKA8X8QpbEajS1LcTCrGZZiyZP4rieQ1cT7xcmfPgVO15Ge66uk4G
MDg8NH2QGdT8voWkcBokdwEoJu9tFtu+1XclOowEWRVKt0hy
-----END CERTIFICATE-----
