Certificate:
    Data:
        Version: 3 (0x2)
        Serial Number:
            38:2a:8d:ad:42:0c:b0:4c:2c:3e:43:83:0d:91:f4:ac
    Signature Algorithm: sha256WithRSAEncryption
        Issuer: C=US, ST=California, L=San Francisco, O=Copyleft Certificate Co, OU=My Organizational Unit, CN=ChangeMe/emailAddress=me@example.net
        Validity
            Not Before: Nov 11 01:46:42 2023 GMT
            Not After : Nov 10 01:46:42 2024 GMT
        Subject: C=US, ST=OH, L=Cincinnati, O=University of Cincinnati, OU=Dept. Elec. Comp. Eng. Comp. Sci., CN=client105/emailAddress=franco@gauss.ececs.uc.edu
        Subject Public Key Info:
            Public Key Algorithm: rsaEncryption
                Public-Key: (2048 bit)
                Modulus:
                    00:fc:b2:0f:c3:d6:80:32:74:c9:f6:13:97:0e:3e:
                    0f:58:76:20:e7:c5:c3:f7:44:96:d0:33:83:18:3a:
                    08:18:dc:01:d5:69:9b:a1:35:db:a8:23:40:59:6d:
                    ec:26:c7:9b:77:3f:ca:94:9d:48:f5:14:29:e2:55:
                    b1:7f:f0:a3:ae:24:52:a8:79:09:18:4d:14:8a:21:
                    f2:d3:e0:47:b7:f6:60:7b:51:a1:6e:ad:32:d2:a2:
                    00:44:0f:d1:5d:04:17:5a:84:50:7e:73:6a:4d:6d:
                    9a:80:0d:3e:26:30:80:57:73:e3:28:9c:be:87:85:
                    29:58:4a:a5:8f:ae:23:4f:02:20:78:ad:22:cb:f0:
                    9c:2e:f1:3a:84:59:db:ab:f3:de:6f:14:a9:f6:6d:
                    21:ee:b3:c8:26:e8:ea:aa:53:9e:81:c5:7b:c3:c8:
                    4d:71:c8:f7:08:81:3a:56:98:c2:bc:97:b3:c5:c3:
                    02:9b:92:34:64:83:5a:b9:99:27:10:eb:c1:b0:12:
                    6d:d5:b8:81:92:93:d9:9f:5b:9d:e2:dd:16:48:9b:
                    a2:7e:c0:03:89:78:51:04:05:94:d1:14:42:42:72:
                    eb:52:5d:f1:2a:89:66:75:09:93:fc:a9:b0:f0:66:
                    28:2f:8b:ce:17:a3:3d:8f:20:67:c9:21:10:d8:7b:
                    4c:f9
                Exponent: 65537 (0x10001)
        X509v3 extensions:
            X509v3 Basic Constraints: 
                CA:FALSE
            X509v3 Subject Key Identifier: 
                39:7E:25:60:81:57:29:FE:6F:C0:7B:CE:65:81:A8:E7:E2:5D:08:02
            X509v3 Authority Key Identifier: 
                keyid:73:DE:A0:43:0F:AE:B1:9E:E8:59:69:18:50:A1:1A:1F:D4:A1:E3:F0
                DirName:/C=US/ST=California/L=San Francisco/O=Copyleft Certificate Co/OU=My Organizational Unit/CN=ChangeMe/emailAddress=me@example.net
                serial:E9:BB:CB:16:C5:32:BE:3B

            X509v3 Extended Key Usage: 
                TLS Web Client Authentication
            X509v3 Key Usage: 
                Digital Signature
    Signature Algorithm: sha256WithRSAEncryption
         7c:c7:fa:a0:7c:1f:5b:c8:92:10:23:b7:76:18:d9:a1:84:63:
         76:49:c1:56:c6:3c:77:51:6c:1b:40:c3:35:96:95:0f:3c:47:
         40:b3:9a:af:c6:4d:dc:e0:9c:63:3d:fd:cc:86:8b:af:68:a4:
         10:5a:15:d1:60:1f:fa:b1:e7:56:85:b5:6e:31:77:d5:58:7c:
         1f:ae:b1:97:34:55:bc:83:2b:27:e8:7a:be:e4:29:63:05:5b:
         d1:c8:6a:d1:b7:77:70:e3:11:37:71:47:5e:bc:b8:28:56:bd:
         c2:cf:35:fc:4c:68:b8:ca:60:72:d7:ac:3e:db:a1:ea:d8:1c:
         48:08:ab:04:38:2f:eb:49:77:55:61:ed:db:d6:b3:57:da:57:
         59:9d:94:f4:b6:32:ab:4f:69:55:66:88:77:71:f9:be:9b:13:
         53:60:f5:ed:b7:da:11:b8:3c:14:b7:a9:62:33:47:c0:03:02:
         a6:fd:cf:11:d1:3f:f1:22:b4:25:df:8c:d9:07:77:e6:5c:03:
         4c:0d:49:2c:27:0c:8c:76:f0:7d:e9:30:a7:96:e7:f1:59:19:
         db:a1:12:b8:4a:cf:1b:13:05:ab:1d:81:4e:1c:ac:77:57:fb:
         8d:ed:bc:0e:8f:9d:e0:9b:42:be:05:d1:21:c7:69:13:6f:c6:
         20:17:cd:5c
-----BEGIN CERTIFICATE-----
MIIFMDCCBBigAwIBAgIQOCqNrUIMsEwsPkODDZH0rDANBgkqhkiG9w0BAQsFADCB
rzELMAkGA1UEBhMCVVMxEzARBgNVBAgMCkNhbGlmb3JuaWExFjAUBgNVBAcMDVNh
biBGcmFuY2lzY28xIDAeBgNVBAoMF0NvcHlsZWZ0IENlcnRpZmljYXRlIENvMR8w
HQYDVQQLDBZNeSBPcmdhbml6YXRpb25hbCBVbml0MREwDwYDVQQDDAhDaGFuZ2VN
ZTEdMBsGCSqGSIb3DQEJARYObWVAZXhhbXBsZS5uZXQwHhcNMjMxMTExMDE0NjQy
WhcNMjQxMTEwMDE0NjQyWjCBvDELMAkGA1UEBhMCVVMxCzAJBgNVBAgMAk9IMRMw
EQYDVQQHDApDaW5jaW5uYXRpMSEwHwYDVQQKDBhVbml2ZXJzaXR5IG9mIENpbmNp
bm5hdGkxKjAoBgNVBAsMIURlcHQuIEVsZWMuIENvbXAuIEVuZy4gQ29tcC4gU2Np
LjESMBAGA1UEAwwJY2xpZW50MTA1MSgwJgYJKoZIhvcNAQkBFhlmcmFuY29AZ2F1
c3MuZWNlY3MudWMuZWR1MIIBIjANBgkqhkiG9w0BAQEFAAOCAQ8AMIIBCgKCAQEA
/LIPw9aAMnTJ9hOXDj4PWHYg58XD90SW0DODGDoIGNwB1WmboTXbqCNAWW3sJseb
dz/KlJ1I9RQp4lWxf/CjriRSqHkJGE0UiiHy0+BHt/Zge1Ghbq0y0qIARA/RXQQX
WoRQfnNqTW2agA0+JjCAV3PjKJy+h4UpWEqlj64jTwIgeK0iy/CcLvE6hFnbq/Pe
bxSp9m0h7rPIJujqqlOegcV7w8hNccj3CIE6VpjCvJezxcMCm5I0ZINauZknEOvB
sBJt1biBkpPZn1ud4t0WSJuifsADiXhRBAWU0RRCQnLrUl3xKolmdQmT/Kmw8GYo
L4vOF6M9jyBnySEQ2HtM+QIDAQABo4IBNzCCATMwCQYDVR0TBAIwADAdBgNVHQ4E
FgQUOX4lYIFXKf5vwHvOZYGo5+JdCAIwgeQGA1UdIwSB3DCB2YAUc96gQw+usZ7o
WWkYUKEaH9Sh4/ChgbWkgbIwga8xCzAJBgNVBAYTAlVTMRMwEQYDVQQIDApDYWxp
Zm9ybmlhMRYwFAYDVQQHDA1TYW4gRnJhbmNpc2NvMSAwHgYDVQQKDBdDb3B5bGVm
dCBDZXJ0aWZpY2F0ZSBDbzEfMB0GA1UECwwWTXkgT3JnYW5pemF0aW9uYWwgVW5p
dDERMA8GA1UEAwwIQ2hhbmdlTWUxHTAbBgkqhkiG9w0BCQEWDm1lQGV4YW1wbGUu
bmV0ggkA6bvLFsUyvjswEwYDVR0lBAwwCgYIKwYBBQUHAwIwCwYDVR0PBAQDAgeA
MA0GCSqGSIb3DQEBCwUAA4IBAQB8x/qgfB9byJIQI7d2GNmhhGN2ScFWxjx3UWwb
QMM1lpUPPEdAs5qvxk3c4JxjPf3MhouvaKQQWhXRYB/6sedWhbVuMXfVWHwfrrGX
NFW8gysn6Hq+5CljBVvRyGrRt3dw4xE3cUdevLgoVr3CzzX8TGi4ymBy16w+26Hq
2BxICKsEOC/rSXdVYe3b1rNX2ldZnZT0tjKrT2lVZoh3cfm+mxNTYPXtt9oRuDwU
t6liM0fAAwKm/c8R0T/xIrQl34zZB3fmXANMDUksJwyMdvB96TCnlufxWRnboRK4
Ss8bEwWrHYFOHKx3V/uN7bwOj53gm0K+BdEhx2kTb8YgF81c
-----END CERTIFICATE-----
