Certificate:
    Data:
        Version: 3 (0x2)
        Serial Number:
            10:8d:e0:83:bb:51:3a:e8:12:3f:de:35:72:56:c1:61
    Signature Algorithm: sha256WithRSAEncryption
        Issuer: C=US, ST=California, L=San Francisco, O=Copyleft Certificate Co, OU=My Organizational Unit, CN=ChangeMe/emailAddress=me@example.net
        Validity
            Not Before: Nov 10 17:47:30 2023 GMT
            Not After : Nov  9 17:47:30 2024 GMT
        Subject: C=US, ST=OH, L=Cincinnati, O=University of Cincinnati, OU=Dept_Elec_Com_ Eng_Com_Sci., CN=client136/emailAddress=franco@gauss.ececs.uc.edu
        Subject Public Key Info:
            Public Key Algorithm: rsaEncryption
                Public-Key: (2048 bit)
                Modulus:
                    00:d1:99:33:f5:86:56:d4:31:0a:b1:5e:04:2f:2d:
                    73:b9:42:e0:f3:82:e6:4d:33:79:04:a0:8a:c4:01:
                    2d:49:46:8d:c6:13:49:f8:b9:80:f1:89:6f:28:e5:
                    fe:e3:c3:b7:38:5e:1d:79:ab:df:d9:f4:90:51:74:
                    46:a0:f2:68:26:1e:fa:b7:f8:9e:b2:bb:a1:34:df:
                    52:dc:d7:cf:3f:32:b4:e5:0c:bd:9f:e9:d4:3a:d9:
                    63:0a:b9:be:4f:d4:81:37:00:58:59:b4:6a:70:21:
                    f1:a0:e7:15:97:25:14:13:90:ce:ac:10:70:ce:be:
                    fb:be:fe:67:29:e6:34:bc:21:33:67:92:47:57:d8:
                    7c:87:7a:3d:63:6b:4f:ca:ab:a8:b0:6a:55:6a:87:
                    7e:c4:d6:72:44:a0:21:63:f9:47:ed:20:29:58:f1:
                    0a:c7:43:ac:a0:f9:40:cd:e1:f4:83:28:54:b1:19:
                    17:53:b9:bf:fe:6e:85:fc:1e:ed:9b:1f:34:d7:f0:
                    16:4b:fe:93:79:58:31:1d:b7:ea:c8:e1:1b:a1:4b:
                    c8:d4:e6:77:f5:45:e0:62:42:ea:2a:97:f6:34:a2:
                    9d:2b:a6:29:d5:af:41:c6:ff:06:a9:0e:6b:13:e4:
                    4f:65:39:a1:11:7d:a4:a2:fb:24:53:c1:7e:9b:f3:
                    7e:57
                Exponent: 65537 (0x10001)
        X509v3 extensions:
            X509v3 Basic Constraints: 
                CA:FALSE
            X509v3 Subject Key Identifier: 
                79:5E:BC:F6:37:3D:05:4B:21:19:B6:FC:EA:34:3E:A6:3D:CC:0F:A3
            X509v3 Authority Key Identifier: 
                keyid:C8:27:DA:64:30:08:40:08:4A:25:CC:DC:43:99:DE:77:A1:FE:77:BD
                DirName:/C=US/ST=California/L=San Francisco/O=Copyleft Certificate Co/OU=My Organizational Unit/CN=ChangeMe/emailAddress=me@example.net
                serial:A9:48:C3:7E:FC:1B:B0:A1

            X509v3 Extended Key Usage: 
                TLS Web Client Authentication
            X509v3 Key Usage: 
                Digital Signature
    Signature Algorithm: sha256WithRSAEncryption
         37:07:2e:28:5f:d9:99:ba:61:da:4b:b0:8e:c7:3c:d6:b6:0a:
         bb:f3:b9:4b:82:79:ac:b9:1a:ec:ac:92:f7:40:1e:47:02:f3:
         a3:83:b7:5b:87:83:c2:9c:0a:d2:35:d6:81:21:7a:20:c3:d3:
         48:04:ca:60:c5:15:a3:a0:21:bc:b8:ee:7f:10:21:8e:c2:3c:
         3d:a6:9c:16:a1:c8:9c:4b:70:9b:4c:1c:aa:3e:52:51:73:d7:
         d9:e8:7b:98:2a:fb:44:c6:3e:fb:b1:28:90:dc:ee:7c:fa:74:
         c3:d1:db:d5:1d:7c:a7:ea:c2:a8:4a:c9:99:54:24:92:03:62:
         a4:ab:7c:48:ce:14:66:57:98:66:29:21:f8:94:7f:ce:d6:25:
         0e:75:1c:77:34:f7:3e:73:0c:87:2f:72:23:0a:b3:1c:df:ce:
         da:7f:f7:f2:c5:ce:4d:89:61:87:db:1c:36:d1:ce:7c:a6:3c:
         60:76:65:b1:6e:b9:73:b0:d9:d1:64:d5:78:11:01:0a:7e:7b:
         d8:9f:14:30:84:58:54:d7:f7:a5:78:b2:ad:cd:ad:71:c9:62:
         18:a0:80:67:62:a3:9c:7e:48:4b:b5:bd:da:4c:33:7b:35:24:
         af:47:07:65:8a:b7:90:96:33:b3:73:48:3b:bf:c5:5c:76:c1:
         85:02:2e:8c
-----BEGIN CERTIFICATE-----
MIIFKjCCBBKgAwIBAgIQEI3gg7tROugSP941clbBYTANBgkqhkiG9w0BAQsFADCB
rzELMAkGA1UEBhMCVVMxEzARBgNVBAgMCkNhbGlmb3JuaWExFjAUBgNVBAcMDVNh
biBGcmFuY2lzY28xIDAeBgNVBAoMF0NvcHlsZWZ0IENlcnRpZmljYXRlIENvMR8w
HQYDVQQLDBZNeSBPcmdhbml6YXRpb25hbCBVbml0MREwDwYDVQQDDAhDaGFuZ2VN
ZTEdMBsGCSqGSIb3DQEJARYObWVAZXhhbXBsZS5uZXQwHhcNMjMxMTEwMTc0NzMw
WhcNMjQxMTA5MTc0NzMwWjCBtjELMAkGA1UEBhMCVVMxCzAJBgNVBAgMAk9IMRMw
EQYDVQQHDApDaW5jaW5uYXRpMSEwHwYDVQQKDBhVbml2ZXJzaXR5IG9mIENpbmNp
bm5hdGkxJDAiBgNVBAsMG0RlcHRfRWxlY19Db21fIEVuZ19Db21fU2NpLjESMBAG
A1UEAwwJY2xpZW50MTM2MSgwJgYJKoZIhvcNAQkBFhlmcmFuY29AZ2F1c3MuZWNl
Y3MudWMuZWR1MIIBIjANBgkqhkiG9w0BAQEFAAOCAQ8AMIIBCgKCAQEA0Zkz9YZW
1DEKsV4ELy1zuULg84LmTTN5BKCKxAEtSUaNxhNJ+LmA8YlvKOX+48O3OF4deavf
2fSQUXRGoPJoJh76t/iesruhNN9S3NfPPzK05Qy9n+nUOtljCrm+T9SBNwBYWbRq
cCHxoOcVlyUUE5DOrBBwzr77vv5nKeY0vCEzZ5JHV9h8h3o9Y2tPyquosGpVaod+
xNZyRKAhY/lH7SApWPEKx0OsoPlAzeH0gyhUsRkXU7m//m6F/B7tmx801/AWS/6T
eVgxHbfqyOEboUvI1OZ39UXgYkLqKpf2NKKdK6Yp1a9Bxv8GqQ5rE+RPZTmhEX2k
ovskU8F+m/N+VwIDAQABo4IBNzCCATMwCQYDVR0TBAIwADAdBgNVHQ4EFgQUeV68
9jc9BUshGbb86jQ+pj3MD6MwgeQGA1UdIwSB3DCB2YAUyCfaZDAIQAhKJczcQ5ne
d6H+d72hgbWkgbIwga8xCzAJBgNVBAYTAlVTMRMwEQYDVQQIDApDYWxpZm9ybmlh
MRYwFAYDVQQHDA1TYW4gRnJhbmNpc2NvMSAwHgYDVQQKDBdDb3B5bGVmdCBDZXJ0
aWZpY2F0ZSBDbzEfMB0GA1UECwwWTXkgT3JnYW5pemF0aW9uYWwgVW5pdDERMA8G
A1UEAwwIQ2hhbmdlTWUxHTAbBgkqhkiG9w0BCQEWDm1lQGV4YW1wbGUubmV0ggkA
qUjDfvwbsKEwEwYDVR0lBAwwCgYIKwYBBQUHAwIwCwYDVR0PBAQDAgeAMA0GCSqG
SIb3DQEBCwUAA4IBAQA3By4oX9mZumHaS7COxzzWtgq787lLgnmsuRrsrJL3QB5H
AvOjg7dbh4PCnArSNdaBIXogw9NIBMpgxRWjoCG8uO5/ECGOwjw9ppwWocicS3Cb
TByqPlJRc9fZ6HuYKvtExj77sSiQ3O58+nTD0dvVHXyn6sKoSsmZVCSSA2Kkq3xI
zhRmV5hmKSH4lH/O1iUOdRx3NPc+cwyHL3IjCrMc387af/fyxc5NiWGH2xw20c58
pjxgdmWxbrlzsNnRZNV4EQEKfnvYnxQwhFhU1/eleLKtza1xyWIYoIBnYqOcfkhL
tb3aTDN7NSSvRwdlireQljOzc0g7v8VcdsGFAi6M
-----END CERTIFICATE-----
