Certificate:
    Data:
        Version: 3 (0x2)
        Serial Number:
            4e:c0:7f:b8:8a:9a:db:3a:f4:6e:c0:2f:65:39:56:0e
    Signature Algorithm: sha256WithRSAEncryption
        Issuer: C=US, ST=California, L=San Francisco, O=Copyleft Certificate Co, OU=My Organizational Unit, CN=ChangeMe/emailAddress=me@example.net
        Validity
            Not Before: Nov 12 11:46:26 2023 GMT
            Not After : Nov 11 11:46:26 2024 GMT
        Subject: C=US, ST=OH, L=Cincinnati, O=University of Cincinnati, OU=Dept. Elec. Comp. Eng. Comp. Sci., CN=client3/emailAddress=franco@gauss.ececs.uc.edu
        Subject Public Key Info:
            Public Key Algorithm: rsaEncryption
                Public-Key: (2048 bit)
                Modulus:
                    00:d4:9a:7a:aa:03:52:f9:1f:0e:45:b2:80:d6:f8:
                    8f:4a:1a:6c:2b:a7:2d:45:ac:9b:2c:94:d7:79:da:
                    ec:50:07:b2:ac:aa:d9:f1:a5:4f:10:a1:37:3f:6b:
                    0b:9c:ed:dc:0d:92:f0:db:e2:0a:43:29:f2:cd:5c:
                    75:cc:67:24:13:09:66:e8:0b:84:82:67:79:37:d4:
                    2d:6e:3e:03:20:4a:53:93:56:6d:9c:58:88:21:6c:
                    84:57:7b:b7:fc:2d:0b:66:95:70:7f:c2:56:b8:a4:
                    ab:ae:63:d4:4c:51:49:36:5d:23:31:23:48:ae:8f:
                    f3:e6:a7:a9:ff:82:f0:3c:c2:80:19:8e:30:f3:dd:
                    3a:30:00:d9:c4:2f:42:6e:aa:47:96:b4:9c:ce:89:
                    71:5f:28:8c:92:a6:e4:39:80:19:de:23:f5:92:e7:
                    1c:18:b6:b6:c1:8f:3f:a7:1e:08:de:2a:33:a2:1e:
                    63:b7:0c:f8:4b:52:23:b1:fc:56:58:90:ae:c9:92:
                    fa:f2:ac:d9:36:44:b0:9a:19:80:5d:0a:91:99:fe:
                    6e:8a:c9:ff:6b:f4:48:87:5f:e8:a8:1a:08:77:b1:
                    34:35:c2:94:76:48:8c:1b:84:bb:b9:5e:91:57:07:
                    84:0c:6e:e7:fd:bd:1c:41:75:83:58:45:a7:0a:75:
                    61:0f
                Exponent: 65537 (0x10001)
        X509v3 extensions:
            X509v3 Basic Constraints: 
                CA:FALSE
            X509v3 Subject Key Identifier: 
                F2:0E:5A:F3:54:C8:A9:81:B1:F6:7A:E1:43:EA:36:2B:F0:F9:76:90
            X509v3 Authority Key Identifier: 
                keyid:C4:46:F2:96:38:56:02:B8:9D:09:04:52:25:91:35:97:6A:D7:B1:F0
                DirName:/C=US/ST=California/L=San Francisco/O=Copyleft Certificate Co/OU=My Organizational Unit/CN=ChangeMe/emailAddress=me@example.net
                serial:D1:5A:15:1C:F0:20:95:62

            X509v3 Extended Key Usage: 
                TLS Web Client Authentication
            X509v3 Key Usage: 
                Digital Signature
    Signature Algorithm: sha256WithRSAEncryption
         b2:bc:34:60:9c:93:48:6e:ee:bf:8a:73:b0:70:69:c9:c0:3d:
         f2:6f:c7:55:4a:36:c9:5a:3d:55:7a:6e:0a:23:d2:aa:f9:d4:
         dd:f8:bb:5b:af:6a:78:3a:9f:15:75:f3:a9:22:33:66:04:58:
         56:82:2d:39:2a:fd:48:42:5e:17:11:ac:88:d6:71:25:7b:1c:
         5a:6c:ea:97:ce:3b:2b:f5:15:98:3e:21:0a:5f:9d:78:e4:5d:
         0f:1a:20:54:1d:f1:5e:82:30:3d:6b:d2:01:4b:69:a7:61:97:
         77:7e:dd:48:0d:db:d3:7a:8b:47:9c:34:02:a8:48:c5:5e:e4:
         61:03:47:68:dc:69:32:47:7e:22:de:0c:33:a5:1b:6b:7d:28:
         57:0d:77:1a:9e:ab:e0:88:81:31:54:62:21:8c:95:ce:7a:14:
         68:e2:75:e5:bb:c5:e4:cd:2d:53:c8:95:44:bf:3d:18:17:66:
         90:ff:96:a7:eb:39:b1:20:59:25:33:ad:f2:a2:62:fb:c4:f1:
         68:17:71:ad:f6:94:ae:72:45:ce:1c:4b:67:60:f3:ab:27:c9:
         2c:09:bb:54:6c:20:91:f8:b7:21:09:96:35:2a:a0:3e:11:b0:
         e6:3a:d6:75:1f:be:05:23:6e:6e:22:02:82:c0:ce:8f:2d:3b:
         26:de:d6:d7
-----BEGIN CERTIFICATE-----
MIIFLjCCBBagAwIBAgIQTsB/uIqa2zr0bsAvZTlWDjANBgkqhkiG9w0BAQsFADCB
rzELMAkGA1UEBhMCVVMxEzARBgNVBAgMCkNhbGlmb3JuaWExFjAUBgNVBAcMDVNh
biBGcmFuY2lzY28xIDAeBgNVBAoMF0NvcHlsZWZ0IENlcnRpZmljYXRlIENvMR8w
HQYDVQQLDBZNeSBPcmdhbml6YXRpb25hbCBVbml0MREwDwYDVQQDDAhDaGFuZ2VN
ZTEdMBsGCSqGSIb3DQEJARYObWVAZXhhbXBsZS5uZXQwHhcNMjMxMTEyMTE0NjI2
WhcNMjQxMTExMTE0NjI2WjCBujELMAkGA1UEBhMCVVMxCzAJBgNVBAgMAk9IMRMw
EQYDVQQHDApDaW5jaW5uYXRpMSEwHwYDVQQKDBhVbml2ZXJzaXR5IG9mIENpbmNp
bm5hdGkxKjAoBgNVBAsMIURlcHQuIEVsZWMuIENvbXAuIEVuZy4gQ29tcC4gU2Np
LjEQMA4GA1UEAwwHY2xpZW50MzEoMCYGCSqGSIb3DQEJARYZZnJhbmNvQGdhdXNz
LmVjZWNzLnVjLmVkdTCCASIwDQYJKoZIhvcNAQEBBQADggEPADCCAQoCggEBANSa
eqoDUvkfDkWygNb4j0oabCunLUWsmyyU13na7FAHsqyq2fGlTxChNz9rC5zt3A2S
8NviCkMp8s1cdcxnJBMJZugLhIJneTfULW4+AyBKU5NWbZxYiCFshFd7t/wtC2aV
cH/CVrikq65j1ExRSTZdIzEjSK6P8+anqf+C8DzCgBmOMPPdOjAA2cQvQm6qR5a0
nM6JcV8ojJKm5DmAGd4j9ZLnHBi2tsGPP6ceCN4qM6IeY7cM+EtSI7H8VliQrsmS
+vKs2TZEsJoZgF0KkZn+borJ/2v0SIdf6KgaCHexNDXClHZIjBuEu7lekVcHhAxu
5/29HEF1g1hFpwp1YQ8CAwEAAaOCATcwggEzMAkGA1UdEwQCMAAwHQYDVR0OBBYE
FPIOWvNUyKmBsfZ64UPqNivw+XaQMIHkBgNVHSMEgdwwgdmAFMRG8pY4VgK4nQkE
UiWRNZdq17HwoYG1pIGyMIGvMQswCQYDVQQGEwJVUzETMBEGA1UECAwKQ2FsaWZv
cm5pYTEWMBQGA1UEBwwNU2FuIEZyYW5jaXNjbzEgMB4GA1UECgwXQ29weWxlZnQg
Q2VydGlmaWNhdGUgQ28xHzAdBgNVBAsMFk15IE9yZ2FuaXphdGlvbmFsIFVuaXQx
ETAPBgNVBAMMCENoYW5nZU1lMR0wGwYJKoZIhvcNAQkBFg5tZUBleGFtcGxlLm5l
dIIJANFaFRzwIJViMBMGA1UdJQQMMAoGCCsGAQUFBwMCMAsGA1UdDwQEAwIHgDAN
BgkqhkiG9w0BAQsFAAOCAQEAsrw0YJyTSG7uv4pzsHBpycA98m/HVUo2yVo9VXpu
CiPSqvnU3fi7W69qeDqfFXXzqSIzZgRYVoItOSr9SEJeFxGsiNZxJXscWmzql847
K/UVmD4hCl+deORdDxogVB3xXoIwPWvSAUtpp2GXd37dSA3b03qLR5w0AqhIxV7k
YQNHaNxpMkd+It4MM6Uba30oVw13Gp6r4IiBMVRiIYyVznoUaOJ15bvF5M0tU8iV
RL89GBdmkP+Wp+s5sSBZJTOt8qJi+8TxaBdxrfaUrnJFzhxLZ2DzqyfJLAm7VGwg
kfi3IQmWNSqgPhGw5jrWdR++BSNubiICgsDOjy07Jt7W1w==
-----END CERTIFICATE-----
