Certificate:
    Data:
        Version: 3 (0x2)
        Serial Number:
            20:bc:94:53:4f:50:2f:f2:dd:ae:40:ff:e0:f3:cf:a5
    Signature Algorithm: sha256WithRSAEncryption
        Issuer: C=US, ST=California, L=San Francisco, O=Copyleft Certificate Co, OU=My Organizational Unit, CN=ChangeMe/emailAddress=me@example.net
        Validity
            Not Before: Nov 11 01:46:18 2023 GMT
            Not After : Nov 10 01:46:18 2024 GMT
        Subject: C=US, ST=OH, L=Cincinnati, O=University of Cincinnati, OU=Dept. Elec. Comp. Eng. Comp. Sci., CN=client99/emailAddress=franco@gauss.ececs.uc.edu
        Subject Public Key Info:
            Public Key Algorithm: rsaEncryption
                Public-Key: (2048 bit)
                Modulus:
                    00:ce:11:c1:15:d6:f2:c0:da:44:15:33:63:7e:3b:
                    34:3a:6b:00:a5:23:58:00:b9:e9:59:b1:8a:cf:f7:
                    20:d7:fa:16:a8:81:49:7c:ce:ad:1f:f6:2e:87:a7:
                    b2:79:37:97:59:b5:d8:a7:0c:9a:48:10:f4:69:fd:
                    ac:17:19:96:ff:a8:38:b0:9e:fb:0c:1b:66:c9:6b:
                    1d:8f:f9:d9:43:23:f3:ee:67:ea:15:c7:2c:22:aa:
                    78:f2:78:50:e6:34:2e:0f:e7:b3:4f:41:fb:85:6f:
                    3f:3b:cd:46:8a:0f:7d:a2:74:57:00:ca:d7:1e:0c:
                    af:a0:bc:ef:9e:06:6c:d1:be:94:b4:5d:62:12:88:
                    fb:0f:8e:4f:e1:b4:08:30:43:2a:20:e2:ec:e1:6b:
                    72:7f:16:66:ad:fd:0b:a4:c5:b9:2e:12:7b:41:59:
                    12:d3:26:68:de:80:e2:37:b8:64:de:27:86:08:ad:
                    6f:0f:98:2f:bb:70:da:cc:5e:d6:40:76:8d:dd:fd:
                    97:d8:be:9b:c2:2b:4b:37:cf:6b:62:01:b7:0e:48:
                    91:0c:cd:e8:d7:96:1f:7a:4e:cb:46:1d:79:03:3b:
                    07:72:42:f7:6d:26:cc:6c:05:13:f6:a5:cc:3a:68:
                    5b:bd:3d:59:f2:78:89:57:2c:73:04:13:ae:e6:82:
                    c7:85
                Exponent: 65537 (0x10001)
        X509v3 extensions:
            X509v3 Basic Constraints: 
                CA:FALSE
            X509v3 Subject Key Identifier: 
                AB:AA:1A:33:8E:B6:BD:F5:7C:C1:05:A6:1C:0A:D8:2F:68:F5:A2:F8
            X509v3 Authority Key Identifier: 
                keyid:73:DE:A0:43:0F:AE:B1:9E:E8:59:69:18:50:A1:1A:1F:D4:A1:E3:F0
                DirName:/C=US/ST=California/L=San Francisco/O=Copyleft Certificate Co/OU=My Organizational Unit/CN=ChangeMe/emailAddress=me@example.net
                serial:E9:BB:CB:16:C5:32:BE:3B

            X509v3 Extended Key Usage: 
                TLS Web Client Authentication
            X509v3 Key Usage: 
                Digital Signature
    Signature Algorithm: sha256WithRSAEncryption
         79:c9:9f:3b:cf:85:ed:96:d4:49:47:86:93:c4:59:62:ed:d1:
         ee:30:42:48:04:43:6c:4e:91:e0:22:58:4b:3f:9a:46:78:7a:
         49:78:99:37:ef:9f:f8:48:75:f1:11:bf:0f:19:59:d5:cd:f8:
         ea:82:b8:9b:62:ae:65:4a:55:b3:df:80:05:06:ae:f8:ff:d6:
         a8:f3:ef:05:13:b0:80:6e:92:0d:4c:95:5e:5c:63:b0:bd:2b:
         e5:fd:81:da:fb:11:8e:3c:2f:1f:3a:a4:55:0a:a1:77:2c:7d:
         0d:fe:06:38:3c:b5:d8:54:5d:7f:f0:01:66:9d:1e:f2:3e:07:
         d5:0f:6c:58:77:b3:95:f6:19:8e:2d:16:f4:91:a6:41:8e:ac:
         b4:ac:8a:ff:38:bc:ec:c8:61:6d:29:0d:ce:dd:6a:fc:15:a7:
         e8:c6:5a:0e:38:90:fd:98:7e:ea:8e:33:f1:6e:11:45:28:5b:
         a9:51:42:ee:f8:97:f4:68:e4:39:a8:90:b1:33:d2:91:3b:4d:
         1f:8b:51:3e:b8:5e:9b:ac:27:3d:24:43:91:c4:f3:82:55:ff:
         15:09:1b:ef:07:0b:d0:ff:90:aa:2c:2b:1f:32:6f:fe:6c:ce:
         f8:c8:2e:b5:ad:34:2a:1b:c7:80:50:12:c9:ef:f3:2a:b0:13:
         93:27:b9:2e
-----BEGIN CERTIFICATE-----
MIIFLzCCBBegAwIBAgIQILyUU09QL/LdrkD/4PPPpTANBgkqhkiG9w0BAQsFADCB
rzELMAkGA1UEBhMCVVMxEzARBgNVBAgMCkNhbGlmb3JuaWExFjAUBgNVBAcMDVNh
biBGcmFuY2lzY28xIDAeBgNVBAoMF0NvcHlsZWZ0IENlcnRpZmljYXRlIENvMR8w
HQYDVQQLDBZNeSBPcmdhbml6YXRpb25hbCBVbml0MREwDwYDVQQDDAhDaGFuZ2VN
ZTEdMBsGCSqGSIb3DQEJARYObWVAZXhhbXBsZS5uZXQwHhcNMjMxMTExMDE0NjE4
WhcNMjQxMTEwMDE0NjE4WjCBuzELMAkGA1UEBhMCVVMxCzAJBgNVBAgMAk9IMRMw
EQYDVQQHDApDaW5jaW5uYXRpMSEwHwYDVQQKDBhVbml2ZXJzaXR5IG9mIENpbmNp
bm5hdGkxKjAoBgNVBAsMIURlcHQuIEVsZWMuIENvbXAuIEVuZy4gQ29tcC4gU2Np
LjERMA8GA1UEAwwIY2xpZW50OTkxKDAmBgkqhkiG9w0BCQEWGWZyYW5jb0BnYXVz
cy5lY2Vjcy51Yy5lZHUwggEiMA0GCSqGSIb3DQEBAQUAA4IBDwAwggEKAoIBAQDO
EcEV1vLA2kQVM2N+OzQ6awClI1gAuelZsYrP9yDX+haogUl8zq0f9i6Hp7J5N5dZ
tdinDJpIEPRp/awXGZb/qDiwnvsMG2bJax2P+dlDI/PuZ+oVxywiqnjyeFDmNC4P
57NPQfuFbz87zUaKD32idFcAytceDK+gvO+eBmzRvpS0XWISiPsPjk/htAgwQyog
4uzha3J/Fmat/QukxbkuEntBWRLTJmjegOI3uGTeJ4YIrW8PmC+7cNrMXtZAdo3d
/ZfYvpvCK0s3z2tiAbcOSJEMzejXlh96TstGHXkDOwdyQvdtJsxsBRP2pcw6aFu9
PVnyeIlXLHMEE67mgseFAgMBAAGjggE3MIIBMzAJBgNVHRMEAjAAMB0GA1UdDgQW
BBSrqhozjra99XzBBaYcCtgvaPWi+DCB5AYDVR0jBIHcMIHZgBRz3qBDD66xnuhZ
aRhQoRof1KHj8KGBtaSBsjCBrzELMAkGA1UEBhMCVVMxEzARBgNVBAgMCkNhbGlm
b3JuaWExFjAUBgNVBAcMDVNhbiBGcmFuY2lzY28xIDAeBgNVBAoMF0NvcHlsZWZ0
IENlcnRpZmljYXRlIENvMR8wHQYDVQQLDBZNeSBPcmdhbml6YXRpb25hbCBVbml0
MREwDwYDVQQDDAhDaGFuZ2VNZTEdMBsGCSqGSIb3DQEJARYObWVAZXhhbXBsZS5u
ZXSCCQDpu8sWxTK+OzATBgNVHSUEDDAKBggrBgEFBQcDAjALBgNVHQ8EBAMCB4Aw
DQYJKoZIhvcNAQELBQADggEBAHnJnzvPhe2W1ElHhpPEWWLt0e4wQkgEQ2xOkeAi
WEs/mkZ4ekl4mTfvn/hIdfERvw8ZWdXN+OqCuJtirmVKVbPfgAUGrvj/1qjz7wUT
sIBukg1MlV5cY7C9K+X9gdr7EY48Lx86pFUKoXcsfQ3+Bjg8tdhUXX/wAWadHvI+
B9UPbFh3s5X2GY4tFvSRpkGOrLSsiv84vOzIYW0pDc7davwVp+jGWg44kP2YfuqO
M/FuEUUoW6lRQu74l/Ro5DmokLEz0pE7TR+LUT64XpusJz0kQ5HE84JV/xUJG+8H
C9D/kKosKx8yb/5szvjILrWtNCobx4BQEsnv8yqwE5MnuS4=
-----END CERTIFICATE-----
