Certificate:
    Data:
        Version: 3 (0x2)
        Serial Number:
            36:61:4f:00:b3:8e:5b:bd:b1:d6:30:0a:b7:2f:5b:eb
    Signature Algorithm: sha256WithRSAEncryption
        Issuer: C=US, ST=California, L=San Francisco, O=Copyleft Certificate Co, OU=My Organizational Unit, CN=ChangeMe/emailAddress=me@example.net
        Validity
            Not Before: Nov 11 01:49:22 2023 GMT
            Not After : Nov 10 01:49:22 2024 GMT
        Subject: C=US, ST=OH, L=Cincinnati, O=University of Cincinnati, OU=Dept. Elec. Comp. Eng. Comp. Sci., CN=client145/emailAddress=franco@gauss.ececs.uc.edu
        Subject Public Key Info:
            Public Key Algorithm: rsaEncryption
                Public-Key: (2048 bit)
                Modulus:
                    00:ba:54:b9:7a:cf:5f:50:13:03:4c:a6:14:58:34:
                    c9:75:30:63:a3:fd:71:69:a0:60:91:b8:e6:d1:ce:
                    34:aa:66:85:2e:2e:02:24:a5:b5:86:49:c3:87:fe:
                    60:22:91:32:41:ae:0d:71:08:c7:11:29:c1:fc:41:
                    09:fd:51:2c:65:91:90:f4:4a:9b:ec:e6:3c:d8:fe:
                    e8:8a:5d:b2:27:ee:ad:bc:36:36:39:21:56:d1:95:
                    f6:61:8d:54:f4:c0:a8:0a:92:66:e7:1f:5f:59:03:
                    75:68:ff:94:c1:d8:1b:11:31:56:b0:74:7f:49:10:
                    13:c4:16:5b:27:37:e9:22:32:9d:71:03:aa:b0:8d:
                    50:3b:ba:f5:26:3b:e9:7a:cf:42:22:d9:fe:2e:9a:
                    12:81:ed:94:6f:dd:a2:e8:4e:40:4a:80:cd:af:b7:
                    7b:e3:3c:54:ec:86:65:59:4e:72:eb:a0:2f:87:ba:
                    de:cf:16:dc:d9:83:a8:74:19:5d:ba:92:94:be:74:
                    03:4f:eb:46:33:f9:2a:de:07:c0:56:4e:cd:ce:a6:
                    af:ab:4d:34:0d:a5:05:c8:ba:cc:3b:77:50:2c:8e:
                    44:56:38:50:0b:65:f3:2e:c6:ee:d7:c5:94:9c:ef:
                    3f:f8:7f:31:fe:7c:83:2e:27:9f:b4:9d:5d:3c:3e:
                    4f:d5
                Exponent: 65537 (0x10001)
        X509v3 extensions:
            X509v3 Basic Constraints: 
                CA:FALSE
            X509v3 Subject Key Identifier: 
                09:3B:06:02:9E:DF:2E:25:1B:50:2E:37:9D:44:D7:37:3D:72:FE:A6
            X509v3 Authority Key Identifier: 
                keyid:73:DE:A0:43:0F:AE:B1:9E:E8:59:69:18:50:A1:1A:1F:D4:A1:E3:F0
                DirName:/C=US/ST=California/L=San Francisco/O=Copyleft Certificate Co/OU=My Organizational Unit/CN=ChangeMe/emailAddress=me@example.net
                serial:E9:BB:CB:16:C5:32:BE:3B

            X509v3 Extended Key Usage: 
                TLS Web Client Authentication
            X509v3 Key Usage: 
                Digital Signature
    Signature Algorithm: sha256WithRSAEncryption
         0c:94:c0:20:eb:b2:f3:86:c5:c0:f5:a8:00:bd:71:3c:34:3a:
         99:4c:9e:05:59:98:39:05:3e:a0:39:4a:81:29:42:95:ba:b3:
         6a:8b:0a:ec:c5:c8:6b:02:a3:61:af:b7:72:14:f9:db:ff:a1:
         fb:76:23:ca:1b:29:2b:e4:30:0d:6e:85:90:d7:ee:3a:08:d8:
         fc:5d:b0:4a:44:54:b8:5e:70:77:7a:95:28:77:5a:b8:b3:21:
         c7:f9:9a:a5:95:a4:5b:86:b4:6e:1d:a8:b4:45:07:65:cd:1f:
         2a:0a:d5:9a:ed:9b:8a:69:36:57:f4:55:79:80:cd:19:86:63:
         bf:72:ba:9b:01:eb:6f:b4:db:a9:1e:43:c6:8e:bd:ef:de:a9:
         1d:af:e6:95:fc:bf:fb:ff:27:36:2a:db:f1:b7:d2:7c:1a:87:
         57:d2:53:fa:86:e9:6b:ff:ad:fc:e9:4b:e4:e2:38:5a:bb:0e:
         86:8d:08:a6:90:f5:9e:cf:65:44:93:77:98:f1:11:c4:fc:5e:
         aa:87:25:42:cf:90:16:b1:3c:36:ac:f8:6e:e6:cd:5c:ab:55:
         83:1e:dd:50:32:c6:39:79:cf:04:ca:64:dd:3c:c2:ac:72:67:
         b2:fa:a2:27:22:b3:ea:b1:ce:c4:e2:e8:7e:ad:71:d8:ae:ac:
         a0:09:af:79
-----BEGIN CERTIFICATE-----
MIIFMDCCBBigAwIBAgIQNmFPALOOW72x1jAKty9b6zANBgkqhkiG9w0BAQsFADCB
rzELMAkGA1UEBhMCVVMxEzARBgNVBAgMCkNhbGlmb3JuaWExFjAUBgNVBAcMDVNh
biBGcmFuY2lzY28xIDAeBgNVBAoMF0NvcHlsZWZ0IENlcnRpZmljYXRlIENvMR8w
HQYDVQQLDBZNeSBPcmdhbml6YXRpb25hbCBVbml0MREwDwYDVQQDDAhDaGFuZ2VN
ZTEdMBsGCSqGSIb3DQEJARYObWVAZXhhbXBsZS5uZXQwHhcNMjMxMTExMDE0OTIy
WhcNMjQxMTEwMDE0OTIyWjCBvDELMAkGA1UEBhMCVVMxCzAJBgNVBAgMAk9IMRMw
EQYDVQQHDApDaW5jaW5uYXRpMSEwHwYDVQQKDBhVbml2ZXJzaXR5IG9mIENpbmNp
bm5hdGkxKjAoBgNVBAsMIURlcHQuIEVsZWMuIENvbXAuIEVuZy4gQ29tcC4gU2Np
LjESMBAGA1UEAwwJY2xpZW50MTQ1MSgwJgYJKoZIhvcNAQkBFhlmcmFuY29AZ2F1
c3MuZWNlY3MudWMuZWR1MIIBIjANBgkqhkiG9w0BAQEFAAOCAQ8AMIIBCgKCAQEA
ulS5es9fUBMDTKYUWDTJdTBjo/1xaaBgkbjm0c40qmaFLi4CJKW1hknDh/5gIpEy
Qa4NcQjHESnB/EEJ/VEsZZGQ9Eqb7OY82P7oil2yJ+6tvDY2OSFW0ZX2YY1U9MCo
CpJm5x9fWQN1aP+UwdgbETFWsHR/SRATxBZbJzfpIjKdcQOqsI1QO7r1Jjvpes9C
Itn+LpoSge2Ub92i6E5ASoDNr7d74zxU7IZlWU5y66Avh7rezxbc2YOodBldupKU
vnQDT+tGM/kq3gfAVk7Nzqavq000DaUFyLrMO3dQLI5EVjhQC2XzLsbu18WUnO8/
+H8x/nyDLieftJ1dPD5P1QIDAQABo4IBNzCCATMwCQYDVR0TBAIwADAdBgNVHQ4E
FgQUCTsGAp7fLiUbUC43nUTXNz1y/qYwgeQGA1UdIwSB3DCB2YAUc96gQw+usZ7o
WWkYUKEaH9Sh4/ChgbWkgbIwga8xCzAJBgNVBAYTAlVTMRMwEQYDVQQIDApDYWxp
Zm9ybmlhMRYwFAYDVQQHDA1TYW4gRnJhbmNpc2NvMSAwHgYDVQQKDBdDb3B5bGVm
dCBDZXJ0aWZpY2F0ZSBDbzEfMB0GA1UECwwWTXkgT3JnYW5pemF0aW9uYWwgVW5p
dDERMA8GA1UEAwwIQ2hhbmdlTWUxHTAbBgkqhkiG9w0BCQEWDm1lQGV4YW1wbGUu
bmV0ggkA6bvLFsUyvjswEwYDVR0lBAwwCgYIKwYBBQUHAwIwCwYDVR0PBAQDAgeA
MA0GCSqGSIb3DQEBCwUAA4IBAQAMlMAg67LzhsXA9agAvXE8NDqZTJ4FWZg5BT6g
OUqBKUKVurNqiwrsxchrAqNhr7dyFPnb/6H7diPKGykr5DANboWQ1+46CNj8XbBK
RFS4XnB3epUod1q4syHH+ZqllaRbhrRuHai0RQdlzR8qCtWa7ZuKaTZX9FV5gM0Z
hmO/crqbAetvtNupHkPGjr3v3qkdr+aV/L/7/yc2Ktvxt9J8GodX0lP6hulr/638
6Uvk4jhauw6GjQimkPWez2VEk3eY8RHE/F6qhyVCz5AWsTw2rPhu5s1cq1WDHt1Q
MsY5ec8EymTdPMKscmey+qInIrPqsc7E4uh+rXHYrqygCa95
-----END CERTIFICATE-----
