Certificate:
    Data:
        Version: 3 (0x2)
        Serial Number:
            70:06:5c:14:d7:76:c1:81:ab:b4:9f:07:5d:20:c7:02
    Signature Algorithm: sha256WithRSAEncryption
        Issuer: C=US, ST=California, L=San Francisco, O=Copyleft Certificate Co, OU=My Organizational Unit, CN=ChangeMe/emailAddress=me@example.net
        Validity
            Not Before: Nov 11 10:55:28 2023 GMT
            Not After : Nov 10 10:55:28 2024 GMT
        Subject: C=US, ST=OH, L=Cincinnati, O=University of Cincinnati, OU=Dept. Elec. Comp. Eng. Comp. Sci., CN=client3/emailAddress=franco@gauss.ececs.uc.edu
        Subject Public Key Info:
            Public Key Algorithm: rsaEncryption
                Public-Key: (2048 bit)
                Modulus:
                    00:ac:cb:50:11:d6:68:ea:f4:91:05:84:ed:20:cf:
                    ae:63:49:eb:a1:aa:6d:6f:48:ec:c4:19:ce:88:a1:
                    01:ac:1a:6f:fd:b9:6e:13:b3:fd:cd:53:01:17:71:
                    ec:f5:23:cb:8b:18:fa:2a:cb:e0:88:8c:85:7e:8a:
                    a6:9f:e4:02:52:66:49:87:1f:8b:a5:64:aa:94:7b:
                    7d:27:fa:12:0e:c1:d6:63:29:05:b0:85:b6:ad:73:
                    d7:d8:0d:53:db:ca:4c:52:ac:7a:07:56:a7:1b:2d:
                    4c:a9:8e:0b:e1:28:4b:3c:6e:15:9b:fa:1e:57:86:
                    4b:20:28:0b:05:fe:45:10:4e:9d:01:6f:77:c1:89:
                    e3:50:85:f8:c5:43:9b:49:42:31:33:fb:24:cb:a4:
                    6a:3f:b5:11:e5:74:00:e4:a1:f5:12:b8:4c:74:5e:
                    e2:17:ae:c6:b6:86:35:e0:ef:fb:fa:69:ad:51:fa:
                    d0:b8:91:ba:e0:0b:99:69:52:f3:69:41:90:dc:bd:
                    ad:b1:35:a3:e7:39:fe:30:38:95:20:46:b3:03:c4:
                    5d:42:53:1c:08:17:9f:3c:ce:e0:6f:cb:51:95:41:
                    8c:42:1d:c2:c2:f7:bd:d3:04:12:d6:02:37:fd:7d:
                    11:76:32:cd:5f:5d:4a:34:ed:21:d6:9f:1f:15:d1:
                    1c:7d
                Exponent: 65537 (0x10001)
        X509v3 extensions:
            X509v3 Basic Constraints: 
                CA:FALSE
            X509v3 Subject Key Identifier: 
                39:5B:9D:43:5C:8C:04:C0:F5:F2:6A:9A:C8:90:92:B5:59:F7:9A:A8
            X509v3 Authority Key Identifier: 
                keyid:44:01:CC:06:0B:41:75:CB:C8:FB:C9:37:86:2D:9D:D2:D8:79:B6:8B
                DirName:/C=US/ST=California/L=San Francisco/O=Copyleft Certificate Co/OU=My Organizational Unit/CN=ChangeMe/emailAddress=me@example.net
                serial:AF:E8:E0:DD:C5:8B:0E:DD

            X509v3 Extended Key Usage: 
                TLS Web Client Authentication
            X509v3 Key Usage: 
                Digital Signature
    Signature Algorithm: sha256WithRSAEncryption
         44:c5:a8:aa:4c:f5:45:ac:2b:5e:b8:f5:ca:01:7b:2a:e7:c9:
         a6:1e:7b:5a:3d:97:57:d0:99:e8:9f:c1:8d:77:80:9a:a1:9d:
         13:e3:9a:56:f0:39:23:7a:c3:7f:83:42:6e:82:4a:df:79:d9:
         be:5f:33:a2:f5:1a:43:dd:de:08:d1:1e:85:2c:44:81:d6:7c:
         73:0e:23:dd:87:de:fc:54:fa:a0:c9:c2:b9:4c:c6:0f:6e:33:
         1b:0d:93:b9:46:d5:e5:92:2e:43:64:ff:cf:75:c7:2d:d0:26:
         6a:33:55:6c:89:bc:e4:3b:37:6c:a4:f6:5c:d9:ae:cc:03:1c:
         41:25:9f:27:81:24:23:3f:c6:70:b3:67:44:e0:9e:80:ee:d9:
         e9:27:9e:5b:82:dc:75:ea:72:46:a7:89:38:01:3b:d1:f6:e0:
         ca:42:41:2f:dc:99:e8:92:7b:1d:4c:c4:c3:55:07:8a:7f:b1:
         63:78:78:12:9f:b7:46:ba:74:64:86:1d:4e:a0:3b:4b:ae:87:
         83:b7:b3:a8:2a:13:43:9c:62:4d:84:a8:8e:9e:ba:ca:f7:7f:
         08:96:2d:c3:cc:c3:c1:f8:b9:c7:69:27:a3:49:bd:4e:9e:7a:
         59:19:21:21:4c:d6:a5:2a:6b:71:06:98:23:90:84:26:52:8d:
         6d:9b:9a:cf
-----BEGIN CERTIFICATE-----
MIIFLjCCBBagAwIBAgIQcAZcFNd2wYGrtJ8HXSDHAjANBgkqhkiG9w0BAQsFADCB
rzELMAkGA1UEBhMCVVMxEzARBgNVBAgMCkNhbGlmb3JuaWExFjAUBgNVBAcMDVNh
biBGcmFuY2lzY28xIDAeBgNVBAoMF0NvcHlsZWZ0IENlcnRpZmljYXRlIENvMR8w
HQYDVQQLDBZNeSBPcmdhbml6YXRpb25hbCBVbml0MREwDwYDVQQDDAhDaGFuZ2VN
ZTEdMBsGCSqGSIb3DQEJARYObWVAZXhhbXBsZS5uZXQwHhcNMjMxMTExMTA1NTI4
WhcNMjQxMTEwMTA1NTI4WjCBujELMAkGA1UEBhMCVVMxCzAJBgNVBAgMAk9IMRMw
EQYDVQQHDApDaW5jaW5uYXRpMSEwHwYDVQQKDBhVbml2ZXJzaXR5IG9mIENpbmNp
bm5hdGkxKjAoBgNVBAsMIURlcHQuIEVsZWMuIENvbXAuIEVuZy4gQ29tcC4gU2Np
LjEQMA4GA1UEAwwHY2xpZW50MzEoMCYGCSqGSIb3DQEJARYZZnJhbmNvQGdhdXNz
LmVjZWNzLnVjLmVkdTCCASIwDQYJKoZIhvcNAQEBBQADggEPADCCAQoCggEBAKzL
UBHWaOr0kQWE7SDPrmNJ66GqbW9I7MQZzoihAawab/25bhOz/c1TARdx7PUjy4sY
+irL4IiMhX6Kpp/kAlJmSYcfi6VkqpR7fSf6Eg7B1mMpBbCFtq1z19gNU9vKTFKs
egdWpxstTKmOC+EoSzxuFZv6HleGSyAoCwX+RRBOnQFvd8GJ41CF+MVDm0lCMTP7
JMukaj+1EeV0AOSh9RK4THRe4heuxraGNeDv+/pprVH60LiRuuALmWlS82lBkNy9
rbE1o+c5/jA4lSBGswPEXUJTHAgXnzzO4G/LUZVBjEIdwsL3vdMEEtYCN/19EXYy
zV9dSjTtIdafHxXRHH0CAwEAAaOCATcwggEzMAkGA1UdEwQCMAAwHQYDVR0OBBYE
FDlbnUNcjATA9fJqmsiQkrVZ95qoMIHkBgNVHSMEgdwwgdmAFEQBzAYLQXXLyPvJ
N4YtndLYebaLoYG1pIGyMIGvMQswCQYDVQQGEwJVUzETMBEGA1UECAwKQ2FsaWZv
cm5pYTEWMBQGA1UEBwwNU2FuIEZyYW5jaXNjbzEgMB4GA1UECgwXQ29weWxlZnQg
Q2VydGlmaWNhdGUgQ28xHzAdBgNVBAsMFk15IE9yZ2FuaXphdGlvbmFsIFVuaXQx
ETAPBgNVBAMMCENoYW5nZU1lMR0wGwYJKoZIhvcNAQkBFg5tZUBleGFtcGxlLm5l
dIIJAK/o4N3Fiw7dMBMGA1UdJQQMMAoGCCsGAQUFBwMCMAsGA1UdDwQEAwIHgDAN
BgkqhkiG9w0BAQsFAAOCAQEARMWoqkz1RawrXrj1ygF7KufJph57Wj2XV9CZ6J/B
jXeAmqGdE+OaVvA5I3rDf4NCboJK33nZvl8zovUaQ93eCNEehSxEgdZ8cw4j3Yfe
/FT6oMnCuUzGD24zGw2TuUbV5ZIuQ2T/z3XHLdAmajNVbIm85Ds3bKT2XNmuzAMc
QSWfJ4EkIz/GcLNnROCegO7Z6SeeW4LcdepyRqeJOAE70fbgykJBL9yZ6JJ7HUzE
w1UHin+xY3h4Ep+3Rrp0ZIYdTqA7S66Hg7ezqCoTQ5xiTYSojp66yvd/CJYtw8zD
wfi5x2kno0m9Tp56WRkhIUzWpSprcQaYI5CEJlKNbZuazw==
-----END CERTIFICATE-----
