Certificate:
    Data:
        Version: 3 (0x2)
        Serial Number:
            4c:5d:cc:3a:a9:dd:a3:04:fa:f0:0d:29:4a:35:98:a3
    Signature Algorithm: sha256WithRSAEncryption
        Issuer: C=US, ST=California, L=San Francisco, O=Copyleft Certificate Co, OU=My Organizational Unit, CN=ChangeMe/emailAddress=me@example.net
        Validity
            Not Before: Jan 23 18:28:10 2021 GMT
            Not After : Jan 23 18:28:10 2022 GMT
        Subject: C=US, ST=OH, L=Cincinnati, O=University of Cincinnati, OU=Dept. Electrical Eng. and Computer Sci., CN=client38/emailAddress=franco@gauss.ececs.uc.edu
        Subject Public Key Info:
            Public Key Algorithm: rsaEncryption
                Public-Key: (2048 bit)
                Modulus:
                    00:b2:0e:7d:f7:37:64:a5:1e:66:f3:95:a1:1a:be:
                    a2:ed:3d:d0:27:1c:5b:fd:a8:0b:32:b9:f0:37:31:
                    45:90:ca:1f:5c:b2:81:e4:66:71:7b:83:2f:8f:3b:
                    90:38:e4:0d:5e:81:c0:05:07:12:57:9a:6c:8b:38:
                    77:2d:d6:22:93:b6:7a:71:56:88:11:ab:c1:87:7a:
                    1f:d8:2b:7b:19:eb:30:b3:18:c1:cb:40:19:93:38:
                    f2:4a:f6:67:f5:e2:cb:fd:e8:b3:5f:32:35:21:d5:
                    77:9b:af:7e:0f:f3:7d:0b:91:84:80:0e:d5:42:62:
                    bf:46:b5:5a:7f:5a:0a:2e:e4:16:04:70:d0:b2:ed:
                    04:94:2f:ba:78:b9:87:ce:c9:3f:34:6c:0a:b3:60:
                    68:d8:cc:e2:3c:2e:5a:de:01:41:ca:86:8d:b7:34:
                    c8:0a:d5:5f:a1:49:82:ef:8e:17:91:aa:c7:4f:e6:
                    cc:a4:f1:2b:32:26:f2:51:d5:5b:d6:c3:0e:b9:8b:
                    c2:ef:cf:0f:de:80:25:e3:0f:2d:70:ba:59:dc:48:
                    20:34:fa:d7:95:82:fb:4c:7d:7d:f2:06:e6:d5:e0:
                    c3:79:34:95:59:92:36:3a:7d:6b:f9:c0:1f:69:37:
                    48:5b:33:e0:8e:e2:59:8a:c6:32:57:50:56:41:36:
                    a3:77
                Exponent: 65537 (0x10001)
        X509v3 extensions:
            X509v3 Basic Constraints: 
                CA:FALSE
            X509v3 Subject Key Identifier: 
                C7:61:B1:BF:13:02:78:5D:AF:7C:7B:16:D5:C4:6A:D5:4E:28:D9:B6
            X509v3 Authority Key Identifier: 
                keyid:EF:DC:B6:3D:4B:FD:A7:87:05:C5:22:3D:8B:DC:BF:99:2A:EE:E4:DB
                DirName:/C=US/ST=California/L=San Francisco/O=Copyleft Certificate Co/OU=My Organizational Unit/CN=ChangeMe/emailAddress=me@example.net
                serial:87:1E:1D:DC:6B:8C:66:88

            X509v3 Extended Key Usage: 
                TLS Web Client Authentication
            X509v3 Key Usage: 
                Digital Signature
    Signature Algorithm: sha256WithRSAEncryption
         8e:6f:5c:f7:e7:95:1d:9a:14:17:37:02:6f:e0:08:02:8d:a8:
         4a:2c:83:4a:f5:52:b1:57:eb:76:d4:af:28:65:62:85:87:13:
         b3:b2:ba:00:8c:70:1f:9f:9f:97:cc:2e:f6:d1:02:90:d1:39:
         d9:75:07:e7:ba:42:02:ee:c2:25:63:99:38:d9:44:21:90:01:
         e1:6e:4c:c7:c5:5c:b3:59:26:50:be:43:a8:16:20:c1:42:6e:
         21:41:f8:67:12:e9:0d:78:15:17:78:1c:12:11:ba:39:46:05:
         52:15:44:44:08:82:8d:d1:f9:a7:5d:0d:44:97:73:b5:04:b2:
         32:45:e2:fb:30:1f:98:65:10:bb:a4:41:89:06:a1:3a:6d:dc:
         6c:dd:9b:99:3d:44:c8:76:c6:ce:e6:0b:7a:03:0f:da:d5:97:
         7b:8b:29:79:1d:4e:4a:34:c4:e8:c7:bd:f8:9b:f9:1e:b7:a2:
         67:ed:f4:3c:11:ce:74:a4:a1:7c:85:4d:48:6c:67:7b:3d:45:
         04:31:20:7f:78:7b:21:a4:67:50:a6:6d:b0:48:cc:57:37:2b:
         ef:60:c6:d0:90:33:0d:71:eb:61:16:72:c3:ce:83:22:a1:dd:
         ef:12:43:61:a5:e2:78:09:c4:b3:7a:a0:80:32:af:db:65:b5:
         24:22:3f:fb
-----BEGIN CERTIFICATE-----
MIIFNTCCBB2gAwIBAgIQTF3MOqndowT68A0pSjWYozANBgkqhkiG9w0BAQsFADCB
rzELMAkGA1UEBhMCVVMxEzARBgNVBAgMCkNhbGlmb3JuaWExFjAUBgNVBAcMDVNh
biBGcmFuY2lzY28xIDAeBgNVBAoMF0NvcHlsZWZ0IENlcnRpZmljYXRlIENvMR8w
HQYDVQQLDBZNeSBPcmdhbml6YXRpb25hbCBVbml0MREwDwYDVQQDDAhDaGFuZ2VN
ZTEdMBsGCSqGSIb3DQEJARYObWVAZXhhbXBsZS5uZXQwHhcNMjEwMTIzMTgyODEw
WhcNMjIwMTIzMTgyODEwWjCBwTELMAkGA1UEBhMCVVMxCzAJBgNVBAgMAk9IMRMw
EQYDVQQHDApDaW5jaW5uYXRpMSEwHwYDVQQKDBhVbml2ZXJzaXR5IG9mIENpbmNp
bm5hdGkxMDAuBgNVBAsMJ0RlcHQuIEVsZWN0cmljYWwgRW5nLiBhbmQgQ29tcHV0
ZXIgU2NpLjERMA8GA1UEAwwIY2xpZW50MzgxKDAmBgkqhkiG9w0BCQEWGWZyYW5j
b0BnYXVzcy5lY2Vjcy51Yy5lZHUwggEiMA0GCSqGSIb3DQEBAQUAA4IBDwAwggEK
AoIBAQCyDn33N2SlHmbzlaEavqLtPdAnHFv9qAsyufA3MUWQyh9csoHkZnF7gy+P
O5A45A1egcAFBxJXmmyLOHct1iKTtnpxVogRq8GHeh/YK3sZ6zCzGMHLQBmTOPJK
9mf14sv96LNfMjUh1Xebr34P830LkYSADtVCYr9GtVp/Wgou5BYEcNCy7QSUL7p4
uYfOyT80bAqzYGjYzOI8LlreAUHKho23NMgK1V+hSYLvjheRqsdP5syk8SsyJvJR
1VvWww65i8Lvzw/egCXjDy1wulncSCA0+teVgvtMfX3yBubV4MN5NJVZkjY6fWv5
wB9pN0hbM+CO4lmKxjJXUFZBNqN3AgMBAAGjggE3MIIBMzAJBgNVHRMEAjAAMB0G
A1UdDgQWBBTHYbG/EwJ4Xa98exbVxGrVTijZtjCB5AYDVR0jBIHcMIHZgBTv3LY9
S/2nhwXFIj2L3L+ZKu7k26GBtaSBsjCBrzELMAkGA1UEBhMCVVMxEzARBgNVBAgM
CkNhbGlmb3JuaWExFjAUBgNVBAcMDVNhbiBGcmFuY2lzY28xIDAeBgNVBAoMF0Nv
cHlsZWZ0IENlcnRpZmljYXRlIENvMR8wHQYDVQQLDBZNeSBPcmdhbml6YXRpb25h
bCBVbml0MREwDwYDVQQDDAhDaGFuZ2VNZTEdMBsGCSqGSIb3DQEJARYObWVAZXhh
bXBsZS5uZXSCCQCHHh3ca4xmiDATBgNVHSUEDDAKBggrBgEFBQcDAjALBgNVHQ8E
BAMCB4AwDQYJKoZIhvcNAQELBQADggEBAI5vXPfnlR2aFBc3Am/gCAKNqEosg0r1
UrFX63bUryhlYoWHE7OyugCMcB+fn5fMLvbRApDROdl1B+e6QgLuwiVjmTjZRCGQ
AeFuTMfFXLNZJlC+Q6gWIMFCbiFB+GcS6Q14FRd4HBIRujlGBVIVREQIgo3R+add
DUSXc7UEsjJF4vswH5hlELukQYkGoTpt3Gzdm5k9RMh2xs7mC3oDD9rVl3uLKXkd
Tko0xOjHvfib+R63omft9DwRznSkoXyFTUhsZ3s9RQQxIH94eyGkZ1CmbbBIzFc3
K+9gxtCQMw1x62EWcsPOgyKh3e8SQ2Gl4ngJxLN6oIAyr9tltSQiP/s=
-----END CERTIFICATE-----
