Certificate:
    Data:
        Version: 3 (0x2)
        Serial Number:
            94:58:28:44:db:79:1d:c6:31:f2:fe:dd:20:1d:7e:b5
    Signature Algorithm: sha256WithRSAEncryption
        Issuer: C=US, ST=California, L=San Francisco, O=Copyleft Certificate Co, OU=My Organizational Unit, CN=ChangeMe/emailAddress=me@example.net
        Validity
            Not Before: Nov 11 01:45:42 2023 GMT
            Not After : Nov 10 01:45:42 2024 GMT
        Subject: C=US, ST=OH, L=Cincinnati, O=University of Cincinnati, OU=Dept. Elec. Comp. Eng. Comp. Sci., CN=client90/emailAddress=franco@gauss.ececs.uc.edu
        Subject Public Key Info:
            Public Key Algorithm: rsaEncryption
                Public-Key: (2048 bit)
                Modulus:
                    00:a2:01:1c:78:90:55:f9:5e:da:c9:c4:ba:a6:ac:
                    95:c2:6f:70:20:c0:7f:7b:9f:c2:38:66:63:29:d0:
                    0e:87:fc:49:87:52:03:ec:56:81:cb:a2:f4:98:00:
                    12:e9:69:c5:43:67:e4:1f:8c:e3:e3:4b:cc:69:b0:
                    d0:10:44:38:50:37:a7:4b:dc:df:d8:b7:eb:40:8a:
                    25:92:d8:9e:48:11:ee:cc:62:dd:4a:f2:0c:9b:ed:
                    8f:b5:71:ba:25:c7:54:2e:1d:71:5f:9f:44:fd:a4:
                    dc:30:29:37:21:f7:22:6f:70:25:be:01:d7:9e:05:
                    96:e6:48:65:5b:90:f1:6b:52:4b:9d:a7:f9:27:f4:
                    8a:26:2c:ac:c7:99:e5:aa:9a:80:b1:fd:4b:54:af:
                    fc:3f:ca:8a:dc:21:69:d0:ef:1f:1e:60:d5:56:aa:
                    d4:8d:17:13:8b:26:b6:ef:80:70:10:ed:ba:65:fd:
                    c0:ac:f1:1f:c4:57:6e:75:78:7b:6d:7b:fc:2f:eb:
                    42:6a:b0:11:39:26:23:01:09:26:a3:6c:bb:2f:57:
                    a3:5d:0e:d1:6b:be:07:6b:d1:b7:98:a5:75:56:66:
                    ce:64:ea:91:26:59:f9:b8:00:ec:75:cb:63:59:88:
                    34:3e:d3:0e:b4:5b:e5:95:eb:56:37:3e:57:d3:ff:
                    fc:cd
                Exponent: 65537 (0x10001)
        X509v3 extensions:
            X509v3 Basic Constraints: 
                CA:FALSE
            X509v3 Subject Key Identifier: 
                09:82:B4:98:81:A7:9B:1B:3F:5A:3A:58:09:01:41:A2:61:98:E6:38
            X509v3 Authority Key Identifier: 
                keyid:73:DE:A0:43:0F:AE:B1:9E:E8:59:69:18:50:A1:1A:1F:D4:A1:E3:F0
                DirName:/C=US/ST=California/L=San Francisco/O=Copyleft Certificate Co/OU=My Organizational Unit/CN=ChangeMe/emailAddress=me@example.net
                serial:E9:BB:CB:16:C5:32:BE:3B

            X509v3 Extended Key Usage: 
                TLS Web Client Authentication
            X509v3 Key Usage: 
                Digital Signature
    Signature Algorithm: sha256WithRSAEncryption
         ab:6d:02:1b:4f:48:d8:e2:6a:bc:5d:39:56:5b:ad:31:18:35:
         44:53:d9:22:87:c0:43:06:7e:15:59:c0:62:47:07:3e:1d:45:
         52:8a:45:12:59:4a:17:54:a6:81:59:9e:82:2b:18:48:39:6f:
         2d:03:1f:a8:e4:e7:60:6b:0a:49:4f:ee:74:f1:9d:6e:7b:db:
         61:f0:17:07:de:e9:1f:ce:13:5b:60:ee:46:2a:c8:b4:0e:70:
         3f:3f:d8:a4:cf:c1:e0:f7:4d:67:69:13:ad:d0:9f:c7:d4:be:
         56:d3:fa:ac:b4:e6:2c:12:38:ce:88:9b:01:4b:bc:e4:5e:82:
         f8:73:bb:c5:eb:cb:ae:93:24:82:44:c3:97:f5:e8:92:df:5f:
         32:fd:5c:50:9b:8b:3d:3f:ab:db:4f:c9:29:5c:da:87:55:c9:
         77:79:2e:e9:49:1d:33:30:61:a8:78:d3:da:c9:34:a0:a0:fb:
         56:ba:d4:69:68:44:72:0d:92:24:66:7e:28:dd:9a:82:a4:aa:
         79:f6:bb:8a:31:4f:93:ea:7e:9a:c5:e2:fa:62:58:04:86:8c:
         00:9f:b2:c7:f3:9b:88:b6:e7:48:52:c7:b2:ad:fd:88:7b:8c:
         e4:d5:bc:ed:bb:15:61:4c:1e:06:d8:cd:64:be:ff:bd:1b:e4:
         85:92:b8:43
-----BEGIN CERTIFICATE-----
MIIFMDCCBBigAwIBAgIRAJRYKETbeR3GMfL+3SAdfrUwDQYJKoZIhvcNAQELBQAw
ga8xCzAJBgNVBAYTAlVTMRMwEQYDVQQIDApDYWxpZm9ybmlhMRYwFAYDVQQHDA1T
YW4gRnJhbmNpc2NvMSAwHgYDVQQKDBdDb3B5bGVmdCBDZXJ0aWZpY2F0ZSBDbzEf
MB0GA1UECwwWTXkgT3JnYW5pemF0aW9uYWwgVW5pdDERMA8GA1UEAwwIQ2hhbmdl
TWUxHTAbBgkqhkiG9w0BCQEWDm1lQGV4YW1wbGUubmV0MB4XDTIzMTExMTAxNDU0
MloXDTI0MTExMDAxNDU0MlowgbsxCzAJBgNVBAYTAlVTMQswCQYDVQQIDAJPSDET
MBEGA1UEBwwKQ2luY2lubmF0aTEhMB8GA1UECgwYVW5pdmVyc2l0eSBvZiBDaW5j
aW5uYXRpMSowKAYDVQQLDCFEZXB0LiBFbGVjLiBDb21wLiBFbmcuIENvbXAuIFNj
aS4xETAPBgNVBAMMCGNsaWVudDkwMSgwJgYJKoZIhvcNAQkBFhlmcmFuY29AZ2F1
c3MuZWNlY3MudWMuZWR1MIIBIjANBgkqhkiG9w0BAQEFAAOCAQ8AMIIBCgKCAQEA
ogEceJBV+V7aycS6pqyVwm9wIMB/e5/COGZjKdAOh/xJh1ID7FaBy6L0mAAS6WnF
Q2fkH4zj40vMabDQEEQ4UDenS9zf2LfrQIolktieSBHuzGLdSvIMm+2PtXG6JcdU
Lh1xX59E/aTcMCk3Ifcib3AlvgHXngWW5khlW5Dxa1JLnaf5J/SKJiysx5nlqpqA
sf1LVK/8P8qK3CFp0O8fHmDVVqrUjRcTiya274BwEO26Zf3ArPEfxFdudXh7bXv8
L+tCarAROSYjAQkmo2y7L1ejXQ7Ra74Ha9G3mKV1VmbOZOqRJln5uADsdctjWYg0
PtMOtFvlletWNz5X0//8zQIDAQABo4IBNzCCATMwCQYDVR0TBAIwADAdBgNVHQ4E
FgQUCYK0mIGnmxs/WjpYCQFBomGY5jgwgeQGA1UdIwSB3DCB2YAUc96gQw+usZ7o
WWkYUKEaH9Sh4/ChgbWkgbIwga8xCzAJBgNVBAYTAlVTMRMwEQYDVQQIDApDYWxp
Zm9ybmlhMRYwFAYDVQQHDA1TYW4gRnJhbmNpc2NvMSAwHgYDVQQKDBdDb3B5bGVm
dCBDZXJ0aWZpY2F0ZSBDbzEfMB0GA1UECwwWTXkgT3JnYW5pemF0aW9uYWwgVW5p
dDERMA8GA1UEAwwIQ2hhbmdlTWUxHTAbBgkqhkiG9w0BCQEWDm1lQGV4YW1wbGUu
bmV0ggkA6bvLFsUyvjswEwYDVR0lBAwwCgYIKwYBBQUHAwIwCwYDVR0PBAQDAgeA
MA0GCSqGSIb3DQEBCwUAA4IBAQCrbQIbT0jY4mq8XTlWW60xGDVEU9kih8BDBn4V
WcBiRwc+HUVSikUSWUoXVKaBWZ6CKxhIOW8tAx+o5OdgawpJT+508Z1ue9th8BcH
3ukfzhNbYO5GKsi0DnA/P9ikz8Hg901naROt0J/H1L5W0/qstOYsEjjOiJsBS7zk
XoL4c7vF68uukySCRMOX9eiS318y/VxQm4s9P6vbT8kpXNqHVcl3eS7pSR0zMGGo
eNPayTSgoPtWutRpaERyDZIkZn4o3ZqCpKp59ruKMU+T6n6axeL6YlgEhowAn7LH
85uItudIUseyrf2Ie4zk1bztuxVhTB4G2M1kvv+9G+SFkrhD
-----END CERTIFICATE-----
