Certificate:
    Data:
        Version: 3 (0x2)
        Serial Number:
            8e:6c:29:e3:f8:f9:28:05:a3:88:d0:3b:62:1c:72:73
    Signature Algorithm: sha256WithRSAEncryption
        Issuer: C=US, ST=California, L=San Francisco, O=Copyleft Certificate Co, OU=My Organizational Unit, CN=ChangeMe/emailAddress=me@example.net
        Validity
            Not Before: Nov 11 01:49:18 2023 GMT
            Not After : Nov 10 01:49:18 2024 GMT
        Subject: C=US, ST=OH, L=Cincinnati, O=University of Cincinnati, OU=Dept. Elec. Comp. Eng. Comp. Sci., CN=client144/emailAddress=franco@gauss.ececs.uc.edu
        Subject Public Key Info:
            Public Key Algorithm: rsaEncryption
                Public-Key: (2048 bit)
                Modulus:
                    00:a2:c9:65:8d:9f:24:25:c0:e1:d9:3b:21:50:98:
                    d1:63:74:cc:35:56:c0:5d:39:a9:11:06:43:36:6e:
                    73:50:d8:89:95:e0:8d:c1:86:ea:60:3f:6d:fe:fa:
                    bf:2e:63:8d:9f:e8:dd:44:af:c7:0e:72:b1:86:78:
                    ef:7d:c7:f4:e2:c0:08:bb:0c:76:96:85:38:1f:e2:
                    0d:ca:01:20:be:d9:0d:64:58:ca:fe:57:88:b4:16:
                    a2:d1:6b:78:4c:5e:24:a9:62:8d:19:89:cc:37:4a:
                    6f:c8:cb:f3:b9:65:1e:ce:dd:e4:f9:03:84:8e:12:
                    fe:31:27:e7:ad:d1:a7:e4:bf:2f:9f:5d:7f:b1:99:
                    76:39:ae:57:8b:73:77:d3:30:24:ca:f2:d6:84:d7:
                    6d:93:f3:1a:bc:63:1b:fd:e1:13:59:d9:d6:9c:e0:
                    f2:38:6d:a4:f6:ae:54:80:18:b2:77:d5:27:58:2f:
                    18:e9:ad:e6:fb:55:68:ad:83:2d:3b:f2:22:f5:3d:
                    53:83:33:72:f6:de:df:05:ae:97:78:26:b8:61:94:
                    cf:da:db:b6:27:ef:b6:56:4f:d4:ee:5e:77:c0:11:
                    88:63:c7:dc:01:f7:6d:17:1e:00:db:5c:38:03:dc:
                    10:4c:2e:15:a8:d6:87:e6:8d:a3:b6:82:a2:68:25:
                    e3:33
                Exponent: 65537 (0x10001)
        X509v3 extensions:
            X509v3 Basic Constraints: 
                CA:FALSE
            X509v3 Subject Key Identifier: 
                13:C9:3A:B9:93:BB:74:48:99:8A:89:14:1E:8B:B9:96:74:B2:FD:02
            X509v3 Authority Key Identifier: 
                keyid:73:DE:A0:43:0F:AE:B1:9E:E8:59:69:18:50:A1:1A:1F:D4:A1:E3:F0
                DirName:/C=US/ST=California/L=San Francisco/O=Copyleft Certificate Co/OU=My Organizational Unit/CN=ChangeMe/emailAddress=me@example.net
                serial:E9:BB:CB:16:C5:32:BE:3B

            X509v3 Extended Key Usage: 
                TLS Web Client Authentication
            X509v3 Key Usage: 
                Digital Signature
    Signature Algorithm: sha256WithRSAEncryption
         b2:2c:d7:91:7c:60:b5:51:e8:17:ed:62:24:ba:fa:59:bb:2f:
         7c:e0:7a:8f:13:ed:3c:7a:ce:8b:b5:7f:c7:48:a0:08:18:81:
         c4:f6:9b:a2:ae:ff:6d:3f:17:be:c8:73:fe:7c:44:df:b1:9b:
         1d:a1:d2:b4:15:a7:2d:e2:6b:c2:be:96:b2:a0:a8:98:a5:4e:
         18:b4:42:7d:e0:dd:1d:49:1a:c1:db:b1:f9:4c:16:67:3f:d5:
         4d:db:f1:8b:8b:19:77:32:76:7a:6d:74:7c:24:dd:8b:7c:b9:
         43:81:d9:b6:6e:90:36:0e:91:a5:92:2f:c6:69:9f:ca:ef:a1:
         2d:45:99:b5:ed:cc:b0:da:14:14:a7:67:fa:5c:81:29:45:39:
         64:7c:80:4d:a4:42:0f:2f:e5:09:23:07:3b:be:e5:4f:64:44:
         9b:7a:ec:93:0c:c8:9b:16:18:6b:aa:e8:10:ff:f2:87:00:7a:
         92:b7:08:71:99:a8:72:08:9b:7e:5c:37:c2:07:b8:88:ff:ed:
         26:f9:b3:65:3d:e6:7f:11:36:53:0f:48:de:e7:f7:a7:4d:5d:
         e9:d5:7f:5d:e7:2a:e6:a4:28:b0:a1:6c:86:19:9b:39:dc:b7:
         56:d9:8a:a5:94:e1:e4:7d:0a:c1:7b:b4:f9:c0:64:23:62:d3:
         fd:9f:98:61
-----BEGIN CERTIFICATE-----
MIIFMTCCBBmgAwIBAgIRAI5sKeP4+SgFo4jQO2IccnMwDQYJKoZIhvcNAQELBQAw
ga8xCzAJBgNVBAYTAlVTMRMwEQYDVQQIDApDYWxpZm9ybmlhMRYwFAYDVQQHDA1T
YW4gRnJhbmNpc2NvMSAwHgYDVQQKDBdDb3B5bGVmdCBDZXJ0aWZpY2F0ZSBDbzEf
MB0GA1UECwwWTXkgT3JnYW5pemF0aW9uYWwgVW5pdDERMA8GA1UEAwwIQ2hhbmdl
TWUxHTAbBgkqhkiG9w0BCQEWDm1lQGV4YW1wbGUubmV0MB4XDTIzMTExMTAxNDkx
OFoXDTI0MTExMDAxNDkxOFowgbwxCzAJBgNVBAYTAlVTMQswCQYDVQQIDAJPSDET
MBEGA1UEBwwKQ2luY2lubmF0aTEhMB8GA1UECgwYVW5pdmVyc2l0eSBvZiBDaW5j
aW5uYXRpMSowKAYDVQQLDCFEZXB0LiBFbGVjLiBDb21wLiBFbmcuIENvbXAuIFNj
aS4xEjAQBgNVBAMMCWNsaWVudDE0NDEoMCYGCSqGSIb3DQEJARYZZnJhbmNvQGdh
dXNzLmVjZWNzLnVjLmVkdTCCASIwDQYJKoZIhvcNAQEBBQADggEPADCCAQoCggEB
AKLJZY2fJCXA4dk7IVCY0WN0zDVWwF05qREGQzZuc1DYiZXgjcGG6mA/bf76vy5j
jZ/o3USvxw5ysYZ4733H9OLACLsMdpaFOB/iDcoBIL7ZDWRYyv5XiLQWotFreExe
JKlijRmJzDdKb8jL87llHs7d5PkDhI4S/jEn563Rp+S/L59df7GZdjmuV4tzd9Mw
JMry1oTXbZPzGrxjG/3hE1nZ1pzg8jhtpPauVIAYsnfVJ1gvGOmt5vtVaK2DLTvy
IvU9U4Mzcvbe3wWul3gmuGGUz9rbtifvtlZP1O5ed8ARiGPH3AH3bRceANtcOAPc
EEwuFajWh+aNo7aComgl4zMCAwEAAaOCATcwggEzMAkGA1UdEwQCMAAwHQYDVR0O
BBYEFBPJOrmTu3RImYqJFB6LuZZ0sv0CMIHkBgNVHSMEgdwwgdmAFHPeoEMPrrGe
6FlpGFChGh/UoePwoYG1pIGyMIGvMQswCQYDVQQGEwJVUzETMBEGA1UECAwKQ2Fs
aWZvcm5pYTEWMBQGA1UEBwwNU2FuIEZyYW5jaXNjbzEgMB4GA1UECgwXQ29weWxl
ZnQgQ2VydGlmaWNhdGUgQ28xHzAdBgNVBAsMFk15IE9yZ2FuaXphdGlvbmFsIFVu
aXQxETAPBgNVBAMMCENoYW5nZU1lMR0wGwYJKoZIhvcNAQkBFg5tZUBleGFtcGxl
Lm5ldIIJAOm7yxbFMr47MBMGA1UdJQQMMAoGCCsGAQUFBwMCMAsGA1UdDwQEAwIH
gDANBgkqhkiG9w0BAQsFAAOCAQEAsizXkXxgtVHoF+1iJLr6WbsvfOB6jxPtPHrO
i7V/x0igCBiBxPaboq7/bT8Xvshz/nxE37GbHaHStBWnLeJrwr6WsqComKVOGLRC
feDdHUkawdux+UwWZz/VTdvxi4sZdzJ2em10fCTdi3y5Q4HZtm6QNg6RpZIvxmmf
yu+hLUWZte3MsNoUFKdn+lyBKUU5ZHyATaRCDy/lCSMHO77lT2REm3rskwzImxYY
a6roEP/yhwB6krcIcZmocgibflw3wge4iP/tJvmzZT3mfxE2Uw9I3uf3p01d6dV/
Xecq5qQosKFshhmbOdy3VtmKpZTh5H0KwXu0+cBkI2LT/Z+YYQ==
-----END CERTIFICATE-----
