Certificate:
    Data:
        Version: 3 (0x2)
        Serial Number:
            ac:62:dd:55:b7:c0:ba:4a:29:40:2a:38:eb:5b:58:3b
    Signature Algorithm: sha256WithRSAEncryption
        Issuer: C=US, ST=California, L=San Francisco, O=Copyleft Certificate Co, OU=My Organizational Unit, CN=ChangeMe/emailAddress=me@example.net
        Validity
            Not Before: Nov 11 10:57:56 2023 GMT
            Not After : Nov 10 10:57:56 2024 GMT
        Subject: C=US, ST=OH, L=Cincinnati, O=University of Cincinnati, OU=Dept. Elec. Comp. Eng. Comp. Sci., CN=client40/emailAddress=franco@gauss.ececs.uc.edu
        Subject Public Key Info:
            Public Key Algorithm: rsaEncryption
                Public-Key: (2048 bit)
                Modulus:
                    00:b6:bb:3e:30:0d:fe:84:0f:39:51:0d:3b:dd:42:
                    1f:28:19:76:aa:dc:e0:70:bb:b7:f2:81:2e:62:77:
                    49:08:e6:98:b5:bd:04:ad:38:26:ea:98:50:db:86:
                    44:a3:d2:a9:91:ac:f5:37:12:40:fc:f0:51:ac:e3:
                    50:8f:58:3b:12:3c:ce:69:61:7c:13:ca:57:f9:f7:
                    ae:78:33:08:dc:30:3e:33:a3:09:47:9a:6b:e8:9b:
                    00:61:8e:11:5c:66:17:63:5e:52:e4:71:76:dc:7e:
                    9e:f0:03:80:71:a7:e2:40:57:ab:51:40:a0:26:42:
                    a2:be:b0:7a:b9:e1:28:9f:0b:2d:c3:a4:71:8b:0b:
                    db:37:f0:aa:d5:d8:0a:95:8a:da:3c:88:72:8d:20:
                    3d:d7:85:af:da:67:90:7d:58:cc:1d:47:8e:18:76:
                    1a:2d:ce:0a:4b:71:20:5f:f3:24:dd:e2:17:49:f4:
                    f9:6f:b4:d3:d2:49:05:32:e5:0f:c0:df:72:0e:4c:
                    ac:06:74:d2:40:a0:f0:31:e2:9a:76:27:86:30:58:
                    10:76:79:7a:7b:a5:ce:50:78:e9:dc:4e:cf:21:e9:
                    0d:ca:ce:36:bc:c1:02:bc:c9:c8:67:b8:2c:b8:bf:
                    f2:d6:d2:27:80:b6:57:a9:64:10:29:ab:36:07:9b:
                    1e:21
                Exponent: 65537 (0x10001)
        X509v3 extensions:
            X509v3 Basic Constraints: 
                CA:FALSE
            X509v3 Subject Key Identifier: 
                ED:F0:7F:3D:5B:14:A4:25:EE:AB:7A:5B:E5:4C:63:46:75:7C:39:49
            X509v3 Authority Key Identifier: 
                keyid:44:01:CC:06:0B:41:75:CB:C8:FB:C9:37:86:2D:9D:D2:D8:79:B6:8B
                DirName:/C=US/ST=California/L=San Francisco/O=Copyleft Certificate Co/OU=My Organizational Unit/CN=ChangeMe/emailAddress=me@example.net
                serial:AF:E8:E0:DD:C5:8B:0E:DD

            X509v3 Extended Key Usage: 
                TLS Web Client Authentication
            X509v3 Key Usage: 
                Digital Signature
    Signature Algorithm: sha256WithRSAEncryption
         37:f0:07:62:b1:b9:70:59:2f:d9:56:92:1c:7b:ae:29:81:10:
         87:6f:a2:71:89:fc:b4:04:0a:45:07:9e:bc:b7:a0:1e:7a:f5:
         71:f5:9d:4f:78:33:65:9a:50:cd:d6:d3:96:85:8a:32:84:ef:
         e9:e4:4c:89:cf:2f:f9:0b:b8:33:70:2e:8b:76:b6:66:46:07:
         6d:19:32:10:6d:8f:92:a6:7f:42:8e:0c:e2:c3:c6:f2:a6:18:
         38:50:c7:40:96:d8:a8:83:c1:32:0f:cd:4b:c7:e2:8c:c3:cc:
         a4:9b:5f:62:65:21:8b:66:f2:4e:3b:b6:3f:00:2d:da:58:b0:
         f7:f7:17:15:21:ea:85:d8:7e:e5:0f:c3:bd:45:71:2b:d8:bf:
         ea:78:68:e8:e1:84:8b:b5:69:ad:74:49:86:fd:cd:fc:a4:eb:
         16:ad:0a:b9:84:c1:41:ac:b0:e1:78:70:26:ca:00:a4:12:41:
         cc:3f:84:7c:b6:5d:ac:cf:14:43:26:54:ea:d8:04:74:e6:b2:
         d6:12:51:2d:59:08:d9:15:22:a6:50:2c:20:0e:4f:43:dc:56:
         01:c1:bd:e3:66:98:23:5f:31:3f:67:8f:a4:52:89:3f:48:55:
         a4:6c:6c:02:ef:53:59:e3:14:5d:d0:22:48:47:d9:31:c5:36:
         14:08:f8:31
-----BEGIN CERTIFICATE-----
MIIFMDCCBBigAwIBAgIRAKxi3VW3wLpKKUAqOOtbWDswDQYJKoZIhvcNAQELBQAw
ga8xCzAJBgNVBAYTAlVTMRMwEQYDVQQIDApDYWxpZm9ybmlhMRYwFAYDVQQHDA1T
YW4gRnJhbmNpc2NvMSAwHgYDVQQKDBdDb3B5bGVmdCBDZXJ0aWZpY2F0ZSBDbzEf
MB0GA1UECwwWTXkgT3JnYW5pemF0aW9uYWwgVW5pdDERMA8GA1UEAwwIQ2hhbmdl
TWUxHTAbBgkqhkiG9w0BCQEWDm1lQGV4YW1wbGUubmV0MB4XDTIzMTExMTEwNTc1
NloXDTI0MTExMDEwNTc1NlowgbsxCzAJBgNVBAYTAlVTMQswCQYDVQQIDAJPSDET
MBEGA1UEBwwKQ2luY2lubmF0aTEhMB8GA1UECgwYVW5pdmVyc2l0eSBvZiBDaW5j
aW5uYXRpMSowKAYDVQQLDCFEZXB0LiBFbGVjLiBDb21wLiBFbmcuIENvbXAuIFNj
aS4xETAPBgNVBAMMCGNsaWVudDQwMSgwJgYJKoZIhvcNAQkBFhlmcmFuY29AZ2F1
c3MuZWNlY3MudWMuZWR1MIIBIjANBgkqhkiG9w0BAQEFAAOCAQ8AMIIBCgKCAQEA
trs+MA3+hA85UQ073UIfKBl2qtzgcLu38oEuYndJCOaYtb0ErTgm6phQ24ZEo9Kp
kaz1NxJA/PBRrONQj1g7EjzOaWF8E8pX+feueDMI3DA+M6MJR5pr6JsAYY4RXGYX
Y15S5HF23H6e8AOAcafiQFerUUCgJkKivrB6ueEonwstw6RxiwvbN/Cq1dgKlYra
PIhyjSA914Wv2meQfVjMHUeOGHYaLc4KS3EgX/Mk3eIXSfT5b7TT0kkFMuUPwN9y
DkysBnTSQKDwMeKadieGMFgQdnl6e6XOUHjp3E7PIekNys42vMECvMnIZ7gsuL/y
1tIngLZXqWQQKas2B5seIQIDAQABo4IBNzCCATMwCQYDVR0TBAIwADAdBgNVHQ4E
FgQU7fB/PVsUpCXuq3pb5UxjRnV8OUkwgeQGA1UdIwSB3DCB2YAURAHMBgtBdcvI
+8k3hi2d0th5touhgbWkgbIwga8xCzAJBgNVBAYTAlVTMRMwEQYDVQQIDApDYWxp
Zm9ybmlhMRYwFAYDVQQHDA1TYW4gRnJhbmNpc2NvMSAwHgYDVQQKDBdDb3B5bGVm
dCBDZXJ0aWZpY2F0ZSBDbzEfMB0GA1UECwwWTXkgT3JnYW5pemF0aW9uYWwgVW5p
dDERMA8GA1UEAwwIQ2hhbmdlTWUxHTAbBgkqhkiG9w0BCQEWDm1lQGV4YW1wbGUu
bmV0ggkAr+jg3cWLDt0wEwYDVR0lBAwwCgYIKwYBBQUHAwIwCwYDVR0PBAQDAgeA
MA0GCSqGSIb3DQEBCwUAA4IBAQA38AdisblwWS/ZVpIce64pgRCHb6Jxify0BApF
B568t6AeevVx9Z1PeDNlmlDN1tOWhYoyhO/p5EyJzy/5C7gzcC6LdrZmRgdtGTIQ
bY+Spn9Cjgziw8byphg4UMdAltiog8EyD81Lx+KMw8ykm19iZSGLZvJOO7Y/AC3a
WLD39xcVIeqF2H7lD8O9RXEr2L/qeGjo4YSLtWmtdEmG/c38pOsWrQq5hMFBrLDh
eHAmygCkEkHMP4R8tl2szxRDJlTq2AR05rLWElEtWQjZFSKmUCwgDk9D3FYBwb3j
ZpgjXzE/Z4+kUok/SFWkbGwC71NZ4xRd0CJIR9kxxTYUCPgx
-----END CERTIFICATE-----
