Certificate:
    Data:
        Version: 3 (0x2)
        Serial Number:
            32:6a:7a:19:30:7c:77:c0:f5:fc:0b:64:5a:a6:c4:a5
    Signature Algorithm: sha256WithRSAEncryption
        Issuer: C=US, ST=California, L=San Francisco, O=Copyleft Certificate Co, OU=My Organizational Unit, CN=ChangeMe/emailAddress=me@example.net
        Validity
            Not Before: Nov 11 01:45:18 2023 GMT
            Not After : Nov 10 01:45:18 2024 GMT
        Subject: C=US, ST=OH, L=Cincinnati, O=University of Cincinnati, OU=Dept. Elec. Comp. Eng. Comp. Sci., CN=client84/emailAddress=franco@gauss.ececs.uc.edu
        Subject Public Key Info:
            Public Key Algorithm: rsaEncryption
                Public-Key: (2048 bit)
                Modulus:
                    00:c8:1e:57:7b:a5:90:6b:0a:e9:6e:48:06:4f:65:
                    2c:43:46:5d:84:43:35:87:2a:4b:5e:37:ac:23:e0:
                    2b:54:bc:97:d8:6f:53:54:31:d8:d7:01:a0:3d:cd:
                    45:0c:bb:54:27:e3:2c:3a:15:90:a7:97:02:0e:d9:
                    04:81:42:69:2b:4b:cb:48:19:da:7f:35:30:19:58:
                    7c:9a:a5:e7:e3:f9:e3:4d:5a:e4:75:f3:ee:37:08:
                    4a:1d:11:ef:f7:b4:05:a4:68:4d:3c:cf:af:2f:f0:
                    c5:55:b5:f6:02:21:be:50:a4:6a:8a:0a:48:ff:f0:
                    3b:09:db:16:15:ca:b9:50:7d:b3:b0:ca:98:f6:46:
                    08:12:43:13:ac:c2:1d:74:ba:07:be:55:4f:f9:b6:
                    cd:0f:a5:be:b7:5d:82:f6:7a:a6:11:94:13:92:5f:
                    2b:39:89:90:9a:00:90:5c:8c:48:3b:77:a9:05:fb:
                    79:9f:c1:ed:e4:b6:f5:19:a8:40:6c:40:0b:09:f6:
                    25:88:ea:3c:7d:df:c7:4f:18:a8:06:82:1f:e2:dd:
                    78:09:13:7c:5e:55:94:54:f0:2c:05:83:3a:e2:09:
                    e1:f1:76:69:49:c6:db:d8:9b:06:1b:cb:44:1e:ac:
                    e6:82:9b:e5:8d:d7:fc:a4:5b:cb:a7:4b:52:34:2f:
                    13:29
                Exponent: 65537 (0x10001)
        X509v3 extensions:
            X509v3 Basic Constraints: 
                CA:FALSE
            X509v3 Subject Key Identifier: 
                DF:BD:39:E4:A4:65:71:63:32:AF:E7:46:56:F4:2C:1C:BC:0F:A6:F3
            X509v3 Authority Key Identifier: 
                keyid:73:DE:A0:43:0F:AE:B1:9E:E8:59:69:18:50:A1:1A:1F:D4:A1:E3:F0
                DirName:/C=US/ST=California/L=San Francisco/O=Copyleft Certificate Co/OU=My Organizational Unit/CN=ChangeMe/emailAddress=me@example.net
                serial:E9:BB:CB:16:C5:32:BE:3B

            X509v3 Extended Key Usage: 
                TLS Web Client Authentication
            X509v3 Key Usage: 
                Digital Signature
    Signature Algorithm: sha256WithRSAEncryption
         82:64:f3:f8:5c:f9:02:40:1f:91:f8:94:67:6a:66:70:ec:b2:
         32:1a:f5:a4:88:21:66:b7:3d:b2:93:f0:13:49:10:14:76:81:
         9f:ba:e8:a8:19:11:86:42:c1:72:25:31:14:cc:00:31:3a:ad:
         ee:7c:7c:83:cc:02:cf:81:56:f6:4b:93:7a:95:59:0e:4b:07:
         5e:ba:fb:12:ef:f5:7a:e3:48:7f:2b:5e:45:94:ac:bc:91:e9:
         be:f9:dc:48:2d:c0:99:37:de:1d:a2:3b:c5:a1:d3:c9:4b:a0:
         bf:17:78:a0:bf:95:91:c4:f6:82:70:c6:4e:51:37:ec:36:df:
         eb:45:36:b2:c7:2a:0d:6f:89:f3:ea:90:99:92:16:65:e3:c7:
         94:e7:a8:e0:a2:cc:54:70:8d:ee:1c:b0:2a:b4:ef:ae:58:3b:
         9a:f4:7e:4c:54:e1:0d:e0:db:7d:c5:4d:82:8c:94:48:72:f7:
         b2:ae:d4:ea:7c:a7:70:38:3d:b9:dd:af:d9:ed:94:ee:37:dd:
         9f:fe:14:64:28:0e:d0:6d:4e:48:2d:e8:e3:59:c0:77:fc:4b:
         76:c5:3c:5d:ff:e5:31:5c:2f:7a:5a:b1:1b:f8:eb:ae:8e:17:
         03:b3:d5:29:57:5a:ea:02:dd:11:45:7e:9d:77:de:a9:98:67:
         bf:b5:fc:6e
-----BEGIN CERTIFICATE-----
MIIFLzCCBBegAwIBAgIQMmp6GTB8d8D1/AtkWqbEpTANBgkqhkiG9w0BAQsFADCB
rzELMAkGA1UEBhMCVVMxEzARBgNVBAgMCkNhbGlmb3JuaWExFjAUBgNVBAcMDVNh
biBGcmFuY2lzY28xIDAeBgNVBAoMF0NvcHlsZWZ0IENlcnRpZmljYXRlIENvMR8w
HQYDVQQLDBZNeSBPcmdhbml6YXRpb25hbCBVbml0MREwDwYDVQQDDAhDaGFuZ2VN
ZTEdMBsGCSqGSIb3DQEJARYObWVAZXhhbXBsZS5uZXQwHhcNMjMxMTExMDE0NTE4
WhcNMjQxMTEwMDE0NTE4WjCBuzELMAkGA1UEBhMCVVMxCzAJBgNVBAgMAk9IMRMw
EQYDVQQHDApDaW5jaW5uYXRpMSEwHwYDVQQKDBhVbml2ZXJzaXR5IG9mIENpbmNp
bm5hdGkxKjAoBgNVBAsMIURlcHQuIEVsZWMuIENvbXAuIEVuZy4gQ29tcC4gU2Np
LjERMA8GA1UEAwwIY2xpZW50ODQxKDAmBgkqhkiG9w0BCQEWGWZyYW5jb0BnYXVz
cy5lY2Vjcy51Yy5lZHUwggEiMA0GCSqGSIb3DQEBAQUAA4IBDwAwggEKAoIBAQDI
Hld7pZBrCuluSAZPZSxDRl2EQzWHKkteN6wj4CtUvJfYb1NUMdjXAaA9zUUMu1Qn
4yw6FZCnlwIO2QSBQmkrS8tIGdp/NTAZWHyapefj+eNNWuR18+43CEodEe/3tAWk
aE08z68v8MVVtfYCIb5QpGqKCkj/8DsJ2xYVyrlQfbOwypj2RggSQxOswh10uge+
VU/5ts0Ppb63XYL2eqYRlBOSXys5iZCaAJBcjEg7d6kF+3mfwe3ktvUZqEBsQAsJ
9iWI6jx938dPGKgGgh/i3XgJE3xeVZRU8CwFgzriCeHxdmlJxtvYmwYby0QerOaC
m+WN1/ykW8unS1I0LxMpAgMBAAGjggE3MIIBMzAJBgNVHRMEAjAAMB0GA1UdDgQW
BBTfvTnkpGVxYzKv50ZW9CwcvA+m8zCB5AYDVR0jBIHcMIHZgBRz3qBDD66xnuhZ
aRhQoRof1KHj8KGBtaSBsjCBrzELMAkGA1UEBhMCVVMxEzARBgNVBAgMCkNhbGlm
b3JuaWExFjAUBgNVBAcMDVNhbiBGcmFuY2lzY28xIDAeBgNVBAoMF0NvcHlsZWZ0
IENlcnRpZmljYXRlIENvMR8wHQYDVQQLDBZNeSBPcmdhbml6YXRpb25hbCBVbml0
MREwDwYDVQQDDAhDaGFuZ2VNZTEdMBsGCSqGSIb3DQEJARYObWVAZXhhbXBsZS5u
ZXSCCQDpu8sWxTK+OzATBgNVHSUEDDAKBggrBgEFBQcDAjALBgNVHQ8EBAMCB4Aw
DQYJKoZIhvcNAQELBQADggEBAIJk8/hc+QJAH5H4lGdqZnDssjIa9aSIIWa3PbKT
8BNJEBR2gZ+66KgZEYZCwXIlMRTMADE6re58fIPMAs+BVvZLk3qVWQ5LB166+xLv
9XrjSH8rXkWUrLyR6b753EgtwJk33h2iO8Wh08lLoL8XeKC/lZHE9oJwxk5RN+w2
3+tFNrLHKg1vifPqkJmSFmXjx5TnqOCizFRwje4csCq0765YO5r0fkxU4Q3g233F
TYKMlEhy97Ku1Op8p3A4Pbndr9ntlO433Z/+FGQoDtBtTkgt6ONZwHf8S3bFPF3/
5TFcL3pasRv4666OFwOz1SlXWuoC3RFFfp133qmYZ7+1/G4=
-----END CERTIFICATE-----
