Certificate:
    Data:
        Version: 3 (0x2)
        Serial Number:
            88:5b:6e:9f:9e:15:64:60:75:13:b8:1f:ff:17:98:df
    Signature Algorithm: sha256WithRSAEncryption
        Issuer: C=US, ST=California, L=San Francisco, O=Copyleft Certificate Co, OU=My Organizational Unit, CN=ChangeMe/emailAddress=me@example.net
        Validity
            Not Before: Nov 11 01:43:05 2023 GMT
            Not After : Nov 10 01:43:05 2024 GMT
        Subject: C=US, ST=OH, L=Cincinnati, O=University of Cincinnati, OU=Dept. Elec. Comp. Eng. Comp. Sci., CN=client51/emailAddress=franco@gauss.ececs.uc.edu
        Subject Public Key Info:
            Public Key Algorithm: rsaEncryption
                Public-Key: (2048 bit)
                Modulus:
                    00:d2:e7:3c:34:63:5d:4b:9f:dc:9b:26:cb:93:fc:
                    0b:03:4c:9f:53:38:e8:76:2c:18:99:16:ba:a3:3a:
                    30:5a:12:06:7e:f8:af:4e:b4:de:9c:fb:56:5c:c0:
                    64:32:68:1e:c4:bb:16:f0:59:2d:9b:ee:f8:9d:0e:
                    5d:bf:4b:d8:ac:06:0b:f6:c5:7e:ff:5d:bf:34:f2:
                    90:c4:b0:c6:68:d4:31:8e:8b:90:c3:6d:b4:cc:90:
                    65:20:90:a1:77:ac:e9:86:cf:b5:6d:cd:15:93:2c:
                    77:81:de:47:72:94:2c:a4:e8:36:41:a5:df:48:3f:
                    27:60:bb:af:a2:ee:83:d5:2b:27:b7:21:52:e6:77:
                    ce:7c:e9:c0:19:0d:6e:85:1e:28:e4:34:9b:bf:25:
                    f3:23:8e:3b:bd:4c:7b:48:64:dd:51:85:f2:d6:ab:
                    ac:19:25:5e:2e:18:3b:7b:81:d0:35:84:7c:a4:de:
                    31:37:69:22:82:77:42:75:cc:0e:4d:48:c1:6b:0a:
                    a8:19:10:eb:b7:50:cc:87:c2:86:6c:85:d4:24:45:
                    b3:e9:7e:1e:3f:73:12:38:fb:fb:83:1b:54:ad:1b:
                    27:3d:bc:3f:7e:3a:3f:b9:ab:03:6a:c0:6e:11:58:
                    42:c6:7c:d4:c4:ac:3e:a9:c5:e6:aa:8c:f5:2a:2f:
                    13:19
                Exponent: 65537 (0x10001)
        X509v3 extensions:
            X509v3 Basic Constraints: 
                CA:FALSE
            X509v3 Subject Key Identifier: 
                B3:30:3F:9D:23:98:4A:90:33:90:05:E0:EA:4F:F0:6D:51:A1:78:A1
            X509v3 Authority Key Identifier: 
                keyid:73:DE:A0:43:0F:AE:B1:9E:E8:59:69:18:50:A1:1A:1F:D4:A1:E3:F0
                DirName:/C=US/ST=California/L=San Francisco/O=Copyleft Certificate Co/OU=My Organizational Unit/CN=ChangeMe/emailAddress=me@example.net
                serial:E9:BB:CB:16:C5:32:BE:3B

            X509v3 Extended Key Usage: 
                TLS Web Client Authentication
            X509v3 Key Usage: 
                Digital Signature
    Signature Algorithm: sha256WithRSAEncryption
         15:0f:ea:99:06:ab:b2:bf:ee:f6:23:89:06:cd:ac:c0:f9:0a:
         b0:32:d2:2b:7e:ec:9f:62:d5:e2:4c:62:ee:f7:c7:42:07:e8:
         5d:3b:fa:cd:c4:f4:1f:96:10:b1:32:52:47:33:ee:c1:e5:5e:
         ec:dc:87:da:5b:34:99:27:04:5e:bf:1f:44:5f:42:ee:cd:8e:
         69:28:6c:a1:3c:b1:55:53:b7:98:55:fe:01:ea:a6:51:87:d6:
         50:07:53:48:91:05:9f:c9:d9:47:62:ba:10:b0:e7:cc:25:45:
         81:34:40:53:32:8a:54:71:b7:5e:5f:2c:42:8d:1b:f5:c8:f4:
         21:65:f8:7d:93:bf:8d:80:11:34:9d:96:5d:72:7d:6d:96:32:
         1e:b4:f7:f7:98:53:36:82:3f:78:64:2e:9a:03:3e:ad:e4:ca:
         9e:78:9a:ab:44:36:a4:0b:72:e3:9f:d9:df:49:9d:dc:04:1b:
         52:4b:4a:75:a5:63:3e:39:ca:f4:9b:f6:e4:8d:89:86:0c:8a:
         48:33:87:d0:ff:a3:76:4a:8f:52:90:ce:2d:77:d9:cd:bb:e9:
         ef:60:0a:bb:4d:17:8c:d7:05:93:bc:4c:42:d0:b5:86:d7:a2:
         38:51:20:20:93:92:4f:91:27:19:58:8e:d3:fc:e0:21:81:c8:
         64:d9:29:e0
-----BEGIN CERTIFICATE-----
MIIFMDCCBBigAwIBAgIRAIhbbp+eFWRgdRO4H/8XmN8wDQYJKoZIhvcNAQELBQAw
ga8xCzAJBgNVBAYTAlVTMRMwEQYDVQQIDApDYWxpZm9ybmlhMRYwFAYDVQQHDA1T
YW4gRnJhbmNpc2NvMSAwHgYDVQQKDBdDb3B5bGVmdCBDZXJ0aWZpY2F0ZSBDbzEf
MB0GA1UECwwWTXkgT3JnYW5pemF0aW9uYWwgVW5pdDERMA8GA1UEAwwIQ2hhbmdl
TWUxHTAbBgkqhkiG9w0BCQEWDm1lQGV4YW1wbGUubmV0MB4XDTIzMTExMTAxNDMw
NVoXDTI0MTExMDAxNDMwNVowgbsxCzAJBgNVBAYTAlVTMQswCQYDVQQIDAJPSDET
MBEGA1UEBwwKQ2luY2lubmF0aTEhMB8GA1UECgwYVW5pdmVyc2l0eSBvZiBDaW5j
aW5uYXRpMSowKAYDVQQLDCFEZXB0LiBFbGVjLiBDb21wLiBFbmcuIENvbXAuIFNj
aS4xETAPBgNVBAMMCGNsaWVudDUxMSgwJgYJKoZIhvcNAQkBFhlmcmFuY29AZ2F1
c3MuZWNlY3MudWMuZWR1MIIBIjANBgkqhkiG9w0BAQEFAAOCAQ8AMIIBCgKCAQEA
0uc8NGNdS5/cmybLk/wLA0yfUzjodiwYmRa6ozowWhIGfvivTrTenPtWXMBkMmge
xLsW8Fktm+74nQ5dv0vYrAYL9sV+/12/NPKQxLDGaNQxjouQw220zJBlIJChd6zp
hs+1bc0Vkyx3gd5HcpQspOg2QaXfSD8nYLuvou6D1SsntyFS5nfOfOnAGQ1uhR4o
5DSbvyXzI447vUx7SGTdUYXy1qusGSVeLhg7e4HQNYR8pN4xN2kigndCdcwOTUjB
awqoGRDrt1DMh8KGbIXUJEWz6X4eP3MSOPv7gxtUrRsnPbw/fjo/uasDasBuEVhC
xnzUxKw+qcXmqoz1Ki8TGQIDAQABo4IBNzCCATMwCQYDVR0TBAIwADAdBgNVHQ4E
FgQUszA/nSOYSpAzkAXg6k/wbVGheKEwgeQGA1UdIwSB3DCB2YAUc96gQw+usZ7o
WWkYUKEaH9Sh4/ChgbWkgbIwga8xCzAJBgNVBAYTAlVTMRMwEQYDVQQIDApDYWxp
Zm9ybmlhMRYwFAYDVQQHDA1TYW4gRnJhbmNpc2NvMSAwHgYDVQQKDBdDb3B5bGVm
dCBDZXJ0aWZpY2F0ZSBDbzEfMB0GA1UECwwWTXkgT3JnYW5pemF0aW9uYWwgVW5p
dDERMA8GA1UEAwwIQ2hhbmdlTWUxHTAbBgkqhkiG9w0BCQEWDm1lQGV4YW1wbGUu
bmV0ggkA6bvLFsUyvjswEwYDVR0lBAwwCgYIKwYBBQUHAwIwCwYDVR0PBAQDAgeA
MA0GCSqGSIb3DQEBCwUAA4IBAQAVD+qZBquyv+72I4kGzazA+QqwMtIrfuyfYtXi
TGLu98dCB+hdO/rNxPQflhCxMlJHM+7B5V7s3IfaWzSZJwRevx9EX0LuzY5pKGyh
PLFVU7eYVf4B6qZRh9ZQB1NIkQWfydlHYroQsOfMJUWBNEBTMopUcbdeXyxCjRv1
yPQhZfh9k7+NgBE0nZZdcn1tljIetPf3mFM2gj94ZC6aAz6t5MqeeJqrRDakC3Lj
n9nfSZ3cBBtSS0p1pWM+Ocr0m/bkjYmGDIpIM4fQ/6N2So9SkM4td9nNu+nvYAq7
TReM1wWTvExC0LWG16I4USAgk5JPkScZWI7T/OAhgchk2Sng
-----END CERTIFICATE-----
