Certificate:
    Data:
        Version: 3 (0x2)
        Serial Number:
            c5:70:7e:0b:0d:64:43:2f:1a:79:c3:8e:2e:2f:e7:ec
    Signature Algorithm: sha256WithRSAEncryption
        Issuer: C=US, ST=California, L=San Francisco, O=Copyleft Certificate Co, OU=My Organizational Unit, CN=ChangeMe/emailAddress=me@example.net
        Validity
            Not Before: Jan 23 18:27:19 2021 GMT
            Not After : Jan 23 18:27:19 2022 GMT
        Subject: C=US, ST=OH, L=Cincinnati, O=University of Cincinnati, OU=Dept. Electrical Eng. and Computer Sci., CN=client2/emailAddress=franco@gauss.ececs.uc.edu
        Subject Public Key Info:
            Public Key Algorithm: rsaEncryption
                Public-Key: (2048 bit)
                Modulus:
                    00:df:0c:e8:98:70:5a:65:a6:cf:57:c8:ac:ab:d3:
                    8f:54:fa:60:88:36:6d:7d:9e:3f:e4:52:d8:a8:a3:
                    42:c8:91:75:91:02:63:b5:a2:9f:d7:bf:63:b4:a8:
                    f6:ef:6a:eb:1e:a8:42:13:f6:00:6a:a5:33:b3:3e:
                    11:34:ae:55:89:11:23:bc:11:c8:a9:cd:b9:31:60:
                    39:d2:9a:bd:a1:f9:70:6c:fb:54:e6:91:fb:f3:cb:
                    f3:0d:85:3a:c9:2e:14:11:64:45:d4:0f:20:a2:bb:
                    1b:e2:82:3c:a1:39:92:15:8b:52:3b:99:97:04:2f:
                    19:5f:99:49:d4:f1:b1:0c:09:d1:40:60:aa:b4:52:
                    29:c4:d0:2d:af:67:32:86:1b:5a:9a:21:6a:eb:c8:
                    c6:05:e3:5f:7c:3c:17:98:f6:9b:94:b0:22:70:4c:
                    6b:f5:fb:a8:30:87:67:61:fb:dc:1d:6d:1b:17:82:
                    ec:87:47:ee:7f:ad:18:8c:0a:fc:6b:9c:07:84:e5:
                    df:b0:55:f9:e1:3b:74:6f:19:dd:e5:c3:80:f0:c0:
                    35:6d:77:e6:7b:af:6b:0c:4b:14:e7:2b:e8:69:9d:
                    92:ba:3e:82:23:64:13:61:21:db:2d:12:15:b4:cb:
                    c1:7e:68:f3:8b:f4:97:a0:b8:ea:b2:e3:48:67:5b:
                    67:bb
                Exponent: 65537 (0x10001)
        X509v3 extensions:
            X509v3 Basic Constraints: 
                CA:FALSE
            X509v3 Subject Key Identifier: 
                AF:E8:34:1C:BD:11:68:60:4F:B6:F6:E2:17:A3:BB:36:A8:D2:B9:64
            X509v3 Authority Key Identifier: 
                keyid:EF:DC:B6:3D:4B:FD:A7:87:05:C5:22:3D:8B:DC:BF:99:2A:EE:E4:DB
                DirName:/C=US/ST=California/L=San Francisco/O=Copyleft Certificate Co/OU=My Organizational Unit/CN=ChangeMe/emailAddress=me@example.net
                serial:87:1E:1D:DC:6B:8C:66:88

            X509v3 Extended Key Usage: 
                TLS Web Client Authentication
            X509v3 Key Usage: 
                Digital Signature
    Signature Algorithm: sha256WithRSAEncryption
         a1:a0:f7:02:af:93:26:6f:eb:80:91:d3:b4:db:fc:ad:0e:d5:
         81:e6:99:9f:69:c0:ba:75:78:a3:8e:2a:60:9d:75:8a:18:76:
         f2:3d:81:40:c3:0b:50:ba:20:cf:b4:f0:50:5f:4c:99:da:c2:
         23:20:f8:80:f2:64:ad:64:a3:e3:7b:7f:74:66:f2:b8:cc:39:
         7d:84:34:02:0d:6c:d0:46:61:c7:5d:ab:9b:88:4e:e4:2b:0b:
         7b:64:38:19:45:2a:91:88:ba:a3:bd:25:28:5f:93:d7:53:dd:
         03:d8:a1:71:82:72:8d:41:ca:d1:85:83:77:49:f7:c8:da:1c:
         31:fb:5e:a3:7f:48:ab:9b:ff:46:fd:c8:06:34:89:1e:c1:dc:
         2b:7b:4d:25:77:da:f0:1f:03:21:f9:62:35:7f:2d:a3:50:8c:
         6c:44:a3:8c:f6:22:6b:4c:d9:17:3e:f0:a3:f0:0e:20:18:20:
         20:9a:83:99:46:88:54:38:3d:04:74:f0:d4:da:08:44:01:4e:
         62:9e:92:db:3e:ed:12:3d:2f:1f:1b:81:a1:31:ae:a6:0d:37:
         b0:2a:0e:e8:df:5f:c6:0a:b3:74:a2:24:26:76:ab:33:e8:84:
         2d:09:e6:45:d7:1c:d9:aa:4c:c5:81:5e:0a:89:96:bb:09:8f:
         c0:ff:d7:37
-----BEGIN CERTIFICATE-----
MIIFNTCCBB2gAwIBAgIRAMVwfgsNZEMvGnnDji4v5+wwDQYJKoZIhvcNAQELBQAw
ga8xCzAJBgNVBAYTAlVTMRMwEQYDVQQIDApDYWxpZm9ybmlhMRYwFAYDVQQHDA1T
YW4gRnJhbmNpc2NvMSAwHgYDVQQKDBdDb3B5bGVmdCBDZXJ0aWZpY2F0ZSBDbzEf
MB0GA1UECwwWTXkgT3JnYW5pemF0aW9uYWwgVW5pdDERMA8GA1UEAwwIQ2hhbmdl
TWUxHTAbBgkqhkiG9w0BCQEWDm1lQGV4YW1wbGUubmV0MB4XDTIxMDEyMzE4Mjcx
OVoXDTIyMDEyMzE4MjcxOVowgcAxCzAJBgNVBAYTAlVTMQswCQYDVQQIDAJPSDET
MBEGA1UEBwwKQ2luY2lubmF0aTEhMB8GA1UECgwYVW5pdmVyc2l0eSBvZiBDaW5j
aW5uYXRpMTAwLgYDVQQLDCdEZXB0LiBFbGVjdHJpY2FsIEVuZy4gYW5kIENvbXB1
dGVyIFNjaS4xEDAOBgNVBAMMB2NsaWVudDIxKDAmBgkqhkiG9w0BCQEWGWZyYW5j
b0BnYXVzcy5lY2Vjcy51Yy5lZHUwggEiMA0GCSqGSIb3DQEBAQUAA4IBDwAwggEK
AoIBAQDfDOiYcFplps9XyKyr049U+mCINm19nj/kUtioo0LIkXWRAmO1op/Xv2O0
qPbvauseqEIT9gBqpTOzPhE0rlWJESO8EcipzbkxYDnSmr2h+XBs+1Tmkfvzy/MN
hTrJLhQRZEXUDyCiuxvigjyhOZIVi1I7mZcELxlfmUnU8bEMCdFAYKq0UinE0C2v
ZzKGG1qaIWrryMYF4198PBeY9puUsCJwTGv1+6gwh2dh+9wdbRsXguyHR+5/rRiM
CvxrnAeE5d+wVfnhO3RvGd3lw4DwwDVtd+Z7r2sMSxTnK+hpnZK6PoIjZBNhIdst
EhW0y8F+aPOL9JeguOqy40hnW2e7AgMBAAGjggE3MIIBMzAJBgNVHRMEAjAAMB0G
A1UdDgQWBBSv6DQcvRFoYE+29uIXo7s2qNK5ZDCB5AYDVR0jBIHcMIHZgBTv3LY9
S/2nhwXFIj2L3L+ZKu7k26GBtaSBsjCBrzELMAkGA1UEBhMCVVMxEzARBgNVBAgM
CkNhbGlmb3JuaWExFjAUBgNVBAcMDVNhbiBGcmFuY2lzY28xIDAeBgNVBAoMF0Nv
cHlsZWZ0IENlcnRpZmljYXRlIENvMR8wHQYDVQQLDBZNeSBPcmdhbml6YXRpb25h
bCBVbml0MREwDwYDVQQDDAhDaGFuZ2VNZTEdMBsGCSqGSIb3DQEJARYObWVAZXhh
bXBsZS5uZXSCCQCHHh3ca4xmiDATBgNVHSUEDDAKBggrBgEFBQcDAjALBgNVHQ8E
BAMCB4AwDQYJKoZIhvcNAQELBQADggEBAKGg9wKvkyZv64CR07Tb/K0O1YHmmZ9p
wLp1eKOOKmCddYoYdvI9gUDDC1C6IM+08FBfTJnawiMg+IDyZK1ko+N7f3Rm8rjM
OX2ENAINbNBGYcddq5uITuQrC3tkOBlFKpGIuqO9JShfk9dT3QPYoXGCco1BytGF
g3dJ98jaHDH7XqN/SKub/0b9yAY0iR7B3Ct7TSV32vAfAyH5YjV/LaNQjGxEo4z2
ImtM2Rc+8KPwDiAYICCag5lGiFQ4PQR08NTaCEQBTmKekts+7RI9Lx8bgaExrqYN
N7AqDujfX8YKs3SiJCZ2qzPohC0J5kXXHNmqTMWBXgqJlrsJj8D/1zc=
-----END CERTIFICATE-----
