Certificate:
    Data:
        Version: 3 (0x2)
        Serial Number:
            37:e2:8c:6c:cb:6f:9c:f4:a9:15:6c:38:ca:81:e4:b3
    Signature Algorithm: sha256WithRSAEncryption
        Issuer: C=US, ST=California, L=San Francisco, O=Copyleft Certificate Co, OU=My Organizational Unit, CN=ChangeMe/emailAddress=me@example.net
        Validity
            Not Before: Jan 23 18:27:42 2021 GMT
            Not After : Jan 23 18:27:42 2022 GMT
        Subject: C=US, ST=OH, L=Cincinnati, O=University of Cincinnati, OU=Dept. Electrical Eng. and Computer Sci., CN=client18/emailAddress=franco@gauss.ececs.uc.edu
        Subject Public Key Info:
            Public Key Algorithm: rsaEncryption
                Public-Key: (2048 bit)
                Modulus:
                    00:d5:f1:ea:4e:28:7a:bf:e8:e0:28:01:60:fc:e7:
                    43:69:14:95:98:f1:ee:c4:54:a2:e0:b0:e3:14:16:
                    bb:35:66:10:c8:06:54:e1:fe:12:5c:57:a7:3c:ba:
                    25:80:06:6c:b0:22:e4:be:1c:17:16:7e:c3:77:80:
                    02:75:6d:23:94:e9:9c:c2:55:a3:c2:2b:de:91:34:
                    3c:fc:cb:55:77:dc:ff:7d:9f:df:fe:62:07:c0:4c:
                    de:fc:4a:da:c8:52:ff:70:08:92:b2:44:8b:b5:bd:
                    25:70:e4:48:9d:bd:d4:ea:08:ae:7e:e8:3c:cc:16:
                    4e:6e:3b:72:ec:2c:b4:90:18:71:da:fb:d3:3e:a5:
                    7c:a4:f1:98:7e:e9:5b:db:97:19:a0:88:53:a4:b3:
                    56:dc:15:ac:ef:d1:46:76:ae:43:76:ae:fc:00:a3:
                    ad:a7:4b:37:e6:0f:45:36:c2:ee:97:b4:fb:3f:36:
                    35:80:2f:45:f8:10:5e:10:06:76:99:0e:38:dd:5b:
                    c5:fc:ec:ea:20:e2:21:a1:bb:c1:a4:79:e8:e5:f1:
                    ce:be:6f:48:95:7a:e2:3a:5f:8a:c4:65:27:ad:bb:
                    9f:b4:ba:bd:d0:84:30:3c:7b:59:60:cd:e0:6e:cc:
                    75:32:5f:e1:c9:5a:fd:da:44:81:95:77:8f:6a:8c:
                    b6:85
                Exponent: 65537 (0x10001)
        X509v3 extensions:
            X509v3 Basic Constraints: 
                CA:FALSE
            X509v3 Subject Key Identifier: 
                75:CE:4A:A6:05:AF:7B:81:25:2D:0E:0A:0F:E7:E7:A1:BF:2A:DD:BC
            X509v3 Authority Key Identifier: 
                keyid:EF:DC:B6:3D:4B:FD:A7:87:05:C5:22:3D:8B:DC:BF:99:2A:EE:E4:DB
                DirName:/C=US/ST=California/L=San Francisco/O=Copyleft Certificate Co/OU=My Organizational Unit/CN=ChangeMe/emailAddress=me@example.net
                serial:87:1E:1D:DC:6B:8C:66:88

            X509v3 Extended Key Usage: 
                TLS Web Client Authentication
            X509v3 Key Usage: 
                Digital Signature
    Signature Algorithm: sha256WithRSAEncryption
         25:c0:d7:2a:99:d9:dd:81:ae:10:3f:aa:4d:48:a4:3c:51:90:
         2c:41:94:49:20:ed:e8:a9:5a:2e:cd:2e:c5:c8:33:fe:f0:d1:
         7c:0c:de:fc:30:29:86:17:ea:a7:ae:72:65:e5:c8:52:75:fd:
         9c:c5:2f:c7:93:2c:84:01:46:3a:ca:a8:49:19:53:b3:d3:de:
         d8:21:e7:e3:58:a0:d1:61:5c:67:d7:84:7a:5c:df:f8:f9:d0:
         e3:2c:95:76:f9:cc:c4:4b:b7:ed:7e:8f:4f:59:c1:3c:c9:8b:
         cb:15:46:45:72:6a:e2:b1:b7:8d:a4:25:6b:70:e0:d8:60:b0:
         ac:01:98:71:a3:bb:b2:9b:5d:17:8e:fe:ba:ab:44:b4:10:04:
         83:f5:8a:94:05:ed:48:61:f5:e8:95:e4:99:83:ae:d8:66:34:
         88:96:e0:40:57:de:41:b1:e8:ce:76:b1:32:5c:e1:6d:b4:8b:
         94:07:1e:3f:29:6a:7a:05:d5:86:fb:95:03:f1:3e:cc:21:e2:
         73:9a:32:35:f1:ed:be:e4:dc:56:5d:05:15:bd:4b:4f:c0:ef:
         a8:52:70:e5:e8:8e:ce:63:37:30:53:6d:c0:07:32:97:ea:d0:
         d2:0f:1c:54:66:66:46:34:a3:63:3f:fa:63:35:6f:1c:99:cc:
         87:c9:ae:21
-----BEGIN CERTIFICATE-----
MIIFNTCCBB2gAwIBAgIQN+KMbMtvnPSpFWw4yoHkszANBgkqhkiG9w0BAQsFADCB
rzELMAkGA1UEBhMCVVMxEzARBgNVBAgMCkNhbGlmb3JuaWExFjAUBgNVBAcMDVNh
biBGcmFuY2lzY28xIDAeBgNVBAoMF0NvcHlsZWZ0IENlcnRpZmljYXRlIENvMR8w
HQYDVQQLDBZNeSBPcmdhbml6YXRpb25hbCBVbml0MREwDwYDVQQDDAhDaGFuZ2VN
ZTEdMBsGCSqGSIb3DQEJARYObWVAZXhhbXBsZS5uZXQwHhcNMjEwMTIzMTgyNzQy
WhcNMjIwMTIzMTgyNzQyWjCBwTELMAkGA1UEBhMCVVMxCzAJBgNVBAgMAk9IMRMw
EQYDVQQHDApDaW5jaW5uYXRpMSEwHwYDVQQKDBhVbml2ZXJzaXR5IG9mIENpbmNp
bm5hdGkxMDAuBgNVBAsMJ0RlcHQuIEVsZWN0cmljYWwgRW5nLiBhbmQgQ29tcHV0
ZXIgU2NpLjERMA8GA1UEAwwIY2xpZW50MTgxKDAmBgkqhkiG9w0BCQEWGWZyYW5j
b0BnYXVzcy5lY2Vjcy51Yy5lZHUwggEiMA0GCSqGSIb3DQEBAQUAA4IBDwAwggEK
AoIBAQDV8epOKHq/6OAoAWD850NpFJWY8e7EVKLgsOMUFrs1ZhDIBlTh/hJcV6c8
uiWABmywIuS+HBcWfsN3gAJ1bSOU6ZzCVaPCK96RNDz8y1V33P99n9/+YgfATN78
StrIUv9wCJKyRIu1vSVw5EidvdTqCK5+6DzMFk5uO3LsLLSQGHHa+9M+pXyk8Zh+
6VvblxmgiFOks1bcFazv0UZ2rkN2rvwAo62nSzfmD0U2wu6XtPs/NjWAL0X4EF4Q
BnaZDjjdW8X87Oog4iGhu8Gkeejl8c6+b0iVeuI6X4rEZSetu5+0ur3QhDA8e1lg
zeBuzHUyX+HJWv3aRIGVd49qjLaFAgMBAAGjggE3MIIBMzAJBgNVHRMEAjAAMB0G
A1UdDgQWBBR1zkqmBa97gSUtDgoP5+ehvyrdvDCB5AYDVR0jBIHcMIHZgBTv3LY9
S/2nhwXFIj2L3L+ZKu7k26GBtaSBsjCBrzELMAkGA1UEBhMCVVMxEzARBgNVBAgM
CkNhbGlmb3JuaWExFjAUBgNVBAcMDVNhbiBGcmFuY2lzY28xIDAeBgNVBAoMF0Nv
cHlsZWZ0IENlcnRpZmljYXRlIENvMR8wHQYDVQQLDBZNeSBPcmdhbml6YXRpb25h
bCBVbml0MREwDwYDVQQDDAhDaGFuZ2VNZTEdMBsGCSqGSIb3DQEJARYObWVAZXhh
bXBsZS5uZXSCCQCHHh3ca4xmiDATBgNVHSUEDDAKBggrBgEFBQcDAjALBgNVHQ8E
BAMCB4AwDQYJKoZIhvcNAQELBQADggEBACXA1yqZ2d2BrhA/qk1IpDxRkCxBlEkg
7eipWi7NLsXIM/7w0XwM3vwwKYYX6qeucmXlyFJ1/ZzFL8eTLIQBRjrKqEkZU7PT
3tgh5+NYoNFhXGfXhHpc3/j50OMslXb5zMRLt+1+j09ZwTzJi8sVRkVyauKxt42k
JWtw4NhgsKwBmHGju7KbXReO/rqrRLQQBIP1ipQF7Uhh9eiV5JmDrthmNIiW4EBX
3kGx6M52sTJc4W20i5QHHj8panoF1Yb7lQPxPswh4nOaMjXx7b7k3FZdBRW9S0/A
76hScOXojs5jNzBTbcAHMpfq0NIPHFRmZkY0o2M/+mM1bxyZzIfJriE=
-----END CERTIFICATE-----
