Certificate:
    Data:
        Version: 3 (0x2)
        Serial Number:
            b7:81:61:c6:e6:0a:0e:20:b5:4b:67:95:9c:11:83:1e
    Signature Algorithm: sha256WithRSAEncryption
        Issuer: C=US, ST=California, L=San Francisco, O=Copyleft Certificate Co, OU=My Organizational Unit, CN=ChangeMe/emailAddress=me@example.net
        Validity
            Not Before: Nov 11 10:56:48 2023 GMT
            Not After : Nov 10 10:56:48 2024 GMT
        Subject: C=US, ST=OH, L=Cincinnati, O=University of Cincinnati, OU=Dept. Elec. Comp. Eng. Comp. Sci., CN=client23/emailAddress=franco@gauss.ececs.uc.edu
        Subject Public Key Info:
            Public Key Algorithm: rsaEncryption
                Public-Key: (2048 bit)
                Modulus:
                    00:a7:b5:63:d4:ca:b1:6f:58:e9:b5:e2:a8:32:5a:
                    d7:da:05:9d:4f:91:8b:a4:1c:e9:29:f2:4f:7d:ff:
                    27:67:41:af:d2:ca:f3:cf:a0:79:a1:db:b2:e8:16:
                    90:30:23:27:33:bb:64:49:f3:50:65:e5:94:ac:a9:
                    ff:bb:4c:2f:25:47:6d:a4:a8:33:2a:bf:e2:57:88:
                    2d:e4:5f:4d:ad:dd:27:fe:d8:0c:f0:36:e7:52:7c:
                    67:e2:0f:23:6e:d5:83:fc:1f:28:db:0e:84:9e:ae:
                    30:04:43:fd:4b:bb:c8:6e:63:34:4b:ae:45:78:e1:
                    e6:d8:4b:8a:a2:57:66:ac:5d:aa:7a:34:b5:ab:20:
                    47:cd:cf:ab:fb:a1:2d:34:45:e4:da:5d:ae:68:b7:
                    4f:55:7b:06:20:42:82:74:91:8d:64:61:05:ae:3c:
                    52:34:d9:5c:3c:b4:21:85:5c:eb:e6:0a:5f:16:cc:
                    44:82:6a:37:ea:e1:c3:22:06:64:08:b9:11:1c:06:
                    cb:ed:fb:30:9a:a1:ab:24:84:62:ab:c3:44:d5:5e:
                    ad:c5:d9:81:c4:51:de:1d:8c:04:d8:63:12:1f:b6:
                    ca:ed:ad:d4:0d:40:cc:38:67:2e:64:f1:25:b1:b2:
                    42:5f:d2:68:a0:0c:70:6a:9a:4e:0e:e2:e2:3b:9d:
                    a2:7b
                Exponent: 65537 (0x10001)
        X509v3 extensions:
            X509v3 Basic Constraints: 
                CA:FALSE
            X509v3 Subject Key Identifier: 
                40:99:0D:63:C5:F7:0F:FC:24:9F:F3:D5:B1:F1:BB:93:79:B9:2C:EF
            X509v3 Authority Key Identifier: 
                keyid:44:01:CC:06:0B:41:75:CB:C8:FB:C9:37:86:2D:9D:D2:D8:79:B6:8B
                DirName:/C=US/ST=California/L=San Francisco/O=Copyleft Certificate Co/OU=My Organizational Unit/CN=ChangeMe/emailAddress=me@example.net
                serial:AF:E8:E0:DD:C5:8B:0E:DD

            X509v3 Extended Key Usage: 
                TLS Web Client Authentication
            X509v3 Key Usage: 
                Digital Signature
    Signature Algorithm: sha256WithRSAEncryption
         71:27:25:a8:9a:11:e1:df:2e:11:ac:b0:ea:63:45:f2:66:af:
         b2:ca:42:3f:d7:0a:e1:0f:4b:39:29:0f:ba:e5:f2:6b:4d:20:
         00:af:af:8b:ff:a3:42:ca:59:9f:4a:09:b7:38:f3:e3:96:31:
         51:e3:5b:68:3f:02:d3:b8:12:89:8d:2a:11:7b:ea:09:6d:4a:
         a2:c0:fc:c3:ef:c1:16:a5:88:95:c2:f3:5c:e9:cb:1f:f2:8e:
         fa:93:c8:9e:ba:f6:26:6b:d4:4a:27:14:24:58:a8:a6:bb:51:
         2b:8e:9f:f6:8a:73:60:cd:9d:9c:ab:80:c4:0e:8e:84:fc:59:
         c4:44:2f:b2:b4:16:57:0a:76:70:f8:f4:6a:45:a0:bd:a8:4c:
         00:23:60:41:d1:21:54:6d:60:f0:2e:6d:9d:71:08:17:4a:f9:
         97:88:f8:ce:7a:05:95:46:71:5d:38:35:51:85:1d:e6:70:3a:
         5a:dd:63:9c:47:5d:e3:b8:f9:50:6a:45:2a:57:84:63:b1:30:
         f5:20:e6:f5:85:df:24:11:1c:67:8e:4b:b3:33:bf:2d:b4:51:
         90:fd:4f:94:13:bb:e1:bc:4d:18:2a:3b:1c:64:f9:53:dd:ca:
         f6:cd:6b:1e:2e:ee:03:99:ac:3b:01:87:1f:3e:99:fc:e8:a2:
         ea:ca:81:69
-----BEGIN CERTIFICATE-----
MIIFMDCCBBigAwIBAgIRALeBYcbmCg4gtUtnlZwRgx4wDQYJKoZIhvcNAQELBQAw
ga8xCzAJBgNVBAYTAlVTMRMwEQYDVQQIDApDYWxpZm9ybmlhMRYwFAYDVQQHDA1T
YW4gRnJhbmNpc2NvMSAwHgYDVQQKDBdDb3B5bGVmdCBDZXJ0aWZpY2F0ZSBDbzEf
MB0GA1UECwwWTXkgT3JnYW5pemF0aW9uYWwgVW5pdDERMA8GA1UEAwwIQ2hhbmdl
TWUxHTAbBgkqhkiG9w0BCQEWDm1lQGV4YW1wbGUubmV0MB4XDTIzMTExMTEwNTY0
OFoXDTI0MTExMDEwNTY0OFowgbsxCzAJBgNVBAYTAlVTMQswCQYDVQQIDAJPSDET
MBEGA1UEBwwKQ2luY2lubmF0aTEhMB8GA1UECgwYVW5pdmVyc2l0eSBvZiBDaW5j
aW5uYXRpMSowKAYDVQQLDCFEZXB0LiBFbGVjLiBDb21wLiBFbmcuIENvbXAuIFNj
aS4xETAPBgNVBAMMCGNsaWVudDIzMSgwJgYJKoZIhvcNAQkBFhlmcmFuY29AZ2F1
c3MuZWNlY3MudWMuZWR1MIIBIjANBgkqhkiG9w0BAQEFAAOCAQ8AMIIBCgKCAQEA
p7Vj1Mqxb1jpteKoMlrX2gWdT5GLpBzpKfJPff8nZ0Gv0srzz6B5oduy6BaQMCMn
M7tkSfNQZeWUrKn/u0wvJUdtpKgzKr/iV4gt5F9Nrd0n/tgM8DbnUnxn4g8jbtWD
/B8o2w6Enq4wBEP9S7vIbmM0S65FeOHm2EuKoldmrF2qejS1qyBHzc+r+6EtNEXk
2l2uaLdPVXsGIEKCdJGNZGEFrjxSNNlcPLQhhVzr5gpfFsxEgmo36uHDIgZkCLkR
HAbL7fswmqGrJIRiq8NE1V6txdmBxFHeHYwE2GMSH7bK7a3UDUDMOGcuZPElsbJC
X9JooAxwappODuLiO52iewIDAQABo4IBNzCCATMwCQYDVR0TBAIwADAdBgNVHQ4E
FgQUQJkNY8X3D/wkn/PVsfG7k3m5LO8wgeQGA1UdIwSB3DCB2YAURAHMBgtBdcvI
+8k3hi2d0th5touhgbWkgbIwga8xCzAJBgNVBAYTAlVTMRMwEQYDVQQIDApDYWxp
Zm9ybmlhMRYwFAYDVQQHDA1TYW4gRnJhbmNpc2NvMSAwHgYDVQQKDBdDb3B5bGVm
dCBDZXJ0aWZpY2F0ZSBDbzEfMB0GA1UECwwWTXkgT3JnYW5pemF0aW9uYWwgVW5p
dDERMA8GA1UEAwwIQ2hhbmdlTWUxHTAbBgkqhkiG9w0BCQEWDm1lQGV4YW1wbGUu
bmV0ggkAr+jg3cWLDt0wEwYDVR0lBAwwCgYIKwYBBQUHAwIwCwYDVR0PBAQDAgeA
MA0GCSqGSIb3DQEBCwUAA4IBAQBxJyWomhHh3y4RrLDqY0XyZq+yykI/1wrhD0s5
KQ+65fJrTSAAr6+L/6NCylmfSgm3OPPjljFR41toPwLTuBKJjSoRe+oJbUqiwPzD
78EWpYiVwvNc6csf8o76k8ieuvYma9RKJxQkWKimu1Erjp/2inNgzZ2cq4DEDo6E
/FnERC+ytBZXCnZw+PRqRaC9qEwAI2BB0SFUbWDwLm2dcQgXSvmXiPjOegWVRnFd
ODVRhR3mcDpa3WOcR13juPlQakUqV4RjsTD1IOb1hd8kERxnjkuzM78ttFGQ/U+U
E7vhvE0YKjscZPlT3cr2zWseLu4Dmaw7AYcfPpn86KLqyoFp
-----END CERTIFICATE-----
