Certificate:
    Data:
        Version: 3 (0x2)
        Serial Number:
            18:9b:a5:b0:a5:cf:c6:a4:a8:da:47:e1:61:bb:44:f4
    Signature Algorithm: sha256WithRSAEncryption
        Issuer: C=US, ST=California, L=San Francisco, O=Copyleft Certificate Co, OU=My Organizational Unit, CN=ChangeMe/emailAddress=me@example.net
        Validity
            Not Before: Nov 11 01:44:50 2023 GMT
            Not After : Nov 10 01:44:50 2024 GMT
        Subject: C=US, ST=OH, L=Cincinnati, O=University of Cincinnati, OU=Dept. Elec. Comp. Eng. Comp. Sci., CN=client77/emailAddress=franco@gauss.ececs.uc.edu
        Subject Public Key Info:
            Public Key Algorithm: rsaEncryption
                Public-Key: (2048 bit)
                Modulus:
                    00:c1:be:27:b8:db:16:b9:bc:37:00:cc:25:fd:01:
                    67:19:ba:9c:ea:93:f0:16:1c:2a:30:2b:2f:c6:f4:
                    f6:8e:2b:a8:e7:fd:c2:6a:7b:06:7d:22:f2:8e:a2:
                    a7:22:e0:df:bc:44:f1:ea:84:4f:c5:45:e0:72:a9:
                    b0:fb:27:4b:83:49:0b:d8:26:df:1e:2d:a9:37:c4:
                    5c:c1:c1:db:5c:a9:79:ca:5e:d7:9b:b0:87:f4:01:
                    54:b9:e9:15:e9:f7:91:02:b1:93:03:cd:d7:39:b1:
                    bb:55:e7:60:83:22:7c:e7:0a:ce:9f:f9:4f:a1:73:
                    2d:9e:01:18:62:2c:e7:b3:3c:ba:e6:96:03:0c:f3:
                    7d:51:84:e2:7d:74:0c:8a:95:9d:36:78:83:82:4c:
                    04:b9:94:60:37:d4:ea:b5:2f:47:ff:2d:d1:1a:54:
                    0c:03:38:4b:8c:66:ba:a5:95:ca:56:12:34:d0:e2:
                    4d:4f:3d:61:c9:86:58:4b:09:17:e6:94:5f:cf:33:
                    ba:83:5d:b1:cd:e9:e6:13:7f:dc:25:c0:ac:15:18:
                    ac:6f:53:ee:e9:7c:02:ef:17:f2:2c:a1:7b:e5:70:
                    03:b3:e6:e7:19:25:44:e0:6f:57:d3:df:e8:05:3c:
                    07:2f:96:9d:49:c3:6c:44:a4:7b:1e:06:86:b8:42:
                    b1:d7
                Exponent: 65537 (0x10001)
        X509v3 extensions:
            X509v3 Basic Constraints: 
                CA:FALSE
            X509v3 Subject Key Identifier: 
                BA:53:B9:F0:5C:5D:9E:5E:ED:A2:54:C4:C3:24:1C:4D:E8:0D:C2:7B
            X509v3 Authority Key Identifier: 
                keyid:73:DE:A0:43:0F:AE:B1:9E:E8:59:69:18:50:A1:1A:1F:D4:A1:E3:F0
                DirName:/C=US/ST=California/L=San Francisco/O=Copyleft Certificate Co/OU=My Organizational Unit/CN=ChangeMe/emailAddress=me@example.net
                serial:E9:BB:CB:16:C5:32:BE:3B

            X509v3 Extended Key Usage: 
                TLS Web Client Authentication
            X509v3 Key Usage: 
                Digital Signature
    Signature Algorithm: sha256WithRSAEncryption
         1f:31:d2:a0:fe:1f:ec:4a:e7:dc:3c:79:16:79:cd:d1:55:aa:
         96:09:02:ca:ec:60:b8:1b:2d:56:45:9e:d8:f9:d6:1a:00:47:
         cd:8a:11:0a:b1:b8:32:13:ee:00:71:b5:ed:0a:63:47:cf:4a:
         27:6d:c8:d0:bb:ac:9b:ac:31:c5:f6:98:b0:bc:ce:d1:84:b7:
         93:6f:d5:92:54:a8:b3:39:c7:25:42:f4:45:14:d5:fd:45:28:
         8f:0c:86:b9:18:29:34:5e:9d:0f:0b:c1:a5:f6:cc:a3:45:32:
         23:0e:1d:0b:dd:1b:08:a4:3c:fd:dc:f5:13:75:eb:f3:7c:71:
         2f:91:4a:c0:c5:6a:e6:ab:64:71:73:49:d3:6c:10:20:67:3e:
         a4:a0:62:43:d0:67:71:5e:53:45:00:7f:9c:5b:6e:e5:df:8e:
         0a:80:f1:0f:e2:f2:85:e1:a0:77:35:4d:25:94:ed:eb:87:79:
         04:70:ef:8b:9c:b8:44:04:cd:10:88:94:3d:22:d8:55:92:b8:
         39:a5:41:ae:13:83:38:d2:a1:c8:62:bf:a7:10:a1:c5:4f:a2:
         04:fa:bd:ec:b4:d3:e2:7f:b9:b5:b9:b1:d2:3e:20:30:66:03:
         d8:06:6d:ce:2b:6f:e7:8a:c8:48:23:00:95:b7:e2:38:1f:9c:
         9b:60:63:c2
-----BEGIN CERTIFICATE-----
MIIFLzCCBBegAwIBAgIQGJulsKXPxqSo2kfhYbtE9DANBgkqhkiG9w0BAQsFADCB
rzELMAkGA1UEBhMCVVMxEzARBgNVBAgMCkNhbGlmb3JuaWExFjAUBgNVBAcMDVNh
biBGcmFuY2lzY28xIDAeBgNVBAoMF0NvcHlsZWZ0IENlcnRpZmljYXRlIENvMR8w
HQYDVQQLDBZNeSBPcmdhbml6YXRpb25hbCBVbml0MREwDwYDVQQDDAhDaGFuZ2VN
ZTEdMBsGCSqGSIb3DQEJARYObWVAZXhhbXBsZS5uZXQwHhcNMjMxMTExMDE0NDUw
WhcNMjQxMTEwMDE0NDUwWjCBuzELMAkGA1UEBhMCVVMxCzAJBgNVBAgMAk9IMRMw
EQYDVQQHDApDaW5jaW5uYXRpMSEwHwYDVQQKDBhVbml2ZXJzaXR5IG9mIENpbmNp
bm5hdGkxKjAoBgNVBAsMIURlcHQuIEVsZWMuIENvbXAuIEVuZy4gQ29tcC4gU2Np
LjERMA8GA1UEAwwIY2xpZW50NzcxKDAmBgkqhkiG9w0BCQEWGWZyYW5jb0BnYXVz
cy5lY2Vjcy51Yy5lZHUwggEiMA0GCSqGSIb3DQEBAQUAA4IBDwAwggEKAoIBAQDB
vie42xa5vDcAzCX9AWcZupzqk/AWHCowKy/G9PaOK6jn/cJqewZ9IvKOoqci4N+8
RPHqhE/FReByqbD7J0uDSQvYJt8eLak3xFzBwdtcqXnKXtebsIf0AVS56RXp95EC
sZMDzdc5sbtV52CDInznCs6f+U+hcy2eARhiLOezPLrmlgMM831RhOJ9dAyKlZ02
eIOCTAS5lGA31Oq1L0f/LdEaVAwDOEuMZrqllcpWEjTQ4k1PPWHJhlhLCRfmlF/P
M7qDXbHN6eYTf9wlwKwVGKxvU+7pfALvF/IsoXvlcAOz5ucZJUTgb1fT3+gFPAcv
lp1Jw2xEpHseBoa4QrHXAgMBAAGjggE3MIIBMzAJBgNVHRMEAjAAMB0GA1UdDgQW
BBS6U7nwXF2eXu2iVMTDJBxN6A3CezCB5AYDVR0jBIHcMIHZgBRz3qBDD66xnuhZ
aRhQoRof1KHj8KGBtaSBsjCBrzELMAkGA1UEBhMCVVMxEzARBgNVBAgMCkNhbGlm
b3JuaWExFjAUBgNVBAcMDVNhbiBGcmFuY2lzY28xIDAeBgNVBAoMF0NvcHlsZWZ0
IENlcnRpZmljYXRlIENvMR8wHQYDVQQLDBZNeSBPcmdhbml6YXRpb25hbCBVbml0
MREwDwYDVQQDDAhDaGFuZ2VNZTEdMBsGCSqGSIb3DQEJARYObWVAZXhhbXBsZS5u
ZXSCCQDpu8sWxTK+OzATBgNVHSUEDDAKBggrBgEFBQcDAjALBgNVHQ8EBAMCB4Aw
DQYJKoZIhvcNAQELBQADggEBAB8x0qD+H+xK59w8eRZ5zdFVqpYJAsrsYLgbLVZF
ntj51hoAR82KEQqxuDIT7gBxte0KY0fPSidtyNC7rJusMcX2mLC8ztGEt5Nv1ZJU
qLM5xyVC9EUU1f1FKI8MhrkYKTRenQ8LwaX2zKNFMiMOHQvdGwikPP3c9RN16/N8
cS+RSsDFauarZHFzSdNsECBnPqSgYkPQZ3FeU0UAf5xbbuXfjgqA8Q/i8oXhoHc1
TSWU7euHeQRw74ucuEQEzRCIlD0i2FWSuDmlQa4TgzjSochiv6cQocVPogT6vey0
0+J/ubW5sdI+IDBmA9gGbc4rb+eKyEgjAJW34jgfnJtgY8I=
-----END CERTIFICATE-----
