Certificate:
    Data:
        Version: 3 (0x2)
        Serial Number:
            03:1e:49:19:84:57:2d:5e:57:67:35:1e:3b:4f:c4:0c
    Signature Algorithm: sha256WithRSAEncryption
        Issuer: C=US, ST=California, L=San Francisco, O=Copyleft Certificate Co, OU=My Organizational Unit, CN=ChangeMe/emailAddress=me@example.net
        Validity
            Not Before: Jan 23 18:28:24 2021 GMT
            Not After : Jan 23 18:28:24 2022 GMT
        Subject: C=US, ST=OH, L=Cincinnati, O=University of Cincinnati, OU=Dept. Electrical Eng. and Computer Sci., CN=client48/emailAddress=franco@gauss.ececs.uc.edu
        Subject Public Key Info:
            Public Key Algorithm: rsaEncryption
                Public-Key: (2048 bit)
                Modulus:
                    00:a4:c5:bf:3f:1a:67:a4:ca:cd:b9:5f:7f:a1:ba:
                    04:99:bb:71:f6:74:57:c5:e8:94:98:7a:8d:21:51:
                    98:23:e2:95:ad:cd:1b:e6:d6:cd:35:f7:89:e6:87:
                    64:c5:76:0b:6f:86:aa:ca:5b:e4:73:69:a0:4e:59:
                    03:6b:60:9d:47:56:04:2b:11:66:de:58:80:25:78:
                    ae:a2:f5:91:c2:4b:cb:01:15:b3:a4:79:92:93:3b:
                    f7:89:81:ab:7a:d2:91:d9:0c:59:bb:4f:d4:e5:4b:
                    49:9c:5a:85:8c:27:74:a6:ca:30:78:4e:04:e4:0e:
                    4f:02:b9:32:dc:99:b7:36:d3:a5:e8:4b:6d:93:82:
                    cf:f9:3b:0a:47:e1:dd:db:71:30:f5:22:7f:fb:b2:
                    70:4c:c3:22:33:0c:19:0e:60:8c:a2:ff:2d:43:c5:
                    d3:29:83:84:43:c0:27:9d:81:ea:3f:5e:d5:98:87:
                    b5:59:5e:5e:5b:25:ac:32:ae:0c:a0:8d:bc:f2:c1:
                    d1:39:c8:e9:1f:0c:fc:f5:44:17:41:81:d6:16:8a:
                    81:b0:c7:78:aa:c6:58:cb:6a:b7:e6:01:c5:1d:6f:
                    24:04:1b:fd:f8:f1:ea:17:03:84:cc:97:e0:71:ee:
                    a3:6e:fc:ca:20:60:67:35:c7:e2:69:a7:32:d0:bc:
                    26:6f
                Exponent: 65537 (0x10001)
        X509v3 extensions:
            X509v3 Basic Constraints: 
                CA:FALSE
            X509v3 Subject Key Identifier: 
                1A:71:E8:EC:0B:75:C7:07:D8:A0:94:75:09:05:4D:1F:5E:8B:A4:B7
            X509v3 Authority Key Identifier: 
                keyid:EF:DC:B6:3D:4B:FD:A7:87:05:C5:22:3D:8B:DC:BF:99:2A:EE:E4:DB
                DirName:/C=US/ST=California/L=San Francisco/O=Copyleft Certificate Co/OU=My Organizational Unit/CN=ChangeMe/emailAddress=me@example.net
                serial:87:1E:1D:DC:6B:8C:66:88

            X509v3 Extended Key Usage: 
                TLS Web Client Authentication
            X509v3 Key Usage: 
                Digital Signature
    Signature Algorithm: sha256WithRSAEncryption
         73:f4:38:f5:d4:58:d2:2a:b3:df:e4:2c:a4:0c:2e:f1:65:d8:
         32:e7:3c:1b:c7:f3:7f:1f:cb:90:78:fa:e9:4e:f5:25:69:bf:
         8d:24:61:5b:62:60:00:c8:08:50:d3:64:33:9b:56:28:94:2a:
         59:54:8b:24:54:59:34:30:e6:93:c0:74:d0:3b:a8:39:53:88:
         f1:c9:25:a4:b8:37:84:6f:37:10:b8:e3:c0:77:b7:53:46:ac:
         62:a7:e6:44:92:94:6f:40:ce:d3:c8:0c:9e:d8:e3:b6:46:e3:
         5e:05:f6:53:e5:8d:07:0c:80:7e:fd:03:12:b5:c9:6b:b3:96:
         74:c3:45:d1:62:1c:e5:18:a0:71:a4:e2:a6:f0:d9:a3:0b:ec:
         fd:fe:09:91:4d:26:b5:44:64:0a:7f:c1:bb:0b:ab:71:f1:e1:
         75:71:aa:1c:72:14:09:ef:81:4c:60:64:5d:8c:00:c1:64:dc:
         a3:db:51:f2:8d:f3:9b:a7:41:04:0c:6f:ba:bc:23:aa:f7:1d:
         9e:de:4d:49:29:20:a3:4d:11:49:06:d5:49:92:e7:14:97:fc:
         a6:6f:7a:a5:4e:50:2f:9e:70:99:b3:3a:4a:5f:83:41:24:5c:
         03:48:16:6d:da:78:73:ba:6e:94:02:ed:22:71:0e:45:d8:5e:
         81:8b:68:d3
-----BEGIN CERTIFICATE-----
MIIFNTCCBB2gAwIBAgIQAx5JGYRXLV5XZzUeO0/EDDANBgkqhkiG9w0BAQsFADCB
rzELMAkGA1UEBhMCVVMxEzARBgNVBAgMCkNhbGlmb3JuaWExFjAUBgNVBAcMDVNh
biBGcmFuY2lzY28xIDAeBgNVBAoMF0NvcHlsZWZ0IENlcnRpZmljYXRlIENvMR8w
HQYDVQQLDBZNeSBPcmdhbml6YXRpb25hbCBVbml0MREwDwYDVQQDDAhDaGFuZ2VN
ZTEdMBsGCSqGSIb3DQEJARYObWVAZXhhbXBsZS5uZXQwHhcNMjEwMTIzMTgyODI0
WhcNMjIwMTIzMTgyODI0WjCBwTELMAkGA1UEBhMCVVMxCzAJBgNVBAgMAk9IMRMw
EQYDVQQHDApDaW5jaW5uYXRpMSEwHwYDVQQKDBhVbml2ZXJzaXR5IG9mIENpbmNp
bm5hdGkxMDAuBgNVBAsMJ0RlcHQuIEVsZWN0cmljYWwgRW5nLiBhbmQgQ29tcHV0
ZXIgU2NpLjERMA8GA1UEAwwIY2xpZW50NDgxKDAmBgkqhkiG9w0BCQEWGWZyYW5j
b0BnYXVzcy5lY2Vjcy51Yy5lZHUwggEiMA0GCSqGSIb3DQEBAQUAA4IBDwAwggEK
AoIBAQCkxb8/Gmekys25X3+hugSZu3H2dFfF6JSYeo0hUZgj4pWtzRvm1s0194nm
h2TFdgtvhqrKW+RzaaBOWQNrYJ1HVgQrEWbeWIAleK6i9ZHCS8sBFbOkeZKTO/eJ
gat60pHZDFm7T9TlS0mcWoWMJ3SmyjB4TgTkDk8CuTLcmbc206XoS22Tgs/5OwpH
4d3bcTD1In/7snBMwyIzDBkOYIyi/y1DxdMpg4RDwCedgeo/XtWYh7VZXl5bJawy
rgygjbzywdE5yOkfDPz1RBdBgdYWioGwx3iqxljLarfmAcUdbyQEG/348eoXA4TM
l+Bx7qNu/MogYGc1x+JppzLQvCZvAgMBAAGjggE3MIIBMzAJBgNVHRMEAjAAMB0G
A1UdDgQWBBQacejsC3XHB9iglHUJBU0fXouktzCB5AYDVR0jBIHcMIHZgBTv3LY9
S/2nhwXFIj2L3L+ZKu7k26GBtaSBsjCBrzELMAkGA1UEBhMCVVMxEzARBgNVBAgM
CkNhbGlmb3JuaWExFjAUBgNVBAcMDVNhbiBGcmFuY2lzY28xIDAeBgNVBAoMF0Nv
cHlsZWZ0IENlcnRpZmljYXRlIENvMR8wHQYDVQQLDBZNeSBPcmdhbml6YXRpb25h
bCBVbml0MREwDwYDVQQDDAhDaGFuZ2VNZTEdMBsGCSqGSIb3DQEJARYObWVAZXhh
bXBsZS5uZXSCCQCHHh3ca4xmiDATBgNVHSUEDDAKBggrBgEFBQcDAjALBgNVHQ8E
BAMCB4AwDQYJKoZIhvcNAQELBQADggEBAHP0OPXUWNIqs9/kLKQMLvFl2DLnPBvH
838fy5B4+ulO9SVpv40kYVtiYADICFDTZDObViiUKllUiyRUWTQw5pPAdNA7qDlT
iPHJJaS4N4RvNxC448B3t1NGrGKn5kSSlG9AztPIDJ7Y47ZG414F9lPljQcMgH79
AxK1yWuzlnTDRdFiHOUYoHGk4qbw2aML7P3+CZFNJrVEZAp/wbsLq3Hx4XVxqhxy
FAnvgUxgZF2MAMFk3KPbUfKN85unQQQMb7q8I6r3HZ7eTUkpIKNNEUkG1UmS5xSX
/KZveqVOUC+ecJmzOkpfg0EkXANIFm3aeHO6bpQC7SJxDkXYXoGLaNM=
-----END CERTIFICATE-----
