Certificate:
    Data:
        Version: 3 (0x2)
        Serial Number:
            c3:ff:a4:db:20:37:da:f4:6b:7d:d9:26:70:88:ea:ff
    Signature Algorithm: sha256WithRSAEncryption
        Issuer: C=US, ST=California, L=San Francisco, O=Copyleft Certificate Co, OU=My Organizational Unit, CN=ChangeMe/emailAddress=me@example.net
        Validity
            Not Before: Nov 10 17:42:09 2023 GMT
            Not After : Nov  9 17:42:09 2024 GMT
        Subject: C=US, ST=OH, L=Cincinnati, O=University of Cincinnati, OU=Dept_Elec_Com_ Eng_Com_Sci., CN=client56/emailAddress=franco@gauss.ececs.uc.edu
        Subject Public Key Info:
            Public Key Algorithm: rsaEncryption
                Public-Key: (2048 bit)
                Modulus:
                    00:df:f7:39:ee:67:8b:94:74:dd:1c:8f:a7:40:8d:
                    31:87:72:60:3d:e6:b9:88:a8:9a:bb:b4:7f:cd:80:
                    7c:16:58:64:4b:33:7d:af:ae:75:79:2a:31:cd:98:
                    c9:57:24:06:4c:f2:03:ca:af:08:a5:89:fd:39:dd:
                    c3:11:bb:02:a5:57:ed:2c:a4:f1:c4:14:2f:d9:ed:
                    45:cf:4f:6c:d5:59:3f:5c:ae:82:b9:47:b7:5a:3f:
                    64:73:27:20:91:70:81:56:9b:c2:97:03:02:36:35:
                    c0:79:7f:64:0d:d1:15:cf:73:99:f5:bb:ac:e8:fe:
                    1c:1f:89:42:65:43:57:fd:5d:69:4d:d1:26:b6:ba:
                    6f:49:8e:70:20:e2:16:65:ca:27:46:d8:ad:e5:3b:
                    c8:5c:b4:cd:18:49:59:b7:d6:a8:7e:c7:40:40:08:
                    8f:a6:8e:bb:9a:09:13:35:88:8c:50:80:74:8c:47:
                    06:e9:6e:03:5b:fa:a5:f5:2b:3f:14:16:c0:00:fc:
                    94:07:cf:90:9d:74:05:03:68:76:10:e0:0a:06:c5:
                    19:c1:73:de:6e:d3:27:a5:86:f2:58:e2:d9:da:95:
                    b0:34:87:1f:b5:a9:4e:45:77:d0:a5:6f:88:7f:68:
                    76:54:97:e2:8e:23:76:74:2e:df:32:4b:b2:16:a8:
                    db:c5
                Exponent: 65537 (0x10001)
        X509v3 extensions:
            X509v3 Basic Constraints: 
                CA:FALSE
            X509v3 Subject Key Identifier: 
                65:50:FD:59:8C:12:0A:B9:8A:AD:2B:54:3F:C0:A0:82:90:0F:47:52
            X509v3 Authority Key Identifier: 
                keyid:C8:27:DA:64:30:08:40:08:4A:25:CC:DC:43:99:DE:77:A1:FE:77:BD
                DirName:/C=US/ST=California/L=San Francisco/O=Copyleft Certificate Co/OU=My Organizational Unit/CN=ChangeMe/emailAddress=me@example.net
                serial:A9:48:C3:7E:FC:1B:B0:A1

            X509v3 Extended Key Usage: 
                TLS Web Client Authentication
            X509v3 Key Usage: 
                Digital Signature
    Signature Algorithm: sha256WithRSAEncryption
         bd:b1:e7:5a:d8:ce:11:25:52:76:1b:a1:c6:19:b0:e6:36:3c:
         cb:e8:da:7e:45:f3:88:23:59:30:2b:c9:5d:09:c3:b4:5d:26:
         08:7e:7b:e1:dd:75:31:74:4f:c0:48:d1:45:d5:7d:72:b6:ca:
         17:f5:04:96:37:09:4b:1d:32:d2:e4:53:80:aa:78:f0:19:d1:
         ea:e1:4f:2b:f9:0b:74:de:7c:9f:44:6a:4d:1b:16:90:bc:87:
         bc:94:2e:f1:f8:34:c3:99:ec:24:f0:cd:02:e6:8e:0f:e6:21:
         42:e2:15:51:5d:7c:fe:bc:fe:2c:3e:be:63:44:15:bc:1a:07:
         93:8e:c5:79:f0:e6:32:38:15:18:03:e3:0d:cc:cf:d3:d9:96:
         9d:4c:f3:e1:78:94:c9:c4:f9:26:97:a8:bb:af:8b:ab:b1:d6:
         04:af:88:af:78:72:8a:21:89:c1:85:5e:80:95:7d:01:88:0e:
         56:f7:26:c0:c7:33:f6:d0:88:01:87:ec:4c:6e:df:57:ec:a7:
         e6:29:ec:05:f3:52:58:b9:e0:1a:f8:96:53:fb:ed:91:3f:df:
         2c:e0:1e:0e:f0:4f:84:21:9e:79:4b:45:ed:df:6c:c0:87:b3:
         da:18:17:11:62:ec:c3:a5:65:59:cd:ca:f6:eb:66:03:d1:af:
         ef:8d:79:28
-----BEGIN CERTIFICATE-----
MIIFKjCCBBKgAwIBAgIRAMP/pNsgN9r0a33ZJnCI6v8wDQYJKoZIhvcNAQELBQAw
ga8xCzAJBgNVBAYTAlVTMRMwEQYDVQQIDApDYWxpZm9ybmlhMRYwFAYDVQQHDA1T
YW4gRnJhbmNpc2NvMSAwHgYDVQQKDBdDb3B5bGVmdCBDZXJ0aWZpY2F0ZSBDbzEf
MB0GA1UECwwWTXkgT3JnYW5pemF0aW9uYWwgVW5pdDERMA8GA1UEAwwIQ2hhbmdl
TWUxHTAbBgkqhkiG9w0BCQEWDm1lQGV4YW1wbGUubmV0MB4XDTIzMTExMDE3NDIw
OVoXDTI0MTEwOTE3NDIwOVowgbUxCzAJBgNVBAYTAlVTMQswCQYDVQQIDAJPSDET
MBEGA1UEBwwKQ2luY2lubmF0aTEhMB8GA1UECgwYVW5pdmVyc2l0eSBvZiBDaW5j
aW5uYXRpMSQwIgYDVQQLDBtEZXB0X0VsZWNfQ29tXyBFbmdfQ29tX1NjaS4xETAP
BgNVBAMMCGNsaWVudDU2MSgwJgYJKoZIhvcNAQkBFhlmcmFuY29AZ2F1c3MuZWNl
Y3MudWMuZWR1MIIBIjANBgkqhkiG9w0BAQEFAAOCAQ8AMIIBCgKCAQEA3/c57meL
lHTdHI+nQI0xh3JgPea5iKiau7R/zYB8FlhkSzN9r651eSoxzZjJVyQGTPIDyq8I
pYn9Od3DEbsCpVftLKTxxBQv2e1Fz09s1Vk/XK6CuUe3Wj9kcycgkXCBVpvClwMC
NjXAeX9kDdEVz3OZ9bus6P4cH4lCZUNX/V1pTdEmtrpvSY5wIOIWZconRtit5TvI
XLTNGElZt9aofsdAQAiPpo67mgkTNYiMUIB0jEcG6W4DW/ql9Ss/FBbAAPyUB8+Q
nXQFA2h2EOAKBsUZwXPebtMnpYbyWOLZ2pWwNIcftalORXfQpW+If2h2VJfijiN2
dC7fMkuyFqjbxQIDAQABo4IBNzCCATMwCQYDVR0TBAIwADAdBgNVHQ4EFgQUZVD9
WYwSCrmKrStUP8CggpAPR1IwgeQGA1UdIwSB3DCB2YAUyCfaZDAIQAhKJczcQ5ne
d6H+d72hgbWkgbIwga8xCzAJBgNVBAYTAlVTMRMwEQYDVQQIDApDYWxpZm9ybmlh
MRYwFAYDVQQHDA1TYW4gRnJhbmNpc2NvMSAwHgYDVQQKDBdDb3B5bGVmdCBDZXJ0
aWZpY2F0ZSBDbzEfMB0GA1UECwwWTXkgT3JnYW5pemF0aW9uYWwgVW5pdDERMA8G
A1UEAwwIQ2hhbmdlTWUxHTAbBgkqhkiG9w0BCQEWDm1lQGV4YW1wbGUubmV0ggkA
qUjDfvwbsKEwEwYDVR0lBAwwCgYIKwYBBQUHAwIwCwYDVR0PBAQDAgeAMA0GCSqG
SIb3DQEBCwUAA4IBAQC9seda2M4RJVJ2G6HGGbDmNjzL6Np+RfOII1kwK8ldCcO0
XSYIfnvh3XUxdE/ASNFF1X1ytsoX9QSWNwlLHTLS5FOAqnjwGdHq4U8r+Qt03nyf
RGpNGxaQvIe8lC7x+DTDmewk8M0C5o4P5iFC4hVRXXz+vP4sPr5jRBW8GgeTjsV5
8OYyOBUYA+MNzM/T2ZadTPPheJTJxPkml6i7r4ursdYEr4iveHKKIYnBhV6AlX0B
iA5W9ybAxzP20IgBh+xMbt9X7KfmKewF81JYueAa+JZT++2RP98s4B4O8E+EIZ55
S0Xt32zAh7PaGBcRYuzDpWVZzcr262YD0a/vjXko
-----END CERTIFICATE-----
