Certificate:
    Data:
        Version: 3 (0x2)
        Serial Number:
            2e:47:7d:df:4f:c9:d1:a1:ff:36:a3:cc:72:eb:0a:3d
    Signature Algorithm: sha256WithRSAEncryption
        Issuer: C=US, ST=California, L=San Francisco, O=Copyleft Certificate Co, OU=My Organizational Unit, CN=ChangeMe/emailAddress=me@example.net
        Validity
            Not Before: Nov 11 01:46:34 2023 GMT
            Not After : Nov 10 01:46:34 2024 GMT
        Subject: C=US, ST=OH, L=Cincinnati, O=University of Cincinnati, OU=Dept. Elec. Comp. Eng. Comp. Sci., CN=client103/emailAddress=franco@gauss.ececs.uc.edu
        Subject Public Key Info:
            Public Key Algorithm: rsaEncryption
                Public-Key: (2048 bit)
                Modulus:
                    00:d9:37:b4:67:3a:91:7e:d6:5f:ae:90:32:2f:38:
                    fe:9c:84:37:06:64:57:14:a9:85:5b:3b:a5:8d:f9:
                    07:db:ff:7a:6f:0d:9e:a0:13:9c:6f:d2:64:71:67:
                    0e:78:23:b6:79:1d:64:a6:dd:bd:85:9b:a2:eb:c7:
                    d7:30:a9:11:f3:57:8d:35:84:f5:5b:05:de:ab:29:
                    99:fb:f9:27:c1:51:7d:c0:2f:40:3c:8f:b7:aa:c9:
                    dd:de:db:fb:ba:11:5a:62:09:90:ec:1e:00:21:b4:
                    63:94:d5:f7:23:9f:6b:57:91:a5:33:70:eb:8f:3b:
                    de:75:eb:d8:86:bd:76:8d:6d:43:d2:f5:b0:a4:0d:
                    09:d4:01:27:68:b4:e0:09:77:ff:4f:a7:d8:d1:51:
                    6e:57:a9:53:ac:be:fc:f3:9b:c9:f5:c4:be:6b:c2:
                    2b:b4:86:4f:9d:6a:d6:3a:26:42:24:26:13:d4:18:
                    0f:5c:b4:cb:e7:ad:5f:10:18:e3:86:83:a8:f0:d7:
                    b5:dd:4a:d6:1a:60:18:f9:be:88:82:66:df:1a:74:
                    63:82:47:3c:70:80:8b:59:af:d5:65:c9:50:0c:e2:
                    60:e2:db:8c:f8:49:55:3a:c2:15:4f:fe:5b:47:32:
                    42:90:99:3b:99:90:95:bb:a6:5d:45:58:c2:12:33:
                    25:95
                Exponent: 65537 (0x10001)
        X509v3 extensions:
            X509v3 Basic Constraints: 
                CA:FALSE
            X509v3 Subject Key Identifier: 
                14:8B:B6:AE:76:13:D9:58:A8:82:34:EA:90:CB:75:C2:2F:EC:72:B2
            X509v3 Authority Key Identifier: 
                keyid:73:DE:A0:43:0F:AE:B1:9E:E8:59:69:18:50:A1:1A:1F:D4:A1:E3:F0
                DirName:/C=US/ST=California/L=San Francisco/O=Copyleft Certificate Co/OU=My Organizational Unit/CN=ChangeMe/emailAddress=me@example.net
                serial:E9:BB:CB:16:C5:32:BE:3B

            X509v3 Extended Key Usage: 
                TLS Web Client Authentication
            X509v3 Key Usage: 
                Digital Signature
    Signature Algorithm: sha256WithRSAEncryption
         4d:f0:59:58:a3:bc:e1:a5:33:a2:c6:c1:b0:61:31:60:3a:a3:
         3f:41:1d:40:89:b1:75:43:f1:86:96:36:ea:7d:62:a2:c4:fc:
         45:12:60:69:63:45:ae:6b:45:da:ac:03:a4:3f:ec:4b:6a:aa:
         7c:4a:fa:07:14:27:c1:d8:23:ac:2f:9d:95:20:76:78:e4:c0:
         2b:10:0f:a6:ff:a1:5e:a4:18:52:5f:88:02:5f:78:77:b9:b9:
         b0:48:e0:69:b0:b5:bb:86:43:65:ee:cb:05:50:0e:c3:e6:8d:
         2a:a2:45:9d:eb:67:51:90:8f:60:ae:59:f7:07:fc:ed:2f:41:
         bf:e7:d7:e7:99:73:46:d1:9b:62:0d:04:ff:77:13:cf:db:d0:
         26:65:e3:d7:14:a0:b3:e8:9f:af:3a:a1:f4:ab:93:9d:bb:66:
         08:fd:62:9b:d0:bb:43:2c:c3:aa:6f:4a:39:8c:fd:c9:44:f8:
         dc:00:8c:f5:fd:43:b4:38:30:52:50:e4:b9:ad:29:39:b6:65:
         55:26:67:5a:65:20:15:82:09:eb:13:c8:9d:dc:8b:39:14:42:
         08:e8:88:d5:aa:81:31:1b:be:33:f0:b9:64:20:45:4a:a1:ec:
         4f:df:0d:48:06:69:70:e1:36:85:0d:6d:29:a0:08:77:26:da:
         41:00:73:5d
-----BEGIN CERTIFICATE-----
MIIFMDCCBBigAwIBAgIQLkd930/J0aH/NqPMcusKPTANBgkqhkiG9w0BAQsFADCB
rzELMAkGA1UEBhMCVVMxEzARBgNVBAgMCkNhbGlmb3JuaWExFjAUBgNVBAcMDVNh
biBGcmFuY2lzY28xIDAeBgNVBAoMF0NvcHlsZWZ0IENlcnRpZmljYXRlIENvMR8w
HQYDVQQLDBZNeSBPcmdhbml6YXRpb25hbCBVbml0MREwDwYDVQQDDAhDaGFuZ2VN
ZTEdMBsGCSqGSIb3DQEJARYObWVAZXhhbXBsZS5uZXQwHhcNMjMxMTExMDE0NjM0
WhcNMjQxMTEwMDE0NjM0WjCBvDELMAkGA1UEBhMCVVMxCzAJBgNVBAgMAk9IMRMw
EQYDVQQHDApDaW5jaW5uYXRpMSEwHwYDVQQKDBhVbml2ZXJzaXR5IG9mIENpbmNp
bm5hdGkxKjAoBgNVBAsMIURlcHQuIEVsZWMuIENvbXAuIEVuZy4gQ29tcC4gU2Np
LjESMBAGA1UEAwwJY2xpZW50MTAzMSgwJgYJKoZIhvcNAQkBFhlmcmFuY29AZ2F1
c3MuZWNlY3MudWMuZWR1MIIBIjANBgkqhkiG9w0BAQEFAAOCAQ8AMIIBCgKCAQEA
2Te0ZzqRftZfrpAyLzj+nIQ3BmRXFKmFWzuljfkH2/96bw2eoBOcb9JkcWcOeCO2
eR1kpt29hZui68fXMKkR81eNNYT1WwXeqymZ+/knwVF9wC9API+3qsnd3tv7uhFa
YgmQ7B4AIbRjlNX3I59rV5GlM3DrjzvedevYhr12jW1D0vWwpA0J1AEnaLTgCXf/
T6fY0VFuV6lTrL7885vJ9cS+a8IrtIZPnWrWOiZCJCYT1BgPXLTL561fEBjjhoOo
8Ne13UrWGmAY+b6IgmbfGnRjgkc8cICLWa/VZclQDOJg4tuM+ElVOsIVT/5bRzJC
kJk7mZCVu6ZdRVjCEjMllQIDAQABo4IBNzCCATMwCQYDVR0TBAIwADAdBgNVHQ4E
FgQUFIu2rnYT2ViogjTqkMt1wi/scrIwgeQGA1UdIwSB3DCB2YAUc96gQw+usZ7o
WWkYUKEaH9Sh4/ChgbWkgbIwga8xCzAJBgNVBAYTAlVTMRMwEQYDVQQIDApDYWxp
Zm9ybmlhMRYwFAYDVQQHDA1TYW4gRnJhbmNpc2NvMSAwHgYDVQQKDBdDb3B5bGVm
dCBDZXJ0aWZpY2F0ZSBDbzEfMB0GA1UECwwWTXkgT3JnYW5pemF0aW9uYWwgVW5p
dDERMA8GA1UEAwwIQ2hhbmdlTWUxHTAbBgkqhkiG9w0BCQEWDm1lQGV4YW1wbGUu
bmV0ggkA6bvLFsUyvjswEwYDVR0lBAwwCgYIKwYBBQUHAwIwCwYDVR0PBAQDAgeA
MA0GCSqGSIb3DQEBCwUAA4IBAQBN8FlYo7zhpTOixsGwYTFgOqM/QR1AibF1Q/GG
ljbqfWKixPxFEmBpY0Wua0XarAOkP+xLaqp8SvoHFCfB2COsL52VIHZ45MArEA+m
/6FepBhSX4gCX3h3ubmwSOBpsLW7hkNl7ssFUA7D5o0qokWd62dRkI9grln3B/zt
L0G/59fnmXNG0ZtiDQT/dxPP29AmZePXFKCz6J+vOqH0q5Odu2YI/WKb0LtDLMOq
b0o5jP3JRPjcAIz1/UO0ODBSUOS5rSk5tmVVJmdaZSAVggnrE8id3Is5FEII6IjV
qoExG74z8LlkIEVKoexP3w1IBmlw4TaFDW0poAh3JtpBAHNd
-----END CERTIFICATE-----
