Certificate:
    Data:
        Version: 3 (0x2)
        Serial Number:
            0b:a1:bb:f7:ab:63:d4:fd:ba:ce:89:31:80:be:fa:9c
    Signature Algorithm: sha256WithRSAEncryption
        Issuer: C=US, ST=California, L=San Francisco, O=Copyleft Certificate Co, OU=My Organizational Unit, CN=ChangeMe/emailAddress=me@example.net
        Validity
            Not Before: Nov 10 17:45:14 2023 GMT
            Not After : Nov  9 17:45:14 2024 GMT
        Subject: C=US, ST=OH, L=Cincinnati, O=University of Cincinnati, OU=Dept_Elec_Com_ Eng_Com_Sci., CN=client102/emailAddress=franco@gauss.ececs.uc.edu
        Subject Public Key Info:
            Public Key Algorithm: rsaEncryption
                Public-Key: (2048 bit)
                Modulus:
                    00:bd:da:60:bd:c7:11:86:eb:24:f7:b8:96:3d:f1:
                    58:9f:cf:91:62:93:8a:3d:0b:bf:99:52:fa:1a:60:
                    29:cb:d6:68:a5:1a:ae:85:5f:84:ac:55:aa:c2:9f:
                    16:70:cb:e5:4f:d0:aa:fb:35:fa:ca:b3:9f:b8:ff:
                    9f:fb:49:ec:a6:f1:61:15:8f:fb:4f:72:3b:9d:83:
                    15:c2:db:20:4c:2e:01:9b:62:1f:f4:37:90:ba:6e:
                    24:37:9e:ed:58:ab:29:b4:2c:c8:50:ac:89:0f:0c:
                    7a:16:90:b6:83:fe:1b:fa:31:4b:e3:0e:ae:16:92:
                    4b:e0:b9:c0:b2:8d:0f:29:a9:d6:90:76:0f:ac:dc:
                    d1:38:af:cf:85:8e:40:be:9c:f6:85:19:83:ef:7c:
                    36:d8:1d:19:0c:a1:68:8e:c6:57:de:91:fd:22:2d:
                    ac:bc:08:59:a0:c4:dc:e4:19:e3:42:43:2d:fe:b2:
                    4a:b0:7f:10:a3:b9:b8:9c:3b:0d:fa:13:e5:fd:54:
                    5a:2b:77:41:6f:1b:eb:2e:db:7c:11:de:c3:d6:a6:
                    a0:25:13:3b:77:a7:1a:fb:d5:81:e8:ec:ec:60:0d:
                    df:59:cd:0e:91:9e:56:f0:7f:f7:4d:23:05:d0:43:
                    26:a3:4f:8a:ee:0e:6d:3f:90:f9:1a:0c:e8:7f:c0:
                    4e:b1
                Exponent: 65537 (0x10001)
        X509v3 extensions:
            X509v3 Basic Constraints: 
                CA:FALSE
            X509v3 Subject Key Identifier: 
                7E:C8:4B:13:CE:AB:9F:3F:F9:97:B7:F4:61:38:6E:AD:AE:E8:4C:33
            X509v3 Authority Key Identifier: 
                keyid:C8:27:DA:64:30:08:40:08:4A:25:CC:DC:43:99:DE:77:A1:FE:77:BD
                DirName:/C=US/ST=California/L=San Francisco/O=Copyleft Certificate Co/OU=My Organizational Unit/CN=ChangeMe/emailAddress=me@example.net
                serial:A9:48:C3:7E:FC:1B:B0:A1

            X509v3 Extended Key Usage: 
                TLS Web Client Authentication
            X509v3 Key Usage: 
                Digital Signature
    Signature Algorithm: sha256WithRSAEncryption
         c0:fb:2c:0b:f0:82:ea:8d:40:2f:9d:72:a9:bb:91:52:8f:58:
         df:ca:2b:dc:18:2a:8a:8a:30:b9:33:ed:0a:c3:9d:03:7e:9a:
         db:3f:19:dc:10:42:9f:0c:27:2b:99:7c:4a:de:f2:f2:fc:95:
         df:20:a3:f5:63:58:cd:ea:f9:a7:d3:f7:fd:0c:5c:86:81:e9:
         ac:30:23:92:fb:83:1a:64:fc:7e:cf:f9:8f:46:78:e7:98:d1:
         4a:fb:9e:7b:eb:08:8e:d8:7f:1d:c7:a0:87:11:44:46:64:92:
         b6:bb:9a:cc:66:3b:46:7f:0b:40:68:e6:e5:fa:08:78:42:96:
         a6:cd:89:b8:cd:9e:e9:cd:19:47:1b:1d:5d:5f:e0:e7:4d:43:
         2e:50:9e:f1:44:4c:f5:39:8c:ab:78:48:0e:e8:74:e1:c8:f5:
         4b:bd:9a:4b:15:99:77:31:8e:fd:9e:de:54:9b:8f:4d:d5:bd:
         ac:27:72:32:76:27:b0:82:42:12:c8:1b:74:1b:f6:13:88:71:
         35:45:8f:05:c4:9b:a4:a3:97:c3:cc:66:15:e5:9c:33:21:85:
         07:dd:bf:9a:ad:5f:19:17:a0:1d:09:b5:ae:7a:54:6c:d9:52:
         4e:f5:a2:4a:b0:ee:c3:4f:ee:d7:16:f5:6d:af:74:48:72:b9:
         b4:4e:7d:64
-----BEGIN CERTIFICATE-----
MIIFKjCCBBKgAwIBAgIQC6G796tj1P26zokxgL76nDANBgkqhkiG9w0BAQsFADCB
rzELMAkGA1UEBhMCVVMxEzARBgNVBAgMCkNhbGlmb3JuaWExFjAUBgNVBAcMDVNh
biBGcmFuY2lzY28xIDAeBgNVBAoMF0NvcHlsZWZ0IENlcnRpZmljYXRlIENvMR8w
HQYDVQQLDBZNeSBPcmdhbml6YXRpb25hbCBVbml0MREwDwYDVQQDDAhDaGFuZ2VN
ZTEdMBsGCSqGSIb3DQEJARYObWVAZXhhbXBsZS5uZXQwHhcNMjMxMTEwMTc0NTE0
WhcNMjQxMTA5MTc0NTE0WjCBtjELMAkGA1UEBhMCVVMxCzAJBgNVBAgMAk9IMRMw
EQYDVQQHDApDaW5jaW5uYXRpMSEwHwYDVQQKDBhVbml2ZXJzaXR5IG9mIENpbmNp
bm5hdGkxJDAiBgNVBAsMG0RlcHRfRWxlY19Db21fIEVuZ19Db21fU2NpLjESMBAG
A1UEAwwJY2xpZW50MTAyMSgwJgYJKoZIhvcNAQkBFhlmcmFuY29AZ2F1c3MuZWNl
Y3MudWMuZWR1MIIBIjANBgkqhkiG9w0BAQEFAAOCAQ8AMIIBCgKCAQEAvdpgvccR
husk97iWPfFYn8+RYpOKPQu/mVL6GmApy9ZopRquhV+ErFWqwp8WcMvlT9Cq+zX6
yrOfuP+f+0nspvFhFY/7T3I7nYMVwtsgTC4Bm2If9DeQum4kN57tWKsptCzIUKyJ
Dwx6FpC2g/4b+jFL4w6uFpJL4LnAso0PKanWkHYPrNzROK/PhY5Avpz2hRmD73w2
2B0ZDKFojsZX3pH9Ii2svAhZoMTc5BnjQkMt/rJKsH8Qo7m4nDsN+hPl/VRaK3dB
bxvrLtt8Ed7D1qagJRM7d6ca+9WB6OzsYA3fWc0OkZ5W8H/3TSMF0EMmo0+K7g5t
P5D5Ggzof8BOsQIDAQABo4IBNzCCATMwCQYDVR0TBAIwADAdBgNVHQ4EFgQUfshL
E86rnz/5l7f0YThura7oTDMwgeQGA1UdIwSB3DCB2YAUyCfaZDAIQAhKJczcQ5ne
d6H+d72hgbWkgbIwga8xCzAJBgNVBAYTAlVTMRMwEQYDVQQIDApDYWxpZm9ybmlh
MRYwFAYDVQQHDA1TYW4gRnJhbmNpc2NvMSAwHgYDVQQKDBdDb3B5bGVmdCBDZXJ0
aWZpY2F0ZSBDbzEfMB0GA1UECwwWTXkgT3JnYW5pemF0aW9uYWwgVW5pdDERMA8G
A1UEAwwIQ2hhbmdlTWUxHTAbBgkqhkiG9w0BCQEWDm1lQGV4YW1wbGUubmV0ggkA
qUjDfvwbsKEwEwYDVR0lBAwwCgYIKwYBBQUHAwIwCwYDVR0PBAQDAgeAMA0GCSqG
SIb3DQEBCwUAA4IBAQDA+ywL8ILqjUAvnXKpu5FSj1jfyivcGCqKijC5M+0Kw50D
fprbPxncEEKfDCcrmXxK3vLy/JXfIKP1Y1jN6vmn0/f9DFyGgemsMCOS+4MaZPx+
z/mPRnjnmNFK+5576wiO2H8dx6CHEURGZJK2u5rMZjtGfwtAaObl+gh4QpamzYm4
zZ7pzRlHGx1dX+DnTUMuUJ7xREz1OYyreEgO6HThyPVLvZpLFZl3MY79nt5Um49N
1b2sJ3IydiewgkISyBt0G/YTiHE1RY8FxJuko5fDzGYV5ZwzIYUH3b+arV8ZF6Ad
CbWuelRs2VJO9aJKsO7DT+7XFvVtr3RIcrm0Tn1k
-----END CERTIFICATE-----
