Certificate:
    Data:
        Version: 3 (0x2)
        Serial Number:
            09:f3:89:3f:62:b3:ce:f3:d7:b0:c1:72:f0:30:ca:84
    Signature Algorithm: sha256WithRSAEncryption
        Issuer: C=US, ST=California, L=San Francisco, O=Copyleft Certificate Co, OU=My Organizational Unit, CN=ChangeMe/emailAddress=me@example.net
        Validity
            Not Before: Nov 11 01:48:02 2023 GMT
            Not After : Nov 10 01:48:02 2024 GMT
        Subject: C=US, ST=OH, L=Cincinnati, O=University of Cincinnati, OU=Dept. Elec. Comp. Eng. Comp. Sci., CN=client125/emailAddress=franco@gauss.ececs.uc.edu
        Subject Public Key Info:
            Public Key Algorithm: rsaEncryption
                Public-Key: (2048 bit)
                Modulus:
                    00:98:74:a7:b1:42:fd:b4:7c:78:b0:ba:54:9b:41:
                    b6:40:cb:be:71:e4:7c:bd:9a:a3:b5:24:78:af:a9:
                    cc:85:73:c6:cd:c3:80:98:3e:1c:c5:eb:57:e5:b4:
                    f5:6d:e7:63:41:24:40:19:02:89:c9:30:75:13:db:
                    22:dc:61:61:b6:e5:f4:23:7b:6a:62:7a:a4:aa:99:
                    43:73:24:95:54:a7:ba:7e:11:c6:ed:ae:ea:1e:a2:
                    32:33:2b:71:1a:ab:8c:85:a2:19:9a:0f:ce:18:44:
                    53:ef:49:ae:48:26:bf:6c:b2:e3:4b:0a:09:49:56:
                    e1:8b:65:e1:fd:a3:b4:2a:0a:d3:22:97:a3:47:86:
                    99:11:b0:eb:f5:1c:7c:8c:df:5e:7f:21:a9:7f:b6:
                    8a:f1:6c:36:63:54:75:c9:35:01:63:41:c5:39:c5:
                    39:a1:56:02:34:b7:fd:08:1c:a3:8b:b4:8e:3a:4d:
                    71:23:a8:6d:2b:aa:ff:a0:d6:3a:fc:5a:7e:14:c3:
                    64:fa:46:51:a9:d2:e4:17:91:99:90:07:a7:88:80:
                    74:0c:93:d3:e4:0f:35:72:43:30:65:57:2c:03:87:
                    9a:0d:75:48:b0:db:66:ee:d6:93:37:01:b4:cc:d2:
                    e0:9d:4b:b1:b4:ba:49:9e:34:a7:37:be:80:dd:ff:
                    a6:5d
                Exponent: 65537 (0x10001)
        X509v3 extensions:
            X509v3 Basic Constraints: 
                CA:FALSE
            X509v3 Subject Key Identifier: 
                28:72:3B:12:72:0C:45:21:B7:BD:80:C4:B9:A3:E1:4D:96:7F:93:5B
            X509v3 Authority Key Identifier: 
                keyid:73:DE:A0:43:0F:AE:B1:9E:E8:59:69:18:50:A1:1A:1F:D4:A1:E3:F0
                DirName:/C=US/ST=California/L=San Francisco/O=Copyleft Certificate Co/OU=My Organizational Unit/CN=ChangeMe/emailAddress=me@example.net
                serial:E9:BB:CB:16:C5:32:BE:3B

            X509v3 Extended Key Usage: 
                TLS Web Client Authentication
            X509v3 Key Usage: 
                Digital Signature
    Signature Algorithm: sha256WithRSAEncryption
         8c:34:ee:9b:44:6c:29:40:0a:d5:a0:46:75:3d:a1:24:04:32:
         b2:75:8b:0b:a9:27:65:a7:16:62:69:6d:63:ef:60:3e:a6:f5:
         bd:6d:2c:f1:33:00:b1:72:00:0b:19:57:81:c6:8e:f0:f1:6c:
         63:ed:69:f4:f5:a2:31:31:7f:01:09:0f:c7:96:4f:18:46:fc:
         12:47:be:b2:f0:30:44:76:6b:a0:f3:2a:ad:93:ad:68:4f:81:
         12:aa:bc:1a:37:41:42:17:c1:32:63:30:23:e1:1b:1e:6c:3d:
         67:6a:23:c2:c9:1d:cc:49:a9:b4:a8:6e:5a:94:19:ab:8a:58:
         dd:ff:df:cf:af:e6:54:6d:8b:d4:e4:63:af:84:3c:f7:5c:cf:
         97:2f:ac:a9:55:12:02:8a:02:92:9c:57:be:94:e7:24:3e:e8:
         bd:19:94:80:ea:c0:8d:34:b0:76:9a:52:f5:b8:aa:29:f2:64:
         36:3f:12:ba:ed:cc:ac:de:9a:04:a3:c3:65:f5:73:7d:22:46:
         e8:c0:d9:46:ce:89:ea:df:46:2c:f9:75:e1:3a:88:ed:80:8b:
         ea:d6:68:2b:fe:ed:e2:2d:5c:90:1e:21:df:68:b8:45:de:62:
         ff:3d:d5:85:f1:c7:50:12:f0:f9:d1:c2:97:42:ca:95:46:e6:
         57:7f:45:73
-----BEGIN CERTIFICATE-----
MIIFMDCCBBigAwIBAgIQCfOJP2KzzvPXsMFy8DDKhDANBgkqhkiG9w0BAQsFADCB
rzELMAkGA1UEBhMCVVMxEzARBgNVBAgMCkNhbGlmb3JuaWExFjAUBgNVBAcMDVNh
biBGcmFuY2lzY28xIDAeBgNVBAoMF0NvcHlsZWZ0IENlcnRpZmljYXRlIENvMR8w
HQYDVQQLDBZNeSBPcmdhbml6YXRpb25hbCBVbml0MREwDwYDVQQDDAhDaGFuZ2VN
ZTEdMBsGCSqGSIb3DQEJARYObWVAZXhhbXBsZS5uZXQwHhcNMjMxMTExMDE0ODAy
WhcNMjQxMTEwMDE0ODAyWjCBvDELMAkGA1UEBhMCVVMxCzAJBgNVBAgMAk9IMRMw
EQYDVQQHDApDaW5jaW5uYXRpMSEwHwYDVQQKDBhVbml2ZXJzaXR5IG9mIENpbmNp
bm5hdGkxKjAoBgNVBAsMIURlcHQuIEVsZWMuIENvbXAuIEVuZy4gQ29tcC4gU2Np
LjESMBAGA1UEAwwJY2xpZW50MTI1MSgwJgYJKoZIhvcNAQkBFhlmcmFuY29AZ2F1
c3MuZWNlY3MudWMuZWR1MIIBIjANBgkqhkiG9w0BAQEFAAOCAQ8AMIIBCgKCAQEA
mHSnsUL9tHx4sLpUm0G2QMu+ceR8vZqjtSR4r6nMhXPGzcOAmD4cxetX5bT1bedj
QSRAGQKJyTB1E9si3GFhtuX0I3tqYnqkqplDcySVVKe6fhHG7a7qHqIyMytxGquM
haIZmg/OGERT70muSCa/bLLjSwoJSVbhi2Xh/aO0KgrTIpejR4aZEbDr9Rx8jN9e
fyGpf7aK8Ww2Y1R1yTUBY0HFOcU5oVYCNLf9CByji7SOOk1xI6htK6r/oNY6/Fp+
FMNk+kZRqdLkF5GZkAeniIB0DJPT5A81ckMwZVcsA4eaDXVIsNtm7taTNwG0zNLg
nUuxtLpJnjSnN76A3f+mXQIDAQABo4IBNzCCATMwCQYDVR0TBAIwADAdBgNVHQ4E
FgQUKHI7EnIMRSG3vYDEuaPhTZZ/k1swgeQGA1UdIwSB3DCB2YAUc96gQw+usZ7o
WWkYUKEaH9Sh4/ChgbWkgbIwga8xCzAJBgNVBAYTAlVTMRMwEQYDVQQIDApDYWxp
Zm9ybmlhMRYwFAYDVQQHDA1TYW4gRnJhbmNpc2NvMSAwHgYDVQQKDBdDb3B5bGVm
dCBDZXJ0aWZpY2F0ZSBDbzEfMB0GA1UECwwWTXkgT3JnYW5pemF0aW9uYWwgVW5p
dDERMA8GA1UEAwwIQ2hhbmdlTWUxHTAbBgkqhkiG9w0BCQEWDm1lQGV4YW1wbGUu
bmV0ggkA6bvLFsUyvjswEwYDVR0lBAwwCgYIKwYBBQUHAwIwCwYDVR0PBAQDAgeA
MA0GCSqGSIb3DQEBCwUAA4IBAQCMNO6bRGwpQArVoEZ1PaEkBDKydYsLqSdlpxZi
aW1j72A+pvW9bSzxMwCxcgALGVeBxo7w8Wxj7Wn09aIxMX8BCQ/Hlk8YRvwSR76y
8DBEdmug8yqtk61oT4ESqrwaN0FCF8EyYzAj4RsebD1naiPCyR3MSam0qG5alBmr
iljd/9/Pr+ZUbYvU5GOvhDz3XM+XL6ypVRICigKSnFe+lOckPui9GZSA6sCNNLB2
mlL1uKop8mQ2PxK67cys3poEo8Nl9XN9IkbowNlGzonq30Ys+XXhOojtgIvq1mgr
/u3iLVyQHiHfaLhF3mL/PdWF8cdQEvD50cKXQsqVRuZXf0Vz
-----END CERTIFICATE-----
