Certificate:
    Data:
        Version: 3 (0x2)
        Serial Number:
            d1:7b:16:ac:d2:e0:95:64:91:20:72:2a:61:c5:ed:8e
    Signature Algorithm: sha256WithRSAEncryption
        Issuer: C=US, ST=California, L=San Francisco, O=Copyleft Certificate Co, OU=My Organizational Unit, CN=ChangeMe/emailAddress=me@example.net
        Validity
            Not Before: Nov 11 10:57:44 2023 GMT
            Not After : Nov 10 10:57:44 2024 GMT
        Subject: C=US, ST=OH, L=Cincinnati, O=University of Cincinnati, OU=Dept. Elec. Comp. Eng. Comp. Sci., CN=client37/emailAddress=franco@gauss.ececs.uc.edu
        Subject Public Key Info:
            Public Key Algorithm: rsaEncryption
                Public-Key: (2048 bit)
                Modulus:
                    00:d0:89:86:94:9f:06:ac:19:92:1c:67:91:e4:ce:
                    e9:3b:5a:23:9a:ff:da:c4:3a:42:be:2c:74:4c:1c:
                    fc:d6:9a:57:5d:fd:91:68:a9:91:f8:86:c2:28:78:
                    13:10:a5:39:67:61:28:80:cc:70:de:04:b9:66:7d:
                    c2:a3:68:e9:eb:ec:79:2f:ed:8c:d6:31:f9:62:e7:
                    c2:4a:8d:18:c0:dc:ae:74:65:2d:df:6c:cf:9b:e2:
                    74:da:c6:d0:f5:81:49:42:5e:df:7e:c6:20:b0:5b:
                    2e:00:f9:3f:f6:34:51:78:b6:0b:4f:00:3b:d3:0c:
                    fb:e9:94:07:b6:12:2b:13:42:2d:35:fa:8a:1d:48:
                    cc:19:f8:29:3e:fb:92:37:2d:68:ad:0e:82:85:c5:
                    e9:3d:e1:78:d9:72:9e:08:50:28:38:8d:70:9e:65:
                    40:20:89:26:cb:59:1c:60:b1:96:f7:0e:63:cb:c4:
                    89:00:55:77:0a:80:66:2e:85:1b:33:38:06:39:e1:
                    3a:0e:ad:66:6b:f4:fc:97:e8:24:42:e8:9b:a4:d1:
                    c3:87:17:1b:95:c7:80:63:12:fc:a0:b8:db:71:ea:
                    9b:60:a9:02:28:f2:6e:18:c4:fb:aa:73:db:94:64:
                    4a:88:fd:70:84:00:e8:ea:57:e5:aa:f5:b3:9f:ae:
                    14:c7
                Exponent: 65537 (0x10001)
        X509v3 extensions:
            X509v3 Basic Constraints: 
                CA:FALSE
            X509v3 Subject Key Identifier: 
                31:10:63:E4:7C:CD:93:34:38:4B:92:8C:68:0D:AC:02:18:76:86:B5
            X509v3 Authority Key Identifier: 
                keyid:44:01:CC:06:0B:41:75:CB:C8:FB:C9:37:86:2D:9D:D2:D8:79:B6:8B
                DirName:/C=US/ST=California/L=San Francisco/O=Copyleft Certificate Co/OU=My Organizational Unit/CN=ChangeMe/emailAddress=me@example.net
                serial:AF:E8:E0:DD:C5:8B:0E:DD

            X509v3 Extended Key Usage: 
                TLS Web Client Authentication
            X509v3 Key Usage: 
                Digital Signature
    Signature Algorithm: sha256WithRSAEncryption
         0c:c4:a4:57:36:c5:7f:23:9f:d4:58:04:7e:9f:23:e1:3a:2b:
         84:cd:55:3b:a5:fb:42:de:84:2f:c7:63:10:46:cf:b4:9d:c9:
         d5:ef:74:32:85:ea:85:14:4a:60:1f:88:39:71:cd:74:0e:3e:
         a7:d5:20:04:93:99:3d:86:33:3d:61:c1:fb:98:6e:0b:57:2f:
         cd:a3:fb:e3:e1:e9:a2:74:3f:cf:ff:ea:81:ad:dc:fd:af:bc:
         f9:4d:be:dc:c4:48:1e:cb:79:f6:e9:7a:43:ff:20:ae:54:24:
         13:8c:0f:b1:37:87:fc:ac:40:6b:c0:04:10:3d:fe:cd:57:4a:
         2a:e7:bd:df:5b:93:9a:27:8e:4e:d9:ab:73:1e:fe:f8:1b:f3:
         5b:77:a0:2c:ec:33:12:6e:8c:42:79:6f:11:56:83:b4:f2:31:
         94:2d:af:89:26:d5:ee:ae:58:31:ff:41:70:e4:85:18:2b:04:
         ba:c8:f5:1f:cf:fa:1a:0a:8f:e8:c8:45:99:0e:b7:2d:70:1c:
         76:58:7e:0a:f3:fe:7a:53:d2:f3:24:58:03:21:94:14:30:f3:
         50:6b:71:86:18:bc:e3:6a:f5:13:5b:ad:e8:8a:19:7c:38:08:
         4d:a5:85:75:3e:88:3f:c3:cf:69:cf:ec:55:f8:fe:da:b4:d1:
         0a:57:79:00
-----BEGIN CERTIFICATE-----
MIIFMDCCBBigAwIBAgIRANF7FqzS4JVkkSByKmHF7Y4wDQYJKoZIhvcNAQELBQAw
ga8xCzAJBgNVBAYTAlVTMRMwEQYDVQQIDApDYWxpZm9ybmlhMRYwFAYDVQQHDA1T
YW4gRnJhbmNpc2NvMSAwHgYDVQQKDBdDb3B5bGVmdCBDZXJ0aWZpY2F0ZSBDbzEf
MB0GA1UECwwWTXkgT3JnYW5pemF0aW9uYWwgVW5pdDERMA8GA1UEAwwIQ2hhbmdl
TWUxHTAbBgkqhkiG9w0BCQEWDm1lQGV4YW1wbGUubmV0MB4XDTIzMTExMTEwNTc0
NFoXDTI0MTExMDEwNTc0NFowgbsxCzAJBgNVBAYTAlVTMQswCQYDVQQIDAJPSDET
MBEGA1UEBwwKQ2luY2lubmF0aTEhMB8GA1UECgwYVW5pdmVyc2l0eSBvZiBDaW5j
aW5uYXRpMSowKAYDVQQLDCFEZXB0LiBFbGVjLiBDb21wLiBFbmcuIENvbXAuIFNj
aS4xETAPBgNVBAMMCGNsaWVudDM3MSgwJgYJKoZIhvcNAQkBFhlmcmFuY29AZ2F1
c3MuZWNlY3MudWMuZWR1MIIBIjANBgkqhkiG9w0BAQEFAAOCAQ8AMIIBCgKCAQEA
0ImGlJ8GrBmSHGeR5M7pO1ojmv/axDpCvix0TBz81ppXXf2RaKmR+IbCKHgTEKU5
Z2EogMxw3gS5Zn3Co2jp6+x5L+2M1jH5YufCSo0YwNyudGUt32zPm+J02sbQ9YFJ
Ql7ffsYgsFsuAPk/9jRReLYLTwA70wz76ZQHthIrE0ItNfqKHUjMGfgpPvuSNy1o
rQ6ChcXpPeF42XKeCFAoOI1wnmVAIIkmy1kcYLGW9w5jy8SJAFV3CoBmLoUbMzgG
OeE6Dq1ma/T8l+gkQuibpNHDhxcblceAYxL8oLjbceqbYKkCKPJuGMT7qnPblGRK
iP1whADo6lflqvWzn64UxwIDAQABo4IBNzCCATMwCQYDVR0TBAIwADAdBgNVHQ4E
FgQUMRBj5HzNkzQ4S5KMaA2sAhh2hrUwgeQGA1UdIwSB3DCB2YAURAHMBgtBdcvI
+8k3hi2d0th5touhgbWkgbIwga8xCzAJBgNVBAYTAlVTMRMwEQYDVQQIDApDYWxp
Zm9ybmlhMRYwFAYDVQQHDA1TYW4gRnJhbmNpc2NvMSAwHgYDVQQKDBdDb3B5bGVm
dCBDZXJ0aWZpY2F0ZSBDbzEfMB0GA1UECwwWTXkgT3JnYW5pemF0aW9uYWwgVW5p
dDERMA8GA1UEAwwIQ2hhbmdlTWUxHTAbBgkqhkiG9w0BCQEWDm1lQGV4YW1wbGUu
bmV0ggkAr+jg3cWLDt0wEwYDVR0lBAwwCgYIKwYBBQUHAwIwCwYDVR0PBAQDAgeA
MA0GCSqGSIb3DQEBCwUAA4IBAQAMxKRXNsV/I5/UWAR+nyPhOiuEzVU7pftC3oQv
x2MQRs+0ncnV73QyheqFFEpgH4g5cc10Dj6n1SAEk5k9hjM9YcH7mG4LVy/No/vj
4emidD/P/+qBrdz9r7z5Tb7cxEgey3n26XpD/yCuVCQTjA+xN4f8rEBrwAQQPf7N
V0oq573fW5OaJ45O2atzHv74G/Nbd6As7DMSboxCeW8RVoO08jGULa+JJtXurlgx
/0Fw5IUYKwS6yPUfz/oaCo/oyEWZDrctcBx2WH4K8/56U9LzJFgDIZQUMPNQa3GG
GLzjavUTW63oihl8OAhNpYV1Pog/w89pz+xV+P7atNEKV3kA
-----END CERTIFICATE-----
