Certificate:
    Data:
        Version: 3 (0x2)
        Serial Number:
            7a:ae:58:7f:0f:75:c6:70:04:94:9f:25:22:4e:ca:29
    Signature Algorithm: sha256WithRSAEncryption
        Issuer: C=US, ST=California, L=San Francisco, O=Copyleft Certificate Co, OU=My Organizational Unit, CN=ChangeMe/emailAddress=me@example.net
        Validity
            Not Before: Nov 12 11:49:31 2023 GMT
            Not After : Nov 11 11:49:31 2024 GMT
        Subject: C=US, ST=OH, L=Cincinnati, O=University of Cincinnati, OU=Dept. Elec. Comp. Eng. Comp. Sci., CN=client49/emailAddress=franco@gauss.ececs.uc.edu
        Subject Public Key Info:
            Public Key Algorithm: rsaEncryption
                Public-Key: (2048 bit)
                Modulus:
                    00:9e:83:2e:77:12:c8:ea:be:e8:56:a2:40:a7:0e:
                    ce:36:0f:54:98:f7:b5:1b:84:6b:00:1b:23:0d:6b:
                    38:f0:f4:00:8d:12:fa:5d:26:2f:d5:ea:69:9b:ee:
                    28:7e:c5:f4:bf:b6:20:31:82:c8:f5:c0:67:c4:f6:
                    ff:b4:ec:05:9d:6d:42:74:4b:c4:07:f0:17:04:d6:
                    a0:c3:93:7e:87:34:34:6c:ad:ea:aa:ba:a8:7c:13:
                    91:38:cf:b7:b8:9d:98:8f:b1:9e:05:2f:88:44:b2:
                    3e:ed:10:61:84:81:08:36:84:a5:b3:4c:3b:1a:fc:
                    2d:a8:f6:60:55:1e:09:9e:f8:0b:14:9d:b2:83:3c:
                    1a:e7:b3:9f:ec:f3:bd:1c:22:62:a6:31:24:4e:fc:
                    1e:2e:69:3c:aa:6d:57:93:43:82:91:be:4e:d7:ff:
                    4a:b0:d3:98:36:fc:0a:d0:0b:b7:b7:e2:78:3b:92:
                    84:b7:93:26:fa:58:66:e0:8f:92:ea:b2:c3:e8:c3:
                    d0:2a:45:da:9e:2d:9b:87:8b:0b:fb:55:79:a6:6a:
                    f3:51:14:14:21:bf:ad:b8:a9:93:23:31:f2:8f:9a:
                    4f:34:66:a6:cd:7d:c0:a1:bb:d7:7e:74:79:05:c4:
                    84:82:96:be:b2:88:75:35:27:f7:fc:05:84:c7:87:
                    44:4b
                Exponent: 65537 (0x10001)
        X509v3 extensions:
            X509v3 Basic Constraints: 
                CA:FALSE
            X509v3 Subject Key Identifier: 
                76:C2:25:04:98:21:1F:D2:A9:DB:11:A5:BD:49:21:52:00:C6:CB:7E
            X509v3 Authority Key Identifier: 
                keyid:C4:46:F2:96:38:56:02:B8:9D:09:04:52:25:91:35:97:6A:D7:B1:F0
                DirName:/C=US/ST=California/L=San Francisco/O=Copyleft Certificate Co/OU=My Organizational Unit/CN=ChangeMe/emailAddress=me@example.net
                serial:D1:5A:15:1C:F0:20:95:62

            X509v3 Extended Key Usage: 
                TLS Web Client Authentication
            X509v3 Key Usage: 
                Digital Signature
    Signature Algorithm: sha256WithRSAEncryption
         a0:ce:ec:28:83:15:ea:2e:1e:f2:86:02:8e:52:59:a0:db:c5:
         ec:7a:43:1f:ec:26:01:1b:e3:d6:aa:51:87:b9:b4:31:97:b3:
         bd:4a:f8:16:d4:4e:34:a2:00:ee:5d:7e:fc:28:b8:b7:23:d8:
         c7:b8:cf:9d:4a:de:e6:01:83:0d:9d:fe:cb:8b:6c:a2:ce:fd:
         68:25:5b:b6:b2:b2:b6:a4:66:f7:be:90:fb:a9:a3:70:40:1b:
         0b:7a:13:ae:cc:41:24:63:2d:4d:5e:ff:d0:92:a2:a3:24:ca:
         c9:bd:f4:f2:25:0b:9b:b9:cf:9b:aa:de:f9:2b:3e:8c:e5:82:
         2b:ec:ca:81:49:db:3a:1b:83:24:cd:84:bd:23:b6:cf:ea:11:
         61:29:24:e8:c1:28:ad:2a:9f:04:a1:06:d2:02:92:17:19:61:
         4a:db:c7:86:fd:f6:71:92:cf:48:68:ca:f8:cf:54:0f:3c:54:
         5f:14:44:ea:f0:d2:31:73:ac:d9:f3:8d:26:25:82:0e:15:36:
         22:10:df:22:ce:75:3b:a0:59:87:6f:22:92:d3:25:74:8c:54:
         f2:42:db:87:e7:b7:2e:20:4c:37:2a:0b:a5:f8:5f:0e:b9:b9:
         04:72:32:a1:d7:3e:24:d5:cc:b2:43:02:86:d8:73:de:4c:fb:
         b2:f0:4f:bf
-----BEGIN CERTIFICATE-----
MIIFLzCCBBegAwIBAgIQeq5Yfw91xnAElJ8lIk7KKTANBgkqhkiG9w0BAQsFADCB
rzELMAkGA1UEBhMCVVMxEzARBgNVBAgMCkNhbGlmb3JuaWExFjAUBgNVBAcMDVNh
biBGcmFuY2lzY28xIDAeBgNVBAoMF0NvcHlsZWZ0IENlcnRpZmljYXRlIENvMR8w
HQYDVQQLDBZNeSBPcmdhbml6YXRpb25hbCBVbml0MREwDwYDVQQDDAhDaGFuZ2VN
ZTEdMBsGCSqGSIb3DQEJARYObWVAZXhhbXBsZS5uZXQwHhcNMjMxMTEyMTE0OTMx
WhcNMjQxMTExMTE0OTMxWjCBuzELMAkGA1UEBhMCVVMxCzAJBgNVBAgMAk9IMRMw
EQYDVQQHDApDaW5jaW5uYXRpMSEwHwYDVQQKDBhVbml2ZXJzaXR5IG9mIENpbmNp
bm5hdGkxKjAoBgNVBAsMIURlcHQuIEVsZWMuIENvbXAuIEVuZy4gQ29tcC4gU2Np
LjERMA8GA1UEAwwIY2xpZW50NDkxKDAmBgkqhkiG9w0BCQEWGWZyYW5jb0BnYXVz
cy5lY2Vjcy51Yy5lZHUwggEiMA0GCSqGSIb3DQEBAQUAA4IBDwAwggEKAoIBAQCe
gy53EsjqvuhWokCnDs42D1SY97UbhGsAGyMNazjw9ACNEvpdJi/V6mmb7ih+xfS/
tiAxgsj1wGfE9v+07AWdbUJ0S8QH8BcE1qDDk36HNDRsreqquqh8E5E4z7e4nZiP
sZ4FL4hEsj7tEGGEgQg2hKWzTDsa/C2o9mBVHgme+AsUnbKDPBrns5/s870cImKm
MSRO/B4uaTyqbVeTQ4KRvk7X/0qw05g2/ArQC7e34ng7koS3kyb6WGbgj5LqssPo
w9AqRdqeLZuHiwv7VXmmavNRFBQhv624qZMjMfKPmk80ZqbNfcChu9d+dHkFxISC
lr6yiHU1J/f8BYTHh0RLAgMBAAGjggE3MIIBMzAJBgNVHRMEAjAAMB0GA1UdDgQW
BBR2wiUEmCEf0qnbEaW9SSFSAMbLfjCB5AYDVR0jBIHcMIHZgBTERvKWOFYCuJ0J
BFIlkTWXatex8KGBtaSBsjCBrzELMAkGA1UEBhMCVVMxEzARBgNVBAgMCkNhbGlm
b3JuaWExFjAUBgNVBAcMDVNhbiBGcmFuY2lzY28xIDAeBgNVBAoMF0NvcHlsZWZ0
IENlcnRpZmljYXRlIENvMR8wHQYDVQQLDBZNeSBPcmdhbml6YXRpb25hbCBVbml0
MREwDwYDVQQDDAhDaGFuZ2VNZTEdMBsGCSqGSIb3DQEJARYObWVAZXhhbXBsZS5u
ZXSCCQDRWhUc8CCVYjATBgNVHSUEDDAKBggrBgEFBQcDAjALBgNVHQ8EBAMCB4Aw
DQYJKoZIhvcNAQELBQADggEBAKDO7CiDFeouHvKGAo5SWaDbxex6Qx/sJgEb49aq
UYe5tDGXs71K+BbUTjSiAO5dfvwouLcj2Me4z51K3uYBgw2d/suLbKLO/WglW7ay
srakZve+kPupo3BAGwt6E67MQSRjLU1e/9CSoqMkysm99PIlC5u5z5uq3vkrPozl
givsyoFJ2zobgyTNhL0jts/qEWEpJOjBKK0qnwShBtICkhcZYUrbx4b99nGSz0ho
yvjPVA88VF8UROrw0jFzrNnzjSYlgg4VNiIQ3yLOdTugWYdvIpLTJXSMVPJC24fn
ty4gTDcqC6X4Xw65uQRyMqHXPiTVzLJDAobYc95M+7LwT78=
-----END CERTIFICATE-----
