Certificate:
    Data:
        Version: 3 (0x2)
        Serial Number:
            dd:39:47:9c:87:b2:45:71:98:3a:35:9a:c5:ff:54:9b
    Signature Algorithm: sha256WithRSAEncryption
        Issuer: C=US, ST=California, L=San Francisco, O=Copyleft Certificate Co, OU=My Organizational Unit, CN=ChangeMe/emailAddress=me@example.net
        Validity
            Not Before: Nov 11 01:45:22 2023 GMT
            Not After : Nov 10 01:45:22 2024 GMT
        Subject: C=US, ST=OH, L=Cincinnati, O=University of Cincinnati, OU=Dept. Elec. Comp. Eng. Comp. Sci., CN=client85/emailAddress=franco@gauss.ececs.uc.edu
        Subject Public Key Info:
            Public Key Algorithm: rsaEncryption
                Public-Key: (2048 bit)
                Modulus:
                    00:cb:a8:d0:f0:b3:4a:27:a3:57:00:90:7d:2b:3f:
                    7e:24:1f:ff:01:07:12:34:ab:32:bf:94:24:21:21:
                    8c:35:f8:3e:9d:d4:59:46:ad:b6:84:44:13:a6:f9:
                    b7:96:ad:7a:9e:12:68:83:b6:29:b9:ec:3c:df:f3:
                    c4:7e:b9:a4:b8:32:ec:75:01:d5:14:0e:5c:16:c1:
                    75:64:dc:78:a7:11:73:cf:d2:4f:fa:56:d2:f3:59:
                    b9:43:c7:ce:ab:d5:b3:0c:a3:b3:18:c8:c8:8b:04:
                    1c:9e:c1:2e:95:48:7a:9a:aa:87:e4:58:de:ef:63:
                    24:c9:f3:15:db:7a:3c:33:8d:e9:d3:3e:1c:63:5b:
                    a5:88:23:b2:5b:ac:46:8c:ca:01:7d:a1:d9:e6:97:
                    d3:d0:9b:03:75:31:7a:7a:b8:5f:01:58:93:ee:9b:
                    ae:fd:cf:2b:2d:ac:b2:d1:13:88:ca:62:ea:ba:00:
                    cc:e3:0d:79:bf:ea:35:3c:87:67:c3:87:e6:13:49:
                    99:65:8a:5c:e2:24:12:f2:cd:d9:3b:2e:aa:34:34:
                    fd:a4:ca:1a:fc:73:1f:85:a2:62:1c:22:bc:08:9c:
                    82:78:59:6d:78:8f:1e:e5:07:c6:9e:92:0d:92:d1:
                    6e:f3:e1:5e:6a:2a:3c:8e:e2:63:d7:be:4d:50:77:
                    28:65
                Exponent: 65537 (0x10001)
        X509v3 extensions:
            X509v3 Basic Constraints: 
                CA:FALSE
            X509v3 Subject Key Identifier: 
                F3:4D:C1:5F:F5:6C:83:01:31:78:B9:D7:F1:23:F3:2C:18:53:5A:F1
            X509v3 Authority Key Identifier: 
                keyid:73:DE:A0:43:0F:AE:B1:9E:E8:59:69:18:50:A1:1A:1F:D4:A1:E3:F0
                DirName:/C=US/ST=California/L=San Francisco/O=Copyleft Certificate Co/OU=My Organizational Unit/CN=ChangeMe/emailAddress=me@example.net
                serial:E9:BB:CB:16:C5:32:BE:3B

            X509v3 Extended Key Usage: 
                TLS Web Client Authentication
            X509v3 Key Usage: 
                Digital Signature
    Signature Algorithm: sha256WithRSAEncryption
         a5:84:bf:96:cd:0e:83:2f:b4:3a:e8:0a:c9:e0:4a:48:61:f3:
         3d:59:d9:b1:59:3d:ab:74:92:0b:8c:4e:38:96:60:a3:6b:b2:
         ab:88:38:14:97:a7:b7:40:a0:89:98:60:24:1c:4c:ed:e5:1f:
         ac:83:76:61:1a:d7:e0:e5:f0:83:b0:c0:29:ff:cd:38:81:f5:
         fd:99:70:c9:b0:40:5d:0b:7b:90:bc:a1:64:da:20:93:f2:12:
         ad:4d:18:a0:ce:0e:f7:3d:e8:a7:9c:3f:19:5d:25:13:05:99:
         40:8f:ec:91:77:eb:7a:ce:67:ac:07:42:71:eb:06:69:25:d9:
         fc:e2:20:24:4c:77:38:4e:c3:7a:7f:82:c8:da:e7:40:86:f4:
         a9:c8:14:0c:2f:c6:5c:9d:ff:bc:13:e9:20:ce:bd:09:69:62:
         40:f7:f9:8a:f0:53:ed:e9:81:4d:05:dc:1b:ce:ac:16:ed:64:
         a1:62:d7:5b:57:a7:57:b6:45:f3:cd:d3:4c:fc:ca:8c:80:cc:
         e3:dd:64:a1:8f:39:34:02:47:7d:ed:a8:e1:6d:9c:b6:b3:01:
         b0:9d:a4:47:e8:01:7f:6e:f5:0f:02:d7:19:c3:c1:04:c6:d1:
         5a:b1:3f:4f:b0:05:08:8e:88:6f:de:c0:60:7c:e0:93:10:99:
         42:a7:29:3b
-----BEGIN CERTIFICATE-----
MIIFMDCCBBigAwIBAgIRAN05R5yHskVxmDo1msX/VJswDQYJKoZIhvcNAQELBQAw
ga8xCzAJBgNVBAYTAlVTMRMwEQYDVQQIDApDYWxpZm9ybmlhMRYwFAYDVQQHDA1T
YW4gRnJhbmNpc2NvMSAwHgYDVQQKDBdDb3B5bGVmdCBDZXJ0aWZpY2F0ZSBDbzEf
MB0GA1UECwwWTXkgT3JnYW5pemF0aW9uYWwgVW5pdDERMA8GA1UEAwwIQ2hhbmdl
TWUxHTAbBgkqhkiG9w0BCQEWDm1lQGV4YW1wbGUubmV0MB4XDTIzMTExMTAxNDUy
MloXDTI0MTExMDAxNDUyMlowgbsxCzAJBgNVBAYTAlVTMQswCQYDVQQIDAJPSDET
MBEGA1UEBwwKQ2luY2lubmF0aTEhMB8GA1UECgwYVW5pdmVyc2l0eSBvZiBDaW5j
aW5uYXRpMSowKAYDVQQLDCFEZXB0LiBFbGVjLiBDb21wLiBFbmcuIENvbXAuIFNj
aS4xETAPBgNVBAMMCGNsaWVudDg1MSgwJgYJKoZIhvcNAQkBFhlmcmFuY29AZ2F1
c3MuZWNlY3MudWMuZWR1MIIBIjANBgkqhkiG9w0BAQEFAAOCAQ8AMIIBCgKCAQEA
y6jQ8LNKJ6NXAJB9Kz9+JB//AQcSNKsyv5QkISGMNfg+ndRZRq22hEQTpvm3lq16
nhJog7Ypuew83/PEfrmkuDLsdQHVFA5cFsF1ZNx4pxFzz9JP+lbS81m5Q8fOq9Wz
DKOzGMjIiwQcnsEulUh6mqqH5Fje72MkyfMV23o8M43p0z4cY1uliCOyW6xGjMoB
faHZ5pfT0JsDdTF6erhfAViT7puu/c8rLayy0ROIymLqugDM4w15v+o1PIdnw4fm
E0mZZYpc4iQS8s3ZOy6qNDT9pMoa/HMfhaJiHCK8CJyCeFlteI8e5QfGnpINktFu
8+Feaio8juJj175NUHcoZQIDAQABo4IBNzCCATMwCQYDVR0TBAIwADAdBgNVHQ4E
FgQU803BX/VsgwExeLnX8SPzLBhTWvEwgeQGA1UdIwSB3DCB2YAUc96gQw+usZ7o
WWkYUKEaH9Sh4/ChgbWkgbIwga8xCzAJBgNVBAYTAlVTMRMwEQYDVQQIDApDYWxp
Zm9ybmlhMRYwFAYDVQQHDA1TYW4gRnJhbmNpc2NvMSAwHgYDVQQKDBdDb3B5bGVm
dCBDZXJ0aWZpY2F0ZSBDbzEfMB0GA1UECwwWTXkgT3JnYW5pemF0aW9uYWwgVW5p
dDERMA8GA1UEAwwIQ2hhbmdlTWUxHTAbBgkqhkiG9w0BCQEWDm1lQGV4YW1wbGUu
bmV0ggkA6bvLFsUyvjswEwYDVR0lBAwwCgYIKwYBBQUHAwIwCwYDVR0PBAQDAgeA
MA0GCSqGSIb3DQEBCwUAA4IBAQClhL+WzQ6DL7Q66ArJ4EpIYfM9WdmxWT2rdJIL
jE44lmCja7KriDgUl6e3QKCJmGAkHEzt5R+sg3ZhGtfg5fCDsMAp/804gfX9mXDJ
sEBdC3uQvKFk2iCT8hKtTRigzg73PeinnD8ZXSUTBZlAj+yRd+t6zmesB0Jx6wZp
Jdn84iAkTHc4TsN6f4LI2udAhvSpyBQML8Zcnf+8E+kgzr0JaWJA9/mK8FPt6YFN
BdwbzqwW7WShYtdbV6dXtkXzzdNM/MqMgMzj3WShjzk0Akd97ajhbZy2swGwnaRH
6AF/bvUPAtcZw8EExtFasT9PsAUIjohv3sBgfOCTEJlCpyk7
-----END CERTIFICATE-----
