Certificate:
    Data:
        Version: 3 (0x2)
        Serial Number:
            11:42:55:5a:7b:b1:43:25:74:92:6f:51:c4:d4:69:cb
    Signature Algorithm: sha256WithRSAEncryption
        Issuer: C=US, ST=California, L=San Francisco, O=Copyleft Certificate Co, OU=My Organizational Unit, CN=ChangeMe/emailAddress=me@example.net
        Validity
            Not Before: Nov 12 11:46:14 2023 GMT
            Not After : Nov 11 11:46:14 2024 GMT
        Subject: C=US, ST=OH, L=Cincinnati, O=University of Cincinnati, OU=Dept. Elec. Comp. Eng. Comp. Sci., CN=client0/emailAddress=franco@gauss.ececs.uc.edu
        Subject Public Key Info:
            Public Key Algorithm: rsaEncryption
                Public-Key: (2048 bit)
                Modulus:
                    00:a5:18:2a:a1:6e:b6:df:fc:9e:f1:73:f1:a3:fa:
                    b4:b0:9f:76:19:5b:90:f5:95:8b:08:28:ea:52:58:
                    b5:1d:9c:24:d3:a9:8b:1b:76:5d:0d:40:11:7a:17:
                    f3:a3:dc:de:5c:a4:90:00:79:21:87:a5:00:b6:58:
                    08:b4:40:2d:36:29:5c:e3:fa:0a:2d:50:cd:24:24:
                    1b:ca:f8:36:19:4b:ef:5c:ca:39:7e:b6:5f:52:e2:
                    0b:50:90:b1:a2:a0:3f:73:50:3f:1c:e1:0c:bb:67:
                    5c:a7:3a:d8:ca:eb:bd:c8:fa:d5:47:26:4f:a2:c6:
                    43:fb:fc:1d:bc:46:51:2e:1a:b7:25:d7:15:d4:9e:
                    76:83:66:72:38:58:90:c6:84:3a:cc:8a:0c:80:14:
                    fd:42:ec:aa:52:57:d4:85:e3:06:ac:5f:b5:e6:e7:
                    f3:9d:bd:27:87:9f:e0:4f:df:7f:58:4e:5a:ef:71:
                    ef:a9:3b:be:ad:d4:e1:a0:51:b3:26:65:7b:f1:18:
                    9e:78:f1:29:e4:f6:87:0a:18:5a:16:6a:d2:f0:55:
                    c9:58:c3:a7:01:dc:07:15:5f:b3:94:5f:cf:99:aa:
                    02:16:b8:4c:9c:c0:f1:8e:b2:41:bd:05:bf:b1:c5:
                    9e:21:72:b6:e9:21:54:b5:d8:61:7d:79:89:ef:81:
                    3e:1b
                Exponent: 65537 (0x10001)
        X509v3 extensions:
            X509v3 Basic Constraints: 
                CA:FALSE
            X509v3 Subject Key Identifier: 
                44:85:47:64:F0:44:0E:28:86:55:56:C1:4A:D5:75:8A:45:03:00:C5
            X509v3 Authority Key Identifier: 
                keyid:C4:46:F2:96:38:56:02:B8:9D:09:04:52:25:91:35:97:6A:D7:B1:F0
                DirName:/C=US/ST=California/L=San Francisco/O=Copyleft Certificate Co/OU=My Organizational Unit/CN=ChangeMe/emailAddress=me@example.net
                serial:D1:5A:15:1C:F0:20:95:62

            X509v3 Extended Key Usage: 
                TLS Web Client Authentication
            X509v3 Key Usage: 
                Digital Signature
    Signature Algorithm: sha256WithRSAEncryption
         16:0d:83:24:fc:04:4c:d9:5a:71:18:0f:39:18:f6:39:10:db:
         3f:1e:22:9a:ce:8c:02:57:05:79:67:b5:70:f4:00:78:62:56:
         d6:3c:e1:42:97:af:04:01:8d:6b:31:c9:80:db:c6:35:29:42:
         d2:05:fa:b4:91:b9:26:0d:a3:c4:c1:4b:a8:c7:5a:54:cb:03:
         22:e9:63:3c:ba:e2:21:a4:e1:f1:d5:b0:4b:af:b7:e1:81:c5:
         74:c8:71:d9:df:e0:0d:73:8d:78:23:59:ba:5c:08:cd:27:6e:
         af:b1:a7:eb:82:54:8c:d3:fc:03:91:a0:62:d4:24:de:30:57:
         7b:86:c4:2a:ef:07:1d:b8:b9:80:69:32:45:d0:e7:9c:d0:25:
         eb:81:64:66:4e:1c:4f:c9:bd:d7:68:9e:51:42:e8:2f:2a:55:
         44:e0:52:64:e9:7e:ff:78:52:fd:08:21:8a:30:03:07:14:90:
         6f:2d:d6:b9:76:01:73:16:bf:f4:ad:d3:b5:ab:38:d6:59:de:
         f1:f3:ae:a8:ad:26:20:04:ba:1a:a0:b4:70:f0:c7:9e:59:01:
         9d:44:c7:d8:22:87:84:b4:64:b3:1a:81:fe:45:01:0d:c6:e2:
         73:0b:9f:67:c0:a6:bf:9f:24:6e:b2:54:08:b0:10:6a:cb:88:
         17:cc:58:2a
-----BEGIN CERTIFICATE-----
MIIFLjCCBBagAwIBAgIQEUJVWnuxQyV0km9RxNRpyzANBgkqhkiG9w0BAQsFADCB
rzELMAkGA1UEBhMCVVMxEzARBgNVBAgMCkNhbGlmb3JuaWExFjAUBgNVBAcMDVNh
biBGcmFuY2lzY28xIDAeBgNVBAoMF0NvcHlsZWZ0IENlcnRpZmljYXRlIENvMR8w
HQYDVQQLDBZNeSBPcmdhbml6YXRpb25hbCBVbml0MREwDwYDVQQDDAhDaGFuZ2VN
ZTEdMBsGCSqGSIb3DQEJARYObWVAZXhhbXBsZS5uZXQwHhcNMjMxMTEyMTE0NjE0
WhcNMjQxMTExMTE0NjE0WjCBujELMAkGA1UEBhMCVVMxCzAJBgNVBAgMAk9IMRMw
EQYDVQQHDApDaW5jaW5uYXRpMSEwHwYDVQQKDBhVbml2ZXJzaXR5IG9mIENpbmNp
bm5hdGkxKjAoBgNVBAsMIURlcHQuIEVsZWMuIENvbXAuIEVuZy4gQ29tcC4gU2Np
LjEQMA4GA1UEAwwHY2xpZW50MDEoMCYGCSqGSIb3DQEJARYZZnJhbmNvQGdhdXNz
LmVjZWNzLnVjLmVkdTCCASIwDQYJKoZIhvcNAQEBBQADggEPADCCAQoCggEBAKUY
KqFutt/8nvFz8aP6tLCfdhlbkPWViwgo6lJYtR2cJNOpixt2XQ1AEXoX86Pc3lyk
kAB5IYelALZYCLRALTYpXOP6Ci1QzSQkG8r4NhlL71zKOX62X1LiC1CQsaKgP3NQ
PxzhDLtnXKc62Mrrvcj61UcmT6LGQ/v8HbxGUS4atyXXFdSedoNmcjhYkMaEOsyK
DIAU/ULsqlJX1IXjBqxftebn8529J4ef4E/ff1hOWu9x76k7vq3U4aBRsyZle/EY
nnjxKeT2hwoYWhZq0vBVyVjDpwHcBxVfs5Rfz5mqAha4TJzA8Y6yQb0Fv7HFniFy
tukhVLXYYX15ie+BPhsCAwEAAaOCATcwggEzMAkGA1UdEwQCMAAwHQYDVR0OBBYE
FESFR2TwRA4ohlVWwUrVdYpFAwDFMIHkBgNVHSMEgdwwgdmAFMRG8pY4VgK4nQkE
UiWRNZdq17HwoYG1pIGyMIGvMQswCQYDVQQGEwJVUzETMBEGA1UECAwKQ2FsaWZv
cm5pYTEWMBQGA1UEBwwNU2FuIEZyYW5jaXNjbzEgMB4GA1UECgwXQ29weWxlZnQg
Q2VydGlmaWNhdGUgQ28xHzAdBgNVBAsMFk15IE9yZ2FuaXphdGlvbmFsIFVuaXQx
ETAPBgNVBAMMCENoYW5nZU1lMR0wGwYJKoZIhvcNAQkBFg5tZUBleGFtcGxlLm5l
dIIJANFaFRzwIJViMBMGA1UdJQQMMAoGCCsGAQUFBwMCMAsGA1UdDwQEAwIHgDAN
BgkqhkiG9w0BAQsFAAOCAQEAFg2DJPwETNlacRgPORj2ORDbPx4ims6MAlcFeWe1
cPQAeGJW1jzhQpevBAGNazHJgNvGNSlC0gX6tJG5Jg2jxMFLqMdaVMsDIuljPLri
IaTh8dWwS6+34YHFdMhx2d/gDXONeCNZulwIzSdur7Gn64JUjNP8A5GgYtQk3jBX
e4bEKu8HHbi5gGkyRdDnnNAl64FkZk4cT8m912ieUULoLypVROBSZOl+/3hS/Qgh
ijADBxSQby3WuXYBcxa/9K3Ttas41lne8fOuqK0mIAS6GqC0cPDHnlkBnUTH2CKH
hLRksxqB/kUBDcbicwufZ8Cmv58kbrJUCLAQasuIF8xYKg==
-----END CERTIFICATE-----
