Certificate:
    Data:
        Version: 3 (0x2)
        Serial Number:
            0a:57:0c:6f:a6:ea:f7:b9:cf:05:ca:a7:ab:59:c5:05
    Signature Algorithm: sha256WithRSAEncryption
        Issuer: C=US, ST=California, L=San Francisco, O=Copyleft Certificate Co, OU=My Organizational Unit, CN=ChangeMe/emailAddress=me@example.net
        Validity
            Not Before: Jan 23 18:29:41 2021 GMT
            Not After : Jan 23 18:29:41 2022 GMT
        Subject: C=US, ST=OH, L=Cincinnati, O=University of Cincinnati, OU=Dept. Electrical Eng. and Computer Sci., CN=client103/emailAddress=franco@gauss.ececs.uc.edu
        Subject Public Key Info:
            Public Key Algorithm: rsaEncryption
                Public-Key: (2048 bit)
                Modulus:
                    00:b6:26:e7:95:0f:7d:33:1e:e4:b1:62:cc:34:00:
                    3d:f7:cc:27:8e:d5:39:4f:11:8c:e8:ac:46:38:ff:
                    39:1d:f3:89:e1:67:5b:92:46:5a:be:5f:9b:c1:ed:
                    50:4b:1d:a4:8b:98:7a:37:4c:b6:b7:79:71:51:67:
                    42:2e:d8:29:cd:83:04:4f:c3:32:ae:9c:12:d7:ed:
                    ca:58:91:b9:46:13:ab:e1:c8:9f:26:b1:ba:88:55:
                    49:29:8a:e7:a3:9a:7e:b7:16:97:96:67:43:e2:46:
                    cf:37:ed:1c:32:4a:7a:07:76:09:c3:77:1d:82:ae:
                    e6:d6:4b:f1:81:13:40:c8:2b:9a:ff:d8:0a:38:cd:
                    7a:d1:b9:ea:fd:f7:d5:dd:29:d2:b2:e3:a5:d2:ce:
                    ba:a0:71:eb:d7:e4:99:50:d3:91:a3:0e:a4:85:fb:
                    f2:d7:25:49:ea:03:6a:a3:84:30:10:d0:52:51:dd:
                    44:27:49:c8:e9:81:f3:75:b6:43:72:2b:df:11:bd:
                    1a:11:eb:61:67:9a:39:29:e0:01:da:81:ab:b4:09:
                    90:95:60:0a:ec:f3:bb:d7:72:91:47:8c:de:98:c5:
                    a5:39:68:01:81:80:13:3d:0c:48:e4:32:a9:ba:76:
                    5a:45:e9:a7:e9:e5:08:24:4b:5b:7b:e8:e2:6e:d5:
                    d1:51
                Exponent: 65537 (0x10001)
        X509v3 extensions:
            X509v3 Basic Constraints: 
                CA:FALSE
            X509v3 Subject Key Identifier: 
                16:D0:B5:0A:0F:C5:ED:38:CA:84:68:8E:FE:16:05:C1:AA:FF:32:B5
            X509v3 Authority Key Identifier: 
                keyid:EF:DC:B6:3D:4B:FD:A7:87:05:C5:22:3D:8B:DC:BF:99:2A:EE:E4:DB
                DirName:/C=US/ST=California/L=San Francisco/O=Copyleft Certificate Co/OU=My Organizational Unit/CN=ChangeMe/emailAddress=me@example.net
                serial:87:1E:1D:DC:6B:8C:66:88

            X509v3 Extended Key Usage: 
                TLS Web Client Authentication
            X509v3 Key Usage: 
                Digital Signature
    Signature Algorithm: sha256WithRSAEncryption
         8d:ef:b5:57:a6:1e:41:10:a0:68:eb:8a:83:41:79:ba:03:cd:
         86:83:8e:f8:e6:83:e2:7f:c2:32:01:38:8c:4d:2b:83:5e:df:
         3d:ae:a9:37:46:8b:6f:2a:ef:70:a1:e0:84:62:bd:fc:b8:13:
         14:1c:47:21:87:4f:f3:59:99:36:8c:4e:16:e7:03:19:a7:59:
         3f:73:f5:dc:59:e2:bf:d0:47:c0:5b:a4:6d:a1:c6:33:50:51:
         f8:2d:6b:52:db:ac:99:96:9d:b1:d4:6f:4c:6d:4a:42:fc:a7:
         f9:42:e9:22:ea:59:5e:b0:d5:20:57:79:c5:66:47:1b:78:d4:
         3b:8e:bf:2a:7e:2c:c1:80:b9:f0:f3:3e:61:b0:4c:6b:0e:ae:
         ab:c7:e1:f6:5d:5c:14:d7:de:74:95:3b:d6:ae:0e:0c:c6:1d:
         60:8c:9d:4b:10:96:55:af:79:7f:78:71:00:c4:46:7f:ec:ae:
         b2:0d:53:d4:9b:8a:e1:7f:3a:5c:e7:27:54:00:bd:c5:4e:78:
         52:0d:f3:a3:0f:c0:3b:31:e7:7f:b2:82:41:8b:36:47:7a:51:
         07:51:54:6a:a6:1f:07:17:ff:31:4c:53:e1:53:fa:c3:37:bc:
         1a:88:4e:29:e8:30:74:71:d0:db:bf:ec:68:2a:0d:d8:ed:94:
         68:5f:19:03
-----BEGIN CERTIFICATE-----
MIIFNjCCBB6gAwIBAgIQClcMb6bq97nPBcqnq1nFBTANBgkqhkiG9w0BAQsFADCB
rzELMAkGA1UEBhMCVVMxEzARBgNVBAgMCkNhbGlmb3JuaWExFjAUBgNVBAcMDVNh
biBGcmFuY2lzY28xIDAeBgNVBAoMF0NvcHlsZWZ0IENlcnRpZmljYXRlIENvMR8w
HQYDVQQLDBZNeSBPcmdhbml6YXRpb25hbCBVbml0MREwDwYDVQQDDAhDaGFuZ2VN
ZTEdMBsGCSqGSIb3DQEJARYObWVAZXhhbXBsZS5uZXQwHhcNMjEwMTIzMTgyOTQx
WhcNMjIwMTIzMTgyOTQxWjCBwjELMAkGA1UEBhMCVVMxCzAJBgNVBAgMAk9IMRMw
EQYDVQQHDApDaW5jaW5uYXRpMSEwHwYDVQQKDBhVbml2ZXJzaXR5IG9mIENpbmNp
bm5hdGkxMDAuBgNVBAsMJ0RlcHQuIEVsZWN0cmljYWwgRW5nLiBhbmQgQ29tcHV0
ZXIgU2NpLjESMBAGA1UEAwwJY2xpZW50MTAzMSgwJgYJKoZIhvcNAQkBFhlmcmFu
Y29AZ2F1c3MuZWNlY3MudWMuZWR1MIIBIjANBgkqhkiG9w0BAQEFAAOCAQ8AMIIB
CgKCAQEAtibnlQ99Mx7ksWLMNAA998wnjtU5TxGM6KxGOP85HfOJ4WdbkkZavl+b
we1QSx2ki5h6N0y2t3lxUWdCLtgpzYMET8MyrpwS1+3KWJG5RhOr4cifJrG6iFVJ
KYrno5p+txaXlmdD4kbPN+0cMkp6B3YJw3cdgq7m1kvxgRNAyCua/9gKOM160bnq
/ffV3SnSsuOl0s66oHHr1+SZUNORow6khfvy1yVJ6gNqo4QwENBSUd1EJ0nI6YHz
dbZDcivfEb0aEethZ5o5KeAB2oGrtAmQlWAK7PO713KRR4zemMWlOWgBgYATPQxI
5DKpunZaRemn6eUIJEtbe+jibtXRUQIDAQABo4IBNzCCATMwCQYDVR0TBAIwADAd
BgNVHQ4EFgQUFtC1Cg/F7TjKhGiO/hYFwar/MrUwgeQGA1UdIwSB3DCB2YAU79y2
PUv9p4cFxSI9i9y/mSru5NuhgbWkgbIwga8xCzAJBgNVBAYTAlVTMRMwEQYDVQQI
DApDYWxpZm9ybmlhMRYwFAYDVQQHDA1TYW4gRnJhbmNpc2NvMSAwHgYDVQQKDBdD
b3B5bGVmdCBDZXJ0aWZpY2F0ZSBDbzEfMB0GA1UECwwWTXkgT3JnYW5pemF0aW9u
YWwgVW5pdDERMA8GA1UEAwwIQ2hhbmdlTWUxHTAbBgkqhkiG9w0BCQEWDm1lQGV4
YW1wbGUubmV0ggkAhx4d3GuMZogwEwYDVR0lBAwwCgYIKwYBBQUHAwIwCwYDVR0P
BAQDAgeAMA0GCSqGSIb3DQEBCwUAA4IBAQCN77VXph5BEKBo64qDQXm6A82Gg474
5oPif8IyATiMTSuDXt89rqk3RotvKu9woeCEYr38uBMUHEchh0/zWZk2jE4W5wMZ
p1k/c/XcWeK/0EfAW6RtocYzUFH4LWtS26yZlp2x1G9MbUpC/Kf5Quki6llesNUg
V3nFZkcbeNQ7jr8qfizBgLnw8z5hsExrDq6rx+H2XVwU1950lTvWrg4Mxh1gjJ1L
EJZVr3l/eHEAxEZ/7K6yDVPUm4rhfzpc5ydUAL3FTnhSDfOjD8A7Med/soJBizZH
elEHUVRqph8HF/8xTFPhU/rDN7waiE4p6DB0cdDbv+xoKg3Y7ZRoXxkD
-----END CERTIFICATE-----
