Certificate:
    Data:
        Version: 3 (0x2)
        Serial Number:
            3f:b7:6f:7e:78:cc:b9:11:5c:0f:7d:41:c4:e9:c7:63
    Signature Algorithm: sha256WithRSAEncryption
        Issuer: C=US, ST=California, L=San Francisco, O=Copyleft Certificate Co, OU=My Organizational Unit, CN=ChangeMe/emailAddress=me@example.net
        Validity
            Not Before: Nov 11 01:44:26 2023 GMT
            Not After : Nov 10 01:44:26 2024 GMT
        Subject: C=US, ST=OH, L=Cincinnati, O=University of Cincinnati, OU=Dept. Elec. Comp. Eng. Comp. Sci., CN=client71/emailAddress=franco@gauss.ececs.uc.edu
        Subject Public Key Info:
            Public Key Algorithm: rsaEncryption
                Public-Key: (2048 bit)
                Modulus:
                    00:c5:bf:1d:e2:6c:78:5d:cb:5a:8d:30:7f:58:c1:
                    36:6d:5a:b7:d6:ea:84:8f:1b:8f:1a:80:6c:f6:78:
                    c2:31:03:62:52:b3:96:eb:61:45:d2:f5:e3:a2:9f:
                    3a:27:c8:ff:1f:a3:6b:7d:95:72:49:b5:02:3f:be:
                    4e:45:94:9f:7f:6d:42:68:02:70:d2:86:32:58:fe:
                    9a:8f:40:70:ad:0e:21:79:9f:c3:45:60:62:ee:44:
                    fb:22:04:e5:22:da:81:d1:8d:fd:e6:14:b4:00:d1:
                    e7:4e:e8:0d:4d:91:5e:df:77:0d:f6:6b:89:76:fe:
                    36:6c:bc:1d:9f:ba:d4:0d:10:e5:68:db:84:47:e4:
                    8e:0b:2e:c0:dd:7d:d1:8e:27:75:c9:ea:4a:35:a1:
                    60:47:b4:7a:ca:ee:fd:95:fb:2e:9d:c3:44:f4:e3:
                    7f:89:14:ea:45:43:57:1b:98:5d:e2:00:08:cf:7d:
                    5b:89:27:78:18:21:f7:a6:9f:89:05:0e:df:cf:34:
                    1c:7f:87:bb:c9:e1:86:37:83:41:02:11:5f:03:0f:
                    4a:04:85:a7:ec:6c:56:cd:d0:c8:04:8a:c5:b5:2d:
                    02:0c:fd:25:bf:a7:4e:3c:a1:77:0d:70:7d:56:87:
                    19:e3:11:9d:22:f0:06:4b:48:9a:f3:fa:72:b1:ef:
                    92:97
                Exponent: 65537 (0x10001)
        X509v3 extensions:
            X509v3 Basic Constraints: 
                CA:FALSE
            X509v3 Subject Key Identifier: 
                E2:D6:21:C1:85:9E:11:C1:EE:9A:5C:59:0C:1A:43:31:DD:38:9A:71
            X509v3 Authority Key Identifier: 
                keyid:73:DE:A0:43:0F:AE:B1:9E:E8:59:69:18:50:A1:1A:1F:D4:A1:E3:F0
                DirName:/C=US/ST=California/L=San Francisco/O=Copyleft Certificate Co/OU=My Organizational Unit/CN=ChangeMe/emailAddress=me@example.net
                serial:E9:BB:CB:16:C5:32:BE:3B

            X509v3 Extended Key Usage: 
                TLS Web Client Authentication
            X509v3 Key Usage: 
                Digital Signature
    Signature Algorithm: sha256WithRSAEncryption
         0b:67:6a:ee:dc:30:31:52:88:06:20:27:01:cb:b6:6c:3c:23:
         eb:8a:5f:31:c5:bd:89:d1:c4:7d:51:ec:0a:95:32:d5:21:30:
         ac:7d:1c:e1:72:3d:cd:c4:6d:a6:52:7c:2b:21:d2:7c:f6:1b:
         de:c9:39:50:dc:94:ad:74:57:5e:78:6d:e2:11:d2:c5:1e:17:
         12:86:5a:83:a8:19:f0:33:86:aa:6d:91:a2:50:9d:89:c0:7c:
         c7:93:17:04:6e:2f:4d:c4:3d:d5:f4:3b:25:bf:49:8d:cb:20:
         3e:07:0d:16:4c:6c:7f:93:93:ce:f6:9d:2f:ca:75:bf:85:7b:
         ba:7f:e4:c7:50:4c:bd:ef:36:47:28:37:42:3f:f9:65:66:96:
         e1:b5:32:32:a3:34:09:c3:1d:18:d0:ed:44:8e:f6:80:82:96:
         b6:72:d4:04:f9:63:10:3b:d4:e4:29:03:e3:49:57:68:a4:e6:
         e4:3a:ac:e8:35:da:c5:82:f2:b9:0f:6b:b4:30:e5:20:44:7c:
         e4:f0:d4:1a:3b:27:e9:ee:ed:96:db:34:de:87:ec:23:b2:25:
         b1:46:26:8f:97:dc:4f:75:69:e4:d5:1c:cf:11:e3:34:4c:da:
         08:76:ec:a7:0b:50:e5:c7:6e:41:62:e3:3e:65:84:88:7b:8d:
         fc:94:f5:d1
-----BEGIN CERTIFICATE-----
MIIFLzCCBBegAwIBAgIQP7dvfnjMuRFcD31BxOnHYzANBgkqhkiG9w0BAQsFADCB
rzELMAkGA1UEBhMCVVMxEzARBgNVBAgMCkNhbGlmb3JuaWExFjAUBgNVBAcMDVNh
biBGcmFuY2lzY28xIDAeBgNVBAoMF0NvcHlsZWZ0IENlcnRpZmljYXRlIENvMR8w
HQYDVQQLDBZNeSBPcmdhbml6YXRpb25hbCBVbml0MREwDwYDVQQDDAhDaGFuZ2VN
ZTEdMBsGCSqGSIb3DQEJARYObWVAZXhhbXBsZS5uZXQwHhcNMjMxMTExMDE0NDI2
WhcNMjQxMTEwMDE0NDI2WjCBuzELMAkGA1UEBhMCVVMxCzAJBgNVBAgMAk9IMRMw
EQYDVQQHDApDaW5jaW5uYXRpMSEwHwYDVQQKDBhVbml2ZXJzaXR5IG9mIENpbmNp
bm5hdGkxKjAoBgNVBAsMIURlcHQuIEVsZWMuIENvbXAuIEVuZy4gQ29tcC4gU2Np
LjERMA8GA1UEAwwIY2xpZW50NzExKDAmBgkqhkiG9w0BCQEWGWZyYW5jb0BnYXVz
cy5lY2Vjcy51Yy5lZHUwggEiMA0GCSqGSIb3DQEBAQUAA4IBDwAwggEKAoIBAQDF
vx3ibHhdy1qNMH9YwTZtWrfW6oSPG48agGz2eMIxA2JSs5brYUXS9eOinzonyP8f
o2t9lXJJtQI/vk5FlJ9/bUJoAnDShjJY/pqPQHCtDiF5n8NFYGLuRPsiBOUi2oHR
jf3mFLQA0edO6A1NkV7fdw32a4l2/jZsvB2futQNEOVo24RH5I4LLsDdfdGOJ3XJ
6ko1oWBHtHrK7v2V+y6dw0T043+JFOpFQ1cbmF3iAAjPfVuJJ3gYIfemn4kFDt/P
NBx/h7vJ4YY3g0ECEV8DD0oEhafsbFbN0MgEisW1LQIM/SW/p048oXcNcH1Whxnj
EZ0i8AZLSJrz+nKx75KXAgMBAAGjggE3MIIBMzAJBgNVHRMEAjAAMB0GA1UdDgQW
BBTi1iHBhZ4Rwe6aXFkMGkMx3TiacTCB5AYDVR0jBIHcMIHZgBRz3qBDD66xnuhZ
aRhQoRof1KHj8KGBtaSBsjCBrzELMAkGA1UEBhMCVVMxEzARBgNVBAgMCkNhbGlm
b3JuaWExFjAUBgNVBAcMDVNhbiBGcmFuY2lzY28xIDAeBgNVBAoMF0NvcHlsZWZ0
IENlcnRpZmljYXRlIENvMR8wHQYDVQQLDBZNeSBPcmdhbml6YXRpb25hbCBVbml0
MREwDwYDVQQDDAhDaGFuZ2VNZTEdMBsGCSqGSIb3DQEJARYObWVAZXhhbXBsZS5u
ZXSCCQDpu8sWxTK+OzATBgNVHSUEDDAKBggrBgEFBQcDAjALBgNVHQ8EBAMCB4Aw
DQYJKoZIhvcNAQELBQADggEBAAtnau7cMDFSiAYgJwHLtmw8I+uKXzHFvYnRxH1R
7AqVMtUhMKx9HOFyPc3EbaZSfCsh0nz2G97JOVDclK10V154beIR0sUeFxKGWoOo
GfAzhqptkaJQnYnAfMeTFwRuL03EPdX0OyW/SY3LID4HDRZMbH+Tk872nS/Kdb+F
e7p/5MdQTL3vNkcoN0I/+WVmluG1MjKjNAnDHRjQ7USO9oCClrZy1AT5YxA71OQp
A+NJV2ik5uQ6rOg12sWC8rkPa7Qw5SBEfOTw1Bo7J+nu7ZbbNN6H7COyJbFGJo+X
3E91aeTVHM8R4zRM2gh27KcLUOXHbkFi4z5lhIh7jfyU9dE=
-----END CERTIFICATE-----
