Certificate:
    Data:
        Version: 3 (0x2)
        Serial Number:
            eb:81:e2:39:e2:13:5a:d3:c0:06:8b:63:3d:f2:a3:4f
    Signature Algorithm: sha256WithRSAEncryption
        Issuer: C=US, ST=California, L=San Francisco, O=Copyleft Certificate Co, OU=My Organizational Unit, CN=ChangeMe/emailAddress=me@example.net
        Validity
            Not Before: Nov 10 17:48:22 2023 GMT
            Not After : Nov  9 17:48:22 2024 GMT
        Subject: C=US, ST=OH, L=Cincinnati, O=University of Cincinnati, OU=Dept_Elec_Com_ Eng_Com_Sci., CN=client149/emailAddress=franco@gauss.ececs.uc.edu
        Subject Public Key Info:
            Public Key Algorithm: rsaEncryption
                Public-Key: (2048 bit)
                Modulus:
                    00:d0:cf:e0:66:92:e7:22:ad:7e:5a:4d:92:47:25:
                    ef:31:15:e4:a1:4a:16:5b:ff:89:2f:e1:cd:54:b2:
                    ee:55:24:51:06:8c:4e:20:11:ba:68:43:31:34:2a:
                    06:fb:f3:fc:3a:cc:91:65:26:77:09:ff:cf:a4:44:
                    02:70:43:a2:d7:08:1e:58:ae:b7:c6:ac:6d:f1:43:
                    f9:31:93:75:e3:43:ec:8f:a0:e5:41:df:77:e7:89:
                    d4:90:98:41:ff:09:3b:26:48:7e:6d:57:fe:e8:67:
                    73:ee:e2:31:83:9b:e8:b8:71:41:24:04:7f:8d:2f:
                    62:fd:cb:c0:22:d4:13:9c:9e:28:55:b0:72:86:89:
                    de:2b:47:46:c6:9f:22:9f:d0:f5:b5:f4:ff:70:55:
                    af:29:42:89:ca:a6:20:a1:a9:76:37:6d:99:68:93:
                    60:47:f9:f8:8b:36:d8:77:88:32:02:8c:53:3a:30:
                    cd:b1:17:a3:39:5e:2b:32:d4:30:b7:0d:f1:c7:8c:
                    62:02:64:00:50:5f:e3:d9:d7:23:92:57:be:63:c6:
                    c0:7e:a0:17:63:c7:6d:c0:ac:12:4a:1f:27:23:6d:
                    07:7b:b6:66:fb:16:41:6f:ee:ce:f0:c5:fd:f0:74:
                    22:d9:a6:5b:1a:9c:12:f0:1f:08:99:47:c5:73:3a:
                    97:8f
                Exponent: 65537 (0x10001)
        X509v3 extensions:
            X509v3 Basic Constraints: 
                CA:FALSE
            X509v3 Subject Key Identifier: 
                0B:13:58:43:5A:00:1B:47:A0:CF:F1:FE:27:13:58:09:A4:EA:29:47
            X509v3 Authority Key Identifier: 
                keyid:C8:27:DA:64:30:08:40:08:4A:25:CC:DC:43:99:DE:77:A1:FE:77:BD
                DirName:/C=US/ST=California/L=San Francisco/O=Copyleft Certificate Co/OU=My Organizational Unit/CN=ChangeMe/emailAddress=me@example.net
                serial:A9:48:C3:7E:FC:1B:B0:A1

            X509v3 Extended Key Usage: 
                TLS Web Client Authentication
            X509v3 Key Usage: 
                Digital Signature
    Signature Algorithm: sha256WithRSAEncryption
         52:b6:ba:9c:b0:51:97:ca:05:5c:8f:17:b5:9b:c5:48:f0:1f:
         51:7a:3a:c5:ff:48:1f:b4:62:79:0b:28:89:ab:f4:4e:a4:d7:
         c7:4c:71:59:e3:77:ee:27:30:0d:a5:22:a3:ba:96:0f:64:f0:
         19:9c:af:02:2f:78:91:cb:0a:70:76:44:7d:cc:f5:4d:df:41:
         db:9e:82:e0:55:cd:a6:f2:41:95:53:af:c5:cb:f8:de:2d:79:
         36:e7:ab:c5:a9:a6:92:3d:5c:60:39:79:32:e4:f4:88:c6:64:
         2e:6e:d7:9b:c4:08:5c:76:16:53:64:6d:23:64:32:5a:a3:47:
         33:e8:b5:07:9b:2f:f2:ac:f6:8c:1b:df:79:35:2e:e9:0a:8b:
         c1:74:05:01:3a:bb:7a:2e:82:91:60:15:b7:c4:4c:c4:79:07:
         e0:b7:c1:0c:be:b8:34:89:a6:80:aa:fe:a1:e3:83:9f:85:1e:
         21:38:5a:10:c6:c4:3e:1a:82:09:28:b0:d1:ec:97:e1:10:10:
         2a:5c:41:60:23:58:52:a7:93:a7:05:cb:50:d1:77:d7:65:09:
         33:2d:93:26:ca:15:2a:54:07:d1:13:fb:1b:08:e2:6a:1b:c0:
         c9:3c:f8:88:75:2b:82:fc:e0:46:9f:d2:6a:fb:2f:3b:10:49:
         b3:45:47:d1
-----BEGIN CERTIFICATE-----
MIIFKzCCBBOgAwIBAgIRAOuB4jniE1rTwAaLYz3yo08wDQYJKoZIhvcNAQELBQAw
ga8xCzAJBgNVBAYTAlVTMRMwEQYDVQQIDApDYWxpZm9ybmlhMRYwFAYDVQQHDA1T
YW4gRnJhbmNpc2NvMSAwHgYDVQQKDBdDb3B5bGVmdCBDZXJ0aWZpY2F0ZSBDbzEf
MB0GA1UECwwWTXkgT3JnYW5pemF0aW9uYWwgVW5pdDERMA8GA1UEAwwIQ2hhbmdl
TWUxHTAbBgkqhkiG9w0BCQEWDm1lQGV4YW1wbGUubmV0MB4XDTIzMTExMDE3NDgy
MloXDTI0MTEwOTE3NDgyMlowgbYxCzAJBgNVBAYTAlVTMQswCQYDVQQIDAJPSDET
MBEGA1UEBwwKQ2luY2lubmF0aTEhMB8GA1UECgwYVW5pdmVyc2l0eSBvZiBDaW5j
aW5uYXRpMSQwIgYDVQQLDBtEZXB0X0VsZWNfQ29tXyBFbmdfQ29tX1NjaS4xEjAQ
BgNVBAMMCWNsaWVudDE0OTEoMCYGCSqGSIb3DQEJARYZZnJhbmNvQGdhdXNzLmVj
ZWNzLnVjLmVkdTCCASIwDQYJKoZIhvcNAQEBBQADggEPADCCAQoCggEBANDP4GaS
5yKtflpNkkcl7zEV5KFKFlv/iS/hzVSy7lUkUQaMTiARumhDMTQqBvvz/DrMkWUm
dwn/z6REAnBDotcIHliut8asbfFD+TGTdeND7I+g5UHfd+eJ1JCYQf8JOyZIfm1X
/uhnc+7iMYOb6LhxQSQEf40vYv3LwCLUE5yeKFWwcoaJ3itHRsafIp/Q9bX0/3BV
rylCicqmIKGpdjdtmWiTYEf5+Is22HeIMgKMUzowzbEXozleKzLUMLcN8ceMYgJk
AFBf49nXI5JXvmPGwH6gF2PHbcCsEkofJyNtB3u2ZvsWQW/uzvDF/fB0ItmmWxqc
EvAfCJlHxXM6l48CAwEAAaOCATcwggEzMAkGA1UdEwQCMAAwHQYDVR0OBBYEFAsT
WENaABtHoM/x/icTWAmk6ilHMIHkBgNVHSMEgdwwgdmAFMgn2mQwCEAISiXM3EOZ
3neh/ne9oYG1pIGyMIGvMQswCQYDVQQGEwJVUzETMBEGA1UECAwKQ2FsaWZvcm5p
YTEWMBQGA1UEBwwNU2FuIEZyYW5jaXNjbzEgMB4GA1UECgwXQ29weWxlZnQgQ2Vy
dGlmaWNhdGUgQ28xHzAdBgNVBAsMFk15IE9yZ2FuaXphdGlvbmFsIFVuaXQxETAP
BgNVBAMMCENoYW5nZU1lMR0wGwYJKoZIhvcNAQkBFg5tZUBleGFtcGxlLm5ldIIJ
AKlIw378G7ChMBMGA1UdJQQMMAoGCCsGAQUFBwMCMAsGA1UdDwQEAwIHgDANBgkq
hkiG9w0BAQsFAAOCAQEAUra6nLBRl8oFXI8XtZvFSPAfUXo6xf9IH7RieQsoiav0
TqTXx0xxWeN37icwDaUio7qWD2TwGZyvAi94kcsKcHZEfcz1Td9B256C4FXNpvJB
lVOvxcv43i15Nuerxammkj1cYDl5MuT0iMZkLm7Xm8QIXHYWU2RtI2QyWqNHM+i1
B5sv8qz2jBvfeTUu6QqLwXQFATq7ei6CkWAVt8RMxHkH4LfBDL64NImmgKr+oeOD
n4UeIThaEMbEPhqCCSiw0eyX4RAQKlxBYCNYUqeTpwXLUNF312UJMy2TJsoVKlQH
0RP7GwjiahvAyTz4iHUrgvzgRp/SavsvOxBJs0VH0Q==
-----END CERTIFICATE-----
