Certificate:
    Data:
        Version: 3 (0x2)
        Serial Number:
            93:5d:4d:b0:46:11:84:b2:df:c2:b9:d7:cc:c6:9c:d6
    Signature Algorithm: sha256WithRSAEncryption
        Issuer: C=US, ST=California, L=San Francisco, O=Copyleft Certificate Co, OU=My Organizational Unit, CN=ChangeMe/emailAddress=me@example.net
        Validity
            Not Before: Nov 10 17:47:58 2023 GMT
            Not After : Nov  9 17:47:58 2024 GMT
        Subject: C=US, ST=OH, L=Cincinnati, O=University of Cincinnati, OU=Dept_Elec_Com_ Eng_Com_Sci., CN=client143/emailAddress=franco@gauss.ececs.uc.edu
        Subject Public Key Info:
            Public Key Algorithm: rsaEncryption
                Public-Key: (2048 bit)
                Modulus:
                    00:b7:b1:c3:e7:c5:2f:38:5e:4e:17:05:5b:ea:69:
                    2c:26:27:16:37:a0:62:1b:72:b8:ac:ca:c5:40:ec:
                    ac:76:52:87:4d:18:f9:3a:5f:b3:e1:56:2f:51:9a:
                    25:df:96:05:39:b4:20:4c:b0:16:15:82:74:9d:7c:
                    34:13:34:32:50:89:b8:5f:24:e4:3c:3d:cc:7a:18:
                    b1:7b:a4:52:40:82:c0:d5:18:30:9e:10:d5:78:7a:
                    19:6f:a6:6d:42:d4:24:f6:57:16:b5:e3:06:16:e9:
                    89:48:a6:0e:b0:66:8b:2e:a7:64:f8:1e:2a:85:2b:
                    17:df:9f:43:52:05:98:30:ff:83:9b:7b:43:d5:33:
                    f7:4d:2b:27:31:63:4f:f2:f7:9a:c0:e0:2e:b4:49:
                    79:cc:8e:32:b2:b3:72:9c:18:5a:39:c1:d2:8d:ba:
                    8a:5f:b2:fb:36:f3:a5:8d:e3:4f:67:72:c6:9c:64:
                    7e:60:c6:e9:67:9f:6d:95:46:7c:a6:fb:08:c5:d1:
                    c0:30:d2:bc:af:4c:f4:e3:8b:b6:ed:e6:3f:b6:ef:
                    e0:10:9c:cb:3b:9a:fa:81:6a:14:65:4f:31:73:93:
                    43:8e:4a:f7:5c:ac:33:db:bb:c7:0a:8f:28:89:cd:
                    ac:ec:3b:16:5d:dd:f9:9a:ad:b8:f0:e4:9f:d0:0d:
                    3e:99
                Exponent: 65537 (0x10001)
        X509v3 extensions:
            X509v3 Basic Constraints: 
                CA:FALSE
            X509v3 Subject Key Identifier: 
                E9:B2:B4:9B:87:A9:C3:21:77:04:91:5E:D1:D8:FF:84:D0:BE:6F:43
            X509v3 Authority Key Identifier: 
                keyid:C8:27:DA:64:30:08:40:08:4A:25:CC:DC:43:99:DE:77:A1:FE:77:BD
                DirName:/C=US/ST=California/L=San Francisco/O=Copyleft Certificate Co/OU=My Organizational Unit/CN=ChangeMe/emailAddress=me@example.net
                serial:A9:48:C3:7E:FC:1B:B0:A1

            X509v3 Extended Key Usage: 
                TLS Web Client Authentication
            X509v3 Key Usage: 
                Digital Signature
    Signature Algorithm: sha256WithRSAEncryption
         3c:1e:8f:81:16:c5:9a:0f:b4:eb:16:7c:b1:c5:e8:03:ab:f9:
         2f:82:50:78:a9:64:4b:30:e3:06:28:e2:c9:58:34:a1:bf:3d:
         c5:98:d8:aa:88:c4:b5:60:e9:07:8e:cb:dc:1f:4b:a9:47:3e:
         c0:af:58:13:9d:17:9d:91:41:8e:d0:d5:de:59:49:f3:19:1c:
         14:a1:8d:c9:0a:04:7d:86:44:4b:48:cb:0c:62:6e:cd:e3:ce:
         1d:af:75:c9:79:f1:d1:57:76:aa:d1:bb:00:fe:29:88:41:e4:
         3e:91:fc:4c:af:71:bc:3d:b1:d9:05:03:b4:34:b9:5a:53:d6:
         cb:58:9f:7e:b0:51:f5:87:e4:eb:13:10:4b:7e:15:34:06:89:
         fc:4a:b0:a8:9b:2b:a8:c2:56:7c:ea:24:38:d1:3e:05:4a:c8:
         af:c1:1d:6a:0f:4f:28:da:92:08:20:ea:fc:ec:fa:03:1b:16:
         01:50:f5:f8:1d:be:4b:9d:fc:3d:d2:30:32:6d:6c:30:59:4b:
         9b:ac:f1:24:53:01:87:15:b7:bb:5c:38:05:b7:0e:11:fa:17:
         dd:c9:b4:a4:cd:10:c2:02:37:0f:2b:d1:47:fb:eb:0b:6b:ff:
         96:6f:dd:e1:76:70:90:12:2e:9d:37:9b:33:43:75:d2:ff:e1:
         f6:56:2f:0e
-----BEGIN CERTIFICATE-----
MIIFKzCCBBOgAwIBAgIRAJNdTbBGEYSy38K518zGnNYwDQYJKoZIhvcNAQELBQAw
ga8xCzAJBgNVBAYTAlVTMRMwEQYDVQQIDApDYWxpZm9ybmlhMRYwFAYDVQQHDA1T
YW4gRnJhbmNpc2NvMSAwHgYDVQQKDBdDb3B5bGVmdCBDZXJ0aWZpY2F0ZSBDbzEf
MB0GA1UECwwWTXkgT3JnYW5pemF0aW9uYWwgVW5pdDERMA8GA1UEAwwIQ2hhbmdl
TWUxHTAbBgkqhkiG9w0BCQEWDm1lQGV4YW1wbGUubmV0MB4XDTIzMTExMDE3NDc1
OFoXDTI0MTEwOTE3NDc1OFowgbYxCzAJBgNVBAYTAlVTMQswCQYDVQQIDAJPSDET
MBEGA1UEBwwKQ2luY2lubmF0aTEhMB8GA1UECgwYVW5pdmVyc2l0eSBvZiBDaW5j
aW5uYXRpMSQwIgYDVQQLDBtEZXB0X0VsZWNfQ29tXyBFbmdfQ29tX1NjaS4xEjAQ
BgNVBAMMCWNsaWVudDE0MzEoMCYGCSqGSIb3DQEJARYZZnJhbmNvQGdhdXNzLmVj
ZWNzLnVjLmVkdTCCASIwDQYJKoZIhvcNAQEBBQADggEPADCCAQoCggEBALexw+fF
LzheThcFW+ppLCYnFjegYhtyuKzKxUDsrHZSh00Y+Tpfs+FWL1GaJd+WBTm0IEyw
FhWCdJ18NBM0MlCJuF8k5Dw9zHoYsXukUkCCwNUYMJ4Q1Xh6GW+mbULUJPZXFrXj
BhbpiUimDrBmiy6nZPgeKoUrF9+fQ1IFmDD/g5t7Q9Uz900rJzFjT/L3msDgLrRJ
ecyOMrKzcpwYWjnB0o26il+y+zbzpY3jT2dyxpxkfmDG6WefbZVGfKb7CMXRwDDS
vK9M9OOLtu3mP7bv4BCcyzua+oFqFGVPMXOTQ45K91ysM9u7xwqPKInNrOw7Fl3d
+ZqtuPDkn9ANPpkCAwEAAaOCATcwggEzMAkGA1UdEwQCMAAwHQYDVR0OBBYEFOmy
tJuHqcMhdwSRXtHY/4TQvm9DMIHkBgNVHSMEgdwwgdmAFMgn2mQwCEAISiXM3EOZ
3neh/ne9oYG1pIGyMIGvMQswCQYDVQQGEwJVUzETMBEGA1UECAwKQ2FsaWZvcm5p
YTEWMBQGA1UEBwwNU2FuIEZyYW5jaXNjbzEgMB4GA1UECgwXQ29weWxlZnQgQ2Vy
dGlmaWNhdGUgQ28xHzAdBgNVBAsMFk15IE9yZ2FuaXphdGlvbmFsIFVuaXQxETAP
BgNVBAMMCENoYW5nZU1lMR0wGwYJKoZIhvcNAQkBFg5tZUBleGFtcGxlLm5ldIIJ
AKlIw378G7ChMBMGA1UdJQQMMAoGCCsGAQUFBwMCMAsGA1UdDwQEAwIHgDANBgkq
hkiG9w0BAQsFAAOCAQEAPB6PgRbFmg+06xZ8scXoA6v5L4JQeKlkSzDjBijiyVg0
ob89xZjYqojEtWDpB47L3B9LqUc+wK9YE50XnZFBjtDV3llJ8xkcFKGNyQoEfYZE
S0jLDGJuzePOHa91yXnx0Vd2qtG7AP4piEHkPpH8TK9xvD2x2QUDtDS5WlPWy1if
frBR9Yfk6xMQS34VNAaJ/EqwqJsrqMJWfOokONE+BUrIr8Edag9PKNqSCCDq/Oz6
AxsWAVD1+B2+S538PdIwMm1sMFlLm6zxJFMBhxW3u1w4BbcOEfoX3cm0pM0QwgI3
DyvRR/vrC2v/lm/d4XZwkBIunTebM0N10v/h9lYvDg==
-----END CERTIFICATE-----
