Certificate:
    Data:
        Version: 3 (0x2)
        Serial Number:
            a6:0c:5b:36:cb:0e:ca:75:0d:ca:62:9e:a0:f2:de:5f
    Signature Algorithm: sha256WithRSAEncryption
        Issuer: C=US, ST=California, L=San Francisco, O=Copyleft Certificate Co, OU=My Organizational Unit, CN=ChangeMe/emailAddress=me@example.net
        Validity
            Not Before: Nov 10 17:46:14 2023 GMT
            Not After : Nov  9 17:46:14 2024 GMT
        Subject: C=US, ST=OH, L=Cincinnati, O=University of Cincinnati, OU=Dept_Elec_Com_ Eng_Com_Sci., CN=client117/emailAddress=franco@gauss.ececs.uc.edu
        Subject Public Key Info:
            Public Key Algorithm: rsaEncryption
                Public-Key: (2048 bit)
                Modulus:
                    00:e7:83:81:75:27:90:73:6f:47:76:99:c8:17:7c:
                    5d:8a:6e:71:04:e3:01:37:39:e8:00:c5:75:30:02:
                    b3:f7:77:99:c1:0b:89:99:6b:8e:21:8a:bd:8a:ba:
                    e0:be:cd:1a:1d:89:9b:a2:f9:4a:05:e0:d6:28:6e:
                    e7:9d:51:51:9f:bb:b8:39:84:a2:74:64:1e:74:f0:
                    98:2b:79:52:b9:bf:89:86:33:f1:cb:9c:b6:54:f4:
                    69:ef:ac:ef:eb:3d:ae:f2:cb:54:7e:10:c4:f4:a5:
                    62:47:3c:8a:b0:0b:32:8e:ef:2b:1d:e6:4e:4f:df:
                    69:6b:dc:5e:ce:62:e2:65:69:0d:15:bb:54:f5:3c:
                    db:2d:d2:1e:02:40:c5:b3:93:c3:10:ee:fb:3d:9a:
                    00:16:e7:bd:a6:ca:eb:d2:94:3a:f5:c1:6a:7a:6e:
                    1d:6e:7a:98:01:77:0b:ba:33:73:5f:2e:7e:ee:b3:
                    e5:bf:f1:50:64:23:b4:c7:9a:b0:bd:95:fb:68:09:
                    77:c8:a2:ad:b5:c8:0d:36:ae:b7:39:99:9e:61:85:
                    c3:9c:63:f2:11:97:50:d2:eb:80:0f:62:30:12:98:
                    5c:fb:da:7f:0d:86:54:54:62:f8:2c:d9:59:6d:6a:
                    6c:a9:49:2d:b4:d7:6b:c0:e5:38:ff:94:bc:7c:12:
                    c7:b7
                Exponent: 65537 (0x10001)
        X509v3 extensions:
            X509v3 Basic Constraints: 
                CA:FALSE
            X509v3 Subject Key Identifier: 
                89:F5:3A:B5:C5:53:38:04:FD:F6:EF:AE:83:6C:54:A2:69:2D:06:E6
            X509v3 Authority Key Identifier: 
                keyid:C8:27:DA:64:30:08:40:08:4A:25:CC:DC:43:99:DE:77:A1:FE:77:BD
                DirName:/C=US/ST=California/L=San Francisco/O=Copyleft Certificate Co/OU=My Organizational Unit/CN=ChangeMe/emailAddress=me@example.net
                serial:A9:48:C3:7E:FC:1B:B0:A1

            X509v3 Extended Key Usage: 
                TLS Web Client Authentication
            X509v3 Key Usage: 
                Digital Signature
    Signature Algorithm: sha256WithRSAEncryption
         5c:db:29:6e:a6:10:5e:f3:74:2b:9d:dd:29:55:53:2a:66:72:
         2a:da:ae:69:61:ae:fc:b7:26:5d:f8:82:8d:a3:a3:06:cb:4b:
         54:e7:96:bd:da:db:cc:75:51:c0:41:9c:5a:02:80:c2:96:7f:
         50:a2:0e:90:16:d8:df:e1:3e:c4:46:37:13:24:9f:85:82:d8:
         fa:a9:8e:a8:6e:d0:b2:c3:58:8c:19:8f:b4:0c:f9:24:b4:bc:
         11:0e:d5:7f:8d:f3:60:e7:1f:b5:3c:de:3a:5a:03:d1:e6:1b:
         40:1e:b0:0b:cd:fe:01:30:59:33:41:0f:00:5c:6e:0e:8d:62:
         fd:3b:c9:a5:ad:0e:42:25:23:b2:15:bd:09:92:69:03:5a:11:
         6f:b4:d3:cc:ef:7b:73:2b:b7:4a:7f:d7:ba:c1:bb:e9:84:0a:
         65:bf:79:e5:20:43:01:a1:39:ac:cc:29:9e:e6:51:28:44:4e:
         ab:06:a4:fa:58:8f:c9:18:17:22:84:f5:a8:71:44:61:e7:0a:
         68:0d:02:17:ac:ef:1c:04:82:fe:e3:e3:b2:c5:2b:59:25:4e:
         99:0e:3a:ec:89:ca:7c:10:d5:23:bb:cc:0b:c2:80:78:9c:7c:
         7a:34:ca:ef:94:56:8d:f8:d4:81:05:15:78:75:6a:48:b4:24:
         e2:23:10:57
-----BEGIN CERTIFICATE-----
MIIFKzCCBBOgAwIBAgIRAKYMWzbLDsp1DcpinqDy3l8wDQYJKoZIhvcNAQELBQAw
ga8xCzAJBgNVBAYTAlVTMRMwEQYDVQQIDApDYWxpZm9ybmlhMRYwFAYDVQQHDA1T
YW4gRnJhbmNpc2NvMSAwHgYDVQQKDBdDb3B5bGVmdCBDZXJ0aWZpY2F0ZSBDbzEf
MB0GA1UECwwWTXkgT3JnYW5pemF0aW9uYWwgVW5pdDERMA8GA1UEAwwIQ2hhbmdl
TWUxHTAbBgkqhkiG9w0BCQEWDm1lQGV4YW1wbGUubmV0MB4XDTIzMTExMDE3NDYx
NFoXDTI0MTEwOTE3NDYxNFowgbYxCzAJBgNVBAYTAlVTMQswCQYDVQQIDAJPSDET
MBEGA1UEBwwKQ2luY2lubmF0aTEhMB8GA1UECgwYVW5pdmVyc2l0eSBvZiBDaW5j
aW5uYXRpMSQwIgYDVQQLDBtEZXB0X0VsZWNfQ29tXyBFbmdfQ29tX1NjaS4xEjAQ
BgNVBAMMCWNsaWVudDExNzEoMCYGCSqGSIb3DQEJARYZZnJhbmNvQGdhdXNzLmVj
ZWNzLnVjLmVkdTCCASIwDQYJKoZIhvcNAQEBBQADggEPADCCAQoCggEBAOeDgXUn
kHNvR3aZyBd8XYpucQTjATc56ADFdTACs/d3mcELiZlrjiGKvYq64L7NGh2Jm6L5
SgXg1ihu551RUZ+7uDmEonRkHnTwmCt5Urm/iYYz8cuctlT0ae+s7+s9rvLLVH4Q
xPSlYkc8irALMo7vKx3mTk/faWvcXs5i4mVpDRW7VPU82y3SHgJAxbOTwxDu+z2a
ABbnvabK69KUOvXBanpuHW56mAF3C7ozc18ufu6z5b/xUGQjtMeasL2V+2gJd8ii
rbXIDTautzmZnmGFw5xj8hGXUNLrgA9iMBKYXPvafw2GVFRi+CzZWW1qbKlJLbTX
a8DlOP+UvHwSx7cCAwEAAaOCATcwggEzMAkGA1UdEwQCMAAwHQYDVR0OBBYEFIn1
OrXFUzgE/fbvroNsVKJpLQbmMIHkBgNVHSMEgdwwgdmAFMgn2mQwCEAISiXM3EOZ
3neh/ne9oYG1pIGyMIGvMQswCQYDVQQGEwJVUzETMBEGA1UECAwKQ2FsaWZvcm5p
YTEWMBQGA1UEBwwNU2FuIEZyYW5jaXNjbzEgMB4GA1UECgwXQ29weWxlZnQgQ2Vy
dGlmaWNhdGUgQ28xHzAdBgNVBAsMFk15IE9yZ2FuaXphdGlvbmFsIFVuaXQxETAP
BgNVBAMMCENoYW5nZU1lMR0wGwYJKoZIhvcNAQkBFg5tZUBleGFtcGxlLm5ldIIJ
AKlIw378G7ChMBMGA1UdJQQMMAoGCCsGAQUFBwMCMAsGA1UdDwQEAwIHgDANBgkq
hkiG9w0BAQsFAAOCAQEAXNspbqYQXvN0K53dKVVTKmZyKtquaWGu/LcmXfiCjaOj
BstLVOeWvdrbzHVRwEGcWgKAwpZ/UKIOkBbY3+E+xEY3EySfhYLY+qmOqG7QssNY
jBmPtAz5JLS8EQ7Vf43zYOcftTzeOloD0eYbQB6wC83+ATBZM0EPAFxuDo1i/TvJ
pa0OQiUjshW9CZJpA1oRb7TTzO97cyu3Sn/XusG76YQKZb955SBDAaE5rMwpnuZR
KEROqwak+liPyRgXIoT1qHFEYecKaA0CF6zvHASC/uPjssUrWSVOmQ467InKfBDV
I7vMC8KAeJx8ejTK75RWjfjUgQUVeHVqSLQk4iMQVw==
-----END CERTIFICATE-----
