Certificate:
    Data:
        Version: 3 (0x2)
        Serial Number:
            fc:db:c2:6b:8b:cd:8c:7d:f1:d6:f2:5f:94:e4:29:27
    Signature Algorithm: sha256WithRSAEncryption
        Issuer: C=US, ST=California, L=San Francisco, O=Copyleft Certificate Co, OU=My Organizational Unit, CN=ChangeMe/emailAddress=me@example.net
        Validity
            Not Before: Nov 11 01:47:34 2023 GMT
            Not After : Nov 10 01:47:34 2024 GMT
        Subject: C=US, ST=OH, L=Cincinnati, O=University of Cincinnati, OU=Dept. Elec. Comp. Eng. Comp. Sci., CN=client118/emailAddress=franco@gauss.ececs.uc.edu
        Subject Public Key Info:
            Public Key Algorithm: rsaEncryption
                Public-Key: (2048 bit)
                Modulus:
                    00:ba:19:5f:4b:0f:f9:e5:da:eb:57:06:d3:a9:ea:
                    43:27:fe:5b:08:77:cc:63:4c:29:25:e8:66:0a:28:
                    9f:13:79:da:d0:fc:bd:50:2f:7e:5a:af:c2:aa:c0:
                    76:e7:f4:41:7e:ef:45:6c:f8:64:bf:28:67:54:dc:
                    9b:88:21:96:29:e8:8a:fd:63:00:29:fe:e1:8c:ce:
                    ca:04:b0:0f:4e:8c:ae:be:f0:61:5e:57:d0:b2:dd:
                    d2:02:c2:11:47:e4:f4:66:14:3d:d7:85:7e:27:2f:
                    e8:fd:66:5a:b9:5b:5c:3b:16:5d:f2:35:c9:fd:06:
                    00:7a:44:4d:8d:49:dd:1f:9e:1d:95:ad:df:65:13:
                    e6:84:14:ed:f3:87:d8:8f:f8:9b:8e:f2:4b:73:59:
                    0e:7e:9f:36:a0:57:27:0d:7d:f2:46:47:a5:2a:46:
                    f5:fe:d0:a1:e9:98:21:03:15:a3:c6:b9:db:e7:7d:
                    16:54:b3:17:25:e2:c7:79:1c:55:50:29:cb:4c:a6:
                    7d:00:d2:60:1f:dc:c3:72:98:79:bd:29:01:c2:16:
                    6f:1e:ef:61:4d:e3:5e:c3:f6:36:05:01:d2:13:26:
                    b0:ed:1c:4a:34:ce:74:7c:fb:c2:b8:62:27:e0:41:
                    57:27:3e:85:8b:98:80:bd:56:88:1d:dd:b2:00:93:
                    f1:71
                Exponent: 65537 (0x10001)
        X509v3 extensions:
            X509v3 Basic Constraints: 
                CA:FALSE
            X509v3 Subject Key Identifier: 
                7E:EF:9E:49:1B:D9:11:54:4B:0C:8B:CE:75:6E:08:CA:09:74:D6:19
            X509v3 Authority Key Identifier: 
                keyid:73:DE:A0:43:0F:AE:B1:9E:E8:59:69:18:50:A1:1A:1F:D4:A1:E3:F0
                DirName:/C=US/ST=California/L=San Francisco/O=Copyleft Certificate Co/OU=My Organizational Unit/CN=ChangeMe/emailAddress=me@example.net
                serial:E9:BB:CB:16:C5:32:BE:3B

            X509v3 Extended Key Usage: 
                TLS Web Client Authentication
            X509v3 Key Usage: 
                Digital Signature
    Signature Algorithm: sha256WithRSAEncryption
         21:77:5d:14:3d:22:e8:14:3b:45:3b:bb:8e:ef:e6:1c:6f:7b:
         e1:e7:58:63:06:4d:9d:4c:ac:f5:37:c4:85:fc:be:e5:e0:da:
         6f:c8:87:8c:64:34:bf:3b:a8:b8:fe:77:1c:92:bd:d6:da:11:
         7f:ed:ca:1a:e6:8e:3e:fb:da:dd:25:06:80:75:d1:15:b3:bd:
         52:37:97:c3:cb:c7:7c:8d:fb:da:9d:e8:97:5a:dc:18:ab:ea:
         22:88:e7:bb:e8:94:04:98:14:85:6b:85:25:96:7b:3b:99:10:
         53:45:42:57:cc:63:2a:38:f7:00:d8:99:60:1b:50:e8:86:e6:
         34:51:9b:cd:08:22:4b:8e:10:66:52:59:50:13:a8:f9:35:0d:
         1a:dc:ef:82:79:5e:d1:7d:56:df:ce:6c:20:fd:91:d0:84:3f:
         b4:0a:6e:72:d7:0d:4f:fe:91:a6:f2:3a:7b:62:bd:24:0a:5d:
         e4:d7:fb:f0:b4:50:c1:37:6c:ad:04:42:54:fb:61:e5:28:a0:
         a6:ed:aa:7f:00:53:12:0a:9b:1e:05:45:b4:d2:d8:dd:a2:d4:
         32:7c:29:5b:e1:93:9c:5b:0e:0e:e3:37:57:64:e9:c7:ed:aa:
         2f:f7:98:b5:9f:f2:60:28:9c:cd:eb:ce:03:e6:23:fb:b7:dc:
         73:4f:b6:86
-----BEGIN CERTIFICATE-----
MIIFMTCCBBmgAwIBAgIRAPzbwmuLzYx98dbyX5TkKScwDQYJKoZIhvcNAQELBQAw
ga8xCzAJBgNVBAYTAlVTMRMwEQYDVQQIDApDYWxpZm9ybmlhMRYwFAYDVQQHDA1T
YW4gRnJhbmNpc2NvMSAwHgYDVQQKDBdDb3B5bGVmdCBDZXJ0aWZpY2F0ZSBDbzEf
MB0GA1UECwwWTXkgT3JnYW5pemF0aW9uYWwgVW5pdDERMA8GA1UEAwwIQ2hhbmdl
TWUxHTAbBgkqhkiG9w0BCQEWDm1lQGV4YW1wbGUubmV0MB4XDTIzMTExMTAxNDcz
NFoXDTI0MTExMDAxNDczNFowgbwxCzAJBgNVBAYTAlVTMQswCQYDVQQIDAJPSDET
MBEGA1UEBwwKQ2luY2lubmF0aTEhMB8GA1UECgwYVW5pdmVyc2l0eSBvZiBDaW5j
aW5uYXRpMSowKAYDVQQLDCFEZXB0LiBFbGVjLiBDb21wLiBFbmcuIENvbXAuIFNj
aS4xEjAQBgNVBAMMCWNsaWVudDExODEoMCYGCSqGSIb3DQEJARYZZnJhbmNvQGdh
dXNzLmVjZWNzLnVjLmVkdTCCASIwDQYJKoZIhvcNAQEBBQADggEPADCCAQoCggEB
ALoZX0sP+eXa61cG06nqQyf+Wwh3zGNMKSXoZgoonxN52tD8vVAvflqvwqrAduf0
QX7vRWz4ZL8oZ1Tcm4ghlinoiv1jACn+4YzOygSwD06Mrr7wYV5X0LLd0gLCEUfk
9GYUPdeFficv6P1mWrlbXDsWXfI1yf0GAHpETY1J3R+eHZWt32UT5oQU7fOH2I/4
m47yS3NZDn6fNqBXJw198kZHpSpG9f7QoemYIQMVo8a52+d9FlSzFyXix3kcVVAp
y0ymfQDSYB/cw3KYeb0pAcIWbx7vYU3jXsP2NgUB0hMmsO0cSjTOdHz7wrhiJ+BB
Vyc+hYuYgL1WiB3dsgCT8XECAwEAAaOCATcwggEzMAkGA1UdEwQCMAAwHQYDVR0O
BBYEFH7vnkkb2RFUSwyLznVuCMoJdNYZMIHkBgNVHSMEgdwwgdmAFHPeoEMPrrGe
6FlpGFChGh/UoePwoYG1pIGyMIGvMQswCQYDVQQGEwJVUzETMBEGA1UECAwKQ2Fs
aWZvcm5pYTEWMBQGA1UEBwwNU2FuIEZyYW5jaXNjbzEgMB4GA1UECgwXQ29weWxl
ZnQgQ2VydGlmaWNhdGUgQ28xHzAdBgNVBAsMFk15IE9yZ2FuaXphdGlvbmFsIFVu
aXQxETAPBgNVBAMMCENoYW5nZU1lMR0wGwYJKoZIhvcNAQkBFg5tZUBleGFtcGxl
Lm5ldIIJAOm7yxbFMr47MBMGA1UdJQQMMAoGCCsGAQUFBwMCMAsGA1UdDwQEAwIH
gDANBgkqhkiG9w0BAQsFAAOCAQEAIXddFD0i6BQ7RTu7ju/mHG974edYYwZNnUys
9TfEhfy+5eDab8iHjGQ0vzuouP53HJK91toRf+3KGuaOPvva3SUGgHXRFbO9UjeX
w8vHfI372p3ol1rcGKvqIojnu+iUBJgUhWuFJZZ7O5kQU0VCV8xjKjj3ANiZYBtQ
6IbmNFGbzQgiS44QZlJZUBOo+TUNGtzvgnle0X1W385sIP2R0IQ/tApuctcNT/6R
pvI6e2K9JApd5Nf78LRQwTdsrQRCVPth5Sigpu2qfwBTEgqbHgVFtNLY3aLUMnwp
W+GTnFsODuM3V2Tpx+2qL/eYtZ/yYCiczevOA+Yj+7fcc0+2hg==
-----END CERTIFICATE-----
