Certificate:
    Data:
        Version: 3 (0x2)
        Serial Number:
            fd:cb:25:31:ec:7a:98:03:9e:ee:91:1d:62:97:cc:d6
    Signature Algorithm: sha256WithRSAEncryption
        Issuer: C=US, ST=California, L=San Francisco, O=Copyleft Certificate Co, OU=My Organizational Unit, CN=ChangeMe/emailAddress=me@example.net
        Validity
            Not Before: Jan 23 18:28:50 2021 GMT
            Not After : Jan 23 18:28:50 2022 GMT
        Subject: C=US, ST=OH, L=Cincinnati, O=University of Cincinnati, OU=Dept. Electrical Eng. and Computer Sci., CN=client67/emailAddress=franco@gauss.ececs.uc.edu
        Subject Public Key Info:
            Public Key Algorithm: rsaEncryption
                Public-Key: (2048 bit)
                Modulus:
                    00:ce:ed:cf:59:2a:74:f8:95:1b:a6:e1:fa:be:c3:
                    e1:d8:56:87:f6:9d:8a:b9:9f:c5:7f:bb:d3:10:6f:
                    79:24:65:cb:b6:76:f4:76:f0:7b:3d:e9:39:69:a7:
                    4e:0f:55:f2:7a:45:4e:d2:97:74:c5:f0:4a:7f:8a:
                    50:ce:e2:8a:02:06:98:0b:9a:a4:72:1f:ad:b2:fd:
                    8c:9e:59:5d:ee:b4:63:30:5c:9d:e3:77:ea:96:72:
                    44:1c:a2:77:06:69:dd:2e:57:77:53:62:fa:a3:bc:
                    e9:c8:fd:03:b3:ea:2a:ee:a1:39:b3:bf:2e:2b:26:
                    91:2b:51:97:21:35:f3:c5:55:dd:69:ef:19:f6:d9:
                    a1:5f:39:ed:dc:e7:e8:4d:c7:cb:d6:78:56:b6:12:
                    4a:4c:33:c7:44:35:58:1a:79:ab:30:29:45:74:22:
                    22:c6:16:e5:4f:57:68:27:65:06:eb:c6:81:79:07:
                    62:96:1f:e3:04:85:e8:ca:8d:c5:39:6d:2d:0a:6b:
                    85:57:e1:71:50:87:1f:88:6c:1c:cb:a8:63:9a:70:
                    08:60:11:7a:f7:1c:7c:44:27:5b:92:e6:a4:fd:77:
                    6b:41:0d:ee:0a:fe:74:8c:53:02:e5:b4:67:65:cf:
                    92:ae:8a:ab:ac:10:dc:1a:d9:25:23:4d:dc:4a:f8:
                    a3:07
                Exponent: 65537 (0x10001)
        X509v3 extensions:
            X509v3 Basic Constraints: 
                CA:FALSE
            X509v3 Subject Key Identifier: 
                98:CD:F1:5A:C5:26:90:A7:78:65:D3:DF:F9:BC:9D:9D:F8:37:BC:6A
            X509v3 Authority Key Identifier: 
                keyid:EF:DC:B6:3D:4B:FD:A7:87:05:C5:22:3D:8B:DC:BF:99:2A:EE:E4:DB
                DirName:/C=US/ST=California/L=San Francisco/O=Copyleft Certificate Co/OU=My Organizational Unit/CN=ChangeMe/emailAddress=me@example.net
                serial:87:1E:1D:DC:6B:8C:66:88

            X509v3 Extended Key Usage: 
                TLS Web Client Authentication
            X509v3 Key Usage: 
                Digital Signature
    Signature Algorithm: sha256WithRSAEncryption
         a2:c0:76:93:b2:4a:4a:71:b4:20:db:df:99:16:42:ad:d5:db:
         af:2e:c0:33:22:39:73:a6:76:12:52:a5:f1:18:0a:78:1a:09:
         46:6d:dd:5b:a9:04:aa:2c:61:b4:75:99:23:7b:31:1e:1f:78:
         bd:7d:1a:ca:da:ce:22:aa:46:19:25:4d:b3:25:38:99:ec:20:
         b2:74:96:33:97:00:29:a0:45:36:a1:13:f1:b1:35:a4:41:10:
         5a:d8:c8:1a:b4:78:c6:d2:e3:41:a3:8d:32:9f:4b:58:81:52:
         ed:02:71:c6:45:e9:d9:35:af:96:dc:7e:65:79:4a:50:14:0d:
         58:65:fd:f5:88:25:69:0d:81:1e:ae:a3:3e:21:d8:a9:7c:56:
         73:0c:02:99:0a:d8:58:33:03:ba:7b:9b:f8:69:b1:29:75:08:
         48:13:b0:b4:c7:10:19:04:7b:ae:73:2c:64:7a:a4:99:d2:ce:
         cc:90:00:41:73:e3:42:b7:bf:ec:70:e1:df:48:16:f3:72:dc:
         f0:da:5d:ed:c0:0c:ab:14:b3:10:c3:1d:15:16:78:85:d4:f8:
         1b:53:c5:01:c2:fa:5b:0d:13:2f:f0:ae:65:24:4e:e3:ce:c0:
         4b:2e:e9:13:73:a7:62:6e:e3:ec:d3:c9:cc:cb:ca:ec:45:f8:
         09:55:36:00
-----BEGIN CERTIFICATE-----
MIIFNjCCBB6gAwIBAgIRAP3LJTHsepgDnu6RHWKXzNYwDQYJKoZIhvcNAQELBQAw
ga8xCzAJBgNVBAYTAlVTMRMwEQYDVQQIDApDYWxpZm9ybmlhMRYwFAYDVQQHDA1T
YW4gRnJhbmNpc2NvMSAwHgYDVQQKDBdDb3B5bGVmdCBDZXJ0aWZpY2F0ZSBDbzEf
MB0GA1UECwwWTXkgT3JnYW5pemF0aW9uYWwgVW5pdDERMA8GA1UEAwwIQ2hhbmdl
TWUxHTAbBgkqhkiG9w0BCQEWDm1lQGV4YW1wbGUubmV0MB4XDTIxMDEyMzE4Mjg1
MFoXDTIyMDEyMzE4Mjg1MFowgcExCzAJBgNVBAYTAlVTMQswCQYDVQQIDAJPSDET
MBEGA1UEBwwKQ2luY2lubmF0aTEhMB8GA1UECgwYVW5pdmVyc2l0eSBvZiBDaW5j
aW5uYXRpMTAwLgYDVQQLDCdEZXB0LiBFbGVjdHJpY2FsIEVuZy4gYW5kIENvbXB1
dGVyIFNjaS4xETAPBgNVBAMMCGNsaWVudDY3MSgwJgYJKoZIhvcNAQkBFhlmcmFu
Y29AZ2F1c3MuZWNlY3MudWMuZWR1MIIBIjANBgkqhkiG9w0BAQEFAAOCAQ8AMIIB
CgKCAQEAzu3PWSp0+JUbpuH6vsPh2FaH9p2KuZ/Ff7vTEG95JGXLtnb0dvB7Pek5
aadOD1XyekVO0pd0xfBKf4pQzuKKAgaYC5qkch+tsv2Mnlld7rRjMFyd43fqlnJE
HKJ3BmndLld3U2L6o7zpyP0Ds+oq7qE5s78uKyaRK1GXITXzxVXdae8Z9tmhXznt
3OfoTcfL1nhWthJKTDPHRDVYGnmrMClFdCIixhblT1doJ2UG68aBeQdilh/jBIXo
yo3FOW0tCmuFV+FxUIcfiGwcy6hjmnAIYBF69xx8RCdbkuak/XdrQQ3uCv50jFMC
5bRnZc+SroqrrBDcGtklI03cSvijBwIDAQABo4IBNzCCATMwCQYDVR0TBAIwADAd
BgNVHQ4EFgQUmM3xWsUmkKd4ZdPf+bydnfg3vGowgeQGA1UdIwSB3DCB2YAU79y2
PUv9p4cFxSI9i9y/mSru5NuhgbWkgbIwga8xCzAJBgNVBAYTAlVTMRMwEQYDVQQI
DApDYWxpZm9ybmlhMRYwFAYDVQQHDA1TYW4gRnJhbmNpc2NvMSAwHgYDVQQKDBdD
b3B5bGVmdCBDZXJ0aWZpY2F0ZSBDbzEfMB0GA1UECwwWTXkgT3JnYW5pemF0aW9u
YWwgVW5pdDERMA8GA1UEAwwIQ2hhbmdlTWUxHTAbBgkqhkiG9w0BCQEWDm1lQGV4
YW1wbGUubmV0ggkAhx4d3GuMZogwEwYDVR0lBAwwCgYIKwYBBQUHAwIwCwYDVR0P
BAQDAgeAMA0GCSqGSIb3DQEBCwUAA4IBAQCiwHaTskpKcbQg29+ZFkKt1duvLsAz
IjlzpnYSUqXxGAp4GglGbd1bqQSqLGG0dZkjezEeH3i9fRrK2s4iqkYZJU2zJTiZ
7CCydJYzlwApoEU2oRPxsTWkQRBa2MgatHjG0uNBo40yn0tYgVLtAnHGRenZNa+W
3H5leUpQFA1YZf31iCVpDYEerqM+IdipfFZzDAKZCthYMwO6e5v4abEpdQhIE7C0
xxAZBHuucyxkeqSZ0s7MkABBc+NCt7/scOHfSBbzctzw2l3twAyrFLMQwx0VFniF
1PgbU8UBwvpbDRMv8K5lJE7jzsBLLukTc6dibuPs08nMy8rsRfgJVTYA
-----END CERTIFICATE-----
