Certificate:
    Data:
        Version: 3 (0x2)
        Serial Number:
            9c:a6:0d:20:6b:3c:40:bd:cb:73:a3:8e:9f:b9:b0:55
    Signature Algorithm: sha256WithRSAEncryption
        Issuer: C=US, ST=California, L=San Francisco, O=Copyleft Certificate Co, OU=My Organizational Unit, CN=ChangeMe/emailAddress=me@example.net
        Validity
            Not Before: Nov 11 01:46:38 2023 GMT
            Not After : Nov 10 01:46:38 2024 GMT
        Subject: C=US, ST=OH, L=Cincinnati, O=University of Cincinnati, OU=Dept. Elec. Comp. Eng. Comp. Sci., CN=client104/emailAddress=franco@gauss.ececs.uc.edu
        Subject Public Key Info:
            Public Key Algorithm: rsaEncryption
                Public-Key: (2048 bit)
                Modulus:
                    00:e3:73:48:a9:2b:d9:aa:92:4c:18:88:1a:85:72:
                    e6:09:86:ca:ca:62:f7:8c:bf:24:7d:de:12:32:05:
                    3b:1e:2e:c6:72:26:f7:9f:b5:e9:5c:c7:cf:c2:ee:
                    91:f9:3c:bb:c6:02:a2:02:24:9d:b7:ad:83:a3:79:
                    6e:26:b3:bc:4d:ea:3e:cb:77:7e:0d:76:bf:de:d3:
                    c8:cd:ac:0a:55:d3:8f:71:3c:37:66:69:ce:93:3e:
                    58:30:f8:25:b3:c2:d1:24:fc:1c:c9:50:d8:a1:42:
                    76:ff:96:fd:be:28:2f:e4:33:9c:d2:0e:53:67:0d:
                    b5:3c:fc:6d:e7:ad:fa:a7:74:4b:b1:16:f4:44:de:
                    a3:ad:a8:3c:90:59:92:68:ef:a0:39:4d:16:05:4b:
                    66:17:72:bc:fd:8e:a8:00:22:b4:bc:39:51:9c:7f:
                    5e:95:25:43:b5:9b:6f:05:74:7a:85:5a:ab:3f:b5:
                    d7:30:16:41:05:97:04:98:be:81:54:84:d5:79:64:
                    c5:07:d0:90:72:39:6d:21:f5:32:e6:87:3c:5f:17:
                    4b:0b:85:e8:a8:b1:5c:7b:dd:2c:92:eb:2a:79:3b:
                    a3:79:02:d1:1b:db:18:7f:23:7b:64:d1:c2:66:fa:
                    f3:00:d4:22:ed:c8:64:0a:c2:a9:09:2b:4e:e1:a2:
                    b1:d5
                Exponent: 65537 (0x10001)
        X509v3 extensions:
            X509v3 Basic Constraints: 
                CA:FALSE
            X509v3 Subject Key Identifier: 
                CB:AC:CC:B4:05:19:96:88:E9:DF:B5:D0:53:DA:27:15:0E:D0:AF:09
            X509v3 Authority Key Identifier: 
                keyid:73:DE:A0:43:0F:AE:B1:9E:E8:59:69:18:50:A1:1A:1F:D4:A1:E3:F0
                DirName:/C=US/ST=California/L=San Francisco/O=Copyleft Certificate Co/OU=My Organizational Unit/CN=ChangeMe/emailAddress=me@example.net
                serial:E9:BB:CB:16:C5:32:BE:3B

            X509v3 Extended Key Usage: 
                TLS Web Client Authentication
            X509v3 Key Usage: 
                Digital Signature
    Signature Algorithm: sha256WithRSAEncryption
         5e:a8:57:53:75:21:1f:aa:a7:44:00:d9:01:85:c4:b8:5a:fb:
         2e:9b:b1:4b:24:1a:43:21:82:27:4e:29:41:80:55:66:11:03:
         c7:24:0f:d4:37:43:2a:71:0e:77:73:99:b4:d5:65:80:9d:c6:
         5e:e8:77:ab:3b:ad:5b:30:4e:59:f9:48:9b:14:7d:3d:7e:7f:
         a9:d1:2d:b4:1c:6c:b9:b2:a1:8f:cb:53:86:b6:7f:f3:81:88:
         d3:85:9c:f4:e9:ac:f2:c7:b5:51:cf:58:75:e0:07:f6:4e:83:
         c5:9d:ee:af:3e:28:2b:21:b6:54:26:ad:6d:08:92:49:96:8a:
         4a:bf:1f:bc:95:46:a7:5f:f6:d6:16:0e:75:e2:d0:21:cd:f6:
         76:8b:a7:ec:47:a2:c7:9d:df:3f:e9:48:e2:3d:8f:fc:2f:9d:
         3f:a1:da:20:25:a1:e4:a7:22:57:1a:71:83:12:f8:6a:0e:0d:
         eb:71:0a:03:de:78:65:da:a6:7c:4d:f2:76:1c:2a:88:d8:ed:
         ae:1d:6c:e1:9f:94:80:94:2e:18:21:2f:72:60:e9:64:2b:e4:
         38:5c:b3:1b:d3:2b:fc:91:9a:e5:db:67:6f:7b:3f:d1:2d:b6:
         b2:62:a4:5e:b9:4a:a6:af:a7:0f:1c:0c:a0:f3:f3:65:a9:8e:
         bb:7f:06:55
-----BEGIN CERTIFICATE-----
MIIFMTCCBBmgAwIBAgIRAJymDSBrPEC9y3Ojjp+5sFUwDQYJKoZIhvcNAQELBQAw
ga8xCzAJBgNVBAYTAlVTMRMwEQYDVQQIDApDYWxpZm9ybmlhMRYwFAYDVQQHDA1T
YW4gRnJhbmNpc2NvMSAwHgYDVQQKDBdDb3B5bGVmdCBDZXJ0aWZpY2F0ZSBDbzEf
MB0GA1UECwwWTXkgT3JnYW5pemF0aW9uYWwgVW5pdDERMA8GA1UEAwwIQ2hhbmdl
TWUxHTAbBgkqhkiG9w0BCQEWDm1lQGV4YW1wbGUubmV0MB4XDTIzMTExMTAxNDYz
OFoXDTI0MTExMDAxNDYzOFowgbwxCzAJBgNVBAYTAlVTMQswCQYDVQQIDAJPSDET
MBEGA1UEBwwKQ2luY2lubmF0aTEhMB8GA1UECgwYVW5pdmVyc2l0eSBvZiBDaW5j
aW5uYXRpMSowKAYDVQQLDCFEZXB0LiBFbGVjLiBDb21wLiBFbmcuIENvbXAuIFNj
aS4xEjAQBgNVBAMMCWNsaWVudDEwNDEoMCYGCSqGSIb3DQEJARYZZnJhbmNvQGdh
dXNzLmVjZWNzLnVjLmVkdTCCASIwDQYJKoZIhvcNAQEBBQADggEPADCCAQoCggEB
AONzSKkr2aqSTBiIGoVy5gmGyspi94y/JH3eEjIFOx4uxnIm95+16VzHz8Lukfk8
u8YCogIknbetg6N5biazvE3qPst3fg12v97TyM2sClXTj3E8N2ZpzpM+WDD4JbPC
0ST8HMlQ2KFCdv+W/b4oL+QznNIOU2cNtTz8beet+qd0S7EW9ETeo62oPJBZkmjv
oDlNFgVLZhdyvP2OqAAitLw5UZx/XpUlQ7WbbwV0eoVaqz+11zAWQQWXBJi+gVSE
1XlkxQfQkHI5bSH1MuaHPF8XSwuF6KixXHvdLJLrKnk7o3kC0RvbGH8je2TRwmb6
8wDUIu3IZArCqQkrTuGisdUCAwEAAaOCATcwggEzMAkGA1UdEwQCMAAwHQYDVR0O
BBYEFMuszLQFGZaI6d+10FPaJxUO0K8JMIHkBgNVHSMEgdwwgdmAFHPeoEMPrrGe
6FlpGFChGh/UoePwoYG1pIGyMIGvMQswCQYDVQQGEwJVUzETMBEGA1UECAwKQ2Fs
aWZvcm5pYTEWMBQGA1UEBwwNU2FuIEZyYW5jaXNjbzEgMB4GA1UECgwXQ29weWxl
ZnQgQ2VydGlmaWNhdGUgQ28xHzAdBgNVBAsMFk15IE9yZ2FuaXphdGlvbmFsIFVu
aXQxETAPBgNVBAMMCENoYW5nZU1lMR0wGwYJKoZIhvcNAQkBFg5tZUBleGFtcGxl
Lm5ldIIJAOm7yxbFMr47MBMGA1UdJQQMMAoGCCsGAQUFBwMCMAsGA1UdDwQEAwIH
gDANBgkqhkiG9w0BAQsFAAOCAQEAXqhXU3UhH6qnRADZAYXEuFr7LpuxSyQaQyGC
J04pQYBVZhEDxyQP1DdDKnEOd3OZtNVlgJ3GXuh3qzutWzBOWflImxR9PX5/qdEt
tBxsubKhj8tThrZ/84GI04Wc9Oms8se1Uc9YdeAH9k6DxZ3urz4oKyG2VCatbQiS
SZaKSr8fvJVGp1/21hYOdeLQIc32doun7Eeix53fP+lI4j2P/C+dP6HaICWh5Kci
VxpxgxL4ag4N63EKA954ZdqmfE3ydhwqiNjtrh1s4Z+UgJQuGCEvcmDpZCvkOFyz
G9Mr/JGa5dtnb3s/0S22smKkXrlKpq+nDxwMoPPzZamOu38GVQ==
-----END CERTIFICATE-----
