Certificate:
    Data:
        Version: 3 (0x2)
        Serial Number:
            1e:b2:b9:69:ca:4c:3f:e6:0a:8f:65:04:d5:69:63:46
    Signature Algorithm: sha256WithRSAEncryption
        Issuer: C=US, ST=California, L=San Francisco, O=Copyleft Certificate Co, OU=My Organizational Unit, CN=ChangeMe/emailAddress=me@example.net
        Validity
            Not Before: Nov 11 01:48:18 2023 GMT
            Not After : Nov 10 01:48:18 2024 GMT
        Subject: C=US, ST=OH, L=Cincinnati, O=University of Cincinnati, OU=Dept. Elec. Comp. Eng. Comp. Sci., CN=client129/emailAddress=franco@gauss.ececs.uc.edu
        Subject Public Key Info:
            Public Key Algorithm: rsaEncryption
                Public-Key: (2048 bit)
                Modulus:
                    00:c1:ca:6f:4b:37:86:d0:27:50:b0:1a:1e:ec:ba:
                    e4:04:e1:aa:61:f8:6d:48:db:9d:46:74:0a:03:23:
                    30:75:b9:34:e2:0d:08:f0:1f:7d:60:78:b3:4b:ba:
                    5a:82:74:3b:ae:ae:26:ed:cd:14:4a:5f:c5:43:14:
                    f4:71:4c:a4:41:2a:eb:b4:54:07:8f:d8:bd:1a:73:
                    2c:93:d9:e3:10:ad:b0:0c:17:3d:83:df:58:c3:39:
                    c2:1f:4c:e7:65:8c:27:f6:30:f0:c1:1e:02:31:d5:
                    f2:26:e9:0e:2f:31:80:75:30:b7:2f:67:7a:7a:4f:
                    c0:d8:d7:0d:51:e6:c9:5f:da:73:70:03:90:59:f9:
                    6c:42:bf:4a:74:a3:6d:b7:a1:c9:a7:4c:3f:39:bc:
                    3c:81:84:e7:33:00:09:ab:f5:be:31:87:27:76:ee:
                    c0:75:b3:8b:8b:a0:45:71:67:cb:ae:73:39:b9:ff:
                    1a:d6:58:11:8f:ae:f8:8a:31:70:03:31:17:49:98:
                    fa:07:d6:8a:c1:35:1c:6d:cd:70:34:0b:06:ba:de:
                    fa:bd:2e:f1:9a:cb:0f:86:9d:2f:79:b4:a6:06:3e:
                    2d:1b:07:8a:4c:24:70:34:c4:4d:fa:96:c6:c7:0e:
                    e0:5d:87:09:95:bb:40:c4:04:94:c0:24:3f:59:4e:
                    da:8d
                Exponent: 65537 (0x10001)
        X509v3 extensions:
            X509v3 Basic Constraints: 
                CA:FALSE
            X509v3 Subject Key Identifier: 
                0E:DF:C5:40:A7:2A:25:1B:0A:4B:15:A0:A1:57:19:93:86:66:71:A3
            X509v3 Authority Key Identifier: 
                keyid:73:DE:A0:43:0F:AE:B1:9E:E8:59:69:18:50:A1:1A:1F:D4:A1:E3:F0
                DirName:/C=US/ST=California/L=San Francisco/O=Copyleft Certificate Co/OU=My Organizational Unit/CN=ChangeMe/emailAddress=me@example.net
                serial:E9:BB:CB:16:C5:32:BE:3B

            X509v3 Extended Key Usage: 
                TLS Web Client Authentication
            X509v3 Key Usage: 
                Digital Signature
    Signature Algorithm: sha256WithRSAEncryption
         54:61:ec:dd:85:e2:95:b3:80:7e:e0:17:cd:55:31:92:61:79:
         41:2e:26:c2:64:a8:65:27:be:ed:32:7f:10:76:be:97:6d:6a:
         03:3f:47:e6:1e:ef:f6:e2:45:89:e7:8c:09:05:d3:a2:6b:78:
         be:e4:47:e7:d0:2c:cd:cf:bf:0a:88:dd:a0:89:9d:dd:22:cd:
         79:ab:5b:ab:e5:19:91:0e:6e:78:c2:e4:61:1c:15:94:cf:7e:
         e5:2a:6c:64:4e:f6:b4:39:61:88:08:b6:03:f4:69:a0:36:72:
         44:1c:e6:0e:38:db:5c:4e:08:cf:38:f1:27:72:a5:da:7c:60:
         17:4f:8d:0f:6d:56:de:27:32:32:bf:2b:73:29:05:68:d8:08:
         de:a9:9a:79:bc:74:59:b3:1b:fe:76:86:e8:9e:8d:ac:ba:c3:
         6e:a0:e8:a6:7a:a5:3e:02:90:84:ea:3c:5e:2a:f3:8c:11:58:
         7c:7c:a1:d1:08:c9:47:c0:18:4c:29:1b:01:0c:04:00:e2:25:
         ef:82:80:00:b3:8a:49:6a:11:ed:7d:32:3b:c5:9c:48:0b:06:
         47:00:ab:c9:a7:56:55:af:6d:b1:2c:90:b2:3c:cf:9c:d8:f4:
         a8:d1:c8:86:cf:4a:24:48:4c:54:4b:da:b1:ef:91:50:3b:c0:
         0e:7c:20:69
-----BEGIN CERTIFICATE-----
MIIFMDCCBBigAwIBAgIQHrK5acpMP+YKj2UE1WljRjANBgkqhkiG9w0BAQsFADCB
rzELMAkGA1UEBhMCVVMxEzARBgNVBAgMCkNhbGlmb3JuaWExFjAUBgNVBAcMDVNh
biBGcmFuY2lzY28xIDAeBgNVBAoMF0NvcHlsZWZ0IENlcnRpZmljYXRlIENvMR8w
HQYDVQQLDBZNeSBPcmdhbml6YXRpb25hbCBVbml0MREwDwYDVQQDDAhDaGFuZ2VN
ZTEdMBsGCSqGSIb3DQEJARYObWVAZXhhbXBsZS5uZXQwHhcNMjMxMTExMDE0ODE4
WhcNMjQxMTEwMDE0ODE4WjCBvDELMAkGA1UEBhMCVVMxCzAJBgNVBAgMAk9IMRMw
EQYDVQQHDApDaW5jaW5uYXRpMSEwHwYDVQQKDBhVbml2ZXJzaXR5IG9mIENpbmNp
bm5hdGkxKjAoBgNVBAsMIURlcHQuIEVsZWMuIENvbXAuIEVuZy4gQ29tcC4gU2Np
LjESMBAGA1UEAwwJY2xpZW50MTI5MSgwJgYJKoZIhvcNAQkBFhlmcmFuY29AZ2F1
c3MuZWNlY3MudWMuZWR1MIIBIjANBgkqhkiG9w0BAQEFAAOCAQ8AMIIBCgKCAQEA
wcpvSzeG0CdQsBoe7LrkBOGqYfhtSNudRnQKAyMwdbk04g0I8B99YHizS7pagnQ7
rq4m7c0USl/FQxT0cUykQSrrtFQHj9i9GnMsk9njEK2wDBc9g99YwznCH0znZYwn
9jDwwR4CMdXyJukOLzGAdTC3L2d6ek/A2NcNUebJX9pzcAOQWflsQr9KdKNtt6HJ
p0w/Obw8gYTnMwAJq/W+MYcndu7AdbOLi6BFcWfLrnM5uf8a1lgRj674ijFwAzEX
SZj6B9aKwTUcbc1wNAsGut76vS7xmssPhp0vebSmBj4tGweKTCRwNMRN+pbGxw7g
XYcJlbtAxASUwCQ/WU7ajQIDAQABo4IBNzCCATMwCQYDVR0TBAIwADAdBgNVHQ4E
FgQUDt/FQKcqJRsKSxWgoVcZk4ZmcaMwgeQGA1UdIwSB3DCB2YAUc96gQw+usZ7o
WWkYUKEaH9Sh4/ChgbWkgbIwga8xCzAJBgNVBAYTAlVTMRMwEQYDVQQIDApDYWxp
Zm9ybmlhMRYwFAYDVQQHDA1TYW4gRnJhbmNpc2NvMSAwHgYDVQQKDBdDb3B5bGVm
dCBDZXJ0aWZpY2F0ZSBDbzEfMB0GA1UECwwWTXkgT3JnYW5pemF0aW9uYWwgVW5p
dDERMA8GA1UEAwwIQ2hhbmdlTWUxHTAbBgkqhkiG9w0BCQEWDm1lQGV4YW1wbGUu
bmV0ggkA6bvLFsUyvjswEwYDVR0lBAwwCgYIKwYBBQUHAwIwCwYDVR0PBAQDAgeA
MA0GCSqGSIb3DQEBCwUAA4IBAQBUYezdheKVs4B+4BfNVTGSYXlBLibCZKhlJ77t
Mn8Qdr6XbWoDP0fmHu/24kWJ54wJBdOia3i+5Efn0CzNz78KiN2giZ3dIs15q1ur
5RmRDm54wuRhHBWUz37lKmxkTva0OWGICLYD9GmgNnJEHOYOONtcTgjPOPEncqXa
fGAXT40PbVbeJzIyvytzKQVo2AjeqZp5vHRZsxv+dobono2susNuoOimeqU+ApCE
6jxeKvOMEVh8fKHRCMlHwBhMKRsBDAQA4iXvgoAAs4pJahHtfTI7xZxICwZHAKvJ
p1ZVr22xLJCyPM+c2PSo0ciGz0okSExUS9qx75FQO8AOfCBp
-----END CERTIFICATE-----
