Certificate:
    Data:
        Version: 3 (0x2)
        Serial Number:
            65:e6:54:88:20:d6:5e:e0:c1:89:03:e8:cd:8f:b5:5f
    Signature Algorithm: sha256WithRSAEncryption
        Issuer: C=US, ST=California, L=San Francisco, O=Copyleft Certificate Co, OU=My Organizational Unit, CN=ChangeMe/emailAddress=me@example.net
        Validity
            Not Before: Nov 10 17:48:18 2023 GMT
            Not After : Nov  9 17:48:18 2024 GMT
        Subject: C=US, ST=OH, L=Cincinnati, O=University of Cincinnati, OU=Dept_Elec_Com_ Eng_Com_Sci., CN=client148/emailAddress=franco@gauss.ececs.uc.edu
        Subject Public Key Info:
            Public Key Algorithm: rsaEncryption
                Public-Key: (2048 bit)
                Modulus:
                    00:d0:0d:38:c7:f5:2c:dd:0f:c8:0f:ab:61:30:df:
                    43:cf:97:47:1c:da:82:63:ee:c0:9a:e7:c2:d2:3e:
                    41:89:fb:e0:88:fb:68:77:f1:b7:92:e3:38:87:82:
                    b4:1d:6b:74:e7:63:ee:d3:66:83:47:18:b0:d7:d0:
                    16:1f:36:1f:86:72:68:fd:ae:40:4c:44:6b:9b:e2:
                    39:45:89:e0:0d:75:c5:34:ec:fd:21:6e:29:83:da:
                    ce:e7:5d:1d:90:e9:b3:20:99:21:43:e1:46:08:bd:
                    ef:e9:8e:73:20:0a:40:6c:cc:5a:45:1b:18:48:90:
                    37:82:0f:23:4e:8b:9d:bb:1a:c2:a7:22:38:6d:5f:
                    81:1c:e2:80:08:6a:7d:cb:ba:84:76:e5:26:95:40:
                    ab:62:9a:cd:93:8e:73:dc:8d:a6:10:b5:88:75:c3:
                    bc:96:be:42:28:a9:c8:61:76:ae:ec:d4:b6:ad:0e:
                    c9:d2:2c:fe:3e:db:ab:cd:e4:ee:9d:c5:f1:03:d3:
                    6a:ae:85:5b:31:51:2b:13:58:ca:a5:80:3c:da:b0:
                    5a:04:e3:b0:47:cf:64:d4:6b:06:90:8d:cb:b5:56:
                    b6:e5:92:09:a2:d6:66:b5:25:58:0c:2e:dd:bd:d3:
                    82:36:be:47:54:be:f5:a6:bc:4a:0f:97:ee:85:b7:
                    10:9b
                Exponent: 65537 (0x10001)
        X509v3 extensions:
            X509v3 Basic Constraints: 
                CA:FALSE
            X509v3 Subject Key Identifier: 
                32:4E:80:BE:60:47:4F:68:A6:5B:CD:D5:91:04:11:1E:C8:46:44:5A
            X509v3 Authority Key Identifier: 
                keyid:C8:27:DA:64:30:08:40:08:4A:25:CC:DC:43:99:DE:77:A1:FE:77:BD
                DirName:/C=US/ST=California/L=San Francisco/O=Copyleft Certificate Co/OU=My Organizational Unit/CN=ChangeMe/emailAddress=me@example.net
                serial:A9:48:C3:7E:FC:1B:B0:A1

            X509v3 Extended Key Usage: 
                TLS Web Client Authentication
            X509v3 Key Usage: 
                Digital Signature
    Signature Algorithm: sha256WithRSAEncryption
         9e:99:e5:c0:49:98:5a:79:93:d1:4e:53:9a:4e:7f:a2:4c:16:
         bb:22:a4:ba:89:4a:10:fb:ca:12:ef:55:af:43:f8:89:56:8d:
         ab:6c:e7:a4:e5:19:97:52:00:4c:12:c1:39:d9:fe:1c:b0:44:
         aa:5c:0d:31:fb:64:4b:6a:56:6a:a4:7e:07:70:3d:55:87:a2:
         72:69:85:ec:1b:19:8b:1b:d2:d6:20:6e:90:29:e2:0f:fe:89:
         9c:cd:d8:f9:cc:f2:47:37:e9:c0:d9:62:5f:ea:a2:85:c5:0a:
         05:83:ab:94:2d:a9:b9:44:9c:7c:11:41:ef:9e:06:83:19:44:
         dd:3f:b5:e7:d2:97:df:22:86:45:c5:dd:cf:05:3d:0b:9f:76:
         0c:cb:52:17:8c:ff:43:1e:ef:26:3b:93:7c:48:46:72:ba:a0:
         ad:98:a6:f5:2c:94:5c:6e:b1:22:0b:06:e9:24:1f:d9:d5:f3:
         9c:49:d3:97:2b:10:62:d8:a7:f4:83:81:a4:43:96:26:f5:f1:
         a8:5a:04:b8:33:4b:e2:46:0c:95:fd:0e:ee:21:e1:3b:27:01:
         de:28:cc:b9:ca:ce:5a:7f:73:ac:48:5b:aa:04:31:6e:00:bd:
         93:22:b7:49:39:dc:4c:86:bf:ab:84:92:61:cd:ad:8a:d6:2b:
         5f:34:fc:33
-----BEGIN CERTIFICATE-----
MIIFKjCCBBKgAwIBAgIQZeZUiCDWXuDBiQPozY+1XzANBgkqhkiG9w0BAQsFADCB
rzELMAkGA1UEBhMCVVMxEzARBgNVBAgMCkNhbGlmb3JuaWExFjAUBgNVBAcMDVNh
biBGcmFuY2lzY28xIDAeBgNVBAoMF0NvcHlsZWZ0IENlcnRpZmljYXRlIENvMR8w
HQYDVQQLDBZNeSBPcmdhbml6YXRpb25hbCBVbml0MREwDwYDVQQDDAhDaGFuZ2VN
ZTEdMBsGCSqGSIb3DQEJARYObWVAZXhhbXBsZS5uZXQwHhcNMjMxMTEwMTc0ODE4
WhcNMjQxMTA5MTc0ODE4WjCBtjELMAkGA1UEBhMCVVMxCzAJBgNVBAgMAk9IMRMw
EQYDVQQHDApDaW5jaW5uYXRpMSEwHwYDVQQKDBhVbml2ZXJzaXR5IG9mIENpbmNp
bm5hdGkxJDAiBgNVBAsMG0RlcHRfRWxlY19Db21fIEVuZ19Db21fU2NpLjESMBAG
A1UEAwwJY2xpZW50MTQ4MSgwJgYJKoZIhvcNAQkBFhlmcmFuY29AZ2F1c3MuZWNl
Y3MudWMuZWR1MIIBIjANBgkqhkiG9w0BAQEFAAOCAQ8AMIIBCgKCAQEA0A04x/Us
3Q/ID6thMN9Dz5dHHNqCY+7AmufC0j5BifvgiPtod/G3kuM4h4K0HWt052Pu02aD
Rxiw19AWHzYfhnJo/a5ATERrm+I5RYngDXXFNOz9IW4pg9rO510dkOmzIJkhQ+FG
CL3v6Y5zIApAbMxaRRsYSJA3gg8jTouduxrCpyI4bV+BHOKACGp9y7qEduUmlUCr
YprNk45z3I2mELWIdcO8lr5CKKnIYXau7NS2rQ7J0iz+PturzeTuncXxA9NqroVb
MVErE1jKpYA82rBaBOOwR89k1GsGkI3LtVa25ZIJotZmtSVYDC7dvdOCNr5HVL71
prxKD5fuhbcQmwIDAQABo4IBNzCCATMwCQYDVR0TBAIwADAdBgNVHQ4EFgQUMk6A
vmBHT2imW83VkQQRHshGRFowgeQGA1UdIwSB3DCB2YAUyCfaZDAIQAhKJczcQ5ne
d6H+d72hgbWkgbIwga8xCzAJBgNVBAYTAlVTMRMwEQYDVQQIDApDYWxpZm9ybmlh
MRYwFAYDVQQHDA1TYW4gRnJhbmNpc2NvMSAwHgYDVQQKDBdDb3B5bGVmdCBDZXJ0
aWZpY2F0ZSBDbzEfMB0GA1UECwwWTXkgT3JnYW5pemF0aW9uYWwgVW5pdDERMA8G
A1UEAwwIQ2hhbmdlTWUxHTAbBgkqhkiG9w0BCQEWDm1lQGV4YW1wbGUubmV0ggkA
qUjDfvwbsKEwEwYDVR0lBAwwCgYIKwYBBQUHAwIwCwYDVR0PBAQDAgeAMA0GCSqG
SIb3DQEBCwUAA4IBAQCemeXASZhaeZPRTlOaTn+iTBa7IqS6iUoQ+8oS71WvQ/iJ
Vo2rbOek5RmXUgBMEsE52f4csESqXA0x+2RLalZqpH4HcD1Vh6JyaYXsGxmLG9LW
IG6QKeIP/omczdj5zPJHN+nA2WJf6qKFxQoFg6uULam5RJx8EUHvngaDGUTdP7Xn
0pffIoZFxd3PBT0Ln3YMy1IXjP9DHu8mO5N8SEZyuqCtmKb1LJRcbrEiCwbpJB/Z
1fOcSdOXKxBi2Kf0g4GkQ5Ym9fGoWgS4M0viRgyV/Q7uIeE7JwHeKMy5ys5af3Os
SFuqBDFuAL2TIrdJOdxMhr+rhJJhza2K1itfNPwz
-----END CERTIFICATE-----
