Certificate:
    Data:
        Version: 3 (0x2)
        Serial Number:
            df:35:e9:7d:11:bb:e6:9f:75:5c:d0:61:10:72:73:9e
    Signature Algorithm: sha256WithRSAEncryption
        Issuer: C=US, ST=California, L=San Francisco, O=Copyleft Certificate Co, OU=My Organizational Unit, CN=ChangeMe/emailAddress=me@example.net
        Validity
            Not Before: Nov 10 17:45:46 2023 GMT
            Not After : Nov  9 17:45:46 2024 GMT
        Subject: C=US, ST=OH, L=Cincinnati, O=University of Cincinnati, OU=Dept_Elec_Com_ Eng_Com_Sci., CN=client110/emailAddress=franco@gauss.ececs.uc.edu
        Subject Public Key Info:
            Public Key Algorithm: rsaEncryption
                Public-Key: (2048 bit)
                Modulus:
                    00:c4:27:ed:d3:f3:e9:09:e0:cf:88:71:ea:a7:13:
                    d8:49:9f:13:d6:8a:6a:2e:f7:1b:d2:ad:18:c0:e0:
                    d8:d5:88:7f:ef:42:f9:2b:63:d7:ba:63:e0:87:61:
                    3d:2d:42:3c:33:a5:30:93:87:8f:c4:49:be:6c:6e:
                    5e:f1:8c:d3:dd:0e:b3:5f:49:2c:f2:a5:d1:62:4c:
                    42:7b:d1:89:fa:b2:58:0f:b3:83:46:2e:f5:9e:c9:
                    32:f6:6d:64:3a:08:70:eb:0f:8a:dc:8d:69:7c:cc:
                    ef:c9:0f:55:0a:7b:33:04:ef:c5:29:49:eb:a5:66:
                    43:97:ee:d3:7d:b7:25:9c:bf:52:1d:fc:26:9d:08:
                    a7:17:06:c2:cc:10:2f:14:1d:14:6c:45:2f:43:35:
                    39:ed:89:23:26:8d:3f:06:1f:33:6b:01:12:75:6f:
                    d9:6c:e4:28:05:1b:c1:24:f6:d6:9f:33:6d:60:51:
                    43:e9:47:d7:e5:28:f5:28:5a:31:29:64:81:a3:b3:
                    aa:4f:a2:0d:50:26:c4:a7:fa:28:96:aa:cd:cd:9b:
                    b4:5b:c4:b3:ad:d5:34:9e:c8:af:a0:c0:84:9d:4c:
                    ec:0a:9e:4f:2e:d3:61:b7:15:f7:32:09:84:2b:32:
                    d3:4c:85:06:17:fb:7b:7d:bb:4f:23:77:a7:63:a7:
                    0f:e3
                Exponent: 65537 (0x10001)
        X509v3 extensions:
            X509v3 Basic Constraints: 
                CA:FALSE
            X509v3 Subject Key Identifier: 
                FC:67:A2:45:1D:56:85:56:F8:03:15:6A:C0:B1:FB:5E:21:16:26:0E
            X509v3 Authority Key Identifier: 
                keyid:C8:27:DA:64:30:08:40:08:4A:25:CC:DC:43:99:DE:77:A1:FE:77:BD
                DirName:/C=US/ST=California/L=San Francisco/O=Copyleft Certificate Co/OU=My Organizational Unit/CN=ChangeMe/emailAddress=me@example.net
                serial:A9:48:C3:7E:FC:1B:B0:A1

            X509v3 Extended Key Usage: 
                TLS Web Client Authentication
            X509v3 Key Usage: 
                Digital Signature
    Signature Algorithm: sha256WithRSAEncryption
         89:1a:a7:ab:76:e9:65:ad:4f:5c:19:ac:31:9a:8e:c4:07:58:
         f3:14:be:f1:cc:4a:f9:0e:f2:ad:b2:82:bc:ab:d9:8a:47:8f:
         7c:16:15:85:aa:06:1c:41:d0:fa:ce:7f:dc:25:2d:e0:eb:6b:
         c7:f3:c6:51:1e:5a:05:6b:67:c7:c6:53:58:d5:8c:d6:ca:cd:
         96:ad:1f:cf:93:ae:99:50:64:6d:6c:a9:2a:01:4f:2a:c0:69:
         0a:31:4a:bf:1a:91:6e:2f:78:b2:5a:9c:d9:e6:2f:e4:3e:ba:
         d2:da:c4:76:7e:e5:f9:54:b0:9d:e7:8f:34:a9:4a:54:c4:69:
         65:c0:55:0b:54:9d:ef:dc:c3:07:83:a4:54:10:51:4d:37:70:
         f5:be:f4:ec:1f:a7:4a:97:1d:09:75:0a:3a:1c:22:1f:8a:0a:
         27:9a:9d:51:38:4c:d5:4e:f2:ac:54:00:2c:e3:71:00:d2:0e:
         bd:d2:26:b7:fe:fb:34:35:41:ba:7a:de:e9:41:af:f0:56:13:
         03:84:3a:a4:9d:65:7a:42:a9:b5:12:71:e6:3e:82:0b:00:da:
         83:5b:2d:22:1e:7c:b2:74:c1:d0:bb:50:3f:64:50:fc:3e:9a:
         4d:98:3e:1b:87:5b:04:23:33:10:00:61:b0:90:5e:e7:61:2a:
         d5:30:08:10
-----BEGIN CERTIFICATE-----
MIIFKzCCBBOgAwIBAgIRAN816X0Ru+afdVzQYRByc54wDQYJKoZIhvcNAQELBQAw
ga8xCzAJBgNVBAYTAlVTMRMwEQYDVQQIDApDYWxpZm9ybmlhMRYwFAYDVQQHDA1T
YW4gRnJhbmNpc2NvMSAwHgYDVQQKDBdDb3B5bGVmdCBDZXJ0aWZpY2F0ZSBDbzEf
MB0GA1UECwwWTXkgT3JnYW5pemF0aW9uYWwgVW5pdDERMA8GA1UEAwwIQ2hhbmdl
TWUxHTAbBgkqhkiG9w0BCQEWDm1lQGV4YW1wbGUubmV0MB4XDTIzMTExMDE3NDU0
NloXDTI0MTEwOTE3NDU0NlowgbYxCzAJBgNVBAYTAlVTMQswCQYDVQQIDAJPSDET
MBEGA1UEBwwKQ2luY2lubmF0aTEhMB8GA1UECgwYVW5pdmVyc2l0eSBvZiBDaW5j
aW5uYXRpMSQwIgYDVQQLDBtEZXB0X0VsZWNfQ29tXyBFbmdfQ29tX1NjaS4xEjAQ
BgNVBAMMCWNsaWVudDExMDEoMCYGCSqGSIb3DQEJARYZZnJhbmNvQGdhdXNzLmVj
ZWNzLnVjLmVkdTCCASIwDQYJKoZIhvcNAQEBBQADggEPADCCAQoCggEBAMQn7dPz
6Qngz4hx6qcT2EmfE9aKai73G9KtGMDg2NWIf+9C+Stj17pj4IdhPS1CPDOlMJOH
j8RJvmxuXvGM090Os19JLPKl0WJMQnvRifqyWA+zg0Yu9Z7JMvZtZDoIcOsPityN
aXzM78kPVQp7MwTvxSlJ66VmQ5fu0323JZy/Uh38Jp0IpxcGwswQLxQdFGxFL0M1
Oe2JIyaNPwYfM2sBEnVv2WzkKAUbwST21p8zbWBRQ+lH1+Uo9ShaMSlkgaOzqk+i
DVAmxKf6KJaqzc2btFvEs63VNJ7Ir6DAhJ1M7AqeTy7TYbcV9zIJhCsy00yFBhf7
e327TyN3p2OnD+MCAwEAAaOCATcwggEzMAkGA1UdEwQCMAAwHQYDVR0OBBYEFPxn
okUdVoVW+AMVasCx+14hFiYOMIHkBgNVHSMEgdwwgdmAFMgn2mQwCEAISiXM3EOZ
3neh/ne9oYG1pIGyMIGvMQswCQYDVQQGEwJVUzETMBEGA1UECAwKQ2FsaWZvcm5p
YTEWMBQGA1UEBwwNU2FuIEZyYW5jaXNjbzEgMB4GA1UECgwXQ29weWxlZnQgQ2Vy
dGlmaWNhdGUgQ28xHzAdBgNVBAsMFk15IE9yZ2FuaXphdGlvbmFsIFVuaXQxETAP
BgNVBAMMCENoYW5nZU1lMR0wGwYJKoZIhvcNAQkBFg5tZUBleGFtcGxlLm5ldIIJ
AKlIw378G7ChMBMGA1UdJQQMMAoGCCsGAQUFBwMCMAsGA1UdDwQEAwIHgDANBgkq
hkiG9w0BAQsFAAOCAQEAiRqnq3bpZa1PXBmsMZqOxAdY8xS+8cxK+Q7yrbKCvKvZ
ikePfBYVhaoGHEHQ+s5/3CUt4Otrx/PGUR5aBWtnx8ZTWNWM1srNlq0fz5OumVBk
bWypKgFPKsBpCjFKvxqRbi94slqc2eYv5D660trEdn7l+VSwneePNKlKVMRpZcBV
C1Sd79zDB4OkVBBRTTdw9b707B+nSpcdCXUKOhwiH4oKJ5qdUThM1U7yrFQALONx
ANIOvdImt/77NDVBunre6UGv8FYTA4Q6pJ1lekKptRJx5j6CCwDag1stIh58snTB
0LtQP2RQ/D6aTZg+G4dbBCMzEABhsJBe52Eq1TAIEA==
-----END CERTIFICATE-----
