Certificate:
    Data:
        Version: 3 (0x2)
        Serial Number:
            91:11:28:27:b8:b7:c9:cb:90:fe:8d:ea:bb:59:2c:eb
    Signature Algorithm: sha256WithRSAEncryption
        Issuer: C=US, ST=California, L=San Francisco, O=Copyleft Certificate Co, OU=My Organizational Unit, CN=ChangeMe/emailAddress=me@example.net
        Validity
            Not Before: Nov 11 10:56:20 2023 GMT
            Not After : Nov 10 10:56:20 2024 GMT
        Subject: C=US, ST=OH, L=Cincinnati, O=University of Cincinnati, OU=Dept. Elec. Comp. Eng. Comp. Sci., CN=client16/emailAddress=franco@gauss.ececs.uc.edu
        Subject Public Key Info:
            Public Key Algorithm: rsaEncryption
                Public-Key: (2048 bit)
                Modulus:
                    00:b1:b2:14:50:55:4e:f4:e4:7f:04:3f:9d:6a:e6:
                    ca:94:52:fc:a2:32:6e:3b:64:eb:45:e9:ad:c4:a9:
                    75:c6:18:af:c0:03:c9:6f:25:42:7c:e4:63:e5:cf:
                    ff:97:52:0d:ae:e0:c5:4a:06:71:83:68:46:6d:3c:
                    cd:6a:0f:9d:c7:92:c2:3a:4a:2e:99:ca:dc:09:71:
                    f3:87:24:10:b0:4c:43:60:31:5b:63:78:17:51:8e:
                    e9:0f:d1:4f:69:0e:43:64:fd:0d:07:cf:2f:c3:61:
                    9e:0e:c0:46:55:17:26:de:8d:c6:14:2f:5d:3e:a2:
                    54:3b:cc:4f:77:49:b2:62:ba:58:33:b8:89:b2:7b:
                    f5:32:3a:82:d0:f4:39:1d:2d:b2:12:29:90:44:e0:
                    79:47:7d:d6:ee:22:8f:35:ff:57:a8:f4:8e:53:93:
                    8f:d0:c3:cb:bf:dd:3a:2b:15:7a:31:e6:93:5a:f8:
                    74:3a:90:55:e7:e7:01:32:e2:ab:e8:2f:2d:39:c5:
                    49:51:dd:92:a8:38:49:a7:1f:a4:1c:6a:5a:4b:fe:
                    24:01:df:a1:5c:0b:e0:85:01:6a:9a:08:8f:22:b8:
                    44:b6:0a:42:d8:7e:78:ea:bc:8e:27:77:93:27:c3:
                    fc:b2:0d:63:48:15:0f:f3:38:ad:04:6f:6d:e7:c4:
                    86:b7
                Exponent: 65537 (0x10001)
        X509v3 extensions:
            X509v3 Basic Constraints: 
                CA:FALSE
            X509v3 Subject Key Identifier: 
                12:89:EC:DF:D8:25:D9:59:26:5B:C1:F6:98:22:51:F3:09:75:E1:5E
            X509v3 Authority Key Identifier: 
                keyid:44:01:CC:06:0B:41:75:CB:C8:FB:C9:37:86:2D:9D:D2:D8:79:B6:8B
                DirName:/C=US/ST=California/L=San Francisco/O=Copyleft Certificate Co/OU=My Organizational Unit/CN=ChangeMe/emailAddress=me@example.net
                serial:AF:E8:E0:DD:C5:8B:0E:DD

            X509v3 Extended Key Usage: 
                TLS Web Client Authentication
            X509v3 Key Usage: 
                Digital Signature
    Signature Algorithm: sha256WithRSAEncryption
         c0:54:48:da:8c:89:6b:31:d3:67:f9:e1:c0:04:96:2f:48:e3:
         3c:40:60:e2:f5:ac:17:47:39:a0:e5:5d:43:7a:73:a9:10:c6:
         66:2d:cd:a7:bc:7b:9d:4c:25:2a:09:c0:a4:8f:0f:05:8f:6b:
         2b:e3:16:f0:77:b7:d8:f8:58:ee:e8:e9:9f:8a:02:ed:b4:3c:
         79:a2:55:7c:b0:8c:6e:38:f2:3f:90:8e:0c:d2:27:e3:02:3e:
         9e:3f:c8:65:d6:25:1b:87:59:b3:e1:16:de:36:c8:71:c0:26:
         76:20:d8:ff:ca:0b:15:6d:46:5b:2d:99:e5:9c:bb:12:89:77:
         45:22:50:a7:a0:c0:e7:4a:02:e5:6e:21:f5:b4:ae:bb:7d:b5:
         b3:0b:65:77:72:c1:d4:8d:9e:46:21:aa:d7:7a:22:9c:43:eb:
         90:52:29:c0:18:7c:a0:f7:40:fe:07:96:fe:2c:85:ac:00:b4:
         72:5e:b7:50:47:5d:23:78:ca:28:88:e3:7b:ec:f6:04:16:75:
         d7:76:8c:72:d3:81:c4:c4:68:f3:96:90:ff:8b:89:34:80:73:
         06:31:3a:18:1e:88:13:ed:9b:c8:a3:f3:fd:90:0a:95:35:8f:
         8d:d7:de:01:e2:2b:92:91:5c:43:16:5f:54:b4:d2:4e:8b:cd:
         fb:df:fa:39
-----BEGIN CERTIFICATE-----
MIIFMDCCBBigAwIBAgIRAJERKCe4t8nLkP6N6rtZLOswDQYJKoZIhvcNAQELBQAw
ga8xCzAJBgNVBAYTAlVTMRMwEQYDVQQIDApDYWxpZm9ybmlhMRYwFAYDVQQHDA1T
YW4gRnJhbmNpc2NvMSAwHgYDVQQKDBdDb3B5bGVmdCBDZXJ0aWZpY2F0ZSBDbzEf
MB0GA1UECwwWTXkgT3JnYW5pemF0aW9uYWwgVW5pdDERMA8GA1UEAwwIQ2hhbmdl
TWUxHTAbBgkqhkiG9w0BCQEWDm1lQGV4YW1wbGUubmV0MB4XDTIzMTExMTEwNTYy
MFoXDTI0MTExMDEwNTYyMFowgbsxCzAJBgNVBAYTAlVTMQswCQYDVQQIDAJPSDET
MBEGA1UEBwwKQ2luY2lubmF0aTEhMB8GA1UECgwYVW5pdmVyc2l0eSBvZiBDaW5j
aW5uYXRpMSowKAYDVQQLDCFEZXB0LiBFbGVjLiBDb21wLiBFbmcuIENvbXAuIFNj
aS4xETAPBgNVBAMMCGNsaWVudDE2MSgwJgYJKoZIhvcNAQkBFhlmcmFuY29AZ2F1
c3MuZWNlY3MudWMuZWR1MIIBIjANBgkqhkiG9w0BAQEFAAOCAQ8AMIIBCgKCAQEA
sbIUUFVO9OR/BD+daubKlFL8ojJuO2TrRemtxKl1xhivwAPJbyVCfORj5c//l1IN
ruDFSgZxg2hGbTzNag+dx5LCOkoumcrcCXHzhyQQsExDYDFbY3gXUY7pD9FPaQ5D
ZP0NB88vw2GeDsBGVRcm3o3GFC9dPqJUO8xPd0myYrpYM7iJsnv1MjqC0PQ5HS2y
EimQROB5R33W7iKPNf9XqPSOU5OP0MPLv906KxV6MeaTWvh0OpBV5+cBMuKr6C8t
OcVJUd2SqDhJpx+kHGpaS/4kAd+hXAvghQFqmgiPIrhEtgpC2H546ryOJ3eTJ8P8
sg1jSBUP8zitBG9t58SGtwIDAQABo4IBNzCCATMwCQYDVR0TBAIwADAdBgNVHQ4E
FgQUEons39gl2VkmW8H2mCJR8wl14V4wgeQGA1UdIwSB3DCB2YAURAHMBgtBdcvI
+8k3hi2d0th5touhgbWkgbIwga8xCzAJBgNVBAYTAlVTMRMwEQYDVQQIDApDYWxp
Zm9ybmlhMRYwFAYDVQQHDA1TYW4gRnJhbmNpc2NvMSAwHgYDVQQKDBdDb3B5bGVm
dCBDZXJ0aWZpY2F0ZSBDbzEfMB0GA1UECwwWTXkgT3JnYW5pemF0aW9uYWwgVW5p
dDERMA8GA1UEAwwIQ2hhbmdlTWUxHTAbBgkqhkiG9w0BCQEWDm1lQGV4YW1wbGUu
bmV0ggkAr+jg3cWLDt0wEwYDVR0lBAwwCgYIKwYBBQUHAwIwCwYDVR0PBAQDAgeA
MA0GCSqGSIb3DQEBCwUAA4IBAQDAVEjajIlrMdNn+eHABJYvSOM8QGDi9awXRzmg
5V1DenOpEMZmLc2nvHudTCUqCcCkjw8Fj2sr4xbwd7fY+Fju6OmfigLttDx5olV8
sIxuOPI/kI4M0ifjAj6eP8hl1iUbh1mz4RbeNshxwCZ2INj/ygsVbUZbLZnlnLsS
iXdFIlCnoMDnSgLlbiH1tK67fbWzC2V3csHUjZ5GIarXeiKcQ+uQUinAGHyg90D+
B5b+LIWsALRyXrdQR10jeMooiON77PYEFnXXdoxy04HExGjzlpD/i4k0gHMGMToY
HogT7ZvIo/P9kAqVNY+N194B4iuSkVxDFl9UtNJOi8373/o5
-----END CERTIFICATE-----
