Certificate:
    Data:
        Version: 3 (0x2)
        Serial Number:
            b9:ff:ae:e7:c4:05:ce:72:36:4a:f3:22:74:0e:3a:de
    Signature Algorithm: sha256WithRSAEncryption
        Issuer: C=US, ST=California, L=San Francisco, O=Copyleft Certificate Co, OU=My Organizational Unit, CN=ChangeMe/emailAddress=me@example.net
        Validity
            Not Before: Jan 23 18:30:37 2021 GMT
            Not After : Jan 23 18:30:37 2022 GMT
        Subject: C=US, ST=OH, L=Cincinnati, O=University of Cincinnati, OU=Dept. Electrical Eng. and Computer Sci., CN=client143/emailAddress=franco@gauss.ececs.uc.edu
        Subject Public Key Info:
            Public Key Algorithm: rsaEncryption
                Public-Key: (2048 bit)
                Modulus:
                    00:c6:b0:1e:e2:57:e3:45:37:10:8c:81:89:a6:fd:
                    e5:33:8b:cc:74:ef:73:9d:db:ac:dd:09:20:7a:00:
                    5a:c1:50:fe:c2:04:79:68:dd:07:37:27:00:8f:b0:
                    7c:49:68:e8:d8:e0:a2:86:e9:48:3f:d2:a2:ad:82:
                    12:c9:1e:dc:f6:ce:1b:c7:fd:33:04:0d:1b:c2:67:
                    a4:33:94:b5:9b:e3:1d:f1:0e:64:4a:21:23:4a:04:
                    8a:07:be:c7:38:a1:6c:1a:e1:c0:9b:1c:a9:88:37:
                    c5:9e:dd:f9:3a:c7:57:f5:93:bd:23:8f:77:16:e1:
                    0d:cd:3a:ed:aa:4b:76:0b:d0:a9:0a:f4:6b:53:40:
                    c4:5c:f5:b3:22:67:b3:fb:ff:cc:3f:a0:6b:69:65:
                    a1:73:bd:4a:e1:3f:ae:30:33:7c:7e:f2:94:ac:92:
                    5d:b3:94:9d:c4:08:63:f9:9e:55:31:35:c3:82:49:
                    94:6f:bf:ef:17:cc:a9:51:64:5a:96:4b:43:a0:70:
                    e1:25:a4:1e:83:0d:27:e3:48:c0:b3:b2:43:00:fb:
                    e9:f4:d3:b3:f2:3d:d1:6c:37:bf:56:9f:c9:2a:b4:
                    a6:c6:fc:b9:24:20:87:16:9c:04:2b:3d:ff:08:fb:
                    6b:1f:78:52:12:03:71:4e:ce:13:f9:3f:be:1b:57:
                    c2:0f
                Exponent: 65537 (0x10001)
        X509v3 extensions:
            X509v3 Basic Constraints: 
                CA:FALSE
            X509v3 Subject Key Identifier: 
                22:40:D5:33:11:B4:C7:9B:BA:A3:54:5A:8C:A0:7E:59:C0:D8:2A:C0
            X509v3 Authority Key Identifier: 
                keyid:EF:DC:B6:3D:4B:FD:A7:87:05:C5:22:3D:8B:DC:BF:99:2A:EE:E4:DB
                DirName:/C=US/ST=California/L=San Francisco/O=Copyleft Certificate Co/OU=My Organizational Unit/CN=ChangeMe/emailAddress=me@example.net
                serial:87:1E:1D:DC:6B:8C:66:88

            X509v3 Extended Key Usage: 
                TLS Web Client Authentication
            X509v3 Key Usage: 
                Digital Signature
    Signature Algorithm: sha256WithRSAEncryption
         76:33:0f:cc:90:12:7c:8d:f5:c2:f2:90:bb:52:72:c9:6e:e1:
         29:e5:f3:85:3c:d5:01:d2:d9:e0:fe:d0:4a:5e:1c:5a:b3:c7:
         2b:05:ef:eb:8a:c3:27:e5:52:74:e2:51:3c:35:3f:3d:b2:35:
         2e:ac:c7:67:e4:9d:0e:36:4c:45:8e:a9:12:fd:1a:3b:06:dd:
         4b:bd:b9:21:28:88:f3:62:65:49:a1:1a:dd:5c:3a:90:19:4a:
         ad:d7:db:51:c3:6f:3c:fb:8f:da:b9:a6:36:40:20:bb:9b:72:
         5b:a7:84:d5:c4:80:a0:55:7f:0d:4d:99:60:d3:99:65:92:d4:
         15:27:28:18:61:a8:bb:b2:78:88:6d:3c:1d:92:e7:b5:7c:f9:
         c6:a0:1f:b1:d4:a5:e7:46:3f:70:58:53:7e:82:8b:2b:e3:11:
         94:c8:b3:fe:f9:36:ea:b4:ed:ff:55:1e:7f:ec:2e:fa:0e:d9:
         28:96:51:20:e6:ee:cb:b3:e5:88:d4:c3:c9:24:c4:6b:eb:63:
         c4:0c:cb:58:82:94:83:9e:f3:c7:67:24:5c:33:4b:8f:cd:21:
         f6:dd:2f:8e:62:c4:43:c6:6a:7e:ac:8c:82:6e:19:65:5c:91:
         5c:28:7a:4c:4a:c2:52:f0:34:ee:37:5e:74:50:72:7f:16:16:
         52:fb:af:70
-----BEGIN CERTIFICATE-----
MIIFNzCCBB+gAwIBAgIRALn/rufEBc5yNkrzInQOOt4wDQYJKoZIhvcNAQELBQAw
ga8xCzAJBgNVBAYTAlVTMRMwEQYDVQQIDApDYWxpZm9ybmlhMRYwFAYDVQQHDA1T
YW4gRnJhbmNpc2NvMSAwHgYDVQQKDBdDb3B5bGVmdCBDZXJ0aWZpY2F0ZSBDbzEf
MB0GA1UECwwWTXkgT3JnYW5pemF0aW9uYWwgVW5pdDERMA8GA1UEAwwIQ2hhbmdl
TWUxHTAbBgkqhkiG9w0BCQEWDm1lQGV4YW1wbGUubmV0MB4XDTIxMDEyMzE4MzAz
N1oXDTIyMDEyMzE4MzAzN1owgcIxCzAJBgNVBAYTAlVTMQswCQYDVQQIDAJPSDET
MBEGA1UEBwwKQ2luY2lubmF0aTEhMB8GA1UECgwYVW5pdmVyc2l0eSBvZiBDaW5j
aW5uYXRpMTAwLgYDVQQLDCdEZXB0LiBFbGVjdHJpY2FsIEVuZy4gYW5kIENvbXB1
dGVyIFNjaS4xEjAQBgNVBAMMCWNsaWVudDE0MzEoMCYGCSqGSIb3DQEJARYZZnJh
bmNvQGdhdXNzLmVjZWNzLnVjLmVkdTCCASIwDQYJKoZIhvcNAQEBBQADggEPADCC
AQoCggEBAMawHuJX40U3EIyBiab95TOLzHTvc53brN0JIHoAWsFQ/sIEeWjdBzcn
AI+wfElo6NjgoobpSD/Soq2CEske3PbOG8f9MwQNG8JnpDOUtZvjHfEOZEohI0oE
ige+xzihbBrhwJscqYg3xZ7d+TrHV/WTvSOPdxbhDc067apLdgvQqQr0a1NAxFz1
syJns/v/zD+ga2lloXO9SuE/rjAzfH7ylKySXbOUncQIY/meVTE1w4JJlG+/7xfM
qVFkWpZLQ6Bw4SWkHoMNJ+NIwLOyQwD76fTTs/I90Ww3v1afySq0psb8uSQghxac
BCs9/wj7ax94UhIDcU7OE/k/vhtXwg8CAwEAAaOCATcwggEzMAkGA1UdEwQCMAAw
HQYDVR0OBBYEFCJA1TMRtMebuqNUWoygflnA2CrAMIHkBgNVHSMEgdwwgdmAFO/c
tj1L/aeHBcUiPYvcv5kq7uTboYG1pIGyMIGvMQswCQYDVQQGEwJVUzETMBEGA1UE
CAwKQ2FsaWZvcm5pYTEWMBQGA1UEBwwNU2FuIEZyYW5jaXNjbzEgMB4GA1UECgwX
Q29weWxlZnQgQ2VydGlmaWNhdGUgQ28xHzAdBgNVBAsMFk15IE9yZ2FuaXphdGlv
bmFsIFVuaXQxETAPBgNVBAMMCENoYW5nZU1lMR0wGwYJKoZIhvcNAQkBFg5tZUBl
eGFtcGxlLm5ldIIJAIceHdxrjGaIMBMGA1UdJQQMMAoGCCsGAQUFBwMCMAsGA1Ud
DwQEAwIHgDANBgkqhkiG9w0BAQsFAAOCAQEAdjMPzJASfI31wvKQu1JyyW7hKeXz
hTzVAdLZ4P7QSl4cWrPHKwXv64rDJ+VSdOJRPDU/PbI1LqzHZ+SdDjZMRY6pEv0a
OwbdS725ISiI82JlSaEa3Vw6kBlKrdfbUcNvPPuP2rmmNkAgu5tyW6eE1cSAoFV/
DU2ZYNOZZZLUFScoGGGou7J4iG08HZLntXz5xqAfsdSl50Y/cFhTfoKLK+MRlMiz
/vk26rTt/1Uef+wu+g7ZKJZRIObuy7PliNTDySTEa+tjxAzLWIKUg57zx2ckXDNL
j80h9t0vjmLEQ8ZqfqyMgm4ZZVyRXCh6TErCUvA07jdedFByfxYWUvuvcA==
-----END CERTIFICATE-----
