Certificate:
    Data:
        Version: 3 (0x2)
        Serial Number:
            94:f5:c4:68:c3:f4:26:01:22:9b:fa:8c:a5:55:f6:4c
    Signature Algorithm: sha256WithRSAEncryption
        Issuer: C=US, ST=California, L=San Francisco, O=Copyleft Certificate Co, OU=My Organizational Unit, CN=ChangeMe/emailAddress=me@example.net
        Validity
            Not Before: Nov 11 01:59:51 2023 GMT
            Not After : Nov 10 01:59:51 2024 GMT
        Subject: C=US, ST=OH, L=Cincinnati, O=University of Cincinnati, OU=Dept. Elec. Comp. Eng. Comp. Sci., CN=client27/emailAddress=franco@gauss.ececs.uc.edu
        Subject Public Key Info:
            Public Key Algorithm: rsaEncryption
                Public-Key: (2048 bit)
                Modulus:
                    00:ef:df:fd:9c:25:09:dc:1b:43:2c:58:cb:96:90:
                    a6:a9:b9:1b:16:b6:dd:33:2d:7c:04:af:04:71:be:
                    29:e3:e8:b0:7c:0b:a5:d6:58:77:34:0a:b7:92:bc:
                    20:ad:ce:03:7f:92:2d:8a:33:73:fe:c8:76:89:f4:
                    08:a7:b1:2e:7a:ea:4a:e5:70:1a:49:b7:66:7f:a9:
                    00:3c:06:53:16:60:5c:1f:a1:56:64:37:4c:ea:7c:
                    1f:49:4f:aa:87:71:e4:3e:2e:70:5d:7d:82:dd:6b:
                    f2:5b:d4:3f:fc:91:80:14:f9:cb:09:62:4c:51:28:
                    e8:7e:0d:03:e9:01:de:65:8a:55:27:75:d6:d2:c2:
                    7c:8b:cc:73:68:bd:42:54:d1:59:61:1d:4e:38:d2:
                    f4:61:e0:7f:a7:4f:a8:dd:98:6d:df:a3:3d:fb:1d:
                    6b:ce:a1:02:69:72:3b:e2:2c:5b:50:88:60:1e:f9:
                    40:0c:e5:45:1f:a3:de:cc:92:11:55:18:2d:39:90:
                    61:53:fc:05:75:a6:b9:20:d0:97:c3:c6:51:2e:4f:
                    da:6f:ab:67:74:07:81:99:e8:b2:42:61:7e:43:ed:
                    8d:0c:b9:bf:b8:ae:48:11:1b:c7:94:cd:86:b6:ed:
                    d9:56:f2:43:51:c0:96:f2:85:56:5b:d7:d0:92:a9:
                    9e:51
                Exponent: 65537 (0x10001)
        X509v3 extensions:
            X509v3 Basic Constraints: 
                CA:FALSE
            X509v3 Subject Key Identifier: 
                AD:98:74:71:C1:77:DE:F4:25:3A:19:7E:3E:B3:73:00:C6:0E:48:16
            X509v3 Authority Key Identifier: 
                keyid:7B:0F:93:16:64:9F:71:41:D3:1B:FB:ED:6A:70:9B:CA:2E:70:F0:4B
                DirName:/C=US/ST=California/L=San Francisco/O=Copyleft Certificate Co/OU=My Organizational Unit/CN=ChangeMe/emailAddress=me@example.net
                serial:B9:F2:4E:2C:79:B3:D4:6C

            X509v3 Extended Key Usage: 
                TLS Web Client Authentication
            X509v3 Key Usage: 
                Digital Signature
    Signature Algorithm: sha256WithRSAEncryption
         0e:01:19:0d:d8:c1:0f:3a:07:76:3f:03:9c:e7:79:40:e4:e5:
         8e:79:61:32:5b:9d:51:f2:3e:f0:96:25:f6:65:c5:67:6d:f2:
         45:5f:59:71:ea:91:82:dc:69:5c:c5:15:b4:4a:b6:0f:a7:89:
         d1:a2:60:1e:0a:fa:b8:da:00:9c:cf:11:3f:83:f1:79:ea:f1:
         35:c1:34:db:43:43:63:ff:6d:63:fa:5e:16:b1:3a:53:09:75:
         03:25:a9:04:42:73:4b:1b:89:eb:7a:6e:9c:0b:9e:49:39:df:
         76:f9:c1:66:5a:bc:6b:e6:59:db:e8:15:f0:9f:31:97:ee:29:
         0f:65:b5:39:dc:1c:97:42:22:9a:59:cb:0a:69:16:58:ca:6a:
         e9:2c:bc:df:83:e6:b3:76:b5:d9:f0:13:c6:10:29:75:8f:b8:
         5e:f5:3e:a2:3f:e4:90:3e:5a:6d:bc:01:bd:8c:3a:68:e9:7c:
         1c:c5:b8:28:a5:1c:ab:54:e6:db:b0:23:3b:ba:9a:dc:10:3e:
         fe:90:43:54:50:bb:ad:30:99:3f:3f:f3:e9:2b:7c:a0:4a:03:
         36:5e:70:a9:e1:27:09:da:59:83:23:7d:dc:6e:a5:5a:2e:35:
         fb:ac:d7:f1:2a:48:b3:13:7b:88:9a:ca:7a:40:a3:4c:99:19:
         ab:1b:39:2d
-----BEGIN CERTIFICATE-----
MIIFMDCCBBigAwIBAgIRAJT1xGjD9CYBIpv6jKVV9kwwDQYJKoZIhvcNAQELBQAw
ga8xCzAJBgNVBAYTAlVTMRMwEQYDVQQIDApDYWxpZm9ybmlhMRYwFAYDVQQHDA1T
YW4gRnJhbmNpc2NvMSAwHgYDVQQKDBdDb3B5bGVmdCBDZXJ0aWZpY2F0ZSBDbzEf
MB0GA1UECwwWTXkgT3JnYW5pemF0aW9uYWwgVW5pdDERMA8GA1UEAwwIQ2hhbmdl
TWUxHTAbBgkqhkiG9w0BCQEWDm1lQGV4YW1wbGUubmV0MB4XDTIzMTExMTAxNTk1
MVoXDTI0MTExMDAxNTk1MVowgbsxCzAJBgNVBAYTAlVTMQswCQYDVQQIDAJPSDET
MBEGA1UEBwwKQ2luY2lubmF0aTEhMB8GA1UECgwYVW5pdmVyc2l0eSBvZiBDaW5j
aW5uYXRpMSowKAYDVQQLDCFEZXB0LiBFbGVjLiBDb21wLiBFbmcuIENvbXAuIFNj
aS4xETAPBgNVBAMMCGNsaWVudDI3MSgwJgYJKoZIhvcNAQkBFhlmcmFuY29AZ2F1
c3MuZWNlY3MudWMuZWR1MIIBIjANBgkqhkiG9w0BAQEFAAOCAQ8AMIIBCgKCAQEA
79/9nCUJ3BtDLFjLlpCmqbkbFrbdMy18BK8Ecb4p4+iwfAul1lh3NAq3krwgrc4D
f5ItijNz/sh2ifQIp7EueupK5XAaSbdmf6kAPAZTFmBcH6FWZDdM6nwfSU+qh3Hk
Pi5wXX2C3WvyW9Q//JGAFPnLCWJMUSjofg0D6QHeZYpVJ3XW0sJ8i8xzaL1CVNFZ
YR1OONL0YeB/p0+o3Zht36M9+x1rzqECaXI74ixbUIhgHvlADOVFH6PezJIRVRgt
OZBhU/wFdaa5INCXw8ZRLk/ab6tndAeBmeiyQmF+Q+2NDLm/uK5IERvHlM2Gtu3Z
VvJDUcCW8oVWW9fQkqmeUQIDAQABo4IBNzCCATMwCQYDVR0TBAIwADAdBgNVHQ4E
FgQUrZh0ccF33vQlOhl+PrNzAMYOSBYwgeQGA1UdIwSB3DCB2YAUew+TFmSfcUHT
G/vtanCbyi5w8EuhgbWkgbIwga8xCzAJBgNVBAYTAlVTMRMwEQYDVQQIDApDYWxp
Zm9ybmlhMRYwFAYDVQQHDA1TYW4gRnJhbmNpc2NvMSAwHgYDVQQKDBdDb3B5bGVm
dCBDZXJ0aWZpY2F0ZSBDbzEfMB0GA1UECwwWTXkgT3JnYW5pemF0aW9uYWwgVW5p
dDERMA8GA1UEAwwIQ2hhbmdlTWUxHTAbBgkqhkiG9w0BCQEWDm1lQGV4YW1wbGUu
bmV0ggkAufJOLHmz1GwwEwYDVR0lBAwwCgYIKwYBBQUHAwIwCwYDVR0PBAQDAgeA
MA0GCSqGSIb3DQEBCwUAA4IBAQAOARkN2MEPOgd2PwOc53lA5OWOeWEyW51R8j7w
liX2ZcVnbfJFX1lx6pGC3GlcxRW0SrYPp4nRomAeCvq42gCczxE/g/F56vE1wTTb
Q0Nj/21j+l4WsTpTCXUDJakEQnNLG4nrem6cC55JOd92+cFmWrxr5lnb6BXwnzGX
7ikPZbU53ByXQiKaWcsKaRZYymrpLLzfg+azdrXZ8BPGECl1j7he9T6iP+SQPlpt
vAG9jDpo6XwcxbgopRyrVObbsCM7uprcED7+kENUULutMJk/P/PpK3ygSgM2XnCp
4ScJ2lmDI33cbqVaLjX7rNfxKkizE3uImsp6QKNMmRmrGzkt
-----END CERTIFICATE-----
