Certificate:
    Data:
        Version: 3 (0x2)
        Serial Number:
            78:27:a0:34:39:3c:57:51:96:95:6c:97:bc:aa:9c:a3
    Signature Algorithm: sha256WithRSAEncryption
        Issuer: C=US, ST=California, L=San Francisco, O=Copyleft Certificate Co, OU=My Organizational Unit, CN=ChangeMe/emailAddress=me@example.net
        Validity
            Not Before: Nov 11 01:58:15 2023 GMT
            Not After : Nov 10 01:58:15 2024 GMT
        Subject: C=US, ST=OH, L=Cincinnati, O=University of Cincinnati, OU=Dept. Elec. Comp. Eng. Comp. Sci., CN=client3/emailAddress=franco@gauss.ececs.uc.edu
        Subject Public Key Info:
            Public Key Algorithm: rsaEncryption
                Public-Key: (2048 bit)
                Modulus:
                    00:eb:3a:91:ba:27:cb:07:83:a9:59:8a:76:5e:fa:
                    f3:df:27:bc:0a:ad:07:d6:1d:9d:cb:04:25:28:3c:
                    47:a8:f7:cb:92:c7:66:03:cf:15:35:28:76:a5:d2:
                    6b:83:53:8c:cd:1f:dd:13:2f:3e:01:f8:9f:f0:91:
                    2d:54:38:d3:02:ea:74:a0:e2:e4:8f:6d:18:79:be:
                    cc:64:61:23:37:b4:8a:d2:a9:4b:17:75:05:ff:35:
                    aa:f7:9f:95:1e:d5:98:f1:83:ec:f2:f8:cc:8c:b8:
                    d3:d3:eb:6d:37:07:44:b6:5c:2e:a4:24:0e:8f:38:
                    93:2d:dd:24:44:1f:b7:a8:81:97:e8:f2:09:0e:d8:
                    db:10:5c:16:6b:5c:6f:36:2b:3b:2f:b0:0a:76:90:
                    ff:32:56:86:e4:af:5d:17:b8:9e:d4:e5:7f:f3:ba:
                    b6:19:01:67:9b:33:8b:d7:ab:34:07:46:2b:89:dc:
                    e4:6b:86:ad:dc:b7:80:f7:f3:b2:4c:e8:1f:ca:76:
                    3e:20:da:50:c3:f4:70:79:13:c0:59:94:18:a5:b5:
                    c3:c1:c6:35:c7:39:b8:41:90:de:9f:31:68:e6:89:
                    c7:48:6b:31:15:07:0e:b0:ad:a4:aa:6f:bb:48:92:
                    43:95:de:60:83:c5:f1:03:a1:79:cb:ce:e7:65:27:
                    30:93
                Exponent: 65537 (0x10001)
        X509v3 extensions:
            X509v3 Basic Constraints: 
                CA:FALSE
            X509v3 Subject Key Identifier: 
                36:E8:EC:B4:81:7E:E0:CD:5B:F4:FB:B6:B4:06:41:C6:7D:86:F0:30
            X509v3 Authority Key Identifier: 
                keyid:7B:0F:93:16:64:9F:71:41:D3:1B:FB:ED:6A:70:9B:CA:2E:70:F0:4B
                DirName:/C=US/ST=California/L=San Francisco/O=Copyleft Certificate Co/OU=My Organizational Unit/CN=ChangeMe/emailAddress=me@example.net
                serial:B9:F2:4E:2C:79:B3:D4:6C

            X509v3 Extended Key Usage: 
                TLS Web Client Authentication
            X509v3 Key Usage: 
                Digital Signature
    Signature Algorithm: sha256WithRSAEncryption
         4e:1e:69:67:11:96:09:54:d0:d4:10:20:df:73:9e:26:c5:81:
         c1:33:2f:42:b9:5f:5b:fb:68:6a:ca:74:e3:df:4b:3d:d3:2a:
         42:55:34:bd:79:78:5a:3e:ae:3a:47:da:22:8c:d5:1b:cc:6c:
         05:b6:41:ec:b8:4d:07:af:da:5c:f7:47:d2:8f:1a:99:54:04:
         64:30:df:3f:7a:bb:be:c0:96:71:35:f6:41:f1:49:00:4b:fb:
         7e:d2:de:79:c5:f7:35:3d:2d:b0:97:8e:0a:a3:8b:78:bf:43:
         86:8e:fe:54:fc:f1:89:aa:c1:17:74:cb:0b:a9:8d:e3:d4:bd:
         ff:27:e3:db:bc:e1:79:71:27:15:5e:69:5e:16:8f:02:b1:33:
         06:a6:10:73:f1:dd:2e:f9:1b:44:6e:48:36:f8:94:bf:b6:7e:
         7f:37:4f:64:b5:3e:bf:dc:b6:77:60:36:99:e0:bd:d3:2b:17:
         3b:26:37:ff:1f:e4:0d:52:e2:3c:6a:ee:5e:ff:5a:d1:ff:64:
         2c:66:f1:cc:b7:6a:6f:69:35:4e:4b:20:2f:80:f0:41:60:2e:
         13:fb:dc:72:71:57:4a:33:35:27:48:7f:07:62:4f:79:fc:d5:
         19:f4:a4:0a:af:b5:75:af:e4:93:2b:78:fd:a2:b4:27:c3:40:
         ec:c0:7c:5e
-----BEGIN CERTIFICATE-----
MIIFLjCCBBagAwIBAgIQeCegNDk8V1GWlWyXvKqcozANBgkqhkiG9w0BAQsFADCB
rzELMAkGA1UEBhMCVVMxEzARBgNVBAgMCkNhbGlmb3JuaWExFjAUBgNVBAcMDVNh
biBGcmFuY2lzY28xIDAeBgNVBAoMF0NvcHlsZWZ0IENlcnRpZmljYXRlIENvMR8w
HQYDVQQLDBZNeSBPcmdhbml6YXRpb25hbCBVbml0MREwDwYDVQQDDAhDaGFuZ2VN
ZTEdMBsGCSqGSIb3DQEJARYObWVAZXhhbXBsZS5uZXQwHhcNMjMxMTExMDE1ODE1
WhcNMjQxMTEwMDE1ODE1WjCBujELMAkGA1UEBhMCVVMxCzAJBgNVBAgMAk9IMRMw
EQYDVQQHDApDaW5jaW5uYXRpMSEwHwYDVQQKDBhVbml2ZXJzaXR5IG9mIENpbmNp
bm5hdGkxKjAoBgNVBAsMIURlcHQuIEVsZWMuIENvbXAuIEVuZy4gQ29tcC4gU2Np
LjEQMA4GA1UEAwwHY2xpZW50MzEoMCYGCSqGSIb3DQEJARYZZnJhbmNvQGdhdXNz
LmVjZWNzLnVjLmVkdTCCASIwDQYJKoZIhvcNAQEBBQADggEPADCCAQoCggEBAOs6
kbonyweDqVmKdl76898nvAqtB9YdncsEJSg8R6j3y5LHZgPPFTUodqXSa4NTjM0f
3RMvPgH4n/CRLVQ40wLqdKDi5I9tGHm+zGRhIze0itKpSxd1Bf81qveflR7VmPGD
7PL4zIy409PrbTcHRLZcLqQkDo84ky3dJEQft6iBl+jyCQ7Y2xBcFmtcbzYrOy+w
CnaQ/zJWhuSvXRe4ntTlf/O6thkBZ5szi9erNAdGK4nc5GuGrdy3gPfzskzoH8p2
PiDaUMP0cHkTwFmUGKW1w8HGNcc5uEGQ3p8xaOaJx0hrMRUHDrCtpKpvu0iSQ5Xe
YIPF8QOhecvO52UnMJMCAwEAAaOCATcwggEzMAkGA1UdEwQCMAAwHQYDVR0OBBYE
FDbo7LSBfuDNW/T7trQGQcZ9hvAwMIHkBgNVHSMEgdwwgdmAFHsPkxZkn3FB0xv7
7Wpwm8oucPBLoYG1pIGyMIGvMQswCQYDVQQGEwJVUzETMBEGA1UECAwKQ2FsaWZv
cm5pYTEWMBQGA1UEBwwNU2FuIEZyYW5jaXNjbzEgMB4GA1UECgwXQ29weWxlZnQg
Q2VydGlmaWNhdGUgQ28xHzAdBgNVBAsMFk15IE9yZ2FuaXphdGlvbmFsIFVuaXQx
ETAPBgNVBAMMCENoYW5nZU1lMR0wGwYJKoZIhvcNAQkBFg5tZUBleGFtcGxlLm5l
dIIJALnyTix5s9RsMBMGA1UdJQQMMAoGCCsGAQUFBwMCMAsGA1UdDwQEAwIHgDAN
BgkqhkiG9w0BAQsFAAOCAQEATh5pZxGWCVTQ1BAg33OeJsWBwTMvQrlfW/toasp0
499LPdMqQlU0vXl4Wj6uOkfaIozVG8xsBbZB7LhNB6/aXPdH0o8amVQEZDDfP3q7
vsCWcTX2QfFJAEv7ftLeecX3NT0tsJeOCqOLeL9Dho7+VPzxiarBF3TLC6mN49S9
/yfj27zheXEnFV5pXhaPArEzBqYQc/HdLvkbRG5INviUv7Z+fzdPZLU+v9y2d2A2
meC90ysXOyY3/x/kDVLiPGruXv9a0f9kLGbxzLdqb2k1TksgL4DwQWAuE/vccnFX
SjM1J0h/B2JPefzVGfSkCq+1da/kkyt4/aK0J8NA7MB8Xg==
-----END CERTIFICATE-----
