Certificate:
    Data:
        Version: 3 (0x2)
        Serial Number:
            bb:4d:fd:10:2f:8d:77:8f:0d:84:16:5f:dc:59:4d:db
    Signature Algorithm: sha256WithRSAEncryption
        Issuer: C=US, ST=California, L=San Francisco, O=Copyleft Certificate Co, OU=My Organizational Unit, CN=ChangeMe/emailAddress=me@example.net
        Validity
            Not Before: Nov 11 01:44:54 2023 GMT
            Not After : Nov 10 01:44:54 2024 GMT
        Subject: C=US, ST=OH, L=Cincinnati, O=University of Cincinnati, OU=Dept. Elec. Comp. Eng. Comp. Sci., CN=client78/emailAddress=franco@gauss.ececs.uc.edu
        Subject Public Key Info:
            Public Key Algorithm: rsaEncryption
                Public-Key: (2048 bit)
                Modulus:
                    00:b4:0e:04:a7:6a:3f:30:74:bb:e3:79:ed:27:17:
                    eb:c4:e6:d2:a5:f9:82:f4:93:cf:fc:2d:19:65:23:
                    4d:6a:2f:a3:ef:60:d9:67:d2:2f:56:64:28:7e:a5:
                    98:a2:56:54:d5:70:76:db:25:cf:da:27:a8:cc:50:
                    fc:c0:b3:a7:b7:6e:61:ba:20:00:77:39:20:11:66:
                    21:6a:31:f3:fc:00:bf:47:7a:9b:5b:26:01:68:19:
                    f5:df:3e:8f:4d:2a:58:ca:5a:bf:8b:d5:38:52:47:
                    13:f7:49:7c:a2:75:03:1c:6f:fd:ef:8a:25:4e:50:
                    bf:4b:bc:b4:6d:33:7e:cd:08:f5:09:57:00:f7:68:
                    c1:10:d8:73:79:c7:70:2f:99:0f:37:65:b9:88:f7:
                    ae:27:7b:67:dc:38:44:73:d2:d6:fb:44:7f:c4:a5:
                    c5:6b:7e:69:96:7a:62:85:d6:f1:fb:e4:d9:7a:e0:
                    e7:63:5a:bc:c9:e4:ce:3c:91:2b:19:ab:48:1d:59:
                    36:ca:fd:3a:2a:af:91:1e:71:35:14:e1:15:2f:ff:
                    1f:fe:31:9c:b7:56:b6:aa:7d:f0:50:84:53:34:19:
                    11:07:37:1c:0d:9c:17:d6:0f:c6:c8:f1:7d:06:5a:
                    df:e1:5a:0b:99:b1:46:a3:27:27:2f:e8:68:ad:26:
                    63:db
                Exponent: 65537 (0x10001)
        X509v3 extensions:
            X509v3 Basic Constraints: 
                CA:FALSE
            X509v3 Subject Key Identifier: 
                25:5D:7E:A8:5C:79:0C:74:2B:6B:31:A2:09:98:49:4F:5C:36:12:28
            X509v3 Authority Key Identifier: 
                keyid:73:DE:A0:43:0F:AE:B1:9E:E8:59:69:18:50:A1:1A:1F:D4:A1:E3:F0
                DirName:/C=US/ST=California/L=San Francisco/O=Copyleft Certificate Co/OU=My Organizational Unit/CN=ChangeMe/emailAddress=me@example.net
                serial:E9:BB:CB:16:C5:32:BE:3B

            X509v3 Extended Key Usage: 
                TLS Web Client Authentication
            X509v3 Key Usage: 
                Digital Signature
    Signature Algorithm: sha256WithRSAEncryption
         bb:3e:fd:2b:36:43:19:a4:ef:a0:41:8e:fa:5f:c4:2e:80:6e:
         d5:de:80:f0:be:38:3b:17:e6:37:d5:e0:a9:91:3b:9f:41:63:
         bc:3a:0c:46:e0:d7:a9:9c:68:cb:c3:fe:e9:fc:96:ad:b9:38:
         3a:78:50:eb:52:f2:f4:84:f7:45:e7:1a:b3:82:af:c9:5e:5a:
         93:a0:54:b7:49:8a:fc:56:c5:de:92:03:06:f9:0c:39:61:20:
         32:21:4b:ff:7e:14:75:c3:6e:6c:6c:b1:b0:21:ff:8f:23:ef:
         7d:40:66:2c:12:ac:74:2f:98:da:8a:c6:f9:ce:b1:93:5b:c5:
         03:9d:8d:43:17:d9:53:fb:b6:b4:88:ff:8b:73:be:0f:82:73:
         f2:af:27:08:bf:5f:f4:74:3e:31:c7:92:f5:20:68:0f:64:92:
         08:33:69:23:63:97:1f:65:c3:19:0c:4c:96:02:e9:5d:7b:ad:
         db:37:03:78:de:0c:a5:7b:fc:e7:32:f4:21:20:91:3d:2b:43:
         6e:80:80:b4:1e:e2:2b:bc:27:17:f7:07:84:54:63:63:bb:6e:
         a1:06:1e:4d:e7:1a:11:c2:5e:c2:88:04:b8:00:6b:af:41:27:
         42:19:be:f0:93:94:eb:8e:8f:f0:c6:de:0e:ec:0a:38:d9:cd:
         3a:dd:32:9b
-----BEGIN CERTIFICATE-----
MIIFMDCCBBigAwIBAgIRALtN/RAvjXePDYQWX9xZTdswDQYJKoZIhvcNAQELBQAw
ga8xCzAJBgNVBAYTAlVTMRMwEQYDVQQIDApDYWxpZm9ybmlhMRYwFAYDVQQHDA1T
YW4gRnJhbmNpc2NvMSAwHgYDVQQKDBdDb3B5bGVmdCBDZXJ0aWZpY2F0ZSBDbzEf
MB0GA1UECwwWTXkgT3JnYW5pemF0aW9uYWwgVW5pdDERMA8GA1UEAwwIQ2hhbmdl
TWUxHTAbBgkqhkiG9w0BCQEWDm1lQGV4YW1wbGUubmV0MB4XDTIzMTExMTAxNDQ1
NFoXDTI0MTExMDAxNDQ1NFowgbsxCzAJBgNVBAYTAlVTMQswCQYDVQQIDAJPSDET
MBEGA1UEBwwKQ2luY2lubmF0aTEhMB8GA1UECgwYVW5pdmVyc2l0eSBvZiBDaW5j
aW5uYXRpMSowKAYDVQQLDCFEZXB0LiBFbGVjLiBDb21wLiBFbmcuIENvbXAuIFNj
aS4xETAPBgNVBAMMCGNsaWVudDc4MSgwJgYJKoZIhvcNAQkBFhlmcmFuY29AZ2F1
c3MuZWNlY3MudWMuZWR1MIIBIjANBgkqhkiG9w0BAQEFAAOCAQ8AMIIBCgKCAQEA
tA4Ep2o/MHS743ntJxfrxObSpfmC9JPP/C0ZZSNNai+j72DZZ9IvVmQofqWYolZU
1XB22yXP2ieozFD8wLOnt25huiAAdzkgEWYhajHz/AC/R3qbWyYBaBn13z6PTSpY
ylq/i9U4UkcT90l8onUDHG/974olTlC/S7y0bTN+zQj1CVcA92jBENhzecdwL5kP
N2W5iPeuJ3tn3DhEc9LW+0R/xKXFa35plnpihdbx++TZeuDnY1q8yeTOPJErGatI
HVk2yv06Kq+RHnE1FOEVL/8f/jGct1a2qn3wUIRTNBkRBzccDZwX1g/GyPF9Blrf
4VoLmbFGoycnL+horSZj2wIDAQABo4IBNzCCATMwCQYDVR0TBAIwADAdBgNVHQ4E
FgQUJV1+qFx5DHQrazGiCZhJT1w2EigwgeQGA1UdIwSB3DCB2YAUc96gQw+usZ7o
WWkYUKEaH9Sh4/ChgbWkgbIwga8xCzAJBgNVBAYTAlVTMRMwEQYDVQQIDApDYWxp
Zm9ybmlhMRYwFAYDVQQHDA1TYW4gRnJhbmNpc2NvMSAwHgYDVQQKDBdDb3B5bGVm
dCBDZXJ0aWZpY2F0ZSBDbzEfMB0GA1UECwwWTXkgT3JnYW5pemF0aW9uYWwgVW5p
dDERMA8GA1UEAwwIQ2hhbmdlTWUxHTAbBgkqhkiG9w0BCQEWDm1lQGV4YW1wbGUu
bmV0ggkA6bvLFsUyvjswEwYDVR0lBAwwCgYIKwYBBQUHAwIwCwYDVR0PBAQDAgeA
MA0GCSqGSIb3DQEBCwUAA4IBAQC7Pv0rNkMZpO+gQY76X8QugG7V3oDwvjg7F+Y3
1eCpkTufQWO8OgxG4NepnGjLw/7p/JatuTg6eFDrUvL0hPdF5xqzgq/JXlqToFS3
SYr8VsXekgMG+Qw5YSAyIUv/fhR1w25sbLGwIf+PI+99QGYsEqx0L5jaisb5zrGT
W8UDnY1DF9lT+7a0iP+Lc74PgnPyrycIv1/0dD4xx5L1IGgPZJIIM2kjY5cfZcMZ
DEyWAulde63bNwN43gyle/znMvQhIJE9K0NugIC0HuIrvCcX9weEVGNju26hBh5N
5xoRwl7CiAS4AGuvQSdCGb7wk5Trjo/wxt4O7Ao42c063TKb
-----END CERTIFICATE-----
