Certificate:
    Data:
        Version: 3 (0x2)
        Serial Number:
            cc:4f:f5:6a:e8:84:91:5c:1d:1a:13:e5:de:08:a7:06
    Signature Algorithm: sha256WithRSAEncryption
        Issuer: C=US, ST=California, L=San Francisco, O=Copyleft Certificate Co, OU=My Organizational Unit, CN=ChangeMe/emailAddress=me@example.net
        Validity
            Not Before: Nov 13 11:48:18 2023 GMT
            Not After : Nov 12 11:48:18 2024 GMT
        Subject: C=US, ST=OH, L=Cincinnati, O=University of Cincinnati, OU=Dept. Elec. Comp. Eng. Comp. Sci., CN=client28/emailAddress=franco@gauss.ececs.uc.edu
        Subject Public Key Info:
            Public Key Algorithm: rsaEncryption
                Public-Key: (2048 bit)
                Modulus:
                    00:c3:4a:a3:76:bd:4a:82:82:8c:27:dc:98:ac:74:
                    06:ae:ab:69:21:00:b7:6d:89:a0:72:b1:27:0f:e6:
                    4b:7c:b1:81:2f:28:89:58:7a:99:ea:2a:4d:d4:95:
                    31:11:b1:2d:94:a6:d3:69:9a:67:df:af:3e:bf:7a:
                    a8:b0:71:61:5e:88:08:85:2f:ae:75:3f:e8:4e:74:
                    c6:15:28:82:cd:57:5d:11:2e:0c:9b:45:d8:b1:07:
                    72:7a:5c:1d:5d:db:55:9f:07:19:84:52:ee:e3:cd:
                    b6:7b:7f:d2:a1:53:c0:2d:85:2f:b4:e9:cb:17:02:
                    1e:94:b3:8b:c4:b1:89:3c:20:30:2e:1f:52:de:c0:
                    bb:05:12:08:a8:3b:99:98:46:63:9d:8a:8b:60:e8:
                    09:3b:7c:cb:68:e2:49:ab:10:b8:2f:9c:05:a3:9f:
                    8a:48:0d:19:11:3a:96:6e:a9:17:62:bd:30:8b:be:
                    3c:3d:11:9d:9f:21:f3:3e:d3:f1:98:d7:fb:59:90:
                    91:55:b0:65:1a:1f:90:14:e9:4e:07:d7:d6:a0:39:
                    ad:1a:f7:99:04:a7:47:ae:1d:87:be:40:2e:92:16:
                    10:3a:7d:f3:fe:1a:c2:37:0b:54:5f:38:2f:d8:90:
                    11:5f:4e:48:66:c4:fa:53:08:5a:0e:53:ba:b0:13:
                    d2:25
                Exponent: 65537 (0x10001)
        X509v3 extensions:
            X509v3 Basic Constraints: 
                CA:FALSE
            X509v3 Subject Key Identifier: 
                47:E9:BF:EE:8D:62:A5:07:AD:49:39:64:E5:1F:13:E8:3A:D2:DC:13
            X509v3 Authority Key Identifier: 
                keyid:B4:AE:AB:ED:FC:ED:84:AA:AD:77:5D:7C:84:28:1C:CA:CE:AE:2A:44
                DirName:/C=US/ST=California/L=San Francisco/O=Copyleft Certificate Co/OU=My Organizational Unit/CN=ChangeMe/emailAddress=me@example.net
                serial:BD:6C:3B:F4:D3:07:C9:D1

            X509v3 Extended Key Usage: 
                TLS Web Client Authentication
            X509v3 Key Usage: 
                Digital Signature
    Signature Algorithm: sha256WithRSAEncryption
         a8:ab:ae:69:11:4b:fb:a7:8e:08:bb:5d:b7:5f:bc:b9:fc:20:
         55:95:9c:2d:14:49:28:e9:cd:65:3e:61:69:86:d6:a7:b0:a2:
         ca:35:cc:53:ad:f0:c3:88:26:7b:e0:42:53:12:57:cb:52:57:
         93:ee:f7:30:5d:49:9b:b9:55:6e:48:a7:c4:7c:f5:0c:90:31:
         79:17:8e:29:80:e0:aa:fb:45:73:de:27:a4:62:0c:84:08:61:
         5b:93:13:f7:bf:5d:05:3c:0b:43:d7:a3:06:47:7a:0c:8b:99:
         e8:b2:9c:29:c1:af:02:ee:b2:df:38:30:3c:2f:7a:1d:20:ba:
         4b:8b:aa:11:cb:6d:57:e7:63:a1:4f:d3:ab:27:e3:d8:23:07:
         ac:f9:e8:85:57:ab:fb:8c:e7:84:e6:d7:e6:73:d1:81:94:e5:
         05:a0:8f:4f:c5:fb:eb:d4:11:0a:6a:a8:02:0a:58:55:68:9d:
         58:14:11:7e:1c:e2:da:36:e6:2a:38:c7:30:c5:78:25:3d:5c:
         35:a2:63:f1:23:38:63:c2:9b:2b:04:b3:c1:00:93:be:cf:93:
         1a:bc:65:87:71:89:c4:34:1f:7a:ce:86:f2:50:f4:39:25:78:
         24:29:93:0a:31:22:3e:85:8b:9b:aa:04:1e:d9:8d:3c:16:42:
         55:da:cb:15
-----BEGIN CERTIFICATE-----
MIIFMDCCBBigAwIBAgIRAMxP9WrohJFcHRoT5d4IpwYwDQYJKoZIhvcNAQELBQAw
ga8xCzAJBgNVBAYTAlVTMRMwEQYDVQQIDApDYWxpZm9ybmlhMRYwFAYDVQQHDA1T
YW4gRnJhbmNpc2NvMSAwHgYDVQQKDBdDb3B5bGVmdCBDZXJ0aWZpY2F0ZSBDbzEf
MB0GA1UECwwWTXkgT3JnYW5pemF0aW9uYWwgVW5pdDERMA8GA1UEAwwIQ2hhbmdl
TWUxHTAbBgkqhkiG9w0BCQEWDm1lQGV4YW1wbGUubmV0MB4XDTIzMTExMzExNDgx
OFoXDTI0MTExMjExNDgxOFowgbsxCzAJBgNVBAYTAlVTMQswCQYDVQQIDAJPSDET
MBEGA1UEBwwKQ2luY2lubmF0aTEhMB8GA1UECgwYVW5pdmVyc2l0eSBvZiBDaW5j
aW5uYXRpMSowKAYDVQQLDCFEZXB0LiBFbGVjLiBDb21wLiBFbmcuIENvbXAuIFNj
aS4xETAPBgNVBAMMCGNsaWVudDI4MSgwJgYJKoZIhvcNAQkBFhlmcmFuY29AZ2F1
c3MuZWNlY3MudWMuZWR1MIIBIjANBgkqhkiG9w0BAQEFAAOCAQ8AMIIBCgKCAQEA
w0qjdr1KgoKMJ9yYrHQGrqtpIQC3bYmgcrEnD+ZLfLGBLyiJWHqZ6ipN1JUxEbEt
lKbTaZpn368+v3qosHFhXogIhS+udT/oTnTGFSiCzVddES4Mm0XYsQdyelwdXdtV
nwcZhFLu4822e3/SoVPALYUvtOnLFwIelLOLxLGJPCAwLh9S3sC7BRIIqDuZmEZj
nYqLYOgJO3zLaOJJqxC4L5wFo5+KSA0ZETqWbqkXYr0wi748PRGdnyHzPtPxmNf7
WZCRVbBlGh+QFOlOB9fWoDmtGveZBKdHrh2HvkAukhYQOn3z/hrCNwtUXzgv2JAR
X05IZsT6UwhaDlO6sBPSJQIDAQABo4IBNzCCATMwCQYDVR0TBAIwADAdBgNVHQ4E
FgQUR+m/7o1ipQetSTlk5R8T6DrS3BMwgeQGA1UdIwSB3DCB2YAUtK6r7fzthKqt
d118hCgcys6uKkShgbWkgbIwga8xCzAJBgNVBAYTAlVTMRMwEQYDVQQIDApDYWxp
Zm9ybmlhMRYwFAYDVQQHDA1TYW4gRnJhbmNpc2NvMSAwHgYDVQQKDBdDb3B5bGVm
dCBDZXJ0aWZpY2F0ZSBDbzEfMB0GA1UECwwWTXkgT3JnYW5pemF0aW9uYWwgVW5p
dDERMA8GA1UEAwwIQ2hhbmdlTWUxHTAbBgkqhkiG9w0BCQEWDm1lQGV4YW1wbGUu
bmV0ggkAvWw79NMHydEwEwYDVR0lBAwwCgYIKwYBBQUHAwIwCwYDVR0PBAQDAgeA
MA0GCSqGSIb3DQEBCwUAA4IBAQCoq65pEUv7p44Iu123X7y5/CBVlZwtFEko6c1l
PmFphtansKLKNcxTrfDDiCZ74EJTElfLUleT7vcwXUmbuVVuSKfEfPUMkDF5F44p
gOCq+0Vz3iekYgyECGFbkxP3v10FPAtD16MGR3oMi5nospwpwa8C7rLfODA8L3od
ILpLi6oRy21X52OhT9OrJ+PYIwes+eiFV6v7jOeE5tfmc9GBlOUFoI9Pxfvr1BEK
aqgCClhVaJ1YFBF+HOLaNuYqOMcwxXglPVw1omPxIzhjwpsrBLPBAJO+z5MavGWH
cYnENB96zobyUPQ5JXgkKZMKMSI+hYubqgQe2Y08FkJV2ssV
-----END CERTIFICATE-----
