Certificate:
    Data:
        Version: 3 (0x2)
        Serial Number:
            a5:c2:1e:81:88:7e:d0:2d:c1:35:a6:73:bd:0b:51:30
    Signature Algorithm: sha256WithRSAEncryption
        Issuer: C=US, ST=California, L=San Francisco, O=Copyleft Certificate Co, OU=My Organizational Unit, CN=ChangeMe/emailAddress=me@example.net
        Validity
            Not Before: Nov 11 01:49:02 2023 GMT
            Not After : Nov 10 01:49:02 2024 GMT
        Subject: C=US, ST=OH, L=Cincinnati, O=University of Cincinnati, OU=Dept. Elec. Comp. Eng. Comp. Sci., CN=client140/emailAddress=franco@gauss.ececs.uc.edu
        Subject Public Key Info:
            Public Key Algorithm: rsaEncryption
                Public-Key: (2048 bit)
                Modulus:
                    00:cb:5b:16:be:92:dc:6e:b7:17:d0:c1:fd:37:d3:
                    ac:25:1f:e1:b9:01:48:d4:dd:16:01:74:5b:ef:2b:
                    41:41:ae:b7:19:00:9a:c3:b7:f9:71:59:37:f6:f7:
                    d9:cb:c6:77:a0:f6:b7:b5:f3:45:4b:08:ec:db:fc:
                    ee:8c:32:7b:f9:e9:1c:aa:1a:61:89:d0:d3:9a:2b:
                    c0:95:6d:73:cc:88:5b:be:4d:80:49:ed:64:af:c0:
                    81:85:5e:5e:52:2b:62:d2:d6:b9:ab:23:04:dd:9d:
                    c1:58:a5:ce:87:d0:bc:f7:b7:1b:43:b5:5f:a9:16:
                    8d:f6:d4:c7:40:84:c3:d2:45:fd:53:11:fa:44:e1:
                    2b:2d:15:5d:ad:ab:9c:49:b5:59:61:05:5b:c1:92:
                    0a:f0:72:b2:6b:71:b9:d5:b6:63:e5:05:10:9b:b2:
                    1d:07:66:3f:85:b6:70:de:29:72:b8:a1:2c:af:23:
                    e9:f1:00:b9:fa:96:0f:8b:e5:64:24:ca:2e:bd:86:
                    77:f0:d4:e1:34:8c:4a:18:ae:27:bb:24:35:5d:bf:
                    72:ec:56:6e:9a:74:ff:ad:7c:6c:27:fc:04:76:b9:
                    e0:34:71:5f:ec:00:41:21:8b:32:10:85:1a:fe:64:
                    d4:a5:02:78:9b:6d:e3:a1:d7:40:d9:3b:dd:a6:99:
                    9b:2b
                Exponent: 65537 (0x10001)
        X509v3 extensions:
            X509v3 Basic Constraints: 
                CA:FALSE
            X509v3 Subject Key Identifier: 
                4B:A2:CA:BF:9C:38:B8:20:9F:27:EB:0B:37:54:DA:14:CA:D7:68:3E
            X509v3 Authority Key Identifier: 
                keyid:73:DE:A0:43:0F:AE:B1:9E:E8:59:69:18:50:A1:1A:1F:D4:A1:E3:F0
                DirName:/C=US/ST=California/L=San Francisco/O=Copyleft Certificate Co/OU=My Organizational Unit/CN=ChangeMe/emailAddress=me@example.net
                serial:E9:BB:CB:16:C5:32:BE:3B

            X509v3 Extended Key Usage: 
                TLS Web Client Authentication
            X509v3 Key Usage: 
                Digital Signature
    Signature Algorithm: sha256WithRSAEncryption
         2c:c1:31:92:a8:ed:45:ef:18:d9:2e:30:da:3d:18:04:bd:6c:
         43:93:77:29:c3:fc:18:f0:69:43:29:ae:b9:b5:40:96:31:a9:
         b8:94:83:c6:4c:e2:30:3e:74:fd:7d:7d:ea:23:75:5a:e1:4a:
         f8:d2:ac:ee:ef:45:f2:f5:c5:29:25:dd:9c:04:00:3c:f1:1a:
         94:51:da:8a:83:fd:39:c3:34:24:cb:10:03:4f:03:65:41:6f:
         1f:16:ac:14:18:17:9f:96:fc:2d:33:78:6a:d8:00:e6:af:9f:
         a2:1b:8e:d9:d1:c8:d6:65:09:bd:9f:f1:79:f9:32:dd:c7:f8:
         b9:e4:c8:20:b3:b8:15:7e:65:bd:2f:13:21:97:43:f2:78:8b:
         4d:ab:24:d3:f9:7d:32:59:f6:4a:b5:74:5d:ad:2c:9e:f1:61:
         6f:79:05:0e:5f:e0:53:00:6c:88:0f:53:05:ef:0d:ec:4f:7e:
         e1:43:48:32:e5:93:da:b9:92:08:ed:da:5f:59:74:1b:c5:0c:
         8b:f0:1f:76:62:22:b3:a7:e2:51:e0:42:d7:af:9b:3e:f7:f3:
         8e:d1:0a:ec:d2:6c:c8:9f:5d:d9:70:e3:2f:89:93:0a:21:79:
         e0:89:34:5a:30:3e:2a:21:55:c5:b6:aa:f1:2e:72:7b:c9:3f:
         32:ae:a4:6f
-----BEGIN CERTIFICATE-----
MIIFMTCCBBmgAwIBAgIRAKXCHoGIftAtwTWmc70LUTAwDQYJKoZIhvcNAQELBQAw
ga8xCzAJBgNVBAYTAlVTMRMwEQYDVQQIDApDYWxpZm9ybmlhMRYwFAYDVQQHDA1T
YW4gRnJhbmNpc2NvMSAwHgYDVQQKDBdDb3B5bGVmdCBDZXJ0aWZpY2F0ZSBDbzEf
MB0GA1UECwwWTXkgT3JnYW5pemF0aW9uYWwgVW5pdDERMA8GA1UEAwwIQ2hhbmdl
TWUxHTAbBgkqhkiG9w0BCQEWDm1lQGV4YW1wbGUubmV0MB4XDTIzMTExMTAxNDkw
MloXDTI0MTExMDAxNDkwMlowgbwxCzAJBgNVBAYTAlVTMQswCQYDVQQIDAJPSDET
MBEGA1UEBwwKQ2luY2lubmF0aTEhMB8GA1UECgwYVW5pdmVyc2l0eSBvZiBDaW5j
aW5uYXRpMSowKAYDVQQLDCFEZXB0LiBFbGVjLiBDb21wLiBFbmcuIENvbXAuIFNj
aS4xEjAQBgNVBAMMCWNsaWVudDE0MDEoMCYGCSqGSIb3DQEJARYZZnJhbmNvQGdh
dXNzLmVjZWNzLnVjLmVkdTCCASIwDQYJKoZIhvcNAQEBBQADggEPADCCAQoCggEB
AMtbFr6S3G63F9DB/TfTrCUf4bkBSNTdFgF0W+8rQUGutxkAmsO3+XFZN/b32cvG
d6D2t7XzRUsI7Nv87owye/npHKoaYYnQ05orwJVtc8yIW75NgEntZK/AgYVeXlIr
YtLWuasjBN2dwVilzofQvPe3G0O1X6kWjfbUx0CEw9JF/VMR+kThKy0VXa2rnEm1
WWEFW8GSCvBysmtxudW2Y+UFEJuyHQdmP4W2cN4pcrihLK8j6fEAufqWD4vlZCTK
Lr2Gd/DU4TSMShiuJ7skNV2/cuxWbpp0/618bCf8BHa54DRxX+wAQSGLMhCFGv5k
1KUCeJtt46HXQNk73aaZmysCAwEAAaOCATcwggEzMAkGA1UdEwQCMAAwHQYDVR0O
BBYEFEuiyr+cOLggnyfrCzdU2hTK12g+MIHkBgNVHSMEgdwwgdmAFHPeoEMPrrGe
6FlpGFChGh/UoePwoYG1pIGyMIGvMQswCQYDVQQGEwJVUzETMBEGA1UECAwKQ2Fs
aWZvcm5pYTEWMBQGA1UEBwwNU2FuIEZyYW5jaXNjbzEgMB4GA1UECgwXQ29weWxl
ZnQgQ2VydGlmaWNhdGUgQ28xHzAdBgNVBAsMFk15IE9yZ2FuaXphdGlvbmFsIFVu
aXQxETAPBgNVBAMMCENoYW5nZU1lMR0wGwYJKoZIhvcNAQkBFg5tZUBleGFtcGxl
Lm5ldIIJAOm7yxbFMr47MBMGA1UdJQQMMAoGCCsGAQUFBwMCMAsGA1UdDwQEAwIH
gDANBgkqhkiG9w0BAQsFAAOCAQEALMExkqjtRe8Y2S4w2j0YBL1sQ5N3KcP8GPBp
QymuubVAljGpuJSDxkziMD50/X196iN1WuFK+NKs7u9F8vXFKSXdnAQAPPEalFHa
ioP9OcM0JMsQA08DZUFvHxasFBgXn5b8LTN4atgA5q+fohuO2dHI1mUJvZ/xefky
3cf4ueTIILO4FX5lvS8TIZdD8niLTask0/l9Mln2SrV0Xa0snvFhb3kFDl/gUwBs
iA9TBe8N7E9+4UNIMuWT2rmSCO3aX1l0G8UMi/AfdmIis6fiUeBC16+bPvfzjtEK
7NJsyJ9d2XDjL4mTCiF54Ik0WjA+KiFVxbaq8S5ye8k/Mq6kbw==
-----END CERTIFICATE-----
