Certificate:
    Data:
        Version: 3 (0x2)
        Serial Number:
            bb:5a:26:c4:f0:a7:a2:c6:19:b0:7c:7c:5b:7f:68:62
    Signature Algorithm: sha256WithRSAEncryption
        Issuer: C=US, ST=California, L=San Francisco, O=Copyleft Certificate Co, OU=My Organizational Unit, CN=ChangeMe/emailAddress=me@example.net
        Validity
            Not Before: Nov 11 02:01:07 2023 GMT
            Not After : Nov 10 02:01:07 2024 GMT
        Subject: C=US, ST=OH, L=Cincinnati, O=University of Cincinnati, OU=Dept. Elec. Comp. Eng. Comp. Sci., CN=client46/emailAddress=franco@gauss.ececs.uc.edu
        Subject Public Key Info:
            Public Key Algorithm: rsaEncryption
                Public-Key: (2048 bit)
                Modulus:
                    00:e2:93:ad:79:be:09:1f:f2:72:20:78:03:24:ee:
                    ee:95:d4:5e:a5:a6:b2:14:9a:84:d5:76:08:91:20:
                    d8:5f:3f:c1:c0:10:70:1e:6e:40:a4:31:73:19:4b:
                    99:2f:09:2f:66:22:4b:bf:f5:47:69:7c:b2:18:5c:
                    6f:8c:a3:60:a8:fd:11:56:a9:7d:fa:8f:22:1e:df:
                    87:55:c2:ba:5d:33:59:af:48:b9:e9:f3:44:80:e6:
                    e9:13:95:ce:88:97:e0:51:ca:e4:7c:b9:b7:25:ec:
                    3f:67:d2:85:06:76:59:35:c8:56:ab:9f:57:20:9a:
                    38:59:ea:c4:fc:1e:ec:a6:f0:46:4b:fd:20:d9:e6:
                    9c:0d:a1:49:ab:1e:6b:a9:fd:b2:14:95:15:48:5e:
                    8d:06:b8:1b:6b:73:3a:b5:69:94:51:7f:39:ab:76:
                    0c:7a:8f:39:b6:6a:2f:b0:c8:79:1a:2d:20:7f:c0:
                    41:9f:0a:1e:72:3d:36:68:03:40:6e:87:c4:8b:1c:
                    88:91:55:4a:68:c2:f7:d8:8d:8d:84:ae:7a:9b:3d:
                    f9:b9:fe:e4:23:12:2c:06:19:d7:27:70:ed:61:32:
                    5c:7f:87:07:e8:90:e4:11:17:ff:b9:b9:91:b0:8f:
                    fc:3e:f8:90:b1:f5:a5:94:d2:b1:52:a8:64:d9:a7:
                    45:6d
                Exponent: 65537 (0x10001)
        X509v3 extensions:
            X509v3 Basic Constraints: 
                CA:FALSE
            X509v3 Subject Key Identifier: 
                E1:1F:00:0E:E6:EA:00:93:1D:64:CC:F0:91:1E:91:30:FF:24:FC:FC
            X509v3 Authority Key Identifier: 
                keyid:7B:0F:93:16:64:9F:71:41:D3:1B:FB:ED:6A:70:9B:CA:2E:70:F0:4B
                DirName:/C=US/ST=California/L=San Francisco/O=Copyleft Certificate Co/OU=My Organizational Unit/CN=ChangeMe/emailAddress=me@example.net
                serial:B9:F2:4E:2C:79:B3:D4:6C

            X509v3 Extended Key Usage: 
                TLS Web Client Authentication
            X509v3 Key Usage: 
                Digital Signature
    Signature Algorithm: sha256WithRSAEncryption
         93:28:16:8f:c2:57:21:91:52:66:24:7d:15:75:39:b3:1d:78:
         f0:08:89:89:63:c2:85:09:99:4c:42:8f:b6:ad:9b:f4:dc:42:
         33:ad:55:af:67:c5:b6:8c:a8:01:d2:75:77:f7:42:67:23:1d:
         ee:ed:d7:7c:4f:a6:62:1d:81:a0:cc:09:6d:ab:dd:e9:6b:67:
         bf:7f:69:27:ae:65:a1:d3:d8:33:9c:09:6b:4f:1b:da:62:d1:
         11:9d:41:80:85:25:32:83:a9:8a:71:49:06:67:fe:b1:cb:bb:
         a8:01:18:2b:ea:a4:0e:f8:48:6b:1b:b5:bf:0f:cb:58:e8:ea:
         1e:99:35:48:0b:9a:f8:ee:ba:9f:db:32:3f:8c:d4:e6:43:bd:
         eb:45:7e:f1:af:24:17:1f:fd:07:9c:b1:09:72:4e:68:1b:fa:
         18:c1:96:6f:66:6c:28:e5:73:ac:37:d5:80:c6:6d:13:2e:d8:
         56:a7:30:45:73:16:60:37:fe:bf:be:cf:d8:26:50:17:62:56:
         67:e5:f8:56:eb:ee:6c:59:63:53:4a:2c:06:40:eb:ba:f4:f5:
         10:d6:0e:bc:06:67:48:c0:95:4c:3a:8a:31:3f:1a:d7:e3:3d:
         84:27:bf:0f:cc:e2:9d:2f:76:24:fd:b7:de:87:30:01:c6:86:
         3b:b9:aa:8b
-----BEGIN CERTIFICATE-----
MIIFMDCCBBigAwIBAgIRALtaJsTwp6LGGbB8fFt/aGIwDQYJKoZIhvcNAQELBQAw
ga8xCzAJBgNVBAYTAlVTMRMwEQYDVQQIDApDYWxpZm9ybmlhMRYwFAYDVQQHDA1T
YW4gRnJhbmNpc2NvMSAwHgYDVQQKDBdDb3B5bGVmdCBDZXJ0aWZpY2F0ZSBDbzEf
MB0GA1UECwwWTXkgT3JnYW5pemF0aW9uYWwgVW5pdDERMA8GA1UEAwwIQ2hhbmdl
TWUxHTAbBgkqhkiG9w0BCQEWDm1lQGV4YW1wbGUubmV0MB4XDTIzMTExMTAyMDEw
N1oXDTI0MTExMDAyMDEwN1owgbsxCzAJBgNVBAYTAlVTMQswCQYDVQQIDAJPSDET
MBEGA1UEBwwKQ2luY2lubmF0aTEhMB8GA1UECgwYVW5pdmVyc2l0eSBvZiBDaW5j
aW5uYXRpMSowKAYDVQQLDCFEZXB0LiBFbGVjLiBDb21wLiBFbmcuIENvbXAuIFNj
aS4xETAPBgNVBAMMCGNsaWVudDQ2MSgwJgYJKoZIhvcNAQkBFhlmcmFuY29AZ2F1
c3MuZWNlY3MudWMuZWR1MIIBIjANBgkqhkiG9w0BAQEFAAOCAQ8AMIIBCgKCAQEA
4pOteb4JH/JyIHgDJO7uldRepaayFJqE1XYIkSDYXz/BwBBwHm5ApDFzGUuZLwkv
ZiJLv/VHaXyyGFxvjKNgqP0RVql9+o8iHt+HVcK6XTNZr0i56fNEgObpE5XOiJfg
UcrkfLm3Jew/Z9KFBnZZNchWq59XIJo4WerE/B7spvBGS/0g2eacDaFJqx5rqf2y
FJUVSF6NBrgba3M6tWmUUX85q3YMeo85tmovsMh5Gi0gf8BBnwoecj02aANAbofE
ixyIkVVKaML32I2NhK56mz35uf7kIxIsBhnXJ3DtYTJcf4cH6JDkERf/ubmRsI/8
PviQsfWllNKxUqhk2adFbQIDAQABo4IBNzCCATMwCQYDVR0TBAIwADAdBgNVHQ4E
FgQU4R8ADubqAJMdZMzwkR6RMP8k/PwwgeQGA1UdIwSB3DCB2YAUew+TFmSfcUHT
G/vtanCbyi5w8EuhgbWkgbIwga8xCzAJBgNVBAYTAlVTMRMwEQYDVQQIDApDYWxp
Zm9ybmlhMRYwFAYDVQQHDA1TYW4gRnJhbmNpc2NvMSAwHgYDVQQKDBdDb3B5bGVm
dCBDZXJ0aWZpY2F0ZSBDbzEfMB0GA1UECwwWTXkgT3JnYW5pemF0aW9uYWwgVW5p
dDERMA8GA1UEAwwIQ2hhbmdlTWUxHTAbBgkqhkiG9w0BCQEWDm1lQGV4YW1wbGUu
bmV0ggkAufJOLHmz1GwwEwYDVR0lBAwwCgYIKwYBBQUHAwIwCwYDVR0PBAQDAgeA
MA0GCSqGSIb3DQEBCwUAA4IBAQCTKBaPwlchkVJmJH0VdTmzHXjwCImJY8KFCZlM
Qo+2rZv03EIzrVWvZ8W2jKgB0nV390JnIx3u7dd8T6ZiHYGgzAltq93pa2e/f2kn
rmWh09gznAlrTxvaYtERnUGAhSUyg6mKcUkGZ/6xy7uoARgr6qQO+EhrG7W/D8tY
6OoemTVIC5r47rqf2zI/jNTmQ73rRX7xryQXH/0HnLEJck5oG/oYwZZvZmwo5XOs
N9WAxm0TLthWpzBFcxZgN/6/vs/YJlAXYlZn5fhW6+5sWWNTSiwGQOu69PUQ1g68
BmdIwJVMOooxPxrX4z2EJ78PzOKdL3Yk/bfehzABxoY7uaqL
-----END CERTIFICATE-----
