Certificate:
    Data:
        Version: 3 (0x2)
        Serial Number:
            d2:c7:d4:36:62:ab:87:ce:22:9b:bf:e3:6b:ff:16:93
    Signature Algorithm: sha256WithRSAEncryption
        Issuer: C=US, ST=California, L=San Francisco, O=Copyleft Certificate Co, OU=My Organizational Unit, CN=ChangeMe/emailAddress=me@example.net
        Validity
            Not Before: Nov 11 01:47:26 2023 GMT
            Not After : Nov 10 01:47:26 2024 GMT
        Subject: C=US, ST=OH, L=Cincinnati, O=University of Cincinnati, OU=Dept. Elec. Comp. Eng. Comp. Sci., CN=client116/emailAddress=franco@gauss.ececs.uc.edu
        Subject Public Key Info:
            Public Key Algorithm: rsaEncryption
                Public-Key: (2048 bit)
                Modulus:
                    00:b6:27:a7:90:d6:dc:2e:ae:67:d5:64:c9:f5:01:
                    19:b9:dc:2d:24:f4:f6:66:76:30:58:95:55:0c:58:
                    99:9e:68:4a:b1:c3:b2:7b:9f:6e:a9:46:fd:fa:e5:
                    fe:88:89:e7:b6:69:e1:13:94:bb:40:a2:cf:e8:6b:
                    77:82:f4:e3:ae:ee:e4:1d:5b:10:81:12:3e:04:61:
                    af:22:40:5e:d0:7f:78:53:b7:67:ce:0b:c6:ff:94:
                    26:01:db:51:25:c6:bb:27:be:d6:fd:97:80:43:36:
                    3e:79:84:dd:67:40:b4:98:37:63:41:62:80:ef:14:
                    c7:b4:68:e2:36:ce:fb:42:a5:9b:ab:f5:af:6f:c4:
                    cd:95:73:c8:0f:0e:4d:ed:82:96:13:01:26:89:8b:
                    61:23:c3:d3:7f:31:29:bb:db:f2:1b:b5:fb:be:1c:
                    96:a6:f7:55:c0:07:47:10:e8:b3:d3:67:54:b6:6f:
                    57:40:19:53:8e:a7:40:1c:82:3d:3c:eb:9a:c4:eb:
                    6f:0a:dc:ba:aa:49:40:c0:b5:22:7e:dc:f1:d0:1d:
                    95:d5:fc:0e:13:3a:80:ef:f2:51:fd:65:78:f9:16:
                    48:6e:1d:a6:92:66:a9:60:3e:86:28:2d:65:27:d2:
                    9d:f1:a9:c3:18:47:e1:ee:de:17:c0:93:1a:76:42:
                    a1:b5
                Exponent: 65537 (0x10001)
        X509v3 extensions:
            X509v3 Basic Constraints: 
                CA:FALSE
            X509v3 Subject Key Identifier: 
                1F:4E:16:AD:66:45:A2:F5:38:57:FB:B8:B7:FF:E5:D1:85:DF:B8:27
            X509v3 Authority Key Identifier: 
                keyid:73:DE:A0:43:0F:AE:B1:9E:E8:59:69:18:50:A1:1A:1F:D4:A1:E3:F0
                DirName:/C=US/ST=California/L=San Francisco/O=Copyleft Certificate Co/OU=My Organizational Unit/CN=ChangeMe/emailAddress=me@example.net
                serial:E9:BB:CB:16:C5:32:BE:3B

            X509v3 Extended Key Usage: 
                TLS Web Client Authentication
            X509v3 Key Usage: 
                Digital Signature
    Signature Algorithm: sha256WithRSAEncryption
         c4:c4:1d:d7:5f:6f:8a:60:1b:ca:6e:03:12:5c:40:f5:6f:eb:
         87:53:12:1b:c1:cd:50:bf:03:7b:76:91:da:36:71:4d:7b:37:
         b4:59:72:87:57:b1:54:41:b0:e7:74:79:75:31:a9:b0:f7:64:
         18:57:b6:8e:cb:f5:cb:e7:5b:56:e2:d6:4f:18:ec:47:18:50:
         c1:88:5c:54:e6:b8:62:f7:df:bf:90:db:4c:20:ba:b6:14:e2:
         e8:10:85:a9:d4:a1:8c:1f:2d:2e:68:f7:5b:6d:f7:b6:c8:82:
         3c:dc:f7:49:31:f9:e0:61:06:44:d0:92:46:4c:1e:96:70:0c:
         83:d5:aa:f7:ef:17:96:4b:ba:30:b3:ba:f9:d7:5f:81:5f:bd:
         5f:db:7b:7f:1e:0f:e7:22:48:d5:92:24:93:6c:7d:f6:36:76:
         b0:f5:7f:3c:61:41:6c:31:42:8d:ab:ed:c8:54:bd:1a:c5:01:
         b8:94:c8:00:98:eb:0a:2e:ae:3d:4a:dd:89:d1:0b:e6:92:ac:
         29:50:6a:42:96:3c:ea:64:ec:16:24:96:84:3f:54:6e:f7:a5:
         b2:f5:22:9b:e6:db:9f:60:8d:c9:58:e1:d8:56:51:62:a9:71:
         a9:9d:d5:cf:4c:00:5c:28:33:e3:03:c2:b5:b2:a9:3c:e5:89:
         6a:5f:45:e8
-----BEGIN CERTIFICATE-----
MIIFMTCCBBmgAwIBAgIRANLH1DZiq4fOIpu/42v/FpMwDQYJKoZIhvcNAQELBQAw
ga8xCzAJBgNVBAYTAlVTMRMwEQYDVQQIDApDYWxpZm9ybmlhMRYwFAYDVQQHDA1T
YW4gRnJhbmNpc2NvMSAwHgYDVQQKDBdDb3B5bGVmdCBDZXJ0aWZpY2F0ZSBDbzEf
MB0GA1UECwwWTXkgT3JnYW5pemF0aW9uYWwgVW5pdDERMA8GA1UEAwwIQ2hhbmdl
TWUxHTAbBgkqhkiG9w0BCQEWDm1lQGV4YW1wbGUubmV0MB4XDTIzMTExMTAxNDcy
NloXDTI0MTExMDAxNDcyNlowgbwxCzAJBgNVBAYTAlVTMQswCQYDVQQIDAJPSDET
MBEGA1UEBwwKQ2luY2lubmF0aTEhMB8GA1UECgwYVW5pdmVyc2l0eSBvZiBDaW5j
aW5uYXRpMSowKAYDVQQLDCFEZXB0LiBFbGVjLiBDb21wLiBFbmcuIENvbXAuIFNj
aS4xEjAQBgNVBAMMCWNsaWVudDExNjEoMCYGCSqGSIb3DQEJARYZZnJhbmNvQGdh
dXNzLmVjZWNzLnVjLmVkdTCCASIwDQYJKoZIhvcNAQEBBQADggEPADCCAQoCggEB
ALYnp5DW3C6uZ9VkyfUBGbncLST09mZ2MFiVVQxYmZ5oSrHDsnufbqlG/frl/oiJ
57Zp4ROUu0Ciz+hrd4L0467u5B1bEIESPgRhryJAXtB/eFO3Z84Lxv+UJgHbUSXG
uye+1v2XgEM2PnmE3WdAtJg3Y0FigO8Ux7Ro4jbO+0Klm6v1r2/EzZVzyA8OTe2C
lhMBJomLYSPD038xKbvb8hu1+74clqb3VcAHRxDos9NnVLZvV0AZU46nQByCPTzr
msTrbwrcuqpJQMC1In7c8dAdldX8DhM6gO/yUf1lePkWSG4dppJmqWA+higtZSfS
nfGpwxhH4e7eF8CTGnZCobUCAwEAAaOCATcwggEzMAkGA1UdEwQCMAAwHQYDVR0O
BBYEFB9OFq1mRaL1OFf7uLf/5dGF37gnMIHkBgNVHSMEgdwwgdmAFHPeoEMPrrGe
6FlpGFChGh/UoePwoYG1pIGyMIGvMQswCQYDVQQGEwJVUzETMBEGA1UECAwKQ2Fs
aWZvcm5pYTEWMBQGA1UEBwwNU2FuIEZyYW5jaXNjbzEgMB4GA1UECgwXQ29weWxl
ZnQgQ2VydGlmaWNhdGUgQ28xHzAdBgNVBAsMFk15IE9yZ2FuaXphdGlvbmFsIFVu
aXQxETAPBgNVBAMMCENoYW5nZU1lMR0wGwYJKoZIhvcNAQkBFg5tZUBleGFtcGxl
Lm5ldIIJAOm7yxbFMr47MBMGA1UdJQQMMAoGCCsGAQUFBwMCMAsGA1UdDwQEAwIH
gDANBgkqhkiG9w0BAQsFAAOCAQEAxMQd119vimAbym4DElxA9W/rh1MSG8HNUL8D
e3aR2jZxTXs3tFlyh1exVEGw53R5dTGpsPdkGFe2jsv1y+dbVuLWTxjsRxhQwYhc
VOa4Yvffv5DbTCC6thTi6BCFqdShjB8tLmj3W233tsiCPNz3STH54GEGRNCSRkwe
lnAMg9Wq9+8Xlku6MLO6+ddfgV+9X9t7fx4P5yJI1ZIkk2x99jZ2sPV/PGFBbDFC
javtyFS9GsUBuJTIAJjrCi6uPUrdidEL5pKsKVBqQpY86mTsFiSWhD9UbvelsvUi
m+bbn2CNyVjh2FZRYqlxqZ3Vz0wAXCgz4wPCtbKpPOWJal9F6A==
-----END CERTIFICATE-----
