Certificate:
    Data:
        Version: 3 (0x2)
        Serial Number:
            6c:37:a6:67:e4:64:77:a1:48:00:65:25:20:5c:60:36
    Signature Algorithm: sha256WithRSAEncryption
        Issuer: C=US, ST=California, L=San Francisco, O=Copyleft Certificate Co, OU=My Organizational Unit, CN=ChangeMe/emailAddress=me@example.net
        Validity
            Not Before: Nov 10 17:47:14 2023 GMT
            Not After : Nov  9 17:47:14 2024 GMT
        Subject: C=US, ST=OH, L=Cincinnati, O=University of Cincinnati, OU=Dept_Elec_Com_ Eng_Com_Sci., CN=client132/emailAddress=franco@gauss.ececs.uc.edu
        Subject Public Key Info:
            Public Key Algorithm: rsaEncryption
                Public-Key: (2048 bit)
                Modulus:
                    00:c4:55:22:48:e5:42:26:35:44:ca:96:cf:65:f9:
                    d9:34:56:77:69:56:8a:6d:b1:a9:f0:25:8d:96:12:
                    1f:d3:61:62:e8:55:28:da:5f:15:8f:66:b2:1c:29:
                    30:43:ce:99:c5:8f:ae:27:ec:8f:b3:de:6f:49:78:
                    aa:79:bf:21:81:ef:0b:8d:13:3b:84:36:82:36:62:
                    11:42:60:4e:b1:07:2d:31:51:ef:cb:c0:a9:bf:1e:
                    1a:88:30:e4:eb:11:e0:8b:96:9e:46:2e:06:97:cb:
                    8c:83:48:e3:55:91:17:ba:c4:a6:f6:5b:c6:60:ef:
                    63:60:7a:36:ed:f3:fb:cf:fb:93:8b:36:ff:a1:a2:
                    6c:86:6a:ef:df:08:c1:e2:00:26:2e:a5:84:3e:c8:
                    25:20:1e:69:93:44:12:23:10:fd:70:2f:a5:5d:a8:
                    2b:73:06:c2:71:c5:c3:5c:bd:e3:bc:59:8b:7e:cb:
                    50:ae:b6:8b:4e:85:08:f1:db:c1:51:8a:2f:35:f2:
                    78:59:c8:4c:2a:7a:1a:66:a5:4b:cd:c1:83:c5:ef:
                    d1:4b:5d:0b:1c:e3:21:03:ee:7d:f1:46:70:d4:a8:
                    db:5a:88:34:82:f0:40:53:d5:ec:6a:a3:9d:6e:e6:
                    b6:30:51:d5:4c:30:56:41:4e:cd:43:98:af:a4:24:
                    e1:69
                Exponent: 65537 (0x10001)
        X509v3 extensions:
            X509v3 Basic Constraints: 
                CA:FALSE
            X509v3 Subject Key Identifier: 
                7A:DF:84:B2:A7:D7:78:6A:F7:73:8F:D1:0A:88:29:8C:62:5B:EF:C1
            X509v3 Authority Key Identifier: 
                keyid:C8:27:DA:64:30:08:40:08:4A:25:CC:DC:43:99:DE:77:A1:FE:77:BD
                DirName:/C=US/ST=California/L=San Francisco/O=Copyleft Certificate Co/OU=My Organizational Unit/CN=ChangeMe/emailAddress=me@example.net
                serial:A9:48:C3:7E:FC:1B:B0:A1

            X509v3 Extended Key Usage: 
                TLS Web Client Authentication
            X509v3 Key Usage: 
                Digital Signature
    Signature Algorithm: sha256WithRSAEncryption
         b0:5e:ef:99:cf:3f:20:7e:de:79:18:24:f7:4a:17:13:37:41:
         d9:1f:ef:de:40:d0:c5:3c:ab:f5:94:4b:d9:37:9a:22:b9:ff:
         80:49:da:a8:a8:02:12:b9:15:0c:2a:50:ab:76:81:b7:81:0f:
         81:dd:d9:f9:15:ce:a8:1b:3a:a8:e2:6a:85:b0:b8:42:0a:7a:
         09:00:fa:c6:04:19:01:eb:e6:dc:1a:ac:97:f9:13:ab:c0:29:
         72:88:ef:c8:d7:6d:91:d4:2b:6b:66:a9:fc:9d:61:85:fb:fb:
         2b:40:98:03:73:2e:72:c9:af:f9:27:f9:54:da:43:97:97:f9:
         16:b6:9b:46:24:c6:a6:4e:be:cc:54:7c:b5:19:a1:87:e3:b7:
         87:d7:6e:64:8e:7f:04:9a:38:e0:d7:92:c0:06:84:cf:7c:47:
         83:a1:00:7c:6b:5e:b0:22:2f:35:e3:aa:e1:c1:13:c4:64:89:
         a8:60:24:e6:bb:2a:83:74:ab:94:4b:57:7d:1d:43:fc:2c:7b:
         b2:e6:2b:aa:9d:39:8f:64:ac:15:77:f5:7d:d5:6f:48:c1:ed:
         80:7d:a4:1a:8e:1f:1b:9d:fb:ab:a4:d9:ce:94:a1:20:54:aa:
         27:97:de:2c:91:18:b3:ad:69:9d:53:5c:f8:68:0d:26:16:7a:
         8a:2a:bb:c2
-----BEGIN CERTIFICATE-----
MIIFKjCCBBKgAwIBAgIQbDemZ+Rkd6FIAGUlIFxgNjANBgkqhkiG9w0BAQsFADCB
rzELMAkGA1UEBhMCVVMxEzARBgNVBAgMCkNhbGlmb3JuaWExFjAUBgNVBAcMDVNh
biBGcmFuY2lzY28xIDAeBgNVBAoMF0NvcHlsZWZ0IENlcnRpZmljYXRlIENvMR8w
HQYDVQQLDBZNeSBPcmdhbml6YXRpb25hbCBVbml0MREwDwYDVQQDDAhDaGFuZ2VN
ZTEdMBsGCSqGSIb3DQEJARYObWVAZXhhbXBsZS5uZXQwHhcNMjMxMTEwMTc0NzE0
WhcNMjQxMTA5MTc0NzE0WjCBtjELMAkGA1UEBhMCVVMxCzAJBgNVBAgMAk9IMRMw
EQYDVQQHDApDaW5jaW5uYXRpMSEwHwYDVQQKDBhVbml2ZXJzaXR5IG9mIENpbmNp
bm5hdGkxJDAiBgNVBAsMG0RlcHRfRWxlY19Db21fIEVuZ19Db21fU2NpLjESMBAG
A1UEAwwJY2xpZW50MTMyMSgwJgYJKoZIhvcNAQkBFhlmcmFuY29AZ2F1c3MuZWNl
Y3MudWMuZWR1MIIBIjANBgkqhkiG9w0BAQEFAAOCAQ8AMIIBCgKCAQEAxFUiSOVC
JjVEypbPZfnZNFZ3aVaKbbGp8CWNlhIf02Fi6FUo2l8Vj2ayHCkwQ86ZxY+uJ+yP
s95vSXiqeb8hge8LjRM7hDaCNmIRQmBOsQctMVHvy8Cpvx4aiDDk6xHgi5aeRi4G
l8uMg0jjVZEXusSm9lvGYO9jYHo27fP7z/uTizb/oaJshmrv3wjB4gAmLqWEPsgl
IB5pk0QSIxD9cC+lXagrcwbCccXDXL3jvFmLfstQrraLToUI8dvBUYovNfJ4WchM
KnoaZqVLzcGDxe/RS10LHOMhA+598UZw1KjbWog0gvBAU9XsaqOdbua2MFHVTDBW
QU7NQ5ivpCThaQIDAQABo4IBNzCCATMwCQYDVR0TBAIwADAdBgNVHQ4EFgQUet+E
sqfXeGr3c4/RCogpjGJb78EwgeQGA1UdIwSB3DCB2YAUyCfaZDAIQAhKJczcQ5ne
d6H+d72hgbWkgbIwga8xCzAJBgNVBAYTAlVTMRMwEQYDVQQIDApDYWxpZm9ybmlh
MRYwFAYDVQQHDA1TYW4gRnJhbmNpc2NvMSAwHgYDVQQKDBdDb3B5bGVmdCBDZXJ0
aWZpY2F0ZSBDbzEfMB0GA1UECwwWTXkgT3JnYW5pemF0aW9uYWwgVW5pdDERMA8G
A1UEAwwIQ2hhbmdlTWUxHTAbBgkqhkiG9w0BCQEWDm1lQGV4YW1wbGUubmV0ggkA
qUjDfvwbsKEwEwYDVR0lBAwwCgYIKwYBBQUHAwIwCwYDVR0PBAQDAgeAMA0GCSqG
SIb3DQEBCwUAA4IBAQCwXu+Zzz8gft55GCT3ShcTN0HZH+/eQNDFPKv1lEvZN5oi
uf+ASdqoqAISuRUMKlCrdoG3gQ+B3dn5Fc6oGzqo4mqFsLhCCnoJAPrGBBkB6+bc
GqyX+ROrwClyiO/I122R1CtrZqn8nWGF+/srQJgDcy5yya/5J/lU2kOXl/kWtptG
JMamTr7MVHy1GaGH47eH125kjn8Emjjg15LABoTPfEeDoQB8a16wIi8146rhwRPE
ZImoYCTmuyqDdKuUS1d9HUP8LHuy5iuqnTmPZKwVd/V91W9Iwe2AfaQajh8bnfur
pNnOlKEgVKonl94skRizrWmdU1z4aA0mFnqKKrvC
-----END CERTIFICATE-----
