Certificate:
    Data:
        Version: 3 (0x2)
        Serial Number:
            b2:17:7b:86:e2:4f:e9:ba:16:b2:d4:a4:2b:04:7c:de
    Signature Algorithm: sha256WithRSAEncryption
        Issuer: C=US, ST=California, L=San Francisco, O=Copyleft Certificate Co, OU=My Organizational Unit, CN=ChangeMe/emailAddress=me@example.net
        Validity
            Not Before: Nov 11 01:49:34 2023 GMT
            Not After : Nov 10 01:49:34 2024 GMT
        Subject: C=US, ST=OH, L=Cincinnati, O=University of Cincinnati, OU=Dept. Elec. Comp. Eng. Comp. Sci., CN=client148/emailAddress=franco@gauss.ececs.uc.edu
        Subject Public Key Info:
            Public Key Algorithm: rsaEncryption
                Public-Key: (2048 bit)
                Modulus:
                    00:c7:b5:f4:8f:8b:ca:ab:99:38:57:bc:a5:b9:05:
                    33:df:74:1f:e8:9d:05:6b:fd:08:1a:c7:69:0d:89:
                    ec:87:79:a1:a5:bd:71:01:e3:b0:34:f3:f7:8e:27:
                    e1:fe:9e:be:1b:92:66:32:01:52:ee:43:80:66:64:
                    b5:87:57:50:92:af:e5:fe:6b:f0:47:6a:9b:f2:ea:
                    4f:50:4c:1a:67:bc:d8:ab:fa:d1:0d:e8:04:83:d7:
                    89:ac:16:4a:5a:d8:54:41:f6:4e:b9:d0:87:73:60:
                    6d:b0:a5:27:ff:65:f0:3c:ea:18:f6:ef:56:ef:46:
                    12:76:7b:a7:08:1d:49:e8:20:87:47:c9:08:d5:53:
                    e5:7d:c0:cc:ac:a5:a5:4e:15:a5:0c:e2:4c:da:49:
                    29:69:41:50:10:1f:ed:ea:d0:65:13:04:19:2b:63:
                    16:cd:d7:4b:85:22:e0:31:2c:fc:00:02:c5:0d:bf:
                    fa:68:5f:b3:77:e9:fc:56:af:7f:2c:75:4a:65:be:
                    e2:68:1a:5c:e1:70:bc:2f:15:49:a5:34:58:c9:92:
                    b3:ab:8c:37:d0:8c:31:4b:89:a3:d6:26:99:59:b4:
                    2c:8d:d5:8f:e3:dc:da:43:d8:47:51:27:03:f2:be:
                    02:e7:36:31:bd:c9:7d:a4:85:6f:5c:09:13:24:ed:
                    d6:5d
                Exponent: 65537 (0x10001)
        X509v3 extensions:
            X509v3 Basic Constraints: 
                CA:FALSE
            X509v3 Subject Key Identifier: 
                2F:6F:2E:01:09:B5:AB:B8:1C:1F:B1:D2:73:AA:FF:79:10:A3:4D:FC
            X509v3 Authority Key Identifier: 
                keyid:73:DE:A0:43:0F:AE:B1:9E:E8:59:69:18:50:A1:1A:1F:D4:A1:E3:F0
                DirName:/C=US/ST=California/L=San Francisco/O=Copyleft Certificate Co/OU=My Organizational Unit/CN=ChangeMe/emailAddress=me@example.net
                serial:E9:BB:CB:16:C5:32:BE:3B

            X509v3 Extended Key Usage: 
                TLS Web Client Authentication
            X509v3 Key Usage: 
                Digital Signature
    Signature Algorithm: sha256WithRSAEncryption
         0d:fc:48:90:f5:de:16:f0:7d:75:a1:82:79:93:72:67:4e:31:
         85:f1:b0:85:ee:39:91:fb:02:e3:52:f6:8a:1b:d0:45:e7:98:
         1e:b4:b8:69:f0:45:32:61:d1:dd:cd:7c:53:b6:09:2e:b5:a8:
         91:a9:da:c7:66:e9:44:79:28:16:92:5a:32:83:20:ac:16:1c:
         3a:6b:be:dc:0f:7f:84:39:ac:a8:f4:e4:d1:6d:d0:a8:eb:5d:
         eb:63:50:ce:0e:93:72:91:be:f9:14:3c:66:2f:dd:aa:e4:8d:
         99:e3:e6:d2:5d:3b:52:4f:b1:7d:8d:5f:4a:40:ac:bb:44:ab:
         65:ab:44:e0:03:ea:3c:ef:99:f8:6c:df:ff:f1:b2:a5:71:d8:
         a1:8c:7a:eb:3d:4a:3f:84:7c:bc:56:70:b6:7e:29:9e:19:42:
         c6:d5:e9:be:d2:68:bb:d7:1f:b7:fb:66:81:07:95:7a:29:15:
         4a:7f:87:33:c1:fc:a4:9d:3d:41:d0:7c:9c:eb:61:b7:a8:ac:
         3f:88:1a:28:11:2c:0d:e3:0d:ba:a0:9b:86:67:48:b9:49:01:
         c1:60:eb:e0:35:c4:45:f7:9d:92:3a:cc:4e:39:64:80:da:b7:
         2a:b7:cb:de:2c:7c:70:81:ad:ee:99:ae:06:d9:9f:3e:96:c4:
         3f:e7:49:b5
-----BEGIN CERTIFICATE-----
MIIFMTCCBBmgAwIBAgIRALIXe4biT+m6FrLUpCsEfN4wDQYJKoZIhvcNAQELBQAw
ga8xCzAJBgNVBAYTAlVTMRMwEQYDVQQIDApDYWxpZm9ybmlhMRYwFAYDVQQHDA1T
YW4gRnJhbmNpc2NvMSAwHgYDVQQKDBdDb3B5bGVmdCBDZXJ0aWZpY2F0ZSBDbzEf
MB0GA1UECwwWTXkgT3JnYW5pemF0aW9uYWwgVW5pdDERMA8GA1UEAwwIQ2hhbmdl
TWUxHTAbBgkqhkiG9w0BCQEWDm1lQGV4YW1wbGUubmV0MB4XDTIzMTExMTAxNDkz
NFoXDTI0MTExMDAxNDkzNFowgbwxCzAJBgNVBAYTAlVTMQswCQYDVQQIDAJPSDET
MBEGA1UEBwwKQ2luY2lubmF0aTEhMB8GA1UECgwYVW5pdmVyc2l0eSBvZiBDaW5j
aW5uYXRpMSowKAYDVQQLDCFEZXB0LiBFbGVjLiBDb21wLiBFbmcuIENvbXAuIFNj
aS4xEjAQBgNVBAMMCWNsaWVudDE0ODEoMCYGCSqGSIb3DQEJARYZZnJhbmNvQGdh
dXNzLmVjZWNzLnVjLmVkdTCCASIwDQYJKoZIhvcNAQEBBQADggEPADCCAQoCggEB
AMe19I+LyquZOFe8pbkFM990H+idBWv9CBrHaQ2J7Id5oaW9cQHjsDTz944n4f6e
vhuSZjIBUu5DgGZktYdXUJKv5f5r8Edqm/LqT1BMGme82Kv60Q3oBIPXiawWSlrY
VEH2TrnQh3NgbbClJ/9l8DzqGPbvVu9GEnZ7pwgdSeggh0fJCNVT5X3AzKylpU4V
pQziTNpJKWlBUBAf7erQZRMEGStjFs3XS4Ui4DEs/AACxQ2/+mhfs3fp/Favfyx1
SmW+4mgaXOFwvC8VSaU0WMmSs6uMN9CMMUuJo9YmmVm0LI3Vj+Pc2kPYR1EnA/K+
Auc2Mb3JfaSFb1wJEyTt1l0CAwEAAaOCATcwggEzMAkGA1UdEwQCMAAwHQYDVR0O
BBYEFC9vLgEJtau4HB+x0nOq/3kQo038MIHkBgNVHSMEgdwwgdmAFHPeoEMPrrGe
6FlpGFChGh/UoePwoYG1pIGyMIGvMQswCQYDVQQGEwJVUzETMBEGA1UECAwKQ2Fs
aWZvcm5pYTEWMBQGA1UEBwwNU2FuIEZyYW5jaXNjbzEgMB4GA1UECgwXQ29weWxl
ZnQgQ2VydGlmaWNhdGUgQ28xHzAdBgNVBAsMFk15IE9yZ2FuaXphdGlvbmFsIFVu
aXQxETAPBgNVBAMMCENoYW5nZU1lMR0wGwYJKoZIhvcNAQkBFg5tZUBleGFtcGxl
Lm5ldIIJAOm7yxbFMr47MBMGA1UdJQQMMAoGCCsGAQUFBwMCMAsGA1UdDwQEAwIH
gDANBgkqhkiG9w0BAQsFAAOCAQEADfxIkPXeFvB9daGCeZNyZ04xhfGwhe45kfsC
41L2ihvQReeYHrS4afBFMmHR3c18U7YJLrWokanax2bpRHkoFpJaMoMgrBYcOmu+
3A9/hDmsqPTk0W3QqOtd62NQzg6TcpG++RQ8Zi/dquSNmePm0l07Uk+xfY1fSkCs
u0SrZatE4APqPO+Z+Gzf//GypXHYoYx66z1KP4R8vFZwtn4pnhlCxtXpvtJou9cf
t/tmgQeVeikVSn+HM8H8pJ09QdB8nOtht6isP4gaKBEsDeMNuqCbhmdIuUkBwWDr
4DXERfedkjrMTjlkgNq3KrfL3ix8cIGt7pmuBtmfPpbEP+dJtQ==
-----END CERTIFICATE-----
