Certificate:
    Data:
        Version: 3 (0x2)
        Serial Number:
            a5:72:ae:0e:40:58:43:15:a8:26:46:f4:e6:e2:2b:df
    Signature Algorithm: sha256WithRSAEncryption
        Issuer: C=US, ST=California, L=San Francisco, O=Copyleft Certificate Co, OU=My Organizational Unit, CN=ChangeMe/emailAddress=me@example.net
        Validity
            Not Before: Nov 11 01:48:34 2023 GMT
            Not After : Nov 10 01:48:34 2024 GMT
        Subject: C=US, ST=OH, L=Cincinnati, O=University of Cincinnati, OU=Dept. Elec. Comp. Eng. Comp. Sci., CN=client133/emailAddress=franco@gauss.ececs.uc.edu
        Subject Public Key Info:
            Public Key Algorithm: rsaEncryption
                Public-Key: (2048 bit)
                Modulus:
                    00:ea:6f:e8:dc:a7:3c:59:de:c2:1a:de:f7:17:97:
                    64:97:f5:dc:6f:ce:5c:93:5a:89:f3:15:a8:e5:7d:
                    03:f4:38:87:36:33:bf:6a:a2:d3:ca:14:ac:c2:13:
                    d5:0d:5f:22:c2:4a:20:41:47:5a:b8:a1:99:bd:00:
                    a2:7d:a5:6a:8c:01:27:55:7b:b2:da:bd:ae:c7:d5:
                    ff:67:45:c0:a4:f0:c8:4a:e7:a0:8a:cf:46:e8:23:
                    81:bc:51:95:6d:bc:d4:e8:70:b0:73:aa:24:a8:55:
                    a1:1f:bc:9a:d4:bf:fe:d5:bc:22:1c:06:06:d3:27:
                    95:7a:a3:be:85:cb:91:35:3d:45:5a:43:e6:f7:bd:
                    4b:cc:5f:03:cc:2e:0c:cb:44:d1:55:4f:2f:94:84:
                    18:e9:2b:18:a5:a4:5f:a0:7f:ad:83:2f:3a:01:9f:
                    ed:98:da:ae:e3:35:d8:17:35:d0:b2:33:91:07:60:
                    cc:f6:1a:44:7a:39:32:cc:ad:da:1f:80:5a:8c:1e:
                    1b:ed:53:25:53:4f:f6:97:98:e4:a6:b1:a4:b2:a5:
                    af:fa:bb:94:65:2b:46:29:76:bf:b1:19:42:43:06:
                    11:7d:71:82:e0:01:aa:ab:25:12:e6:0e:45:33:c4:
                    42:24:66:87:a0:af:f3:92:e3:1a:a0:28:b9:84:1d:
                    58:b5
                Exponent: 65537 (0x10001)
        X509v3 extensions:
            X509v3 Basic Constraints: 
                CA:FALSE
            X509v3 Subject Key Identifier: 
                C4:D6:7A:96:81:03:E2:9C:72:4A:98:25:7E:70:9A:44:79:4E:A9:6B
            X509v3 Authority Key Identifier: 
                keyid:73:DE:A0:43:0F:AE:B1:9E:E8:59:69:18:50:A1:1A:1F:D4:A1:E3:F0
                DirName:/C=US/ST=California/L=San Francisco/O=Copyleft Certificate Co/OU=My Organizational Unit/CN=ChangeMe/emailAddress=me@example.net
                serial:E9:BB:CB:16:C5:32:BE:3B

            X509v3 Extended Key Usage: 
                TLS Web Client Authentication
            X509v3 Key Usage: 
                Digital Signature
    Signature Algorithm: sha256WithRSAEncryption
         43:4d:00:08:61:e4:69:04:52:b8:a2:f8:86:5c:cb:d0:be:7f:
         7a:ee:a8:cc:8c:dc:33:f1:52:f9:22:45:3e:5a:1c:4b:6a:ab:
         93:13:35:bc:af:16:a1:7c:ef:39:7f:66:d8:81:ab:20:ce:6f:
         ff:56:e4:ee:eb:20:eb:e9:78:c8:93:ea:c0:eb:82:f9:7e:fa:
         b1:ea:fd:aa:4a:a7:80:18:c9:2e:39:d1:5a:55:b9:5d:35:02:
         8a:2c:95:4b:ba:eb:8e:38:3a:05:9f:bd:6a:0e:b0:ef:7a:ce:
         15:58:2d:44:cf:12:ad:5d:f9:b4:27:0d:49:4e:03:72:5f:5f:
         1c:57:8f:f9:52:05:33:ae:d5:bf:a9:8c:09:a5:fa:9a:8d:a7:
         49:97:19:2d:3a:8d:61:13:f1:6d:c9:91:b7:b7:eb:4a:0d:b2:
         02:e0:a6:f8:9d:77:f9:c9:3a:19:12:5c:39:3f:68:69:b4:ac:
         75:df:17:9e:64:6d:10:41:58:0c:1e:c3:8f:38:55:35:c0:6d:
         e7:c7:f4:c0:84:f2:4b:6d:54:56:b0:bd:08:a5:34:90:d6:33:
         c9:81:20:e1:4c:83:bf:dc:67:a7:07:55:1f:e7:23:fd:53:bc:
         47:75:34:55:40:fc:6a:cc:65:dd:b0:50:f1:b1:0a:b1:5f:3d:
         4e:8b:15:5a
-----BEGIN CERTIFICATE-----
MIIFMTCCBBmgAwIBAgIRAKVyrg5AWEMVqCZG9ObiK98wDQYJKoZIhvcNAQELBQAw
ga8xCzAJBgNVBAYTAlVTMRMwEQYDVQQIDApDYWxpZm9ybmlhMRYwFAYDVQQHDA1T
YW4gRnJhbmNpc2NvMSAwHgYDVQQKDBdDb3B5bGVmdCBDZXJ0aWZpY2F0ZSBDbzEf
MB0GA1UECwwWTXkgT3JnYW5pemF0aW9uYWwgVW5pdDERMA8GA1UEAwwIQ2hhbmdl
TWUxHTAbBgkqhkiG9w0BCQEWDm1lQGV4YW1wbGUubmV0MB4XDTIzMTExMTAxNDgz
NFoXDTI0MTExMDAxNDgzNFowgbwxCzAJBgNVBAYTAlVTMQswCQYDVQQIDAJPSDET
MBEGA1UEBwwKQ2luY2lubmF0aTEhMB8GA1UECgwYVW5pdmVyc2l0eSBvZiBDaW5j
aW5uYXRpMSowKAYDVQQLDCFEZXB0LiBFbGVjLiBDb21wLiBFbmcuIENvbXAuIFNj
aS4xEjAQBgNVBAMMCWNsaWVudDEzMzEoMCYGCSqGSIb3DQEJARYZZnJhbmNvQGdh
dXNzLmVjZWNzLnVjLmVkdTCCASIwDQYJKoZIhvcNAQEBBQADggEPADCCAQoCggEB
AOpv6NynPFnewhre9xeXZJf13G/OXJNaifMVqOV9A/Q4hzYzv2qi08oUrMIT1Q1f
IsJKIEFHWrihmb0Aon2laowBJ1V7stq9rsfV/2dFwKTwyErnoIrPRugjgbxRlW28
1OhwsHOqJKhVoR+8mtS//tW8IhwGBtMnlXqjvoXLkTU9RVpD5ve9S8xfA8wuDMtE
0VVPL5SEGOkrGKWkX6B/rYMvOgGf7ZjaruM12Bc10LIzkQdgzPYaRHo5Msyt2h+A
WoweG+1TJVNP9peY5KaxpLKlr/q7lGUrRil2v7EZQkMGEX1xguABqqslEuYORTPE
QiRmh6Cv85LjGqAouYQdWLUCAwEAAaOCATcwggEzMAkGA1UdEwQCMAAwHQYDVR0O
BBYEFMTWepaBA+KcckqYJX5wmkR5TqlrMIHkBgNVHSMEgdwwgdmAFHPeoEMPrrGe
6FlpGFChGh/UoePwoYG1pIGyMIGvMQswCQYDVQQGEwJVUzETMBEGA1UECAwKQ2Fs
aWZvcm5pYTEWMBQGA1UEBwwNU2FuIEZyYW5jaXNjbzEgMB4GA1UECgwXQ29weWxl
ZnQgQ2VydGlmaWNhdGUgQ28xHzAdBgNVBAsMFk15IE9yZ2FuaXphdGlvbmFsIFVu
aXQxETAPBgNVBAMMCENoYW5nZU1lMR0wGwYJKoZIhvcNAQkBFg5tZUBleGFtcGxl
Lm5ldIIJAOm7yxbFMr47MBMGA1UdJQQMMAoGCCsGAQUFBwMCMAsGA1UdDwQEAwIH
gDANBgkqhkiG9w0BAQsFAAOCAQEAQ00ACGHkaQRSuKL4hlzL0L5/eu6ozIzcM/FS
+SJFPlocS2qrkxM1vK8WoXzvOX9m2IGrIM5v/1bk7usg6+l4yJPqwOuC+X76ser9
qkqngBjJLjnRWlW5XTUCiiyVS7rrjjg6BZ+9ag6w73rOFVgtRM8SrV35tCcNSU4D
cl9fHFeP+VIFM67Vv6mMCaX6mo2nSZcZLTqNYRPxbcmRt7frSg2yAuCm+J13+ck6
GRJcOT9oabSsdd8XnmRtEEFYDB7DjzhVNcBt58f0wITyS21UVrC9CKU0kNYzyYEg
4UyDv9xnpwdVH+cj/VO8R3U0VUD8asxl3bBQ8bEKsV89TosVWg==
-----END CERTIFICATE-----
