Certificate:
    Data:
        Version: 3 (0x2)
        Serial Number:
            dd:79:cd:08:76:9e:ee:5a:08:8c:67:cc:05:ef:26:81
    Signature Algorithm: sha256WithRSAEncryption
        Issuer: C=US, ST=California, L=San Francisco, O=Copyleft Certificate Co, OU=My Organizational Unit, CN=ChangeMe/emailAddress=me@example.net
        Validity
            Not Before: Nov 11 01:49:06 2023 GMT
            Not After : Nov 10 01:49:06 2024 GMT
        Subject: C=US, ST=OH, L=Cincinnati, O=University of Cincinnati, OU=Dept. Elec. Comp. Eng. Comp. Sci., CN=client141/emailAddress=franco@gauss.ececs.uc.edu
        Subject Public Key Info:
            Public Key Algorithm: rsaEncryption
                Public-Key: (2048 bit)
                Modulus:
                    00:c5:54:cd:cc:9c:12:97:1d:d7:29:19:be:5f:1d:
                    90:1f:27:e2:8c:02:8f:ac:90:0f:9e:d1:16:c4:c8:
                    1e:fd:0c:a4:6f:91:fe:ac:10:eb:c1:a3:0f:4c:6c:
                    84:ae:eb:64:e5:0d:b9:20:b3:20:bf:4b:3e:b5:e0:
                    b2:a7:3e:ff:d7:a9:ea:6e:a7:02:5e:ab:84:b2:16:
                    05:67:0a:86:71:be:b7:30:bf:7a:bc:ec:d0:23:76:
                    e3:fe:20:50:e7:71:49:9b:6f:36:c5:cb:63:a6:37:
                    1a:f9:1a:68:21:2e:14:b1:bb:5f:91:8e:ea:f2:5d:
                    17:53:2d:1c:5a:e7:61:52:b6:a5:dc:10:3e:0d:ff:
                    54:5e:78:cb:9b:fe:fb:21:1c:ae:d4:8f:8e:1c:a1:
                    a4:d7:77:52:de:1e:47:0e:b6:fe:3d:f4:16:14:79:
                    cb:3f:37:1c:f4:08:45:be:a9:18:a7:86:08:65:89:
                    51:32:90:d3:55:54:a3:4c:36:8d:eb:62:19:2a:10:
                    9b:38:8e:00:63:f9:cd:d3:58:47:05:df:31:6b:a2:
                    53:9e:d8:c1:2f:db:7b:1c:ad:3d:5f:a3:80:7d:c4:
                    bd:d2:f8:8e:13:08:14:be:6e:af:a8:b3:19:a5:a7:
                    54:a5:7d:69:64:42:fa:b8:bb:db:30:bd:cb:a5:3b:
                    53:1d
                Exponent: 65537 (0x10001)
        X509v3 extensions:
            X509v3 Basic Constraints: 
                CA:FALSE
            X509v3 Subject Key Identifier: 
                A9:B3:35:B7:B5:46:EF:9C:53:A2:BE:21:5E:D4:9A:11:28:56:06:7A
            X509v3 Authority Key Identifier: 
                keyid:73:DE:A0:43:0F:AE:B1:9E:E8:59:69:18:50:A1:1A:1F:D4:A1:E3:F0
                DirName:/C=US/ST=California/L=San Francisco/O=Copyleft Certificate Co/OU=My Organizational Unit/CN=ChangeMe/emailAddress=me@example.net
                serial:E9:BB:CB:16:C5:32:BE:3B

            X509v3 Extended Key Usage: 
                TLS Web Client Authentication
            X509v3 Key Usage: 
                Digital Signature
    Signature Algorithm: sha256WithRSAEncryption
         c2:83:8b:65:7b:b5:ea:fb:78:de:ff:4d:aa:f4:a0:8d:44:f2:
         06:1f:ba:02:4e:a3:0f:43:76:3b:c8:12:9f:cb:d8:96:ff:0a:
         07:6d:75:54:70:2f:50:97:11:b8:2a:ea:cb:e1:5f:40:af:7d:
         8d:86:32:6f:69:b2:b1:df:6e:d5:af:05:88:ba:35:38:42:69:
         d5:53:dc:b9:2e:55:17:6c:6e:4d:68:b0:62:b0:19:3e:ea:ca:
         5f:41:40:26:ca:65:f1:bf:bc:96:5f:2f:bb:b2:79:b4:0c:43:
         15:b4:a4:7b:06:e1:1f:b7:9b:61:f6:d9:6d:8d:6f:28:b6:fe:
         0e:d0:fa:d1:86:6b:ee:01:d7:ad:9b:b2:6f:ac:f7:d2:fd:a3:
         96:09:ff:61:c7:26:ad:63:9d:ce:dc:28:3e:e7:92:a4:5b:7c:
         6c:c2:03:c3:e1:e8:bd:17:da:90:da:ff:2f:83:04:5a:99:a2:
         4f:24:58:07:4f:80:be:fc:1e:9a:96:62:44:a9:b4:e8:58:e6:
         74:f0:f4:cc:e3:6c:e7:fc:a9:e8:d8:8d:37:c8:8c:97:fa:c8:
         3b:e1:5b:8c:ba:e9:ef:de:d0:a0:f8:73:e1:22:9d:c0:3b:93:
         51:26:65:00:12:fd:a8:f8:ff:66:57:ea:fd:ec:79:1e:77:3c:
         79:a5:17:48
-----BEGIN CERTIFICATE-----
MIIFMTCCBBmgAwIBAgIRAN15zQh2nu5aCIxnzAXvJoEwDQYJKoZIhvcNAQELBQAw
ga8xCzAJBgNVBAYTAlVTMRMwEQYDVQQIDApDYWxpZm9ybmlhMRYwFAYDVQQHDA1T
YW4gRnJhbmNpc2NvMSAwHgYDVQQKDBdDb3B5bGVmdCBDZXJ0aWZpY2F0ZSBDbzEf
MB0GA1UECwwWTXkgT3JnYW5pemF0aW9uYWwgVW5pdDERMA8GA1UEAwwIQ2hhbmdl
TWUxHTAbBgkqhkiG9w0BCQEWDm1lQGV4YW1wbGUubmV0MB4XDTIzMTExMTAxNDkw
NloXDTI0MTExMDAxNDkwNlowgbwxCzAJBgNVBAYTAlVTMQswCQYDVQQIDAJPSDET
MBEGA1UEBwwKQ2luY2lubmF0aTEhMB8GA1UECgwYVW5pdmVyc2l0eSBvZiBDaW5j
aW5uYXRpMSowKAYDVQQLDCFEZXB0LiBFbGVjLiBDb21wLiBFbmcuIENvbXAuIFNj
aS4xEjAQBgNVBAMMCWNsaWVudDE0MTEoMCYGCSqGSIb3DQEJARYZZnJhbmNvQGdh
dXNzLmVjZWNzLnVjLmVkdTCCASIwDQYJKoZIhvcNAQEBBQADggEPADCCAQoCggEB
AMVUzcycEpcd1ykZvl8dkB8n4owCj6yQD57RFsTIHv0MpG+R/qwQ68GjD0xshK7r
ZOUNuSCzIL9LPrXgsqc+/9ep6m6nAl6rhLIWBWcKhnG+tzC/erzs0CN24/4gUOdx
SZtvNsXLY6Y3GvkaaCEuFLG7X5GO6vJdF1MtHFrnYVK2pdwQPg3/VF54y5v++yEc
rtSPjhyhpNd3Ut4eRw62/j30FhR5yz83HPQIRb6pGKeGCGWJUTKQ01VUo0w2jeti
GSoQmziOAGP5zdNYRwXfMWuiU57YwS/bexytPV+jgH3EvdL4jhMIFL5ur6izGaWn
VKV9aWRC+ri72zC9y6U7Ux0CAwEAAaOCATcwggEzMAkGA1UdEwQCMAAwHQYDVR0O
BBYEFKmzNbe1Ru+cU6K+IV7UmhEoVgZ6MIHkBgNVHSMEgdwwgdmAFHPeoEMPrrGe
6FlpGFChGh/UoePwoYG1pIGyMIGvMQswCQYDVQQGEwJVUzETMBEGA1UECAwKQ2Fs
aWZvcm5pYTEWMBQGA1UEBwwNU2FuIEZyYW5jaXNjbzEgMB4GA1UECgwXQ29weWxl
ZnQgQ2VydGlmaWNhdGUgQ28xHzAdBgNVBAsMFk15IE9yZ2FuaXphdGlvbmFsIFVu
aXQxETAPBgNVBAMMCENoYW5nZU1lMR0wGwYJKoZIhvcNAQkBFg5tZUBleGFtcGxl
Lm5ldIIJAOm7yxbFMr47MBMGA1UdJQQMMAoGCCsGAQUFBwMCMAsGA1UdDwQEAwIH
gDANBgkqhkiG9w0BAQsFAAOCAQEAwoOLZXu16vt43v9NqvSgjUTyBh+6Ak6jD0N2
O8gSn8vYlv8KB211VHAvUJcRuCrqy+FfQK99jYYyb2mysd9u1a8FiLo1OEJp1VPc
uS5VF2xuTWiwYrAZPurKX0FAJspl8b+8ll8vu7J5tAxDFbSkewbhH7ebYfbZbY1v
KLb+DtD60YZr7gHXrZuyb6z30v2jlgn/YccmrWOdztwoPueSpFt8bMIDw+HovRfa
kNr/L4MEWpmiTyRYB0+AvvwempZiRKm06FjmdPD0zONs5/yp6NiNN8iMl/rIO+Fb
jLrp797QoPhz4SKdwDuTUSZlABL9qPj/Zlfq/ex5Hnc8eaUXSA==
-----END CERTIFICATE-----
