Certificate:
    Data:
        Version: 3 (0x2)
        Serial Number:
            fd:44:11:04:af:44:1f:57:ad:a0:12:ab:e5:88:cb:05
    Signature Algorithm: sha256WithRSAEncryption
        Issuer: C=US, ST=California, L=San Francisco, O=Copyleft Certificate Co, OU=My Organizational Unit, CN=ChangeMe/emailAddress=me@example.net
        Validity
            Not Before: Nov 11 10:57:08 2023 GMT
            Not After : Nov 10 10:57:08 2024 GMT
        Subject: C=US, ST=OH, L=Cincinnati, O=University of Cincinnati, OU=Dept. Elec. Comp. Eng. Comp. Sci., CN=client28/emailAddress=franco@gauss.ececs.uc.edu
        Subject Public Key Info:
            Public Key Algorithm: rsaEncryption
                Public-Key: (2048 bit)
                Modulus:
                    00:ee:45:d7:1d:a5:b2:1d:6e:e9:56:dd:13:34:37:
                    ef:c2:04:a9:e4:1b:06:e6:56:73:9d:2c:16:57:d2:
                    e3:71:c0:b5:22:09:73:31:97:4c:88:75:3d:6f:cd:
                    d7:9e:2c:58:95:0a:9a:5d:86:c6:42:dd:00:92:5c:
                    77:af:03:76:e8:78:da:63:00:a4:cc:b7:64:ae:26:
                    44:4c:c6:f3:11:27:36:d5:b7:5c:5e:f3:ff:06:dc:
                    2f:8b:db:2a:dd:52:87:12:f4:50:2d:16:ac:9d:21:
                    c9:d8:1e:9d:50:2d:50:58:32:b0:77:bb:ac:e2:70:
                    6a:39:bb:ce:71:d6:a5:97:f7:c0:df:93:a7:83:8b:
                    18:4b:36:e1:80:d9:47:24:d6:b7:96:27:e1:81:ca:
                    bc:c8:bf:ff:a4:1b:84:ac:6e:ee:94:9b:cc:dc:8b:
                    14:fd:41:19:66:f8:c0:3c:09:02:a8:31:7a:e0:23:
                    c1:37:1d:d9:8e:ab:c2:9e:98:92:62:65:c2:40:66:
                    38:70:eb:42:88:e3:76:4d:e2:e2:60:75:61:ba:75:
                    b6:98:49:dc:d8:cb:d0:b1:24:5b:29:24:4d:5e:f0:
                    7f:7b:db:d3:ab:67:d9:8d:7f:85:28:5d:5d:de:24:
                    a2:29:24:a9:7e:4f:e6:c6:12:cb:d0:e0:4f:01:f5:
                    e0:6f
                Exponent: 65537 (0x10001)
        X509v3 extensions:
            X509v3 Basic Constraints: 
                CA:FALSE
            X509v3 Subject Key Identifier: 
                53:1B:98:3E:19:72:AB:D8:49:24:A1:0E:A3:FA:5E:90:D6:AD:02:E5
            X509v3 Authority Key Identifier: 
                keyid:44:01:CC:06:0B:41:75:CB:C8:FB:C9:37:86:2D:9D:D2:D8:79:B6:8B
                DirName:/C=US/ST=California/L=San Francisco/O=Copyleft Certificate Co/OU=My Organizational Unit/CN=ChangeMe/emailAddress=me@example.net
                serial:AF:E8:E0:DD:C5:8B:0E:DD

            X509v3 Extended Key Usage: 
                TLS Web Client Authentication
            X509v3 Key Usage: 
                Digital Signature
    Signature Algorithm: sha256WithRSAEncryption
         ad:71:1e:91:8d:78:ee:c2:3f:25:c7:d9:c4:f9:6f:7f:db:ca:
         43:26:81:1f:72:bf:44:d0:40:8d:60:b1:8b:e7:a5:40:44:e3:
         dd:d6:0d:b7:e9:05:d1:eb:b8:4a:c9:5f:07:c4:93:bd:01:93:
         ad:66:3d:25:92:34:96:46:a5:15:44:3e:27:67:66:81:22:14:
         ac:8c:24:71:d4:e3:60:29:53:8a:20:53:08:d0:07:ec:28:2e:
         c6:1f:58:98:36:64:49:6d:cf:e7:bb:08:e8:7d:bf:fe:9c:aa:
         e0:9d:7d:67:61:a4:0b:2d:1e:28:e2:ff:1d:8f:e9:63:9b:b5:
         3e:86:a8:2e:f8:79:f7:e7:f9:79:e2:5b:bf:47:4f:6f:be:67:
         56:00:3b:c6:f7:10:6a:4a:00:22:0f:1b:29:17:2b:af:0d:c3:
         49:3e:81:f5:10:0c:7d:57:0b:37:0d:b3:e3:f6:a3:fc:e4:54:
         6b:11:9a:13:5e:a7:35:c8:31:54:6d:22:7c:7c:ea:59:90:98:
         e1:fa:c6:58:96:b2:a7:ab:b3:bc:38:87:66:8a:f1:0f:d9:ec:
         72:df:a6:d2:c5:1a:c3:18:7d:8e:29:40:f1:5c:c2:c4:e7:56:
         d0:7e:94:fc:f1:c9:f0:2d:36:72:6b:27:45:a8:6b:2d:d8:6f:
         13:d0:61:d9
-----BEGIN CERTIFICATE-----
MIIFMDCCBBigAwIBAgIRAP1EEQSvRB9XraASq+WIywUwDQYJKoZIhvcNAQELBQAw
ga8xCzAJBgNVBAYTAlVTMRMwEQYDVQQIDApDYWxpZm9ybmlhMRYwFAYDVQQHDA1T
YW4gRnJhbmNpc2NvMSAwHgYDVQQKDBdDb3B5bGVmdCBDZXJ0aWZpY2F0ZSBDbzEf
MB0GA1UECwwWTXkgT3JnYW5pemF0aW9uYWwgVW5pdDERMA8GA1UEAwwIQ2hhbmdl
TWUxHTAbBgkqhkiG9w0BCQEWDm1lQGV4YW1wbGUubmV0MB4XDTIzMTExMTEwNTcw
OFoXDTI0MTExMDEwNTcwOFowgbsxCzAJBgNVBAYTAlVTMQswCQYDVQQIDAJPSDET
MBEGA1UEBwwKQ2luY2lubmF0aTEhMB8GA1UECgwYVW5pdmVyc2l0eSBvZiBDaW5j
aW5uYXRpMSowKAYDVQQLDCFEZXB0LiBFbGVjLiBDb21wLiBFbmcuIENvbXAuIFNj
aS4xETAPBgNVBAMMCGNsaWVudDI4MSgwJgYJKoZIhvcNAQkBFhlmcmFuY29AZ2F1
c3MuZWNlY3MudWMuZWR1MIIBIjANBgkqhkiG9w0BAQEFAAOCAQ8AMIIBCgKCAQEA
7kXXHaWyHW7pVt0TNDfvwgSp5BsG5lZznSwWV9LjccC1IglzMZdMiHU9b83XnixY
lQqaXYbGQt0Aklx3rwN26HjaYwCkzLdkriZETMbzESc21bdcXvP/Btwvi9sq3VKH
EvRQLRasnSHJ2B6dUC1QWDKwd7us4nBqObvOcdall/fA35Ong4sYSzbhgNlHJNa3
lifhgcq8yL//pBuErG7ulJvM3IsU/UEZZvjAPAkCqDF64CPBNx3ZjqvCnpiSYmXC
QGY4cOtCiON2TeLiYHVhunW2mEnc2MvQsSRbKSRNXvB/e9vTq2fZjX+FKF1d3iSi
KSSpfk/mxhLL0OBPAfXgbwIDAQABo4IBNzCCATMwCQYDVR0TBAIwADAdBgNVHQ4E
FgQUUxuYPhlyq9hJJKEOo/pekNatAuUwgeQGA1UdIwSB3DCB2YAURAHMBgtBdcvI
+8k3hi2d0th5touhgbWkgbIwga8xCzAJBgNVBAYTAlVTMRMwEQYDVQQIDApDYWxp
Zm9ybmlhMRYwFAYDVQQHDA1TYW4gRnJhbmNpc2NvMSAwHgYDVQQKDBdDb3B5bGVm
dCBDZXJ0aWZpY2F0ZSBDbzEfMB0GA1UECwwWTXkgT3JnYW5pemF0aW9uYWwgVW5p
dDERMA8GA1UEAwwIQ2hhbmdlTWUxHTAbBgkqhkiG9w0BCQEWDm1lQGV4YW1wbGUu
bmV0ggkAr+jg3cWLDt0wEwYDVR0lBAwwCgYIKwYBBQUHAwIwCwYDVR0PBAQDAgeA
MA0GCSqGSIb3DQEBCwUAA4IBAQCtcR6RjXjuwj8lx9nE+W9/28pDJoEfcr9E0ECN
YLGL56VAROPd1g236QXR67hKyV8HxJO9AZOtZj0lkjSWRqUVRD4nZ2aBIhSsjCRx
1ONgKVOKIFMI0AfsKC7GH1iYNmRJbc/nuwjofb/+nKrgnX1nYaQLLR4o4v8dj+lj
m7U+hqgu+Hn35/l54lu/R09vvmdWADvG9xBqSgAiDxspFyuvDcNJPoH1EAx9Vws3
DbPj9qP85FRrEZoTXqc1yDFUbSJ8fOpZkJjh+sZYlrKnq7O8OIdmivEP2exy36bS
xRrDGH2OKUDxXMLE51bQfpT88cnwLTZyaydFqGst2G8T0GHZ
-----END CERTIFICATE-----
