Certificate:
    Data:
        Version: 3 (0x2)
        Serial Number:
            d8:28:62:47:f9:62:45:37:0e:94:b7:e0:45:f7:20:83
    Signature Algorithm: sha256WithRSAEncryption
        Issuer: C=US, ST=California, L=San Francisco, O=Copyleft Certificate Co, OU=My Organizational Unit, CN=ChangeMe/emailAddress=me@example.net
        Validity
            Not Before: Nov 11 01:47:06 2023 GMT
            Not After : Nov 10 01:47:06 2024 GMT
        Subject: C=US, ST=OH, L=Cincinnati, O=University of Cincinnati, OU=Dept. Elec. Comp. Eng. Comp. Sci., CN=client111/emailAddress=franco@gauss.ececs.uc.edu
        Subject Public Key Info:
            Public Key Algorithm: rsaEncryption
                Public-Key: (2048 bit)
                Modulus:
                    00:bf:7d:5e:61:5a:d8:fc:6c:1f:ec:29:18:85:e3:
                    0f:48:0d:16:0f:53:71:fc:d0:2c:9b:b8:34:9c:a1:
                    74:f8:57:e4:b5:da:a4:a8:92:c9:80:60:f7:dd:24:
                    5e:5e:30:94:f0:87:68:2f:dc:79:41:0b:8e:66:44:
                    18:aa:51:d8:81:59:71:c5:ea:1a:3f:9f:54:40:b5:
                    67:68:22:ad:7f:9f:53:c6:fd:cf:0a:da:0c:92:91:
                    c7:e8:45:02:0c:53:e1:08:e1:49:5c:23:b5:9d:c2:
                    d4:fc:55:21:89:b3:e9:e1:05:23:27:cc:cd:a5:44:
                    4c:11:af:0a:bd:ba:19:cb:2f:5e:db:24:be:71:70:
                    a2:b3:77:c0:bf:7f:9e:30:25:c1:fa:ab:ac:fc:26:
                    03:07:53:16:6b:e0:9d:5a:96:77:47:4e:5d:45:ce:
                    78:0f:42:20:bd:21:4a:4f:0c:ba:9b:78:18:e0:cc:
                    c1:76:32:d4:a8:84:40:6b:90:f6:0f:dd:dd:91:89:
                    bb:e7:47:5d:73:b5:18:96:60:eb:92:b9:3a:ac:23:
                    c6:57:b5:26:ab:29:9e:54:08:a0:26:92:d2:3b:ac:
                    4a:75:40:a1:77:13:c6:8a:cd:45:6e:a3:c4:c0:35:
                    03:b4:c3:1f:21:08:08:7f:09:fe:43:a3:7b:13:40:
                    a6:2f
                Exponent: 65537 (0x10001)
        X509v3 extensions:
            X509v3 Basic Constraints: 
                CA:FALSE
            X509v3 Subject Key Identifier: 
                12:53:65:2D:66:8B:E7:F2:1D:66:82:7C:53:AC:F0:4A:F3:94:90:B3
            X509v3 Authority Key Identifier: 
                keyid:73:DE:A0:43:0F:AE:B1:9E:E8:59:69:18:50:A1:1A:1F:D4:A1:E3:F0
                DirName:/C=US/ST=California/L=San Francisco/O=Copyleft Certificate Co/OU=My Organizational Unit/CN=ChangeMe/emailAddress=me@example.net
                serial:E9:BB:CB:16:C5:32:BE:3B

            X509v3 Extended Key Usage: 
                TLS Web Client Authentication
            X509v3 Key Usage: 
                Digital Signature
    Signature Algorithm: sha256WithRSAEncryption
         0f:9c:0d:31:e7:7a:39:44:cf:ad:10:fa:f9:9a:0a:b4:43:d4:
         d2:90:d9:21:c9:42:79:bd:d9:0a:83:7b:d8:17:c2:f1:db:e4:
         96:f7:f3:50:4d:0a:4a:d5:ed:d2:31:c4:32:eb:72:98:4c:59:
         ee:5f:0f:db:79:e7:d1:f3:67:42:bd:45:84:9c:81:7e:c6:6e:
         2b:31:46:9d:7c:41:53:d8:29:47:d1:16:78:fd:d4:4c:8b:9c:
         e8:56:4c:1f:56:e4:6b:12:1e:56:2b:76:43:bf:05:ae:26:cc:
         a4:a6:8e:fd:6d:96:ae:97:0e:38:5a:cd:c8:1f:10:49:f6:95:
         3c:87:67:13:d3:76:e2:4e:f0:21:b6:86:fe:31:e1:fb:e7:4c:
         29:c7:fb:de:c7:63:b7:76:41:56:37:32:1d:70:42:24:ea:13:
         71:00:75:ab:08:63:79:be:1e:13:f9:ef:68:38:2e:a9:fd:18:
         17:c1:3b:58:9e:f6:23:63:aa:29:cc:68:1c:20:2f:02:5c:ef:
         b3:15:5c:4f:9f:b0:07:89:3f:8e:d6:5f:cc:0c:c4:8e:5d:f4:
         87:49:d3:03:8c:4f:32:6b:41:a7:be:f6:b1:41:33:1a:ff:3b:
         f1:ba:5c:60:2d:56:56:3f:04:84:c2:f1:b0:cb:56:18:ba:99:
         53:ca:d5:92
-----BEGIN CERTIFICATE-----
MIIFMTCCBBmgAwIBAgIRANgoYkf5YkU3DpS34EX3IIMwDQYJKoZIhvcNAQELBQAw
ga8xCzAJBgNVBAYTAlVTMRMwEQYDVQQIDApDYWxpZm9ybmlhMRYwFAYDVQQHDA1T
YW4gRnJhbmNpc2NvMSAwHgYDVQQKDBdDb3B5bGVmdCBDZXJ0aWZpY2F0ZSBDbzEf
MB0GA1UECwwWTXkgT3JnYW5pemF0aW9uYWwgVW5pdDERMA8GA1UEAwwIQ2hhbmdl
TWUxHTAbBgkqhkiG9w0BCQEWDm1lQGV4YW1wbGUubmV0MB4XDTIzMTExMTAxNDcw
NloXDTI0MTExMDAxNDcwNlowgbwxCzAJBgNVBAYTAlVTMQswCQYDVQQIDAJPSDET
MBEGA1UEBwwKQ2luY2lubmF0aTEhMB8GA1UECgwYVW5pdmVyc2l0eSBvZiBDaW5j
aW5uYXRpMSowKAYDVQQLDCFEZXB0LiBFbGVjLiBDb21wLiBFbmcuIENvbXAuIFNj
aS4xEjAQBgNVBAMMCWNsaWVudDExMTEoMCYGCSqGSIb3DQEJARYZZnJhbmNvQGdh
dXNzLmVjZWNzLnVjLmVkdTCCASIwDQYJKoZIhvcNAQEBBQADggEPADCCAQoCggEB
AL99XmFa2PxsH+wpGIXjD0gNFg9TcfzQLJu4NJyhdPhX5LXapKiSyYBg990kXl4w
lPCHaC/ceUELjmZEGKpR2IFZccXqGj+fVEC1Z2girX+fU8b9zwraDJKRx+hFAgxT
4QjhSVwjtZ3C1PxVIYmz6eEFIyfMzaVETBGvCr26GcsvXtskvnFworN3wL9/njAl
wfqrrPwmAwdTFmvgnVqWd0dOXUXOeA9CIL0hSk8Mupt4GODMwXYy1KiEQGuQ9g/d
3ZGJu+dHXXO1GJZg65K5Oqwjxle1JqspnlQIoCaS0jusSnVAoXcTxorNRW6jxMA1
A7TDHyEICH8J/kOjexNApi8CAwEAAaOCATcwggEzMAkGA1UdEwQCMAAwHQYDVR0O
BBYEFBJTZS1mi+fyHWaCfFOs8ErzlJCzMIHkBgNVHSMEgdwwgdmAFHPeoEMPrrGe
6FlpGFChGh/UoePwoYG1pIGyMIGvMQswCQYDVQQGEwJVUzETMBEGA1UECAwKQ2Fs
aWZvcm5pYTEWMBQGA1UEBwwNU2FuIEZyYW5jaXNjbzEgMB4GA1UECgwXQ29weWxl
ZnQgQ2VydGlmaWNhdGUgQ28xHzAdBgNVBAsMFk15IE9yZ2FuaXphdGlvbmFsIFVu
aXQxETAPBgNVBAMMCENoYW5nZU1lMR0wGwYJKoZIhvcNAQkBFg5tZUBleGFtcGxl
Lm5ldIIJAOm7yxbFMr47MBMGA1UdJQQMMAoGCCsGAQUFBwMCMAsGA1UdDwQEAwIH
gDANBgkqhkiG9w0BAQsFAAOCAQEAD5wNMed6OUTPrRD6+ZoKtEPU0pDZIclCeb3Z
CoN72BfC8dvklvfzUE0KStXt0jHEMutymExZ7l8P23nn0fNnQr1FhJyBfsZuKzFG
nXxBU9gpR9EWeP3UTIuc6FZMH1bkaxIeVit2Q78FribMpKaO/W2WrpcOOFrNyB8Q
SfaVPIdnE9N24k7wIbaG/jHh++dMKcf73sdjt3ZBVjcyHXBCJOoTcQB1qwhjeb4e
E/nvaDguqf0YF8E7WJ72I2OqKcxoHCAvAlzvsxVcT5+wB4k/jtZfzAzEjl30h0nT
A4xPMmtBp772sUEzGv878bpcYC1WVj8EhMLxsMtWGLqZU8rVkg==
-----END CERTIFICATE-----
