Certificate:
    Data:
        Version: 3 (0x2)
        Serial Number:
            14:e5:f0:54:2e:c7:69:9c:cb:73:e2:80:69:15:c6:68
    Signature Algorithm: sha256WithRSAEncryption
        Issuer: C=US, ST=California, L=San Francisco, O=Copyleft Certificate Co, OU=My Organizational Unit, CN=ChangeMe/emailAddress=me@example.net
        Validity
            Not Before: Nov 13 11:47:30 2023 GMT
            Not After : Nov 12 11:47:30 2024 GMT
        Subject: C=US, ST=OH, L=Cincinnati, O=University of Cincinnati, OU=Dept. Elec. Comp. Eng. Comp. Sci., CN=client16/emailAddress=franco@gauss.ececs.uc.edu
        Subject Public Key Info:
            Public Key Algorithm: rsaEncryption
                Public-Key: (2048 bit)
                Modulus:
                    00:e7:6e:d7:48:42:3f:bf:ff:54:e6:04:be:fe:01:
                    84:fc:ca:e9:4c:f1:4a:1d:a4:3b:5d:cb:d3:44:de:
                    58:44:8f:25:84:ac:6e:5c:05:ae:6b:04:0d:42:5a:
                    07:1e:49:1b:e4:13:6e:e4:29:5a:8e:c9:fd:08:55:
                    85:8e:41:b7:09:db:80:ae:40:bc:e5:67:e0:b4:c4:
                    08:7e:12:f1:bb:eb:97:29:44:01:2c:f0:cf:5c:c1:
                    d2:2e:bb:f3:85:15:f8:6a:31:0e:7b:f3:62:d0:d6:
                    e0:7f:78:08:51:de:ad:63:a4:cd:21:c6:bc:5f:cf:
                    22:15:5f:3f:d5:6a:0f:c3:c9:7d:86:0a:83:90:12:
                    5f:86:e9:d1:ae:e7:79:2a:81:59:ac:a0:1a:e1:f4:
                    a0:d4:52:65:5e:db:67:fb:d9:a8:91:55:41:7b:87:
                    d8:74:4f:ce:a2:ec:ce:a3:3d:2c:b8:9f:6b:6b:95:
                    81:b1:e1:dd:d5:8a:57:aa:e2:2d:13:38:33:8f:8b:
                    38:ba:9d:b7:bf:49:5f:58:05:42:e2:07:b2:9f:3f:
                    e2:88:dd:a1:7f:03:1c:6b:83:53:a8:ab:48:65:6a:
                    76:d6:d9:11:5e:bc:e0:fa:0f:14:1e:dd:f1:96:58:
                    ba:59:18:93:60:fe:dc:21:b6:75:35:f9:f1:a8:34:
                    a0:c3
                Exponent: 65537 (0x10001)
        X509v3 extensions:
            X509v3 Basic Constraints: 
                CA:FALSE
            X509v3 Subject Key Identifier: 
                2A:07:70:86:51:DB:77:31:02:2C:92:7F:92:B6:E0:78:D7:78:BD:F7
            X509v3 Authority Key Identifier: 
                keyid:B4:AE:AB:ED:FC:ED:84:AA:AD:77:5D:7C:84:28:1C:CA:CE:AE:2A:44
                DirName:/C=US/ST=California/L=San Francisco/O=Copyleft Certificate Co/OU=My Organizational Unit/CN=ChangeMe/emailAddress=me@example.net
                serial:BD:6C:3B:F4:D3:07:C9:D1

            X509v3 Extended Key Usage: 
                TLS Web Client Authentication
            X509v3 Key Usage: 
                Digital Signature
    Signature Algorithm: sha256WithRSAEncryption
         b3:32:bb:c7:16:96:96:f3:9c:91:b1:92:b3:71:5a:30:a4:f3:
         e1:de:c6:82:eb:cd:e1:2c:f5:56:e6:58:ba:ea:8b:1c:7e:c1:
         fa:5b:03:ab:a8:77:82:f3:62:5b:8c:f2:ae:a5:bd:37:ad:23:
         e8:42:b6:55:65:46:80:63:45:d7:52:7b:c0:8f:18:5d:f5:df:
         d9:a2:05:fb:7f:cc:ba:b0:5f:35:7f:9c:e8:17:1e:82:d7:76:
         82:6b:09:7e:ce:fe:e5:14:76:be:b0:83:a3:8c:2d:89:4b:be:
         d0:e3:ca:55:3d:bc:f5:ea:73:1f:3d:86:1e:91:f8:06:34:00:
         2e:3c:eb:23:70:6d:44:31:34:68:e7:1b:6b:89:2c:7e:89:f4:
         11:a7:83:b5:62:6a:61:c9:5e:8e:12:6e:32:a4:ae:4b:74:aa:
         39:1b:84:fa:47:08:4c:c8:0e:22:73:b9:98:20:7f:a2:4e:1a:
         99:62:c0:96:7a:dc:70:ca:64:50:4e:30:82:9e:2d:ff:3b:97:
         10:0a:cf:b9:df:17:50:c3:3b:8f:6d:b1:9c:66:b4:44:c9:03:
         34:84:30:e4:d5:af:3a:c2:9d:cb:9d:42:2c:d7:e6:31:a2:20:
         8b:ed:0c:e0:f4:bd:e5:f2:cf:2e:5f:c7:85:0d:2c:2d:6e:c5:
         6b:b8:89:52
-----BEGIN CERTIFICATE-----
MIIFLzCCBBegAwIBAgIQFOXwVC7HaZzLc+KAaRXGaDANBgkqhkiG9w0BAQsFADCB
rzELMAkGA1UEBhMCVVMxEzARBgNVBAgMCkNhbGlmb3JuaWExFjAUBgNVBAcMDVNh
biBGcmFuY2lzY28xIDAeBgNVBAoMF0NvcHlsZWZ0IENlcnRpZmljYXRlIENvMR8w
HQYDVQQLDBZNeSBPcmdhbml6YXRpb25hbCBVbml0MREwDwYDVQQDDAhDaGFuZ2VN
ZTEdMBsGCSqGSIb3DQEJARYObWVAZXhhbXBsZS5uZXQwHhcNMjMxMTEzMTE0NzMw
WhcNMjQxMTEyMTE0NzMwWjCBuzELMAkGA1UEBhMCVVMxCzAJBgNVBAgMAk9IMRMw
EQYDVQQHDApDaW5jaW5uYXRpMSEwHwYDVQQKDBhVbml2ZXJzaXR5IG9mIENpbmNp
bm5hdGkxKjAoBgNVBAsMIURlcHQuIEVsZWMuIENvbXAuIEVuZy4gQ29tcC4gU2Np
LjERMA8GA1UEAwwIY2xpZW50MTYxKDAmBgkqhkiG9w0BCQEWGWZyYW5jb0BnYXVz
cy5lY2Vjcy51Yy5lZHUwggEiMA0GCSqGSIb3DQEBAQUAA4IBDwAwggEKAoIBAQDn
btdIQj+//1TmBL7+AYT8yulM8UodpDtdy9NE3lhEjyWErG5cBa5rBA1CWgceSRvk
E27kKVqOyf0IVYWOQbcJ24CuQLzlZ+C0xAh+EvG765cpRAEs8M9cwdIuu/OFFfhq
MQ5782LQ1uB/eAhR3q1jpM0hxrxfzyIVXz/Vag/DyX2GCoOQEl+G6dGu53kqgVms
oBrh9KDUUmVe22f72aiRVUF7h9h0T86i7M6jPSy4n2trlYGx4d3Vileq4i0TODOP
izi6nbe/SV9YBULiB7KfP+KI3aF/Axxrg1Ooq0hlanbW2RFevOD6DxQe3fGWWLpZ
GJNg/twhtnU1+fGoNKDDAgMBAAGjggE3MIIBMzAJBgNVHRMEAjAAMB0GA1UdDgQW
BBQqB3CGUdt3MQIskn+StuB413i99zCB5AYDVR0jBIHcMIHZgBS0rqvt/O2Eqq13
XXyEKBzKzq4qRKGBtaSBsjCBrzELMAkGA1UEBhMCVVMxEzARBgNVBAgMCkNhbGlm
b3JuaWExFjAUBgNVBAcMDVNhbiBGcmFuY2lzY28xIDAeBgNVBAoMF0NvcHlsZWZ0
IENlcnRpZmljYXRlIENvMR8wHQYDVQQLDBZNeSBPcmdhbml6YXRpb25hbCBVbml0
MREwDwYDVQQDDAhDaGFuZ2VNZTEdMBsGCSqGSIb3DQEJARYObWVAZXhhbXBsZS5u
ZXSCCQC9bDv00wfJ0TATBgNVHSUEDDAKBggrBgEFBQcDAjALBgNVHQ8EBAMCB4Aw
DQYJKoZIhvcNAQELBQADggEBALMyu8cWlpbznJGxkrNxWjCk8+HexoLrzeEs9Vbm
WLrqixx+wfpbA6uod4LzYluM8q6lvTetI+hCtlVlRoBjRddSe8CPGF3139miBft/
zLqwXzV/nOgXHoLXdoJrCX7O/uUUdr6wg6OMLYlLvtDjylU9vPXqcx89hh6R+AY0
AC486yNwbUQxNGjnG2uJLH6J9BGng7ViamHJXo4SbjKkrkt0qjkbhPpHCEzIDiJz
uZggf6JOGpliwJZ63HDKZFBOMIKeLf87lxAKz7nfF1DDO49tsZxmtETJAzSEMOTV
rzrCncudQizX5jGiIIvtDOD0veXyzy5fx4UNLC1uxWu4iVI=
-----END CERTIFICATE-----
