Certificate:
    Data:
        Version: 3 (0x2)
        Serial Number:
            2d:f0:f6:bb:8a:14:85:eb:a5:7a:fd:b3:59:c3:e1:5c
    Signature Algorithm: sha256WithRSAEncryption
        Issuer: C=US, ST=California, L=San Francisco, O=Copyleft Certificate Co, OU=My Organizational Unit, CN=ChangeMe/emailAddress=me@example.net
        Validity
            Not Before: Nov 11 01:49:30 2023 GMT
            Not After : Nov 10 01:49:30 2024 GMT
        Subject: C=US, ST=OH, L=Cincinnati, O=University of Cincinnati, OU=Dept. Elec. Comp. Eng. Comp. Sci., CN=client147/emailAddress=franco@gauss.ececs.uc.edu
        Subject Public Key Info:
            Public Key Algorithm: rsaEncryption
                Public-Key: (2048 bit)
                Modulus:
                    00:c3:cb:c6:a5:8a:85:c5:f3:91:46:ce:f8:34:10:
                    52:a4:95:22:29:58:24:38:5c:2e:13:6d:f6:a5:6b:
                    ca:b2:16:c9:3c:1c:d0:1e:e9:d3:ae:a9:02:93:63:
                    bd:99:88:2c:a9:f6:f0:5f:64:5b:bb:6f:73:a5:40:
                    24:03:03:fc:85:55:c9:6b:79:5d:6c:d4:63:f3:8f:
                    e0:d4:48:7a:fa:1b:af:89:ad:70:5e:e0:c9:6e:fa:
                    ad:b9:f6:9f:79:49:a7:29:2c:0e:e9:0f:ea:07:f7:
                    f7:0e:a8:8f:26:7b:ae:38:83:e0:61:38:a7:6d:98:
                    43:e0:76:5d:c8:cd:6f:da:d5:cf:75:45:c1:c1:cc:
                    10:3a:28:10:0b:50:89:55:5c:23:19:55:a8:54:e1:
                    55:88:3f:f0:47:5a:4b:55:88:e1:7c:8f:43:16:30:
                    3d:a6:c1:b4:3d:bd:e9:be:a5:67:9c:19:98:ee:16:
                    81:d1:22:74:c3:3f:5d:a2:d9:27:72:13:bc:38:55:
                    4d:b6:81:82:b8:8c:15:30:ac:17:42:26:7c:52:23:
                    69:36:22:7d:3e:10:69:85:aa:ba:0d:2d:63:eb:68:
                    df:dd:3b:2c:50:90:c2:0c:c3:c9:32:23:19:bf:b9:
                    0d:24:9c:70:62:87:44:7d:e9:94:0a:33:7e:48:7e:
                    a4:71
                Exponent: 65537 (0x10001)
        X509v3 extensions:
            X509v3 Basic Constraints: 
                CA:FALSE
            X509v3 Subject Key Identifier: 
                0A:61:C4:EC:00:28:97:DC:40:51:85:3F:69:5E:74:F4:D5:6D:2C:FC
            X509v3 Authority Key Identifier: 
                keyid:73:DE:A0:43:0F:AE:B1:9E:E8:59:69:18:50:A1:1A:1F:D4:A1:E3:F0
                DirName:/C=US/ST=California/L=San Francisco/O=Copyleft Certificate Co/OU=My Organizational Unit/CN=ChangeMe/emailAddress=me@example.net
                serial:E9:BB:CB:16:C5:32:BE:3B

            X509v3 Extended Key Usage: 
                TLS Web Client Authentication
            X509v3 Key Usage: 
                Digital Signature
    Signature Algorithm: sha256WithRSAEncryption
         a0:05:34:ec:39:75:7b:e5:33:a6:ca:23:9c:5d:e3:68:f0:39:
         51:16:30:9c:04:88:61:bf:5f:e5:05:1d:b3:7e:e8:5b:92:6e:
         79:0f:13:98:4d:e4:88:58:ee:0c:1d:04:ad:1b:75:be:c1:f2:
         ae:91:32:47:38:41:82:20:f9:b9:f0:e9:7c:fa:48:9f:77:f3:
         f6:03:9d:06:3e:1a:e1:23:8c:70:c4:4c:06:8f:27:e8:0b:85:
         d0:0e:f3:09:95:6c:d9:ce:70:cd:4e:de:60:b2:bf:01:9c:f7:
         bc:c2:6f:11:ad:59:f5:e0:5e:3b:09:6e:86:17:74:3a:c0:33:
         c7:1a:d6:f8:c5:7d:29:d3:2f:8f:bb:e6:13:48:9f:dd:26:d3:
         a4:25:ba:a7:35:54:65:e7:0f:17:ee:44:e5:1c:83:dc:1d:8d:
         ec:f4:46:c8:0c:03:d7:a3:4f:b9:26:38:5a:b1:85:05:8e:a6:
         b5:62:4f:c3:95:2e:2a:aa:88:c3:e0:6a:bb:55:09:cb:84:48:
         a8:f0:d7:ca:00:86:81:e1:d0:14:b8:7e:d9:67:f7:8a:d3:e2:
         59:16:e2:27:b4:ea:f1:94:2f:29:30:4f:1d:15:58:cb:fb:5b:
         d6:b4:fa:81:b7:7f:19:23:87:e0:e9:2c:c2:83:8d:eb:77:59:
         d2:ac:de:e6
-----BEGIN CERTIFICATE-----
MIIFMDCCBBigAwIBAgIQLfD2u4oUheulev2zWcPhXDANBgkqhkiG9w0BAQsFADCB
rzELMAkGA1UEBhMCVVMxEzARBgNVBAgMCkNhbGlmb3JuaWExFjAUBgNVBAcMDVNh
biBGcmFuY2lzY28xIDAeBgNVBAoMF0NvcHlsZWZ0IENlcnRpZmljYXRlIENvMR8w
HQYDVQQLDBZNeSBPcmdhbml6YXRpb25hbCBVbml0MREwDwYDVQQDDAhDaGFuZ2VN
ZTEdMBsGCSqGSIb3DQEJARYObWVAZXhhbXBsZS5uZXQwHhcNMjMxMTExMDE0OTMw
WhcNMjQxMTEwMDE0OTMwWjCBvDELMAkGA1UEBhMCVVMxCzAJBgNVBAgMAk9IMRMw
EQYDVQQHDApDaW5jaW5uYXRpMSEwHwYDVQQKDBhVbml2ZXJzaXR5IG9mIENpbmNp
bm5hdGkxKjAoBgNVBAsMIURlcHQuIEVsZWMuIENvbXAuIEVuZy4gQ29tcC4gU2Np
LjESMBAGA1UEAwwJY2xpZW50MTQ3MSgwJgYJKoZIhvcNAQkBFhlmcmFuY29AZ2F1
c3MuZWNlY3MudWMuZWR1MIIBIjANBgkqhkiG9w0BAQEFAAOCAQ8AMIIBCgKCAQEA
w8vGpYqFxfORRs74NBBSpJUiKVgkOFwuE232pWvKshbJPBzQHunTrqkCk2O9mYgs
qfbwX2Rbu29zpUAkAwP8hVXJa3ldbNRj84/g1Eh6+huvia1wXuDJbvqtufafeUmn
KSwO6Q/qB/f3DqiPJnuuOIPgYTinbZhD4HZdyM1v2tXPdUXBwcwQOigQC1CJVVwj
GVWoVOFViD/wR1pLVYjhfI9DFjA9psG0Pb3pvqVnnBmY7haB0SJ0wz9dotknchO8
OFVNtoGCuIwVMKwXQiZ8UiNpNiJ9PhBphaq6DS1j62jf3TssUJDCDMPJMiMZv7kN
JJxwYodEfemUCjN+SH6kcQIDAQABo4IBNzCCATMwCQYDVR0TBAIwADAdBgNVHQ4E
FgQUCmHE7AAol9xAUYU/aV509NVtLPwwgeQGA1UdIwSB3DCB2YAUc96gQw+usZ7o
WWkYUKEaH9Sh4/ChgbWkgbIwga8xCzAJBgNVBAYTAlVTMRMwEQYDVQQIDApDYWxp
Zm9ybmlhMRYwFAYDVQQHDA1TYW4gRnJhbmNpc2NvMSAwHgYDVQQKDBdDb3B5bGVm
dCBDZXJ0aWZpY2F0ZSBDbzEfMB0GA1UECwwWTXkgT3JnYW5pemF0aW9uYWwgVW5p
dDERMA8GA1UEAwwIQ2hhbmdlTWUxHTAbBgkqhkiG9w0BCQEWDm1lQGV4YW1wbGUu
bmV0ggkA6bvLFsUyvjswEwYDVR0lBAwwCgYIKwYBBQUHAwIwCwYDVR0PBAQDAgeA
MA0GCSqGSIb3DQEBCwUAA4IBAQCgBTTsOXV75TOmyiOcXeNo8DlRFjCcBIhhv1/l
BR2zfuhbkm55DxOYTeSIWO4MHQStG3W+wfKukTJHOEGCIPm58Ol8+kifd/P2A50G
PhrhI4xwxEwGjyfoC4XQDvMJlWzZznDNTt5gsr8BnPe8wm8RrVn14F47CW6GF3Q6
wDPHGtb4xX0p0y+Pu+YTSJ/dJtOkJbqnNVRl5w8X7kTlHIPcHY3s9EbIDAPXo0+5
JjhasYUFjqa1Yk/DlS4qqojD4Gq7VQnLhEio8NfKAIaB4dAUuH7ZZ/eK0+JZFuIn
tOrxlC8pME8dFVjL+1vWtPqBt38ZI4fg6SzCg43rd1nSrN7m
-----END CERTIFICATE-----
