Certificate:
    Data:
        Version: 3 (0x2)
        Serial Number:
            13:3e:49:22:b4:82:4d:eb:6b:4b:3e:95:49:de:8a:75
    Signature Algorithm: sha256WithRSAEncryption
        Issuer: C=US, ST=California, L=San Francisco, O=Copyleft Certificate Co, OU=My Organizational Unit, CN=ChangeMe/emailAddress=me@example.net
        Validity
            Not Before: Nov 11 10:58:24 2023 GMT
            Not After : Nov 10 10:58:24 2024 GMT
        Subject: C=US, ST=OH, L=Cincinnati, O=University of Cincinnati, OU=Dept. Elec. Comp. Eng. Comp. Sci., CN=client47/emailAddress=franco@gauss.ececs.uc.edu
        Subject Public Key Info:
            Public Key Algorithm: rsaEncryption
                Public-Key: (2048 bit)
                Modulus:
                    00:b5:c2:cd:54:70:0d:00:8c:4d:0e:a2:af:34:be:
                    e5:53:5e:00:88:52:06:26:5a:31:db:b6:e5:74:27:
                    99:89:15:3a:ea:7c:ca:81:e4:cb:b9:00:ef:b1:82:
                    51:f9:cf:d1:ba:48:25:f5:6a:d8:1b:23:c3:3f:72:
                    59:04:00:ec:de:45:d7:3b:a2:98:3e:54:04:87:1e:
                    77:7d:51:bc:52:77:7e:54:69:57:5b:de:85:63:ad:
                    46:e5:0f:48:73:c8:0c:56:1a:da:59:b3:02:ad:74:
                    dd:da:83:20:90:ef:4d:99:29:ca:b5:eb:4e:83:bb:
                    2d:2f:17:01:7c:e3:59:4d:c0:2b:86:e0:70:24:4f:
                    cb:cd:8a:e9:fc:71:a6:c5:45:16:32:de:27:6c:e1:
                    c7:67:01:f8:71:cc:bf:00:e0:e0:ba:30:0d:6e:d4:
                    b3:9f:c8:6e:e5:a5:1f:fb:0e:4f:c3:78:21:66:e5:
                    6c:7e:a2:aa:43:9a:64:8d:83:6f:5e:91:d4:6b:df:
                    7e:7c:c9:57:30:f2:d4:f2:f7:54:9d:b3:59:78:b8:
                    8e:27:14:2f:ca:db:96:3f:b9:6e:fb:d1:5b:9f:2f:
                    9b:71:99:2b:c0:ba:0b:e2:ff:96:aa:12:4b:6c:b7:
                    20:70:8d:46:e5:c0:8c:4a:ba:10:48:93:aa:44:56:
                    ab:61
                Exponent: 65537 (0x10001)
        X509v3 extensions:
            X509v3 Basic Constraints: 
                CA:FALSE
            X509v3 Subject Key Identifier: 
                E6:F4:D8:AC:6E:17:71:13:9C:B8:54:6A:A9:D1:50:83:EF:F0:8F:A5
            X509v3 Authority Key Identifier: 
                keyid:44:01:CC:06:0B:41:75:CB:C8:FB:C9:37:86:2D:9D:D2:D8:79:B6:8B
                DirName:/C=US/ST=California/L=San Francisco/O=Copyleft Certificate Co/OU=My Organizational Unit/CN=ChangeMe/emailAddress=me@example.net
                serial:AF:E8:E0:DD:C5:8B:0E:DD

            X509v3 Extended Key Usage: 
                TLS Web Client Authentication
            X509v3 Key Usage: 
                Digital Signature
    Signature Algorithm: sha256WithRSAEncryption
         1e:c3:6e:0c:95:84:c7:5e:56:79:7b:d9:39:e5:d9:2c:2a:71:
         46:fd:51:61:e3:a2:55:ba:7f:28:5c:70:01:bd:4a:d5:41:b5:
         7f:1a:66:7c:37:17:db:04:b3:68:0f:32:68:f5:81:fc:b1:49:
         6f:50:42:51:37:17:63:87:5b:38:75:5e:d0:e8:d5:3f:00:06:
         cc:df:0f:74:33:64:27:1c:55:0a:77:f4:fa:9d:37:27:cc:ae:
         f6:16:74:a4:33:ea:75:2a:63:62:44:b2:df:0f:58:54:e6:3d:
         60:24:7e:4c:f0:61:2e:da:cf:2c:b1:96:14:70:41:ef:7d:29:
         7f:35:5a:86:ec:96:0a:11:31:fa:19:23:5a:77:85:06:ba:3a:
         82:1f:b4:69:2d:a9:06:2b:c8:05:47:d6:69:c1:96:b9:55:92:
         30:2b:2d:08:02:0e:41:c1:24:94:b1:10:cb:af:65:63:51:0b:
         96:66:34:35:25:89:b8:a2:3e:38:b9:e6:80:e5:fe:22:f4:ba:
         a7:7a:cd:45:96:45:ab:e1:4f:4c:a6:f4:13:20:c9:4e:c7:66:
         85:bb:1f:9d:12:f6:7f:bf:73:ee:d4:ba:35:78:26:23:2d:41:
         95:5a:d5:2b:f6:8e:7d:b7:54:69:d7:e2:7c:7b:ef:bc:60:5f:
         a2:bb:c9:aa
-----BEGIN CERTIFICATE-----
MIIFLzCCBBegAwIBAgIQEz5JIrSCTetrSz6VSd6KdTANBgkqhkiG9w0BAQsFADCB
rzELMAkGA1UEBhMCVVMxEzARBgNVBAgMCkNhbGlmb3JuaWExFjAUBgNVBAcMDVNh
biBGcmFuY2lzY28xIDAeBgNVBAoMF0NvcHlsZWZ0IENlcnRpZmljYXRlIENvMR8w
HQYDVQQLDBZNeSBPcmdhbml6YXRpb25hbCBVbml0MREwDwYDVQQDDAhDaGFuZ2VN
ZTEdMBsGCSqGSIb3DQEJARYObWVAZXhhbXBsZS5uZXQwHhcNMjMxMTExMTA1ODI0
WhcNMjQxMTEwMTA1ODI0WjCBuzELMAkGA1UEBhMCVVMxCzAJBgNVBAgMAk9IMRMw
EQYDVQQHDApDaW5jaW5uYXRpMSEwHwYDVQQKDBhVbml2ZXJzaXR5IG9mIENpbmNp
bm5hdGkxKjAoBgNVBAsMIURlcHQuIEVsZWMuIENvbXAuIEVuZy4gQ29tcC4gU2Np
LjERMA8GA1UEAwwIY2xpZW50NDcxKDAmBgkqhkiG9w0BCQEWGWZyYW5jb0BnYXVz
cy5lY2Vjcy51Yy5lZHUwggEiMA0GCSqGSIb3DQEBAQUAA4IBDwAwggEKAoIBAQC1
ws1UcA0AjE0Ooq80vuVTXgCIUgYmWjHbtuV0J5mJFTrqfMqB5Mu5AO+xglH5z9G6
SCX1atgbI8M/clkEAOzeRdc7opg+VASHHnd9UbxSd35UaVdb3oVjrUblD0hzyAxW
GtpZswKtdN3agyCQ702ZKcq1606Duy0vFwF841lNwCuG4HAkT8vNiun8cabFRRYy
3ids4cdnAfhxzL8A4OC6MA1u1LOfyG7lpR/7Dk/DeCFm5Wx+oqpDmmSNg29ekdRr
3358yVcw8tTy91Sds1l4uI4nFC/K25Y/uW770VufL5txmSvAugvi/5aqEktstyBw
jUblwIxKuhBIk6pEVqthAgMBAAGjggE3MIIBMzAJBgNVHRMEAjAAMB0GA1UdDgQW
BBTm9NisbhdxE5y4VGqp0VCD7/CPpTCB5AYDVR0jBIHcMIHZgBREAcwGC0F1y8j7
yTeGLZ3S2Hm2i6GBtaSBsjCBrzELMAkGA1UEBhMCVVMxEzARBgNVBAgMCkNhbGlm
b3JuaWExFjAUBgNVBAcMDVNhbiBGcmFuY2lzY28xIDAeBgNVBAoMF0NvcHlsZWZ0
IENlcnRpZmljYXRlIENvMR8wHQYDVQQLDBZNeSBPcmdhbml6YXRpb25hbCBVbml0
MREwDwYDVQQDDAhDaGFuZ2VNZTEdMBsGCSqGSIb3DQEJARYObWVAZXhhbXBsZS5u
ZXSCCQCv6ODdxYsO3TATBgNVHSUEDDAKBggrBgEFBQcDAjALBgNVHQ8EBAMCB4Aw
DQYJKoZIhvcNAQELBQADggEBAB7DbgyVhMdeVnl72Tnl2SwqcUb9UWHjolW6fyhc
cAG9StVBtX8aZnw3F9sEs2gPMmj1gfyxSW9QQlE3F2OHWzh1XtDo1T8ABszfD3Qz
ZCccVQp39PqdNyfMrvYWdKQz6nUqY2JEst8PWFTmPWAkfkzwYS7azyyxlhRwQe99
KX81WobslgoRMfoZI1p3hQa6OoIftGktqQYryAVH1mnBlrlVkjArLQgCDkHBJJSx
EMuvZWNRC5ZmNDUlibiiPji55oDl/iL0uqd6zUWWRavhT0ym9BMgyU7HZoW7H50S
9n+/c+7UujV4JiMtQZVa1Sv2jn23VGnX4nx777xgX6K7yao=
-----END CERTIFICATE-----
