Certificate:
    Data:
        Version: 3 (0x2)
        Serial Number:
            c1:29:67:7e:e1:37:96:66:d6:b3:48:af:2a:51:4d:fb
    Signature Algorithm: sha256WithRSAEncryption
        Issuer: C=US, ST=California, L=San Francisco, O=Copyleft Certificate Co, OU=My Organizational Unit, CN=ChangeMe/emailAddress=me@example.net
        Validity
            Not Before: Nov 11 01:43:46 2023 GMT
            Not After : Nov 10 01:43:46 2024 GMT
        Subject: C=US, ST=OH, L=Cincinnati, O=University of Cincinnati, OU=Dept. Elec. Comp. Eng. Comp. Sci., CN=client61/emailAddress=franco@gauss.ececs.uc.edu
        Subject Public Key Info:
            Public Key Algorithm: rsaEncryption
                Public-Key: (2048 bit)
                Modulus:
                    00:d2:1d:ae:d7:fc:06:3c:e0:1d:cc:1e:52:fc:86:
                    a4:c4:98:b9:77:08:81:f1:1f:3b:10:f7:c0:38:27:
                    3a:b9:cd:c3:2f:b6:8b:21:dd:f9:29:66:39:69:3f:
                    33:42:36:bb:c6:f4:66:bf:6c:ec:9c:98:9e:d7:82:
                    2e:53:b3:10:eb:9d:ca:32:77:54:9b:fa:09:9c:6e:
                    df:c7:e1:86:39:7b:20:95:c8:1f:1c:cf:40:98:8a:
                    f6:ab:dd:ea:8c:22:c7:a0:bd:8e:15:4d:f2:03:3a:
                    df:f0:fb:57:b6:99:6d:a3:9b:46:2c:fe:c4:16:e4:
                    6d:b1:9f:01:45:6c:89:91:f5:bf:ee:08:86:26:c2:
                    4e:6a:07:7e:37:73:45:c9:82:24:cd:74:cf:ba:bd:
                    1c:50:f9:a9:57:df:36:7e:a8:35:cf:9c:bc:94:09:
                    00:e2:3c:fd:16:13:86:3e:a2:46:4f:c1:25:42:82:
                    c8:05:2a:f9:a3:9f:e2:5f:51:67:dc:b0:60:94:a6:
                    ce:6e:ca:84:83:f3:32:a9:3a:50:ac:ad:78:72:0f:
                    29:34:b6:36:61:9f:c3:43:92:8e:a8:0b:59:72:db:
                    52:d5:7a:95:16:8a:12:0f:a2:77:6f:fd:e4:64:c2:
                    8e:d1:70:da:e1:9d:b4:11:5d:91:96:bb:30:71:40:
                    f0:d3
                Exponent: 65537 (0x10001)
        X509v3 extensions:
            X509v3 Basic Constraints: 
                CA:FALSE
            X509v3 Subject Key Identifier: 
                79:FC:17:47:20:E7:3F:C1:54:F3:E0:96:80:65:53:3F:B9:1F:B7:B7
            X509v3 Authority Key Identifier: 
                keyid:73:DE:A0:43:0F:AE:B1:9E:E8:59:69:18:50:A1:1A:1F:D4:A1:E3:F0
                DirName:/C=US/ST=California/L=San Francisco/O=Copyleft Certificate Co/OU=My Organizational Unit/CN=ChangeMe/emailAddress=me@example.net
                serial:E9:BB:CB:16:C5:32:BE:3B

            X509v3 Extended Key Usage: 
                TLS Web Client Authentication
            X509v3 Key Usage: 
                Digital Signature
    Signature Algorithm: sha256WithRSAEncryption
         64:5b:27:89:6b:ad:43:f0:2e:12:d4:b9:2a:20:5d:47:cb:14:
         f4:1d:25:46:0b:58:a9:bb:94:1e:44:07:d3:17:91:21:6a:b7:
         72:0b:78:d6:d1:50:c9:69:5a:d7:da:23:59:a2:38:3b:91:9f:
         69:72:24:a7:29:c2:1c:51:03:bf:22:35:d4:fc:06:18:d7:f9:
         a5:45:8e:24:a3:07:35:77:ec:0a:0c:02:6a:88:35:e2:a9:3a:
         6a:06:7e:6c:39:c7:f6:7e:08:47:3c:e3:ec:df:55:c4:2a:7e:
         a8:c7:35:af:0b:20:ff:1a:4d:19:75:81:43:e7:8e:b8:ce:6f:
         4e:01:1e:5c:4a:e6:91:e2:c5:2d:8d:68:6e:22:25:72:58:03:
         f7:b5:5e:43:7d:6a:2a:cf:c0:7a:bc:f0:40:ba:88:f5:3b:e1:
         25:09:53:b1:42:d3:85:ae:e1:b2:9c:16:d3:b4:d8:08:cc:4c:
         07:17:8b:73:11:0d:c4:8f:77:7e:85:7c:7f:ec:7f:02:59:2e:
         69:b3:6e:19:66:fe:ca:38:6f:8c:45:e8:07:31:16:83:8c:02:
         32:7e:1b:4c:41:b7:2f:3f:b6:ad:4c:f8:f2:97:95:ab:19:07:
         dd:9b:95:53:c7:42:41:8d:7e:3f:db:b0:34:29:6e:75:52:6b:
         b3:33:a9:c6
-----BEGIN CERTIFICATE-----
MIIFMDCCBBigAwIBAgIRAMEpZ37hN5Zm1rNIrypRTfswDQYJKoZIhvcNAQELBQAw
ga8xCzAJBgNVBAYTAlVTMRMwEQYDVQQIDApDYWxpZm9ybmlhMRYwFAYDVQQHDA1T
YW4gRnJhbmNpc2NvMSAwHgYDVQQKDBdDb3B5bGVmdCBDZXJ0aWZpY2F0ZSBDbzEf
MB0GA1UECwwWTXkgT3JnYW5pemF0aW9uYWwgVW5pdDERMA8GA1UEAwwIQ2hhbmdl
TWUxHTAbBgkqhkiG9w0BCQEWDm1lQGV4YW1wbGUubmV0MB4XDTIzMTExMTAxNDM0
NloXDTI0MTExMDAxNDM0NlowgbsxCzAJBgNVBAYTAlVTMQswCQYDVQQIDAJPSDET
MBEGA1UEBwwKQ2luY2lubmF0aTEhMB8GA1UECgwYVW5pdmVyc2l0eSBvZiBDaW5j
aW5uYXRpMSowKAYDVQQLDCFEZXB0LiBFbGVjLiBDb21wLiBFbmcuIENvbXAuIFNj
aS4xETAPBgNVBAMMCGNsaWVudDYxMSgwJgYJKoZIhvcNAQkBFhlmcmFuY29AZ2F1
c3MuZWNlY3MudWMuZWR1MIIBIjANBgkqhkiG9w0BAQEFAAOCAQ8AMIIBCgKCAQEA
0h2u1/wGPOAdzB5S/IakxJi5dwiB8R87EPfAOCc6uc3DL7aLId35KWY5aT8zQja7
xvRmv2zsnJie14IuU7MQ653KMndUm/oJnG7fx+GGOXsglcgfHM9AmIr2q93qjCLH
oL2OFU3yAzrf8PtXtplto5tGLP7EFuRtsZ8BRWyJkfW/7giGJsJOagd+N3NFyYIk
zXTPur0cUPmpV982fqg1z5y8lAkA4jz9FhOGPqJGT8ElQoLIBSr5o5/iX1Fn3LBg
lKbObsqEg/MyqTpQrK14cg8pNLY2YZ/DQ5KOqAtZcttS1XqVFooSD6J3b/3kZMKO
0XDa4Z20EV2RlrswcUDw0wIDAQABo4IBNzCCATMwCQYDVR0TBAIwADAdBgNVHQ4E
FgQUefwXRyDnP8FU8+CWgGVTP7kft7cwgeQGA1UdIwSB3DCB2YAUc96gQw+usZ7o
WWkYUKEaH9Sh4/ChgbWkgbIwga8xCzAJBgNVBAYTAlVTMRMwEQYDVQQIDApDYWxp
Zm9ybmlhMRYwFAYDVQQHDA1TYW4gRnJhbmNpc2NvMSAwHgYDVQQKDBdDb3B5bGVm
dCBDZXJ0aWZpY2F0ZSBDbzEfMB0GA1UECwwWTXkgT3JnYW5pemF0aW9uYWwgVW5p
dDERMA8GA1UEAwwIQ2hhbmdlTWUxHTAbBgkqhkiG9w0BCQEWDm1lQGV4YW1wbGUu
bmV0ggkA6bvLFsUyvjswEwYDVR0lBAwwCgYIKwYBBQUHAwIwCwYDVR0PBAQDAgeA
MA0GCSqGSIb3DQEBCwUAA4IBAQBkWyeJa61D8C4S1LkqIF1HyxT0HSVGC1ipu5Qe
RAfTF5EhardyC3jW0VDJaVrX2iNZojg7kZ9pciSnKcIcUQO/IjXU/AYY1/mlRY4k
owc1d+wKDAJqiDXiqTpqBn5sOcf2fghHPOPs31XEKn6oxzWvCyD/Gk0ZdYFD5464
zm9OAR5cSuaR4sUtjWhuIiVyWAP3tV5DfWoqz8B6vPBAuoj1O+ElCVOxQtOFruGy
nBbTtNgIzEwHF4tzEQ3Ej3d+hXx/7H8CWS5ps24ZZv7KOG+MRegHMRaDjAIyfhtM
QbcvP7atTPjyl5WrGQfdm5VTx0JBjX4/27A0KW51UmuzM6nG
-----END CERTIFICATE-----
