Certificate:
    Data:
        Version: 3 (0x2)
        Serial Number:
            87:a3:f3:0d:39:a2:9f:b7:77:a8:39:9d:02:1d:99:d0
    Signature Algorithm: sha256WithRSAEncryption
        Issuer: C=US, ST=California, L=San Francisco, O=Copyleft Certificate Co, OU=My Organizational Unit, CN=ChangeMe/emailAddress=me@example.net
        Validity
            Not Before: Nov 10 17:44:50 2023 GMT
            Not After : Nov  9 17:44:50 2024 GMT
        Subject: C=US, ST=OH, L=Cincinnati, O=University of Cincinnati, OU=Dept_Elec_Com_ Eng_Com_Sci., CN=client96/emailAddress=franco@gauss.ececs.uc.edu
        Subject Public Key Info:
            Public Key Algorithm: rsaEncryption
                Public-Key: (2048 bit)
                Modulus:
                    00:a5:2c:5f:df:8c:e1:da:5d:bf:92:f8:74:3f:cc:
                    b2:e9:7d:3f:71:43:6d:b6:67:c9:be:84:06:d5:0a:
                    83:42:35:38:d3:89:5d:9c:f6:db:f5:9d:93:3f:0d:
                    c0:04:78:f5:ca:3c:ce:ac:ed:c1:62:58:b2:0a:e0:
                    c4:5e:62:99:71:6d:28:36:83:c1:f3:1e:59:37:b2:
                    83:ca:c2:29:a6:c9:1e:16:7c:41:2c:bf:29:b7:63:
                    fc:8e:71:05:8f:f5:eb:c9:ab:3f:93:f4:13:be:77:
                    1f:02:d9:15:df:45:3c:b4:32:5b:4a:3e:6a:78:28:
                    7d:8d:77:0d:8a:21:8e:ec:d4:b3:19:2f:65:5f:fa:
                    6b:3e:9a:f4:b3:83:33:39:be:9b:1b:7a:fe:94:10:
                    14:be:41:80:2a:b7:5e:16:0c:25:57:69:2d:ee:2b:
                    bd:0d:90:b1:19:3d:b2:84:2c:37:59:ba:21:a1:88:
                    fa:02:71:4c:41:71:b0:80:70:11:a2:11:e4:0c:5d:
                    a1:90:ec:ca:46:12:1a:cb:54:96:4d:a8:e1:e2:a4:
                    1b:c7:63:8c:01:cb:9b:8a:ca:46:5c:3e:38:89:21:
                    d7:9e:b8:52:65:60:47:70:35:81:a9:cf:b7:5c:75:
                    c5:12:42:5c:a1:9a:ee:27:17:15:4b:86:f7:60:e8:
                    3b:a5
                Exponent: 65537 (0x10001)
        X509v3 extensions:
            X509v3 Basic Constraints: 
                CA:FALSE
            X509v3 Subject Key Identifier: 
                C4:9E:81:0D:3D:00:68:9B:04:4B:6E:D8:7F:55:5F:78:97:A4:92:6A
            X509v3 Authority Key Identifier: 
                keyid:C8:27:DA:64:30:08:40:08:4A:25:CC:DC:43:99:DE:77:A1:FE:77:BD
                DirName:/C=US/ST=California/L=San Francisco/O=Copyleft Certificate Co/OU=My Organizational Unit/CN=ChangeMe/emailAddress=me@example.net
                serial:A9:48:C3:7E:FC:1B:B0:A1

            X509v3 Extended Key Usage: 
                TLS Web Client Authentication
            X509v3 Key Usage: 
                Digital Signature
    Signature Algorithm: sha256WithRSAEncryption
         6a:83:47:02:9b:5e:b5:d0:f2:c1:3c:cf:ce:08:00:d0:9f:c7:
         63:8e:1c:94:81:fb:92:f0:fd:6a:85:cd:36:8a:c5:18:ee:8f:
         5e:3a:67:9b:c6:5b:72:a3:40:9c:b8:0c:97:68:fc:9b:43:c6:
         b2:b4:fa:e9:9c:e9:46:7b:d5:3d:fa:e4:ed:35:31:7e:87:a6:
         aa:b8:69:9e:ff:25:96:e7:92:11:1c:bc:e8:f8:87:fc:6a:bc:
         4d:a1:00:94:5a:a9:fc:77:27:b5:66:ae:f3:b9:51:7d:c0:79:
         78:e1:4b:73:f5:55:96:0f:9a:00:3a:52:49:9d:41:a8:32:6a:
         6d:ee:d0:5a:c0:5d:a4:ef:05:98:d8:8a:f3:87:8a:1f:8f:97:
         34:79:2d:45:ba:93:c8:fd:c3:d9:9b:00:5b:f9:b9:a6:d2:fd:
         4c:c5:c5:70:3c:5b:ad:cb:9a:7b:05:1a:e2:f1:68:2d:0b:f3:
         ca:7d:66:8a:04:8e:cc:24:56:ff:4a:c1:59:95:7f:e7:52:13:
         ca:1e:b3:e8:8e:ab:32:47:69:05:7e:e5:90:29:35:2b:ff:28:
         4d:f0:20:4a:da:77:b5:42:2f:c4:af:07:e0:9a:2a:d5:8a:98:
         f1:25:06:c8:a9:44:47:a3:fa:c7:80:ff:44:95:42:49:9a:43:
         a0:eb:fd:73
-----BEGIN CERTIFICATE-----
MIIFKjCCBBKgAwIBAgIRAIej8w05op+3d6g5nQIdmdAwDQYJKoZIhvcNAQELBQAw
ga8xCzAJBgNVBAYTAlVTMRMwEQYDVQQIDApDYWxpZm9ybmlhMRYwFAYDVQQHDA1T
YW4gRnJhbmNpc2NvMSAwHgYDVQQKDBdDb3B5bGVmdCBDZXJ0aWZpY2F0ZSBDbzEf
MB0GA1UECwwWTXkgT3JnYW5pemF0aW9uYWwgVW5pdDERMA8GA1UEAwwIQ2hhbmdl
TWUxHTAbBgkqhkiG9w0BCQEWDm1lQGV4YW1wbGUubmV0MB4XDTIzMTExMDE3NDQ1
MFoXDTI0MTEwOTE3NDQ1MFowgbUxCzAJBgNVBAYTAlVTMQswCQYDVQQIDAJPSDET
MBEGA1UEBwwKQ2luY2lubmF0aTEhMB8GA1UECgwYVW5pdmVyc2l0eSBvZiBDaW5j
aW5uYXRpMSQwIgYDVQQLDBtEZXB0X0VsZWNfQ29tXyBFbmdfQ29tX1NjaS4xETAP
BgNVBAMMCGNsaWVudDk2MSgwJgYJKoZIhvcNAQkBFhlmcmFuY29AZ2F1c3MuZWNl
Y3MudWMuZWR1MIIBIjANBgkqhkiG9w0BAQEFAAOCAQ8AMIIBCgKCAQEApSxf34zh
2l2/kvh0P8yy6X0/cUNttmfJvoQG1QqDQjU404ldnPbb9Z2TPw3ABHj1yjzOrO3B
YliyCuDEXmKZcW0oNoPB8x5ZN7KDysIppskeFnxBLL8pt2P8jnEFj/Xryas/k/QT
vncfAtkV30U8tDJbSj5qeCh9jXcNiiGO7NSzGS9lX/prPpr0s4MzOb6bG3r+lBAU
vkGAKrdeFgwlV2kt7iu9DZCxGT2yhCw3WbohoYj6AnFMQXGwgHARohHkDF2hkOzK
RhIay1SWTajh4qQbx2OMAcubispGXD44iSHXnrhSZWBHcDWBqc+3XHXFEkJcoZru
JxcVS4b3YOg7pQIDAQABo4IBNzCCATMwCQYDVR0TBAIwADAdBgNVHQ4EFgQUxJ6B
DT0AaJsES27Yf1VfeJekkmowgeQGA1UdIwSB3DCB2YAUyCfaZDAIQAhKJczcQ5ne
d6H+d72hgbWkgbIwga8xCzAJBgNVBAYTAlVTMRMwEQYDVQQIDApDYWxpZm9ybmlh
MRYwFAYDVQQHDA1TYW4gRnJhbmNpc2NvMSAwHgYDVQQKDBdDb3B5bGVmdCBDZXJ0
aWZpY2F0ZSBDbzEfMB0GA1UECwwWTXkgT3JnYW5pemF0aW9uYWwgVW5pdDERMA8G
A1UEAwwIQ2hhbmdlTWUxHTAbBgkqhkiG9w0BCQEWDm1lQGV4YW1wbGUubmV0ggkA
qUjDfvwbsKEwEwYDVR0lBAwwCgYIKwYBBQUHAwIwCwYDVR0PBAQDAgeAMA0GCSqG
SIb3DQEBCwUAA4IBAQBqg0cCm1610PLBPM/OCADQn8djjhyUgfuS8P1qhc02isUY
7o9eOmebxltyo0CcuAyXaPybQ8aytPrpnOlGe9U9+uTtNTF+h6aquGme/yWW55IR
HLzo+If8arxNoQCUWqn8dye1Zq7zuVF9wHl44Utz9VWWD5oAOlJJnUGoMmpt7tBa
wF2k7wWY2Irzh4ofj5c0eS1FupPI/cPZmwBb+bmm0v1MxcVwPFuty5p7BRri8Wgt
C/PKfWaKBI7MJFb/SsFZlX/nUhPKHrPojqsyR2kFfuWQKTUr/yhN8CBK2ne1Qi/E
rwfgmirVipjxJQbIqURHo/rHgP9ElUJJmkOg6/1z
-----END CERTIFICATE-----
