Certificate:
    Data:
        Version: 3 (0x2)
        Serial Number:
            d5:87:02:eb:d8:02:cc:e6:2b:98:f6:83:ba:21:12:77
    Signature Algorithm: sha256WithRSAEncryption
        Issuer: C=US, ST=California, L=San Francisco, O=Copyleft Certificate Co, OU=My Organizational Unit, CN=ChangeMe/emailAddress=me@example.net
        Validity
            Not Before: Nov 11 01:59:23 2023 GMT
            Not After : Nov 10 01:59:23 2024 GMT
        Subject: C=US, ST=OH, L=Cincinnati, O=University of Cincinnati, OU=Dept. Elec. Comp. Eng. Comp. Sci., CN=client20/emailAddress=franco@gauss.ececs.uc.edu
        Subject Public Key Info:
            Public Key Algorithm: rsaEncryption
                Public-Key: (2048 bit)
                Modulus:
                    00:ca:f1:04:2d:35:30:f0:cd:06:1d:b5:f7:08:37:
                    3a:77:89:c7:23:4c:e9:65:78:7a:45:f1:15:9d:ce:
                    68:f2:5a:07:7c:62:19:74:10:c1:2e:a6:02:2d:62:
                    62:93:13:17:3b:6f:32:0f:02:b7:63:c1:c7:9e:23:
                    d9:39:f2:b0:89:a9:9d:8a:f8:49:aa:02:f7:20:d7:
                    d2:a8:8d:12:22:b5:8a:04:f9:57:8b:20:c4:3e:ab:
                    80:d9:29:1c:06:84:07:8d:ba:36:3a:3d:2f:91:93:
                    23:f0:a4:42:3e:52:14:4f:cb:c6:30:5d:71:e9:54:
                    82:31:af:c6:31:02:80:46:a3:2a:d7:d6:2e:46:3e:
                    ed:8c:6c:93:fa:47:b3:bd:e7:62:0b:8f:35:49:23:
                    10:77:28:0f:9f:b4:31:c2:73:ca:a3:79:e3:bf:02:
                    75:95:7b:33:3b:e0:ae:82:a4:be:ae:f6:e7:bc:c0:
                    7e:0f:7d:67:03:86:c3:f0:34:05:54:5f:86:50:38:
                    c4:b0:3d:d4:62:d8:13:50:8f:f1:a2:7e:8e:f1:ef:
                    58:43:38:d2:4c:6d:b0:63:e9:f4:20:50:d9:3a:9e:
                    ec:70:b5:e9:a9:05:22:ce:3b:a3:62:0f:14:93:1c:
                    79:09:2c:ea:bc:d5:01:e3:9c:c9:7e:e1:ad:9f:4d:
                    25:f7
                Exponent: 65537 (0x10001)
        X509v3 extensions:
            X509v3 Basic Constraints: 
                CA:FALSE
            X509v3 Subject Key Identifier: 
                39:8B:2D:86:36:B4:6D:55:A7:6C:C8:99:A3:6C:12:D7:1B:EE:80:59
            X509v3 Authority Key Identifier: 
                keyid:7B:0F:93:16:64:9F:71:41:D3:1B:FB:ED:6A:70:9B:CA:2E:70:F0:4B
                DirName:/C=US/ST=California/L=San Francisco/O=Copyleft Certificate Co/OU=My Organizational Unit/CN=ChangeMe/emailAddress=me@example.net
                serial:B9:F2:4E:2C:79:B3:D4:6C

            X509v3 Extended Key Usage: 
                TLS Web Client Authentication
            X509v3 Key Usage: 
                Digital Signature
    Signature Algorithm: sha256WithRSAEncryption
         56:fc:f9:01:b6:e8:17:4c:a3:d3:7d:c9:45:31:b2:39:d4:57:
         f5:91:4e:58:0e:a4:8a:c9:b1:8a:d1:e4:d7:62:29:50:cd:3c:
         e7:ad:c2:86:a5:e4:ea:fb:20:5b:ea:f4:9b:96:f9:81:4d:88:
         00:94:e9:7b:0b:f3:e9:fe:b3:bc:8b:50:21:0b:96:48:de:81:
         29:e2:28:9f:9f:44:a3:82:6c:07:0f:c4:25:a7:9c:61:f9:4e:
         44:25:ff:50:1c:7e:49:aa:0a:95:42:dc:cd:8c:2e:4e:fa:3a:
         47:8d:1e:87:b6:fb:0f:69:5e:9b:4d:bc:60:85:db:41:72:70:
         70:92:0d:50:0f:c6:93:5d:a0:64:66:3b:b7:58:59:52:db:bd:
         fc:7a:10:60:c8:28:92:3d:26:f1:3c:8e:9d:23:5c:14:51:a1:
         b0:05:94:41:8c:fa:63:ce:aa:0c:d9:2f:3d:af:98:55:78:18:
         0d:a5:69:88:4e:fa:88:37:5c:8c:40:da:36:11:3e:c9:e4:dc:
         78:a5:8b:a7:2a:48:93:4b:8e:62:2b:35:7f:e4:6a:ee:86:ce:
         d6:e1:1d:1e:7a:82:40:51:9b:72:47:11:62:8d:16:15:32:c4:
         8b:84:20:81:90:01:25:7a:fb:d2:6f:20:cb:45:b8:3a:75:e7:
         0c:84:ab:10
-----BEGIN CERTIFICATE-----
MIIFMDCCBBigAwIBAgIRANWHAuvYAszmK5j2g7ohEncwDQYJKoZIhvcNAQELBQAw
ga8xCzAJBgNVBAYTAlVTMRMwEQYDVQQIDApDYWxpZm9ybmlhMRYwFAYDVQQHDA1T
YW4gRnJhbmNpc2NvMSAwHgYDVQQKDBdDb3B5bGVmdCBDZXJ0aWZpY2F0ZSBDbzEf
MB0GA1UECwwWTXkgT3JnYW5pemF0aW9uYWwgVW5pdDERMA8GA1UEAwwIQ2hhbmdl
TWUxHTAbBgkqhkiG9w0BCQEWDm1lQGV4YW1wbGUubmV0MB4XDTIzMTExMTAxNTky
M1oXDTI0MTExMDAxNTkyM1owgbsxCzAJBgNVBAYTAlVTMQswCQYDVQQIDAJPSDET
MBEGA1UEBwwKQ2luY2lubmF0aTEhMB8GA1UECgwYVW5pdmVyc2l0eSBvZiBDaW5j
aW5uYXRpMSowKAYDVQQLDCFEZXB0LiBFbGVjLiBDb21wLiBFbmcuIENvbXAuIFNj
aS4xETAPBgNVBAMMCGNsaWVudDIwMSgwJgYJKoZIhvcNAQkBFhlmcmFuY29AZ2F1
c3MuZWNlY3MudWMuZWR1MIIBIjANBgkqhkiG9w0BAQEFAAOCAQ8AMIIBCgKCAQEA
yvEELTUw8M0GHbX3CDc6d4nHI0zpZXh6RfEVnc5o8loHfGIZdBDBLqYCLWJikxMX
O28yDwK3Y8HHniPZOfKwiamdivhJqgL3INfSqI0SIrWKBPlXiyDEPquA2SkcBoQH
jbo2Oj0vkZMj8KRCPlIUT8vGMF1x6VSCMa/GMQKARqMq19YuRj7tjGyT+kezvedi
C481SSMQdygPn7QxwnPKo3njvwJ1lXszO+CugqS+rvbnvMB+D31nA4bD8DQFVF+G
UDjEsD3UYtgTUI/xon6O8e9YQzjSTG2wY+n0IFDZOp7scLXpqQUizjujYg8Ukxx5
CSzqvNUB45zJfuGtn00l9wIDAQABo4IBNzCCATMwCQYDVR0TBAIwADAdBgNVHQ4E
FgQUOYsthja0bVWnbMiZo2wS1xvugFkwgeQGA1UdIwSB3DCB2YAUew+TFmSfcUHT
G/vtanCbyi5w8EuhgbWkgbIwga8xCzAJBgNVBAYTAlVTMRMwEQYDVQQIDApDYWxp
Zm9ybmlhMRYwFAYDVQQHDA1TYW4gRnJhbmNpc2NvMSAwHgYDVQQKDBdDb3B5bGVm
dCBDZXJ0aWZpY2F0ZSBDbzEfMB0GA1UECwwWTXkgT3JnYW5pemF0aW9uYWwgVW5p
dDERMA8GA1UEAwwIQ2hhbmdlTWUxHTAbBgkqhkiG9w0BCQEWDm1lQGV4YW1wbGUu
bmV0ggkAufJOLHmz1GwwEwYDVR0lBAwwCgYIKwYBBQUHAwIwCwYDVR0PBAQDAgeA
MA0GCSqGSIb3DQEBCwUAA4IBAQBW/PkBtugXTKPTfclFMbI51Ff1kU5YDqSKybGK
0eTXYilQzTznrcKGpeTq+yBb6vSblvmBTYgAlOl7C/Pp/rO8i1AhC5ZI3oEp4iif
n0SjgmwHD8Qlp5xh+U5EJf9QHH5JqgqVQtzNjC5O+jpHjR6HtvsPaV6bTbxghdtB
cnBwkg1QD8aTXaBkZju3WFlS2738ehBgyCiSPSbxPI6dI1wUUaGwBZRBjPpjzqoM
2S89r5hVeBgNpWmITvqIN1yMQNo2ET7J5Nx4pYunKkiTS45iKzV/5Gruhs7W4R0e
eoJAUZtyRxFijRYVMsSLhCCBkAElevvSbyDLRbg6decMhKsQ
-----END CERTIFICATE-----
