Certificate:
    Data:
        Version: 3 (0x2)
        Serial Number:
            96:7b:fd:d9:94:15:b2:26:00:62:fa:5b:e4:be:8d:a4
    Signature Algorithm: sha256WithRSAEncryption
        Issuer: C=US, ST=California, L=San Francisco, O=Copyleft Certificate Co, OU=My Organizational Unit, CN=ChangeMe/emailAddress=me@example.net
        Validity
            Not Before: Nov 11 10:57:20 2023 GMT
            Not After : Nov 10 10:57:20 2024 GMT
        Subject: C=US, ST=OH, L=Cincinnati, O=University of Cincinnati, OU=Dept. Elec. Comp. Eng. Comp. Sci., CN=client31/emailAddress=franco@gauss.ececs.uc.edu
        Subject Public Key Info:
            Public Key Algorithm: rsaEncryption
                Public-Key: (2048 bit)
                Modulus:
                    00:e7:71:53:e1:11:7a:50:46:5e:c0:46:bc:95:80:
                    6e:cd:9f:5a:43:35:ce:2e:81:37:5e:0d:49:4f:9c:
                    bb:bc:12:0a:0d:1d:2f:ce:77:ec:58:e0:9a:27:b6:
                    fc:34:fc:7a:c6:28:a4:ab:1d:1c:b8:bb:58:f8:38:
                    52:61:0e:e1:c9:df:cb:8d:c0:76:43:79:07:40:53:
                    9e:65:ac:07:a5:2d:fc:a3:d0:57:ab:6a:f0:d4:37:
                    a2:31:a9:31:b8:50:9b:db:02:34:ee:e9:7f:34:c7:
                    30:7e:9c:be:af:9b:52:b7:8a:af:8c:0a:e5:13:fe:
                    32:eb:01:2f:09:1b:88:07:d4:79:af:c6:4a:41:fd:
                    3d:ec:47:9f:a3:a6:74:b7:71:db:95:52:ed:11:9f:
                    6d:f0:c7:c9:69:60:df:89:09:75:3b:de:ab:20:2a:
                    1e:f7:e5:16:34:92:d5:2e:e8:0c:fd:5e:c8:cb:3c:
                    f8:f8:bd:c0:bc:d6:be:1c:94:46:46:71:47:66:78:
                    28:3e:af:9f:0d:aa:56:04:7b:26:ba:7a:a0:8c:3c:
                    e3:cc:6f:d9:3f:ea:fe:d3:dd:bc:64:f1:72:13:8e:
                    0f:ee:10:07:24:97:75:1c:a8:3c:ee:bc:45:39:f4:
                    e9:dd:74:1a:ee:4a:c6:b7:a9:65:63:3f:0c:1f:9a:
                    68:21
                Exponent: 65537 (0x10001)
        X509v3 extensions:
            X509v3 Basic Constraints: 
                CA:FALSE
            X509v3 Subject Key Identifier: 
                C1:7D:0F:90:2B:2F:1C:6B:D0:F4:B4:6A:A5:9C:07:9E:98:11:8A:FD
            X509v3 Authority Key Identifier: 
                keyid:44:01:CC:06:0B:41:75:CB:C8:FB:C9:37:86:2D:9D:D2:D8:79:B6:8B
                DirName:/C=US/ST=California/L=San Francisco/O=Copyleft Certificate Co/OU=My Organizational Unit/CN=ChangeMe/emailAddress=me@example.net
                serial:AF:E8:E0:DD:C5:8B:0E:DD

            X509v3 Extended Key Usage: 
                TLS Web Client Authentication
            X509v3 Key Usage: 
                Digital Signature
    Signature Algorithm: sha256WithRSAEncryption
         25:fb:be:81:fe:74:7c:47:ba:d9:87:65:3c:e3:f1:65:28:3a:
         c1:d7:5a:6c:b5:2e:d7:a1:74:45:2c:b0:ef:b8:ca:70:4f:1b:
         ef:60:d3:df:9a:b0:38:ee:b6:27:1d:de:7c:72:df:29:3a:e1:
         16:01:2f:e7:db:4c:7e:7a:69:18:8e:79:1c:b9:42:d5:3e:07:
         93:52:80:a1:7b:c9:2c:32:82:02:a1:1c:9d:d2:81:54:6d:4b:
         9c:ec:eb:16:77:db:44:c1:09:fa:e2:81:54:b3:bd:18:93:1a:
         e0:f8:8b:29:73:06:43:6b:ea:d7:d8:76:79:12:72:d5:0d:3b:
         24:b5:b5:98:2f:36:62:8f:8c:af:14:8e:44:a9:7e:10:20:8f:
         74:96:4a:0a:2b:74:f8:99:6d:0e:69:26:0f:80:d1:20:a6:39:
         b3:07:64:ee:52:53:c9:b2:8f:e0:6a:3f:3c:07:fe:ed:13:a5:
         00:a7:c8:be:75:f1:ed:b5:d2:47:02:a1:e7:f6:4b:e7:48:ed:
         76:dd:fa:15:da:f7:18:1f:fa:22:1c:eb:5d:33:4f:06:51:d3:
         db:6b:ba:e7:21:65:27:4a:26:6c:34:68:b9:b9:8c:81:14:76:
         4a:02:a8:65:39:02:f2:83:fe:c1:3e:5d:a4:00:9d:d3:d8:82:
         ef:d0:d0:d6
-----BEGIN CERTIFICATE-----
MIIFMDCCBBigAwIBAgIRAJZ7/dmUFbImAGL6W+S+jaQwDQYJKoZIhvcNAQELBQAw
ga8xCzAJBgNVBAYTAlVTMRMwEQYDVQQIDApDYWxpZm9ybmlhMRYwFAYDVQQHDA1T
YW4gRnJhbmNpc2NvMSAwHgYDVQQKDBdDb3B5bGVmdCBDZXJ0aWZpY2F0ZSBDbzEf
MB0GA1UECwwWTXkgT3JnYW5pemF0aW9uYWwgVW5pdDERMA8GA1UEAwwIQ2hhbmdl
TWUxHTAbBgkqhkiG9w0BCQEWDm1lQGV4YW1wbGUubmV0MB4XDTIzMTExMTEwNTcy
MFoXDTI0MTExMDEwNTcyMFowgbsxCzAJBgNVBAYTAlVTMQswCQYDVQQIDAJPSDET
MBEGA1UEBwwKQ2luY2lubmF0aTEhMB8GA1UECgwYVW5pdmVyc2l0eSBvZiBDaW5j
aW5uYXRpMSowKAYDVQQLDCFEZXB0LiBFbGVjLiBDb21wLiBFbmcuIENvbXAuIFNj
aS4xETAPBgNVBAMMCGNsaWVudDMxMSgwJgYJKoZIhvcNAQkBFhlmcmFuY29AZ2F1
c3MuZWNlY3MudWMuZWR1MIIBIjANBgkqhkiG9w0BAQEFAAOCAQ8AMIIBCgKCAQEA
53FT4RF6UEZewEa8lYBuzZ9aQzXOLoE3Xg1JT5y7vBIKDR0vznfsWOCaJ7b8NPx6
xiikqx0cuLtY+DhSYQ7hyd/LjcB2Q3kHQFOeZawHpS38o9BXq2rw1DeiMakxuFCb
2wI07ul/NMcwfpy+r5tSt4qvjArlE/4y6wEvCRuIB9R5r8ZKQf097Eefo6Z0t3Hb
lVLtEZ9t8MfJaWDfiQl1O96rICoe9+UWNJLVLugM/V7Iyzz4+L3AvNa+HJRGRnFH
ZngoPq+fDapWBHsmunqgjDzjzG/ZP+r+0928ZPFyE44P7hAHJJd1HKg87rxFOfTp
3XQa7krGt6llYz8MH5poIQIDAQABo4IBNzCCATMwCQYDVR0TBAIwADAdBgNVHQ4E
FgQUwX0PkCsvHGvQ9LRqpZwHnpgRiv0wgeQGA1UdIwSB3DCB2YAURAHMBgtBdcvI
+8k3hi2d0th5touhgbWkgbIwga8xCzAJBgNVBAYTAlVTMRMwEQYDVQQIDApDYWxp
Zm9ybmlhMRYwFAYDVQQHDA1TYW4gRnJhbmNpc2NvMSAwHgYDVQQKDBdDb3B5bGVm
dCBDZXJ0aWZpY2F0ZSBDbzEfMB0GA1UECwwWTXkgT3JnYW5pemF0aW9uYWwgVW5p
dDERMA8GA1UEAwwIQ2hhbmdlTWUxHTAbBgkqhkiG9w0BCQEWDm1lQGV4YW1wbGUu
bmV0ggkAr+jg3cWLDt0wEwYDVR0lBAwwCgYIKwYBBQUHAwIwCwYDVR0PBAQDAgeA
MA0GCSqGSIb3DQEBCwUAA4IBAQAl+76B/nR8R7rZh2U84/FlKDrB11pstS7XoXRF
LLDvuMpwTxvvYNPfmrA47rYnHd58ct8pOuEWAS/n20x+emkYjnkcuULVPgeTUoCh
e8ksMoICoRyd0oFUbUuc7OsWd9tEwQn64oFUs70Ykxrg+IspcwZDa+rX2HZ5EnLV
DTsktbWYLzZij4yvFI5EqX4QII90lkoKK3T4mW0OaSYPgNEgpjmzB2TuUlPJso/g
aj88B/7tE6UAp8i+dfHttdJHAqHn9kvnSO123foV2vcYH/oiHOtdM08GUdPba7rn
IWUnSiZsNGi5uYyBFHZKAqhlOQLyg/7BPl2kAJ3T2ILv0NDW
-----END CERTIFICATE-----
