Certificate:
    Data:
        Version: 3 (0x2)
        Serial Number:
            f1:9a:f2:fd:38:3d:00:e2:58:d4:1f:24:f9:80:fa:38
    Signature Algorithm: sha256WithRSAEncryption
        Issuer: C=US, ST=California, L=San Francisco, O=Copyleft Certificate Co, OU=My Organizational Unit, CN=ChangeMe/emailAddress=me@example.net
        Validity
            Not Before: Nov 11 01:49:14 2023 GMT
            Not After : Nov 10 01:49:14 2024 GMT
        Subject: C=US, ST=OH, L=Cincinnati, O=University of Cincinnati, OU=Dept. Elec. Comp. Eng. Comp. Sci., CN=client143/emailAddress=franco@gauss.ececs.uc.edu
        Subject Public Key Info:
            Public Key Algorithm: rsaEncryption
                Public-Key: (2048 bit)
                Modulus:
                    00:f8:6f:d4:17:f6:8f:6c:a8:03:b0:e5:b6:0a:b4:
                    22:81:30:21:c2:0b:e8:fe:d9:c7:2c:ba:61:a6:10:
                    9a:c0:67:c3:08:b6:74:dc:79:f0:d2:5b:8f:dc:c3:
                    56:be:9a:4b:3e:89:4b:5b:ce:59:36:66:f4:b5:a7:
                    30:a8:1d:49:8b:34:fe:58:3f:a9:ba:7a:19:2c:1b:
                    ec:f1:ae:f2:d2:c0:8a:93:b4:36:25:96:37:48:77:
                    00:48:1b:b0:67:fb:3a:8e:9e:e4:f3:61:d5:a7:6f:
                    cf:b8:76:00:3c:23:8c:a1:b6:cd:95:97:bb:a2:39:
                    cf:1e:7a:cd:b7:63:67:07:b2:bb:49:70:76:a2:ae:
                    86:f3:a8:59:56:15:43:15:38:a7:75:95:89:b0:a4:
                    2f:fc:09:e1:c9:fd:88:a2:38:e0:5e:20:82:f5:6a:
                    e5:47:4f:11:09:d5:3d:f5:2d:69:1d:fc:c4:3a:cd:
                    77:3a:bb:2e:4e:b6:bb:fe:5f:ea:95:94:0b:d6:9a:
                    04:0a:d8:63:17:d0:af:7a:19:16:10:6a:54:ca:82:
                    62:16:93:28:f8:ac:47:0e:1f:da:ef:9d:7b:59:73:
                    4d:0a:ae:63:50:ed:45:ac:56:7b:1f:e5:24:6d:1f:
                    88:3f:af:06:83:8b:cf:73:c5:fe:99:e2:3f:6d:62:
                    7e:75
                Exponent: 65537 (0x10001)
        X509v3 extensions:
            X509v3 Basic Constraints: 
                CA:FALSE
            X509v3 Subject Key Identifier: 
                EA:D5:A6:F3:F7:4D:5B:51:F8:87:82:10:7A:01:BA:7C:E9:CA:6A:AE
            X509v3 Authority Key Identifier: 
                keyid:73:DE:A0:43:0F:AE:B1:9E:E8:59:69:18:50:A1:1A:1F:D4:A1:E3:F0
                DirName:/C=US/ST=California/L=San Francisco/O=Copyleft Certificate Co/OU=My Organizational Unit/CN=ChangeMe/emailAddress=me@example.net
                serial:E9:BB:CB:16:C5:32:BE:3B

            X509v3 Extended Key Usage: 
                TLS Web Client Authentication
            X509v3 Key Usage: 
                Digital Signature
    Signature Algorithm: sha256WithRSAEncryption
         0d:51:eb:5f:6b:dd:c7:f0:18:03:d3:55:48:3e:f7:7e:a7:38:
         e2:1b:ba:7d:c3:a1:9e:b5:c4:13:8e:bc:95:f3:f1:39:73:3e:
         a5:e0:76:4d:2e:41:26:2f:cd:db:85:61:36:24:91:42:1d:bc:
         5d:bc:ae:5c:3b:5f:80:02:bf:60:ab:82:f7:53:c5:cb:37:7a:
         c6:0d:8d:c8:98:91:7e:08:46:cf:6f:e0:3f:b0:6f:39:fb:ba:
         7c:ff:f3:ea:30:23:dd:7e:44:59:2e:de:4e:7f:cc:ba:44:5f:
         53:10:e4:98:39:69:99:5f:c2:27:12:c3:67:38:09:3c:e2:df:
         ba:e8:46:bd:c1:8d:a3:14:d0:7f:df:e9:88:ef:3f:24:c3:60:
         f7:90:95:a7:c7:87:b0:19:26:9e:27:d3:7f:10:db:5b:3a:46:
         be:72:fe:02:3d:2d:c0:ba:52:59:bd:dd:f3:bc:2f:41:6c:5b:
         8f:23:6c:01:f0:47:18:d2:c9:76:51:6a:db:03:82:c3:75:38:
         7c:f7:16:58:40:cc:1f:ab:ba:5a:1e:6b:84:9f:de:a1:61:f0:
         7b:8f:eb:47:67:12:82:6b:ee:07:0e:c8:0d:90:d6:4a:4c:14:
         33:9a:96:a3:b8:37:10:8a:42:ac:68:77:b5:8b:76:3a:24:2f:
         8c:0f:35:4a
-----BEGIN CERTIFICATE-----
MIIFMTCCBBmgAwIBAgIRAPGa8v04PQDiWNQfJPmA+jgwDQYJKoZIhvcNAQELBQAw
ga8xCzAJBgNVBAYTAlVTMRMwEQYDVQQIDApDYWxpZm9ybmlhMRYwFAYDVQQHDA1T
YW4gRnJhbmNpc2NvMSAwHgYDVQQKDBdDb3B5bGVmdCBDZXJ0aWZpY2F0ZSBDbzEf
MB0GA1UECwwWTXkgT3JnYW5pemF0aW9uYWwgVW5pdDERMA8GA1UEAwwIQ2hhbmdl
TWUxHTAbBgkqhkiG9w0BCQEWDm1lQGV4YW1wbGUubmV0MB4XDTIzMTExMTAxNDkx
NFoXDTI0MTExMDAxNDkxNFowgbwxCzAJBgNVBAYTAlVTMQswCQYDVQQIDAJPSDET
MBEGA1UEBwwKQ2luY2lubmF0aTEhMB8GA1UECgwYVW5pdmVyc2l0eSBvZiBDaW5j
aW5uYXRpMSowKAYDVQQLDCFEZXB0LiBFbGVjLiBDb21wLiBFbmcuIENvbXAuIFNj
aS4xEjAQBgNVBAMMCWNsaWVudDE0MzEoMCYGCSqGSIb3DQEJARYZZnJhbmNvQGdh
dXNzLmVjZWNzLnVjLmVkdTCCASIwDQYJKoZIhvcNAQEBBQADggEPADCCAQoCggEB
APhv1Bf2j2yoA7Dltgq0IoEwIcIL6P7Zxyy6YaYQmsBnwwi2dNx58NJbj9zDVr6a
Sz6JS1vOWTZm9LWnMKgdSYs0/lg/qbp6GSwb7PGu8tLAipO0NiWWN0h3AEgbsGf7
Oo6e5PNh1advz7h2ADwjjKG2zZWXu6I5zx56zbdjZweyu0lwdqKuhvOoWVYVQxU4
p3WVibCkL/wJ4cn9iKI44F4ggvVq5UdPEQnVPfUtaR38xDrNdzq7Lk62u/5f6pWU
C9aaBArYYxfQr3oZFhBqVMqCYhaTKPisRw4f2u+de1lzTQquY1DtRaxWex/lJG0f
iD+vBoOLz3PF/pniP21ifnUCAwEAAaOCATcwggEzMAkGA1UdEwQCMAAwHQYDVR0O
BBYEFOrVpvP3TVtR+IeCEHoBunzpymquMIHkBgNVHSMEgdwwgdmAFHPeoEMPrrGe
6FlpGFChGh/UoePwoYG1pIGyMIGvMQswCQYDVQQGEwJVUzETMBEGA1UECAwKQ2Fs
aWZvcm5pYTEWMBQGA1UEBwwNU2FuIEZyYW5jaXNjbzEgMB4GA1UECgwXQ29weWxl
ZnQgQ2VydGlmaWNhdGUgQ28xHzAdBgNVBAsMFk15IE9yZ2FuaXphdGlvbmFsIFVu
aXQxETAPBgNVBAMMCENoYW5nZU1lMR0wGwYJKoZIhvcNAQkBFg5tZUBleGFtcGxl
Lm5ldIIJAOm7yxbFMr47MBMGA1UdJQQMMAoGCCsGAQUFBwMCMAsGA1UdDwQEAwIH
gDANBgkqhkiG9w0BAQsFAAOCAQEADVHrX2vdx/AYA9NVSD73fqc44hu6fcOhnrXE
E468lfPxOXM+peB2TS5BJi/N24VhNiSRQh28XbyuXDtfgAK/YKuC91PFyzd6xg2N
yJiRfghGz2/gP7BvOfu6fP/z6jAj3X5EWS7eTn/MukRfUxDkmDlpmV/CJxLDZzgJ
POLfuuhGvcGNoxTQf9/piO8/JMNg95CVp8eHsBkmnifTfxDbWzpGvnL+Aj0twLpS
Wb3d87wvQWxbjyNsAfBHGNLJdlFq2wOCw3U4fPcWWEDMH6u6Wh5rhJ/eoWHwe4/r
R2cSgmvuBw7IDZDWSkwUM5qWo7g3EIpCrGh3tYt2OiQvjA81Sg==
-----END CERTIFICATE-----
