Certificate:
    Data:
        Version: 3 (0x2)
        Serial Number:
            18:b0:e2:8c:14:c7:0c:8e:2e:91:0c:84:d9:32:ce:90
    Signature Algorithm: sha256WithRSAEncryption
        Issuer: C=US, ST=California, L=San Francisco, O=Copyleft Certificate Co, OU=My Organizational Unit, CN=ChangeMe/emailAddress=me@example.net
        Validity
            Not Before: Nov 10 17:45:10 2023 GMT
            Not After : Nov  9 17:45:10 2024 GMT
        Subject: C=US, ST=OH, L=Cincinnati, O=University of Cincinnati, OU=Dept_Elec_Com_ Eng_Com_Sci., CN=client101/emailAddress=franco@gauss.ececs.uc.edu
        Subject Public Key Info:
            Public Key Algorithm: rsaEncryption
                Public-Key: (2048 bit)
                Modulus:
                    00:cf:53:7e:84:6a:52:25:c8:71:69:d6:99:4d:ea:
                    3a:42:d0:4b:b7:64:01:5d:20:23:b3:be:7f:0c:87:
                    3e:34:17:dd:6a:eb:06:91:84:cc:33:29:80:81:f0:
                    44:aa:3d:6b:61:f9:e8:94:46:c3:32:72:3c:78:d6:
                    14:33:78:fa:af:0c:e7:7c:4e:40:44:a4:df:ef:5c:
                    ea:39:6a:f3:2d:cd:15:30:51:a2:74:e0:5b:a0:de:
                    0b:4f:89:ce:f7:4c:54:57:df:c1:69:c5:14:7f:ff:
                    97:25:d7:f2:8f:49:f0:69:54:79:cf:31:56:41:1b:
                    a9:da:64:56:e6:22:b6:50:45:c7:3b:5d:3f:42:c4:
                    3b:cd:7b:53:c4:52:91:c1:3d:42:46:85:eb:cc:e6:
                    0e:95:40:cd:7e:1b:c0:c7:e8:3a:a5:82:58:fe:b9:
                    4b:2c:a6:cd:22:f6:9e:9b:0d:af:b0:63:23:7a:d0:
                    2f:fa:4f:10:52:2c:7a:e5:d1:5c:7f:da:e6:a7:a7:
                    ec:5b:58:25:25:fa:1b:14:94:e0:a1:3c:1e:51:65:
                    91:55:a7:32:46:92:60:62:86:de:bb:c2:0f:43:bb:
                    d3:74:1b:c4:2b:15:c5:7a:ef:90:b1:9d:c7:b2:b2:
                    c1:f6:a7:3d:5d:43:43:19:f2:5d:d6:33:30:f1:a9:
                    fd:77
                Exponent: 65537 (0x10001)
        X509v3 extensions:
            X509v3 Basic Constraints: 
                CA:FALSE
            X509v3 Subject Key Identifier: 
                83:45:DB:0F:04:1C:14:B7:5B:55:9B:DB:AC:A5:73:9E:02:B3:1C:B8
            X509v3 Authority Key Identifier: 
                keyid:C8:27:DA:64:30:08:40:08:4A:25:CC:DC:43:99:DE:77:A1:FE:77:BD
                DirName:/C=US/ST=California/L=San Francisco/O=Copyleft Certificate Co/OU=My Organizational Unit/CN=ChangeMe/emailAddress=me@example.net
                serial:A9:48:C3:7E:FC:1B:B0:A1

            X509v3 Extended Key Usage: 
                TLS Web Client Authentication
            X509v3 Key Usage: 
                Digital Signature
    Signature Algorithm: sha256WithRSAEncryption
         c5:9d:53:e7:eb:e9:cb:e7:3c:aa:70:10:fa:03:c2:d5:11:99:
         aa:28:5f:37:cd:b3:9d:0e:f4:3f:00:6e:1f:ed:de:26:ff:27:
         5b:d7:a1:1b:4a:41:0a:0b:2f:ce:8a:d0:85:98:a4:91:ee:77:
         10:df:d1:b9:82:f4:aa:97:9b:06:62:f3:1e:48:c6:91:a7:b2:
         d4:41:d6:c8:2e:20:15:e0:60:33:91:6f:a5:94:5f:25:de:32:
         46:0b:ff:38:a3:ab:82:dc:32:4e:f8:e8:79:a0:3c:58:11:9c:
         9e:74:3f:d9:b4:95:59:02:ba:28:2c:9b:cd:d6:ee:ee:85:51:
         47:2c:45:12:01:dd:ca:22:02:58:46:68:63:a1:91:e4:d0:ae:
         76:b8:32:76:a1:87:c3:05:ab:df:e6:bf:9f:d9:61:15:71:95:
         ca:29:23:00:9a:ae:85:a1:da:91:19:a8:a5:62:7e:e6:7e:09:
         93:80:1b:8c:ac:00:9a:e5:ba:08:45:0e:77:8e:71:39:90:94:
         ed:bd:96:30:77:e9:ce:f8:af:54:44:50:95:2f:b0:24:e0:95:
         e9:d8:91:e3:a9:84:99:56:c5:65:86:57:1b:31:c6:03:27:74:
         53:6f:d2:5c:23:90:48:90:7b:2c:e3:3c:9d:6a:25:85:18:70:
         16:b6:cb:d4
-----BEGIN CERTIFICATE-----
MIIFKjCCBBKgAwIBAgIQGLDijBTHDI4ukQyE2TLOkDANBgkqhkiG9w0BAQsFADCB
rzELMAkGA1UEBhMCVVMxEzARBgNVBAgMCkNhbGlmb3JuaWExFjAUBgNVBAcMDVNh
biBGcmFuY2lzY28xIDAeBgNVBAoMF0NvcHlsZWZ0IENlcnRpZmljYXRlIENvMR8w
HQYDVQQLDBZNeSBPcmdhbml6YXRpb25hbCBVbml0MREwDwYDVQQDDAhDaGFuZ2VN
ZTEdMBsGCSqGSIb3DQEJARYObWVAZXhhbXBsZS5uZXQwHhcNMjMxMTEwMTc0NTEw
WhcNMjQxMTA5MTc0NTEwWjCBtjELMAkGA1UEBhMCVVMxCzAJBgNVBAgMAk9IMRMw
EQYDVQQHDApDaW5jaW5uYXRpMSEwHwYDVQQKDBhVbml2ZXJzaXR5IG9mIENpbmNp
bm5hdGkxJDAiBgNVBAsMG0RlcHRfRWxlY19Db21fIEVuZ19Db21fU2NpLjESMBAG
A1UEAwwJY2xpZW50MTAxMSgwJgYJKoZIhvcNAQkBFhlmcmFuY29AZ2F1c3MuZWNl
Y3MudWMuZWR1MIIBIjANBgkqhkiG9w0BAQEFAAOCAQ8AMIIBCgKCAQEAz1N+hGpS
JchxadaZTeo6QtBLt2QBXSAjs75/DIc+NBfdausGkYTMMymAgfBEqj1rYfnolEbD
MnI8eNYUM3j6rwznfE5ARKTf71zqOWrzLc0VMFGidOBboN4LT4nO90xUV9/BacUU
f/+XJdfyj0nwaVR5zzFWQRup2mRW5iK2UEXHO10/QsQ7zXtTxFKRwT1CRoXrzOYO
lUDNfhvAx+g6pYJY/rlLLKbNIvaemw2vsGMjetAv+k8QUix65dFcf9rmp6fsW1gl
JfobFJTgoTweUWWRVacyRpJgYobeu8IPQ7vTdBvEKxXFeu+QsZ3HsrLB9qc9XUND
GfJd1jMw8an9dwIDAQABo4IBNzCCATMwCQYDVR0TBAIwADAdBgNVHQ4EFgQUg0Xb
DwQcFLdbVZvbrKVzngKzHLgwgeQGA1UdIwSB3DCB2YAUyCfaZDAIQAhKJczcQ5ne
d6H+d72hgbWkgbIwga8xCzAJBgNVBAYTAlVTMRMwEQYDVQQIDApDYWxpZm9ybmlh
MRYwFAYDVQQHDA1TYW4gRnJhbmNpc2NvMSAwHgYDVQQKDBdDb3B5bGVmdCBDZXJ0
aWZpY2F0ZSBDbzEfMB0GA1UECwwWTXkgT3JnYW5pemF0aW9uYWwgVW5pdDERMA8G
A1UEAwwIQ2hhbmdlTWUxHTAbBgkqhkiG9w0BCQEWDm1lQGV4YW1wbGUubmV0ggkA
qUjDfvwbsKEwEwYDVR0lBAwwCgYIKwYBBQUHAwIwCwYDVR0PBAQDAgeAMA0GCSqG
SIb3DQEBCwUAA4IBAQDFnVPn6+nL5zyqcBD6A8LVEZmqKF83zbOdDvQ/AG4f7d4m
/ydb16EbSkEKCy/OitCFmKSR7ncQ39G5gvSql5sGYvMeSMaRp7LUQdbILiAV4GAz
kW+llF8l3jJGC/84o6uC3DJO+Oh5oDxYEZyedD/ZtJVZArooLJvN1u7uhVFHLEUS
Ad3KIgJYRmhjoZHk0K52uDJ2oYfDBavf5r+f2WEVcZXKKSMAmq6FodqRGailYn7m
fgmTgBuMrACa5boIRQ53jnE5kJTtvZYwd+nO+K9URFCVL7Ak4JXp2JHjqYSZVsVl
hlcbMcYDJ3RTb9JcI5BIkHss4zydaiWFGHAWtsvU
-----END CERTIFICATE-----
