Certificate:
    Data:
        Version: 3 (0x2)
        Serial Number:
            a3:1f:97:3d:00:f1:dd:02:11:5b:7c:3b:52:e6:33:ae
    Signature Algorithm: sha256WithRSAEncryption
        Issuer: C=US, ST=California, L=San Francisco, O=Copyleft Certificate Co, OU=My Organizational Unit, CN=ChangeMe/emailAddress=me@example.net
        Validity
            Not Before: Nov 11 01:49:10 2023 GMT
            Not After : Nov 10 01:49:10 2024 GMT
        Subject: C=US, ST=OH, L=Cincinnati, O=University of Cincinnati, OU=Dept. Elec. Comp. Eng. Comp. Sci., CN=client142/emailAddress=franco@gauss.ececs.uc.edu
        Subject Public Key Info:
            Public Key Algorithm: rsaEncryption
                Public-Key: (2048 bit)
                Modulus:
                    00:b3:dd:49:de:19:f4:1d:b3:83:9d:83:11:53:71:
                    c0:b2:04:f8:b6:88:ef:34:e7:e5:4b:33:25:e8:24:
                    3d:40:37:db:fc:01:f2:61:fe:10:30:98:f4:fc:35:
                    6a:b0:fb:a6:0a:6d:69:82:27:cc:2d:ef:25:d0:a8:
                    0d:87:9e:87:e3:fc:b4:9b:19:f6:d9:18:e9:55:a8:
                    2e:c9:78:27:4a:c9:69:e7:5f:36:c8:0f:fc:fe:e4:
                    1e:bc:61:4f:64:32:b0:5b:73:5f:b5:f8:c4:dc:3d:
                    66:af:5f:6b:c2:c0:22:92:fd:37:09:18:b7:40:c5:
                    1c:6b:eb:85:08:93:a8:bc:53:30:5e:18:cb:a8:ef:
                    f1:d3:6b:c8:b6:a9:1a:35:82:53:e8:d7:6c:bb:b7:
                    42:b0:e3:bd:1c:da:f2:51:83:c5:36:1d:2c:da:63:
                    5d:f7:72:53:3f:14:81:c5:90:33:7c:76:15:1c:0e:
                    39:bb:22:6c:2c:bf:52:11:36:0a:2f:22:27:13:5a:
                    80:2b:24:38:ab:ca:f9:f6:bb:f8:33:32:b5:8a:e9:
                    6f:16:4f:6d:19:0f:6e:26:97:d8:ce:13:af:30:ac:
                    33:9a:f1:18:dd:aa:40:6b:01:14:de:c1:a2:41:f8:
                    ff:d8:e0:c4:ce:1e:26:7f:58:80:38:ef:f6:4e:15:
                    3d:b9
                Exponent: 65537 (0x10001)
        X509v3 extensions:
            X509v3 Basic Constraints: 
                CA:FALSE
            X509v3 Subject Key Identifier: 
                27:01:0E:1B:FC:00:F3:6B:0A:44:44:52:E1:C0:7D:51:45:BA:24:CF
            X509v3 Authority Key Identifier: 
                keyid:73:DE:A0:43:0F:AE:B1:9E:E8:59:69:18:50:A1:1A:1F:D4:A1:E3:F0
                DirName:/C=US/ST=California/L=San Francisco/O=Copyleft Certificate Co/OU=My Organizational Unit/CN=ChangeMe/emailAddress=me@example.net
                serial:E9:BB:CB:16:C5:32:BE:3B

            X509v3 Extended Key Usage: 
                TLS Web Client Authentication
            X509v3 Key Usage: 
                Digital Signature
    Signature Algorithm: sha256WithRSAEncryption
         44:aa:8a:8b:c2:85:1e:cf:f9:1c:16:0c:67:f2:6e:bc:ac:9f:
         91:98:78:6c:b4:a8:14:4c:ce:a5:fd:18:ab:02:45:51:4a:27:
         1b:22:64:7e:36:a7:a6:bb:69:c0:aa:75:61:1a:1d:5d:4c:9f:
         6c:c8:87:ba:84:ec:74:e8:92:e8:53:a7:49:66:d6:be:00:ae:
         a7:24:72:ee:22:67:91:b4:47:06:1d:fd:7a:24:bd:f5:3a:f1:
         5e:ea:70:63:34:79:48:94:45:ba:ce:67:aa:20:4d:88:5f:23:
         c3:54:04:89:4e:7c:c9:d8:b2:30:cd:cc:99:88:3d:e0:3b:ad:
         e6:71:9c:ab:03:4a:49:98:27:5a:fb:e6:68:76:8a:0d:f8:cd:
         b7:9d:42:44:7d:7c:36:7b:05:68:cc:c6:1f:00:5c:89:09:32:
         14:9e:11:72:d0:db:e3:5c:16:ce:3b:7a:27:76:2a:64:32:f7:
         ef:1d:c3:22:68:86:a3:b6:c9:59:7b:3c:4d:a1:35:95:3b:d5:
         c4:85:6d:f7:56:17:8f:0a:59:fb:a4:bd:65:cf:40:c0:cd:b9:
         f4:fb:58:dd:f6:31:f5:0a:21:6f:c8:ce:2c:fa:51:7f:b6:1c:
         ac:4b:1a:0c:a7:87:a7:5b:af:e6:24:ec:0d:98:04:f5:e8:72:
         6e:b2:7c:2c
-----BEGIN CERTIFICATE-----
MIIFMTCCBBmgAwIBAgIRAKMflz0A8d0CEVt8O1LmM64wDQYJKoZIhvcNAQELBQAw
ga8xCzAJBgNVBAYTAlVTMRMwEQYDVQQIDApDYWxpZm9ybmlhMRYwFAYDVQQHDA1T
YW4gRnJhbmNpc2NvMSAwHgYDVQQKDBdDb3B5bGVmdCBDZXJ0aWZpY2F0ZSBDbzEf
MB0GA1UECwwWTXkgT3JnYW5pemF0aW9uYWwgVW5pdDERMA8GA1UEAwwIQ2hhbmdl
TWUxHTAbBgkqhkiG9w0BCQEWDm1lQGV4YW1wbGUubmV0MB4XDTIzMTExMTAxNDkx
MFoXDTI0MTExMDAxNDkxMFowgbwxCzAJBgNVBAYTAlVTMQswCQYDVQQIDAJPSDET
MBEGA1UEBwwKQ2luY2lubmF0aTEhMB8GA1UECgwYVW5pdmVyc2l0eSBvZiBDaW5j
aW5uYXRpMSowKAYDVQQLDCFEZXB0LiBFbGVjLiBDb21wLiBFbmcuIENvbXAuIFNj
aS4xEjAQBgNVBAMMCWNsaWVudDE0MjEoMCYGCSqGSIb3DQEJARYZZnJhbmNvQGdh
dXNzLmVjZWNzLnVjLmVkdTCCASIwDQYJKoZIhvcNAQEBBQADggEPADCCAQoCggEB
ALPdSd4Z9B2zg52DEVNxwLIE+LaI7zTn5UszJegkPUA32/wB8mH+EDCY9Pw1arD7
pgptaYInzC3vJdCoDYeeh+P8tJsZ9tkY6VWoLsl4J0rJaedfNsgP/P7kHrxhT2Qy
sFtzX7X4xNw9Zq9fa8LAIpL9NwkYt0DFHGvrhQiTqLxTMF4Yy6jv8dNryLapGjWC
U+jXbLu3QrDjvRza8lGDxTYdLNpjXfdyUz8UgcWQM3x2FRwOObsibCy/UhE2Ci8i
JxNagCskOKvK+fa7+DMytYrpbxZPbRkPbiaX2M4TrzCsM5rxGN2qQGsBFN7BokH4
/9jgxM4eJn9YgDjv9k4VPbkCAwEAAaOCATcwggEzMAkGA1UdEwQCMAAwHQYDVR0O
BBYEFCcBDhv8APNrCkREUuHAfVFFuiTPMIHkBgNVHSMEgdwwgdmAFHPeoEMPrrGe
6FlpGFChGh/UoePwoYG1pIGyMIGvMQswCQYDVQQGEwJVUzETMBEGA1UECAwKQ2Fs
aWZvcm5pYTEWMBQGA1UEBwwNU2FuIEZyYW5jaXNjbzEgMB4GA1UECgwXQ29weWxl
ZnQgQ2VydGlmaWNhdGUgQ28xHzAdBgNVBAsMFk15IE9yZ2FuaXphdGlvbmFsIFVu
aXQxETAPBgNVBAMMCENoYW5nZU1lMR0wGwYJKoZIhvcNAQkBFg5tZUBleGFtcGxl
Lm5ldIIJAOm7yxbFMr47MBMGA1UdJQQMMAoGCCsGAQUFBwMCMAsGA1UdDwQEAwIH
gDANBgkqhkiG9w0BAQsFAAOCAQEARKqKi8KFHs/5HBYMZ/JuvKyfkZh4bLSoFEzO
pf0YqwJFUUonGyJkfjanprtpwKp1YRodXUyfbMiHuoTsdOiS6FOnSWbWvgCupyRy
7iJnkbRHBh39eiS99TrxXupwYzR5SJRFus5nqiBNiF8jw1QEiU58ydiyMM3MmYg9
4Dut5nGcqwNKSZgnWvvmaHaKDfjNt51CRH18NnsFaMzGHwBciQkyFJ4RctDb41wW
zjt6J3YqZDL37x3DImiGo7bJWXs8TaE1lTvVxIVt91YXjwpZ+6S9Zc9AwM259PtY
3fYx9Qohb8jOLPpRf7YcrEsaDKeHp1uv5iTsDZgE9ehybrJ8LA==
-----END CERTIFICATE-----
