Certificate:
    Data:
        Version: 3 (0x2)
        Serial Number:
            4e:85:84:d1:e1:0e:4b:0d:ac:f4:09:7a:88:7b:40:01
    Signature Algorithm: sha256WithRSAEncryption
        Issuer: C=US, ST=California, L=San Francisco, O=Copyleft Certificate Co, OU=My Organizational Unit, CN=ChangeMe/emailAddress=me@example.net
        Validity
            Not Before: Jan 23 18:27:16 2021 GMT
            Not After : Jan 23 18:27:16 2022 GMT
        Subject: C=US, ST=OH, L=Cincinnati, O=University of Cincinnati, OU=Dept. Electrical Eng. and Computer Sci., CN=client0/emailAddress=franco@gauss.ececs.uc.edu
        Subject Public Key Info:
            Public Key Algorithm: rsaEncryption
                Public-Key: (2048 bit)
                Modulus:
                    00:c6:4d:ef:f3:dd:1e:d1:eb:97:79:7b:49:b2:67:
                    9e:18:08:75:bf:55:a2:08:52:dc:c4:6d:6b:82:7b:
                    50:e6:0d:97:94:ff:6d:ea:13:aa:33:b1:03:c7:86:
                    e5:be:f8:18:e3:22:3a:18:64:54:a7:68:2a:83:77:
                    32:04:e5:50:9a:74:2f:73:93:af:9d:a8:84:41:5e:
                    d4:f0:c6:22:51:df:93:26:0e:b6:50:14:35:74:28:
                    63:4e:15:a7:68:09:da:2f:c3:ef:28:46:c0:66:99:
                    a1:9d:7b:65:14:72:a0:1a:71:2d:65:16:e5:3e:d2:
                    80:06:c4:46:95:e3:ed:0f:48:ec:79:cc:98:bd:c2:
                    b3:55:4a:40:b0:74:57:7e:7f:e5:be:0e:55:3d:f2:
                    b1:cb:7f:ea:7f:a0:44:f1:9e:63:c1:01:c1:72:dd:
                    fd:9f:b9:17:f2:a0:6d:0c:70:cd:00:94:fe:c8:f4:
                    f5:8f:2b:47:c3:f3:a0:3c:04:3a:bb:de:c8:19:07:
                    70:ce:1e:24:a0:58:06:24:82:65:db:69:48:ac:45:
                    fd:22:9a:57:ab:31:12:53:06:2a:c4:7b:c0:3b:ce:
                    3c:d9:76:96:41:12:48:fb:e9:4a:a3:81:39:49:19:
                    e0:8f:63:90:0c:6b:54:89:97:ee:0b:6a:3e:a6:08:
                    c9:99
                Exponent: 65537 (0x10001)
        X509v3 extensions:
            X509v3 Basic Constraints: 
                CA:FALSE
            X509v3 Subject Key Identifier: 
                97:49:E3:EC:C0:34:76:D8:8C:CD:19:F3:9A:F6:DB:D4:87:F9:7B:D7
            X509v3 Authority Key Identifier: 
                keyid:EF:DC:B6:3D:4B:FD:A7:87:05:C5:22:3D:8B:DC:BF:99:2A:EE:E4:DB
                DirName:/C=US/ST=California/L=San Francisco/O=Copyleft Certificate Co/OU=My Organizational Unit/CN=ChangeMe/emailAddress=me@example.net
                serial:87:1E:1D:DC:6B:8C:66:88

            X509v3 Extended Key Usage: 
                TLS Web Client Authentication
            X509v3 Key Usage: 
                Digital Signature
    Signature Algorithm: sha256WithRSAEncryption
         24:a4:22:92:65:55:4b:1a:f4:9c:67:e1:e5:65:2b:a2:4a:a6:
         7b:11:5c:66:97:c7:4f:68:87:3b:ea:de:97:47:9a:9c:0b:b9:
         ef:d1:64:2a:6b:2c:e2:87:ba:23:c9:ad:c3:5b:23:14:43:e2:
         16:e3:c2:de:ca:f7:fa:01:df:a2:83:46:0c:92:11:1c:36:cd:
         ab:d3:18:e4:b6:2b:e8:09:bd:30:e4:f4:37:63:8f:19:c7:1b:
         8f:49:4a:93:e7:53:f4:52:95:ff:a0:a3:a7:e3:13:9d:2c:a1:
         4f:a1:b9:8b:eb:17:fc:cf:05:30:10:e4:3e:a3:2c:5e:c7:b5:
         07:6f:83:1b:a2:b9:d0:27:58:06:56:8a:0b:ed:12:27:33:16:
         0b:1e:86:2e:bb:5e:69:47:43:35:e3:db:34:11:14:98:46:c2:
         ed:01:ce:25:14:a9:ec:34:c2:20:0b:ed:df:4f:28:14:2f:7d:
         18:8d:59:96:fc:0f:9d:fc:49:a5:51:c2:d5:e1:b6:88:f0:13:
         5a:3b:36:72:e1:34:fd:8d:fc:3f:66:60:8b:d0:6a:e7:17:f1:
         a0:89:99:3e:cc:9a:3f:40:ab:ce:72:ea:36:fa:ca:ff:53:28:
         b4:64:56:a8:02:9c:2e:87:94:20:27:dd:94:0a:3a:21:bf:e6:
         10:d6:7f:a2
-----BEGIN CERTIFICATE-----
MIIFNDCCBBygAwIBAgIQToWE0eEOSw2s9Al6iHtAATANBgkqhkiG9w0BAQsFADCB
rzELMAkGA1UEBhMCVVMxEzARBgNVBAgMCkNhbGlmb3JuaWExFjAUBgNVBAcMDVNh
biBGcmFuY2lzY28xIDAeBgNVBAoMF0NvcHlsZWZ0IENlcnRpZmljYXRlIENvMR8w
HQYDVQQLDBZNeSBPcmdhbml6YXRpb25hbCBVbml0MREwDwYDVQQDDAhDaGFuZ2VN
ZTEdMBsGCSqGSIb3DQEJARYObWVAZXhhbXBsZS5uZXQwHhcNMjEwMTIzMTgyNzE2
WhcNMjIwMTIzMTgyNzE2WjCBwDELMAkGA1UEBhMCVVMxCzAJBgNVBAgMAk9IMRMw
EQYDVQQHDApDaW5jaW5uYXRpMSEwHwYDVQQKDBhVbml2ZXJzaXR5IG9mIENpbmNp
bm5hdGkxMDAuBgNVBAsMJ0RlcHQuIEVsZWN0cmljYWwgRW5nLiBhbmQgQ29tcHV0
ZXIgU2NpLjEQMA4GA1UEAwwHY2xpZW50MDEoMCYGCSqGSIb3DQEJARYZZnJhbmNv
QGdhdXNzLmVjZWNzLnVjLmVkdTCCASIwDQYJKoZIhvcNAQEBBQADggEPADCCAQoC
ggEBAMZN7/PdHtHrl3l7SbJnnhgIdb9VoghS3MRta4J7UOYNl5T/beoTqjOxA8eG
5b74GOMiOhhkVKdoKoN3MgTlUJp0L3OTr52ohEFe1PDGIlHfkyYOtlAUNXQoY04V
p2gJ2i/D7yhGwGaZoZ17ZRRyoBpxLWUW5T7SgAbERpXj7Q9I7HnMmL3Cs1VKQLB0
V35/5b4OVT3ysct/6n+gRPGeY8EBwXLd/Z+5F/KgbQxwzQCU/sj09Y8rR8PzoDwE
OrveyBkHcM4eJKBYBiSCZdtpSKxF/SKaV6sxElMGKsR7wDvOPNl2lkESSPvpSqOB
OUkZ4I9jkAxrVImX7gtqPqYIyZkCAwEAAaOCATcwggEzMAkGA1UdEwQCMAAwHQYD
VR0OBBYEFJdJ4+zANHbYjM0Z85r229SH+XvXMIHkBgNVHSMEgdwwgdmAFO/ctj1L
/aeHBcUiPYvcv5kq7uTboYG1pIGyMIGvMQswCQYDVQQGEwJVUzETMBEGA1UECAwK
Q2FsaWZvcm5pYTEWMBQGA1UEBwwNU2FuIEZyYW5jaXNjbzEgMB4GA1UECgwXQ29w
eWxlZnQgQ2VydGlmaWNhdGUgQ28xHzAdBgNVBAsMFk15IE9yZ2FuaXphdGlvbmFs
IFVuaXQxETAPBgNVBAMMCENoYW5nZU1lMR0wGwYJKoZIhvcNAQkBFg5tZUBleGFt
cGxlLm5ldIIJAIceHdxrjGaIMBMGA1UdJQQMMAoGCCsGAQUFBwMCMAsGA1UdDwQE
AwIHgDANBgkqhkiG9w0BAQsFAAOCAQEAJKQikmVVSxr0nGfh5WUrokqmexFcZpfH
T2iHO+rel0eanAu579FkKmss4oe6I8mtw1sjFEPiFuPC3sr3+gHfooNGDJIRHDbN
q9MY5LYr6Am9MOT0N2OPGccbj0lKk+dT9FKV/6Cjp+MTnSyhT6G5i+sX/M8FMBDk
PqMsXse1B2+DG6K50CdYBlaKC+0SJzMWCx6GLrteaUdDNePbNBEUmEbC7QHOJRSp
7DTCIAvt308oFC99GI1ZlvwPnfxJpVHC1eG2iPATWjs2cuE0/Y38P2Zgi9Bq5xfx
oImZPsyaP0CrznLqNvrK/1MotGRWqAKcLoeUICfdlAo6Ib/mENZ/og==
-----END CERTIFICATE-----
