Certificate:
    Data:
        Version: 3 (0x2)
        Serial Number:
            c8:fc:97:02:ac:15:8d:36:13:34:e7:d3:ba:7d:9a:31
    Signature Algorithm: sha256WithRSAEncryption
        Issuer: C=US, ST=California, L=San Francisco, O=Copyleft Certificate Co, OU=My Organizational Unit, CN=ChangeMe/emailAddress=me@example.net
        Validity
            Not Before: Nov 10 17:43:21 2023 GMT
            Not After : Nov  9 17:43:21 2024 GMT
        Subject: C=US, ST=OH, L=Cincinnati, O=University of Cincinnati, OU=Dept_Elec_Com_ Eng_Com_Sci., CN=client74/emailAddress=franco@gauss.ececs.uc.edu
        Subject Public Key Info:
            Public Key Algorithm: rsaEncryption
                Public-Key: (2048 bit)
                Modulus:
                    00:d8:d6:96:98:b4:1a:82:df:d5:32:b0:99:8e:78:
                    9e:99:24:4b:d3:a2:bb:2d:8e:b4:b4:08:14:9f:88:
                    ff:8b:38:34:da:2d:92:3d:d9:b5:e0:54:54:9d:67:
                    68:09:4f:0c:c8:a3:39:9e:2e:9b:d3:a7:30:8f:9e:
                    98:e1:cf:b8:cd:c1:cc:4d:2c:df:1f:36:9a:ea:0d:
                    08:e3:ff:c1:e6:f6:66:c1:16:c5:d4:c1:bb:2a:60:
                    9a:8a:d2:55:b4:61:56:9d:14:4a:41:e8:ea:b7:5b:
                    43:09:f1:ff:ba:f3:ce:a8:96:e7:65:80:7e:d5:39:
                    fe:cb:c4:45:a6:e6:a9:db:e0:df:39:91:f0:e4:4c:
                    54:4c:c5:ba:6e:4e:78:4b:08:80:66:d4:8c:e2:2b:
                    c3:28:fa:e0:96:35:1a:89:9d:48:46:82:3d:67:b4:
                    bc:93:b4:d5:50:af:29:55:2b:6e:ae:cd:92:20:f2:
                    7c:88:5a:b9:14:9f:58:be:24:77:5b:3e:b9:c6:49:
                    af:2d:d3:0a:ab:36:8b:7f:90:40:4a:f2:88:32:d5:
                    d5:ce:b2:a5:b3:e3:4c:fe:6f:3c:6e:73:a4:80:4b:
                    db:2c:d1:ed:61:f7:c0:59:75:a5:1a:31:4c:ac:98:
                    3c:ab:cc:76:c3:a0:b1:10:44:00:48:c3:73:59:55:
                    26:8f
                Exponent: 65537 (0x10001)
        X509v3 extensions:
            X509v3 Basic Constraints: 
                CA:FALSE
            X509v3 Subject Key Identifier: 
                8B:07:36:B1:A3:93:63:54:FD:2F:05:36:83:8C:EE:7D:C7:07:A9:81
            X509v3 Authority Key Identifier: 
                keyid:C8:27:DA:64:30:08:40:08:4A:25:CC:DC:43:99:DE:77:A1:FE:77:BD
                DirName:/C=US/ST=California/L=San Francisco/O=Copyleft Certificate Co/OU=My Organizational Unit/CN=ChangeMe/emailAddress=me@example.net
                serial:A9:48:C3:7E:FC:1B:B0:A1

            X509v3 Extended Key Usage: 
                TLS Web Client Authentication
            X509v3 Key Usage: 
                Digital Signature
    Signature Algorithm: sha256WithRSAEncryption
         4a:79:be:0e:d5:f2:7f:df:fd:05:55:fa:9f:4d:c1:5c:e6:c7:
         43:9c:24:9e:c6:c3:31:a6:26:18:0d:fd:6f:4e:7c:f3:c1:ae:
         ab:b0:48:13:18:fe:bc:c0:b8:b8:08:7d:a1:83:b8:08:60:5f:
         26:16:9a:83:c8:b4:b5:a9:e1:4b:4d:26:17:24:ce:94:02:1a:
         29:c3:cb:aa:92:52:84:9d:58:70:37:6f:75:b6:9f:56:ec:38:
         1c:2c:12:91:55:87:ff:5e:67:04:e7:16:bc:5e:e5:4d:d3:95:
         17:29:8b:69:7a:41:c7:30:d5:5e:8e:6f:9a:23:f1:94:84:10:
         11:94:12:f0:8f:de:4b:9a:9b:cc:c2:60:05:6e:b2:b5:a9:66:
         79:0d:e9:2c:00:90:99:49:03:a2:fb:9e:31:b9:6b:0c:86:8d:
         27:ba:70:02:28:a3:90:d2:a8:f2:87:b9:c2:8c:de:27:ce:72:
         83:27:83:ac:6f:d0:46:38:a3:0f:6a:7e:36:b6:b8:5e:6a:89:
         58:45:1a:a3:32:09:34:43:d6:02:34:d7:20:de:f5:a7:6b:50:
         03:2d:2f:79:e9:14:be:fc:f7:92:1f:1e:da:8b:92:cb:12:15:
         e7:e9:b4:24:df:96:03:76:c6:6d:6c:e1:b9:83:28:49:6e:39:
         61:99:64:0e
-----BEGIN CERTIFICATE-----
MIIFKjCCBBKgAwIBAgIRAMj8lwKsFY02EzTn07p9mjEwDQYJKoZIhvcNAQELBQAw
ga8xCzAJBgNVBAYTAlVTMRMwEQYDVQQIDApDYWxpZm9ybmlhMRYwFAYDVQQHDA1T
YW4gRnJhbmNpc2NvMSAwHgYDVQQKDBdDb3B5bGVmdCBDZXJ0aWZpY2F0ZSBDbzEf
MB0GA1UECwwWTXkgT3JnYW5pemF0aW9uYWwgVW5pdDERMA8GA1UEAwwIQ2hhbmdl
TWUxHTAbBgkqhkiG9w0BCQEWDm1lQGV4YW1wbGUubmV0MB4XDTIzMTExMDE3NDMy
MVoXDTI0MTEwOTE3NDMyMVowgbUxCzAJBgNVBAYTAlVTMQswCQYDVQQIDAJPSDET
MBEGA1UEBwwKQ2luY2lubmF0aTEhMB8GA1UECgwYVW5pdmVyc2l0eSBvZiBDaW5j
aW5uYXRpMSQwIgYDVQQLDBtEZXB0X0VsZWNfQ29tXyBFbmdfQ29tX1NjaS4xETAP
BgNVBAMMCGNsaWVudDc0MSgwJgYJKoZIhvcNAQkBFhlmcmFuY29AZ2F1c3MuZWNl
Y3MudWMuZWR1MIIBIjANBgkqhkiG9w0BAQEFAAOCAQ8AMIIBCgKCAQEA2NaWmLQa
gt/VMrCZjniemSRL06K7LY60tAgUn4j/izg02i2SPdm14FRUnWdoCU8MyKM5ni6b
06cwj56Y4c+4zcHMTSzfHzaa6g0I4//B5vZmwRbF1MG7KmCaitJVtGFWnRRKQejq
t1tDCfH/uvPOqJbnZYB+1Tn+y8RFpuap2+DfOZHw5ExUTMW6bk54SwiAZtSM4ivD
KPrgljUaiZ1IRoI9Z7S8k7TVUK8pVSturs2SIPJ8iFq5FJ9YviR3Wz65xkmvLdMK
qzaLf5BASvKIMtXVzrKls+NM/m88bnOkgEvbLNHtYffAWXWlGjFMrJg8q8x2w6Cx
EEQASMNzWVUmjwIDAQABo4IBNzCCATMwCQYDVR0TBAIwADAdBgNVHQ4EFgQUiwc2
saOTY1T9LwU2g4zufccHqYEwgeQGA1UdIwSB3DCB2YAUyCfaZDAIQAhKJczcQ5ne
d6H+d72hgbWkgbIwga8xCzAJBgNVBAYTAlVTMRMwEQYDVQQIDApDYWxpZm9ybmlh
MRYwFAYDVQQHDA1TYW4gRnJhbmNpc2NvMSAwHgYDVQQKDBdDb3B5bGVmdCBDZXJ0
aWZpY2F0ZSBDbzEfMB0GA1UECwwWTXkgT3JnYW5pemF0aW9uYWwgVW5pdDERMA8G
A1UEAwwIQ2hhbmdlTWUxHTAbBgkqhkiG9w0BCQEWDm1lQGV4YW1wbGUubmV0ggkA
qUjDfvwbsKEwEwYDVR0lBAwwCgYIKwYBBQUHAwIwCwYDVR0PBAQDAgeAMA0GCSqG
SIb3DQEBCwUAA4IBAQBKeb4O1fJ/3/0FVfqfTcFc5sdDnCSexsMxpiYYDf1vTnzz
wa6rsEgTGP68wLi4CH2hg7gIYF8mFpqDyLS1qeFLTSYXJM6UAhopw8uqklKEnVhw
N291tp9W7DgcLBKRVYf/XmcE5xa8XuVN05UXKYtpekHHMNVejm+aI/GUhBARlBLw
j95LmpvMwmAFbrK1qWZ5DeksAJCZSQOi+54xuWsMho0nunACKKOQ0qjyh7nCjN4n
znKDJ4Osb9BGOKMPan42trheaolYRRqjMgk0Q9YCNNcg3vWna1ADLS956RS+/PeS
Hx7ai5LLEhXn6bQk35YDdsZtbOG5gyhJbjlhmWQO
-----END CERTIFICATE-----
