Certificate:
    Data:
        Version: 3 (0x2)
        Serial Number:
            e6:56:f5:d0:1b:47:94:1a:e8:09:54:89:0e:29:a8:1b
    Signature Algorithm: sha256WithRSAEncryption
        Issuer: C=US, ST=California, L=San Francisco, O=Copyleft Certificate Co, OU=My Organizational Unit, CN=ChangeMe/emailAddress=me@example.net
        Validity
            Not Before: Nov 13 11:47:42 2023 GMT
            Not After : Nov 12 11:47:42 2024 GMT
        Subject: C=US, ST=OH, L=Cincinnati, O=University of Cincinnati, OU=Dept. Elec. Comp. Eng. Comp. Sci., CN=client19/emailAddress=franco@gauss.ececs.uc.edu
        Subject Public Key Info:
            Public Key Algorithm: rsaEncryption
                Public-Key: (2048 bit)
                Modulus:
                    00:be:b2:f8:06:26:fb:6c:7b:fe:b3:7e:ac:bd:a8:
                    e0:02:77:2c:d3:69:3a:e7:2a:c3:3e:d8:ca:24:94:
                    c6:3c:96:ae:f1:70:5c:02:8f:4c:aa:29:32:d5:09:
                    13:2e:30:0e:e8:e2:d5:aa:8d:63:a3:7e:9e:1f:a0:
                    08:62:0d:1d:96:ef:46:39:dc:94:57:15:9f:71:d9:
                    11:1e:f2:30:33:1b:f9:03:f4:de:5e:18:05:7a:9d:
                    69:1c:98:ab:6d:68:8f:77:3d:0c:98:16:8a:2a:84:
                    d0:91:3b:67:28:bf:42:af:b9:1c:97:2e:e3:ba:d1:
                    e9:a2:92:ab:1e:f0:a2:36:3b:8f:51:d9:3b:e4:be:
                    be:83:dd:34:9f:0d:5c:13:e3:d1:45:c0:1f:4c:db:
                    8f:52:34:50:72:46:3f:a5:6c:a4:1b:92:6d:25:2c:
                    01:61:3e:7e:9f:92:b7:b4:3a:b5:22:bf:6e:63:87:
                    9c:c6:b3:5e:ab:dd:67:b0:99:6b:11:80:8d:59:73:
                    95:23:cb:0b:dc:15:74:62:4f:41:54:99:70:bd:59:
                    66:16:75:cb:cd:25:66:05:35:4a:63:18:16:de:60:
                    af:66:f9:a9:a7:fd:44:a3:d7:4b:48:5a:8b:c1:cf:
                    e7:99:e1:c0:22:2a:63:ff:41:1a:ab:9b:23:08:7d:
                    7d:ed
                Exponent: 65537 (0x10001)
        X509v3 extensions:
            X509v3 Basic Constraints: 
                CA:FALSE
            X509v3 Subject Key Identifier: 
                94:CB:06:DC:71:BE:8B:E0:6E:05:CF:8B:BE:90:00:78:57:37:AF:47
            X509v3 Authority Key Identifier: 
                keyid:B4:AE:AB:ED:FC:ED:84:AA:AD:77:5D:7C:84:28:1C:CA:CE:AE:2A:44
                DirName:/C=US/ST=California/L=San Francisco/O=Copyleft Certificate Co/OU=My Organizational Unit/CN=ChangeMe/emailAddress=me@example.net
                serial:BD:6C:3B:F4:D3:07:C9:D1

            X509v3 Extended Key Usage: 
                TLS Web Client Authentication
            X509v3 Key Usage: 
                Digital Signature
    Signature Algorithm: sha256WithRSAEncryption
         91:e3:dc:5b:c7:2d:3a:97:7d:a5:77:83:43:ca:e2:14:22:63:
         f5:2f:dc:da:61:e5:97:36:c1:e3:6a:ba:6d:03:e9:38:22:ad:
         7e:8d:3a:c9:15:1b:ff:04:69:7a:6f:6c:bf:2d:ad:ba:7d:1a:
         f6:fd:25:4b:2c:c1:77:01:d1:90:f1:3c:10:43:8e:32:7b:99:
         ad:8c:b6:7b:4c:36:26:f5:71:a1:8d:d5:da:62:df:9b:1b:ca:
         f8:93:d7:bb:97:84:8c:12:ba:31:fe:dc:ba:22:fa:c0:a1:ba:
         e6:ab:58:17:fd:d7:1f:80:4a:65:3c:e3:be:b3:21:a1:63:b7:
         85:41:53:ab:71:78:33:86:a5:23:b7:93:12:79:8b:9c:e3:f1:
         11:36:a1:e9:44:f2:55:73:90:a9:2d:30:f2:22:c1:39:e5:f6:
         70:61:c8:70:8d:fe:4a:d7:ea:23:f6:5d:6b:34:91:88:b8:ac:
         ca:27:44:89:88:22:ee:d2:5f:e1:7b:98:47:9e:97:3a:7c:27:
         f3:f0:c1:95:da:26:b9:cf:48:d2:f2:4a:ba:69:45:f5:44:a0:
         5e:2f:35:e1:36:e0:0d:31:6d:a5:14:06:c1:41:0c:9f:db:61:
         b5:c1:82:d7:14:01:84:00:7e:2a:e4:5b:e3:de:58:3c:36:60:
         b6:fe:5c:53
-----BEGIN CERTIFICATE-----
MIIFMDCCBBigAwIBAgIRAOZW9dAbR5Qa6AlUiQ4pqBswDQYJKoZIhvcNAQELBQAw
ga8xCzAJBgNVBAYTAlVTMRMwEQYDVQQIDApDYWxpZm9ybmlhMRYwFAYDVQQHDA1T
YW4gRnJhbmNpc2NvMSAwHgYDVQQKDBdDb3B5bGVmdCBDZXJ0aWZpY2F0ZSBDbzEf
MB0GA1UECwwWTXkgT3JnYW5pemF0aW9uYWwgVW5pdDERMA8GA1UEAwwIQ2hhbmdl
TWUxHTAbBgkqhkiG9w0BCQEWDm1lQGV4YW1wbGUubmV0MB4XDTIzMTExMzExNDc0
MloXDTI0MTExMjExNDc0MlowgbsxCzAJBgNVBAYTAlVTMQswCQYDVQQIDAJPSDET
MBEGA1UEBwwKQ2luY2lubmF0aTEhMB8GA1UECgwYVW5pdmVyc2l0eSBvZiBDaW5j
aW5uYXRpMSowKAYDVQQLDCFEZXB0LiBFbGVjLiBDb21wLiBFbmcuIENvbXAuIFNj
aS4xETAPBgNVBAMMCGNsaWVudDE5MSgwJgYJKoZIhvcNAQkBFhlmcmFuY29AZ2F1
c3MuZWNlY3MudWMuZWR1MIIBIjANBgkqhkiG9w0BAQEFAAOCAQ8AMIIBCgKCAQEA
vrL4Bib7bHv+s36svajgAncs02k65yrDPtjKJJTGPJau8XBcAo9Mqiky1QkTLjAO
6OLVqo1jo36eH6AIYg0dlu9GOdyUVxWfcdkRHvIwMxv5A/TeXhgFep1pHJirbWiP
dz0MmBaKKoTQkTtnKL9Cr7kcly7jutHpopKrHvCiNjuPUdk75L6+g900nw1cE+PR
RcAfTNuPUjRQckY/pWykG5JtJSwBYT5+n5K3tDq1Ir9uY4ecxrNeq91nsJlrEYCN
WXOVI8sL3BV0Yk9BVJlwvVlmFnXLzSVmBTVKYxgW3mCvZvmpp/1Eo9dLSFqLwc/n
meHAIipj/0Eaq5sjCH197QIDAQABo4IBNzCCATMwCQYDVR0TBAIwADAdBgNVHQ4E
FgQUlMsG3HG+i+BuBc+LvpAAeFc3r0cwgeQGA1UdIwSB3DCB2YAUtK6r7fzthKqt
d118hCgcys6uKkShgbWkgbIwga8xCzAJBgNVBAYTAlVTMRMwEQYDVQQIDApDYWxp
Zm9ybmlhMRYwFAYDVQQHDA1TYW4gRnJhbmNpc2NvMSAwHgYDVQQKDBdDb3B5bGVm
dCBDZXJ0aWZpY2F0ZSBDbzEfMB0GA1UECwwWTXkgT3JnYW5pemF0aW9uYWwgVW5p
dDERMA8GA1UEAwwIQ2hhbmdlTWUxHTAbBgkqhkiG9w0BCQEWDm1lQGV4YW1wbGUu
bmV0ggkAvWw79NMHydEwEwYDVR0lBAwwCgYIKwYBBQUHAwIwCwYDVR0PBAQDAgeA
MA0GCSqGSIb3DQEBCwUAA4IBAQCR49xbxy06l32ld4NDyuIUImP1L9zaYeWXNsHj
arptA+k4Iq1+jTrJFRv/BGl6b2y/La26fRr2/SVLLMF3AdGQ8TwQQ44ye5mtjLZ7
TDYm9XGhjdXaYt+bG8r4k9e7l4SMErox/ty6IvrAobrmq1gX/dcfgEplPOO+syGh
Y7eFQVOrcXgzhqUjt5MSeYuc4/ERNqHpRPJVc5CpLTDyIsE55fZwYchwjf5K1+oj
9l1rNJGIuKzKJ0SJiCLu0l/he5hHnpc6fCfz8MGV2ia5z0jS8kq6aUX1RKBeLzXh
NuANMW2lFAbBQQyf22G1wYLXFAGEAH4q5Fvj3lg8NmC2/lxT
-----END CERTIFICATE-----
