Certificate:
    Data:
        Version: 3 (0x2)
        Serial Number:
            40:03:aa:5a:49:81:41:3b:5d:4b:0f:02:9e:f9:fc:92
    Signature Algorithm: sha256WithRSAEncryption
        Issuer: C=US, ST=California, L=San Francisco, O=Copyleft Certificate Co, OU=My Organizational Unit, CN=ChangeMe/emailAddress=me@example.net
        Validity
            Not Before: Nov 11 01:43:22 2023 GMT
            Not After : Nov 10 01:43:22 2024 GMT
        Subject: C=US, ST=OH, L=Cincinnati, O=University of Cincinnati, OU=Dept. Elec. Comp. Eng. Comp. Sci., CN=client55/emailAddress=franco@gauss.ececs.uc.edu
        Subject Public Key Info:
            Public Key Algorithm: rsaEncryption
                Public-Key: (2048 bit)
                Modulus:
                    00:b1:60:b9:05:09:4a:84:77:aa:3a:69:a8:19:78:
                    bf:d2:b5:76:b9:ae:14:9e:f5:ea:a9:87:14:86:30:
                    1b:ab:fd:2f:a5:a9:31:ec:85:ff:b8:75:7a:c5:ca:
                    aa:5b:6d:d0:02:38:41:bc:31:18:d6:42:39:cc:a6:
                    75:1b:40:26:ef:89:33:76:83:3e:87:c6:26:58:14:
                    97:83:49:96:ef:71:c6:76:f3:05:0b:07:f8:66:50:
                    11:a9:1d:87:2d:aa:cc:80:14:0c:52:13:a6:b8:aa:
                    01:05:a6:f6:58:2d:4c:62:6a:97:a6:cf:ff:1c:59:
                    3e:0e:21:2d:27:4d:05:f8:c2:5f:44:3b:78:4e:f4:
                    76:a2:22:5a:97:fa:56:9c:dc:f6:ff:19:8c:0b:4f:
                    81:09:09:5f:1f:85:0d:bc:8b:4a:19:36:2e:7b:77:
                    56:ee:d9:41:98:83:f1:f9:79:47:c3:ec:b0:a8:a5:
                    1e:b5:e6:d4:8d:b7:36:73:92:b1:1e:00:52:45:ec:
                    03:91:04:07:3e:d5:6a:09:36:5c:50:a0:b4:dd:ea:
                    54:7d:30:38:3b:7e:0a:ff:3a:a5:bb:5d:18:91:8e:
                    02:47:a2:d5:87:b1:b5:1c:08:88:81:d7:e2:c4:82:
                    c4:e8:2c:ac:36:e7:52:30:8c:b8:44:f3:af:5f:67:
                    37:e9
                Exponent: 65537 (0x10001)
        X509v3 extensions:
            X509v3 Basic Constraints: 
                CA:FALSE
            X509v3 Subject Key Identifier: 
                07:0C:DB:FA:A5:4F:19:E9:0F:1C:F5:E4:DA:6A:A2:4A:DF:48:65:B9
            X509v3 Authority Key Identifier: 
                keyid:73:DE:A0:43:0F:AE:B1:9E:E8:59:69:18:50:A1:1A:1F:D4:A1:E3:F0
                DirName:/C=US/ST=California/L=San Francisco/O=Copyleft Certificate Co/OU=My Organizational Unit/CN=ChangeMe/emailAddress=me@example.net
                serial:E9:BB:CB:16:C5:32:BE:3B

            X509v3 Extended Key Usage: 
                TLS Web Client Authentication
            X509v3 Key Usage: 
                Digital Signature
    Signature Algorithm: sha256WithRSAEncryption
         ad:40:9a:4f:07:0c:50:e0:c2:15:97:f3:a4:bc:37:57:9e:11:
         c4:3d:a5:f2:7c:5d:92:d3:24:a4:2e:4c:f1:1d:b9:9d:25:29:
         d4:79:ca:60:8d:ed:c0:ee:00:ea:6f:6e:b6:48:66:13:09:5e:
         63:cb:ad:c8:bd:76:7d:53:7d:f0:33:a9:5e:56:74:a4:f4:a4:
         6c:09:88:4c:e1:ed:d9:8a:de:27:04:80:1b:34:f5:c0:fd:43:
         56:3b:0e:c0:8e:18:41:38:a4:55:f8:dc:b9:c0:c0:c6:5e:48:
         c6:5c:0e:f4:80:8c:0d:5b:32:79:7d:f3:a1:b0:14:f0:00:2e:
         4b:51:b5:11:ba:83:50:37:1a:5b:b3:f2:84:07:10:2a:25:ea:
         3f:2f:76:b5:65:95:e6:d4:62:c8:d1:96:b9:2d:e1:ae:64:af:
         24:ba:db:09:ee:fe:10:51:8e:ff:b1:9e:73:3a:c1:de:99:1e:
         0b:33:c1:f3:88:d9:86:95:1d:43:19:fd:74:ad:f3:9c:08:69:
         ef:d1:ec:7a:53:d2:67:a9:81:98:20:6e:e3:03:00:32:1b:ce:
         ee:e3:aa:4f:c8:c0:36:1e:2f:30:46:c4:76:6e:83:94:90:b0:
         1f:66:3a:7a:05:f0:35:53:d9:a8:38:e8:c4:c7:04:fd:e5:84:
         12:64:86:79
-----BEGIN CERTIFICATE-----
MIIFLzCCBBegAwIBAgIQQAOqWkmBQTtdSw8Cnvn8kjANBgkqhkiG9w0BAQsFADCB
rzELMAkGA1UEBhMCVVMxEzARBgNVBAgMCkNhbGlmb3JuaWExFjAUBgNVBAcMDVNh
biBGcmFuY2lzY28xIDAeBgNVBAoMF0NvcHlsZWZ0IENlcnRpZmljYXRlIENvMR8w
HQYDVQQLDBZNeSBPcmdhbml6YXRpb25hbCBVbml0MREwDwYDVQQDDAhDaGFuZ2VN
ZTEdMBsGCSqGSIb3DQEJARYObWVAZXhhbXBsZS5uZXQwHhcNMjMxMTExMDE0MzIy
WhcNMjQxMTEwMDE0MzIyWjCBuzELMAkGA1UEBhMCVVMxCzAJBgNVBAgMAk9IMRMw
EQYDVQQHDApDaW5jaW5uYXRpMSEwHwYDVQQKDBhVbml2ZXJzaXR5IG9mIENpbmNp
bm5hdGkxKjAoBgNVBAsMIURlcHQuIEVsZWMuIENvbXAuIEVuZy4gQ29tcC4gU2Np
LjERMA8GA1UEAwwIY2xpZW50NTUxKDAmBgkqhkiG9w0BCQEWGWZyYW5jb0BnYXVz
cy5lY2Vjcy51Yy5lZHUwggEiMA0GCSqGSIb3DQEBAQUAA4IBDwAwggEKAoIBAQCx
YLkFCUqEd6o6aagZeL/StXa5rhSe9eqphxSGMBur/S+lqTHshf+4dXrFyqpbbdAC
OEG8MRjWQjnMpnUbQCbviTN2gz6HxiZYFJeDSZbvccZ28wULB/hmUBGpHYctqsyA
FAxSE6a4qgEFpvZYLUxiapemz/8cWT4OIS0nTQX4wl9EO3hO9HaiIlqX+lac3Pb/
GYwLT4EJCV8fhQ28i0oZNi57d1bu2UGYg/H5eUfD7LCopR615tSNtzZzkrEeAFJF
7AORBAc+1WoJNlxQoLTd6lR9MDg7fgr/OqW7XRiRjgJHotWHsbUcCIiB1+LEgsTo
LKw251IwjLhE869fZzfpAgMBAAGjggE3MIIBMzAJBgNVHRMEAjAAMB0GA1UdDgQW
BBQHDNv6pU8Z6Q8c9eTaaqJK30hluTCB5AYDVR0jBIHcMIHZgBRz3qBDD66xnuhZ
aRhQoRof1KHj8KGBtaSBsjCBrzELMAkGA1UEBhMCVVMxEzARBgNVBAgMCkNhbGlm
b3JuaWExFjAUBgNVBAcMDVNhbiBGcmFuY2lzY28xIDAeBgNVBAoMF0NvcHlsZWZ0
IENlcnRpZmljYXRlIENvMR8wHQYDVQQLDBZNeSBPcmdhbml6YXRpb25hbCBVbml0
MREwDwYDVQQDDAhDaGFuZ2VNZTEdMBsGCSqGSIb3DQEJARYObWVAZXhhbXBsZS5u
ZXSCCQDpu8sWxTK+OzATBgNVHSUEDDAKBggrBgEFBQcDAjALBgNVHQ8EBAMCB4Aw
DQYJKoZIhvcNAQELBQADggEBAK1Amk8HDFDgwhWX86S8N1eeEcQ9pfJ8XZLTJKQu
TPEduZ0lKdR5ymCN7cDuAOpvbrZIZhMJXmPLrci9dn1TffAzqV5WdKT0pGwJiEzh
7dmK3icEgBs09cD9Q1Y7DsCOGEE4pFX43LnAwMZeSMZcDvSAjA1bMnl986GwFPAA
LktRtRG6g1A3Gluz8oQHECol6j8vdrVllebUYsjRlrkt4a5kryS62wnu/hBRjv+x
nnM6wd6ZHgszwfOI2YaVHUMZ/XSt85wIae/R7HpT0mepgZggbuMDADIbzu7jqk/I
wDYeLzBGxHZug5SQsB9mOnoF8DVT2ag46MTHBP3lhBJkhnk=
-----END CERTIFICATE-----
