Certificate:
    Data:
        Version: 3 (0x2)
        Serial Number:
            f7:d5:bb:f0:24:56:ef:7e:c5:65:1c:78:d0:e3:10:b3
    Signature Algorithm: sha256WithRSAEncryption
        Issuer: C=US, ST=California, L=San Francisco, O=Copyleft Certificate Co, OU=My Organizational Unit, CN=ChangeMe/emailAddress=me@example.net
        Validity
            Not Before: Nov 11 02:00:11 2023 GMT
            Not After : Nov 10 02:00:11 2024 GMT
        Subject: C=US, ST=OH, L=Cincinnati, O=University of Cincinnati, OU=Dept. Elec. Comp. Eng. Comp. Sci., CN=client32/emailAddress=franco@gauss.ececs.uc.edu
        Subject Public Key Info:
            Public Key Algorithm: rsaEncryption
                Public-Key: (2048 bit)
                Modulus:
                    00:b1:1f:13:e8:77:29:7f:48:46:8a:98:99:bb:62:
                    a6:7c:c8:af:d1:75:d0:b4:2c:17:1a:46:c9:87:3a:
                    a1:14:08:dd:fd:67:e0:f7:2a:74:c1:54:6f:7e:cd:
                    ed:c9:70:bd:16:32:a6:43:0f:4b:c5:31:bc:e4:fd:
                    e4:6f:9e:79:f7:91:99:14:67:fc:05:f5:d7:1a:d6:
                    3b:b6:a6:b2:ed:91:a2:b9:4d:34:b7:02:ca:da:0a:
                    dc:00:9f:cf:93:73:a0:6b:57:33:ed:83:68:15:94:
                    36:9b:e8:b4:f7:d2:9e:03:16:37:53:ab:4a:37:aa:
                    de:48:a8:92:61:5a:a5:ee:54:68:15:cf:69:86:4c:
                    7c:e3:ae:38:34:19:05:c2:fc:6e:ab:09:ab:2f:ee:
                    e6:b0:59:62:20:fc:6a:c4:26:f0:bc:1a:9c:f2:18:
                    e8:a0:c2:f6:66:f3:3c:95:b6:4a:4d:af:08:7d:6c:
                    97:b1:74:fc:82:9e:7d:29:cb:a8:24:be:98:2e:fb:
                    86:50:65:d5:3d:29:72:07:7a:00:5e:3f:67:74:7d:
                    06:fc:27:55:9d:06:5c:56:f2:a7:8f:09:29:dd:6b:
                    1c:cb:1e:03:1e:50:bb:b0:d0:27:c3:0a:aa:a8:78:
                    ae:03:49:cc:07:ad:4a:cc:b7:91:bf:4d:53:8e:1e:
                    bf:17
                Exponent: 65537 (0x10001)
        X509v3 extensions:
            X509v3 Basic Constraints: 
                CA:FALSE
            X509v3 Subject Key Identifier: 
                70:F7:11:4C:54:AE:41:3B:BE:07:3F:BE:FE:34:8B:BC:77:D4:37:D6
            X509v3 Authority Key Identifier: 
                keyid:7B:0F:93:16:64:9F:71:41:D3:1B:FB:ED:6A:70:9B:CA:2E:70:F0:4B
                DirName:/C=US/ST=California/L=San Francisco/O=Copyleft Certificate Co/OU=My Organizational Unit/CN=ChangeMe/emailAddress=me@example.net
                serial:B9:F2:4E:2C:79:B3:D4:6C

            X509v3 Extended Key Usage: 
                TLS Web Client Authentication
            X509v3 Key Usage: 
                Digital Signature
    Signature Algorithm: sha256WithRSAEncryption
         9d:47:25:f3:91:e2:ac:4f:d5:78:67:25:18:09:e0:38:96:e9:
         2f:f0:f9:30:90:48:4e:47:9e:62:f6:49:48:8c:c0:f6:64:66:
         4f:44:dd:db:09:35:c8:08:69:53:e4:65:35:41:fb:45:b7:a4:
         84:18:f1:6c:d1:8d:43:b3:4d:21:08:54:d8:d3:92:56:9e:57:
         06:d0:ee:9a:69:e4:ab:d4:a6:58:cf:5e:9a:83:86:98:5a:19:
         a3:f4:82:f9:05:75:aa:87:62:e8:7a:67:4c:a5:d3:f9:ea:e0:
         7f:4a:49:46:2a:2b:e8:4c:c1:ee:64:b1:31:66:92:cc:0a:a2:
         f9:85:34:ff:53:46:ae:a0:27:de:1d:f0:4b:22:fe:98:2b:c3:
         cd:f4:6d:a9:74:0b:03:ca:26:83:1b:d3:b4:07:74:01:32:4e:
         35:85:45:1a:20:5c:39:fb:4d:7c:1a:b7:1f:8d:4a:dc:ad:eb:
         ff:44:9f:5c:58:8e:d2:a7:02:8b:e5:1c:7b:b8:01:b4:e4:a9:
         f1:63:04:93:f0:24:26:7f:5d:b0:34:ca:ad:90:fc:d2:c2:a5:
         21:14:59:cb:10:bc:01:03:c2:76:40:b9:ac:a6:e6:13:91:02:
         75:2b:5a:b1:c4:73:6d:0f:f2:02:ed:41:c2:07:4d:1f:a7:0d:
         80:7e:08:ea
-----BEGIN CERTIFICATE-----
MIIFMDCCBBigAwIBAgIRAPfVu/AkVu9+xWUceNDjELMwDQYJKoZIhvcNAQELBQAw
ga8xCzAJBgNVBAYTAlVTMRMwEQYDVQQIDApDYWxpZm9ybmlhMRYwFAYDVQQHDA1T
YW4gRnJhbmNpc2NvMSAwHgYDVQQKDBdDb3B5bGVmdCBDZXJ0aWZpY2F0ZSBDbzEf
MB0GA1UECwwWTXkgT3JnYW5pemF0aW9uYWwgVW5pdDERMA8GA1UEAwwIQ2hhbmdl
TWUxHTAbBgkqhkiG9w0BCQEWDm1lQGV4YW1wbGUubmV0MB4XDTIzMTExMTAyMDAx
MVoXDTI0MTExMDAyMDAxMVowgbsxCzAJBgNVBAYTAlVTMQswCQYDVQQIDAJPSDET
MBEGA1UEBwwKQ2luY2lubmF0aTEhMB8GA1UECgwYVW5pdmVyc2l0eSBvZiBDaW5j
aW5uYXRpMSowKAYDVQQLDCFEZXB0LiBFbGVjLiBDb21wLiBFbmcuIENvbXAuIFNj
aS4xETAPBgNVBAMMCGNsaWVudDMyMSgwJgYJKoZIhvcNAQkBFhlmcmFuY29AZ2F1
c3MuZWNlY3MudWMuZWR1MIIBIjANBgkqhkiG9w0BAQEFAAOCAQ8AMIIBCgKCAQEA
sR8T6Hcpf0hGipiZu2KmfMiv0XXQtCwXGkbJhzqhFAjd/Wfg9yp0wVRvfs3tyXC9
FjKmQw9LxTG85P3kb55595GZFGf8BfXXGtY7tqay7ZGiuU00twLK2grcAJ/Pk3Og
a1cz7YNoFZQ2m+i099KeAxY3U6tKN6reSKiSYVql7lRoFc9phkx84644NBkFwvxu
qwmrL+7msFliIPxqxCbwvBqc8hjooML2ZvM8lbZKTa8IfWyXsXT8gp59KcuoJL6Y
LvuGUGXVPSlyB3oAXj9ndH0G/CdVnQZcVvKnjwkp3Wscyx4DHlC7sNAnwwqqqHiu
A0nMB61KzLeRv01Tjh6/FwIDAQABo4IBNzCCATMwCQYDVR0TBAIwADAdBgNVHQ4E
FgQUcPcRTFSuQTu+Bz++/jSLvHfUN9YwgeQGA1UdIwSB3DCB2YAUew+TFmSfcUHT
G/vtanCbyi5w8EuhgbWkgbIwga8xCzAJBgNVBAYTAlVTMRMwEQYDVQQIDApDYWxp
Zm9ybmlhMRYwFAYDVQQHDA1TYW4gRnJhbmNpc2NvMSAwHgYDVQQKDBdDb3B5bGVm
dCBDZXJ0aWZpY2F0ZSBDbzEfMB0GA1UECwwWTXkgT3JnYW5pemF0aW9uYWwgVW5p
dDERMA8GA1UEAwwIQ2hhbmdlTWUxHTAbBgkqhkiG9w0BCQEWDm1lQGV4YW1wbGUu
bmV0ggkAufJOLHmz1GwwEwYDVR0lBAwwCgYIKwYBBQUHAwIwCwYDVR0PBAQDAgeA
MA0GCSqGSIb3DQEBCwUAA4IBAQCdRyXzkeKsT9V4ZyUYCeA4lukv8PkwkEhOR55i
9klIjMD2ZGZPRN3bCTXICGlT5GU1QftFt6SEGPFs0Y1Ds00hCFTY05JWnlcG0O6a
aeSr1KZYz16ag4aYWhmj9IL5BXWqh2LoemdMpdP56uB/SklGKivoTMHuZLExZpLM
CqL5hTT/U0auoCfeHfBLIv6YK8PN9G2pdAsDyiaDG9O0B3QBMk41hUUaIFw5+018
GrcfjUrcrev/RJ9cWI7SpwKL5Rx7uAG05KnxYwST8CQmf12wNMqtkPzSwqUhFFnL
ELwBA8J2QLmspuYTkQJ1K1qxxHNtD/IC7UHCB00fpw2Afgjq
-----END CERTIFICATE-----
