Certificate:
    Data:
        Version: 3 (0x2)
        Serial Number:
            74:5a:78:2d:ba:dc:43:ca:a9:88:0a:e8:28:61:c7:a0
    Signature Algorithm: sha256WithRSAEncryption
        Issuer: C=US, ST=California, L=San Francisco, O=Copyleft Certificate Co, OU=My Organizational Unit, CN=ChangeMe/emailAddress=me@example.net
        Validity
            Not Before: Nov 11 01:44:18 2023 GMT
            Not After : Nov 10 01:44:18 2024 GMT
        Subject: C=US, ST=OH, L=Cincinnati, O=University of Cincinnati, OU=Dept. Elec. Comp. Eng. Comp. Sci., CN=client69/emailAddress=franco@gauss.ececs.uc.edu
        Subject Public Key Info:
            Public Key Algorithm: rsaEncryption
                Public-Key: (2048 bit)
                Modulus:
                    00:ca:1a:0a:2c:fb:34:d4:16:e2:d5:df:54:dd:62:
                    00:51:d6:d8:3e:dd:31:81:3d:a6:95:04:43:cd:6a:
                    57:02:bf:50:da:45:fb:46:02:ed:a4:37:77:75:4c:
                    08:18:9b:11:4c:0f:9b:f5:54:c4:a2:af:57:4b:9f:
                    b7:a3:96:3d:fb:34:f6:6d:50:d3:86:05:01:95:65:
                    a6:d6:6d:8d:41:ee:27:a0:aa:93:87:a8:83:de:12:
                    a6:73:06:2e:27:c3:29:d4:be:10:dc:a2:a8:c3:b0:
                    9a:c8:62:4f:11:2a:bb:39:ec:ca:ef:62:32:94:f7:
                    3e:24:36:a5:fe:81:bd:17:b7:fe:38:79:32:61:60:
                    52:91:c6:78:2c:2d:96:83:c2:21:46:7d:e7:65:be:
                    e5:93:02:6f:f0:31:9c:ad:da:32:26:d4:fc:ae:ea:
                    94:ff:e2:09:e4:79:a1:7a:a7:7c:f3:c4:4a:de:5c:
                    e0:5f:10:65:6e:c8:94:80:a7:2d:f1:5a:78:92:bb:
                    14:fe:49:f4:fb:f0:15:b5:56:e0:82:c3:b2:86:69:
                    40:9d:07:b8:5f:43:95:21:cd:c6:7d:02:2c:62:ed:
                    9a:5c:87:ab:3c:b8:5a:f3:0f:73:92:97:e4:77:5d:
                    f2:47:26:77:a2:a7:89:00:c9:e0:8f:59:f8:51:45:
                    2e:e7
                Exponent: 65537 (0x10001)
        X509v3 extensions:
            X509v3 Basic Constraints: 
                CA:FALSE
            X509v3 Subject Key Identifier: 
                12:18:E8:4B:7D:C1:56:B4:8A:A4:F1:0E:67:80:AB:D8:89:F6:F6:A3
            X509v3 Authority Key Identifier: 
                keyid:73:DE:A0:43:0F:AE:B1:9E:E8:59:69:18:50:A1:1A:1F:D4:A1:E3:F0
                DirName:/C=US/ST=California/L=San Francisco/O=Copyleft Certificate Co/OU=My Organizational Unit/CN=ChangeMe/emailAddress=me@example.net
                serial:E9:BB:CB:16:C5:32:BE:3B

            X509v3 Extended Key Usage: 
                TLS Web Client Authentication
            X509v3 Key Usage: 
                Digital Signature
    Signature Algorithm: sha256WithRSAEncryption
         ac:6d:e7:3b:1c:6b:8f:a6:d5:d8:60:4c:68:cc:4d:41:0d:6e:
         75:33:6a:a2:ff:e8:16:a6:da:e0:e9:c3:f6:bf:13:a7:c3:78:
         df:15:b4:55:f9:b6:28:61:a8:dd:9c:06:0a:53:67:ac:66:81:
         a6:b6:b8:76:e2:83:36:e4:83:8c:59:6f:12:91:e3:81:7f:fd:
         6b:44:ea:75:d9:e0:6d:35:2c:0d:b3:82:c9:56:aa:5f:5e:af:
         e0:be:2e:f4:35:b9:70:02:aa:fa:94:f9:57:aa:b5:72:64:4b:
         b6:b0:1d:86:74:24:e5:fd:66:9a:7b:03:c9:26:f1:cf:a8:89:
         00:18:68:0e:3a:17:e1:34:f3:11:ad:4b:de:1d:b9:d2:1a:f8:
         16:0b:35:0c:14:84:d9:3f:63:4a:63:07:d6:77:4b:28:c9:a2:
         7a:ef:3a:bf:92:cc:f1:7c:dc:f7:ac:66:20:78:c2:e5:f8:b6:
         a3:5b:48:b6:09:ed:53:da:31:a5:0b:77:6e:1f:eb:16:e8:7d:
         14:26:70:c6:0b:63:f4:c8:e4:b4:a8:7c:8f:c3:cb:86:b7:84:
         88:66:ab:08:2f:76:c3:fc:c9:52:da:3a:53:f2:68:41:23:31:
         75:69:99:3f:32:48:d2:ab:6f:77:dc:2c:1b:c1:23:c1:fc:cc:
         fe:13:1d:80
-----BEGIN CERTIFICATE-----
MIIFLzCCBBegAwIBAgIQdFp4LbrcQ8qpiAroKGHHoDANBgkqhkiG9w0BAQsFADCB
rzELMAkGA1UEBhMCVVMxEzARBgNVBAgMCkNhbGlmb3JuaWExFjAUBgNVBAcMDVNh
biBGcmFuY2lzY28xIDAeBgNVBAoMF0NvcHlsZWZ0IENlcnRpZmljYXRlIENvMR8w
HQYDVQQLDBZNeSBPcmdhbml6YXRpb25hbCBVbml0MREwDwYDVQQDDAhDaGFuZ2VN
ZTEdMBsGCSqGSIb3DQEJARYObWVAZXhhbXBsZS5uZXQwHhcNMjMxMTExMDE0NDE4
WhcNMjQxMTEwMDE0NDE4WjCBuzELMAkGA1UEBhMCVVMxCzAJBgNVBAgMAk9IMRMw
EQYDVQQHDApDaW5jaW5uYXRpMSEwHwYDVQQKDBhVbml2ZXJzaXR5IG9mIENpbmNp
bm5hdGkxKjAoBgNVBAsMIURlcHQuIEVsZWMuIENvbXAuIEVuZy4gQ29tcC4gU2Np
LjERMA8GA1UEAwwIY2xpZW50NjkxKDAmBgkqhkiG9w0BCQEWGWZyYW5jb0BnYXVz
cy5lY2Vjcy51Yy5lZHUwggEiMA0GCSqGSIb3DQEBAQUAA4IBDwAwggEKAoIBAQDK
Ggos+zTUFuLV31TdYgBR1tg+3TGBPaaVBEPNalcCv1DaRftGAu2kN3d1TAgYmxFM
D5v1VMSir1dLn7ejlj37NPZtUNOGBQGVZabWbY1B7iegqpOHqIPeEqZzBi4nwynU
vhDcoqjDsJrIYk8RKrs57MrvYjKU9z4kNqX+gb0Xt/44eTJhYFKRxngsLZaDwiFG
fedlvuWTAm/wMZyt2jIm1Pyu6pT/4gnkeaF6p3zzxEreXOBfEGVuyJSApy3xWniS
uxT+SfT78BW1VuCCw7KGaUCdB7hfQ5UhzcZ9Aixi7Zpch6s8uFrzD3OSl+R3XfJH
Jneip4kAyeCPWfhRRS7nAgMBAAGjggE3MIIBMzAJBgNVHRMEAjAAMB0GA1UdDgQW
BBQSGOhLfcFWtIqk8Q5ngKvYifb2ozCB5AYDVR0jBIHcMIHZgBRz3qBDD66xnuhZ
aRhQoRof1KHj8KGBtaSBsjCBrzELMAkGA1UEBhMCVVMxEzARBgNVBAgMCkNhbGlm
b3JuaWExFjAUBgNVBAcMDVNhbiBGcmFuY2lzY28xIDAeBgNVBAoMF0NvcHlsZWZ0
IENlcnRpZmljYXRlIENvMR8wHQYDVQQLDBZNeSBPcmdhbml6YXRpb25hbCBVbml0
MREwDwYDVQQDDAhDaGFuZ2VNZTEdMBsGCSqGSIb3DQEJARYObWVAZXhhbXBsZS5u
ZXSCCQDpu8sWxTK+OzATBgNVHSUEDDAKBggrBgEFBQcDAjALBgNVHQ8EBAMCB4Aw
DQYJKoZIhvcNAQELBQADggEBAKxt5zsca4+m1dhgTGjMTUENbnUzaqL/6Bam2uDp
w/a/E6fDeN8VtFX5tihhqN2cBgpTZ6xmgaa2uHbigzbkg4xZbxKR44F//WtE6nXZ
4G01LA2zgslWql9er+C+LvQ1uXACqvqU+VeqtXJkS7awHYZ0JOX9Zpp7A8km8c+o
iQAYaA46F+E08xGtS94dudIa+BYLNQwUhNk/Y0pjB9Z3SyjJonrvOr+SzPF83Pes
ZiB4wuX4tqNbSLYJ7VPaMaULd24f6xbofRQmcMYLY/TI5LSofI/Dy4a3hIhmqwgv
dsP8yVLaOlPyaEEjMXVpmT8ySNKrb3fcLBvBI8H8zP4THYA=
-----END CERTIFICATE-----
