Certificate:
    Data:
        Version: 3 (0x2)
        Serial Number:
            11:5b:32:9c:dc:79:0f:09:b4:8b:ed:7f:f3:6f:ea:73
    Signature Algorithm: sha256WithRSAEncryption
        Issuer: C=US, ST=California, L=San Francisco, O=Copyleft Certificate Co, OU=My Organizational Unit, CN=ChangeMe/emailAddress=me@example.net
        Validity
            Not Before: Nov 11 01:43:42 2023 GMT
            Not After : Nov 10 01:43:42 2024 GMT
        Subject: C=US, ST=OH, L=Cincinnati, O=University of Cincinnati, OU=Dept. Elec. Comp. Eng. Comp. Sci., CN=client60/emailAddress=franco@gauss.ececs.uc.edu
        Subject Public Key Info:
            Public Key Algorithm: rsaEncryption
                Public-Key: (2048 bit)
                Modulus:
                    00:c5:3b:dc:1f:bf:71:f7:17:a6:95:e0:bf:24:7b:
                    cb:af:91:69:a9:a7:73:57:b2:62:64:08:79:9d:86:
                    90:55:9d:10:21:96:ca:bb:e5:f7:a4:1a:65:48:0d:
                    41:90:58:26:c2:66:77:0b:eb:7b:1c:83:cc:53:c8:
                    19:a7:22:6c:2a:1e:79:48:1b:bb:12:97:71:6b:b4:
                    ad:fb:b2:6c:5e:a9:af:f2:81:41:7d:16:24:80:76:
                    ba:98:51:5e:bb:c1:d3:0f:96:1d:7a:4d:47:96:fe:
                    55:a1:54:f0:97:17:e5:48:94:49:c8:e6:3b:48:81:
                    51:f4:8c:e3:49:48:36:9c:87:74:85:c6:1e:c9:a3:
                    80:fa:32:ab:44:f7:ef:a5:5d:48:02:b5:ed:d7:6f:
                    b2:85:62:4e:f0:67:a0:e5:ed:3e:07:b1:25:4b:14:
                    29:71:e9:92:1e:ed:38:2a:24:8e:89:15:27:0b:73:
                    60:82:22:4a:9f:9b:f1:40:95:07:07:b1:80:d8:b5:
                    07:c5:d9:28:ff:69:d0:8d:81:a0:0f:a9:fb:21:b9:
                    da:80:f4:77:e8:98:b7:64:6d:e9:34:24:b9:32:8a:
                    83:af:04:f1:12:e7:17:e4:55:42:fd:5c:38:b0:c6:
                    99:29:9e:7e:84:f8:cd:49:bb:d1:9a:80:02:d5:6c:
                    94:59
                Exponent: 65537 (0x10001)
        X509v3 extensions:
            X509v3 Basic Constraints: 
                CA:FALSE
            X509v3 Subject Key Identifier: 
                59:73:C8:56:A7:C9:B1:89:4E:6C:D3:B7:50:4C:EC:EE:B5:E0:5D:5B
            X509v3 Authority Key Identifier: 
                keyid:73:DE:A0:43:0F:AE:B1:9E:E8:59:69:18:50:A1:1A:1F:D4:A1:E3:F0
                DirName:/C=US/ST=California/L=San Francisco/O=Copyleft Certificate Co/OU=My Organizational Unit/CN=ChangeMe/emailAddress=me@example.net
                serial:E9:BB:CB:16:C5:32:BE:3B

            X509v3 Extended Key Usage: 
                TLS Web Client Authentication
            X509v3 Key Usage: 
                Digital Signature
    Signature Algorithm: sha256WithRSAEncryption
         ab:44:7d:2e:f0:67:bb:3b:d7:e5:16:6c:7b:32:19:ae:33:9b:
         99:4a:b8:be:b6:b2:2d:1d:b2:da:03:93:b4:36:3a:ea:79:eb:
         f8:2d:5f:37:2c:bb:a1:a1:07:9b:3f:27:7b:44:c5:d5:ee:fa:
         5c:a8:fc:32:07:20:8f:34:ef:22:d6:08:48:b3:19:bd:62:2c:
         a7:af:6c:59:1e:c2:1a:30:8d:3a:1b:7a:6b:8d:2d:11:30:73:
         58:e3:7a:a2:a8:b7:44:8b:10:97:1a:fe:86:22:e0:4d:1a:2e:
         e3:73:3c:57:ea:20:26:e9:ff:97:dc:64:d9:40:00:11:82:4c:
         f1:b0:00:68:32:52:d1:7a:7f:5e:0b:3f:7e:de:f5:f7:53:40:
         0c:39:1b:55:18:40:19:c1:53:1f:64:80:cc:41:ac:08:08:ea:
         13:8a:ed:f4:9c:3c:47:e9:54:02:1b:71:d6:af:83:34:fe:21:
         93:eb:ab:2a:cd:ee:f9:d0:91:e6:5a:57:74:b7:07:24:0a:6d:
         24:e4:f4:4c:ec:cf:79:75:c5:50:09:11:f6:40:86:6f:80:a0:
         c2:2a:73:a1:4a:21:8e:b9:25:01:04:ee:b7:16:1a:29:97:fb:
         36:53:31:ab:e5:40:7b:c3:80:0e:a8:c3:4f:c8:0c:10:c6:33:
         f6:52:71:e4
-----BEGIN CERTIFICATE-----
MIIFLzCCBBegAwIBAgIQEVsynNx5Dwm0i+1/82/qczANBgkqhkiG9w0BAQsFADCB
rzELMAkGA1UEBhMCVVMxEzARBgNVBAgMCkNhbGlmb3JuaWExFjAUBgNVBAcMDVNh
biBGcmFuY2lzY28xIDAeBgNVBAoMF0NvcHlsZWZ0IENlcnRpZmljYXRlIENvMR8w
HQYDVQQLDBZNeSBPcmdhbml6YXRpb25hbCBVbml0MREwDwYDVQQDDAhDaGFuZ2VN
ZTEdMBsGCSqGSIb3DQEJARYObWVAZXhhbXBsZS5uZXQwHhcNMjMxMTExMDE0MzQy
WhcNMjQxMTEwMDE0MzQyWjCBuzELMAkGA1UEBhMCVVMxCzAJBgNVBAgMAk9IMRMw
EQYDVQQHDApDaW5jaW5uYXRpMSEwHwYDVQQKDBhVbml2ZXJzaXR5IG9mIENpbmNp
bm5hdGkxKjAoBgNVBAsMIURlcHQuIEVsZWMuIENvbXAuIEVuZy4gQ29tcC4gU2Np
LjERMA8GA1UEAwwIY2xpZW50NjAxKDAmBgkqhkiG9w0BCQEWGWZyYW5jb0BnYXVz
cy5lY2Vjcy51Yy5lZHUwggEiMA0GCSqGSIb3DQEBAQUAA4IBDwAwggEKAoIBAQDF
O9wfv3H3F6aV4L8ke8uvkWmpp3NXsmJkCHmdhpBVnRAhlsq75fekGmVIDUGQWCbC
ZncL63scg8xTyBmnImwqHnlIG7sSl3FrtK37smxeqa/ygUF9FiSAdrqYUV67wdMP
lh16TUeW/lWhVPCXF+VIlEnI5jtIgVH0jONJSDach3SFxh7Jo4D6MqtE9++lXUgC
te3Xb7KFYk7wZ6Dl7T4HsSVLFClx6ZIe7TgqJI6JFScLc2CCIkqfm/FAlQcHsYDY
tQfF2Sj/adCNgaAPqfshudqA9HfomLdkbek0JLkyioOvBPES5xfkVUL9XDiwxpkp
nn6E+M1Ju9GagALVbJRZAgMBAAGjggE3MIIBMzAJBgNVHRMEAjAAMB0GA1UdDgQW
BBRZc8hWp8mxiU5s07dQTOzuteBdWzCB5AYDVR0jBIHcMIHZgBRz3qBDD66xnuhZ
aRhQoRof1KHj8KGBtaSBsjCBrzELMAkGA1UEBhMCVVMxEzARBgNVBAgMCkNhbGlm
b3JuaWExFjAUBgNVBAcMDVNhbiBGcmFuY2lzY28xIDAeBgNVBAoMF0NvcHlsZWZ0
IENlcnRpZmljYXRlIENvMR8wHQYDVQQLDBZNeSBPcmdhbml6YXRpb25hbCBVbml0
MREwDwYDVQQDDAhDaGFuZ2VNZTEdMBsGCSqGSIb3DQEJARYObWVAZXhhbXBsZS5u
ZXSCCQDpu8sWxTK+OzATBgNVHSUEDDAKBggrBgEFBQcDAjALBgNVHQ8EBAMCB4Aw
DQYJKoZIhvcNAQELBQADggEBAKtEfS7wZ7s71+UWbHsyGa4zm5lKuL62si0dstoD
k7Q2Oup56/gtXzcsu6GhB5s/J3tExdXu+lyo/DIHII807yLWCEizGb1iLKevbFke
whowjTobemuNLREwc1jjeqKot0SLEJca/oYi4E0aLuNzPFfqICbp/5fcZNlAABGC
TPGwAGgyUtF6f14LP37e9fdTQAw5G1UYQBnBUx9kgMxBrAgI6hOK7fScPEfpVAIb
cdavgzT+IZPrqyrN7vnQkeZaV3S3ByQKbSTk9Ezsz3l1xVAJEfZAhm+AoMIqc6FK
IY65JQEE7rcWGimX+zZTMavlQHvDgA6ow0/IDBDGM/ZSceQ=
-----END CERTIFICATE-----
