Certificate:
    Data:
        Version: 3 (0x2)
        Serial Number:
            78:86:b6:8d:c2:91:75:12:13:07:da:93:66:21:f6:b1
    Signature Algorithm: sha256WithRSAEncryption
        Issuer: C=US, ST=California, L=San Francisco, O=Copyleft Certificate Co, OU=My Organizational Unit, CN=ChangeMe/emailAddress=me@example.net
        Validity
            Not Before: Nov 11 01:44:38 2023 GMT
            Not After : Nov 10 01:44:38 2024 GMT
        Subject: C=US, ST=OH, L=Cincinnati, O=University of Cincinnati, OU=Dept. Elec. Comp. Eng. Comp. Sci., CN=client74/emailAddress=franco@gauss.ececs.uc.edu
        Subject Public Key Info:
            Public Key Algorithm: rsaEncryption
                Public-Key: (2048 bit)
                Modulus:
                    00:bd:09:5d:d4:e8:49:c9:a6:42:69:21:e9:3a:91:
                    72:c9:49:86:9b:cd:27:5c:b3:4c:15:33:7f:a8:5e:
                    89:2d:ec:d1:78:bb:b7:4d:fc:13:f6:6a:30:47:88:
                    08:b2:c1:0b:b5:42:7c:35:35:a1:62:56:42:e6:8e:
                    40:73:bb:ba:c1:3f:24:9c:c7:89:4a:b1:bd:6f:82:
                    e5:bc:06:d3:d5:a7:89:d6:aa:ad:bd:bb:68:38:c3:
                    04:26:40:dc:80:eb:67:79:ce:7f:d3:3d:80:ce:fa:
                    34:b5:b0:c6:50:f6:ea:6f:3b:bb:d4:0e:1e:97:dd:
                    bd:5f:72:04:70:0d:30:d0:ac:3a:bf:eb:e7:09:99:
                    61:bf:a6:3d:f8:58:fc:15:03:5f:d3:bb:2a:32:bc:
                    1e:c0:13:2d:3f:3d:6c:78:fc:40:32:78:0c:b0:0c:
                    88:a8:1d:16:48:ce:83:a4:69:e7:ef:94:52:5e:5c:
                    07:c7:9a:48:9b:b1:f8:76:eb:c8:85:79:f0:4e:e3:
                    db:15:be:9a:6a:47:e3:80:94:bd:70:cb:d2:68:9e:
                    ee:ac:32:64:40:8e:82:c5:a2:78:1e:cb:d9:f1:40:
                    5e:82:15:ec:ee:c2:b6:96:7e:0c:86:d0:ae:95:bf:
                    03:e0:58:53:d5:7f:ca:00:71:41:e4:b2:17:d9:7d:
                    cd:27
                Exponent: 65537 (0x10001)
        X509v3 extensions:
            X509v3 Basic Constraints: 
                CA:FALSE
            X509v3 Subject Key Identifier: 
                9A:0F:5A:6C:D0:34:57:40:DE:A2:4E:C6:13:BE:EF:09:C9:EC:B4:C1
            X509v3 Authority Key Identifier: 
                keyid:73:DE:A0:43:0F:AE:B1:9E:E8:59:69:18:50:A1:1A:1F:D4:A1:E3:F0
                DirName:/C=US/ST=California/L=San Francisco/O=Copyleft Certificate Co/OU=My Organizational Unit/CN=ChangeMe/emailAddress=me@example.net
                serial:E9:BB:CB:16:C5:32:BE:3B

            X509v3 Extended Key Usage: 
                TLS Web Client Authentication
            X509v3 Key Usage: 
                Digital Signature
    Signature Algorithm: sha256WithRSAEncryption
         5d:17:f8:ce:de:fb:f2:1f:9f:26:01:61:88:95:75:9e:6e:06:
         e4:bf:1b:87:8f:19:5e:8c:77:97:c9:ed:ac:86:b8:3a:63:3a:
         d8:11:d0:f8:dd:f4:55:5a:83:41:50:ce:93:a2:cf:a7:46:39:
         9f:3d:47:75:a5:f3:aa:8e:da:dd:df:55:3d:6e:24:02:0b:b3:
         c4:a6:0c:a4:4a:4f:cc:1f:48:cf:24:5c:51:c6:66:f4:29:43:
         29:45:ac:96:32:76:17:aa:0b:7d:a6:9f:63:51:9c:ed:49:7b:
         6c:3e:66:6c:5c:3e:c1:12:45:7e:68:da:3b:b2:e8:41:b4:27:
         98:ad:f0:d7:54:46:d5:16:06:50:b9:cb:b6:a9:19:3a:39:d4:
         9d:df:26:26:23:f3:ed:cd:56:4c:42:a9:14:57:0c:6f:54:75:
         5c:a2:23:06:12:0e:4c:13:53:11:09:e7:e1:c0:a6:07:b4:99:
         6c:65:22:dc:6c:d6:0d:1d:e0:35:92:7c:64:80:9e:58:b9:ef:
         30:cd:1d:16:a2:46:90:1e:bd:47:cc:9b:a9:ef:57:07:7b:93:
         0d:31:01:62:63:73:40:b0:27:ac:d1:bb:bb:12:cb:87:af:60:
         54:11:6d:e1:24:00:b4:e0:0c:da:20:31:f2:5d:c3:e1:fd:77:
         33:28:c0:7e
-----BEGIN CERTIFICATE-----
MIIFLzCCBBegAwIBAgIQeIa2jcKRdRITB9qTZiH2sTANBgkqhkiG9w0BAQsFADCB
rzELMAkGA1UEBhMCVVMxEzARBgNVBAgMCkNhbGlmb3JuaWExFjAUBgNVBAcMDVNh
biBGcmFuY2lzY28xIDAeBgNVBAoMF0NvcHlsZWZ0IENlcnRpZmljYXRlIENvMR8w
HQYDVQQLDBZNeSBPcmdhbml6YXRpb25hbCBVbml0MREwDwYDVQQDDAhDaGFuZ2VN
ZTEdMBsGCSqGSIb3DQEJARYObWVAZXhhbXBsZS5uZXQwHhcNMjMxMTExMDE0NDM4
WhcNMjQxMTEwMDE0NDM4WjCBuzELMAkGA1UEBhMCVVMxCzAJBgNVBAgMAk9IMRMw
EQYDVQQHDApDaW5jaW5uYXRpMSEwHwYDVQQKDBhVbml2ZXJzaXR5IG9mIENpbmNp
bm5hdGkxKjAoBgNVBAsMIURlcHQuIEVsZWMuIENvbXAuIEVuZy4gQ29tcC4gU2Np
LjERMA8GA1UEAwwIY2xpZW50NzQxKDAmBgkqhkiG9w0BCQEWGWZyYW5jb0BnYXVz
cy5lY2Vjcy51Yy5lZHUwggEiMA0GCSqGSIb3DQEBAQUAA4IBDwAwggEKAoIBAQC9
CV3U6EnJpkJpIek6kXLJSYabzSdcs0wVM3+oXokt7NF4u7dN/BP2ajBHiAiywQu1
Qnw1NaFiVkLmjkBzu7rBPyScx4lKsb1vguW8BtPVp4nWqq29u2g4wwQmQNyA62d5
zn/TPYDO+jS1sMZQ9upvO7vUDh6X3b1fcgRwDTDQrDq/6+cJmWG/pj34WPwVA1/T
uyoyvB7AEy0/PWx4/EAyeAywDIioHRZIzoOkaefvlFJeXAfHmkibsfh268iFefBO
49sVvppqR+OAlL1wy9Jonu6sMmRAjoLFongey9nxQF6CFezuwraWfgyG0K6VvwPg
WFPVf8oAcUHkshfZfc0nAgMBAAGjggE3MIIBMzAJBgNVHRMEAjAAMB0GA1UdDgQW
BBSaD1ps0DRXQN6iTsYTvu8Jyey0wTCB5AYDVR0jBIHcMIHZgBRz3qBDD66xnuhZ
aRhQoRof1KHj8KGBtaSBsjCBrzELMAkGA1UEBhMCVVMxEzARBgNVBAgMCkNhbGlm
b3JuaWExFjAUBgNVBAcMDVNhbiBGcmFuY2lzY28xIDAeBgNVBAoMF0NvcHlsZWZ0
IENlcnRpZmljYXRlIENvMR8wHQYDVQQLDBZNeSBPcmdhbml6YXRpb25hbCBVbml0
MREwDwYDVQQDDAhDaGFuZ2VNZTEdMBsGCSqGSIb3DQEJARYObWVAZXhhbXBsZS5u
ZXSCCQDpu8sWxTK+OzATBgNVHSUEDDAKBggrBgEFBQcDAjALBgNVHQ8EBAMCB4Aw
DQYJKoZIhvcNAQELBQADggEBAF0X+M7e+/IfnyYBYYiVdZ5uBuS/G4ePGV6Md5fJ
7ayGuDpjOtgR0Pjd9FVag0FQzpOiz6dGOZ89R3Wl86qO2t3fVT1uJAILs8SmDKRK
T8wfSM8kXFHGZvQpQylFrJYydheqC32mn2NRnO1Je2w+ZmxcPsESRX5o2juy6EG0
J5it8NdURtUWBlC5y7apGTo51J3fJiYj8+3NVkxCqRRXDG9UdVyiIwYSDkwTUxEJ
5+HApge0mWxlItxs1g0d4DWSfGSAnli57zDNHRaiRpAevUfMm6nvVwd7kw0xAWJj
c0CwJ6zRu7sSy4evYFQRbeEkALTgDNogMfJdw+H9dzMowH4=
-----END CERTIFICATE-----
