Certificate:
    Data:
        Version: 3 (0x2)
        Serial Number:
            30:ca:38:9d:ae:37:9c:49:78:7b:9d:0c:4c:07:d2:ba
    Signature Algorithm: sha256WithRSAEncryption
        Issuer: C=US, ST=California, L=San Francisco, O=Copyleft Certificate Co, OU=My Organizational Unit, CN=ChangeMe/emailAddress=me@example.net
        Validity
            Not Before: Nov 11 10:57:36 2023 GMT
            Not After : Nov 10 10:57:36 2024 GMT
        Subject: C=US, ST=OH, L=Cincinnati, O=University of Cincinnati, OU=Dept. Elec. Comp. Eng. Comp. Sci., CN=client35/emailAddress=franco@gauss.ececs.uc.edu
        Subject Public Key Info:
            Public Key Algorithm: rsaEncryption
                Public-Key: (2048 bit)
                Modulus:
                    00:da:45:3d:a0:43:01:f1:42:d5:21:51:6f:64:d1:
                    a0:65:25:aa:67:42:0b:80:74:14:8a:24:fd:66:56:
                    e8:08:c1:48:03:d4:59:d7:9a:11:37:60:95:61:84:
                    d9:3a:dd:1a:b6:e9:06:f0:8b:0c:b6:c1:07:f5:b0:
                    66:37:5a:5c:1f:2d:9a:a8:59:8e:e3:dc:6f:32:2c:
                    03:9a:cc:54:57:a7:84:34:c8:57:7d:ef:fb:e5:0f:
                    5b:48:55:34:15:a9:0c:cd:b6:15:2a:3b:23:21:c8:
                    f4:35:27:e5:31:50:cc:09:14:3b:64:a1:ee:b4:74:
                    d0:85:63:6a:53:10:20:9e:a4:01:cf:d5:5b:82:6e:
                    1a:a8:da:40:a1:a1:72:fd:fb:00:cf:5b:ed:6d:ec:
                    77:83:c0:20:64:17:a2:b1:62:fe:bd:79:63:b6:b5:
                    3c:ab:d3:68:ba:cf:c6:b3:20:66:bc:e5:cb:58:66:
                    5c:1c:3a:a4:97:dc:46:51:64:74:d1:0a:86:8b:e2:
                    12:98:ef:0c:61:b9:b5:ae:44:22:ef:d0:f8:a4:20:
                    69:a3:36:a5:b1:f1:de:5a:7b:42:09:c2:c0:33:47:
                    68:38:ca:84:16:fc:11:36:8c:64:12:7f:8e:93:35:
                    8f:65:5c:4a:09:f2:b8:bc:4c:85:66:33:64:e4:95:
                    ec:33
                Exponent: 65537 (0x10001)
        X509v3 extensions:
            X509v3 Basic Constraints: 
                CA:FALSE
            X509v3 Subject Key Identifier: 
                D4:3E:87:F4:BF:CC:6A:81:D1:2C:3F:08:39:45:1B:C9:42:97:AD:F8
            X509v3 Authority Key Identifier: 
                keyid:44:01:CC:06:0B:41:75:CB:C8:FB:C9:37:86:2D:9D:D2:D8:79:B6:8B
                DirName:/C=US/ST=California/L=San Francisco/O=Copyleft Certificate Co/OU=My Organizational Unit/CN=ChangeMe/emailAddress=me@example.net
                serial:AF:E8:E0:DD:C5:8B:0E:DD

            X509v3 Extended Key Usage: 
                TLS Web Client Authentication
            X509v3 Key Usage: 
                Digital Signature
    Signature Algorithm: sha256WithRSAEncryption
         68:8f:32:43:cc:a1:53:19:0a:f5:92:91:4d:a6:ba:3b:f9:2e:
         5e:6e:df:b4:8c:5e:82:99:52:a5:c5:36:be:6b:85:4c:7f:40:
         62:e4:0b:74:e5:cf:2f:74:37:26:7d:43:aa:59:27:44:22:d1:
         1d:7a:5d:81:ba:8b:e1:62:d4:90:d7:90:87:22:14:cb:da:fb:
         eb:14:21:4f:75:d9:ba:34:9c:79:06:91:bb:b5:ea:6f:68:d9:
         68:8f:b1:b9:35:6d:dc:13:6a:5c:99:88:15:36:40:a0:88:8c:
         dc:1f:36:1d:d4:a6:2c:65:7f:fc:ca:88:02:70:58:56:52:68:
         ec:a6:92:5b:a5:81:fb:5c:86:77:c4:fd:55:cd:3f:5f:c9:0c:
         92:b5:e5:69:95:bf:15:47:3c:b2:7a:b6:87:bd:dc:ed:fc:10:
         47:a2:d7:37:52:ad:55:ab:f5:a6:36:c2:a7:90:fb:62:e9:ea:
         a8:aa:4f:2d:da:33:11:71:3c:92:36:92:fd:15:2d:81:d3:6c:
         1f:da:d9:24:c3:99:ac:ae:64:b5:01:ec:54:ea:d1:0d:01:63:
         21:8d:37:38:1c:57:29:cb:8e:14:56:c0:11:2e:52:be:26:4f:
         6f:f4:61:f3:b7:b5:ab:60:80:ac:23:70:81:1e:1f:a4:3b:57:
         05:14:b4:24
-----BEGIN CERTIFICATE-----
MIIFLzCCBBegAwIBAgIQMMo4na43nEl4e50MTAfSujANBgkqhkiG9w0BAQsFADCB
rzELMAkGA1UEBhMCVVMxEzARBgNVBAgMCkNhbGlmb3JuaWExFjAUBgNVBAcMDVNh
biBGcmFuY2lzY28xIDAeBgNVBAoMF0NvcHlsZWZ0IENlcnRpZmljYXRlIENvMR8w
HQYDVQQLDBZNeSBPcmdhbml6YXRpb25hbCBVbml0MREwDwYDVQQDDAhDaGFuZ2VN
ZTEdMBsGCSqGSIb3DQEJARYObWVAZXhhbXBsZS5uZXQwHhcNMjMxMTExMTA1NzM2
WhcNMjQxMTEwMTA1NzM2WjCBuzELMAkGA1UEBhMCVVMxCzAJBgNVBAgMAk9IMRMw
EQYDVQQHDApDaW5jaW5uYXRpMSEwHwYDVQQKDBhVbml2ZXJzaXR5IG9mIENpbmNp
bm5hdGkxKjAoBgNVBAsMIURlcHQuIEVsZWMuIENvbXAuIEVuZy4gQ29tcC4gU2Np
LjERMA8GA1UEAwwIY2xpZW50MzUxKDAmBgkqhkiG9w0BCQEWGWZyYW5jb0BnYXVz
cy5lY2Vjcy51Yy5lZHUwggEiMA0GCSqGSIb3DQEBAQUAA4IBDwAwggEKAoIBAQDa
RT2gQwHxQtUhUW9k0aBlJapnQguAdBSKJP1mVugIwUgD1FnXmhE3YJVhhNk63Rq2
6Qbwiwy2wQf1sGY3WlwfLZqoWY7j3G8yLAOazFRXp4Q0yFd97/vlD1tIVTQVqQzN
thUqOyMhyPQ1J+UxUMwJFDtkoe60dNCFY2pTECCepAHP1VuCbhqo2kChoXL9+wDP
W+1t7HeDwCBkF6KxYv69eWO2tTyr02i6z8azIGa85ctYZlwcOqSX3EZRZHTRCoaL
4hKY7wxhubWuRCLv0PikIGmjNqWx8d5ae0IJwsAzR2g4yoQW/BE2jGQSf46TNY9l
XEoJ8ri8TIVmM2TklewzAgMBAAGjggE3MIIBMzAJBgNVHRMEAjAAMB0GA1UdDgQW
BBTUPof0v8xqgdEsPwg5RRvJQpet+DCB5AYDVR0jBIHcMIHZgBREAcwGC0F1y8j7
yTeGLZ3S2Hm2i6GBtaSBsjCBrzELMAkGA1UEBhMCVVMxEzARBgNVBAgMCkNhbGlm
b3JuaWExFjAUBgNVBAcMDVNhbiBGcmFuY2lzY28xIDAeBgNVBAoMF0NvcHlsZWZ0
IENlcnRpZmljYXRlIENvMR8wHQYDVQQLDBZNeSBPcmdhbml6YXRpb25hbCBVbml0
MREwDwYDVQQDDAhDaGFuZ2VNZTEdMBsGCSqGSIb3DQEJARYObWVAZXhhbXBsZS5u
ZXSCCQCv6ODdxYsO3TATBgNVHSUEDDAKBggrBgEFBQcDAjALBgNVHQ8EBAMCB4Aw
DQYJKoZIhvcNAQELBQADggEBAGiPMkPMoVMZCvWSkU2mujv5Ll5u37SMXoKZUqXF
Nr5rhUx/QGLkC3Tlzy90NyZ9Q6pZJ0Qi0R16XYG6i+Fi1JDXkIciFMva++sUIU91
2bo0nHkGkbu16m9o2WiPsbk1bdwTalyZiBU2QKCIjNwfNh3Upixlf/zKiAJwWFZS
aOymklulgftchnfE/VXNP1/JDJK15WmVvxVHPLJ6toe93O38EEei1zdSrVWr9aY2
wqeQ+2Lp6qiqTy3aMxFxPJI2kv0VLYHTbB/a2STDmayuZLUB7FTq0Q0BYyGNNzgc
VynLjhRWwBEuUr4mT2/0YfO3tatggKwjcIEeH6Q7VwUUtCQ=
-----END CERTIFICATE-----
