Certificate:
    Data:
        Version: 3 (0x2)
        Serial Number:
            16:4a:b1:9b:ba:2f:cc:66:a6:e1:00:61:4a:a4:21:9d
    Signature Algorithm: sha256WithRSAEncryption
        Issuer: C=US, ST=California, L=San Francisco, O=Copyleft Certificate Co, OU=My Organizational Unit, CN=ChangeMe/emailAddress=me@example.net
        Validity
            Not Before: Nov 11 01:58:43 2023 GMT
            Not After : Nov 10 01:58:43 2024 GMT
        Subject: C=US, ST=OH, L=Cincinnati, O=University of Cincinnati, OU=Dept. Elec. Comp. Eng. Comp. Sci., CN=client10/emailAddress=franco@gauss.ececs.uc.edu
        Subject Public Key Info:
            Public Key Algorithm: rsaEncryption
                Public-Key: (2048 bit)
                Modulus:
                    00:cf:ca:bc:54:6e:4c:c6:ae:05:d3:ec:81:16:f4:
                    69:08:ca:79:04:40:5f:bf:ba:1d:b0:00:0f:79:b1:
                    88:83:0c:6a:42:3d:ad:37:8d:d5:52:05:e2:5a:2e:
                    a6:04:6a:9e:c9:97:f1:26:1b:4d:af:c7:ca:6e:ef:
                    fc:f8:e2:35:24:f4:51:b3:03:b6:3a:94:59:05:a6:
                    3c:b3:20:bb:8f:d0:d2:2d:8b:1f:8e:11:e2:b0:00:
                    49:bb:ab:30:b8:25:73:20:91:8f:0b:36:83:3f:6a:
                    96:8e:10:db:71:cf:7c:18:85:89:3b:89:c1:34:ec:
                    a9:70:54:4f:c7:54:91:f8:aa:6a:ba:0d:59:27:c6:
                    a8:e5:1c:18:64:f8:cb:aa:eb:81:a6:04:d7:60:8b:
                    04:33:bb:d9:fe:07:d4:c9:f6:f4:2d:c6:0c:ac:51:
                    7a:ba:ce:04:61:2a:e0:d9:17:33:2c:41:42:79:53:
                    34:5b:4e:78:49:40:21:cf:55:2c:1e:b1:ce:05:a8:
                    0c:f2:fb:4d:0c:03:3e:68:11:87:19:50:18:04:3e:
                    18:37:e8:76:2d:5e:c7:15:03:b3:21:82:e6:4c:2b:
                    5d:df:27:2d:ac:00:d8:8e:0a:b4:c6:d1:1e:67:c9:
                    4b:14:9c:5b:ef:31:99:4b:9a:28:d6:a9:6f:72:63:
                    46:1b
                Exponent: 65537 (0x10001)
        X509v3 extensions:
            X509v3 Basic Constraints: 
                CA:FALSE
            X509v3 Subject Key Identifier: 
                E1:9D:27:00:90:88:0F:B8:15:9E:2A:9F:6C:F2:8B:EC:DA:76:12:E5
            X509v3 Authority Key Identifier: 
                keyid:7B:0F:93:16:64:9F:71:41:D3:1B:FB:ED:6A:70:9B:CA:2E:70:F0:4B
                DirName:/C=US/ST=California/L=San Francisco/O=Copyleft Certificate Co/OU=My Organizational Unit/CN=ChangeMe/emailAddress=me@example.net
                serial:B9:F2:4E:2C:79:B3:D4:6C

            X509v3 Extended Key Usage: 
                TLS Web Client Authentication
            X509v3 Key Usage: 
                Digital Signature
    Signature Algorithm: sha256WithRSAEncryption
         85:f2:21:b9:78:b5:5d:02:36:b1:3a:36:dd:89:10:c9:c7:32:
         98:b0:80:fd:68:3d:80:c1:71:e3:36:6b:ed:4e:13:45:c5:7d:
         d3:2c:68:d5:4e:0e:27:7c:a6:cb:b7:8b:38:83:cf:98:8f:f5:
         86:1e:0c:dc:ed:87:0a:9b:97:b9:e1:2b:f5:92:2f:7d:df:2b:
         67:90:be:55:72:bb:6c:e4:8b:bd:26:99:ca:3f:94:fe:4f:c4:
         39:84:b1:86:72:bd:c0:65:be:a4:38:29:de:d7:20:6e:47:a7:
         04:c5:04:4c:07:07:fc:8b:c1:0e:ae:fb:f4:f6:21:d7:09:ad:
         15:dc:e7:c2:ae:1e:f1:b3:d3:05:59:55:60:ca:b4:9e:ab:88:
         ca:2d:e1:13:89:63:4f:6f:37:c7:fe:8b:c3:09:90:87:70:a1:
         a9:ea:60:92:c0:41:fd:9e:54:74:03:43:c9:93:bf:66:87:a1:
         10:4d:a2:87:90:0c:33:87:aa:f0:35:5f:07:dc:14:11:82:69:
         2b:89:f3:5b:1b:27:e2:92:80:f8:61:dc:54:de:37:4d:6c:4a:
         e8:01:3f:bc:8d:76:46:18:2d:f0:5a:47:ce:d6:33:29:d3:5a:
         95:cb:ac:44:6d:ba:bd:d6:f8:3e:b0:d0:97:6c:27:34:f2:7e:
         cb:ff:52:30
-----BEGIN CERTIFICATE-----
MIIFLzCCBBegAwIBAgIQFkqxm7ovzGam4QBhSqQhnTANBgkqhkiG9w0BAQsFADCB
rzELMAkGA1UEBhMCVVMxEzARBgNVBAgMCkNhbGlmb3JuaWExFjAUBgNVBAcMDVNh
biBGcmFuY2lzY28xIDAeBgNVBAoMF0NvcHlsZWZ0IENlcnRpZmljYXRlIENvMR8w
HQYDVQQLDBZNeSBPcmdhbml6YXRpb25hbCBVbml0MREwDwYDVQQDDAhDaGFuZ2VN
ZTEdMBsGCSqGSIb3DQEJARYObWVAZXhhbXBsZS5uZXQwHhcNMjMxMTExMDE1ODQz
WhcNMjQxMTEwMDE1ODQzWjCBuzELMAkGA1UEBhMCVVMxCzAJBgNVBAgMAk9IMRMw
EQYDVQQHDApDaW5jaW5uYXRpMSEwHwYDVQQKDBhVbml2ZXJzaXR5IG9mIENpbmNp
bm5hdGkxKjAoBgNVBAsMIURlcHQuIEVsZWMuIENvbXAuIEVuZy4gQ29tcC4gU2Np
LjERMA8GA1UEAwwIY2xpZW50MTAxKDAmBgkqhkiG9w0BCQEWGWZyYW5jb0BnYXVz
cy5lY2Vjcy51Yy5lZHUwggEiMA0GCSqGSIb3DQEBAQUAA4IBDwAwggEKAoIBAQDP
yrxUbkzGrgXT7IEW9GkIynkEQF+/uh2wAA95sYiDDGpCPa03jdVSBeJaLqYEap7J
l/EmG02vx8pu7/z44jUk9FGzA7Y6lFkFpjyzILuP0NItix+OEeKwAEm7qzC4JXMg
kY8LNoM/apaOENtxz3wYhYk7icE07KlwVE/HVJH4qmq6DVknxqjlHBhk+Muq64Gm
BNdgiwQzu9n+B9TJ9vQtxgysUXq6zgRhKuDZFzMsQUJ5UzRbTnhJQCHPVSwesc4F
qAzy+00MAz5oEYcZUBgEPhg36HYtXscVA7MhguZMK13fJy2sANiOCrTG0R5nyUsU
nFvvMZlLmijWqW9yY0YbAgMBAAGjggE3MIIBMzAJBgNVHRMEAjAAMB0GA1UdDgQW
BBThnScAkIgPuBWeKp9s8ovs2nYS5TCB5AYDVR0jBIHcMIHZgBR7D5MWZJ9xQdMb
++1qcJvKLnDwS6GBtaSBsjCBrzELMAkGA1UEBhMCVVMxEzARBgNVBAgMCkNhbGlm
b3JuaWExFjAUBgNVBAcMDVNhbiBGcmFuY2lzY28xIDAeBgNVBAoMF0NvcHlsZWZ0
IENlcnRpZmljYXRlIENvMR8wHQYDVQQLDBZNeSBPcmdhbml6YXRpb25hbCBVbml0
MREwDwYDVQQDDAhDaGFuZ2VNZTEdMBsGCSqGSIb3DQEJARYObWVAZXhhbXBsZS5u
ZXSCCQC58k4sebPUbDATBgNVHSUEDDAKBggrBgEFBQcDAjALBgNVHQ8EBAMCB4Aw
DQYJKoZIhvcNAQELBQADggEBAIXyIbl4tV0CNrE6Nt2JEMnHMpiwgP1oPYDBceM2
a+1OE0XFfdMsaNVODid8psu3iziDz5iP9YYeDNzthwqbl7nhK/WSL33fK2eQvlVy
u2zki70mmco/lP5PxDmEsYZyvcBlvqQ4Kd7XIG5HpwTFBEwHB/yLwQ6u+/T2IdcJ
rRXc58KuHvGz0wVZVWDKtJ6riMot4ROJY09vN8f+i8MJkIdwoanqYJLAQf2eVHQD
Q8mTv2aHoRBNooeQDDOHqvA1XwfcFBGCaSuJ81sbJ+KSgPhh3FTeN01sSugBP7yN
dkYYLfBaR87WMynTWpXLrERtur3W+D6w0JdsJzTyfsv/UjA=
-----END CERTIFICATE-----
