Certificate:
    Data:
        Version: 3 (0x2)
        Serial Number:
            7a:eb:3f:94:ee:a1:c7:a5:68:ff:0f:43:41:cb:8f:c6
    Signature Algorithm: sha256WithRSAEncryption
        Issuer: C=US, ST=California, L=San Francisco, O=Copyleft Certificate Co, OU=My Organizational Unit, CN=ChangeMe/emailAddress=me@example.net
        Validity
            Not Before: Nov 11 01:44:42 2023 GMT
            Not After : Nov 10 01:44:42 2024 GMT
        Subject: C=US, ST=OH, L=Cincinnati, O=University of Cincinnati, OU=Dept. Elec. Comp. Eng. Comp. Sci., CN=client75/emailAddress=franco@gauss.ececs.uc.edu
        Subject Public Key Info:
            Public Key Algorithm: rsaEncryption
                Public-Key: (2048 bit)
                Modulus:
                    00:b9:a0:2c:d5:26:41:ab:1f:dc:8d:46:bf:a0:6d:
                    86:f0:eb:19:bb:49:f3:b0:b0:d3:40:48:81:27:12:
                    05:18:f4:99:d8:ef:dc:d0:08:7d:3a:81:b6:cd:16:
                    91:71:44:b7:41:e3:29:29:8f:92:c8:31:53:df:0b:
                    f6:48:31:21:cc:0e:87:77:32:a4:69:e4:08:e6:ab:
                    89:4b:46:bc:0b:3e:ae:19:c6:7f:15:b0:9a:29:70:
                    4e:2b:30:1a:49:f2:9a:cd:9d:5e:b8:4c:de:5f:17:
                    1d:db:d2:fa:bf:02:2d:b4:c9:82:14:c6:f3:25:36:
                    c5:18:29:67:cc:bb:57:f2:80:5f:1d:d3:49:5c:9d:
                    c9:65:fe:f4:1d:cc:b2:f1:ef:98:b7:6d:2d:fb:54:
                    22:a3:fe:9f:d7:1a:2d:70:af:ed:59:f7:77:a3:44:
                    2c:a4:39:50:d9:99:63:43:bf:be:ec:c9:96:2b:11:
                    23:73:ee:52:46:08:0e:98:51:ad:26:0d:aa:e1:d3:
                    c1:f4:07:43:68:d5:30:1f:67:72:17:68:2f:1b:03:
                    74:e3:61:97:8d:93:7c:80:be:f0:16:5b:37:6e:6d:
                    ff:8d:f2:e1:ec:da:5d:88:9c:fa:cb:f9:7a:67:6d:
                    c8:af:5e:31:ea:8c:9f:92:8c:cd:90:73:4f:4d:a5:
                    3c:fb
                Exponent: 65537 (0x10001)
        X509v3 extensions:
            X509v3 Basic Constraints: 
                CA:FALSE
            X509v3 Subject Key Identifier: 
                46:57:E0:44:84:E8:4C:2D:48:40:6B:72:2C:AF:6B:D5:66:BA:BA:E4
            X509v3 Authority Key Identifier: 
                keyid:73:DE:A0:43:0F:AE:B1:9E:E8:59:69:18:50:A1:1A:1F:D4:A1:E3:F0
                DirName:/C=US/ST=California/L=San Francisco/O=Copyleft Certificate Co/OU=My Organizational Unit/CN=ChangeMe/emailAddress=me@example.net
                serial:E9:BB:CB:16:C5:32:BE:3B

            X509v3 Extended Key Usage: 
                TLS Web Client Authentication
            X509v3 Key Usage: 
                Digital Signature
    Signature Algorithm: sha256WithRSAEncryption
         6e:2c:8c:3d:80:08:23:8a:09:75:fe:28:54:3a:c0:93:d0:0e:
         05:e9:a4:0b:8f:6b:0e:b0:04:04:ec:3c:3f:8e:49:6a:00:e5:
         1e:b1:06:c5:47:35:78:92:1d:c1:62:2c:a6:56:12:e2:d7:50:
         a8:c7:21:b9:56:6d:54:f6:92:12:94:da:c6:a6:5c:5f:d3:de:
         64:cd:de:85:34:a3:5c:2e:ba:3e:63:1f:99:97:1a:3c:fa:09:
         f7:7e:20:6b:fc:30:aa:a1:6b:24:1c:a5:56:f2:ee:9f:97:36:
         14:bf:23:24:88:6c:fc:d0:12:17:69:49:ac:8c:d9:b2:d5:7a:
         8d:df:9a:69:1f:cf:3a:c0:e8:ac:13:2e:10:ad:87:6a:19:ca:
         5c:1f:d8:e3:44:a0:10:f2:71:27:c4:5a:27:59:37:09:26:5f:
         b8:d0:c7:98:57:71:76:48:8f:06:cc:07:76:c0:f4:21:65:83:
         9a:21:dd:ed:ad:e1:de:4c:ba:d1:c1:42:a9:3f:b8:09:67:af:
         5c:a6:92:ee:39:22:d4:87:ee:72:0c:78:e0:80:e2:c5:b1:b2:
         ec:7e:04:14:55:3f:fc:9f:9b:09:72:93:d2:bc:f5:84:02:0b:
         f5:46:cc:75:8d:ca:e0:dc:f3:14:b2:dd:d8:ce:74:79:43:69:
         3a:cd:1d:ef
-----BEGIN CERTIFICATE-----
MIIFLzCCBBegAwIBAgIQeus/lO6hx6Vo/w9DQcuPxjANBgkqhkiG9w0BAQsFADCB
rzELMAkGA1UEBhMCVVMxEzARBgNVBAgMCkNhbGlmb3JuaWExFjAUBgNVBAcMDVNh
biBGcmFuY2lzY28xIDAeBgNVBAoMF0NvcHlsZWZ0IENlcnRpZmljYXRlIENvMR8w
HQYDVQQLDBZNeSBPcmdhbml6YXRpb25hbCBVbml0MREwDwYDVQQDDAhDaGFuZ2VN
ZTEdMBsGCSqGSIb3DQEJARYObWVAZXhhbXBsZS5uZXQwHhcNMjMxMTExMDE0NDQy
WhcNMjQxMTEwMDE0NDQyWjCBuzELMAkGA1UEBhMCVVMxCzAJBgNVBAgMAk9IMRMw
EQYDVQQHDApDaW5jaW5uYXRpMSEwHwYDVQQKDBhVbml2ZXJzaXR5IG9mIENpbmNp
bm5hdGkxKjAoBgNVBAsMIURlcHQuIEVsZWMuIENvbXAuIEVuZy4gQ29tcC4gU2Np
LjERMA8GA1UEAwwIY2xpZW50NzUxKDAmBgkqhkiG9w0BCQEWGWZyYW5jb0BnYXVz
cy5lY2Vjcy51Yy5lZHUwggEiMA0GCSqGSIb3DQEBAQUAA4IBDwAwggEKAoIBAQC5
oCzVJkGrH9yNRr+gbYbw6xm7SfOwsNNASIEnEgUY9JnY79zQCH06gbbNFpFxRLdB
4ykpj5LIMVPfC/ZIMSHMDod3MqRp5Ajmq4lLRrwLPq4Zxn8VsJopcE4rMBpJ8prN
nV64TN5fFx3b0vq/Ai20yYIUxvMlNsUYKWfMu1fygF8d00lcncll/vQdzLLx75i3
bS37VCKj/p/XGi1wr+1Z93ejRCykOVDZmWNDv77syZYrESNz7lJGCA6YUa0mDarh
08H0B0No1TAfZ3IXaC8bA3TjYZeNk3yAvvAWWzdubf+N8uHs2l2InPrL+Xpnbciv
XjHqjJ+SjM2Qc09NpTz7AgMBAAGjggE3MIIBMzAJBgNVHRMEAjAAMB0GA1UdDgQW
BBRGV+BEhOhMLUhAa3Isr2vVZrq65DCB5AYDVR0jBIHcMIHZgBRz3qBDD66xnuhZ
aRhQoRof1KHj8KGBtaSBsjCBrzELMAkGA1UEBhMCVVMxEzARBgNVBAgMCkNhbGlm
b3JuaWExFjAUBgNVBAcMDVNhbiBGcmFuY2lzY28xIDAeBgNVBAoMF0NvcHlsZWZ0
IENlcnRpZmljYXRlIENvMR8wHQYDVQQLDBZNeSBPcmdhbml6YXRpb25hbCBVbml0
MREwDwYDVQQDDAhDaGFuZ2VNZTEdMBsGCSqGSIb3DQEJARYObWVAZXhhbXBsZS5u
ZXSCCQDpu8sWxTK+OzATBgNVHSUEDDAKBggrBgEFBQcDAjALBgNVHQ8EBAMCB4Aw
DQYJKoZIhvcNAQELBQADggEBAG4sjD2ACCOKCXX+KFQ6wJPQDgXppAuPaw6wBATs
PD+OSWoA5R6xBsVHNXiSHcFiLKZWEuLXUKjHIblWbVT2khKU2samXF/T3mTN3oU0
o1wuuj5jH5mXGjz6Cfd+IGv8MKqhayQcpVby7p+XNhS/IySIbPzQEhdpSayM2bLV
eo3fmmkfzzrA6KwTLhCth2oZylwf2ONEoBDycSfEWidZNwkmX7jQx5hXcXZIjwbM
B3bA9CFlg5oh3e2t4d5MutHBQqk/uAlnr1ymku45ItSH7nIMeOCA4sWxsux+BBRV
P/yfmwlyk9K89YQCC/VGzHWNyuDc8xSy3djOdHlDaTrNHe8=
-----END CERTIFICATE-----
