Certificate:
    Data:
        Version: 3 (0x2)
        Serial Number:
            0d:6c:9a:f4:de:f9:77:ea:4b:77:ba:70:67:3c:b2:ba
    Signature Algorithm: sha256WithRSAEncryption
        Issuer: C=US, ST=California, L=San Francisco, O=Copyleft Certificate Co, OU=My Organizational Unit, CN=ChangeMe/emailAddress=me@example.net
        Validity
            Not Before: Nov 11 01:46:06 2023 GMT
            Not After : Nov 10 01:46:06 2024 GMT
        Subject: C=US, ST=OH, L=Cincinnati, O=University of Cincinnati, OU=Dept. Elec. Comp. Eng. Comp. Sci., CN=client96/emailAddress=franco@gauss.ececs.uc.edu
        Subject Public Key Info:
            Public Key Algorithm: rsaEncryption
                Public-Key: (2048 bit)
                Modulus:
                    00:a9:8b:d5:d6:45:04:44:81:cc:8d:24:fd:b3:af:
                    13:2a:bf:1a:cf:0f:ed:ed:eb:a4:a3:ef:ca:69:91:
                    93:c5:cd:d7:ae:f5:d7:b7:65:11:33:29:e6:a5:7f:
                    f6:51:04:48:50:f0:a1:8e:33:2b:43:42:86:2b:20:
                    bf:cc:46:37:ef:2f:24:12:1c:12:c4:3d:ee:e5:0a:
                    b6:5f:d0:6e:d0:17:2a:3d:1d:21:4f:78:67:30:2f:
                    d8:01:24:e8:00:92:3a:d8:98:3c:e6:f2:b7:ef:af:
                    09:d1:29:ab:8e:fb:8a:7b:3a:a3:01:6f:f6:7e:cd:
                    a8:a1:6c:2b:ea:73:19:28:ec:f2:12:1b:de:b7:bd:
                    1e:23:ba:49:2a:79:ff:a8:cd:7b:39:59:8d:3e:c6:
                    0a:bb:5d:b9:3e:40:7c:02:76:61:94:65:94:d7:48:
                    c1:0c:5e:8f:70:be:a0:ca:c4:8e:70:ad:d6:29:3c:
                    00:78:fc:ef:75:08:37:d0:8e:6c:2f:cc:98:ce:51:
                    54:6a:39:95:35:bf:74:c6:98:19:78:39:83:52:5d:
                    8e:86:ab:55:0e:89:63:ba:0d:24:89:3e:de:69:ca:
                    b6:44:eb:74:97:67:e3:f3:2b:5b:3e:42:16:64:ea:
                    d8:49:58:4b:c0:a2:3a:61:d6:5e:14:01:c7:36:03:
                    65:79
                Exponent: 65537 (0x10001)
        X509v3 extensions:
            X509v3 Basic Constraints: 
                CA:FALSE
            X509v3 Subject Key Identifier: 
                80:EB:AE:6C:8B:5E:19:A3:EF:3E:8C:2F:2C:D6:F3:9F:6A:66:40:CC
            X509v3 Authority Key Identifier: 
                keyid:73:DE:A0:43:0F:AE:B1:9E:E8:59:69:18:50:A1:1A:1F:D4:A1:E3:F0
                DirName:/C=US/ST=California/L=San Francisco/O=Copyleft Certificate Co/OU=My Organizational Unit/CN=ChangeMe/emailAddress=me@example.net
                serial:E9:BB:CB:16:C5:32:BE:3B

            X509v3 Extended Key Usage: 
                TLS Web Client Authentication
            X509v3 Key Usage: 
                Digital Signature
    Signature Algorithm: sha256WithRSAEncryption
         8e:45:46:f9:40:6c:8e:16:0e:99:9d:79:da:59:58:7c:fa:b6:
         f6:6b:17:86:10:1c:24:2a:07:8f:f8:fb:70:d8:38:1e:9f:eb:
         bd:46:be:dd:84:86:d5:a4:ca:98:c1:f5:f9:aa:ab:a6:74:2f:
         8c:ca:9b:f6:28:a3:78:31:c3:05:1a:fd:50:47:37:0c:46:8c:
         b5:de:e8:fc:a7:81:89:c9:1a:54:0a:a4:12:99:e0:da:53:d9:
         90:fe:e0:48:b8:0b:e5:23:c3:44:5b:68:c7:ed:7e:8b:5a:aa:
         f1:e1:1f:a0:87:b5:c2:a4:fc:5e:e3:e6:26:17:7d:48:9f:be:
         02:fb:ed:ce:f0:c8:d5:2b:96:9f:12:1e:4e:bf:5b:f3:74:b6:
         52:ab:2e:62:54:7a:33:eb:e3:8b:a9:f0:e9:89:83:6e:f9:64:
         22:7e:d0:f2:95:82:79:5b:18:d5:88:cd:82:ce:b0:2c:db:2b:
         aa:bd:1f:94:8a:1e:3c:3a:63:78:d1:97:87:b1:9b:03:d1:d4:
         cb:93:20:0b:f2:2f:75:a5:f3:6d:c6:64:59:4c:35:03:d5:30:
         5f:ca:ec:74:d1:7f:4b:a9:5b:58:2d:1b:93:a2:32:a8:09:e6:
         8f:6f:c7:fd:76:21:3b:68:e0:e3:93:8d:bb:22:46:58:e7:ac:
         93:7c:16:c7
-----BEGIN CERTIFICATE-----
MIIFLzCCBBegAwIBAgIQDWya9N75d+pLd7pwZzyyujANBgkqhkiG9w0BAQsFADCB
rzELMAkGA1UEBhMCVVMxEzARBgNVBAgMCkNhbGlmb3JuaWExFjAUBgNVBAcMDVNh
biBGcmFuY2lzY28xIDAeBgNVBAoMF0NvcHlsZWZ0IENlcnRpZmljYXRlIENvMR8w
HQYDVQQLDBZNeSBPcmdhbml6YXRpb25hbCBVbml0MREwDwYDVQQDDAhDaGFuZ2VN
ZTEdMBsGCSqGSIb3DQEJARYObWVAZXhhbXBsZS5uZXQwHhcNMjMxMTExMDE0NjA2
WhcNMjQxMTEwMDE0NjA2WjCBuzELMAkGA1UEBhMCVVMxCzAJBgNVBAgMAk9IMRMw
EQYDVQQHDApDaW5jaW5uYXRpMSEwHwYDVQQKDBhVbml2ZXJzaXR5IG9mIENpbmNp
bm5hdGkxKjAoBgNVBAsMIURlcHQuIEVsZWMuIENvbXAuIEVuZy4gQ29tcC4gU2Np
LjERMA8GA1UEAwwIY2xpZW50OTYxKDAmBgkqhkiG9w0BCQEWGWZyYW5jb0BnYXVz
cy5lY2Vjcy51Yy5lZHUwggEiMA0GCSqGSIb3DQEBAQUAA4IBDwAwggEKAoIBAQCp
i9XWRQREgcyNJP2zrxMqvxrPD+3t66Sj78ppkZPFzdeu9de3ZREzKealf/ZRBEhQ
8KGOMytDQoYrIL/MRjfvLyQSHBLEPe7lCrZf0G7QFyo9HSFPeGcwL9gBJOgAkjrY
mDzm8rfvrwnRKauO+4p7OqMBb/Z+zaihbCvqcxko7PISG963vR4jukkqef+ozXs5
WY0+xgq7Xbk+QHwCdmGUZZTXSMEMXo9wvqDKxI5wrdYpPAB4/O91CDfQjmwvzJjO
UVRqOZU1v3TGmBl4OYNSXY6Gq1UOiWO6DSSJPt5pyrZE63SXZ+PzK1s+QhZk6thJ
WEvAojph1l4UAcc2A2V5AgMBAAGjggE3MIIBMzAJBgNVHRMEAjAAMB0GA1UdDgQW
BBSA665si14Zo+8+jC8s1vOfamZAzDCB5AYDVR0jBIHcMIHZgBRz3qBDD66xnuhZ
aRhQoRof1KHj8KGBtaSBsjCBrzELMAkGA1UEBhMCVVMxEzARBgNVBAgMCkNhbGlm
b3JuaWExFjAUBgNVBAcMDVNhbiBGcmFuY2lzY28xIDAeBgNVBAoMF0NvcHlsZWZ0
IENlcnRpZmljYXRlIENvMR8wHQYDVQQLDBZNeSBPcmdhbml6YXRpb25hbCBVbml0
MREwDwYDVQQDDAhDaGFuZ2VNZTEdMBsGCSqGSIb3DQEJARYObWVAZXhhbXBsZS5u
ZXSCCQDpu8sWxTK+OzATBgNVHSUEDDAKBggrBgEFBQcDAjALBgNVHQ8EBAMCB4Aw
DQYJKoZIhvcNAQELBQADggEBAI5FRvlAbI4WDpmdedpZWHz6tvZrF4YQHCQqB4/4
+3DYOB6f671Gvt2EhtWkypjB9fmqq6Z0L4zKm/Yoo3gxwwUa/VBHNwxGjLXe6Pyn
gYnJGlQKpBKZ4NpT2ZD+4Ei4C+Ujw0RbaMftfotaqvHhH6CHtcKk/F7j5iYXfUif
vgL77c7wyNUrlp8SHk6/W/N0tlKrLmJUejPr44up8OmJg275ZCJ+0PKVgnlbGNWI
zYLOsCzbK6q9H5SKHjw6Y3jRl4exmwPR1MuTIAvyL3Wl823GZFlMNQPVMF/K7HTR
f0upW1gtG5OiMqgJ5o9vx/12ITto4OOTjbsiRljnrJN8Fsc=
-----END CERTIFICATE-----
