Certificate:
    Data:
        Version: 3 (0x2)
        Serial Number:
            85:bc:9b:f4:af:aa:18:1d:42:da:d3:fa:e4:4b:56:f4
    Signature Algorithm: sha256WithRSAEncryption
        Issuer: C=US, ST=California, L=San Francisco, O=Copyleft Certificate Co, OU=My Organizational Unit, CN=ChangeMe/emailAddress=me@example.net
        Validity
            Not Before: Nov 10 17:42:53 2023 GMT
            Not After : Nov  9 17:42:53 2024 GMT
        Subject: C=US, ST=OH, L=Cincinnati, O=University of Cincinnati, OU=Dept_Elec_Com_ Eng_Com_Sci., CN=client67/emailAddress=franco@gauss.ececs.uc.edu
        Subject Public Key Info:
            Public Key Algorithm: rsaEncryption
                Public-Key: (2048 bit)
                Modulus:
                    00:a1:e9:9f:7f:ac:13:16:15:72:2e:b8:39:1c:22:
                    19:a4:2f:5c:c2:81:7e:9a:d3:5c:f5:e2:a6:bd:2f:
                    47:2d:34:7e:ee:ed:a5:9e:de:28:cc:21:4f:f8:a7:
                    53:bf:27:dc:4f:e2:4c:b0:d0:20:62:7d:de:23:56:
                    c3:3b:16:9e:76:99:e8:e5:c0:18:1a:63:af:25:15:
                    c0:d1:78:15:83:3e:e2:c8:3a:ba:cc:8d:e5:62:65:
                    3a:bc:34:18:8a:3a:da:81:3c:82:70:a2:d9:01:e6:
                    0f:2d:62:3c:df:cd:e4:a3:7b:95:79:d0:ef:96:75:
                    8b:22:54:f5:6c:1c:ce:72:92:7f:a2:30:56:39:96:
                    29:8f:e6:d5:28:05:f4:98:81:49:62:d2:22:59:ce:
                    cc:13:25:65:c3:e5:31:ee:43:43:71:70:b0:37:c5:
                    3d:11:b9:c1:10:eb:be:f3:14:cf:d8:83:b8:e8:46:
                    2d:2e:a5:6d:71:6a:2c:c3:11:db:7c:64:83:76:d4:
                    05:86:05:4a:e2:30:10:fa:60:01:3e:2a:27:44:57:
                    67:48:04:b4:e6:bf:91:0d:b5:04:ee:75:f1:11:bd:
                    de:80:4b:58:53:f5:a8:da:f9:7d:f0:66:f6:16:b9:
                    e2:af:67:bb:06:ee:c4:4a:f0:a8:64:bd:59:19:05:
                    28:97
                Exponent: 65537 (0x10001)
        X509v3 extensions:
            X509v3 Basic Constraints: 
                CA:FALSE
            X509v3 Subject Key Identifier: 
                88:6F:B1:8E:27:95:47:A4:3D:15:D8:C0:A5:97:35:F8:41:B8:E7:0B
            X509v3 Authority Key Identifier: 
                keyid:C8:27:DA:64:30:08:40:08:4A:25:CC:DC:43:99:DE:77:A1:FE:77:BD
                DirName:/C=US/ST=California/L=San Francisco/O=Copyleft Certificate Co/OU=My Organizational Unit/CN=ChangeMe/emailAddress=me@example.net
                serial:A9:48:C3:7E:FC:1B:B0:A1

            X509v3 Extended Key Usage: 
                TLS Web Client Authentication
            X509v3 Key Usage: 
                Digital Signature
    Signature Algorithm: sha256WithRSAEncryption
         ad:fa:8a:44:dd:37:a5:23:86:ff:6d:fd:ff:f5:a9:8e:94:22:
         db:e2:30:5f:36:5c:70:2e:54:4f:c0:50:dc:e0:4b:e8:50:0d:
         b8:4c:b9:61:9d:5c:1c:f5:3a:00:33:52:2a:a8:ce:fd:7a:48:
         05:51:61:d8:ed:98:e7:32:b7:29:7e:bf:2a:5d:32:64:dc:4b:
         75:de:f7:55:27:b4:e8:c9:19:1b:98:a6:3d:46:0a:df:8d:de:
         03:bd:42:95:62:24:7a:b9:fb:cd:16:b2:86:0a:14:ca:5f:76:
         f6:65:87:89:e0:4f:46:7d:46:16:40:7a:62:59:1b:2c:b3:a1:
         10:2c:f9:e3:d6:1e:a3:f2:96:06:52:e6:3b:7c:f2:97:7a:b2:
         4b:b8:de:f4:bb:2b:93:f1:15:b8:c6:62:25:c7:29:95:1d:09:
         75:64:ef:47:73:ef:7c:b0:20:a5:e7:ff:d6:a6:6a:0e:df:40:
         06:0b:5b:90:c7:ca:1c:73:8e:af:2d:d2:2b:3f:3b:bf:f1:a9:
         bb:cb:e7:71:05:f7:e5:6e:f5:93:56:62:a0:c4:6d:35:25:99:
         da:d9:1d:97:95:a9:a8:2b:31:45:7a:84:77:8b:88:32:a1:bd:
         37:1e:f9:c7:d0:4b:45:a8:5e:d0:34:3e:0d:f3:55:d1:3b:b8:
         b5:c3:e3:e3
-----BEGIN CERTIFICATE-----
MIIFKjCCBBKgAwIBAgIRAIW8m/SvqhgdQtrT+uRLVvQwDQYJKoZIhvcNAQELBQAw
ga8xCzAJBgNVBAYTAlVTMRMwEQYDVQQIDApDYWxpZm9ybmlhMRYwFAYDVQQHDA1T
YW4gRnJhbmNpc2NvMSAwHgYDVQQKDBdDb3B5bGVmdCBDZXJ0aWZpY2F0ZSBDbzEf
MB0GA1UECwwWTXkgT3JnYW5pemF0aW9uYWwgVW5pdDERMA8GA1UEAwwIQ2hhbmdl
TWUxHTAbBgkqhkiG9w0BCQEWDm1lQGV4YW1wbGUubmV0MB4XDTIzMTExMDE3NDI1
M1oXDTI0MTEwOTE3NDI1M1owgbUxCzAJBgNVBAYTAlVTMQswCQYDVQQIDAJPSDET
MBEGA1UEBwwKQ2luY2lubmF0aTEhMB8GA1UECgwYVW5pdmVyc2l0eSBvZiBDaW5j
aW5uYXRpMSQwIgYDVQQLDBtEZXB0X0VsZWNfQ29tXyBFbmdfQ29tX1NjaS4xETAP
BgNVBAMMCGNsaWVudDY3MSgwJgYJKoZIhvcNAQkBFhlmcmFuY29AZ2F1c3MuZWNl
Y3MudWMuZWR1MIIBIjANBgkqhkiG9w0BAQEFAAOCAQ8AMIIBCgKCAQEAoemff6wT
FhVyLrg5HCIZpC9cwoF+mtNc9eKmvS9HLTR+7u2lnt4ozCFP+KdTvyfcT+JMsNAg
Yn3eI1bDOxaedpno5cAYGmOvJRXA0XgVgz7iyDq6zI3lYmU6vDQYijragTyCcKLZ
AeYPLWI8383ko3uVedDvlnWLIlT1bBzOcpJ/ojBWOZYpj+bVKAX0mIFJYtIiWc7M
EyVlw+Ux7kNDcXCwN8U9EbnBEOu+8xTP2IO46EYtLqVtcWoswxHbfGSDdtQFhgVK
4jAQ+mABPionRFdnSAS05r+RDbUE7nXxEb3egEtYU/Wo2vl98Gb2Frnir2e7Bu7E
SvCoZL1ZGQUolwIDAQABo4IBNzCCATMwCQYDVR0TBAIwADAdBgNVHQ4EFgQUiG+x
jieVR6Q9FdjApZc1+EG45wswgeQGA1UdIwSB3DCB2YAUyCfaZDAIQAhKJczcQ5ne
d6H+d72hgbWkgbIwga8xCzAJBgNVBAYTAlVTMRMwEQYDVQQIDApDYWxpZm9ybmlh
MRYwFAYDVQQHDA1TYW4gRnJhbmNpc2NvMSAwHgYDVQQKDBdDb3B5bGVmdCBDZXJ0
aWZpY2F0ZSBDbzEfMB0GA1UECwwWTXkgT3JnYW5pemF0aW9uYWwgVW5pdDERMA8G
A1UEAwwIQ2hhbmdlTWUxHTAbBgkqhkiG9w0BCQEWDm1lQGV4YW1wbGUubmV0ggkA
qUjDfvwbsKEwEwYDVR0lBAwwCgYIKwYBBQUHAwIwCwYDVR0PBAQDAgeAMA0GCSqG
SIb3DQEBCwUAA4IBAQCt+opE3TelI4b/bf3/9amOlCLb4jBfNlxwLlRPwFDc4Evo
UA24TLlhnVwc9ToAM1IqqM79ekgFUWHY7ZjnMrcpfr8qXTJk3Et13vdVJ7ToyRkb
mKY9Rgrfjd4DvUKVYiR6ufvNFrKGChTKX3b2ZYeJ4E9GfUYWQHpiWRsss6EQLPnj
1h6j8pYGUuY7fPKXerJLuN70uyuT8RW4xmIlxymVHQl1ZO9Hc+98sCCl5//WpmoO
30AGC1uQx8occ46vLdIrPzu/8am7y+dxBfflbvWTVmKgxG01JZna2R2XlamoKzFF
eoR3i4gyob03HvnH0EtFqF7QND4N81XRO7i1w+Pj
-----END CERTIFICATE-----
