Certificate:
    Data:
        Version: 3 (0x2)
        Serial Number:
            25:1a:d1:d6:7b:ff:11:e7:89:84:40:62:1a:82:a0:8e
    Signature Algorithm: sha256WithRSAEncryption
        Issuer: C=US, ST=California, L=San Francisco, O=Copyleft Certificate Co, OU=My Organizational Unit, CN=ChangeMe/emailAddress=me@example.net
        Validity
            Not Before: Nov 10 17:45:38 2023 GMT
            Not After : Nov  9 17:45:38 2024 GMT
        Subject: C=US, ST=OH, L=Cincinnati, O=University of Cincinnati, OU=Dept_Elec_Com_ Eng_Com_Sci., CN=client108/emailAddress=franco@gauss.ececs.uc.edu
        Subject Public Key Info:
            Public Key Algorithm: rsaEncryption
                Public-Key: (2048 bit)
                Modulus:
                    00:e7:df:03:c9:1b:92:1a:42:ed:3d:5e:f6:ef:e3:
                    a1:4e:26:b2:8e:6b:c7:98:74:83:50:8d:4e:03:24:
                    1d:a2:b3:9d:71:97:11:38:65:bc:c1:21:21:73:95:
                    e4:b5:b2:0a:64:11:1e:b5:fc:9b:13:52:22:b3:e2:
                    26:7a:04:fd:72:7a:c4:2c:2a:c7:77:20:66:72:0c:
                    f6:e3:da:53:e2:db:cc:68:2c:20:46:2b:66:2d:45:
                    43:9a:39:ee:89:62:4b:a9:af:fb:fd:c8:35:ac:f7:
                    92:09:0f:ff:e4:8a:9c:64:5a:74:43:d4:23:8e:24:
                    33:74:8f:b6:4d:da:f2:04:96:91:e3:fd:1d:29:85:
                    20:46:1d:fe:d7:1a:b6:a0:1f:63:a7:e3:d7:88:d7:
                    a7:e3:aa:52:fa:90:49:6d:74:88:f6:31:55:d6:0a:
                    04:d8:0e:bf:8b:10:f3:7b:20:53:7a:e7:fa:cb:40:
                    2a:16:be:94:e9:24:ef:40:88:66:7b:02:f2:dd:a0:
                    c9:e4:78:1a:19:a4:ae:72:69:b6:98:a8:95:7b:42:
                    1c:3f:e0:f9:4d:dc:00:5a:df:9c:10:11:dc:57:3b:
                    d6:fa:ce:59:66:03:c5:b8:69:14:56:f1:72:ad:08:
                    05:fd:7a:d9:d0:df:9e:66:5f:3d:2a:7a:84:e1:b8:
                    6b:49
                Exponent: 65537 (0x10001)
        X509v3 extensions:
            X509v3 Basic Constraints: 
                CA:FALSE
            X509v3 Subject Key Identifier: 
                AB:7F:16:21:39:31:C4:87:94:8B:EE:A3:9D:C2:54:AC:8F:01:FD:B0
            X509v3 Authority Key Identifier: 
                keyid:C8:27:DA:64:30:08:40:08:4A:25:CC:DC:43:99:DE:77:A1:FE:77:BD
                DirName:/C=US/ST=California/L=San Francisco/O=Copyleft Certificate Co/OU=My Organizational Unit/CN=ChangeMe/emailAddress=me@example.net
                serial:A9:48:C3:7E:FC:1B:B0:A1

            X509v3 Extended Key Usage: 
                TLS Web Client Authentication
            X509v3 Key Usage: 
                Digital Signature
    Signature Algorithm: sha256WithRSAEncryption
         37:e9:0c:f0:e2:02:4b:e7:4f:85:01:37:48:b8:99:c3:96:7c:
         74:33:e6:51:5b:1e:7b:2b:dd:a8:b0:a8:08:17:dc:c7:25:c7:
         ed:71:49:21:c7:9b:4f:de:14:1f:50:8b:f5:82:5a:9d:a9:8d:
         a2:ff:f7:cc:f1:18:55:c1:cc:fa:a0:8b:80:b9:36:34:fe:f4:
         e1:d1:90:7e:4f:40:6a:ba:23:d7:0b:1e:bb:81:0c:53:1a:ba:
         a3:9b:d9:0c:68:25:f7:ad:96:8c:68:7a:ab:05:72:0d:c9:bb:
         d3:53:c9:ff:c6:5a:fa:52:26:61:df:66:c0:63:ce:be:fb:33:
         61:83:43:76:b4:be:21:f3:c9:12:dc:f6:af:a9:ce:8a:31:8f:
         fb:3a:14:11:bf:a4:75:ee:fa:fb:e1:f4:03:34:e4:4d:d0:ea:
         54:cb:8e:f9:10:59:f4:d1:5b:8b:e5:4d:4b:89:ef:5a:7f:2a:
         69:b1:34:e4:75:1e:48:85:40:a7:75:45:70:f5:2a:49:43:28:
         2c:43:c2:78:b4:1d:40:05:93:88:65:2e:ee:f8:37:b2:72:f0:
         6f:e8:45:03:15:dd:bc:4d:de:48:82:e1:66:2a:47:37:6a:ed:
         10:bd:6d:69:2f:47:84:91:3c:4b:b8:5a:7c:33:a4:27:dc:5f:
         19:46:6b:6f
-----BEGIN CERTIFICATE-----
MIIFKjCCBBKgAwIBAgIQJRrR1nv/EeeJhEBiGoKgjjANBgkqhkiG9w0BAQsFADCB
rzELMAkGA1UEBhMCVVMxEzARBgNVBAgMCkNhbGlmb3JuaWExFjAUBgNVBAcMDVNh
biBGcmFuY2lzY28xIDAeBgNVBAoMF0NvcHlsZWZ0IENlcnRpZmljYXRlIENvMR8w
HQYDVQQLDBZNeSBPcmdhbml6YXRpb25hbCBVbml0MREwDwYDVQQDDAhDaGFuZ2VN
ZTEdMBsGCSqGSIb3DQEJARYObWVAZXhhbXBsZS5uZXQwHhcNMjMxMTEwMTc0NTM4
WhcNMjQxMTA5MTc0NTM4WjCBtjELMAkGA1UEBhMCVVMxCzAJBgNVBAgMAk9IMRMw
EQYDVQQHDApDaW5jaW5uYXRpMSEwHwYDVQQKDBhVbml2ZXJzaXR5IG9mIENpbmNp
bm5hdGkxJDAiBgNVBAsMG0RlcHRfRWxlY19Db21fIEVuZ19Db21fU2NpLjESMBAG
A1UEAwwJY2xpZW50MTA4MSgwJgYJKoZIhvcNAQkBFhlmcmFuY29AZ2F1c3MuZWNl
Y3MudWMuZWR1MIIBIjANBgkqhkiG9w0BAQEFAAOCAQ8AMIIBCgKCAQEA598DyRuS
GkLtPV727+OhTiayjmvHmHSDUI1OAyQdorOdcZcROGW8wSEhc5XktbIKZBEetfyb
E1Iis+ImegT9cnrELCrHdyBmcgz249pT4tvMaCwgRitmLUVDmjnuiWJLqa/7/cg1
rPeSCQ//5IqcZFp0Q9QjjiQzdI+2TdryBJaR4/0dKYUgRh3+1xq2oB9jp+PXiNen
46pS+pBJbXSI9jFV1goE2A6/ixDzeyBTeuf6y0AqFr6U6STvQIhmewLy3aDJ5Hga
GaSucmm2mKiVe0IcP+D5TdwAWt+cEBHcVzvW+s5ZZgPFuGkUVvFyrQgF/XrZ0N+e
Zl89KnqE4bhrSQIDAQABo4IBNzCCATMwCQYDVR0TBAIwADAdBgNVHQ4EFgQUq38W
ITkxxIeUi+6jncJUrI8B/bAwgeQGA1UdIwSB3DCB2YAUyCfaZDAIQAhKJczcQ5ne
d6H+d72hgbWkgbIwga8xCzAJBgNVBAYTAlVTMRMwEQYDVQQIDApDYWxpZm9ybmlh
MRYwFAYDVQQHDA1TYW4gRnJhbmNpc2NvMSAwHgYDVQQKDBdDb3B5bGVmdCBDZXJ0
aWZpY2F0ZSBDbzEfMB0GA1UECwwWTXkgT3JnYW5pemF0aW9uYWwgVW5pdDERMA8G
A1UEAwwIQ2hhbmdlTWUxHTAbBgkqhkiG9w0BCQEWDm1lQGV4YW1wbGUubmV0ggkA
qUjDfvwbsKEwEwYDVR0lBAwwCgYIKwYBBQUHAwIwCwYDVR0PBAQDAgeAMA0GCSqG
SIb3DQEBCwUAA4IBAQA36Qzw4gJL50+FATdIuJnDlnx0M+ZRWx57K92osKgIF9zH
JcftcUkhx5tP3hQfUIv1glqdqY2i//fM8RhVwcz6oIuAuTY0/vTh0ZB+T0BquiPX
Cx67gQxTGrqjm9kMaCX3rZaMaHqrBXINybvTU8n/xlr6UiZh32bAY86++zNhg0N2
tL4h88kS3Pavqc6KMY/7OhQRv6R17vr74fQDNORN0OpUy475EFn00VuL5U1Lie9a
fyppsTTkdR5IhUCndUVw9SpJQygsQ8J4tB1ABZOIZS7u+DeycvBv6EUDFd28Td5I
guFmKkc3au0QvW1pL0eEkTxLuFp8M6Qn3F8ZRmtv
-----END CERTIFICATE-----
