Certificate:
    Data:
        Version: 3 (0x2)
        Serial Number:
            44:d2:8c:0a:95:c6:b5:f6:12:e6:68:dc:c1:4d:bf:c7
    Signature Algorithm: sha256WithRSAEncryption
        Issuer: C=US, ST=California, L=San Francisco, O=Copyleft Certificate Co, OU=My Organizational Unit, CN=ChangeMe/emailAddress=me@example.net
        Validity
            Not Before: Nov 12 11:48:23 2023 GMT
            Not After : Nov 11 11:48:23 2024 GMT
        Subject: C=US, ST=OH, L=Cincinnati, O=University of Cincinnati, OU=Dept. Elec. Comp. Eng. Comp. Sci., CN=client32/emailAddress=franco@gauss.ececs.uc.edu
        Subject Public Key Info:
            Public Key Algorithm: rsaEncryption
                Public-Key: (2048 bit)
                Modulus:
                    00:bd:76:7a:14:7f:2b:89:b6:22:bd:cc:6b:0c:44:
                    7f:c4:16:1d:1c:d6:15:7a:e3:df:9b:85:b1:95:44:
                    02:66:38:d4:0c:00:16:85:5a:d2:82:d9:88:12:86:
                    18:c0:c6:2c:53:4c:aa:d6:f3:9a:3f:bd:57:b6:21:
                    3c:52:d5:7a:f5:cc:1c:d7:e3:cd:a0:3c:82:30:09:
                    c0:25:7c:a9:6a:b7:e7:0c:8d:5f:fa:f3:a0:ca:9a:
                    cb:70:83:90:64:6e:b3:6a:d9:6b:f6:e0:63:58:26:
                    4b:04:7f:dd:07:71:f6:2a:ed:a1:5f:9b:02:fc:64:
                    1b:f1:2e:62:04:8a:34:6b:35:52:18:5e:08:b3:eb:
                    24:83:c0:da:98:32:f7:06:cd:a0:75:37:71:e4:dd:
                    e6:5d:ad:ec:43:32:62:f6:a3:f3:c7:62:b5:7d:06:
                    76:05:70:6e:73:fc:4e:b0:86:7b:d2:80:f2:c9:32:
                    96:05:93:01:56:0b:d0:e5:35:19:d6:4b:83:d1:34:
                    50:44:97:1c:15:e0:b5:af:0c:61:a7:46:fb:8e:2d:
                    59:34:9b:6c:32:d3:aa:32:5e:de:6d:a2:b1:c9:83:
                    8d:6f:3b:f0:9c:52:30:c1:45:0d:f8:c8:ed:dc:8d:
                    b0:7a:cc:d2:45:28:4b:0e:bf:2d:6e:75:b6:ea:f4:
                    b9:c9
                Exponent: 65537 (0x10001)
        X509v3 extensions:
            X509v3 Basic Constraints: 
                CA:FALSE
            X509v3 Subject Key Identifier: 
                42:9D:7B:27:41:C5:6A:26:4C:46:C9:55:F2:A9:E9:B6:73:12:1B:64
            X509v3 Authority Key Identifier: 
                keyid:C4:46:F2:96:38:56:02:B8:9D:09:04:52:25:91:35:97:6A:D7:B1:F0
                DirName:/C=US/ST=California/L=San Francisco/O=Copyleft Certificate Co/OU=My Organizational Unit/CN=ChangeMe/emailAddress=me@example.net
                serial:D1:5A:15:1C:F0:20:95:62

            X509v3 Extended Key Usage: 
                TLS Web Client Authentication
            X509v3 Key Usage: 
                Digital Signature
    Signature Algorithm: sha256WithRSAEncryption
         1a:38:2f:25:18:b9:4e:d5:ea:8b:4e:56:06:44:71:a5:a2:e3:
         88:98:f7:07:6b:1b:bd:c7:26:d4:4b:c5:01:66:72:98:eb:eb:
         c9:c3:01:01:ff:e4:af:24:7c:07:ff:6f:4c:b5:35:32:93:5d:
         51:72:58:64:f5:fa:16:49:d2:06:1a:d3:93:b2:db:23:26:16:
         60:6a:18:2e:67:d3:c2:c9:99:2a:db:01:f0:f4:13:7b:8e:25:
         51:83:5c:82:18:05:96:d9:89:e4:98:86:61:ea:f0:13:cf:8d:
         fe:c4:e4:34:bb:32:52:53:f1:6b:92:b0:94:30:91:25:60:48:
         22:67:ff:ae:c2:9f:ff:59:93:31:fe:39:4a:0b:3a:25:d8:6f:
         4a:4d:e2:5b:ef:c2:b5:3e:c3:68:2c:f3:bf:55:81:e4:4e:42:
         c5:b9:38:52:03:e3:56:5f:30:63:87:5b:2c:9d:60:16:0a:81:
         9d:38:d9:9f:0c:57:d5:75:b7:da:03:cb:3c:5b:08:fb:4b:3d:
         40:bb:de:6b:80:c8:24:4d:3c:fc:76:e8:e5:4f:bc:12:b1:05:
         29:26:28:eb:7b:6b:92:df:8b:19:d7:5b:45:5b:d0:ad:c3:6f:
         2d:5b:0a:e3:a9:d5:8c:af:b0:82:07:86:72:b8:24:b8:e6:22:
         fc:90:00:2d
-----BEGIN CERTIFICATE-----
MIIFLzCCBBegAwIBAgIQRNKMCpXGtfYS5mjcwU2/xzANBgkqhkiG9w0BAQsFADCB
rzELMAkGA1UEBhMCVVMxEzARBgNVBAgMCkNhbGlmb3JuaWExFjAUBgNVBAcMDVNh
biBGcmFuY2lzY28xIDAeBgNVBAoMF0NvcHlsZWZ0IENlcnRpZmljYXRlIENvMR8w
HQYDVQQLDBZNeSBPcmdhbml6YXRpb25hbCBVbml0MREwDwYDVQQDDAhDaGFuZ2VN
ZTEdMBsGCSqGSIb3DQEJARYObWVAZXhhbXBsZS5uZXQwHhcNMjMxMTEyMTE0ODIz
WhcNMjQxMTExMTE0ODIzWjCBuzELMAkGA1UEBhMCVVMxCzAJBgNVBAgMAk9IMRMw
EQYDVQQHDApDaW5jaW5uYXRpMSEwHwYDVQQKDBhVbml2ZXJzaXR5IG9mIENpbmNp
bm5hdGkxKjAoBgNVBAsMIURlcHQuIEVsZWMuIENvbXAuIEVuZy4gQ29tcC4gU2Np
LjERMA8GA1UEAwwIY2xpZW50MzIxKDAmBgkqhkiG9w0BCQEWGWZyYW5jb0BnYXVz
cy5lY2Vjcy51Yy5lZHUwggEiMA0GCSqGSIb3DQEBAQUAA4IBDwAwggEKAoIBAQC9
dnoUfyuJtiK9zGsMRH/EFh0c1hV649+bhbGVRAJmONQMABaFWtKC2YgShhjAxixT
TKrW85o/vVe2ITxS1Xr1zBzX482gPIIwCcAlfKlqt+cMjV/686DKmstwg5BkbrNq
2Wv24GNYJksEf90HcfYq7aFfmwL8ZBvxLmIEijRrNVIYXgiz6ySDwNqYMvcGzaB1
N3Hk3eZdrexDMmL2o/PHYrV9BnYFcG5z/E6whnvSgPLJMpYFkwFWC9DlNRnWS4PR
NFBElxwV4LWvDGGnRvuOLVk0m2wy06oyXt5torHJg41vO/CcUjDBRQ34yO3cjbB6
zNJFKEsOvy1udbbq9LnJAgMBAAGjggE3MIIBMzAJBgNVHRMEAjAAMB0GA1UdDgQW
BBRCnXsnQcVqJkxGyVXyqem2cxIbZDCB5AYDVR0jBIHcMIHZgBTERvKWOFYCuJ0J
BFIlkTWXatex8KGBtaSBsjCBrzELMAkGA1UEBhMCVVMxEzARBgNVBAgMCkNhbGlm
b3JuaWExFjAUBgNVBAcMDVNhbiBGcmFuY2lzY28xIDAeBgNVBAoMF0NvcHlsZWZ0
IENlcnRpZmljYXRlIENvMR8wHQYDVQQLDBZNeSBPcmdhbml6YXRpb25hbCBVbml0
MREwDwYDVQQDDAhDaGFuZ2VNZTEdMBsGCSqGSIb3DQEJARYObWVAZXhhbXBsZS5u
ZXSCCQDRWhUc8CCVYjATBgNVHSUEDDAKBggrBgEFBQcDAjALBgNVHQ8EBAMCB4Aw
DQYJKoZIhvcNAQELBQADggEBABo4LyUYuU7V6otOVgZEcaWi44iY9wdrG73HJtRL
xQFmcpjr68nDAQH/5K8kfAf/b0y1NTKTXVFyWGT1+hZJ0gYa05Oy2yMmFmBqGC5n
08LJmSrbAfD0E3uOJVGDXIIYBZbZieSYhmHq8BPPjf7E5DS7MlJT8WuSsJQwkSVg
SCJn/67Cn/9ZkzH+OUoLOiXYb0pN4lvvwrU+w2gs879VgeROQsW5OFID41ZfMGOH
WyydYBYKgZ042Z8MV9V1t9oDyzxbCPtLPUC73muAyCRNPPx26OVPvBKxBSkmKOt7
a5LfixnXW0Vb0K3Dby1bCuOp1YyvsIIHhnK4JLjmIvyQAC0=
-----END CERTIFICATE-----
