Certificate:
    Data:
        Version: 3 (0x2)
        Serial Number:
            9d:e1:42:ed:1d:82:fb:8b:02:a0:43:65:7a:58:a8:24
    Signature Algorithm: sha256WithRSAEncryption
        Issuer: C=US, ST=California, L=San Francisco, O=Copyleft Certificate Co, OU=My Organizational Unit, CN=ChangeMe/emailAddress=me@example.net
        Validity
            Not Before: Nov 11 01:46:26 2023 GMT
            Not After : Nov 10 01:46:26 2024 GMT
        Subject: C=US, ST=OH, L=Cincinnati, O=University of Cincinnati, OU=Dept. Elec. Comp. Eng. Comp. Sci., CN=client101/emailAddress=franco@gauss.ececs.uc.edu
        Subject Public Key Info:
            Public Key Algorithm: rsaEncryption
                Public-Key: (2048 bit)
                Modulus:
                    00:ae:7f:98:8c:8e:2e:1a:31:73:f2:9b:1b:ff:10:
                    33:4c:55:8c:98:67:54:9c:4d:65:71:16:a6:9e:72:
                    77:32:dd:ef:4d:5c:3a:44:91:25:32:0f:18:d9:79:
                    b2:d0:a9:b7:6f:fe:43:a4:71:9a:2c:9a:d9:94:f0:
                    b8:03:56:08:23:75:86:d2:59:da:bf:db:08:6a:87:
                    43:e7:aa:62:c0:bc:92:41:2b:89:d5:96:9f:3a:13:
                    e4:dd:d0:9f:f6:d4:bd:65:da:cc:23:bd:d5:d7:bc:
                    8e:f8:cc:8c:a3:5e:30:ae:2a:df:e4:0e:b1:de:09:
                    d9:c0:44:a1:23:6d:03:d1:cf:e8:a9:b3:ac:1b:e9:
                    5b:d4:c5:6e:91:de:48:a8:9a:bd:d2:01:52:51:0d:
                    63:02:2a:b7:e4:9e:fe:84:b7:03:04:e8:f4:16:84:
                    0b:c1:e9:c6:e0:72:62:1f:8b:0e:1b:71:b0:49:78:
                    b3:0b:24:96:05:b5:05:79:83:18:de:dd:33:f2:b4:
                    a0:ca:88:15:74:9d:a2:eb:95:a7:85:31:db:16:0b:
                    f6:dd:4a:ce:84:66:5e:15:df:03:0f:4d:87:a9:c9:
                    47:57:9b:18:1c:7e:5b:d8:53:fe:25:04:06:ce:12:
                    37:d1:0b:16:e7:09:79:ea:4c:56:97:9a:61:80:a7:
                    91:13
                Exponent: 65537 (0x10001)
        X509v3 extensions:
            X509v3 Basic Constraints: 
                CA:FALSE
            X509v3 Subject Key Identifier: 
                AE:07:69:85:39:5D:BD:DA:28:14:62:86:AB:10:D4:68:9F:DD:89:25
            X509v3 Authority Key Identifier: 
                keyid:73:DE:A0:43:0F:AE:B1:9E:E8:59:69:18:50:A1:1A:1F:D4:A1:E3:F0
                DirName:/C=US/ST=California/L=San Francisco/O=Copyleft Certificate Co/OU=My Organizational Unit/CN=ChangeMe/emailAddress=me@example.net
                serial:E9:BB:CB:16:C5:32:BE:3B

            X509v3 Extended Key Usage: 
                TLS Web Client Authentication
            X509v3 Key Usage: 
                Digital Signature
    Signature Algorithm: sha256WithRSAEncryption
         86:3a:34:b7:66:71:70:6a:55:3f:1e:04:56:a1:1e:51:a9:d8:
         cc:8e:64:de:fe:27:69:63:75:45:45:af:dc:8b:47:57:e6:a5:
         60:87:2c:a0:32:b9:ff:5e:da:99:08:e8:d7:89:a7:08:7c:1c:
         ab:f3:a8:87:43:2c:f2:08:b8:e4:1a:7e:c8:02:93:b5:68:7f:
         85:99:d4:18:9c:28:d5:44:06:53:23:a2:89:e2:55:c2:2e:64:
         de:9b:fc:64:cc:58:57:76:c8:4c:39:fb:25:ff:32:01:fe:08:
         65:73:a9:b4:82:81:28:99:4b:37:f8:3b:e9:0b:6e:a1:30:fc:
         8e:14:38:8f:83:7c:4a:3b:c9:f0:02:29:d3:e0:2a:b0:5b:3a:
         ad:71:39:d0:aa:34:06:e5:92:16:17:14:c9:29:2d:d7:96:c9:
         4f:a0:f6:37:e2:74:3e:d0:04:2e:27:53:50:37:45:ae:d4:00:
         8c:97:b7:ab:8c:38:53:8b:b7:a9:92:54:9f:df:1f:d2:cf:13:
         dc:9a:a9:57:37:84:b0:c0:b9:24:1e:92:47:74:e1:77:3d:01:
         f8:a7:08:7c:ad:eb:47:58:ed:ea:04:5b:35:11:1f:67:94:e1:
         5b:fa:91:df:a6:33:b6:74:ff:ec:8f:63:c4:70:d2:4f:03:22:
         a6:16:8e:dc
-----BEGIN CERTIFICATE-----
MIIFMTCCBBmgAwIBAgIRAJ3hQu0dgvuLAqBDZXpYqCQwDQYJKoZIhvcNAQELBQAw
ga8xCzAJBgNVBAYTAlVTMRMwEQYDVQQIDApDYWxpZm9ybmlhMRYwFAYDVQQHDA1T
YW4gRnJhbmNpc2NvMSAwHgYDVQQKDBdDb3B5bGVmdCBDZXJ0aWZpY2F0ZSBDbzEf
MB0GA1UECwwWTXkgT3JnYW5pemF0aW9uYWwgVW5pdDERMA8GA1UEAwwIQ2hhbmdl
TWUxHTAbBgkqhkiG9w0BCQEWDm1lQGV4YW1wbGUubmV0MB4XDTIzMTExMTAxNDYy
NloXDTI0MTExMDAxNDYyNlowgbwxCzAJBgNVBAYTAlVTMQswCQYDVQQIDAJPSDET
MBEGA1UEBwwKQ2luY2lubmF0aTEhMB8GA1UECgwYVW5pdmVyc2l0eSBvZiBDaW5j
aW5uYXRpMSowKAYDVQQLDCFEZXB0LiBFbGVjLiBDb21wLiBFbmcuIENvbXAuIFNj
aS4xEjAQBgNVBAMMCWNsaWVudDEwMTEoMCYGCSqGSIb3DQEJARYZZnJhbmNvQGdh
dXNzLmVjZWNzLnVjLmVkdTCCASIwDQYJKoZIhvcNAQEBBQADggEPADCCAQoCggEB
AK5/mIyOLhoxc/KbG/8QM0xVjJhnVJxNZXEWpp5ydzLd701cOkSRJTIPGNl5stCp
t2/+Q6Rxmiya2ZTwuANWCCN1htJZ2r/bCGqHQ+eqYsC8kkEridWWnzoT5N3Qn/bU
vWXazCO91de8jvjMjKNeMK4q3+QOsd4J2cBEoSNtA9HP6KmzrBvpW9TFbpHeSKia
vdIBUlENYwIqt+Se/oS3AwTo9BaEC8HpxuByYh+LDhtxsEl4swsklgW1BXmDGN7d
M/K0oMqIFXSdouuVp4Ux2xYL9t1KzoRmXhXfAw9Nh6nJR1ebGBx+W9hT/iUEBs4S
N9ELFucJeepMVpeaYYCnkRMCAwEAAaOCATcwggEzMAkGA1UdEwQCMAAwHQYDVR0O
BBYEFK4HaYU5Xb3aKBRihqsQ1Gif3YklMIHkBgNVHSMEgdwwgdmAFHPeoEMPrrGe
6FlpGFChGh/UoePwoYG1pIGyMIGvMQswCQYDVQQGEwJVUzETMBEGA1UECAwKQ2Fs
aWZvcm5pYTEWMBQGA1UEBwwNU2FuIEZyYW5jaXNjbzEgMB4GA1UECgwXQ29weWxl
ZnQgQ2VydGlmaWNhdGUgQ28xHzAdBgNVBAsMFk15IE9yZ2FuaXphdGlvbmFsIFVu
aXQxETAPBgNVBAMMCENoYW5nZU1lMR0wGwYJKoZIhvcNAQkBFg5tZUBleGFtcGxl
Lm5ldIIJAOm7yxbFMr47MBMGA1UdJQQMMAoGCCsGAQUFBwMCMAsGA1UdDwQEAwIH
gDANBgkqhkiG9w0BAQsFAAOCAQEAhjo0t2ZxcGpVPx4EVqEeUanYzI5k3v4naWN1
RUWv3ItHV+alYIcsoDK5/17amQjo14mnCHwcq/Ooh0Ms8gi45Bp+yAKTtWh/hZnU
GJwo1UQGUyOiieJVwi5k3pv8ZMxYV3bITDn7Jf8yAf4IZXOptIKBKJlLN/g76Qtu
oTD8jhQ4j4N8SjvJ8AIp0+AqsFs6rXE50Ko0BuWSFhcUySkt15bJT6D2N+J0PtAE
LidTUDdFrtQAjJe3q4w4U4u3qZJUn98f0s8T3JqpVzeEsMC5JB6SR3Thdz0B+KcI
fK3rR1jt6gRbNREfZ5ThW/qR36YztnT/7I9jxHDSTwMiphaO3A==
-----END CERTIFICATE-----
