Certificate:
    Data:
        Version: 3 (0x2)
        Serial Number:
            41:99:54:e6:96:af:f0:04:eb:bd:d9:00:f4:ea:63:e1
    Signature Algorithm: sha256WithRSAEncryption
        Issuer: C=US, ST=California, L=San Francisco, O=Copyleft Certificate Co, OU=My Organizational Unit, CN=ChangeMe/emailAddress=me@example.net
        Validity
            Not Before: Nov 11 01:44:34 2023 GMT
            Not After : Nov 10 01:44:34 2024 GMT
        Subject: C=US, ST=OH, L=Cincinnati, O=University of Cincinnati, OU=Dept. Elec. Comp. Eng. Comp. Sci., CN=client73/emailAddress=franco@gauss.ececs.uc.edu
        Subject Public Key Info:
            Public Key Algorithm: rsaEncryption
                Public-Key: (2048 bit)
                Modulus:
                    00:95:c0:e7:fa:33:52:c1:c6:31:02:bd:0f:2b:8c:
                    9e:82:5c:be:a6:b8:c3:de:67:98:c0:82:34:a2:dc:
                    f7:87:87:23:c0:4a:cd:f0:c3:70:cd:0a:2c:81:2b:
                    a1:1c:bb:69:4a:bf:2c:53:80:37:a1:40:21:91:87:
                    87:41:c7:ad:3f:8c:9b:78:21:a0:f3:35:81:85:ba:
                    56:92:e5:57:4d:63:42:6c:ac:e3:92:4e:10:b8:5a:
                    ff:01:0f:59:3b:3f:c8:98:f0:87:21:58:a7:73:7f:
                    98:26:cf:cf:48:cd:46:f0:3a:90:78:80:56:17:4b:
                    36:cf:a2:ed:fe:7a:aa:f9:e0:c9:f3:90:fc:df:d4:
                    c3:25:f4:9f:ff:fc:37:c9:c1:a5:3f:c6:bf:49:ac:
                    7d:b8:23:48:18:04:00:6f:be:03:15:99:06:27:a2:
                    da:7e:72:37:97:65:ec:bf:0d:50:f2:10:97:a9:97:
                    9c:3a:6e:f4:2f:e7:eb:99:48:cb:c8:2d:ab:79:49:
                    f8:1a:1e:6a:c3:fc:56:a7:ef:b9:50:31:10:b0:82:
                    c9:b6:b9:b1:7c:69:1d:93:3c:85:fc:f1:a9:0f:80:
                    6c:ab:58:94:54:45:88:a8:7d:0e:f7:97:bd:42:a7:
                    20:91:74:f2:65:c7:d0:58:83:d8:46:09:ed:e4:ac:
                    69:29
                Exponent: 65537 (0x10001)
        X509v3 extensions:
            X509v3 Basic Constraints: 
                CA:FALSE
            X509v3 Subject Key Identifier: 
                98:32:EC:DA:98:A1:12:18:E2:DD:31:4B:D6:78:4C:46:1D:5B:93:11
            X509v3 Authority Key Identifier: 
                keyid:73:DE:A0:43:0F:AE:B1:9E:E8:59:69:18:50:A1:1A:1F:D4:A1:E3:F0
                DirName:/C=US/ST=California/L=San Francisco/O=Copyleft Certificate Co/OU=My Organizational Unit/CN=ChangeMe/emailAddress=me@example.net
                serial:E9:BB:CB:16:C5:32:BE:3B

            X509v3 Extended Key Usage: 
                TLS Web Client Authentication
            X509v3 Key Usage: 
                Digital Signature
    Signature Algorithm: sha256WithRSAEncryption
         01:fd:d8:cc:4a:05:b0:68:73:4a:9b:42:8a:4e:fa:2f:c0:e6:
         7b:9f:4a:15:c3:ae:0a:33:6d:9f:32:bb:e8:bb:5a:7b:a9:f0:
         88:87:4f:b2:c6:e7:e3:49:2d:99:ce:a7:5d:7c:67:94:04:af:
         4f:43:78:1a:4a:1e:f8:29:00:65:19:f6:44:1d:1b:fa:35:cb:
         d0:9b:0f:ea:2a:4e:ef:e1:1d:0a:34:0b:dc:c9:5a:3f:9f:9f:
         99:cc:b7:0a:32:93:94:b3:bb:98:e4:bf:96:52:8d:08:d7:f9:
         80:d3:07:3a:19:4d:5e:99:2e:99:2c:7f:b3:e9:c1:f2:56:54:
         7e:c3:4c:49:61:cc:35:cd:02:2f:a3:d8:40:d2:f0:ad:5d:64:
         0c:a0:07:32:bc:b4:34:43:9e:01:26:78:c4:c7:6b:89:77:9f:
         5f:80:f5:de:8b:9d:d8:75:69:10:0d:c7:ab:24:c1:09:d9:43:
         7f:06:69:8c:82:15:73:fb:17:3a:5f:d1:eb:a9:34:37:90:bf:
         98:bd:a7:18:72:77:65:0c:cb:7e:aa:99:7c:db:bc:8c:8e:0a:
         85:27:49:39:0f:4f:71:8e:33:67:e9:76:02:67:63:0f:44:c7:
         29:fa:6b:df:65:e0:77:f3:52:e1:4e:8e:37:3b:91:45:fc:b2:
         e7:ca:c9:22
-----BEGIN CERTIFICATE-----
MIIFLzCCBBegAwIBAgIQQZlU5pav8ATrvdkA9Opj4TANBgkqhkiG9w0BAQsFADCB
rzELMAkGA1UEBhMCVVMxEzARBgNVBAgMCkNhbGlmb3JuaWExFjAUBgNVBAcMDVNh
biBGcmFuY2lzY28xIDAeBgNVBAoMF0NvcHlsZWZ0IENlcnRpZmljYXRlIENvMR8w
HQYDVQQLDBZNeSBPcmdhbml6YXRpb25hbCBVbml0MREwDwYDVQQDDAhDaGFuZ2VN
ZTEdMBsGCSqGSIb3DQEJARYObWVAZXhhbXBsZS5uZXQwHhcNMjMxMTExMDE0NDM0
WhcNMjQxMTEwMDE0NDM0WjCBuzELMAkGA1UEBhMCVVMxCzAJBgNVBAgMAk9IMRMw
EQYDVQQHDApDaW5jaW5uYXRpMSEwHwYDVQQKDBhVbml2ZXJzaXR5IG9mIENpbmNp
bm5hdGkxKjAoBgNVBAsMIURlcHQuIEVsZWMuIENvbXAuIEVuZy4gQ29tcC4gU2Np
LjERMA8GA1UEAwwIY2xpZW50NzMxKDAmBgkqhkiG9w0BCQEWGWZyYW5jb0BnYXVz
cy5lY2Vjcy51Yy5lZHUwggEiMA0GCSqGSIb3DQEBAQUAA4IBDwAwggEKAoIBAQCV
wOf6M1LBxjECvQ8rjJ6CXL6muMPeZ5jAgjSi3PeHhyPASs3ww3DNCiyBK6Ecu2lK
vyxTgDehQCGRh4dBx60/jJt4IaDzNYGFulaS5VdNY0JsrOOSThC4Wv8BD1k7P8iY
8IchWKdzf5gmz89IzUbwOpB4gFYXSzbPou3+eqr54MnzkPzf1MMl9J///DfJwaU/
xr9JrH24I0gYBABvvgMVmQYnotp+cjeXZey/DVDyEJepl5w6bvQv5+uZSMvILat5
SfgaHmrD/Fan77lQMRCwgsm2ubF8aR2TPIX88akPgGyrWJRURYiofQ73l71CpyCR
dPJlx9BYg9hGCe3krGkpAgMBAAGjggE3MIIBMzAJBgNVHRMEAjAAMB0GA1UdDgQW
BBSYMuzamKESGOLdMUvWeExGHVuTETCB5AYDVR0jBIHcMIHZgBRz3qBDD66xnuhZ
aRhQoRof1KHj8KGBtaSBsjCBrzELMAkGA1UEBhMCVVMxEzARBgNVBAgMCkNhbGlm
b3JuaWExFjAUBgNVBAcMDVNhbiBGcmFuY2lzY28xIDAeBgNVBAoMF0NvcHlsZWZ0
IENlcnRpZmljYXRlIENvMR8wHQYDVQQLDBZNeSBPcmdhbml6YXRpb25hbCBVbml0
MREwDwYDVQQDDAhDaGFuZ2VNZTEdMBsGCSqGSIb3DQEJARYObWVAZXhhbXBsZS5u
ZXSCCQDpu8sWxTK+OzATBgNVHSUEDDAKBggrBgEFBQcDAjALBgNVHQ8EBAMCB4Aw
DQYJKoZIhvcNAQELBQADggEBAAH92MxKBbBoc0qbQopO+i/A5nufShXDrgozbZ8y
u+i7Wnup8IiHT7LG5+NJLZnOp118Z5QEr09DeBpKHvgpAGUZ9kQdG/o1y9CbD+oq
Tu/hHQo0C9zJWj+fn5nMtwoyk5Szu5jkv5ZSjQjX+YDTBzoZTV6ZLpksf7PpwfJW
VH7DTElhzDXNAi+j2EDS8K1dZAygBzK8tDRDngEmeMTHa4l3n1+A9d6Lndh1aRAN
x6skwQnZQ38GaYyCFXP7Fzpf0eupNDeQv5i9pxhyd2UMy36qmXzbvIyOCoUnSTkP
T3GOM2fpdgJnYw9Exyn6a99l4HfzUuFOjjc7kUX8sufKySI=
-----END CERTIFICATE-----
