Certificate:
    Data:
        Version: 3 (0x2)
        Serial Number:
            61:8e:58:88:82:1d:f4:bb:28:46:01:45:e8:44:e0:6c
    Signature Algorithm: sha256WithRSAEncryption
        Issuer: C=US, ST=California, L=San Francisco, O=Copyleft Certificate Co, OU=My Organizational Unit, CN=ChangeMe/emailAddress=me@example.net
        Validity
            Not Before: Nov 11 10:55:56 2023 GMT
            Not After : Nov 10 10:55:56 2024 GMT
        Subject: C=US, ST=OH, L=Cincinnati, O=University of Cincinnati, OU=Dept. Elec. Comp. Eng. Comp. Sci., CN=client10/emailAddress=franco@gauss.ececs.uc.edu
        Subject Public Key Info:
            Public Key Algorithm: rsaEncryption
                Public-Key: (2048 bit)
                Modulus:
                    00:b4:54:ec:db:a5:ce:81:15:e6:fc:8b:1f:32:9b:
                    f4:54:7b:60:a1:43:21:1e:2c:14:44:35:89:83:87:
                    1d:73:c7:a5:43:2e:88:e0:85:8b:a1:f3:bf:bd:4d:
                    12:4e:03:56:14:83:63:b4:f0:23:a2:2a:a5:52:a5:
                    86:d6:67:94:0b:b4:95:92:e2:89:91:d0:b9:aa:60:
                    cb:4a:9f:26:30:2e:86:76:54:47:6d:45:97:d9:40:
                    5e:5d:ba:07:a0:4f:1c:fe:2d:ac:46:66:bf:35:aa:
                    23:42:96:34:5f:93:b4:3d:b0:bb:4f:e9:b2:db:0f:
                    af:3e:f7:5c:d5:3e:a5:9b:72:f7:1d:a4:fb:a2:05:
                    03:d8:95:b4:9a:9f:6f:5e:30:2d:dd:98:95:52:18:
                    f2:10:48:58:b6:a5:3c:2d:2e:2c:45:ad:2a:51:8e:
                    85:5f:f8:e1:e1:a4:1b:8b:29:9f:0c:c9:59:44:2a:
                    53:b7:e7:66:81:dd:3d:f7:bc:ce:35:d0:25:cd:df:
                    fa:56:e6:ee:ff:96:25:d6:ec:8e:c3:00:0c:1c:0b:
                    47:59:4c:6e:c1:74:c0:aa:9b:40:73:a6:02:95:80:
                    07:da:2a:f1:82:ac:b0:2d:26:03:3b:4b:ae:28:e4:
                    e8:a4:d3:b0:21:b4:81:b8:23:a9:c6:76:cc:da:bd:
                    4b:39
                Exponent: 65537 (0x10001)
        X509v3 extensions:
            X509v3 Basic Constraints: 
                CA:FALSE
            X509v3 Subject Key Identifier: 
                CE:C0:10:61:3C:31:01:0D:B5:60:26:C5:95:BE:5B:9C:54:AF:25:CC
            X509v3 Authority Key Identifier: 
                keyid:44:01:CC:06:0B:41:75:CB:C8:FB:C9:37:86:2D:9D:D2:D8:79:B6:8B
                DirName:/C=US/ST=California/L=San Francisco/O=Copyleft Certificate Co/OU=My Organizational Unit/CN=ChangeMe/emailAddress=me@example.net
                serial:AF:E8:E0:DD:C5:8B:0E:DD

            X509v3 Extended Key Usage: 
                TLS Web Client Authentication
            X509v3 Key Usage: 
                Digital Signature
    Signature Algorithm: sha256WithRSAEncryption
         a0:23:88:4a:ef:ad:c0:19:c6:8a:93:b2:b7:e0:6c:82:dc:d2:
         1c:92:d2:61:58:d2:97:3c:26:46:39:e7:6a:57:19:b6:d8:eb:
         25:3e:8d:65:90:06:2d:aa:22:3c:cc:b8:a3:a7:e1:27:14:cf:
         4a:90:de:b2:04:a1:72:ef:f8:dc:65:b6:41:ae:f8:bf:b4:cb:
         55:21:2c:ee:93:a9:79:5c:77:74:52:42:61:cd:fb:aa:c8:9e:
         d3:82:a6:4c:df:4a:03:c8:42:ff:bc:76:54:60:03:4b:13:9c:
         bd:67:c9:24:b1:6a:11:a2:83:9f:82:60:c4:b2:7d:a2:fe:90:
         32:9a:af:fd:5d:9c:e7:ab:8b:b5:7d:9c:df:8a:2f:7d:2b:90:
         8c:0e:81:16:50:8e:df:50:ab:32:64:2a:e8:5d:fb:aa:4f:7c:
         0e:b3:55:fd:ac:f6:27:bb:49:79:3a:da:c8:3f:b3:b5:25:5d:
         ee:11:fb:97:3e:cc:34:26:a2:d8:29:97:1f:c1:f5:08:f0:51:
         2f:ba:ea:64:b0:94:dd:34:d9:5d:3f:69:a8:39:be:0b:f2:a5:
         87:26:8a:b0:e9:02:01:14:18:2d:ed:38:39:84:f5:3b:ce:e9:
         61:46:bc:c9:36:2a:97:a4:76:35:d4:b7:64:bd:7d:9b:6e:e8:
         4e:49:0f:f5
-----BEGIN CERTIFICATE-----
MIIFLzCCBBegAwIBAgIQYY5YiIId9LsoRgFF6ETgbDANBgkqhkiG9w0BAQsFADCB
rzELMAkGA1UEBhMCVVMxEzARBgNVBAgMCkNhbGlmb3JuaWExFjAUBgNVBAcMDVNh
biBGcmFuY2lzY28xIDAeBgNVBAoMF0NvcHlsZWZ0IENlcnRpZmljYXRlIENvMR8w
HQYDVQQLDBZNeSBPcmdhbml6YXRpb25hbCBVbml0MREwDwYDVQQDDAhDaGFuZ2VN
ZTEdMBsGCSqGSIb3DQEJARYObWVAZXhhbXBsZS5uZXQwHhcNMjMxMTExMTA1NTU2
WhcNMjQxMTEwMTA1NTU2WjCBuzELMAkGA1UEBhMCVVMxCzAJBgNVBAgMAk9IMRMw
EQYDVQQHDApDaW5jaW5uYXRpMSEwHwYDVQQKDBhVbml2ZXJzaXR5IG9mIENpbmNp
bm5hdGkxKjAoBgNVBAsMIURlcHQuIEVsZWMuIENvbXAuIEVuZy4gQ29tcC4gU2Np
LjERMA8GA1UEAwwIY2xpZW50MTAxKDAmBgkqhkiG9w0BCQEWGWZyYW5jb0BnYXVz
cy5lY2Vjcy51Yy5lZHUwggEiMA0GCSqGSIb3DQEBAQUAA4IBDwAwggEKAoIBAQC0
VOzbpc6BFeb8ix8ym/RUe2ChQyEeLBRENYmDhx1zx6VDLojghYuh87+9TRJOA1YU
g2O08COiKqVSpYbWZ5QLtJWS4omR0LmqYMtKnyYwLoZ2VEdtRZfZQF5dugegTxz+
LaxGZr81qiNCljRfk7Q9sLtP6bLbD68+91zVPqWbcvcdpPuiBQPYlbSan29eMC3d
mJVSGPIQSFi2pTwtLixFrSpRjoVf+OHhpBuLKZ8MyVlEKlO352aB3T33vM410CXN
3/pW5u7/liXW7I7DAAwcC0dZTG7BdMCqm0BzpgKVgAfaKvGCrLAtJgM7S64o5Oik
07AhtIG4I6nGdszavUs5AgMBAAGjggE3MIIBMzAJBgNVHRMEAjAAMB0GA1UdDgQW
BBTOwBBhPDEBDbVgJsWVvlucVK8lzDCB5AYDVR0jBIHcMIHZgBREAcwGC0F1y8j7
yTeGLZ3S2Hm2i6GBtaSBsjCBrzELMAkGA1UEBhMCVVMxEzARBgNVBAgMCkNhbGlm
b3JuaWExFjAUBgNVBAcMDVNhbiBGcmFuY2lzY28xIDAeBgNVBAoMF0NvcHlsZWZ0
IENlcnRpZmljYXRlIENvMR8wHQYDVQQLDBZNeSBPcmdhbml6YXRpb25hbCBVbml0
MREwDwYDVQQDDAhDaGFuZ2VNZTEdMBsGCSqGSIb3DQEJARYObWVAZXhhbXBsZS5u
ZXSCCQCv6ODdxYsO3TATBgNVHSUEDDAKBggrBgEFBQcDAjALBgNVHQ8EBAMCB4Aw
DQYJKoZIhvcNAQELBQADggEBAKAjiErvrcAZxoqTsrfgbILc0hyS0mFY0pc8JkY5
52pXGbbY6yU+jWWQBi2qIjzMuKOn4ScUz0qQ3rIEoXLv+NxltkGu+L+0y1UhLO6T
qXlcd3RSQmHN+6rIntOCpkzfSgPIQv+8dlRgA0sTnL1nySSxahGig5+CYMSyfaL+
kDKar/1dnOeri7V9nN+KL30rkIwOgRZQjt9QqzJkKuhd+6pPfA6zVf2s9ie7SXk6
2sg/s7UlXe4R+5c+zDQmotgplx/B9QjwUS+66mSwlN002V0/aag5vgvypYcmirDp
AgEUGC3tODmE9TvO6WFGvMk2KpekdjXUt2S9fZtu6E5JD/U=
-----END CERTIFICATE-----
