Certificate:
    Data:
        Version: 3 (0x2)
        Serial Number:
            27:3a:96:0a:25:55:7a:99:51:40:f1:d2:e5:0d:ef:f4
    Signature Algorithm: sha256WithRSAEncryption
        Issuer: C=US, ST=California, L=San Francisco, O=Copyleft Certificate Co, OU=My Organizational Unit, CN=ChangeMe/emailAddress=me@example.net
        Validity
            Not Before: Nov 11 01:46:14 2023 GMT
            Not After : Nov 10 01:46:14 2024 GMT
        Subject: C=US, ST=OH, L=Cincinnati, O=University of Cincinnati, OU=Dept. Elec. Comp. Eng. Comp. Sci., CN=client98/emailAddress=franco@gauss.ececs.uc.edu
        Subject Public Key Info:
            Public Key Algorithm: rsaEncryption
                Public-Key: (2048 bit)
                Modulus:
                    00:b0:b3:cb:af:63:e1:e6:42:1c:67:30:ae:3c:74:
                    10:47:05:73:98:06:75:91:92:e4:bd:de:83:5e:44:
                    01:d5:3f:1f:5d:31:cf:30:cd:17:54:79:8e:4e:0c:
                    c1:5d:52:52:d8:34:8a:ca:15:82:03:e0:99:cd:b0:
                    0f:37:ed:16:24:4b:86:05:18:b4:09:77:11:d9:39:
                    f4:e2:d6:de:ed:b5:54:39:2f:ac:d5:f9:ad:be:cb:
                    37:15:83:46:63:42:27:5d:48:f0:07:ec:79:c6:d8:
                    d6:84:cb:dc:f5:21:90:3c:25:1f:ff:b7:4c:3b:8e:
                    71:c3:42:d9:1b:b8:68:99:a9:9a:fc:a0:80:52:b0:
                    b7:34:a2:64:3e:6f:33:db:48:62:ce:7f:5f:8f:00:
                    c4:db:47:1e:63:c8:65:a1:5d:b1:e5:42:e6:2a:41:
                    24:6d:a4:23:79:35:fb:5e:58:87:4a:b8:1e:b9:cf:
                    72:2c:17:88:cc:1d:d0:ac:4f:a9:b2:e1:13:74:db:
                    9c:bd:15:e9:6c:41:d2:ba:5e:09:4d:57:c2:09:40:
                    78:0a:15:63:02:33:e6:c8:0b:26:34:00:91:cb:4b:
                    92:3e:6f:96:ed:ae:52:15:a6:ea:85:f5:f1:5b:5e:
                    0d:6d:4c:07:0a:b4:e3:56:fd:6f:7d:16:91:47:ec:
                    2f:ad
                Exponent: 65537 (0x10001)
        X509v3 extensions:
            X509v3 Basic Constraints: 
                CA:FALSE
            X509v3 Subject Key Identifier: 
                44:4B:ED:50:ED:15:DD:F7:9F:00:E4:4E:96:83:8B:A5:E3:FE:E8:85
            X509v3 Authority Key Identifier: 
                keyid:73:DE:A0:43:0F:AE:B1:9E:E8:59:69:18:50:A1:1A:1F:D4:A1:E3:F0
                DirName:/C=US/ST=California/L=San Francisco/O=Copyleft Certificate Co/OU=My Organizational Unit/CN=ChangeMe/emailAddress=me@example.net
                serial:E9:BB:CB:16:C5:32:BE:3B

            X509v3 Extended Key Usage: 
                TLS Web Client Authentication
            X509v3 Key Usage: 
                Digital Signature
    Signature Algorithm: sha256WithRSAEncryption
         51:e4:30:af:72:86:b5:67:17:15:a0:17:35:91:f7:48:eb:9b:
         52:02:45:71:28:44:ee:b2:df:b3:a8:c0:d2:dc:f6:ca:9a:7d:
         c4:af:25:be:97:98:bf:43:43:53:cc:48:84:28:59:d7:e6:da:
         2b:b1:d0:3b:e5:38:70:6f:b8:99:41:56:05:fc:6f:64:f4:46:
         41:25:7d:59:6a:87:bc:1e:81:6f:d5:33:f4:08:ce:2d:78:dd:
         38:c8:88:9a:f5:7b:d9:86:ba:77:af:ce:21:b1:41:ab:25:4b:
         88:5c:d8:a8:8c:fc:ee:ea:f7:52:3a:52:3c:30:44:d2:45:45:
         62:c2:41:7a:56:38:96:9f:dd:a3:1d:e3:85:16:0c:0f:67:d9:
         fb:8f:c8:7f:a2:88:ff:2c:af:fb:09:cc:fc:4a:35:a3:e1:bd:
         a9:f4:97:50:da:e8:ff:c4:67:20:f7:5d:93:cc:04:68:b5:96:
         cb:0d:8a:75:63:9c:0b:78:da:09:57:dc:28:fa:c3:51:0d:29:
         27:c7:9b:34:1a:20:ea:b3:4c:74:18:a5:e9:1f:33:0a:ea:90:
         28:07:47:cf:09:a6:3d:ec:c4:80:d7:e0:af:e0:65:40:de:57:
         0b:4c:de:e7:61:8f:48:fd:de:e1:38:03:3f:71:c6:d3:81:1a:
         f0:27:32:fb
-----BEGIN CERTIFICATE-----
MIIFLzCCBBegAwIBAgIQJzqWCiVVeplRQPHS5Q3v9DANBgkqhkiG9w0BAQsFADCB
rzELMAkGA1UEBhMCVVMxEzARBgNVBAgMCkNhbGlmb3JuaWExFjAUBgNVBAcMDVNh
biBGcmFuY2lzY28xIDAeBgNVBAoMF0NvcHlsZWZ0IENlcnRpZmljYXRlIENvMR8w
HQYDVQQLDBZNeSBPcmdhbml6YXRpb25hbCBVbml0MREwDwYDVQQDDAhDaGFuZ2VN
ZTEdMBsGCSqGSIb3DQEJARYObWVAZXhhbXBsZS5uZXQwHhcNMjMxMTExMDE0NjE0
WhcNMjQxMTEwMDE0NjE0WjCBuzELMAkGA1UEBhMCVVMxCzAJBgNVBAgMAk9IMRMw
EQYDVQQHDApDaW5jaW5uYXRpMSEwHwYDVQQKDBhVbml2ZXJzaXR5IG9mIENpbmNp
bm5hdGkxKjAoBgNVBAsMIURlcHQuIEVsZWMuIENvbXAuIEVuZy4gQ29tcC4gU2Np
LjERMA8GA1UEAwwIY2xpZW50OTgxKDAmBgkqhkiG9w0BCQEWGWZyYW5jb0BnYXVz
cy5lY2Vjcy51Yy5lZHUwggEiMA0GCSqGSIb3DQEBAQUAA4IBDwAwggEKAoIBAQCw
s8uvY+HmQhxnMK48dBBHBXOYBnWRkuS93oNeRAHVPx9dMc8wzRdUeY5ODMFdUlLY
NIrKFYID4JnNsA837RYkS4YFGLQJdxHZOfTi1t7ttVQ5L6zV+a2+yzcVg0ZjQidd
SPAH7HnG2NaEy9z1IZA8JR//t0w7jnHDQtkbuGiZqZr8oIBSsLc0omQ+bzPbSGLO
f1+PAMTbRx5jyGWhXbHlQuYqQSRtpCN5NfteWIdKuB65z3IsF4jMHdCsT6my4RN0
25y9FelsQdK6XglNV8IJQHgKFWMCM+bICyY0AJHLS5I+b5btrlIVpuqF9fFbXg1t
TAcKtONW/W99FpFH7C+tAgMBAAGjggE3MIIBMzAJBgNVHRMEAjAAMB0GA1UdDgQW
BBRES+1Q7RXd958A5E6Wg4ul4/7ohTCB5AYDVR0jBIHcMIHZgBRz3qBDD66xnuhZ
aRhQoRof1KHj8KGBtaSBsjCBrzELMAkGA1UEBhMCVVMxEzARBgNVBAgMCkNhbGlm
b3JuaWExFjAUBgNVBAcMDVNhbiBGcmFuY2lzY28xIDAeBgNVBAoMF0NvcHlsZWZ0
IENlcnRpZmljYXRlIENvMR8wHQYDVQQLDBZNeSBPcmdhbml6YXRpb25hbCBVbml0
MREwDwYDVQQDDAhDaGFuZ2VNZTEdMBsGCSqGSIb3DQEJARYObWVAZXhhbXBsZS5u
ZXSCCQDpu8sWxTK+OzATBgNVHSUEDDAKBggrBgEFBQcDAjALBgNVHQ8EBAMCB4Aw
DQYJKoZIhvcNAQELBQADggEBAFHkMK9yhrVnFxWgFzWR90jrm1ICRXEoRO6y37Oo
wNLc9sqafcSvJb6XmL9DQ1PMSIQoWdfm2iux0DvlOHBvuJlBVgX8b2T0RkElfVlq
h7wegW/VM/QIzi143TjIiJr1e9mGunevziGxQaslS4hc2KiM/O7q91I6UjwwRNJF
RWLCQXpWOJaf3aMd44UWDA9n2fuPyH+iiP8sr/sJzPxKNaPhvan0l1Da6P/EZyD3
XZPMBGi1lssNinVjnAt42glX3Cj6w1ENKSfHmzQaIOqzTHQYpekfMwrqkCgHR88J
pj3sxIDX4K/gZUDeVwtM3udhj0j93uE4Az9xxtOBGvAnMvs=
-----END CERTIFICATE-----
