Certificate:
    Data:
        Version: 3 (0x2)
        Serial Number:
            b3:83:34:b7:dc:ec:f9:6d:c1:0c:5d:b1:0e:36:26:08
    Signature Algorithm: sha256WithRSAEncryption
        Issuer: C=US, ST=California, L=San Francisco, O=Copyleft Certificate Co, OU=My Organizational Unit, CN=ChangeMe/emailAddress=me@example.net
        Validity
            Not Before: Nov 11 01:43:34 2023 GMT
            Not After : Nov 10 01:43:34 2024 GMT
        Subject: C=US, ST=OH, L=Cincinnati, O=University of Cincinnati, OU=Dept. Elec. Comp. Eng. Comp. Sci., CN=client58/emailAddress=franco@gauss.ececs.uc.edu
        Subject Public Key Info:
            Public Key Algorithm: rsaEncryption
                Public-Key: (2048 bit)
                Modulus:
                    00:c7:6c:bc:ef:9e:f0:de:78:72:4a:d9:92:b7:aa:
                    47:01:3d:b2:e8:f7:f1:4c:51:0a:53:48:ce:18:ce:
                    9f:82:b0:9d:3e:a8:5c:5e:5b:4b:a0:c1:61:75:1e:
                    3a:37:0c:94:eb:38:c2:d5:a4:04:43:f6:77:00:88:
                    6b:b9:be:0d:10:03:b2:af:29:be:e0:b4:db:f5:60:
                    a6:02:ce:8c:7e:0a:b3:04:47:62:e7:7a:39:1b:59:
                    d6:f8:27:e8:68:0a:3a:4b:8a:c1:9f:1f:21:bf:72:
                    52:4d:0c:36:79:98:c4:37:50:88:33:06:42:4c:36:
                    46:e6:f7:12:a2:62:1a:5c:7b:7e:84:c4:3d:07:a4:
                    fd:c0:72:d7:7d:32:3a:9c:98:10:6d:6d:0a:86:08:
                    62:dd:87:1f:5e:c9:93:12:e4:69:1a:2e:5d:74:10:
                    bd:62:ca:89:72:51:fa:d6:0b:77:dd:d2:e5:89:6a:
                    f8:61:82:6b:6d:17:f1:30:5c:db:47:b6:03:8d:7f:
                    cc:c0:a4:ab:92:55:7d:8a:8b:c2:5b:70:34:7b:e6:
                    1d:cb:47:fe:5c:38:c6:9b:fb:27:2f:c0:42:4f:01:
                    5c:d3:e8:3e:47:56:36:63:81:4e:b4:76:ac:78:7a:
                    c3:8d:bc:b3:f0:0b:58:1f:e3:43:e9:ab:74:89:d0:
                    b3:ff
                Exponent: 65537 (0x10001)
        X509v3 extensions:
            X509v3 Basic Constraints: 
                CA:FALSE
            X509v3 Subject Key Identifier: 
                5F:1C:77:E8:3B:FE:DF:5B:AB:F4:82:C4:6D:6E:94:A2:C0:46:2F:4C
            X509v3 Authority Key Identifier: 
                keyid:73:DE:A0:43:0F:AE:B1:9E:E8:59:69:18:50:A1:1A:1F:D4:A1:E3:F0
                DirName:/C=US/ST=California/L=San Francisco/O=Copyleft Certificate Co/OU=My Organizational Unit/CN=ChangeMe/emailAddress=me@example.net
                serial:E9:BB:CB:16:C5:32:BE:3B

            X509v3 Extended Key Usage: 
                TLS Web Client Authentication
            X509v3 Key Usage: 
                Digital Signature
    Signature Algorithm: sha256WithRSAEncryption
         aa:12:9c:45:14:f8:e2:1d:31:6f:e8:68:59:f7:fc:52:0b:e7:
         05:3b:c9:4b:fd:d0:fd:d8:00:33:51:db:bf:4e:7c:f4:cd:a4:
         55:32:d0:d9:60:f4:e4:5b:30:fe:8e:fd:e6:2a:e0:91:a7:89:
         51:d9:c5:38:19:9a:2e:b0:03:dc:45:36:0e:f6:e5:d3:7d:2f:
         df:f7:28:a7:5f:3b:03:7d:9f:ed:ea:89:e5:86:11:2a:ee:7c:
         63:6e:90:6a:63:b9:5b:70:58:c8:d8:1e:0d:ce:4e:89:cd:ad:
         90:64:f9:e8:ec:c0:54:8d:3e:30:33:ac:02:b7:43:17:d8:3b:
         cf:62:3b:8d:b1:0a:c2:80:5d:02:42:8e:b8:1f:42:68:58:d0:
         c0:78:01:1b:c1:f5:dc:f9:4d:9d:ef:95:18:ad:b7:a3:15:ea:
         12:06:6e:c7:7a:3c:ac:33:0a:1d:8e:84:9a:46:4b:2d:61:3d:
         1c:fe:52:ff:fb:6d:a5:6d:d4:70:fe:c8:67:cf:6c:a9:7b:43:
         d9:03:84:3b:32:ec:a2:4e:e5:3e:0f:f9:10:fa:15:89:32:00:
         87:3b:bf:c8:1a:e4:f9:63:18:79:7c:fc:ba:68:d5:c9:1d:b5:
         16:06:d4:91:05:b2:5b:68:f2:b6:0d:f0:d7:06:17:94:4b:2f:
         37:9d:fa:fa
-----BEGIN CERTIFICATE-----
MIIFMDCCBBigAwIBAgIRALODNLfc7PltwQxdsQ42JggwDQYJKoZIhvcNAQELBQAw
ga8xCzAJBgNVBAYTAlVTMRMwEQYDVQQIDApDYWxpZm9ybmlhMRYwFAYDVQQHDA1T
YW4gRnJhbmNpc2NvMSAwHgYDVQQKDBdDb3B5bGVmdCBDZXJ0aWZpY2F0ZSBDbzEf
MB0GA1UECwwWTXkgT3JnYW5pemF0aW9uYWwgVW5pdDERMA8GA1UEAwwIQ2hhbmdl
TWUxHTAbBgkqhkiG9w0BCQEWDm1lQGV4YW1wbGUubmV0MB4XDTIzMTExMTAxNDMz
NFoXDTI0MTExMDAxNDMzNFowgbsxCzAJBgNVBAYTAlVTMQswCQYDVQQIDAJPSDET
MBEGA1UEBwwKQ2luY2lubmF0aTEhMB8GA1UECgwYVW5pdmVyc2l0eSBvZiBDaW5j
aW5uYXRpMSowKAYDVQQLDCFEZXB0LiBFbGVjLiBDb21wLiBFbmcuIENvbXAuIFNj
aS4xETAPBgNVBAMMCGNsaWVudDU4MSgwJgYJKoZIhvcNAQkBFhlmcmFuY29AZ2F1
c3MuZWNlY3MudWMuZWR1MIIBIjANBgkqhkiG9w0BAQEFAAOCAQ8AMIIBCgKCAQEA
x2y8757w3nhyStmSt6pHAT2y6PfxTFEKU0jOGM6fgrCdPqhcXltLoMFhdR46NwyU
6zjC1aQEQ/Z3AIhrub4NEAOyrym+4LTb9WCmAs6MfgqzBEdi53o5G1nW+CfoaAo6
S4rBnx8hv3JSTQw2eZjEN1CIMwZCTDZG5vcSomIaXHt+hMQ9B6T9wHLXfTI6nJgQ
bW0Khghi3YcfXsmTEuRpGi5ddBC9YsqJclH61gt33dLliWr4YYJrbRfxMFzbR7YD
jX/MwKSrklV9iovCW3A0e+Ydy0f+XDjGm/snL8BCTwFc0+g+R1Y2Y4FOtHaseHrD
jbyz8AtYH+ND6at0idCz/wIDAQABo4IBNzCCATMwCQYDVR0TBAIwADAdBgNVHQ4E
FgQUXxx36Dv+31ur9ILEbW6UosBGL0wwgeQGA1UdIwSB3DCB2YAUc96gQw+usZ7o
WWkYUKEaH9Sh4/ChgbWkgbIwga8xCzAJBgNVBAYTAlVTMRMwEQYDVQQIDApDYWxp
Zm9ybmlhMRYwFAYDVQQHDA1TYW4gRnJhbmNpc2NvMSAwHgYDVQQKDBdDb3B5bGVm
dCBDZXJ0aWZpY2F0ZSBDbzEfMB0GA1UECwwWTXkgT3JnYW5pemF0aW9uYWwgVW5p
dDERMA8GA1UEAwwIQ2hhbmdlTWUxHTAbBgkqhkiG9w0BCQEWDm1lQGV4YW1wbGUu
bmV0ggkA6bvLFsUyvjswEwYDVR0lBAwwCgYIKwYBBQUHAwIwCwYDVR0PBAQDAgeA
MA0GCSqGSIb3DQEBCwUAA4IBAQCqEpxFFPjiHTFv6GhZ9/xSC+cFO8lL/dD92AAz
Udu/Tnz0zaRVMtDZYPTkWzD+jv3mKuCRp4lR2cU4GZousAPcRTYO9uXTfS/f9yin
XzsDfZ/t6onlhhEq7nxjbpBqY7lbcFjI2B4Nzk6Jza2QZPno7MBUjT4wM6wCt0MX
2DvPYjuNsQrCgF0CQo64H0JoWNDAeAEbwfXc+U2d75UYrbejFeoSBm7HejysMwod
joSaRkstYT0c/lL/+22lbdRw/shnz2ype0PZA4Q7MuyiTuU+D/kQ+hWJMgCHO7/I
GuT5Yxh5fPy6aNXJHbUWBtSRBbJbaPK2DfDXBheUSy83nfr6
-----END CERTIFICATE-----
