Certificate:
    Data:
        Version: 3 (0x2)
        Serial Number:
            da:4c:22:92:39:ba:39:d6:65:0e:34:c0:49:97:23
    Signature Algorithm: sha256WithRSAEncryption
        Issuer: C=US, ST=California, L=San Francisco, O=Copyleft Certificate Co, OU=My Organizational Unit, CN=ChangeMe/emailAddress=me@example.net
        Validity
            Not Before: Nov 11 10:55:40 2023 GMT
            Not After : Nov 10 10:55:40 2024 GMT
        Subject: C=US, ST=OH, L=Cincinnati, O=University of Cincinnati, OU=Dept. Elec. Comp. Eng. Comp. Sci., CN=client6/emailAddress=franco@gauss.ececs.uc.edu
        Subject Public Key Info:
            Public Key Algorithm: rsaEncryption
                Public-Key: (2048 bit)
                Modulus:
                    00:b5:0e:fd:76:7d:04:1c:60:52:2c:2b:97:95:93:
                    6c:6d:a1:f9:50:94:fe:82:62:6e:f6:fb:00:41:98:
                    22:a5:1d:7e:1b:07:c7:13:9e:4c:64:5d:a7:65:62:
                    1a:71:16:cd:ba:e6:c0:22:f6:32:7d:0e:4e:be:97:
                    c8:42:c8:6e:4c:fc:06:ae:62:12:cf:56:28:70:c4:
                    4e:78:7d:02:01:51:fa:65:18:a3:d9:b6:ad:9c:d2:
                    cf:aa:be:c6:47:3a:d9:b8:12:56:10:a5:d9:92:0f:
                    11:4a:7f:c0:7a:bb:18:30:78:e1:98:74:d4:cf:2b:
                    ed:1f:45:d4:6f:4d:3e:21:68:89:c4:74:47:b3:88:
                    76:a3:3f:a7:2f:0b:39:86:47:34:d2:0f:e7:6d:e9:
                    76:9f:d5:9f:a5:39:6a:15:1e:99:6b:4b:89:13:69:
                    1e:f8:98:28:62:ce:b3:46:dc:66:3b:39:d8:68:6a:
                    ce:45:7f:50:dc:e5:0b:2e:5f:51:b3:ed:3f:ce:c6:
                    cf:67:0f:71:2e:18:d9:bf:a3:c0:48:92:b2:bb:b8:
                    85:95:b1:92:f4:eb:48:2c:4e:b9:a8:bc:eb:31:06:
                    12:65:43:4b:3f:2d:ff:6f:a9:2a:e3:ef:d4:b3:ac:
                    79:55:5d:ba:2e:ae:14:5b:22:47:70:a8:e4:37:6b:
                    d0:03
                Exponent: 65537 (0x10001)
        X509v3 extensions:
            X509v3 Basic Constraints: 
                CA:FALSE
            X509v3 Subject Key Identifier: 
                0E:88:C1:12:CD:24:04:7D:CD:9B:FB:89:35:CC:F8:D7:A0:D6:5E:67
            X509v3 Authority Key Identifier: 
                keyid:44:01:CC:06:0B:41:75:CB:C8:FB:C9:37:86:2D:9D:D2:D8:79:B6:8B
                DirName:/C=US/ST=California/L=San Francisco/O=Copyleft Certificate Co/OU=My Organizational Unit/CN=ChangeMe/emailAddress=me@example.net
                serial:AF:E8:E0:DD:C5:8B:0E:DD

            X509v3 Extended Key Usage: 
                TLS Web Client Authentication
            X509v3 Key Usage: 
                Digital Signature
    Signature Algorithm: sha256WithRSAEncryption
         d4:3c:0b:62:1e:72:23:45:3d:28:3b:90:f9:9b:7e:d3:e6:ec:
         b8:47:b4:d0:4c:ac:32:7f:df:73:91:18:aa:c9:09:1d:28:cd:
         2d:5a:69:83:d1:2b:c5:10:cc:ce:7c:61:6b:5e:1b:54:bc:ce:
         dc:1d:42:bd:54:1c:bd:05:b7:51:21:7d:e7:80:6c:d0:e0:7d:
         38:b0:ca:3a:f0:cf:17:18:89:33:d8:73:0d:47:cc:96:27:c2:
         17:c0:d0:59:9f:66:fc:94:79:66:9d:14:1f:19:4c:88:8c:23:
         7a:75:08:0d:10:f6:6c:0f:37:1b:e4:6c:17:3a:88:38:29:24:
         66:79:2c:d9:64:d9:67:23:89:2c:c1:73:84:7c:11:8e:b6:c9:
         2c:bd:13:e9:6f:4e:d0:c8:94:f1:b1:d0:e6:f8:c8:0b:c0:0b:
         76:4e:aa:6a:da:19:b4:f3:36:06:52:0e:4b:85:75:1c:ee:7d:
         4f:c6:06:80:12:d9:8d:5c:79:9d:95:d8:c8:46:16:97:bb:c5:
         3d:d7:e9:2d:66:7b:7b:41:d5:5f:61:16:42:ce:69:b6:e1:8f:
         fe:64:e4:21:19:9f:44:49:a5:4d:c1:cb:1c:c3:d3:3f:7a:ae:
         26:18:ab:79:80:fc:c8:a0:31:eb:3a:aa:94:b2:3a:80:c1:45:
         ec:a0:9b:11
-----BEGIN CERTIFICATE-----
MIIFLjCCBBagAwIBAgIQANpMIpI5ujnWZQ40wEmXIzANBgkqhkiG9w0BAQsFADCB
rzELMAkGA1UEBhMCVVMxEzARBgNVBAgMCkNhbGlmb3JuaWExFjAUBgNVBAcMDVNh
biBGcmFuY2lzY28xIDAeBgNVBAoMF0NvcHlsZWZ0IENlcnRpZmljYXRlIENvMR8w
HQYDVQQLDBZNeSBPcmdhbml6YXRpb25hbCBVbml0MREwDwYDVQQDDAhDaGFuZ2VN
ZTEdMBsGCSqGSIb3DQEJARYObWVAZXhhbXBsZS5uZXQwHhcNMjMxMTExMTA1NTQw
WhcNMjQxMTEwMTA1NTQwWjCBujELMAkGA1UEBhMCVVMxCzAJBgNVBAgMAk9IMRMw
EQYDVQQHDApDaW5jaW5uYXRpMSEwHwYDVQQKDBhVbml2ZXJzaXR5IG9mIENpbmNp
bm5hdGkxKjAoBgNVBAsMIURlcHQuIEVsZWMuIENvbXAuIEVuZy4gQ29tcC4gU2Np
LjEQMA4GA1UEAwwHY2xpZW50NjEoMCYGCSqGSIb3DQEJARYZZnJhbmNvQGdhdXNz
LmVjZWNzLnVjLmVkdTCCASIwDQYJKoZIhvcNAQEBBQADggEPADCCAQoCggEBALUO
/XZ9BBxgUiwrl5WTbG2h+VCU/oJibvb7AEGYIqUdfhsHxxOeTGRdp2ViGnEWzbrm
wCL2Mn0OTr6XyELIbkz8Bq5iEs9WKHDETnh9AgFR+mUYo9m2rZzSz6q+xkc62bgS
VhCl2ZIPEUp/wHq7GDB44Zh01M8r7R9F1G9NPiFoicR0R7OIdqM/py8LOYZHNNIP
523pdp/Vn6U5ahUemWtLiRNpHviYKGLOs0bcZjs52GhqzkV/UNzlCy5fUbPtP87G
z2cPcS4Y2b+jwEiSsru4hZWxkvTrSCxOuai86zEGEmVDSz8t/2+pKuPv1LOseVVd
ui6uFFsiR3Co5Ddr0AMCAwEAAaOCATcwggEzMAkGA1UdEwQCMAAwHQYDVR0OBBYE
FA6IwRLNJAR9zZv7iTXM+Neg1l5nMIHkBgNVHSMEgdwwgdmAFEQBzAYLQXXLyPvJ
N4YtndLYebaLoYG1pIGyMIGvMQswCQYDVQQGEwJVUzETMBEGA1UECAwKQ2FsaWZv
cm5pYTEWMBQGA1UEBwwNU2FuIEZyYW5jaXNjbzEgMB4GA1UECgwXQ29weWxlZnQg
Q2VydGlmaWNhdGUgQ28xHzAdBgNVBAsMFk15IE9yZ2FuaXphdGlvbmFsIFVuaXQx
ETAPBgNVBAMMCENoYW5nZU1lMR0wGwYJKoZIhvcNAQkBFg5tZUBleGFtcGxlLm5l
dIIJAK/o4N3Fiw7dMBMGA1UdJQQMMAoGCCsGAQUFBwMCMAsGA1UdDwQEAwIHgDAN
BgkqhkiG9w0BAQsFAAOCAQEA1DwLYh5yI0U9KDuQ+Zt+0+bsuEe00EysMn/fc5EY
qskJHSjNLVppg9ErxRDMznxha14bVLzO3B1CvVQcvQW3USF954Bs0OB9OLDKOvDP
FxiJM9hzDUfMlifCF8DQWZ9m/JR5Zp0UHxlMiIwjenUIDRD2bA83G+RsFzqIOCkk
Znks2WTZZyOJLMFzhHwRjrbJLL0T6W9O0MiU8bHQ5vjIC8ALdk6qatoZtPM2BlIO
S4V1HO59T8YGgBLZjVx5nZXYyEYWl7vFPdfpLWZ7e0HVX2EWQs5ptuGP/mTkIRmf
REmlTcHLHMPTP3quJhireYD8yKAx6zqqlLI6gMFF7KCbEQ==
-----END CERTIFICATE-----
