Certificate:
    Data:
        Version: 3 (0x2)
        Serial Number:
            63:6c:85:36:b2:01:ef:dc:82:bd:f0:28:50:c1:63:bd
    Signature Algorithm: sha256WithRSAEncryption
        Issuer: C=US, ST=California, L=San Francisco, O=Copyleft Certificate Co, OU=My Organizational Unit, CN=ChangeMe/emailAddress=me@example.net
        Validity
            Not Before: Nov 10 17:46:26 2023 GMT
            Not After : Nov  9 17:46:26 2024 GMT
        Subject: C=US, ST=OH, L=Cincinnati, O=University of Cincinnati, OU=Dept_Elec_Com_ Eng_Com_Sci., CN=client120/emailAddress=franco@gauss.ececs.uc.edu
        Subject Public Key Info:
            Public Key Algorithm: rsaEncryption
                Public-Key: (2048 bit)
                Modulus:
                    00:dc:4a:b9:c6:4f:8e:9f:bc:4b:11:fe:28:08:51:
                    13:6f:f7:a0:4f:d7:59:a5:d8:f2:d5:fa:01:3e:4c:
                    c6:4d:60:01:fe:fb:15:5a:f2:94:4c:cd:3c:ab:a0:
                    03:6c:e8:50:ee:73:e7:b2:08:6e:b6:e7:12:a8:48:
                    0c:2a:73:b2:75:e6:f9:11:c7:f5:c5:76:a7:9f:af:
                    39:1c:36:8e:2b:a3:08:ac:4e:09:d3:c9:b0:01:4d:
                    cd:81:e0:24:e4:fc:1e:99:fb:e6:5a:13:42:f3:23:
                    69:f8:b7:84:9d:87:b7:bc:da:c6:a6:26:01:17:67:
                    18:ab:c9:eb:34:86:11:a4:82:65:70:37:5c:1c:9c:
                    c7:0b:e2:8b:42:a2:1e:71:5f:64:d7:63:d6:76:78:
                    9b:10:88:7e:88:4a:6c:95:da:56:61:4b:e3:a1:a6:
                    39:d6:b6:e2:70:20:6b:42:5f:21:44:04:76:42:25:
                    53:eb:d6:47:23:4f:80:66:1a:d9:36:50:80:94:00:
                    1b:54:09:25:a0:41:c9:6e:3a:d8:18:11:3d:12:f0:
                    9b:17:fd:af:0a:80:6a:55:1e:b5:ad:27:a6:2d:f4:
                    b9:50:f1:e1:f1:37:e0:a5:35:f0:75:98:64:b4:01:
                    95:88:e1:00:db:08:35:12:e7:a2:d9:9a:df:6b:e4:
                    cc:89
                Exponent: 65537 (0x10001)
        X509v3 extensions:
            X509v3 Basic Constraints: 
                CA:FALSE
            X509v3 Subject Key Identifier: 
                E0:2A:F8:26:B6:A9:A4:0F:92:D3:E0:48:50:A7:39:9C:49:6D:82:90
            X509v3 Authority Key Identifier: 
                keyid:C8:27:DA:64:30:08:40:08:4A:25:CC:DC:43:99:DE:77:A1:FE:77:BD
                DirName:/C=US/ST=California/L=San Francisco/O=Copyleft Certificate Co/OU=My Organizational Unit/CN=ChangeMe/emailAddress=me@example.net
                serial:A9:48:C3:7E:FC:1B:B0:A1

            X509v3 Extended Key Usage: 
                TLS Web Client Authentication
            X509v3 Key Usage: 
                Digital Signature
    Signature Algorithm: sha256WithRSAEncryption
         a5:2d:e3:b7:13:f0:2f:45:73:a3:c9:32:f7:bb:e7:9d:c9:54:
         af:f7:5c:11:32:31:31:4d:dc:9a:f5:2a:ed:d2:5b:0f:b6:41:
         2b:ee:b7:e1:83:31:25:f2:04:b1:31:81:3f:03:f3:21:ce:27:
         70:c7:09:f3:fe:47:b5:0d:3b:50:00:72:bd:f9:e7:a1:3d:d2:
         0a:b8:3b:09:71:9f:fa:77:e1:42:96:a0:e8:27:72:23:bc:74:
         63:9f:e5:ba:57:e2:53:5c:81:ad:78:d8:d3:8b:be:d7:49:33:
         29:3d:de:8e:97:b9:fc:ae:69:75:2b:dd:ff:5f:2d:50:2e:9b:
         66:cd:8f:ee:34:b0:66:b8:04:7b:44:60:4f:0c:89:8b:19:61:
         df:7b:44:04:3e:7f:f9:78:1b:6b:b5:fa:77:d6:58:df:69:88:
         55:4d:94:35:fb:0d:16:fe:c8:90:1f:68:e6:0a:62:2c:92:e5:
         9b:bb:2d:8b:7c:fe:25:9e:dc:df:41:80:6b:3a:1b:65:1c:2e:
         e3:bb:23:2c:9e:65:69:b0:1b:5a:b5:cb:a1:b4:71:d0:8b:80:
         16:63:37:1c:39:44:89:bc:19:e6:24:2f:a5:06:a6:c2:2c:36:
         90:e5:29:9b:fe:10:c7:95:72:82:bd:35:31:19:79:d5:2d:b2:
         58:0f:a6:57
-----BEGIN CERTIFICATE-----
MIIFKjCCBBKgAwIBAgIQY2yFNrIB79yCvfAoUMFjvTANBgkqhkiG9w0BAQsFADCB
rzELMAkGA1UEBhMCVVMxEzARBgNVBAgMCkNhbGlmb3JuaWExFjAUBgNVBAcMDVNh
biBGcmFuY2lzY28xIDAeBgNVBAoMF0NvcHlsZWZ0IENlcnRpZmljYXRlIENvMR8w
HQYDVQQLDBZNeSBPcmdhbml6YXRpb25hbCBVbml0MREwDwYDVQQDDAhDaGFuZ2VN
ZTEdMBsGCSqGSIb3DQEJARYObWVAZXhhbXBsZS5uZXQwHhcNMjMxMTEwMTc0NjI2
WhcNMjQxMTA5MTc0NjI2WjCBtjELMAkGA1UEBhMCVVMxCzAJBgNVBAgMAk9IMRMw
EQYDVQQHDApDaW5jaW5uYXRpMSEwHwYDVQQKDBhVbml2ZXJzaXR5IG9mIENpbmNp
bm5hdGkxJDAiBgNVBAsMG0RlcHRfRWxlY19Db21fIEVuZ19Db21fU2NpLjESMBAG
A1UEAwwJY2xpZW50MTIwMSgwJgYJKoZIhvcNAQkBFhlmcmFuY29AZ2F1c3MuZWNl
Y3MudWMuZWR1MIIBIjANBgkqhkiG9w0BAQEFAAOCAQ8AMIIBCgKCAQEA3Eq5xk+O
n7xLEf4oCFETb/egT9dZpdjy1foBPkzGTWAB/vsVWvKUTM08q6ADbOhQ7nPnsghu
tucSqEgMKnOydeb5Ecf1xXann685HDaOK6MIrE4J08mwAU3NgeAk5PwemfvmWhNC
8yNp+LeEnYe3vNrGpiYBF2cYq8nrNIYRpIJlcDdcHJzHC+KLQqIecV9k12PWdnib
EIh+iEpsldpWYUvjoaY51rbicCBrQl8hRAR2QiVT69ZHI0+AZhrZNlCAlAAbVAkl
oEHJbjrYGBE9EvCbF/2vCoBqVR61rSemLfS5UPHh8TfgpTXwdZhktAGViOEA2wg1
Euei2Zrfa+TMiQIDAQABo4IBNzCCATMwCQYDVR0TBAIwADAdBgNVHQ4EFgQU4Cr4
JrappA+S0+BIUKc5nEltgpAwgeQGA1UdIwSB3DCB2YAUyCfaZDAIQAhKJczcQ5ne
d6H+d72hgbWkgbIwga8xCzAJBgNVBAYTAlVTMRMwEQYDVQQIDApDYWxpZm9ybmlh
MRYwFAYDVQQHDA1TYW4gRnJhbmNpc2NvMSAwHgYDVQQKDBdDb3B5bGVmdCBDZXJ0
aWZpY2F0ZSBDbzEfMB0GA1UECwwWTXkgT3JnYW5pemF0aW9uYWwgVW5pdDERMA8G
A1UEAwwIQ2hhbmdlTWUxHTAbBgkqhkiG9w0BCQEWDm1lQGV4YW1wbGUubmV0ggkA
qUjDfvwbsKEwEwYDVR0lBAwwCgYIKwYBBQUHAwIwCwYDVR0PBAQDAgeAMA0GCSqG
SIb3DQEBCwUAA4IBAQClLeO3E/AvRXOjyTL3u+edyVSv91wRMjExTdya9Srt0lsP
tkEr7rfhgzEl8gSxMYE/A/Mhzidwxwnz/ke1DTtQAHK9+eehPdIKuDsJcZ/6d+FC
lqDoJ3IjvHRjn+W6V+JTXIGteNjTi77XSTMpPd6Ol7n8rml1K93/Xy1QLptmzY/u
NLBmuAR7RGBPDImLGWHfe0QEPn/5eBtrtfp31ljfaYhVTZQ1+w0W/siQH2jmCmIs
kuWbuy2LfP4lntzfQYBrOhtlHC7juyMsnmVpsBtatcuhtHHQi4AWYzccOUSJvBnm
JC+lBqbCLDaQ5Smb/hDHlXKCvTUxGXnVLbJYD6ZX
-----END CERTIFICATE-----
