Certificate:
    Data:
        Version: 3 (0x2)
        Serial Number:
            4f:f7:30:20:ac:a1:6e:49:64:c3:5b:5d:ff:3b:61:20
    Signature Algorithm: sha256WithRSAEncryption
        Issuer: C=US, ST=California, L=San Francisco, O=Copyleft Certificate Co, OU=My Organizational Unit, CN=ChangeMe/emailAddress=me@example.net
        Validity
            Not Before: Nov 11 10:55:32 2023 GMT
            Not After : Nov 10 10:55:32 2024 GMT
        Subject: C=US, ST=OH, L=Cincinnati, O=University of Cincinnati, OU=Dept. Elec. Comp. Eng. Comp. Sci., CN=client4/emailAddress=franco@gauss.ececs.uc.edu
        Subject Public Key Info:
            Public Key Algorithm: rsaEncryption
                Public-Key: (2048 bit)
                Modulus:
                    00:b1:f4:e2:97:a2:78:c0:1d:ba:75:37:e7:e0:7e:
                    2b:3c:9d:ac:9f:4f:13:0b:e9:cf:7e:7b:93:7f:49:
                    f0:1f:2b:09:df:50:2d:ca:57:b1:98:34:af:bf:80:
                    6f:0a:f2:36:f8:17:42:a9:42:3e:95:03:a2:e8:91:
                    71:99:2b:91:23:b8:92:e8:36:25:85:86:53:08:a3:
                    dd:7a:c6:b0:14:63:40:84:aa:4d:44:74:32:44:a3:
                    63:95:ff:07:1b:99:bf:76:94:11:94:34:d3:d6:98:
                    77:bb:5d:59:ef:15:fa:36:ee:0b:e9:3a:9e:4c:11:
                    26:c8:22:7c:73:98:cb:d0:28:51:60:fa:5d:83:47:
                    96:0c:31:a2:bc:5d:4c:be:1d:11:d3:c1:7a:b9:44:
                    83:de:44:3e:bc:e7:5b:34:e6:a8:e0:78:4e:cc:fa:
                    26:38:37:53:43:3c:fd:5c:0e:ef:93:e5:35:e6:97:
                    cc:43:2f:8c:25:a2:20:27:5c:56:ef:9e:e4:05:a7:
                    4b:69:00:3f:5e:04:89:7b:67:99:0c:4c:5b:17:f7:
                    73:80:70:10:38:98:da:63:b1:5a:82:25:70:fb:86:
                    cc:dc:19:4c:47:ac:dd:75:1d:7f:d2:0e:dd:d2:58:
                    0d:ae:41:08:d5:fb:05:c0:b6:b7:f0:e3:0e:7d:6a:
                    28:d9
                Exponent: 65537 (0x10001)
        X509v3 extensions:
            X509v3 Basic Constraints: 
                CA:FALSE
            X509v3 Subject Key Identifier: 
                66:3A:11:B4:5B:4C:D3:E1:9D:A0:61:4E:55:A2:D3:91:2C:C5:8A:35
            X509v3 Authority Key Identifier: 
                keyid:44:01:CC:06:0B:41:75:CB:C8:FB:C9:37:86:2D:9D:D2:D8:79:B6:8B
                DirName:/C=US/ST=California/L=San Francisco/O=Copyleft Certificate Co/OU=My Organizational Unit/CN=ChangeMe/emailAddress=me@example.net
                serial:AF:E8:E0:DD:C5:8B:0E:DD

            X509v3 Extended Key Usage: 
                TLS Web Client Authentication
            X509v3 Key Usage: 
                Digital Signature
    Signature Algorithm: sha256WithRSAEncryption
         bc:16:7c:b2:83:a6:06:a9:f9:83:eb:d6:b7:45:d0:44:cb:42:
         b3:70:48:d4:48:88:34:d6:3e:f6:fc:46:c7:56:a4:c2:43:bc:
         dd:8b:ca:07:f9:fc:dc:fa:a6:74:32:70:4a:62:cc:0e:e1:ce:
         8e:d1:8b:bc:4e:2f:f5:94:6b:e5:c7:a4:dc:3a:d2:1b:4b:67:
         63:1e:30:45:98:f6:c7:f5:ed:0f:c1:5e:4e:1c:ab:de:c6:6e:
         db:f2:7c:e3:8b:b0:4f:e7:1a:f5:eb:b3:98:ce:00:bb:a2:ca:
         8a:fb:1a:73:9c:7d:36:80:72:59:b8:a5:2d:ce:d2:8c:4b:dc:
         95:06:0d:25:f3:89:eb:7e:3a:6c:bf:08:8a:61:e8:91:0c:03:
         c5:a9:a9:bb:2e:c4:b8:c7:4e:0d:49:5b:60:79:b1:f6:fb:01:
         a6:c3:d4:71:29:8d:a0:c3:57:a6:33:e6:a2:c8:2a:97:b1:37:
         1a:49:fc:28:bb:54:6a:f4:3d:d3:e1:17:78:fd:e3:8c:c0:b7:
         55:81:b7:22:bc:8f:7c:35:66:6c:09:a1:7b:d0:e1:c5:6d:1b:
         c8:a0:17:5e:40:e8:07:ec:0f:f5:ea:d9:b0:88:32:09:15:93:
         2b:c2:7d:91:45:b3:f1:6d:a4:7d:08:ee:28:ac:10:a0:ed:82:
         6d:49:8f:2d
-----BEGIN CERTIFICATE-----
MIIFLjCCBBagAwIBAgIQT/cwIKyhbklkw1td/zthIDANBgkqhkiG9w0BAQsFADCB
rzELMAkGA1UEBhMCVVMxEzARBgNVBAgMCkNhbGlmb3JuaWExFjAUBgNVBAcMDVNh
biBGcmFuY2lzY28xIDAeBgNVBAoMF0NvcHlsZWZ0IENlcnRpZmljYXRlIENvMR8w
HQYDVQQLDBZNeSBPcmdhbml6YXRpb25hbCBVbml0MREwDwYDVQQDDAhDaGFuZ2VN
ZTEdMBsGCSqGSIb3DQEJARYObWVAZXhhbXBsZS5uZXQwHhcNMjMxMTExMTA1NTMy
WhcNMjQxMTEwMTA1NTMyWjCBujELMAkGA1UEBhMCVVMxCzAJBgNVBAgMAk9IMRMw
EQYDVQQHDApDaW5jaW5uYXRpMSEwHwYDVQQKDBhVbml2ZXJzaXR5IG9mIENpbmNp
bm5hdGkxKjAoBgNVBAsMIURlcHQuIEVsZWMuIENvbXAuIEVuZy4gQ29tcC4gU2Np
LjEQMA4GA1UEAwwHY2xpZW50NDEoMCYGCSqGSIb3DQEJARYZZnJhbmNvQGdhdXNz
LmVjZWNzLnVjLmVkdTCCASIwDQYJKoZIhvcNAQEBBQADggEPADCCAQoCggEBALH0
4peieMAdunU35+B+KzydrJ9PEwvpz357k39J8B8rCd9QLcpXsZg0r7+AbwryNvgX
QqlCPpUDouiRcZkrkSO4kug2JYWGUwij3XrGsBRjQISqTUR0MkSjY5X/BxuZv3aU
EZQ009aYd7tdWe8V+jbuC+k6nkwRJsgifHOYy9AoUWD6XYNHlgwxorxdTL4dEdPB
erlEg95EPrznWzTmqOB4Tsz6Jjg3U0M8/VwO75PlNeaXzEMvjCWiICdcVu+e5AWn
S2kAP14EiXtnmQxMWxf3c4BwEDiY2mOxWoIlcPuGzNwZTEes3XUdf9IO3dJYDa5B
CNX7BcC2t/DjDn1qKNkCAwEAAaOCATcwggEzMAkGA1UdEwQCMAAwHQYDVR0OBBYE
FGY6EbRbTNPhnaBhTlWi05EsxYo1MIHkBgNVHSMEgdwwgdmAFEQBzAYLQXXLyPvJ
N4YtndLYebaLoYG1pIGyMIGvMQswCQYDVQQGEwJVUzETMBEGA1UECAwKQ2FsaWZv
cm5pYTEWMBQGA1UEBwwNU2FuIEZyYW5jaXNjbzEgMB4GA1UECgwXQ29weWxlZnQg
Q2VydGlmaWNhdGUgQ28xHzAdBgNVBAsMFk15IE9yZ2FuaXphdGlvbmFsIFVuaXQx
ETAPBgNVBAMMCENoYW5nZU1lMR0wGwYJKoZIhvcNAQkBFg5tZUBleGFtcGxlLm5l
dIIJAK/o4N3Fiw7dMBMGA1UdJQQMMAoGCCsGAQUFBwMCMAsGA1UdDwQEAwIHgDAN
BgkqhkiG9w0BAQsFAAOCAQEAvBZ8soOmBqn5g+vWt0XQRMtCs3BI1EiINNY+9vxG
x1akwkO83YvKB/n83PqmdDJwSmLMDuHOjtGLvE4v9ZRr5cek3DrSG0tnYx4wRZj2
x/XtD8FeThyr3sZu2/J844uwT+ca9euzmM4Au6LKivsac5x9NoByWbilLc7SjEvc
lQYNJfOJ6346bL8IimHokQwDxampuy7EuMdODUlbYHmx9vsBpsPUcSmNoMNXpjPm
osgql7E3Gkn8KLtUavQ90+EXeP3jjMC3VYG3IryPfDVmbAmhe9DhxW0byKAXXkDo
B+wP9erZsIgyCRWTK8J9kUWz8W2kfQjuKKwQoO2CbUmPLQ==
-----END CERTIFICATE-----
