Certificate:
    Data:
        Version: 3 (0x2)
        Serial Number:
            84:3c:f0:09:9e:dd:16:2e:9f:ee:61:27:03:88:f4:e0
    Signature Algorithm: sha256WithRSAEncryption
        Issuer: C=US, ST=California, L=San Francisco, O=Copyleft Certificate Co, OU=My Organizational Unit, CN=ChangeMe/emailAddress=me@example.net
        Validity
            Not Before: Nov 11 01:45:26 2023 GMT
            Not After : Nov 10 01:45:26 2024 GMT
        Subject: C=US, ST=OH, L=Cincinnati, O=University of Cincinnati, OU=Dept. Elec. Comp. Eng. Comp. Sci., CN=client86/emailAddress=franco@gauss.ececs.uc.edu
        Subject Public Key Info:
            Public Key Algorithm: rsaEncryption
                Public-Key: (2048 bit)
                Modulus:
                    00:c2:ee:ce:c3:2d:a8:3e:3b:63:98:85:09:f5:28:
                    a1:20:53:9a:fd:fa:42:ca:eb:d7:a0:89:6c:a8:05:
                    11:ec:c4:1d:7e:84:ae:8b:ec:ea:34:48:2b:7f:70:
                    7b:d9:74:e0:ec:4f:36:a5:90:1f:7b:98:12:b2:2a:
                    46:d4:a2:50:fb:11:ee:c0:81:35:1f:6b:10:c7:d3:
                    48:d0:b4:4c:93:a3:3e:e8:34:5f:53:7c:84:b4:fa:
                    d1:44:b9:99:91:69:0c:59:73:4d:18:04:d7:23:62:
                    44:eb:49:7f:7b:32:c0:08:1b:0c:23:3d:0c:9d:24:
                    0a:25:65:db:21:36:ec:34:13:69:b9:d8:83:31:da:
                    05:b4:77:32:c7:e9:57:f2:a2:a9:31:32:6b:0a:df:
                    e4:47:58:cb:0d:5f:c8:77:b4:b8:63:70:6e:fe:90:
                    57:94:38:53:81:fb:bd:ab:cb:20:08:98:98:96:40:
                    69:65:5c:5b:03:e9:a5:96:88:b6:b6:45:95:7e:6e:
                    cc:59:24:a0:2e:cc:8d:9a:a2:47:5f:76:20:c8:f2:
                    1d:b9:4a:d4:49:21:dc:45:2a:f8:bc:46:d0:3c:4e:
                    7d:7a:a8:04:13:ed:3c:55:df:32:25:24:e2:7b:a2:
                    71:66:b0:58:5e:82:54:74:a6:7f:71:ba:57:50:5d:
                    76:27
                Exponent: 65537 (0x10001)
        X509v3 extensions:
            X509v3 Basic Constraints: 
                CA:FALSE
            X509v3 Subject Key Identifier: 
                28:3C:F9:58:36:71:0E:17:B2:EE:F7:A5:AC:FE:93:90:21:75:9F:4B
            X509v3 Authority Key Identifier: 
                keyid:73:DE:A0:43:0F:AE:B1:9E:E8:59:69:18:50:A1:1A:1F:D4:A1:E3:F0
                DirName:/C=US/ST=California/L=San Francisco/O=Copyleft Certificate Co/OU=My Organizational Unit/CN=ChangeMe/emailAddress=me@example.net
                serial:E9:BB:CB:16:C5:32:BE:3B

            X509v3 Extended Key Usage: 
                TLS Web Client Authentication
            X509v3 Key Usage: 
                Digital Signature
    Signature Algorithm: sha256WithRSAEncryption
         a1:bb:51:86:a9:1e:e9:79:e8:32:12:3f:8f:27:a8:6b:7e:44:
         25:de:73:2a:e3:dd:4a:81:22:5a:83:35:1d:46:e5:eb:2c:bf:
         bf:6b:a6:55:b7:41:e1:39:d2:cb:91:9b:16:0f:e8:b5:6f:9c:
         bd:48:ee:2e:2b:40:99:24:99:59:1d:26:46:95:7f:90:2a:f3:
         8b:21:46:d3:6f:7b:69:6b:b3:79:cb:a2:b4:25:cd:30:7f:ad:
         3f:b3:f2:1a:01:f2:cd:29:9c:a2:68:7e:82:17:d4:80:b2:91:
         e3:d8:71:3c:7c:3b:07:fa:7f:bb:ee:ba:7a:e7:8e:c7:7a:88:
         87:72:f5:22:a7:6f:58:4e:86:90:10:f6:ea:64:bf:1e:f5:80:
         c3:94:26:35:34:94:0e:b3:c6:10:c5:bf:c9:0a:3f:1d:b8:89:
         58:77:e3:5a:a8:14:ce:9d:20:3a:6d:ec:42:5c:6a:24:96:0b:
         76:31:f1:a2:df:a3:c0:8d:15:dd:1d:18:a3:5d:e2:69:40:60:
         1d:20:1f:81:e5:ec:0e:43:a5:cc:8b:d2:7a:17:32:46:f1:6a:
         d9:fb:26:08:c4:7e:4e:62:2d:3d:04:0a:12:e5:f6:b1:83:40:
         ff:c9:a8:5b:23:73:cc:4a:55:76:bc:16:20:7a:c7:72:52:96:
         49:00:57:92
-----BEGIN CERTIFICATE-----
MIIFMDCCBBigAwIBAgIRAIQ88Ame3RYun+5hJwOI9OAwDQYJKoZIhvcNAQELBQAw
ga8xCzAJBgNVBAYTAlVTMRMwEQYDVQQIDApDYWxpZm9ybmlhMRYwFAYDVQQHDA1T
YW4gRnJhbmNpc2NvMSAwHgYDVQQKDBdDb3B5bGVmdCBDZXJ0aWZpY2F0ZSBDbzEf
MB0GA1UECwwWTXkgT3JnYW5pemF0aW9uYWwgVW5pdDERMA8GA1UEAwwIQ2hhbmdl
TWUxHTAbBgkqhkiG9w0BCQEWDm1lQGV4YW1wbGUubmV0MB4XDTIzMTExMTAxNDUy
NloXDTI0MTExMDAxNDUyNlowgbsxCzAJBgNVBAYTAlVTMQswCQYDVQQIDAJPSDET
MBEGA1UEBwwKQ2luY2lubmF0aTEhMB8GA1UECgwYVW5pdmVyc2l0eSBvZiBDaW5j
aW5uYXRpMSowKAYDVQQLDCFEZXB0LiBFbGVjLiBDb21wLiBFbmcuIENvbXAuIFNj
aS4xETAPBgNVBAMMCGNsaWVudDg2MSgwJgYJKoZIhvcNAQkBFhlmcmFuY29AZ2F1
c3MuZWNlY3MudWMuZWR1MIIBIjANBgkqhkiG9w0BAQEFAAOCAQ8AMIIBCgKCAQEA
wu7Owy2oPjtjmIUJ9SihIFOa/fpCyuvXoIlsqAUR7MQdfoSui+zqNEgrf3B72XTg
7E82pZAfe5gSsipG1KJQ+xHuwIE1H2sQx9NI0LRMk6M+6DRfU3yEtPrRRLmZkWkM
WXNNGATXI2JE60l/ezLACBsMIz0MnSQKJWXbITbsNBNpudiDMdoFtHcyx+lX8qKp
MTJrCt/kR1jLDV/Id7S4Y3Bu/pBXlDhTgfu9q8sgCJiYlkBpZVxbA+mlloi2tkWV
fm7MWSSgLsyNmqJHX3YgyPIduUrUSSHcRSr4vEbQPE59eqgEE+08Vd8yJSTie6Jx
ZrBYXoJUdKZ/cbpXUF12JwIDAQABo4IBNzCCATMwCQYDVR0TBAIwADAdBgNVHQ4E
FgQUKDz5WDZxDhey7velrP6TkCF1n0swgeQGA1UdIwSB3DCB2YAUc96gQw+usZ7o
WWkYUKEaH9Sh4/ChgbWkgbIwga8xCzAJBgNVBAYTAlVTMRMwEQYDVQQIDApDYWxp
Zm9ybmlhMRYwFAYDVQQHDA1TYW4gRnJhbmNpc2NvMSAwHgYDVQQKDBdDb3B5bGVm
dCBDZXJ0aWZpY2F0ZSBDbzEfMB0GA1UECwwWTXkgT3JnYW5pemF0aW9uYWwgVW5p
dDERMA8GA1UEAwwIQ2hhbmdlTWUxHTAbBgkqhkiG9w0BCQEWDm1lQGV4YW1wbGUu
bmV0ggkA6bvLFsUyvjswEwYDVR0lBAwwCgYIKwYBBQUHAwIwCwYDVR0PBAQDAgeA
MA0GCSqGSIb3DQEBCwUAA4IBAQChu1GGqR7peegyEj+PJ6hrfkQl3nMq491KgSJa
gzUdRuXrLL+/a6ZVt0HhOdLLkZsWD+i1b5y9SO4uK0CZJJlZHSZGlX+QKvOLIUbT
b3tpa7N5y6K0Jc0wf60/s/IaAfLNKZyiaH6CF9SAspHj2HE8fDsH+n+77rp6547H
eoiHcvUip29YToaQEPbqZL8e9YDDlCY1NJQOs8YQxb/JCj8duIlYd+NaqBTOnSA6
bexCXGoklgt2MfGi36PAjRXdHRijXeJpQGAdIB+B5ewOQ6XMi9J6FzJG8WrZ+yYI
xH5OYi09BAoS5faxg0D/yahbI3PMSlV2vBYgesdyUpZJAFeS
-----END CERTIFICATE-----
