Certificate:
    Data:
        Version: 3 (0x2)
        Serial Number:
            ff:17:0a:92:da:52:94:d2:b1:c2:4f:8c:78:64:76:d7
    Signature Algorithm: sha256WithRSAEncryption
        Issuer: C=US, ST=California, L=San Francisco, O=Copyleft Certificate Co, OU=My Organizational Unit, CN=ChangeMe/emailAddress=me@example.net
        Validity
            Not Before: Jan 23 18:28:20 2021 GMT
            Not After : Jan 23 18:28:20 2022 GMT
        Subject: C=US, ST=OH, L=Cincinnati, O=University of Cincinnati, OU=Dept. Electrical Eng. and Computer Sci., CN=client45/emailAddress=franco@gauss.ececs.uc.edu
        Subject Public Key Info:
            Public Key Algorithm: rsaEncryption
                Public-Key: (2048 bit)
                Modulus:
                    00:ac:f8:86:a6:e0:09:f1:ee:d6:09:bc:f8:89:6f:
                    6c:a2:7c:42:74:0d:8d:37:12:e0:ed:a9:88:26:63:
                    57:db:85:a4:4d:63:d3:12:a7:7e:cd:0f:51:d2:fa:
                    da:b5:b5:1c:49:00:b9:a0:af:92:0b:15:73:b3:51:
                    c6:a4:d7:0a:1b:63:1b:d5:f8:7d:ea:bc:b6:1e:1f:
                    de:48:c6:27:13:75:05:b2:3e:87:f8:92:96:c2:64:
                    c1:73:6b:24:47:7a:f3:5d:cd:cc:23:6a:ae:5d:5b:
                    58:06:ae:f8:74:4f:c0:86:51:20:45:a0:15:9a:14:
                    f5:fa:72:6e:f0:10:84:54:9d:84:b8:c7:40:18:8b:
                    53:aa:4a:c3:7f:58:b7:b6:6b:5c:f5:ea:3d:c7:7e:
                    b7:d3:ac:bd:42:dc:23:7a:45:70:4d:a2:28:08:27:
                    56:42:05:c1:ae:d2:15:8f:d2:b8:b6:49:f9:d8:cc:
                    56:97:d0:0a:c4:ff:6b:33:10:71:36:e7:2e:a6:ce:
                    06:82:11:37:eb:ec:b7:5b:5d:69:e8:f1:72:4b:de:
                    d0:79:30:fe:52:c6:58:d3:58:09:99:8b:22:67:4d:
                    34:6c:70:a4:ab:a7:a8:0c:0d:25:5e:6a:44:88:ce:
                    44:08:9f:d9:90:b4:e6:cd:40:70:24:55:24:34:fc:
                    72:47
                Exponent: 65537 (0x10001)
        X509v3 extensions:
            X509v3 Basic Constraints: 
                CA:FALSE
            X509v3 Subject Key Identifier: 
                AB:31:21:87:69:06:A4:DE:24:F8:0B:1C:37:EC:D3:06:EF:56:D2:3E
            X509v3 Authority Key Identifier: 
                keyid:EF:DC:B6:3D:4B:FD:A7:87:05:C5:22:3D:8B:DC:BF:99:2A:EE:E4:DB
                DirName:/C=US/ST=California/L=San Francisco/O=Copyleft Certificate Co/OU=My Organizational Unit/CN=ChangeMe/emailAddress=me@example.net
                serial:87:1E:1D:DC:6B:8C:66:88

            X509v3 Extended Key Usage: 
                TLS Web Client Authentication
            X509v3 Key Usage: 
                Digital Signature
    Signature Algorithm: sha256WithRSAEncryption
         a4:61:8f:cf:23:66:11:3f:62:70:6b:d9:a4:4c:35:18:a0:5d:
         40:f8:2f:cc:fd:17:98:50:ff:6b:ae:50:54:03:d5:74:97:0d:
         23:3f:f2:1b:b0:68:a3:66:04:a2:b0:05:20:48:bf:e0:7a:6a:
         2a:f8:29:bf:5d:aa:81:9d:e3:e9:ba:f4:26:48:c1:53:80:d9:
         27:8a:34:1a:7b:80:44:55:b0:90:32:75:b4:48:1c:75:c6:a9:
         07:e1:84:6e:13:bb:5b:3d:56:c7:0b:34:9a:95:07:64:0d:20:
         5c:24:b5:1b:03:fe:70:20:88:a7:c5:ff:c8:1e:d8:a4:0f:3a:
         c2:7f:cf:9b:9d:da:99:b0:4a:f6:e1:0d:8b:6c:8a:e8:df:93:
         39:c4:21:af:2b:6d:6a:f6:e8:b1:d0:fd:ed:04:0c:09:29:69:
         82:fc:ad:70:7c:71:4f:01:08:89:fe:7d:a6:a2:58:08:85:9e:
         8f:2f:61:e6:59:83:d8:f1:66:a8:ca:87:c3:a8:e1:7b:96:27:
         63:1f:4c:5d:c9:59:e0:b8:a3:d9:3a:1a:eb:54:de:e9:c1:5c:
         6a:fe:0b:2e:5c:c4:1b:24:d7:4e:7c:60:24:6a:e1:f8:c2:c4:
         72:fb:15:05:54:11:ae:c8:9d:61:6c:96:fc:e8:66:87:c4:da:
         f7:c2:6a:e1
-----BEGIN CERTIFICATE-----
MIIFNjCCBB6gAwIBAgIRAP8XCpLaUpTSscJPjHhkdtcwDQYJKoZIhvcNAQELBQAw
ga8xCzAJBgNVBAYTAlVTMRMwEQYDVQQIDApDYWxpZm9ybmlhMRYwFAYDVQQHDA1T
YW4gRnJhbmNpc2NvMSAwHgYDVQQKDBdDb3B5bGVmdCBDZXJ0aWZpY2F0ZSBDbzEf
MB0GA1UECwwWTXkgT3JnYW5pemF0aW9uYWwgVW5pdDERMA8GA1UEAwwIQ2hhbmdl
TWUxHTAbBgkqhkiG9w0BCQEWDm1lQGV4YW1wbGUubmV0MB4XDTIxMDEyMzE4Mjgy
MFoXDTIyMDEyMzE4MjgyMFowgcExCzAJBgNVBAYTAlVTMQswCQYDVQQIDAJPSDET
MBEGA1UEBwwKQ2luY2lubmF0aTEhMB8GA1UECgwYVW5pdmVyc2l0eSBvZiBDaW5j
aW5uYXRpMTAwLgYDVQQLDCdEZXB0LiBFbGVjdHJpY2FsIEVuZy4gYW5kIENvbXB1
dGVyIFNjaS4xETAPBgNVBAMMCGNsaWVudDQ1MSgwJgYJKoZIhvcNAQkBFhlmcmFu
Y29AZ2F1c3MuZWNlY3MudWMuZWR1MIIBIjANBgkqhkiG9w0BAQEFAAOCAQ8AMIIB
CgKCAQEArPiGpuAJ8e7WCbz4iW9sonxCdA2NNxLg7amIJmNX24WkTWPTEqd+zQ9R
0vratbUcSQC5oK+SCxVzs1HGpNcKG2Mb1fh96ry2Hh/eSMYnE3UFsj6H+JKWwmTB
c2skR3rzXc3MI2quXVtYBq74dE/AhlEgRaAVmhT1+nJu8BCEVJ2EuMdAGItTqkrD
f1i3tmtc9eo9x36306y9QtwjekVwTaIoCCdWQgXBrtIVj9K4tkn52MxWl9AKxP9r
MxBxNucups4GghE36+y3W11p6PFyS97QeTD+UsZY01gJmYsiZ000bHCkq6eoDA0l
XmpEiM5ECJ/ZkLTmzUBwJFUkNPxyRwIDAQABo4IBNzCCATMwCQYDVR0TBAIwADAd
BgNVHQ4EFgQUqzEhh2kGpN4k+AscN+zTBu9W0j4wgeQGA1UdIwSB3DCB2YAU79y2
PUv9p4cFxSI9i9y/mSru5NuhgbWkgbIwga8xCzAJBgNVBAYTAlVTMRMwEQYDVQQI
DApDYWxpZm9ybmlhMRYwFAYDVQQHDA1TYW4gRnJhbmNpc2NvMSAwHgYDVQQKDBdD
b3B5bGVmdCBDZXJ0aWZpY2F0ZSBDbzEfMB0GA1UECwwWTXkgT3JnYW5pemF0aW9u
YWwgVW5pdDERMA8GA1UEAwwIQ2hhbmdlTWUxHTAbBgkqhkiG9w0BCQEWDm1lQGV4
YW1wbGUubmV0ggkAhx4d3GuMZogwEwYDVR0lBAwwCgYIKwYBBQUHAwIwCwYDVR0P
BAQDAgeAMA0GCSqGSIb3DQEBCwUAA4IBAQCkYY/PI2YRP2Jwa9mkTDUYoF1A+C/M
/ReYUP9rrlBUA9V0lw0jP/IbsGijZgSisAUgSL/gemoq+Cm/XaqBnePpuvQmSMFT
gNknijQae4BEVbCQMnW0SBx1xqkH4YRuE7tbPVbHCzSalQdkDSBcJLUbA/5wIIin
xf/IHtikDzrCf8+bndqZsEr24Q2LbIro35M5xCGvK21q9uix0P3tBAwJKWmC/K1w
fHFPAQiJ/n2molgIhZ6PL2HmWYPY8WaoyofDqOF7lidjH0xdyVnguKPZOhrrVN7p
wVxq/gsuXMQbJNdOfGAkauH4wsRy+xUFVBGuyJ1hbJb86GaHxNr3wmrh
-----END CERTIFICATE-----
