Certificate:
    Data:
        Version: 3 (0x2)
        Serial Number:
            99:07:bc:80:4e:c2:04:76:e9:3f:fc:58:da:77:74:4a
    Signature Algorithm: sha256WithRSAEncryption
        Issuer: C=US, ST=California, L=San Francisco, O=Copyleft Certificate Co, OU=My Organizational Unit, CN=ChangeMe/emailAddress=me@example.net
        Validity
            Not Before: Nov 11 01:43:26 2023 GMT
            Not After : Nov 10 01:43:26 2024 GMT
        Subject: C=US, ST=OH, L=Cincinnati, O=University of Cincinnati, OU=Dept. Elec. Comp. Eng. Comp. Sci., CN=client56/emailAddress=franco@gauss.ececs.uc.edu
        Subject Public Key Info:
            Public Key Algorithm: rsaEncryption
                Public-Key: (2048 bit)
                Modulus:
                    00:b8:c6:ff:70:6a:90:be:91:f4:d7:76:89:b5:73:
                    02:23:d7:03:dc:d0:b1:70:ad:2b:8e:a6:df:9a:f7:
                    e3:cf:8f:0b:1b:20:28:b9:79:14:4a:07:eb:72:0c:
                    dc:b0:2b:35:19:ac:d3:62:27:32:14:51:73:fd:0f:
                    ce:ec:37:5d:39:ea:59:32:12:1f:8d:e9:57:fd:6e:
                    d8:2d:f1:94:87:75:a2:42:0b:29:fb:14:71:2c:9e:
                    1d:09:24:6f:6a:f6:a2:0a:59:d3:6d:2b:e1:ea:e4:
                    b4:f4:da:49:d8:88:84:54:2e:51:07:0c:b6:b8:e3:
                    5a:45:63:54:4e:7c:30:57:cf:ed:d4:ca:fa:e8:ed:
                    24:6f:6f:7f:28:3c:59:16:23:94:7b:3b:2c:46:47:
                    41:d3:9f:b7:c4:53:45:34:f7:2a:d9:e1:1a:70:12:
                    f6:41:1f:9a:87:48:d2:ee:5f:7d:a5:d1:89:52:0f:
                    9b:12:6c:3d:e4:90:10:1f:9e:9e:47:9d:b3:85:71:
                    7a:f2:fe:88:97:09:36:5d:85:dc:2d:0b:74:cc:4f:
                    f1:8d:83:e3:c8:d9:6d:96:0d:db:55:21:c5:86:95:
                    77:61:ff:89:f6:0c:5d:a1:65:25:2c:ef:b7:83:d8:
                    1e:76:a7:b5:0a:31:78:a6:75:9d:1d:71:ba:9f:de:
                    4f:83
                Exponent: 65537 (0x10001)
        X509v3 extensions:
            X509v3 Basic Constraints: 
                CA:FALSE
            X509v3 Subject Key Identifier: 
                BF:DD:0B:C5:C4:C1:29:6F:17:53:81:89:5F:B1:6F:6B:81:EF:CD:D0
            X509v3 Authority Key Identifier: 
                keyid:73:DE:A0:43:0F:AE:B1:9E:E8:59:69:18:50:A1:1A:1F:D4:A1:E3:F0
                DirName:/C=US/ST=California/L=San Francisco/O=Copyleft Certificate Co/OU=My Organizational Unit/CN=ChangeMe/emailAddress=me@example.net
                serial:E9:BB:CB:16:C5:32:BE:3B

            X509v3 Extended Key Usage: 
                TLS Web Client Authentication
            X509v3 Key Usage: 
                Digital Signature
    Signature Algorithm: sha256WithRSAEncryption
         50:d4:10:8a:24:1d:7c:36:06:7a:40:a6:72:52:f1:8f:eb:31:
         a6:23:8d:88:8b:99:8f:86:12:eb:65:17:e3:ea:2f:ef:96:ab:
         8b:2b:02:22:88:42:38:d3:2a:70:ef:bc:8d:50:68:ba:fb:56:
         d0:b7:36:0b:8a:4b:fb:89:c4:c0:a3:d3:64:af:30:96:e3:4d:
         0d:04:2f:90:f0:68:9b:d1:7c:73:5b:9c:da:67:c6:14:43:34:
         d4:8b:eb:be:c3:a6:d1:39:ba:65:53:bf:25:5b:17:ac:b0:20:
         59:c2:dd:f0:75:d0:e6:c8:fd:fc:12:98:c2:06:d2:7f:99:e3:
         ff:18:98:1d:0b:ca:b3:17:a6:90:47:3a:d8:2e:95:bd:eb:4b:
         6e:4c:e5:9f:be:fd:34:9a:09:46:09:47:93:0f:79:dc:d3:52:
         20:7e:0b:d7:54:b4:29:f6:59:9a:a6:98:58:5d:9e:95:fc:0d:
         ff:37:ca:80:29:e0:ea:16:07:83:6e:de:6d:2f:6c:65:d2:67:
         0f:be:82:02:15:4e:39:3a:a1:2c:ac:61:3b:32:9e:53:f9:65:
         b2:1e:6a:39:ac:2f:f6:d6:b6:23:65:6f:f8:66:93:64:ac:62:
         16:63:7f:84:00:56:51:ad:7b:1a:ef:33:40:9f:4a:ff:96:2b:
         99:46:2f:dc
-----BEGIN CERTIFICATE-----
MIIFMDCCBBigAwIBAgIRAJkHvIBOwgR26T/8WNp3dEowDQYJKoZIhvcNAQELBQAw
ga8xCzAJBgNVBAYTAlVTMRMwEQYDVQQIDApDYWxpZm9ybmlhMRYwFAYDVQQHDA1T
YW4gRnJhbmNpc2NvMSAwHgYDVQQKDBdDb3B5bGVmdCBDZXJ0aWZpY2F0ZSBDbzEf
MB0GA1UECwwWTXkgT3JnYW5pemF0aW9uYWwgVW5pdDERMA8GA1UEAwwIQ2hhbmdl
TWUxHTAbBgkqhkiG9w0BCQEWDm1lQGV4YW1wbGUubmV0MB4XDTIzMTExMTAxNDMy
NloXDTI0MTExMDAxNDMyNlowgbsxCzAJBgNVBAYTAlVTMQswCQYDVQQIDAJPSDET
MBEGA1UEBwwKQ2luY2lubmF0aTEhMB8GA1UECgwYVW5pdmVyc2l0eSBvZiBDaW5j
aW5uYXRpMSowKAYDVQQLDCFEZXB0LiBFbGVjLiBDb21wLiBFbmcuIENvbXAuIFNj
aS4xETAPBgNVBAMMCGNsaWVudDU2MSgwJgYJKoZIhvcNAQkBFhlmcmFuY29AZ2F1
c3MuZWNlY3MudWMuZWR1MIIBIjANBgkqhkiG9w0BAQEFAAOCAQ8AMIIBCgKCAQEA
uMb/cGqQvpH013aJtXMCI9cD3NCxcK0rjqbfmvfjz48LGyAouXkUSgfrcgzcsCs1
GazTYicyFFFz/Q/O7DddOepZMhIfjelX/W7YLfGUh3WiQgsp+xRxLJ4dCSRvavai
ClnTbSvh6uS09NpJ2IiEVC5RBwy2uONaRWNUTnwwV8/t1Mr66O0kb29/KDxZFiOU
ezssRkdB05+3xFNFNPcq2eEacBL2QR+ah0jS7l99pdGJUg+bEmw95JAQH56eR52z
hXF68v6Ilwk2XYXcLQt0zE/xjYPjyNltlg3bVSHFhpV3Yf+J9gxdoWUlLO+3g9ge
dqe1CjF4pnWdHXG6n95PgwIDAQABo4IBNzCCATMwCQYDVR0TBAIwADAdBgNVHQ4E
FgQUv90LxcTBKW8XU4GJX7Fva4HvzdAwgeQGA1UdIwSB3DCB2YAUc96gQw+usZ7o
WWkYUKEaH9Sh4/ChgbWkgbIwga8xCzAJBgNVBAYTAlVTMRMwEQYDVQQIDApDYWxp
Zm9ybmlhMRYwFAYDVQQHDA1TYW4gRnJhbmNpc2NvMSAwHgYDVQQKDBdDb3B5bGVm
dCBDZXJ0aWZpY2F0ZSBDbzEfMB0GA1UECwwWTXkgT3JnYW5pemF0aW9uYWwgVW5p
dDERMA8GA1UEAwwIQ2hhbmdlTWUxHTAbBgkqhkiG9w0BCQEWDm1lQGV4YW1wbGUu
bmV0ggkA6bvLFsUyvjswEwYDVR0lBAwwCgYIKwYBBQUHAwIwCwYDVR0PBAQDAgeA
MA0GCSqGSIb3DQEBCwUAA4IBAQBQ1BCKJB18NgZ6QKZyUvGP6zGmI42Ii5mPhhLr
ZRfj6i/vlquLKwIiiEI40ypw77yNUGi6+1bQtzYLikv7icTAo9NkrzCW400NBC+Q
8Gib0XxzW5zaZ8YUQzTUi+u+w6bRObplU78lWxessCBZwt3wddDmyP38EpjCBtJ/
meP/GJgdC8qzF6aQRzrYLpW960tuTOWfvv00mglGCUeTD3nc01IgfgvXVLQp9lma
pphYXZ6V/A3/N8qAKeDqFgeDbt5tL2xl0mcPvoICFU45OqEsrGE7Mp5T+WWyHmo5
rC/21rYjZW/4ZpNkrGIWY3+EAFZRrXsa7zNAn0r/liuZRi/c
-----END CERTIFICATE-----
