Certificate:
    Data:
        Version: 3 (0x2)
        Serial Number:
            ce:13:ea:88:08:b1:43:74:02:bd:85:94:ab:00:96:6e
    Signature Algorithm: sha256WithRSAEncryption
        Issuer: C=US, ST=California, L=San Francisco, O=Copyleft Certificate Co, OU=My Organizational Unit, CN=ChangeMe/emailAddress=me@example.net
        Validity
            Not Before: Nov 10 17:43:25 2023 GMT
            Not After : Nov  9 17:43:25 2024 GMT
        Subject: C=US, ST=OH, L=Cincinnati, O=University of Cincinnati, OU=Dept_Elec_Com_ Eng_Com_Sci., CN=client75/emailAddress=franco@gauss.ececs.uc.edu
        Subject Public Key Info:
            Public Key Algorithm: rsaEncryption
                Public-Key: (2048 bit)
                Modulus:
                    00:d5:8b:bb:73:69:e3:6d:80:f7:3f:3a:4b:7f:2b:
                    42:21:f6:67:80:4a:6c:ca:88:df:39:b6:d8:f8:a2:
                    5d:1b:53:1b:ed:79:57:e3:9f:d7:11:b2:71:b6:6f:
                    db:25:bf:70:f4:14:7a:ba:b1:95:b0:47:02:d3:a4:
                    b7:3c:db:14:44:c8:9b:ed:70:5e:7f:04:43:b7:2f:
                    b3:05:8a:b0:a5:b2:ad:da:68:09:2b:e1:65:8c:e5:
                    1a:f4:67:58:4d:8d:0a:30:cf:a9:30:44:01:a6:e3:
                    16:d3:89:e5:db:bc:eb:ca:e3:2f:18:be:39:cc:20:
                    14:d8:4e:af:b7:64:29:2b:05:f1:3f:80:c1:00:27:
                    0d:00:e1:00:4b:e3:e1:c6:62:3c:81:e9:48:71:b4:
                    a3:ee:8c:10:06:11:d4:03:c9:90:61:ff:7a:4d:0e:
                    2e:10:94:fb:8d:29:ff:45:5e:c6:1e:45:98:89:d3:
                    24:74:2d:37:6a:e6:f3:c4:75:b4:f4:05:40:fb:78:
                    6e:77:15:59:3b:31:30:6b:fe:43:11:e0:91:71:b6:
                    ba:33:5d:a3:bb:cf:19:b4:b3:f7:fc:99:73:62:c1:
                    04:9d:16:1b:64:33:a1:f0:c0:a0:72:cf:0e:81:f0:
                    48:77:1d:d9:c8:f4:bb:f1:50:44:cf:a1:f5:37:e8:
                    8a:2b
                Exponent: 65537 (0x10001)
        X509v3 extensions:
            X509v3 Basic Constraints: 
                CA:FALSE
            X509v3 Subject Key Identifier: 
                4E:53:E6:50:81:5B:45:8B:C7:88:1E:B4:1B:2B:CA:A3:F2:DC:80:D3
            X509v3 Authority Key Identifier: 
                keyid:C8:27:DA:64:30:08:40:08:4A:25:CC:DC:43:99:DE:77:A1:FE:77:BD
                DirName:/C=US/ST=California/L=San Francisco/O=Copyleft Certificate Co/OU=My Organizational Unit/CN=ChangeMe/emailAddress=me@example.net
                serial:A9:48:C3:7E:FC:1B:B0:A1

            X509v3 Extended Key Usage: 
                TLS Web Client Authentication
            X509v3 Key Usage: 
                Digital Signature
    Signature Algorithm: sha256WithRSAEncryption
         22:da:36:b5:d9:18:51:be:d3:9e:7c:ee:d0:46:c9:36:b3:93:
         a8:8a:bd:6d:4f:78:74:df:0e:85:68:80:c2:c6:e3:9a:1b:5d:
         d1:3d:38:14:ef:05:5f:a0:79:01:d4:c5:8c:e1:c1:3d:b0:0a:
         5d:03:5b:b3:46:85:18:71:a8:c8:d9:c0:90:1b:24:ef:53:a8:
         b6:46:86:77:4b:8b:00:7b:b3:1b:48:8c:1e:9b:30:6b:9b:16:
         1a:3a:ac:9e:e7:0c:f7:07:40:ab:30:17:29:66:43:29:b5:3c:
         76:6f:73:12:1b:64:48:f5:84:f0:46:5c:a8:ce:26:f0:31:3e:
         31:65:a7:13:36:63:01:56:8f:3d:1d:22:30:b5:aa:57:94:60:
         0f:9d:3b:75:90:93:2b:45:e5:f2:af:da:31:87:52:ad:c7:b6:
         92:d1:33:b0:30:ef:ac:fa:97:ce:bc:9d:02:b4:ef:74:33:ed:
         12:ca:1b:87:68:2b:35:fe:f2:8a:9d:80:46:42:57:b5:9d:3e:
         32:61:49:02:83:96:e2:d4:78:ff:38:dd:16:93:47:6f:ad:cf:
         9c:40:be:58:22:63:81:dd:71:75:89:d6:02:61:bd:63:d0:27:
         13:65:d5:f5:f5:9a:bf:51:a3:bc:ce:82:8e:33:80:0c:23:46:
         59:51:f1:ff
-----BEGIN CERTIFICATE-----
MIIFKjCCBBKgAwIBAgIRAM4T6ogIsUN0Ar2FlKsAlm4wDQYJKoZIhvcNAQELBQAw
ga8xCzAJBgNVBAYTAlVTMRMwEQYDVQQIDApDYWxpZm9ybmlhMRYwFAYDVQQHDA1T
YW4gRnJhbmNpc2NvMSAwHgYDVQQKDBdDb3B5bGVmdCBDZXJ0aWZpY2F0ZSBDbzEf
MB0GA1UECwwWTXkgT3JnYW5pemF0aW9uYWwgVW5pdDERMA8GA1UEAwwIQ2hhbmdl
TWUxHTAbBgkqhkiG9w0BCQEWDm1lQGV4YW1wbGUubmV0MB4XDTIzMTExMDE3NDMy
NVoXDTI0MTEwOTE3NDMyNVowgbUxCzAJBgNVBAYTAlVTMQswCQYDVQQIDAJPSDET
MBEGA1UEBwwKQ2luY2lubmF0aTEhMB8GA1UECgwYVW5pdmVyc2l0eSBvZiBDaW5j
aW5uYXRpMSQwIgYDVQQLDBtEZXB0X0VsZWNfQ29tXyBFbmdfQ29tX1NjaS4xETAP
BgNVBAMMCGNsaWVudDc1MSgwJgYJKoZIhvcNAQkBFhlmcmFuY29AZ2F1c3MuZWNl
Y3MudWMuZWR1MIIBIjANBgkqhkiG9w0BAQEFAAOCAQ8AMIIBCgKCAQEA1Yu7c2nj
bYD3PzpLfytCIfZngEpsyojfObbY+KJdG1Mb7XlX45/XEbJxtm/bJb9w9BR6urGV
sEcC06S3PNsURMib7XBefwRDty+zBYqwpbKt2mgJK+FljOUa9GdYTY0KMM+pMEQB
puMW04nl27zryuMvGL45zCAU2E6vt2QpKwXxP4DBACcNAOEAS+PhxmI8gelIcbSj
7owQBhHUA8mQYf96TQ4uEJT7jSn/RV7GHkWYidMkdC03aubzxHW09AVA+3hudxVZ
OzEwa/5DEeCRcba6M12ju88ZtLP3/JlzYsEEnRYbZDOh8MCgcs8OgfBIdx3ZyPS7
8VBEz6H1N+iKKwIDAQABo4IBNzCCATMwCQYDVR0TBAIwADAdBgNVHQ4EFgQUTlPm
UIFbRYvHiB60GyvKo/LcgNMwgeQGA1UdIwSB3DCB2YAUyCfaZDAIQAhKJczcQ5ne
d6H+d72hgbWkgbIwga8xCzAJBgNVBAYTAlVTMRMwEQYDVQQIDApDYWxpZm9ybmlh
MRYwFAYDVQQHDA1TYW4gRnJhbmNpc2NvMSAwHgYDVQQKDBdDb3B5bGVmdCBDZXJ0
aWZpY2F0ZSBDbzEfMB0GA1UECwwWTXkgT3JnYW5pemF0aW9uYWwgVW5pdDERMA8G
A1UEAwwIQ2hhbmdlTWUxHTAbBgkqhkiG9w0BCQEWDm1lQGV4YW1wbGUubmV0ggkA
qUjDfvwbsKEwEwYDVR0lBAwwCgYIKwYBBQUHAwIwCwYDVR0PBAQDAgeAMA0GCSqG
SIb3DQEBCwUAA4IBAQAi2ja12RhRvtOefO7QRsk2s5Ooir1tT3h03w6FaIDCxuOa
G13RPTgU7wVfoHkB1MWM4cE9sApdA1uzRoUYcajI2cCQGyTvU6i2RoZ3S4sAe7Mb
SIwemzBrmxYaOqye5wz3B0CrMBcpZkMptTx2b3MSG2RI9YTwRlyozibwMT4xZacT
NmMBVo89HSIwtapXlGAPnTt1kJMrReXyr9oxh1Ktx7aS0TOwMO+s+pfOvJ0CtO90
M+0SyhuHaCs1/vKKnYBGQle1nT4yYUkCg5bi1Hj/ON0Wk0dvrc+cQL5YImOB3XF1
idYCYb1j0CcTZdX19Zq/UaO8zoKOM4AMI0ZZUfH/
-----END CERTIFICATE-----
