Certificate:
    Data:
        Version: 3 (0x2)
        Serial Number:
            b5:cc:83:a6:81:74:a3:94:c4:c0:ab:41:f9:a2:83:ce
    Signature Algorithm: sha256WithRSAEncryption
        Issuer: C=US, ST=California, L=San Francisco, O=Copyleft Certificate Co, OU=My Organizational Unit, CN=ChangeMe/emailAddress=me@example.net
        Validity
            Not Before: Nov 11 01:58:03 2023 GMT
            Not After : Nov 10 01:58:03 2024 GMT
        Subject: C=US, ST=OH, L=Cincinnati, O=University of Cincinnati, OU=Dept. Elec. Comp. Eng. Comp. Sci., CN=client0/emailAddress=franco@gauss.ececs.uc.edu
        Subject Public Key Info:
            Public Key Algorithm: rsaEncryption
                Public-Key: (2048 bit)
                Modulus:
                    00:c4:16:b9:4f:2a:2c:39:7c:97:9b:9b:e7:87:9e:
                    2f:dc:19:d5:a7:ed:5d:5d:94:50:df:02:11:81:ce:
                    30:fc:ab:c5:a5:82:7c:80:b6:57:4c:15:4f:9a:76:
                    b4:60:ed:dd:1f:c4:4e:04:8f:c6:6b:05:86:d0:ec:
                    46:90:de:49:d9:53:b4:f0:3c:67:bf:54:e5:c7:09:
                    f9:44:ac:ca:91:18:23:b3:3b:48:e4:8f:3a:a2:8c:
                    7b:ce:07:b4:59:fa:37:0b:a4:b3:30:48:71:66:a3:
                    94:d3:0a:ee:53:b0:69:86:98:61:62:e2:bc:c2:eb:
                    72:9a:75:62:bc:c8:bf:a9:7f:87:f2:1e:8c:79:6f:
                    6a:ef:76:ac:3f:be:eb:bd:8a:56:50:8c:1f:0a:40:
                    ff:89:b8:39:de:0d:cb:e8:ee:b3:2f:f6:ba:f6:0b:
                    e1:1e:81:dc:7a:33:0c:20:8f:32:b0:e7:f5:ee:8c:
                    b5:37:80:65:5a:f5:a3:ea:fd:d0:13:93:89:29:b7:
                    72:f0:7b:c7:35:7d:12:6a:62:d2:7f:0c:90:34:00:
                    41:2a:b7:b0:5d:b2:b6:be:0a:99:c0:b6:c9:46:94:
                    4e:ed:cb:bf:4e:68:b6:ad:65:fc:c0:e3:52:85:43:
                    4a:82:70:c7:a5:6e:6d:2e:02:c5:46:ea:38:93:a1:
                    0f:3d
                Exponent: 65537 (0x10001)
        X509v3 extensions:
            X509v3 Basic Constraints: 
                CA:FALSE
            X509v3 Subject Key Identifier: 
                47:31:D1:9B:D8:6F:87:16:9F:95:94:4E:A7:28:C4:33:13:E8:EC:F2
            X509v3 Authority Key Identifier: 
                keyid:7B:0F:93:16:64:9F:71:41:D3:1B:FB:ED:6A:70:9B:CA:2E:70:F0:4B
                DirName:/C=US/ST=California/L=San Francisco/O=Copyleft Certificate Co/OU=My Organizational Unit/CN=ChangeMe/emailAddress=me@example.net
                serial:B9:F2:4E:2C:79:B3:D4:6C

            X509v3 Extended Key Usage: 
                TLS Web Client Authentication
            X509v3 Key Usage: 
                Digital Signature
    Signature Algorithm: sha256WithRSAEncryption
         72:21:71:a5:bb:fa:9a:fa:8e:b3:f9:24:69:42:93:90:17:7e:
         4e:87:00:b5:e8:b3:5a:41:f5:b7:36:1b:17:ad:7a:45:65:e2:
         01:a7:dd:7c:4c:d6:fe:df:c1:ea:33:2f:0c:5e:c7:68:8e:c1:
         1e:2a:d8:b3:98:1a:5b:2d:4e:16:c9:a5:78:a8:1c:86:2d:1a:
         72:9d:f3:5f:c8:9e:54:1f:27:eb:f7:53:ff:cf:13:a2:6b:60:
         20:1a:5e:93:9f:52:06:7f:ac:bd:a1:17:f4:14:01:a1:a9:3f:
         32:26:52:cc:d0:a0:47:c4:67:66:76:f1:96:53:b8:9d:34:d0:
         3a:3c:7c:e3:26:2b:a9:a2:87:db:47:b9:31:56:8d:a8:d6:6f:
         5c:3d:5f:85:b0:2b:ca:2b:88:db:97:8f:45:4a:96:c4:15:da:
         4f:7f:51:b9:db:3a:69:c0:7d:8f:db:45:98:ab:91:96:39:32:
         dd:f1:ab:ff:eb:7a:3b:9a:f7:bc:48:e8:7b:cf:e5:d0:9f:6b:
         99:2b:9f:14:12:36:d5:bf:59:af:73:6b:50:13:3a:c7:b1:4f:
         75:83:34:a9:57:15:65:31:88:35:58:65:01:69:1d:e1:60:1f:
         43:d0:71:fa:1e:ec:62:10:f2:c6:76:0c:3b:a8:b1:79:d1:ed:
         66:1e:1b:6d
-----BEGIN CERTIFICATE-----
MIIFLzCCBBegAwIBAgIRALXMg6aBdKOUxMCrQfmig84wDQYJKoZIhvcNAQELBQAw
ga8xCzAJBgNVBAYTAlVTMRMwEQYDVQQIDApDYWxpZm9ybmlhMRYwFAYDVQQHDA1T
YW4gRnJhbmNpc2NvMSAwHgYDVQQKDBdDb3B5bGVmdCBDZXJ0aWZpY2F0ZSBDbzEf
MB0GA1UECwwWTXkgT3JnYW5pemF0aW9uYWwgVW5pdDERMA8GA1UEAwwIQ2hhbmdl
TWUxHTAbBgkqhkiG9w0BCQEWDm1lQGV4YW1wbGUubmV0MB4XDTIzMTExMTAxNTgw
M1oXDTI0MTExMDAxNTgwM1owgboxCzAJBgNVBAYTAlVTMQswCQYDVQQIDAJPSDET
MBEGA1UEBwwKQ2luY2lubmF0aTEhMB8GA1UECgwYVW5pdmVyc2l0eSBvZiBDaW5j
aW5uYXRpMSowKAYDVQQLDCFEZXB0LiBFbGVjLiBDb21wLiBFbmcuIENvbXAuIFNj
aS4xEDAOBgNVBAMMB2NsaWVudDAxKDAmBgkqhkiG9w0BCQEWGWZyYW5jb0BnYXVz
cy5lY2Vjcy51Yy5lZHUwggEiMA0GCSqGSIb3DQEBAQUAA4IBDwAwggEKAoIBAQDE
FrlPKiw5fJebm+eHni/cGdWn7V1dlFDfAhGBzjD8q8WlgnyAtldMFU+adrRg7d0f
xE4Ej8ZrBYbQ7EaQ3knZU7TwPGe/VOXHCflErMqRGCOzO0jkjzqijHvOB7RZ+jcL
pLMwSHFmo5TTCu5TsGmGmGFi4rzC63KadWK8yL+pf4fyHox5b2rvdqw/vuu9ilZQ
jB8KQP+JuDneDcvo7rMv9rr2C+Eegdx6MwwgjzKw5/XujLU3gGVa9aPq/dATk4kp
t3Lwe8c1fRJqYtJ/DJA0AEEqt7Bdsra+CpnAtslGlE7ty79OaLatZfzA41KFQ0qC
cMelbm0uAsVG6jiToQ89AgMBAAGjggE3MIIBMzAJBgNVHRMEAjAAMB0GA1UdDgQW
BBRHMdGb2G+HFp+VlE6nKMQzE+js8jCB5AYDVR0jBIHcMIHZgBR7D5MWZJ9xQdMb
++1qcJvKLnDwS6GBtaSBsjCBrzELMAkGA1UEBhMCVVMxEzARBgNVBAgMCkNhbGlm
b3JuaWExFjAUBgNVBAcMDVNhbiBGcmFuY2lzY28xIDAeBgNVBAoMF0NvcHlsZWZ0
IENlcnRpZmljYXRlIENvMR8wHQYDVQQLDBZNeSBPcmdhbml6YXRpb25hbCBVbml0
MREwDwYDVQQDDAhDaGFuZ2VNZTEdMBsGCSqGSIb3DQEJARYObWVAZXhhbXBsZS5u
ZXSCCQC58k4sebPUbDATBgNVHSUEDDAKBggrBgEFBQcDAjALBgNVHQ8EBAMCB4Aw
DQYJKoZIhvcNAQELBQADggEBAHIhcaW7+pr6jrP5JGlCk5AXfk6HALXos1pB9bc2
GxetekVl4gGn3XxM1v7fweozLwxex2iOwR4q2LOYGlstThbJpXioHIYtGnKd81/I
nlQfJ+v3U//PE6JrYCAaXpOfUgZ/rL2hF/QUAaGpPzImUszQoEfEZ2Z28ZZTuJ00
0Do8fOMmK6mih9tHuTFWjajWb1w9X4WwK8oriNuXj0VKlsQV2k9/UbnbOmnAfY/b
RZirkZY5Mt3xq//rejua97xI6HvP5dCfa5krnxQSNtW/Wa9za1ATOsexT3WDNKlX
FWUxiDVYZQFpHeFgH0PQcfoe7GIQ8sZ2DDuosXnR7WYeG20=
-----END CERTIFICATE-----
