Certificate:
    Data:
        Version: 3 (0x2)
        Serial Number:
            14:8d:ad:da:cc:00:3c:bd:64:5f:20:c8:56:d3:37:83
    Signature Algorithm: sha256WithRSAEncryption
        Issuer: C=US, ST=California, L=San Francisco, O=Copyleft Certificate Co, OU=My Organizational Unit, CN=ChangeMe/emailAddress=me@example.net
        Validity
            Not Before: Nov 10 17:43:45 2023 GMT
            Not After : Nov  9 17:43:45 2024 GMT
        Subject: C=US, ST=OH, L=Cincinnati, O=University of Cincinnati, OU=Dept_Elec_Com_ Eng_Com_Sci., CN=client80/emailAddress=franco@gauss.ececs.uc.edu
        Subject Public Key Info:
            Public Key Algorithm: rsaEncryption
                Public-Key: (2048 bit)
                Modulus:
                    00:db:70:d2:dd:cc:c5:6b:d5:fd:06:ac:4b:a1:ee:
                    3e:86:61:f3:b8:57:70:d5:32:c6:6a:cb:1d:73:6e:
                    9a:7d:e1:d9:a6:b2:c1:76:5a:cb:f2:ab:93:4d:7a:
                    c0:a6:4a:f3:fc:a2:e3:96:82:eb:a7:d2:c8:8f:fc:
                    72:a9:df:96:ac:d5:9d:25:39:31:50:90:c6:2d:9a:
                    f9:7e:96:a0:62:86:5f:e4:fa:7a:a8:2e:5e:39:29:
                    8e:21:11:f0:25:77:c1:3f:94:0d:5e:e3:6d:27:30:
                    de:5e:1e:a0:03:41:07:b9:d4:de:bd:a9:f7:37:5e:
                    8b:80:b6:7e:1d:7d:08:02:a6:7b:df:bc:5c:89:4d:
                    cc:9b:7e:b3:21:29:a1:a6:e9:29:a3:79:10:ac:22:
                    db:ba:54:62:59:ac:69:2c:70:c5:50:5a:c8:a9:b6:
                    7d:1d:bd:ba:a2:2e:2e:e2:78:c3:d6:8b:24:c2:9e:
                    d2:f6:d2:03:7c:93:bf:5b:ec:fb:63:ae:d4:95:d1:
                    e5:62:f1:6f:4d:85:27:f0:10:58:b5:92:a5:91:03:
                    fd:4f:eb:86:f3:57:23:2d:96:a1:67:5b:8b:8d:09:
                    95:f0:e9:ed:16:79:f5:58:81:c1:c0:83:b2:44:a3:
                    47:4e:19:a0:18:aa:44:1f:74:77:ac:0d:6f:62:31:
                    13:c7
                Exponent: 65537 (0x10001)
        X509v3 extensions:
            X509v3 Basic Constraints: 
                CA:FALSE
            X509v3 Subject Key Identifier: 
                85:D6:19:9B:90:4E:DB:85:12:F0:4F:CB:76:F0:68:0D:A9:37:7E:E9
            X509v3 Authority Key Identifier: 
                keyid:C8:27:DA:64:30:08:40:08:4A:25:CC:DC:43:99:DE:77:A1:FE:77:BD
                DirName:/C=US/ST=California/L=San Francisco/O=Copyleft Certificate Co/OU=My Organizational Unit/CN=ChangeMe/emailAddress=me@example.net
                serial:A9:48:C3:7E:FC:1B:B0:A1

            X509v3 Extended Key Usage: 
                TLS Web Client Authentication
            X509v3 Key Usage: 
                Digital Signature
    Signature Algorithm: sha256WithRSAEncryption
         b9:a3:97:39:b5:35:0f:02:51:11:ac:b7:f5:41:b7:b0:24:10:
         01:b2:79:d8:ad:40:fa:13:5e:5e:04:d8:d9:e0:a5:5a:60:0e:
         0d:0c:f4:cd:96:5f:96:c0:5f:9c:08:6d:90:aa:bb:73:4c:a4:
         3f:53:67:94:15:2e:56:a7:73:e7:b9:b2:5a:d9:5f:a4:5f:05:
         07:aa:c2:f7:52:60:46:53:9f:d5:87:a6:cc:05:01:cc:f8:77:
         27:0d:d0:dc:25:23:21:33:c4:c9:12:52:23:ca:ae:33:aa:0a:
         ae:44:b8:26:b4:9e:49:b0:fc:db:91:ab:f7:59:e2:38:a5:dc:
         aa:e6:b8:46:c2:f9:a0:98:a7:84:f7:bf:3f:10:1f:10:95:6f:
         aa:26:bf:41:1b:ed:6e:bf:88:81:8e:b8:93:aa:12:54:fc:ab:
         0d:ab:06:6a:df:38:d3:82:b1:f5:d0:bc:61:1f:09:53:8d:3c:
         16:31:24:bb:b6:c9:d6:09:c1:c9:c2:4a:16:74:92:0f:b5:ac:
         f4:65:f9:c5:02:06:77:b8:93:d0:9b:7f:ef:5b:0c:1b:26:ba:
         1a:e6:f1:09:ad:53:73:1d:50:fb:3a:5f:a7:cc:5f:a0:14:d2:
         fb:24:80:ba:12:dc:8e:d1:aa:18:8d:e6:25:a6:b1:6b:6a:a8:
         69:88:19:e5
-----BEGIN CERTIFICATE-----
MIIFKTCCBBGgAwIBAgIQFI2t2swAPL1kXyDIVtM3gzANBgkqhkiG9w0BAQsFADCB
rzELMAkGA1UEBhMCVVMxEzARBgNVBAgMCkNhbGlmb3JuaWExFjAUBgNVBAcMDVNh
biBGcmFuY2lzY28xIDAeBgNVBAoMF0NvcHlsZWZ0IENlcnRpZmljYXRlIENvMR8w
HQYDVQQLDBZNeSBPcmdhbml6YXRpb25hbCBVbml0MREwDwYDVQQDDAhDaGFuZ2VN
ZTEdMBsGCSqGSIb3DQEJARYObWVAZXhhbXBsZS5uZXQwHhcNMjMxMTEwMTc0MzQ1
WhcNMjQxMTA5MTc0MzQ1WjCBtTELMAkGA1UEBhMCVVMxCzAJBgNVBAgMAk9IMRMw
EQYDVQQHDApDaW5jaW5uYXRpMSEwHwYDVQQKDBhVbml2ZXJzaXR5IG9mIENpbmNp
bm5hdGkxJDAiBgNVBAsMG0RlcHRfRWxlY19Db21fIEVuZ19Db21fU2NpLjERMA8G
A1UEAwwIY2xpZW50ODAxKDAmBgkqhkiG9w0BCQEWGWZyYW5jb0BnYXVzcy5lY2Vj
cy51Yy5lZHUwggEiMA0GCSqGSIb3DQEBAQUAA4IBDwAwggEKAoIBAQDbcNLdzMVr
1f0GrEuh7j6GYfO4V3DVMsZqyx1zbpp94dmmssF2Wsvyq5NNesCmSvP8ouOWguun
0siP/HKp35as1Z0lOTFQkMYtmvl+lqBihl/k+nqoLl45KY4hEfAld8E/lA1e420n
MN5eHqADQQe51N69qfc3XouAtn4dfQgCpnvfvFyJTcybfrMhKaGm6SmjeRCsItu6
VGJZrGkscMVQWsiptn0dvbqiLi7ieMPWiyTCntL20gN8k79b7PtjrtSV0eVi8W9N
hSfwEFi1kqWRA/1P64bzVyMtlqFnW4uNCZXw6e0WefVYgcHAg7JEo0dOGaAYqkQf
dHesDW9iMRPHAgMBAAGjggE3MIIBMzAJBgNVHRMEAjAAMB0GA1UdDgQWBBSF1hmb
kE7bhRLwT8t28GgNqTd+6TCB5AYDVR0jBIHcMIHZgBTIJ9pkMAhACEolzNxDmd53
of53vaGBtaSBsjCBrzELMAkGA1UEBhMCVVMxEzARBgNVBAgMCkNhbGlmb3JuaWEx
FjAUBgNVBAcMDVNhbiBGcmFuY2lzY28xIDAeBgNVBAoMF0NvcHlsZWZ0IENlcnRp
ZmljYXRlIENvMR8wHQYDVQQLDBZNeSBPcmdhbml6YXRpb25hbCBVbml0MREwDwYD
VQQDDAhDaGFuZ2VNZTEdMBsGCSqGSIb3DQEJARYObWVAZXhhbXBsZS5uZXSCCQCp
SMN+/BuwoTATBgNVHSUEDDAKBggrBgEFBQcDAjALBgNVHQ8EBAMCB4AwDQYJKoZI
hvcNAQELBQADggEBALmjlzm1NQ8CURGst/VBt7AkEAGyeditQPoTXl4E2NngpVpg
Dg0M9M2WX5bAX5wIbZCqu3NMpD9TZ5QVLlanc+e5slrZX6RfBQeqwvdSYEZTn9WH
pswFAcz4dycN0NwlIyEzxMkSUiPKrjOqCq5EuCa0nkmw/NuRq/dZ4jil3KrmuEbC
+aCYp4T3vz8QHxCVb6omv0Eb7W6/iIGOuJOqElT8qw2rBmrfONOCsfXQvGEfCVON
PBYxJLu2ydYJwcnCShZ0kg+1rPRl+cUCBne4k9Cbf+9bDBsmuhrm8QmtU3MdUPs6
X6fMX6AU0vskgLoS3I7RqhiN5iWmsWtqqGmIGeU=
-----END CERTIFICATE-----
