Certificate:
    Data:
        Version: 3 (0x2)
        Serial Number:
            8a:51:85:2d:11:e3:d0:6c:5b:4b:b6:4f:26:fc:0b:4f
    Signature Algorithm: sha256WithRSAEncryption
        Issuer: C=US, ST=California, L=San Francisco, O=Copyleft Certificate Co, OU=My Organizational Unit, CN=ChangeMe/emailAddress=me@example.net
        Validity
            Not Before: Nov 11 01:47:14 2023 GMT
            Not After : Nov 10 01:47:14 2024 GMT
        Subject: C=US, ST=OH, L=Cincinnati, O=University of Cincinnati, OU=Dept. Elec. Comp. Eng. Comp. Sci., CN=client113/emailAddress=franco@gauss.ececs.uc.edu
        Subject Public Key Info:
            Public Key Algorithm: rsaEncryption
                Public-Key: (2048 bit)
                Modulus:
                    00:c0:bc:51:a5:e4:ef:18:e6:ea:6a:6a:9b:b7:d7:
                    7f:9b:dd:55:90:09:a0:cb:dc:9a:ec:ea:4f:17:0f:
                    44:43:3f:e7:66:f6:9a:44:d7:69:ec:5d:44:9d:36:
                    ec:13:3d:88:e7:fb:71:c6:55:b6:99:6f:8b:46:d3:
                    9a:04:26:aa:6e:ed:28:ee:b0:0a:94:d7:da:81:15:
                    ab:fd:10:6b:bc:c4:dc:f3:60:20:12:44:06:f5:21:
                    be:f6:c4:69:86:61:0e:64:2e:83:94:63:4a:21:81:
                    ff:be:ee:c7:46:6c:ee:b0:cb:5f:bf:d9:0f:89:52:
                    4a:d1:11:5b:80:c5:18:17:e1:82:e1:34:52:2e:50:
                    34:97:a0:b1:fd:35:51:2f:62:a9:b8:12:f6:e5:4b:
                    e1:72:54:e6:41:d4:43:79:e6:e3:2f:1a:07:2c:f2:
                    31:ef:70:1f:3e:8f:d0:56:c4:8e:37:44:56:a7:f9:
                    ab:0c:c6:3a:97:40:10:34:8e:23:b5:66:ab:e9:c0:
                    61:8a:63:75:ad:b6:b9:bf:a1:b2:e9:f9:54:7f:09:
                    52:28:21:ec:53:76:ef:1a:e8:41:a8:ec:d9:8f:78:
                    28:ac:7d:86:0f:0b:7e:23:10:c9:6c:11:a9:ac:d5:
                    81:87:b8:6e:67:27:64:ae:a2:c4:0f:55:fe:54:62:
                    8e:63
                Exponent: 65537 (0x10001)
        X509v3 extensions:
            X509v3 Basic Constraints: 
                CA:FALSE
            X509v3 Subject Key Identifier: 
                48:AB:83:DF:EA:AF:98:D7:91:8F:65:5C:8B:D0:7C:9A:FB:C6:00:7D
            X509v3 Authority Key Identifier: 
                keyid:73:DE:A0:43:0F:AE:B1:9E:E8:59:69:18:50:A1:1A:1F:D4:A1:E3:F0
                DirName:/C=US/ST=California/L=San Francisco/O=Copyleft Certificate Co/OU=My Organizational Unit/CN=ChangeMe/emailAddress=me@example.net
                serial:E9:BB:CB:16:C5:32:BE:3B

            X509v3 Extended Key Usage: 
                TLS Web Client Authentication
            X509v3 Key Usage: 
                Digital Signature
    Signature Algorithm: sha256WithRSAEncryption
         5f:1e:d1:f5:b9:b1:63:98:36:f3:4c:a4:4a:d5:e4:fe:a2:b8:
         52:82:ec:b1:fe:47:e1:4b:c9:2b:05:6b:ad:79:6c:71:97:f8:
         ed:5a:a1:62:9e:0d:08:3a:2f:c7:a6:90:39:19:27:91:75:ed:
         22:2d:fb:89:46:a9:f1:86:a3:3f:76:bd:c6:d9:5a:94:b1:c9:
         e2:1d:94:ba:35:c4:bd:b2:af:e9:75:9d:b6:a1:ae:57:0d:db:
         81:d1:68:57:84:47:8b:e9:a9:cf:a7:d0:5c:4b:d4:c1:28:f8:
         1c:bf:e5:74:4a:7f:34:0c:d6:26:6d:98:ac:aa:e6:2c:95:af:
         50:60:c1:58:b8:76:00:27:4f:a6:16:53:ee:cf:a1:31:0e:ec:
         a6:73:95:26:4f:4d:c4:2a:b4:df:b9:c2:22:f8:26:06:bf:11:
         e7:5a:17:00:62:d5:3b:95:fa:78:da:51:c9:be:cb:b1:bc:1a:
         c4:a5:f3:ac:2c:f0:dd:56:33:f2:ba:8d:ee:12:99:2d:9c:d0:
         38:69:f1:a6:89:f7:60:94:dc:53:30:0c:9a:5c:7b:f6:7a:df:
         49:ca:14:6f:20:2b:f1:14:39:40:ce:d8:f9:60:76:b4:13:c5:
         31:ea:d3:18:85:df:9f:62:ef:7c:6b:6c:91:eb:30:c0:e9:60:
         54:09:73:50
-----BEGIN CERTIFICATE-----
MIIFMTCCBBmgAwIBAgIRAIpRhS0R49BsW0u2Tyb8C08wDQYJKoZIhvcNAQELBQAw
ga8xCzAJBgNVBAYTAlVTMRMwEQYDVQQIDApDYWxpZm9ybmlhMRYwFAYDVQQHDA1T
YW4gRnJhbmNpc2NvMSAwHgYDVQQKDBdDb3B5bGVmdCBDZXJ0aWZpY2F0ZSBDbzEf
MB0GA1UECwwWTXkgT3JnYW5pemF0aW9uYWwgVW5pdDERMA8GA1UEAwwIQ2hhbmdl
TWUxHTAbBgkqhkiG9w0BCQEWDm1lQGV4YW1wbGUubmV0MB4XDTIzMTExMTAxNDcx
NFoXDTI0MTExMDAxNDcxNFowgbwxCzAJBgNVBAYTAlVTMQswCQYDVQQIDAJPSDET
MBEGA1UEBwwKQ2luY2lubmF0aTEhMB8GA1UECgwYVW5pdmVyc2l0eSBvZiBDaW5j
aW5uYXRpMSowKAYDVQQLDCFEZXB0LiBFbGVjLiBDb21wLiBFbmcuIENvbXAuIFNj
aS4xEjAQBgNVBAMMCWNsaWVudDExMzEoMCYGCSqGSIb3DQEJARYZZnJhbmNvQGdh
dXNzLmVjZWNzLnVjLmVkdTCCASIwDQYJKoZIhvcNAQEBBQADggEPADCCAQoCggEB
AMC8UaXk7xjm6mpqm7fXf5vdVZAJoMvcmuzqTxcPREM/52b2mkTXaexdRJ027BM9
iOf7ccZVtplvi0bTmgQmqm7tKO6wCpTX2oEVq/0Qa7zE3PNgIBJEBvUhvvbEaYZh
DmQug5RjSiGB/77ux0Zs7rDLX7/ZD4lSStERW4DFGBfhguE0Ui5QNJegsf01US9i
qbgS9uVL4XJU5kHUQ3nm4y8aByzyMe9wHz6P0FbEjjdEVqf5qwzGOpdAEDSOI7Vm
q+nAYYpjda22ub+hsun5VH8JUigh7FN27xroQajs2Y94KKx9hg8LfiMQyWwRqazV
gYe4bmcnZK6ixA9V/lRijmMCAwEAAaOCATcwggEzMAkGA1UdEwQCMAAwHQYDVR0O
BBYEFEirg9/qr5jXkY9lXIvQfJr7xgB9MIHkBgNVHSMEgdwwgdmAFHPeoEMPrrGe
6FlpGFChGh/UoePwoYG1pIGyMIGvMQswCQYDVQQGEwJVUzETMBEGA1UECAwKQ2Fs
aWZvcm5pYTEWMBQGA1UEBwwNU2FuIEZyYW5jaXNjbzEgMB4GA1UECgwXQ29weWxl
ZnQgQ2VydGlmaWNhdGUgQ28xHzAdBgNVBAsMFk15IE9yZ2FuaXphdGlvbmFsIFVu
aXQxETAPBgNVBAMMCENoYW5nZU1lMR0wGwYJKoZIhvcNAQkBFg5tZUBleGFtcGxl
Lm5ldIIJAOm7yxbFMr47MBMGA1UdJQQMMAoGCCsGAQUFBwMCMAsGA1UdDwQEAwIH
gDANBgkqhkiG9w0BAQsFAAOCAQEAXx7R9bmxY5g280ykStXk/qK4UoLssf5H4UvJ
KwVrrXlscZf47VqhYp4NCDovx6aQORknkXXtIi37iUap8YajP3a9xtlalLHJ4h2U
ujXEvbKv6XWdtqGuVw3bgdFoV4RHi+mpz6fQXEvUwSj4HL/ldEp/NAzWJm2YrKrm
LJWvUGDBWLh2ACdPphZT7s+hMQ7spnOVJk9NxCq037nCIvgmBr8R51oXAGLVO5X6
eNpRyb7LsbwaxKXzrCzw3VYz8rqN7hKZLZzQOGnxpon3YJTcUzAMmlx79nrfScoU
byAr8RQ5QM7Y+WB2tBPFMerTGIXfn2LvfGtskeswwOlgVAlzUA==
-----END CERTIFICATE-----
