Certificate:
    Data:
        Version: 3 (0x2)
        Serial Number:
            0f:fa:c1:79:5f:f7:4e:64:8e:7b:0b:9d:40:1b:ec:03
    Signature Algorithm: sha256WithRSAEncryption
        Issuer: C=US, ST=California, L=San Francisco, O=Copyleft Certificate Co, OU=My Organizational Unit, CN=ChangeMe/emailAddress=me@example.net
        Validity
            Not Before: Nov 11 01:44:22 2023 GMT
            Not After : Nov 10 01:44:22 2024 GMT
        Subject: C=US, ST=OH, L=Cincinnati, O=University of Cincinnati, OU=Dept. Elec. Comp. Eng. Comp. Sci., CN=client70/emailAddress=franco@gauss.ececs.uc.edu
        Subject Public Key Info:
            Public Key Algorithm: rsaEncryption
                Public-Key: (2048 bit)
                Modulus:
                    00:a7:1c:d0:bf:24:b8:65:0f:8b:a4:a1:38:a7:d7:
                    fd:1d:7f:5e:a3:f9:44:14:ba:ff:7d:2e:30:ea:2a:
                    ba:9c:f4:db:ec:ff:f5:51:eb:07:79:5f:ec:13:3a:
                    62:7e:7c:57:96:55:ec:53:b5:4c:5f:b5:23:7d:12:
                    ae:6e:1c:7d:70:e9:32:b5:d2:64:84:ed:78:ca:84:
                    6a:9c:8d:49:5f:ab:e4:97:e3:0a:e2:b7:0d:5b:51:
                    49:ca:da:e4:20:7c:47:56:5a:5a:31:e2:c5:b3:66:
                    8b:58:83:5b:f3:53:2f:6c:bc:db:ef:ad:d0:aa:56:
                    a8:37:81:67:69:87:2f:2b:8d:92:83:f5:20:c0:b1:
                    d5:8b:12:80:3b:b3:db:ab:80:af:a7:10:a9:d6:c0:
                    63:b1:f8:de:a8:eb:b9:c4:a4:1a:ce:82:2d:bf:db:
                    e6:dd:d1:ab:25:e0:5c:93:fb:df:48:27:8d:5b:a0:
                    9e:c3:dc:70:f7:03:f0:f7:c6:87:1a:6b:99:fe:c4:
                    36:57:65:3c:e0:81:7a:c7:ed:ba:fd:5d:7f:dd:fd:
                    1d:48:be:f3:97:72:75:63:43:e9:01:4a:83:e4:09:
                    2a:b0:e8:3a:b9:bd:ab:f4:c1:20:99:2e:fa:a1:d8:
                    9c:ce:ac:10:f5:8d:d4:05:37:58:65:28:b4:df:b2:
                    e8:f9
                Exponent: 65537 (0x10001)
        X509v3 extensions:
            X509v3 Basic Constraints: 
                CA:FALSE
            X509v3 Subject Key Identifier: 
                EA:01:50:57:2C:37:45:06:62:FC:DA:5C:F1:8D:36:18:B3:9F:EF:C8
            X509v3 Authority Key Identifier: 
                keyid:73:DE:A0:43:0F:AE:B1:9E:E8:59:69:18:50:A1:1A:1F:D4:A1:E3:F0
                DirName:/C=US/ST=California/L=San Francisco/O=Copyleft Certificate Co/OU=My Organizational Unit/CN=ChangeMe/emailAddress=me@example.net
                serial:E9:BB:CB:16:C5:32:BE:3B

            X509v3 Extended Key Usage: 
                TLS Web Client Authentication
            X509v3 Key Usage: 
                Digital Signature
    Signature Algorithm: sha256WithRSAEncryption
         5e:8a:e9:76:90:ac:ca:a9:1a:f0:07:3f:99:fa:e1:92:0b:65:
         31:6e:93:16:72:a3:30:04:d9:21:41:5a:2a:e5:ce:18:0e:12:
         0d:2b:b6:5e:41:42:95:f0:72:93:a1:df:b1:72:fc:f9:70:7b:
         86:19:40:93:d2:65:85:58:e2:43:bd:9e:72:49:1a:40:6a:26:
         cb:ba:04:57:b7:ce:41:9a:a8:08:5b:51:1d:4a:47:a0:ec:eb:
         96:a1:82:db:39:99:2e:02:3d:0f:fe:e7:6c:19:db:3c:d4:fd:
         69:23:5e:62:4d:74:6d:1c:6c:b9:01:04:1d:d4:be:20:a1:22:
         12:79:44:a9:02:3f:77:96:e1:13:02:d8:f4:a0:46:61:8d:b9:
         44:38:ea:c1:2d:46:f0:28:b2:8e:66:f3:d0:0d:f7:69:3a:68:
         e1:b5:3a:c5:fa:8c:99:ae:25:12:ca:67:d6:0a:1b:5f:76:e9:
         0e:4f:b3:07:c5:89:4f:6d:0b:45:1e:e6:ac:e0:d2:75:79:eb:
         cc:e2:f2:99:e7:12:ac:46:ff:2d:3b:7f:03:55:ff:b7:ee:c4:
         a0:64:c4:97:99:67:b9:3b:e1:e9:63:e0:c6:df:41:26:62:29:
         cb:2b:d3:4d:68:44:1b:86:bf:91:98:8a:70:05:e6:93:2d:39:
         d1:cf:a0:7c
-----BEGIN CERTIFICATE-----
MIIFLzCCBBegAwIBAgIQD/rBeV/3TmSOewudQBvsAzANBgkqhkiG9w0BAQsFADCB
rzELMAkGA1UEBhMCVVMxEzARBgNVBAgMCkNhbGlmb3JuaWExFjAUBgNVBAcMDVNh
biBGcmFuY2lzY28xIDAeBgNVBAoMF0NvcHlsZWZ0IENlcnRpZmljYXRlIENvMR8w
HQYDVQQLDBZNeSBPcmdhbml6YXRpb25hbCBVbml0MREwDwYDVQQDDAhDaGFuZ2VN
ZTEdMBsGCSqGSIb3DQEJARYObWVAZXhhbXBsZS5uZXQwHhcNMjMxMTExMDE0NDIy
WhcNMjQxMTEwMDE0NDIyWjCBuzELMAkGA1UEBhMCVVMxCzAJBgNVBAgMAk9IMRMw
EQYDVQQHDApDaW5jaW5uYXRpMSEwHwYDVQQKDBhVbml2ZXJzaXR5IG9mIENpbmNp
bm5hdGkxKjAoBgNVBAsMIURlcHQuIEVsZWMuIENvbXAuIEVuZy4gQ29tcC4gU2Np
LjERMA8GA1UEAwwIY2xpZW50NzAxKDAmBgkqhkiG9w0BCQEWGWZyYW5jb0BnYXVz
cy5lY2Vjcy51Yy5lZHUwggEiMA0GCSqGSIb3DQEBAQUAA4IBDwAwggEKAoIBAQCn
HNC/JLhlD4ukoTin1/0df16j+UQUuv99LjDqKrqc9Nvs//VR6wd5X+wTOmJ+fFeW
VexTtUxftSN9Eq5uHH1w6TK10mSE7XjKhGqcjUlfq+SX4writw1bUUnK2uQgfEdW
Wlox4sWzZotYg1vzUy9svNvvrdCqVqg3gWdphy8rjZKD9SDAsdWLEoA7s9urgK+n
EKnWwGOx+N6o67nEpBrOgi2/2+bd0asl4FyT+99IJ41boJ7D3HD3A/D3xocaa5n+
xDZXZTzggXrH7br9XX/d/R1IvvOXcnVjQ+kBSoPkCSqw6Dq5vav0wSCZLvqh2JzO
rBD1jdQFN1hlKLTfsuj5AgMBAAGjggE3MIIBMzAJBgNVHRMEAjAAMB0GA1UdDgQW
BBTqAVBXLDdFBmL82lzxjTYYs5/vyDCB5AYDVR0jBIHcMIHZgBRz3qBDD66xnuhZ
aRhQoRof1KHj8KGBtaSBsjCBrzELMAkGA1UEBhMCVVMxEzARBgNVBAgMCkNhbGlm
b3JuaWExFjAUBgNVBAcMDVNhbiBGcmFuY2lzY28xIDAeBgNVBAoMF0NvcHlsZWZ0
IENlcnRpZmljYXRlIENvMR8wHQYDVQQLDBZNeSBPcmdhbml6YXRpb25hbCBVbml0
MREwDwYDVQQDDAhDaGFuZ2VNZTEdMBsGCSqGSIb3DQEJARYObWVAZXhhbXBsZS5u
ZXSCCQDpu8sWxTK+OzATBgNVHSUEDDAKBggrBgEFBQcDAjALBgNVHQ8EBAMCB4Aw
DQYJKoZIhvcNAQELBQADggEBAF6K6XaQrMqpGvAHP5n64ZILZTFukxZyozAE2SFB
WirlzhgOEg0rtl5BQpXwcpOh37Fy/Plwe4YZQJPSZYVY4kO9nnJJGkBqJsu6BFe3
zkGaqAhbUR1KR6Ds65ahgts5mS4CPQ/+52wZ2zzU/WkjXmJNdG0cbLkBBB3UviCh
IhJ5RKkCP3eW4RMC2PSgRmGNuUQ46sEtRvAoso5m89AN92k6aOG1OsX6jJmuJRLK
Z9YKG1926Q5PswfFiU9tC0Ue5qzg0nV568zi8pnnEqxG/y07fwNV/7fuxKBkxJeZ
Z7k74elj4MbfQSZiKcsr001oRBuGv5GYinAF5pMtOdHPoHw=
-----END CERTIFICATE-----
