Certificate:
    Data:
        Version: 3 (0x2)
        Serial Number:
            a7:3e:37:33:8d:f2:bb:fb:e5:e3:50:65:c0:19:b2:0d
    Signature Algorithm: sha256WithRSAEncryption
        Issuer: C=US, ST=California, L=San Francisco, O=Copyleft Certificate Co, OU=My Organizational Unit, CN=ChangeMe/emailAddress=me@example.net
        Validity
            Not Before: Nov 10 17:45:34 2023 GMT
            Not After : Nov  9 17:45:34 2024 GMT
        Subject: C=US, ST=OH, L=Cincinnati, O=University of Cincinnati, OU=Dept_Elec_Com_ Eng_Com_Sci., CN=client107/emailAddress=franco@gauss.ececs.uc.edu
        Subject Public Key Info:
            Public Key Algorithm: rsaEncryption
                Public-Key: (2048 bit)
                Modulus:
                    00:c3:3d:3c:f9:73:5b:5d:cf:be:b9:77:69:46:ab:
                    2e:d1:21:d8:82:09:57:d0:cc:a8:f5:2a:cb:4f:7f:
                    4c:f8:00:2d:57:57:04:5f:86:7a:51:f2:17:05:24:
                    cf:a0:e6:41:6c:45:b6:21:12:73:2d:eb:80:b8:53:
                    c6:9b:7a:4c:8a:7e:6d:ca:ba:10:f8:af:58:d3:a7:
                    1a:65:43:0d:57:f1:d7:20:d0:d1:2a:92:43:60:d5:
                    13:af:ff:f2:6e:e5:9b:7f:f3:d0:79:9a:d9:65:a1:
                    40:49:eb:a7:5e:8a:f5:d4:c0:3c:26:01:a5:88:37:
                    07:53:88:f9:71:d9:95:23:2d:dd:2f:0e:14:1b:9b:
                    c6:3c:01:c5:45:07:8b:45:f2:62:ea:9c:19:54:29:
                    96:db:b0:6d:ba:42:a3:ce:33:98:f5:00:ac:20:f8:
                    6e:f8:93:c4:37:4b:13:26:4d:c2:c0:5e:a7:26:13:
                    2d:90:9d:da:41:93:b0:8a:18:bc:ed:5c:b6:aa:ef:
                    3b:77:44:4e:95:57:e4:08:aa:aa:c4:4a:f5:37:0e:
                    7b:de:5b:0a:a1:57:60:4d:21:b0:f2:cd:a0:48:1d:
                    a1:7e:69:2c:c3:fe:f9:bf:dd:64:0d:21:56:cd:8d:
                    3d:c5:5e:b3:cc:82:fe:8a:f6:ed:b2:9d:27:53:01:
                    c4:1b
                Exponent: 65537 (0x10001)
        X509v3 extensions:
            X509v3 Basic Constraints: 
                CA:FALSE
            X509v3 Subject Key Identifier: 
                DC:04:B6:43:79:D8:95:8B:95:BA:8A:46:2F:C3:53:11:9D:81:00:21
            X509v3 Authority Key Identifier: 
                keyid:C8:27:DA:64:30:08:40:08:4A:25:CC:DC:43:99:DE:77:A1:FE:77:BD
                DirName:/C=US/ST=California/L=San Francisco/O=Copyleft Certificate Co/OU=My Organizational Unit/CN=ChangeMe/emailAddress=me@example.net
                serial:A9:48:C3:7E:FC:1B:B0:A1

            X509v3 Extended Key Usage: 
                TLS Web Client Authentication
            X509v3 Key Usage: 
                Digital Signature
    Signature Algorithm: sha256WithRSAEncryption
         77:18:a0:9e:6e:95:e8:4b:b4:d6:b6:cd:2e:b8:4f:07:32:8b:
         d2:3f:8f:d8:15:a7:27:c8:e5:dd:a0:b9:d6:f1:cc:d4:1f:e2:
         66:04:f9:bf:c2:e1:d2:e2:84:8c:51:bf:e0:0f:47:3f:10:82:
         5c:9c:c7:e9:8e:32:92:20:40:d0:b8:f3:cc:ab:c9:f4:94:db:
         2e:2b:c0:0b:9b:fc:8d:0a:5d:c7:7f:20:a6:23:c5:58:c7:91:
         97:23:28:09:f5:21:39:46:bf:28:02:b5:47:24:9c:f6:ac:b9:
         f7:47:40:5a:a6:bb:42:57:28:e3:2a:03:7a:8b:02:66:d6:cd:
         3e:57:12:dc:3a:6a:04:63:ff:35:02:cd:01:54:33:e9:18:3e:
         3e:49:d2:b7:12:f2:50:54:09:d6:5e:90:77:59:55:80:e7:52:
         a5:6a:26:b1:42:ed:5f:52:46:18:c2:d4:ad:1e:36:55:d3:a6:
         24:e2:57:92:8e:62:7d:03:5f:00:3b:11:28:36:3c:ce:98:df:
         e0:7e:18:35:7c:d5:f7:12:2d:9b:b3:b5:74:9c:d5:96:2f:7a:
         98:b3:ea:85:30:6b:66:8f:96:2b:e7:00:a9:d6:9f:da:13:1e:
         26:37:07:48:f7:2f:f4:54:72:e7:07:78:ea:6c:8d:65:56:52:
         f8:7b:c0:69
-----BEGIN CERTIFICATE-----
MIIFKzCCBBOgAwIBAgIRAKc+NzON8rv75eNQZcAZsg0wDQYJKoZIhvcNAQELBQAw
ga8xCzAJBgNVBAYTAlVTMRMwEQYDVQQIDApDYWxpZm9ybmlhMRYwFAYDVQQHDA1T
YW4gRnJhbmNpc2NvMSAwHgYDVQQKDBdDb3B5bGVmdCBDZXJ0aWZpY2F0ZSBDbzEf
MB0GA1UECwwWTXkgT3JnYW5pemF0aW9uYWwgVW5pdDERMA8GA1UEAwwIQ2hhbmdl
TWUxHTAbBgkqhkiG9w0BCQEWDm1lQGV4YW1wbGUubmV0MB4XDTIzMTExMDE3NDUz
NFoXDTI0MTEwOTE3NDUzNFowgbYxCzAJBgNVBAYTAlVTMQswCQYDVQQIDAJPSDET
MBEGA1UEBwwKQ2luY2lubmF0aTEhMB8GA1UECgwYVW5pdmVyc2l0eSBvZiBDaW5j
aW5uYXRpMSQwIgYDVQQLDBtEZXB0X0VsZWNfQ29tXyBFbmdfQ29tX1NjaS4xEjAQ
BgNVBAMMCWNsaWVudDEwNzEoMCYGCSqGSIb3DQEJARYZZnJhbmNvQGdhdXNzLmVj
ZWNzLnVjLmVkdTCCASIwDQYJKoZIhvcNAQEBBQADggEPADCCAQoCggEBAMM9PPlz
W13Pvrl3aUarLtEh2IIJV9DMqPUqy09/TPgALVdXBF+GelHyFwUkz6DmQWxFtiES
cy3rgLhTxpt6TIp+bcq6EPivWNOnGmVDDVfx1yDQ0SqSQ2DVE6//8m7lm3/z0Hma
2WWhQEnrp16K9dTAPCYBpYg3B1OI+XHZlSMt3S8OFBubxjwBxUUHi0XyYuqcGVQp
ltuwbbpCo84zmPUArCD4bviTxDdLEyZNwsBepyYTLZCd2kGTsIoYvO1ctqrvO3dE
TpVX5AiqqsRK9TcOe95bCqFXYE0hsPLNoEgdoX5pLMP++b/dZA0hVs2NPcVes8yC
/or27bKdJ1MBxBsCAwEAAaOCATcwggEzMAkGA1UdEwQCMAAwHQYDVR0OBBYEFNwE
tkN52JWLlbqKRi/DUxGdgQAhMIHkBgNVHSMEgdwwgdmAFMgn2mQwCEAISiXM3EOZ
3neh/ne9oYG1pIGyMIGvMQswCQYDVQQGEwJVUzETMBEGA1UECAwKQ2FsaWZvcm5p
YTEWMBQGA1UEBwwNU2FuIEZyYW5jaXNjbzEgMB4GA1UECgwXQ29weWxlZnQgQ2Vy
dGlmaWNhdGUgQ28xHzAdBgNVBAsMFk15IE9yZ2FuaXphdGlvbmFsIFVuaXQxETAP
BgNVBAMMCENoYW5nZU1lMR0wGwYJKoZIhvcNAQkBFg5tZUBleGFtcGxlLm5ldIIJ
AKlIw378G7ChMBMGA1UdJQQMMAoGCCsGAQUFBwMCMAsGA1UdDwQEAwIHgDANBgkq
hkiG9w0BAQsFAAOCAQEAdxignm6V6Eu01rbNLrhPBzKL0j+P2BWnJ8jl3aC51vHM
1B/iZgT5v8Lh0uKEjFG/4A9HPxCCXJzH6Y4ykiBA0LjzzKvJ9JTbLivAC5v8jQpd
x38gpiPFWMeRlyMoCfUhOUa/KAK1RySc9qy590dAWqa7Qlco4yoDeosCZtbNPlcS
3DpqBGP/NQLNAVQz6Rg+PknStxLyUFQJ1l6Qd1lVgOdSpWomsULtX1JGGMLUrR42
VdOmJOJXko5ifQNfADsRKDY8zpjf4H4YNXzV9xItm7O1dJzVli96mLPqhTBrZo+W
K+cAqdaf2hMeJjcHSPcv9FRy5wd46myNZVZS+HvAaQ==
-----END CERTIFICATE-----
