Certificate:
    Data:
        Version: 3 (0x2)
        Serial Number:
            96:1c:f3:1c:b6:6a:b1:56:1a:f7:8e:37:47:7a:99:8d
    Signature Algorithm: sha256WithRSAEncryption
        Issuer: C=US, ST=California, L=San Francisco, O=Copyleft Certificate Co, OU=My Organizational Unit, CN=ChangeMe/emailAddress=me@example.net
        Validity
            Not Before: Nov 10 17:43:17 2023 GMT
            Not After : Nov  9 17:43:17 2024 GMT
        Subject: C=US, ST=OH, L=Cincinnati, O=University of Cincinnati, OU=Dept_Elec_Com_ Eng_Com_Sci., CN=client73/emailAddress=franco@gauss.ececs.uc.edu
        Subject Public Key Info:
            Public Key Algorithm: rsaEncryption
                Public-Key: (2048 bit)
                Modulus:
                    00:a2:00:e4:f3:45:10:75:c5:e5:f9:fe:af:fe:7a:
                    af:92:82:38:e9:3b:07:e9:1d:cc:80:6a:09:08:f4:
                    8e:4a:fd:62:ef:df:5d:e0:b5:8a:3b:58:df:aa:11:
                    86:46:5a:73:63:a6:01:68:07:03:10:a4:36:f9:18:
                    da:1d:52:a6:3f:e9:ae:6c:4f:a6:9b:d1:89:cc:5e:
                    ed:33:69:e0:09:c0:81:dd:25:b1:f1:c3:f9:bf:f6:
                    90:55:2d:49:67:00:88:e3:36:43:26:15:fc:f4:e4:
                    cf:fc:d8:d1:34:68:f8:1c:43:dc:d0:6a:4e:4b:03:
                    9c:3e:05:1f:06:8f:b3:51:ed:dc:c4:31:55:9d:da:
                    4a:49:ca:aa:e8:78:50:ac:98:5b:39:52:bc:39:d0:
                    7a:00:7e:2c:30:b4:2d:84:a6:bf:96:8f:24:55:e8:
                    f5:23:c5:9d:e1:3d:f1:e2:c7:53:ca:87:be:d6:ad:
                    52:71:d4:f2:e1:d4:63:50:6f:c9:dd:a5:cc:9c:c3:
                    00:35:67:0e:a6:04:c0:4c:9f:26:ca:d5:37:87:89:
                    41:70:04:8e:20:23:b8:8e:b1:06:cb:15:05:9b:61:
                    d1:d8:da:36:a9:26:c5:dc:84:2b:3c:7b:3a:8e:41:
                    4c:e3:1f:70:64:15:13:ad:1e:ad:6b:4f:f6:ba:a6:
                    df:5b
                Exponent: 65537 (0x10001)
        X509v3 extensions:
            X509v3 Basic Constraints: 
                CA:FALSE
            X509v3 Subject Key Identifier: 
                6B:11:96:5A:35:B4:D1:B6:70:A8:0D:CF:4A:9B:B8:4D:0A:47:2D:22
            X509v3 Authority Key Identifier: 
                keyid:C8:27:DA:64:30:08:40:08:4A:25:CC:DC:43:99:DE:77:A1:FE:77:BD
                DirName:/C=US/ST=California/L=San Francisco/O=Copyleft Certificate Co/OU=My Organizational Unit/CN=ChangeMe/emailAddress=me@example.net
                serial:A9:48:C3:7E:FC:1B:B0:A1

            X509v3 Extended Key Usage: 
                TLS Web Client Authentication
            X509v3 Key Usage: 
                Digital Signature
    Signature Algorithm: sha256WithRSAEncryption
         6f:f7:d7:3d:00:ea:0c:39:1d:90:fb:74:b0:90:ed:ba:8d:8f:
         da:6b:08:3d:0a:f5:23:2d:e2:82:b2:4b:c7:e9:eb:dc:0f:48:
         89:c8:a6:be:b8:58:90:6c:ab:62:c9:a3:04:a7:44:4f:74:c8:
         76:e6:02:bd:43:f1:39:59:2b:3a:22:41:be:9b:67:f6:de:8d:
         9f:69:7f:45:0d:b9:34:7e:77:41:bb:6d:8c:11:9c:5c:b5:2e:
         da:4b:8b:3b:40:d9:4b:89:a0:53:8a:44:af:d5:f4:dd:4d:0e:
         8b:c9:9d:ef:f6:02:38:38:ad:6d:6f:89:d5:2c:b4:a3:a5:30:
         36:a6:99:3b:4e:77:f3:96:a6:25:2d:19:b0:e0:a7:3a:7f:23:
         82:83:92:e6:29:6b:07:5d:53:ae:ca:e7:5e:1f:a5:49:a6:79:
         de:e8:52:8a:5e:d3:85:f5:39:a5:3b:24:e5:66:81:07:c9:1b:
         be:83:e2:9e:52:b5:7f:d7:a5:4a:0d:47:dd:a9:fb:92:bc:a0:
         c6:47:a0:dd:22:0b:37:ed:68:9f:c9:40:4b:af:3e:2b:ac:bb:
         4c:c9:7b:52:ed:60:94:7f:e8:c7:05:8b:a8:1a:7f:e5:5b:25:
         e6:db:76:4d:05:c5:31:2a:84:4b:60:16:7e:2d:fd:a5:22:bf:
         c2:43:7f:a4
-----BEGIN CERTIFICATE-----
MIIFKjCCBBKgAwIBAgIRAJYc8xy2arFWGveON0d6mY0wDQYJKoZIhvcNAQELBQAw
ga8xCzAJBgNVBAYTAlVTMRMwEQYDVQQIDApDYWxpZm9ybmlhMRYwFAYDVQQHDA1T
YW4gRnJhbmNpc2NvMSAwHgYDVQQKDBdDb3B5bGVmdCBDZXJ0aWZpY2F0ZSBDbzEf
MB0GA1UECwwWTXkgT3JnYW5pemF0aW9uYWwgVW5pdDERMA8GA1UEAwwIQ2hhbmdl
TWUxHTAbBgkqhkiG9w0BCQEWDm1lQGV4YW1wbGUubmV0MB4XDTIzMTExMDE3NDMx
N1oXDTI0MTEwOTE3NDMxN1owgbUxCzAJBgNVBAYTAlVTMQswCQYDVQQIDAJPSDET
MBEGA1UEBwwKQ2luY2lubmF0aTEhMB8GA1UECgwYVW5pdmVyc2l0eSBvZiBDaW5j
aW5uYXRpMSQwIgYDVQQLDBtEZXB0X0VsZWNfQ29tXyBFbmdfQ29tX1NjaS4xETAP
BgNVBAMMCGNsaWVudDczMSgwJgYJKoZIhvcNAQkBFhlmcmFuY29AZ2F1c3MuZWNl
Y3MudWMuZWR1MIIBIjANBgkqhkiG9w0BAQEFAAOCAQ8AMIIBCgKCAQEAogDk80UQ
dcXl+f6v/nqvkoI46TsH6R3MgGoJCPSOSv1i799d4LWKO1jfqhGGRlpzY6YBaAcD
EKQ2+RjaHVKmP+mubE+mm9GJzF7tM2ngCcCB3SWx8cP5v/aQVS1JZwCI4zZDJhX8
9OTP/NjRNGj4HEPc0GpOSwOcPgUfBo+zUe3cxDFVndpKScqq6HhQrJhbOVK8OdB6
AH4sMLQthKa/lo8kVej1I8Wd4T3x4sdTyoe+1q1ScdTy4dRjUG/J3aXMnMMANWcO
pgTATJ8mytU3h4lBcASOICO4jrEGyxUFm2HR2No2qSbF3IQrPHs6jkFM4x9wZBUT
rR6ta0/2uqbfWwIDAQABo4IBNzCCATMwCQYDVR0TBAIwADAdBgNVHQ4EFgQUaxGW
WjW00bZwqA3PSpu4TQpHLSIwgeQGA1UdIwSB3DCB2YAUyCfaZDAIQAhKJczcQ5ne
d6H+d72hgbWkgbIwga8xCzAJBgNVBAYTAlVTMRMwEQYDVQQIDApDYWxpZm9ybmlh
MRYwFAYDVQQHDA1TYW4gRnJhbmNpc2NvMSAwHgYDVQQKDBdDb3B5bGVmdCBDZXJ0
aWZpY2F0ZSBDbzEfMB0GA1UECwwWTXkgT3JnYW5pemF0aW9uYWwgVW5pdDERMA8G
A1UEAwwIQ2hhbmdlTWUxHTAbBgkqhkiG9w0BCQEWDm1lQGV4YW1wbGUubmV0ggkA
qUjDfvwbsKEwEwYDVR0lBAwwCgYIKwYBBQUHAwIwCwYDVR0PBAQDAgeAMA0GCSqG
SIb3DQEBCwUAA4IBAQBv99c9AOoMOR2Q+3SwkO26jY/aawg9CvUjLeKCskvH6evc
D0iJyKa+uFiQbKtiyaMEp0RPdMh25gK9Q/E5WSs6IkG+m2f23o2faX9FDbk0fndB
u22MEZxctS7aS4s7QNlLiaBTikSv1fTdTQ6LyZ3v9gI4OK1tb4nVLLSjpTA2ppk7
TnfzlqYlLRmw4Kc6fyOCg5LmKWsHXVOuyudeH6VJpnne6FKKXtOF9TmlOyTlZoEH
yRu+g+KeUrV/16VKDUfdqfuSvKDGR6DdIgs37WifyUBLrz4rrLtMyXtS7WCUf+jH
BYuoGn/lWyXm23ZNBcUxKoRLYBZ+Lf2lIr/CQ3+k
-----END CERTIFICATE-----
