Certificate:
    Data:
        Version: 3 (0x2)
        Serial Number:
            15:72:6a:bc:d0:1c:10:b9:dd:ca:7d:6e:25:35:64:db
    Signature Algorithm: sha256WithRSAEncryption
        Issuer: C=US, ST=California, L=San Francisco, O=Copyleft Certificate Co, OU=My Organizational Unit, CN=ChangeMe/emailAddress=me@example.net
        Validity
            Not Before: Jan 23 18:28:32 2021 GMT
            Not After : Jan 23 18:28:32 2022 GMT
        Subject: C=US, ST=OH, L=Cincinnati, O=University of Cincinnati, OU=Dept. Electrical Eng. and Computer Sci., CN=client53/emailAddress=franco@gauss.ececs.uc.edu
        Subject Public Key Info:
            Public Key Algorithm: rsaEncryption
                Public-Key: (2048 bit)
                Modulus:
                    00:ee:a2:28:12:3b:05:bc:21:8d:84:2c:c4:f9:44:
                    9d:a0:43:97:4e:52:d3:21:de:93:ed:b7:02:26:d6:
                    55:40:d9:bd:0a:5a:bf:ff:8a:70:7c:95:9c:d0:e3:
                    90:ea:5a:72:1d:5a:be:ba:2a:93:65:4c:be:1f:68:
                    2a:ed:d4:53:2e:be:d8:8f:61:e7:8a:5b:02:4c:9c:
                    9c:c3:93:0a:75:9d:c6:68:3c:dd:bb:7c:d3:8b:41:
                    b6:89:1c:d1:37:51:bc:77:7e:d0:09:51:3a:37:ca:
                    01:1e:d8:d5:88:6c:b0:3e:e2:3f:22:1f:8d:f3:37:
                    87:60:b3:ee:a2:73:1f:9b:e5:ce:05:29:65:0b:dd:
                    bc:d0:01:91:8f:81:51:2b:58:8c:98:e4:03:5b:02:
                    95:2a:b8:44:a7:d9:4c:48:b4:b1:9f:66:d6:93:c9:
                    b2:16:c0:ad:29:c8:66:66:2e:e5:df:a7:82:2e:77:
                    9e:4f:8c:c6:7f:dd:8a:28:15:39:1b:27:db:b5:ba:
                    e2:4b:4d:19:7c:12:ab:f1:c0:0b:51:43:ae:42:f7:
                    0d:1c:82:87:73:3d:f3:68:ba:af:c2:f1:1b:0a:26:
                    18:cc:12:24:f3:ca:60:de:aa:7a:13:52:99:ff:e4:
                    02:07:3d:7a:07:2f:f3:ae:5b:c1:40:2d:d4:2b:eb:
                    d5:cb
                Exponent: 65537 (0x10001)
        X509v3 extensions:
            X509v3 Basic Constraints: 
                CA:FALSE
            X509v3 Subject Key Identifier: 
                60:79:91:5C:CA:57:53:23:97:67:16:46:7C:B4:38:8B:1A:9B:DF:0B
            X509v3 Authority Key Identifier: 
                keyid:EF:DC:B6:3D:4B:FD:A7:87:05:C5:22:3D:8B:DC:BF:99:2A:EE:E4:DB
                DirName:/C=US/ST=California/L=San Francisco/O=Copyleft Certificate Co/OU=My Organizational Unit/CN=ChangeMe/emailAddress=me@example.net
                serial:87:1E:1D:DC:6B:8C:66:88

            X509v3 Extended Key Usage: 
                TLS Web Client Authentication
            X509v3 Key Usage: 
                Digital Signature
    Signature Algorithm: sha256WithRSAEncryption
         b5:1f:e4:c0:1e:4a:b4:1f:9e:47:28:b3:d4:72:9a:15:43:95:
         f6:ab:b8:8b:7b:5d:7d:2e:37:5a:c6:96:e9:0a:fc:b6:5c:f0:
         3a:99:bc:e4:c6:2d:70:76:50:d7:ce:f9:36:1a:2f:aa:06:00:
         e5:f0:d1:32:2d:85:6d:42:72:44:20:54:4e:da:86:c7:ef:2a:
         11:39:3e:3b:62:a4:94:a2:39:f4:d8:00:cb:94:b4:45:c7:ab:
         11:b2:a6:8b:25:b7:00:b0:cf:26:de:1d:a6:ba:ce:fd:21:e4:
         90:c8:f8:a6:d1:e7:54:e9:fe:6f:5b:79:eb:31:3b:60:15:fd:
         57:8b:60:f4:0a:4c:fb:de:81:6f:d1:15:bd:cb:a8:22:25:66:
         70:aa:73:89:3b:c8:a0:31:d1:04:92:0c:bc:fc:5b:34:c8:93:
         06:f5:9b:eb:f8:e1:75:ab:15:5f:f3:18:d5:e3:fc:be:04:54:
         55:56:1a:32:82:f5:96:b1:78:3c:a7:ce:e6:8a:a7:31:4c:f1:
         c3:a3:1a:7f:ed:c3:77:8e:cb:93:08:7b:d3:f1:d3:a9:a3:b7:
         2b:97:6b:1a:88:d7:8c:6a:e3:16:9c:a4:0a:80:e8:2e:66:6f:
         67:01:f1:ae:f2:e1:66:c1:39:e1:61:5f:05:4b:30:0b:41:54:
         55:f4:45:c3
-----BEGIN CERTIFICATE-----
MIIFNTCCBB2gAwIBAgIQFXJqvNAcELndyn1uJTVk2zANBgkqhkiG9w0BAQsFADCB
rzELMAkGA1UEBhMCVVMxEzARBgNVBAgMCkNhbGlmb3JuaWExFjAUBgNVBAcMDVNh
biBGcmFuY2lzY28xIDAeBgNVBAoMF0NvcHlsZWZ0IENlcnRpZmljYXRlIENvMR8w
HQYDVQQLDBZNeSBPcmdhbml6YXRpb25hbCBVbml0MREwDwYDVQQDDAhDaGFuZ2VN
ZTEdMBsGCSqGSIb3DQEJARYObWVAZXhhbXBsZS5uZXQwHhcNMjEwMTIzMTgyODMy
WhcNMjIwMTIzMTgyODMyWjCBwTELMAkGA1UEBhMCVVMxCzAJBgNVBAgMAk9IMRMw
EQYDVQQHDApDaW5jaW5uYXRpMSEwHwYDVQQKDBhVbml2ZXJzaXR5IG9mIENpbmNp
bm5hdGkxMDAuBgNVBAsMJ0RlcHQuIEVsZWN0cmljYWwgRW5nLiBhbmQgQ29tcHV0
ZXIgU2NpLjERMA8GA1UEAwwIY2xpZW50NTMxKDAmBgkqhkiG9w0BCQEWGWZyYW5j
b0BnYXVzcy5lY2Vjcy51Yy5lZHUwggEiMA0GCSqGSIb3DQEBAQUAA4IBDwAwggEK
AoIBAQDuoigSOwW8IY2ELMT5RJ2gQ5dOUtMh3pPttwIm1lVA2b0KWr//inB8lZzQ
45DqWnIdWr66KpNlTL4faCrt1FMuvtiPYeeKWwJMnJzDkwp1ncZoPN27fNOLQbaJ
HNE3Ubx3ftAJUTo3ygEe2NWIbLA+4j8iH43zN4dgs+6icx+b5c4FKWUL3bzQAZGP
gVErWIyY5ANbApUquESn2UxItLGfZtaTybIWwK0pyGZmLuXfp4Iud55PjMZ/3Yoo
FTkbJ9u1uuJLTRl8EqvxwAtRQ65C9w0cgodzPfNouq/C8RsKJhjMEiTzymDeqnoT
Upn/5AIHPXoHL/OuW8FALdQr69XLAgMBAAGjggE3MIIBMzAJBgNVHRMEAjAAMB0G
A1UdDgQWBBRgeZFcyldTI5dnFkZ8tDiLGpvfCzCB5AYDVR0jBIHcMIHZgBTv3LY9
S/2nhwXFIj2L3L+ZKu7k26GBtaSBsjCBrzELMAkGA1UEBhMCVVMxEzARBgNVBAgM
CkNhbGlmb3JuaWExFjAUBgNVBAcMDVNhbiBGcmFuY2lzY28xIDAeBgNVBAoMF0Nv
cHlsZWZ0IENlcnRpZmljYXRlIENvMR8wHQYDVQQLDBZNeSBPcmdhbml6YXRpb25h
bCBVbml0MREwDwYDVQQDDAhDaGFuZ2VNZTEdMBsGCSqGSIb3DQEJARYObWVAZXhh
bXBsZS5uZXSCCQCHHh3ca4xmiDATBgNVHSUEDDAKBggrBgEFBQcDAjALBgNVHQ8E
BAMCB4AwDQYJKoZIhvcNAQELBQADggEBALUf5MAeSrQfnkcos9RymhVDlfaruIt7
XX0uN1rGlukK/LZc8DqZvOTGLXB2UNfO+TYaL6oGAOXw0TIthW1CckQgVE7ahsfv
KhE5PjtipJSiOfTYAMuUtEXHqxGyposltwCwzybeHaa6zv0h5JDI+KbR51Tp/m9b
eesxO2AV/VeLYPQKTPvegW/RFb3LqCIlZnCqc4k7yKAx0QSSDLz8WzTIkwb1m+v4
4XWrFV/zGNXj/L4EVFVWGjKC9ZaxeDynzuaKpzFM8cOjGn/tw3eOy5MIe9Px06mj
tyuXaxqI14xq4xacpAqA6C5mb2cB8a7y4WbBOeFhXwVLMAtBVFX0RcM=
-----END CERTIFICATE-----
