Certificate:
    Data:
        Version: 3 (0x2)
        Serial Number:
            0a:91:19:f3:eb:9c:e0:16:8d:1f:56:ab:88:60:a9:92
    Signature Algorithm: sha256WithRSAEncryption
        Issuer: C=US, ST=California, L=San Francisco, O=Copyleft Certificate Co, OU=My Organizational Unit, CN=ChangeMe/emailAddress=me@example.net
        Validity
            Not Before: Nov 11 01:46:02 2023 GMT
            Not After : Nov 10 01:46:02 2024 GMT
        Subject: C=US, ST=OH, L=Cincinnati, O=University of Cincinnati, OU=Dept. Elec. Comp. Eng. Comp. Sci., CN=client95/emailAddress=franco@gauss.ececs.uc.edu
        Subject Public Key Info:
            Public Key Algorithm: rsaEncryption
                Public-Key: (2048 bit)
                Modulus:
                    00:de:be:3f:44:ad:e7:fb:21:fb:42:91:dc:76:39:
                    6f:84:db:f4:fd:ac:37:3c:06:b4:e4:c9:95:19:26:
                    ad:64:aa:d0:bf:99:6c:fd:e8:91:48:6a:40:ff:8c:
                    2c:e7:73:1e:25:d7:75:35:cf:5d:79:30:f5:14:2e:
                    c6:f3:cb:3e:1e:29:3e:56:e0:1e:b2:9a:b6:a5:e8:
                    3d:b1:a4:2c:bc:21:72:10:fc:94:fa:65:b6:12:84:
                    bd:0a:21:09:56:ab:9e:cb:38:00:5c:26:d2:8d:d3:
                    67:5b:3f:93:23:a7:d0:8a:b6:f5:34:3a:bb:25:ec:
                    c1:7a:a4:25:07:ee:0f:75:ea:c0:bb:7f:3f:ba:a8:
                    1a:06:53:01:06:4d:df:36:32:77:32:93:1f:dd:75:
                    0e:61:f9:03:33:6d:99:9a:ee:38:3f:cc:16:1f:82:
                    19:d8:aa:3f:ab:e7:d3:87:fa:2e:15:c8:aa:d1:de:
                    27:7c:76:f3:53:20:86:92:26:38:71:c2:e7:bd:01:
                    13:59:c6:62:0f:b4:e2:24:ea:45:1e:63:af:14:04:
                    af:d5:7d:0a:de:5d:cc:18:55:04:98:2c:b3:3c:b1:
                    95:95:df:f4:92:a4:aa:32:e9:82:c7:8c:43:27:3d:
                    77:a7:ea:56:f6:53:da:4d:1a:92:9c:13:63:8f:7b:
                    5e:e3
                Exponent: 65537 (0x10001)
        X509v3 extensions:
            X509v3 Basic Constraints: 
                CA:FALSE
            X509v3 Subject Key Identifier: 
                EC:BB:7C:89:BF:32:85:EB:41:A2:34:A6:77:5E:EA:D7:CA:B6:C0:D8
            X509v3 Authority Key Identifier: 
                keyid:73:DE:A0:43:0F:AE:B1:9E:E8:59:69:18:50:A1:1A:1F:D4:A1:E3:F0
                DirName:/C=US/ST=California/L=San Francisco/O=Copyleft Certificate Co/OU=My Organizational Unit/CN=ChangeMe/emailAddress=me@example.net
                serial:E9:BB:CB:16:C5:32:BE:3B

            X509v3 Extended Key Usage: 
                TLS Web Client Authentication
            X509v3 Key Usage: 
                Digital Signature
    Signature Algorithm: sha256WithRSAEncryption
         61:c6:14:cc:db:a2:55:5d:c9:61:87:a2:b8:5f:64:8c:1b:12:
         70:84:c8:c1:30:6f:dc:09:ea:05:17:ed:34:65:ff:c9:3b:05:
         d9:a6:bf:af:a3:e3:e5:69:e5:73:7c:70:40:0b:dd:91:6c:46:
         6f:0f:43:e7:af:60:29:33:a2:7a:05:94:12:1d:6c:92:97:20:
         e8:e7:4e:ae:0d:96:44:2c:54:7b:d8:df:68:a0:56:33:d4:90:
         48:54:d7:14:5e:c3:3b:69:c5:08:24:b7:47:f5:c3:75:63:cd:
         70:ae:92:48:aa:46:10:a1:e4:9c:5c:ef:c2:44:c6:fe:c4:80:
         e6:86:ee:3c:de:fd:c6:9b:d0:52:64:88:86:44:c3:ba:c9:18:
         16:aa:f1:ee:7b:da:f0:82:f3:f8:b8:34:9e:92:19:7c:8a:9b:
         cf:12:8e:60:34:16:13:3c:0d:75:c1:8a:00:86:ba:32:73:b5:
         a0:f9:88:7d:ba:14:ee:b8:64:71:8f:76:a9:5b:cc:ad:ae:eb:
         1b:4c:21:18:32:fc:dd:80:2c:00:d7:48:4b:de:70:ea:ba:6e:
         16:3c:b0:62:10:0e:e2:88:d8:9e:22:32:45:09:d3:64:f3:1d:
         96:e8:9c:2a:bd:5a:75:1f:13:77:0d:c3:4c:fa:a9:23:aa:22:
         66:89:e3:e8
-----BEGIN CERTIFICATE-----
MIIFLzCCBBegAwIBAgIQCpEZ8+uc4BaNH1ariGCpkjANBgkqhkiG9w0BAQsFADCB
rzELMAkGA1UEBhMCVVMxEzARBgNVBAgMCkNhbGlmb3JuaWExFjAUBgNVBAcMDVNh
biBGcmFuY2lzY28xIDAeBgNVBAoMF0NvcHlsZWZ0IENlcnRpZmljYXRlIENvMR8w
HQYDVQQLDBZNeSBPcmdhbml6YXRpb25hbCBVbml0MREwDwYDVQQDDAhDaGFuZ2VN
ZTEdMBsGCSqGSIb3DQEJARYObWVAZXhhbXBsZS5uZXQwHhcNMjMxMTExMDE0NjAy
WhcNMjQxMTEwMDE0NjAyWjCBuzELMAkGA1UEBhMCVVMxCzAJBgNVBAgMAk9IMRMw
EQYDVQQHDApDaW5jaW5uYXRpMSEwHwYDVQQKDBhVbml2ZXJzaXR5IG9mIENpbmNp
bm5hdGkxKjAoBgNVBAsMIURlcHQuIEVsZWMuIENvbXAuIEVuZy4gQ29tcC4gU2Np
LjERMA8GA1UEAwwIY2xpZW50OTUxKDAmBgkqhkiG9w0BCQEWGWZyYW5jb0BnYXVz
cy5lY2Vjcy51Yy5lZHUwggEiMA0GCSqGSIb3DQEBAQUAA4IBDwAwggEKAoIBAQDe
vj9Eref7IftCkdx2OW+E2/T9rDc8BrTkyZUZJq1kqtC/mWz96JFIakD/jCzncx4l
13U1z115MPUULsbzyz4eKT5W4B6ymral6D2xpCy8IXIQ/JT6ZbYShL0KIQlWq57L
OABcJtKN02dbP5Mjp9CKtvU0Orsl7MF6pCUH7g916sC7fz+6qBoGUwEGTd82Mncy
kx/ddQ5h+QMzbZma7jg/zBYfghnYqj+r59OH+i4VyKrR3id8dvNTIIaSJjhxwue9
ARNZxmIPtOIk6kUeY68UBK/VfQreXcwYVQSYLLM8sZWV3/SSpKoy6YLHjEMnPXen
6lb2U9pNGpKcE2OPe17jAgMBAAGjggE3MIIBMzAJBgNVHRMEAjAAMB0GA1UdDgQW
BBTsu3yJvzKF60GiNKZ3XurXyrbA2DCB5AYDVR0jBIHcMIHZgBRz3qBDD66xnuhZ
aRhQoRof1KHj8KGBtaSBsjCBrzELMAkGA1UEBhMCVVMxEzARBgNVBAgMCkNhbGlm
b3JuaWExFjAUBgNVBAcMDVNhbiBGcmFuY2lzY28xIDAeBgNVBAoMF0NvcHlsZWZ0
IENlcnRpZmljYXRlIENvMR8wHQYDVQQLDBZNeSBPcmdhbml6YXRpb25hbCBVbml0
MREwDwYDVQQDDAhDaGFuZ2VNZTEdMBsGCSqGSIb3DQEJARYObWVAZXhhbXBsZS5u
ZXSCCQDpu8sWxTK+OzATBgNVHSUEDDAKBggrBgEFBQcDAjALBgNVHQ8EBAMCB4Aw
DQYJKoZIhvcNAQELBQADggEBAGHGFMzbolVdyWGHorhfZIwbEnCEyMEwb9wJ6gUX
7TRl/8k7Bdmmv6+j4+Vp5XN8cEAL3ZFsRm8PQ+evYCkzonoFlBIdbJKXIOjnTq4N
lkQsVHvY32igVjPUkEhU1xRewztpxQgkt0f1w3VjzXCukkiqRhCh5Jxc78JExv7E
gOaG7jze/cab0FJkiIZEw7rJGBaq8e572vCC8/i4NJ6SGXyKm88SjmA0FhM8DXXB
igCGujJztaD5iH26FO64ZHGPdqlbzK2u6xtMIRgy/N2ALADXSEvecOq6bhY8sGIQ
DuKI2J4iMkUJ02TzHZbonCq9WnUfE3cNw0z6qSOqImaJ4+g=
-----END CERTIFICATE-----
