Certificate:
    Data:
        Version: 3 (0x2)
        Serial Number:
            0b:70:4c:e9:97:e0:6e:7d:f2:43:5d:08:da:12:5a:69
    Signature Algorithm: sha256WithRSAEncryption
        Issuer: C=US, ST=California, L=San Francisco, O=Copyleft Certificate Co, OU=My Organizational Unit, CN=ChangeMe/emailAddress=me@example.net
        Validity
            Not Before: Nov 11 01:43:17 2023 GMT
            Not After : Nov 10 01:43:17 2024 GMT
        Subject: C=US, ST=OH, L=Cincinnati, O=University of Cincinnati, OU=Dept. Elec. Comp. Eng. Comp. Sci., CN=client54/emailAddress=franco@gauss.ececs.uc.edu
        Subject Public Key Info:
            Public Key Algorithm: rsaEncryption
                Public-Key: (2048 bit)
                Modulus:
                    00:d1:5e:c0:4b:74:2d:ac:3f:3c:88:f4:78:c1:a9:
                    80:45:28:0e:7c:72:5d:9a:68:40:94:a9:6d:a5:46:
                    0a:eb:2e:dc:af:1d:be:20:7b:38:3d:94:1c:7e:b3:
                    94:70:8b:5a:e0:96:0e:6d:a6:4e:51:e1:64:23:c1:
                    be:5b:95:f8:ab:e6:bf:3d:fa:d8:f7:3b:72:f4:cb:
                    33:f2:f6:b5:9d:17:e3:e1:8e:fa:4b:68:0d:6b:07:
                    6c:05:8f:7c:39:c3:b4:72:c4:15:c5:2e:93:91:bf:
                    f0:38:dc:d1:a6:b3:d9:f1:7a:48:4e:54:c2:d7:60:
                    51:30:5b:f8:69:42:d3:df:b7:4c:c9:76:2f:24:c0:
                    45:9c:ff:6b:ad:3f:fa:04:ea:72:f8:75:b6:f6:69:
                    91:23:61:c7:e9:3f:64:d4:49:48:07:6f:9e:b0:bf:
                    7a:93:26:d0:c3:3f:89:87:bd:40:65:56:ab:66:de:
                    67:0a:99:b7:92:32:d9:45:85:bc:87:fb:5f:4d:ff:
                    a9:e4:3f:75:b7:f1:0c:36:df:b2:f0:b8:15:7a:c2:
                    b4:1b:f0:94:18:98:61:e1:04:82:30:f1:ce:16:7c:
                    e5:c7:2a:f6:dd:43:d2:b4:04:20:11:74:69:4e:d7:
                    55:7e:c3:f6:4c:d3:e7:1f:21:98:5b:a4:58:5b:18:
                    3b:55
                Exponent: 65537 (0x10001)
        X509v3 extensions:
            X509v3 Basic Constraints: 
                CA:FALSE
            X509v3 Subject Key Identifier: 
                0E:8E:78:05:6C:09:09:7B:04:2E:80:9B:80:5A:4D:F1:85:74:29:E2
            X509v3 Authority Key Identifier: 
                keyid:73:DE:A0:43:0F:AE:B1:9E:E8:59:69:18:50:A1:1A:1F:D4:A1:E3:F0
                DirName:/C=US/ST=California/L=San Francisco/O=Copyleft Certificate Co/OU=My Organizational Unit/CN=ChangeMe/emailAddress=me@example.net
                serial:E9:BB:CB:16:C5:32:BE:3B

            X509v3 Extended Key Usage: 
                TLS Web Client Authentication
            X509v3 Key Usage: 
                Digital Signature
    Signature Algorithm: sha256WithRSAEncryption
         23:eb:02:09:9a:90:b7:09:0b:a3:dd:be:0b:fb:43:05:c2:81:
         7d:3e:f8:7c:b1:48:a0:75:b4:38:71:1b:c1:fb:e5:25:38:44:
         22:c0:54:e2:78:6d:51:d8:06:e2:a4:69:fb:b3:7e:85:76:cf:
         4a:f8:c8:74:13:ff:42:ac:e1:13:95:14:9d:17:3b:a7:57:d2:
         86:8c:0a:b3:5e:b2:6b:d5:23:a7:c4:36:9c:2d:5b:56:f4:70:
         7d:cc:5f:5b:2b:a3:ae:78:a0:26:79:d2:38:c0:c6:33:6a:6b:
         41:4f:2a:19:0e:54:9e:b9:e7:fd:bf:c0:9b:0a:20:76:e8:89:
         fa:2f:da:a3:34:bf:79:8e:72:3c:4e:4e:da:d7:56:12:3c:1e:
         d6:2c:ab:24:bf:23:f8:42:52:a7:76:f2:e1:03:ef:9c:5f:0a:
         63:7b:72:94:42:a2:f9:95:51:4e:a6:ff:f8:ae:df:94:60:36:
         6d:f1:c4:cf:19:41:43:30:a6:7b:2f:c5:8d:5d:3e:41:6a:a4:
         84:2e:60:c8:d6:bb:a8:6f:50:c4:14:eb:36:36:f3:29:94:fe:
         9c:55:69:bc:9b:20:07:56:05:81:2f:ce:c4:7b:3a:5a:77:0f:
         0a:ca:44:ee:4a:69:ed:b0:5c:84:b2:3b:f5:47:bd:84:06:3c:
         8f:42:e3:05
-----BEGIN CERTIFICATE-----
MIIFLzCCBBegAwIBAgIQC3BM6Zfgbn3yQ10I2hJaaTANBgkqhkiG9w0BAQsFADCB
rzELMAkGA1UEBhMCVVMxEzARBgNVBAgMCkNhbGlmb3JuaWExFjAUBgNVBAcMDVNh
biBGcmFuY2lzY28xIDAeBgNVBAoMF0NvcHlsZWZ0IENlcnRpZmljYXRlIENvMR8w
HQYDVQQLDBZNeSBPcmdhbml6YXRpb25hbCBVbml0MREwDwYDVQQDDAhDaGFuZ2VN
ZTEdMBsGCSqGSIb3DQEJARYObWVAZXhhbXBsZS5uZXQwHhcNMjMxMTExMDE0MzE3
WhcNMjQxMTEwMDE0MzE3WjCBuzELMAkGA1UEBhMCVVMxCzAJBgNVBAgMAk9IMRMw
EQYDVQQHDApDaW5jaW5uYXRpMSEwHwYDVQQKDBhVbml2ZXJzaXR5IG9mIENpbmNp
bm5hdGkxKjAoBgNVBAsMIURlcHQuIEVsZWMuIENvbXAuIEVuZy4gQ29tcC4gU2Np
LjERMA8GA1UEAwwIY2xpZW50NTQxKDAmBgkqhkiG9w0BCQEWGWZyYW5jb0BnYXVz
cy5lY2Vjcy51Yy5lZHUwggEiMA0GCSqGSIb3DQEBAQUAA4IBDwAwggEKAoIBAQDR
XsBLdC2sPzyI9HjBqYBFKA58cl2aaECUqW2lRgrrLtyvHb4gezg9lBx+s5Rwi1rg
lg5tpk5R4WQjwb5blfir5r89+tj3O3L0yzPy9rWdF+PhjvpLaA1rB2wFj3w5w7Ry
xBXFLpORv/A43NGms9nxekhOVMLXYFEwW/hpQtPft0zJdi8kwEWc/2utP/oE6nL4
dbb2aZEjYcfpP2TUSUgHb56wv3qTJtDDP4mHvUBlVqtm3mcKmbeSMtlFhbyH+19N
/6nkP3W38Qw237LwuBV6wrQb8JQYmGHhBIIw8c4WfOXHKvbdQ9K0BCARdGlO11V+
w/ZM0+cfIZhbpFhbGDtVAgMBAAGjggE3MIIBMzAJBgNVHRMEAjAAMB0GA1UdDgQW
BBQOjngFbAkJewQugJuAWk3xhXQp4jCB5AYDVR0jBIHcMIHZgBRz3qBDD66xnuhZ
aRhQoRof1KHj8KGBtaSBsjCBrzELMAkGA1UEBhMCVVMxEzARBgNVBAgMCkNhbGlm
b3JuaWExFjAUBgNVBAcMDVNhbiBGcmFuY2lzY28xIDAeBgNVBAoMF0NvcHlsZWZ0
IENlcnRpZmljYXRlIENvMR8wHQYDVQQLDBZNeSBPcmdhbml6YXRpb25hbCBVbml0
MREwDwYDVQQDDAhDaGFuZ2VNZTEdMBsGCSqGSIb3DQEJARYObWVAZXhhbXBsZS5u
ZXSCCQDpu8sWxTK+OzATBgNVHSUEDDAKBggrBgEFBQcDAjALBgNVHQ8EBAMCB4Aw
DQYJKoZIhvcNAQELBQADggEBACPrAgmakLcJC6Pdvgv7QwXCgX0++HyxSKB1tDhx
G8H75SU4RCLAVOJ4bVHYBuKkafuzfoV2z0r4yHQT/0Ks4ROVFJ0XO6dX0oaMCrNe
smvVI6fENpwtW1b0cH3MX1sro654oCZ50jjAxjNqa0FPKhkOVJ655/2/wJsKIHbo
ifov2qM0v3mOcjxOTtrXVhI8HtYsqyS/I/hCUqd28uED75xfCmN7cpRCovmVUU6m
//iu35RgNm3xxM8ZQUMwpnsvxY1dPkFqpIQuYMjWu6hvUMQU6zY28ymU/pxVabyb
IAdWBYEvzsR7Olp3DwrKRO5Kae2wXISyO/VHvYQGPI9C4wU=
-----END CERTIFICATE-----
