Certificate:
    Data:
        Version: 3 (0x2)
        Serial Number:
            20:31:d7:6e:65:4d:11:2f:e7:b5:96:89:8f:a5:38:e4
    Signature Algorithm: sha256WithRSAEncryption
        Issuer: C=US, ST=California, L=San Francisco, O=Copyleft Certificate Co, OU=My Organizational Unit, CN=ChangeMe/emailAddress=me@example.net
        Validity
            Not Before: Nov 11 10:58:04 2023 GMT
            Not After : Nov 10 10:58:04 2024 GMT
        Subject: C=US, ST=OH, L=Cincinnati, O=University of Cincinnati, OU=Dept. Elec. Comp. Eng. Comp. Sci., CN=client42/emailAddress=franco@gauss.ececs.uc.edu
        Subject Public Key Info:
            Public Key Algorithm: rsaEncryption
                Public-Key: (2048 bit)
                Modulus:
                    00:c4:d3:cb:af:2b:47:8a:16:6a:96:f2:07:f4:85:
                    bb:b8:df:c8:71:83:5e:87:65:d5:44:ef:b6:2d:e2:
                    ef:cf:a4:4b:5e:d6:71:2c:ac:9f:25:b0:54:f8:bd:
                    31:25:12:50:5b:53:48:8e:1b:8c:6c:ba:88:20:c6:
                    46:18:2e:95:e1:32:c7:d2:16:df:a3:e3:81:a0:59:
                    20:0b:c2:f8:5b:fb:28:09:e1:90:69:c9:f0:c5:39:
                    6f:4b:d9:d1:27:e8:4f:51:af:c5:21:08:f9:ea:f8:
                    5d:31:82:fc:8f:4f:59:37:cd:9a:17:2e:5d:a2:3b:
                    5a:bb:91:6e:97:ca:8e:b5:89:0f:22:ad:9a:bf:7b:
                    c7:d9:38:f8:3c:21:51:18:5f:4a:58:c8:dc:e5:66:
                    22:e1:e7:1c:71:47:81:ce:c3:9c:5d:f7:f9:ea:1f:
                    4d:90:a5:21:4e:b4:bd:fb:e8:d3:27:b2:9b:ce:48:
                    a7:d9:16:22:26:e9:03:ba:d8:5f:bc:9b:1b:1a:3c:
                    d5:89:e5:ec:91:4b:8f:9b:d2:25:39:2e:e7:c5:93:
                    f9:25:b3:13:fd:6b:96:56:90:35:ab:10:90:ba:e2:
                    cc:78:c5:cd:a5:d1:cd:2a:a5:48:2c:17:68:4e:49:
                    23:83:f0:b7:27:a3:07:ff:74:fa:dc:c6:29:1a:bd:
                    7e:cb
                Exponent: 65537 (0x10001)
        X509v3 extensions:
            X509v3 Basic Constraints: 
                CA:FALSE
            X509v3 Subject Key Identifier: 
                9C:E9:D1:96:1B:F3:C2:2E:2A:C6:6C:90:B9:D5:41:46:37:C4:46:C1
            X509v3 Authority Key Identifier: 
                keyid:44:01:CC:06:0B:41:75:CB:C8:FB:C9:37:86:2D:9D:D2:D8:79:B6:8B
                DirName:/C=US/ST=California/L=San Francisco/O=Copyleft Certificate Co/OU=My Organizational Unit/CN=ChangeMe/emailAddress=me@example.net
                serial:AF:E8:E0:DD:C5:8B:0E:DD

            X509v3 Extended Key Usage: 
                TLS Web Client Authentication
            X509v3 Key Usage: 
                Digital Signature
    Signature Algorithm: sha256WithRSAEncryption
         a0:8a:8e:49:63:99:aa:35:73:26:2d:7e:ce:da:91:01:97:d1:
         de:9b:bb:97:1b:2a:ec:8d:53:b4:4e:2b:08:ba:77:3e:05:9b:
         53:2a:aa:b9:45:a3:4b:7a:4c:f1:0e:06:a3:dc:b6:2d:27:20:
         93:06:ee:be:89:0b:d3:61:a4:f7:2b:ce:e3:a3:6b:12:8d:e4:
         97:1f:31:f7:f4:e7:c7:fb:95:8d:8a:27:3c:97:54:0f:3e:ec:
         b4:f9:81:3e:b5:52:2f:4d:f8:33:34:d2:d5:c6:07:db:e2:d5:
         84:13:eb:f2:c1:9e:c4:f9:bc:2e:49:b6:70:6b:73:9c:e6:79:
         59:51:fe:99:ad:13:8f:f3:db:53:8f:f1:ed:d8:08:81:7d:17:
         54:43:e3:18:9c:99:c6:dc:42:ac:2d:54:6a:84:34:45:ec:3f:
         13:d0:8a:ab:59:59:43:f0:b3:8a:25:8d:d3:1b:01:c6:8c:e6:
         e2:d9:c0:f5:2a:fc:1e:32:c1:c9:34:de:b8:20:70:19:42:0e:
         6a:9d:2f:2c:36:5e:5d:fc:c4:e0:34:92:9c:40:46:d4:33:cb:
         e5:5f:bd:03:a7:ae:0a:75:f1:5a:0c:b7:c0:65:70:50:42:a5:
         5c:d9:1b:65:8f:99:ce:48:31:65:95:6b:c5:79:f4:aa:4d:73:
         27:81:4b:0b
-----BEGIN CERTIFICATE-----
MIIFLzCCBBegAwIBAgIQIDHXbmVNES/ntZaJj6U45DANBgkqhkiG9w0BAQsFADCB
rzELMAkGA1UEBhMCVVMxEzARBgNVBAgMCkNhbGlmb3JuaWExFjAUBgNVBAcMDVNh
biBGcmFuY2lzY28xIDAeBgNVBAoMF0NvcHlsZWZ0IENlcnRpZmljYXRlIENvMR8w
HQYDVQQLDBZNeSBPcmdhbml6YXRpb25hbCBVbml0MREwDwYDVQQDDAhDaGFuZ2VN
ZTEdMBsGCSqGSIb3DQEJARYObWVAZXhhbXBsZS5uZXQwHhcNMjMxMTExMTA1ODA0
WhcNMjQxMTEwMTA1ODA0WjCBuzELMAkGA1UEBhMCVVMxCzAJBgNVBAgMAk9IMRMw
EQYDVQQHDApDaW5jaW5uYXRpMSEwHwYDVQQKDBhVbml2ZXJzaXR5IG9mIENpbmNp
bm5hdGkxKjAoBgNVBAsMIURlcHQuIEVsZWMuIENvbXAuIEVuZy4gQ29tcC4gU2Np
LjERMA8GA1UEAwwIY2xpZW50NDIxKDAmBgkqhkiG9w0BCQEWGWZyYW5jb0BnYXVz
cy5lY2Vjcy51Yy5lZHUwggEiMA0GCSqGSIb3DQEBAQUAA4IBDwAwggEKAoIBAQDE
08uvK0eKFmqW8gf0hbu438hxg16HZdVE77Yt4u/PpEte1nEsrJ8lsFT4vTElElBb
U0iOG4xsuoggxkYYLpXhMsfSFt+j44GgWSALwvhb+ygJ4ZBpyfDFOW9L2dEn6E9R
r8UhCPnq+F0xgvyPT1k3zZoXLl2iO1q7kW6Xyo61iQ8irZq/e8fZOPg8IVEYX0pY
yNzlZiLh5xxxR4HOw5xd9/nqH02QpSFOtL376NMnspvOSKfZFiIm6QO62F+8mxsa
PNWJ5eyRS4+b0iU5LufFk/klsxP9a5ZWkDWrEJC64sx4xc2l0c0qpUgsF2hOSSOD
8Lcnowf/dPrcxikavX7LAgMBAAGjggE3MIIBMzAJBgNVHRMEAjAAMB0GA1UdDgQW
BBSc6dGWG/PCLirGbJC51UFGN8RGwTCB5AYDVR0jBIHcMIHZgBREAcwGC0F1y8j7
yTeGLZ3S2Hm2i6GBtaSBsjCBrzELMAkGA1UEBhMCVVMxEzARBgNVBAgMCkNhbGlm
b3JuaWExFjAUBgNVBAcMDVNhbiBGcmFuY2lzY28xIDAeBgNVBAoMF0NvcHlsZWZ0
IENlcnRpZmljYXRlIENvMR8wHQYDVQQLDBZNeSBPcmdhbml6YXRpb25hbCBVbml0
MREwDwYDVQQDDAhDaGFuZ2VNZTEdMBsGCSqGSIb3DQEJARYObWVAZXhhbXBsZS5u
ZXSCCQCv6ODdxYsO3TATBgNVHSUEDDAKBggrBgEFBQcDAjALBgNVHQ8EBAMCB4Aw
DQYJKoZIhvcNAQELBQADggEBAKCKjkljmao1cyYtfs7akQGX0d6bu5cbKuyNU7RO
Kwi6dz4Fm1MqqrlFo0t6TPEOBqPcti0nIJMG7r6JC9NhpPcrzuOjaxKN5JcfMff0
58f7lY2KJzyXVA8+7LT5gT61Ui9N+DM00tXGB9vi1YQT6/LBnsT5vC5JtnBrc5zm
eVlR/pmtE4/z21OP8e3YCIF9F1RD4xicmcbcQqwtVGqENEXsPxPQiqtZWUPws4ol
jdMbAcaM5uLZwPUq/B4ywck03rggcBlCDmqdLyw2Xl38xOA0kpxARtQzy+VfvQOn
rgp18VoMt8BlcFBCpVzZG2WPmc5IMWWVa8V59KpNcyeBSws=
-----END CERTIFICATE-----
