Certificate:
    Data:
        Version: 3 (0x2)
        Serial Number:
            66:7d:df:15:f3:a3:0b:fe:db:14:c6:d7:4d:dd:02:af
    Signature Algorithm: sha256WithRSAEncryption
        Issuer: C=US, ST=California, L=San Francisco, O=Copyleft Certificate Co, OU=My Organizational Unit, CN=ChangeMe/emailAddress=me@example.net
        Validity
            Not Before: Nov 11 10:57:24 2023 GMT
            Not After : Nov 10 10:57:24 2024 GMT
        Subject: C=US, ST=OH, L=Cincinnati, O=University of Cincinnati, OU=Dept. Elec. Comp. Eng. Comp. Sci., CN=client32/emailAddress=franco@gauss.ececs.uc.edu
        Subject Public Key Info:
            Public Key Algorithm: rsaEncryption
                Public-Key: (2048 bit)
                Modulus:
                    00:bd:f5:b6:9a:36:a6:da:95:7f:ee:21:b7:68:eb:
                    be:29:c9:eb:9d:1e:be:74:32:44:be:b7:30:ef:d4:
                    87:31:dc:23:2b:b7:5a:ed:3f:4b:24:b4:b1:69:f5:
                    1d:39:05:ba:cf:10:3b:ab:b9:04:ea:18:6c:8f:64:
                    67:8d:d0:15:c2:3f:37:99:29:e6:c9:fa:32:a8:af:
                    e2:aa:37:ec:b5:b1:54:25:c3:5e:8b:85:9e:a9:3d:
                    46:ac:eb:f2:b2:61:6f:9a:a9:f2:63:9e:6f:21:94:
                    0c:68:15:08:67:0c:e3:04:5d:f7:ed:fe:e9:8d:ad:
                    38:74:ca:5c:88:86:1b:39:ac:d3:18:6e:15:dc:d4:
                    d3:eb:ef:9b:b7:f0:f1:67:1e:5d:7b:62:1a:e4:27:
                    d6:03:bb:fc:7e:e4:f1:9e:ae:04:f7:40:49:d0:05:
                    c0:80:65:6d:6b:16:42:15:74:d3:c4:1a:96:2b:0b:
                    e8:83:eb:1e:e6:34:80:38:fb:fc:32:47:31:22:10:
                    d6:7a:26:43:0f:50:6c:bc:7f:db:74:dd:ec:5f:75:
                    b3:9f:d2:46:6f:fd:7c:d5:4c:b6:6e:6c:c1:e5:0f:
                    37:ae:95:5f:81:e2:a5:7e:4c:3e:0c:ed:b5:47:94:
                    62:ce:9c:e0:cd:06:ad:fa:41:05:d3:6d:39:1c:be:
                    e9:11
                Exponent: 65537 (0x10001)
        X509v3 extensions:
            X509v3 Basic Constraints: 
                CA:FALSE
            X509v3 Subject Key Identifier: 
                C1:77:EE:FF:3E:46:8E:01:A6:C3:7C:4A:FE:F1:0A:9F:16:7B:E2:BF
            X509v3 Authority Key Identifier: 
                keyid:44:01:CC:06:0B:41:75:CB:C8:FB:C9:37:86:2D:9D:D2:D8:79:B6:8B
                DirName:/C=US/ST=California/L=San Francisco/O=Copyleft Certificate Co/OU=My Organizational Unit/CN=ChangeMe/emailAddress=me@example.net
                serial:AF:E8:E0:DD:C5:8B:0E:DD

            X509v3 Extended Key Usage: 
                TLS Web Client Authentication
            X509v3 Key Usage: 
                Digital Signature
    Signature Algorithm: sha256WithRSAEncryption
         73:34:22:f7:33:dc:85:b8:6e:ce:9c:8f:02:90:1b:83:b3:7e:
         dd:29:c1:1a:32:1c:bf:57:30:3a:8d:3b:3d:8e:75:74:c2:ca:
         60:e0:b7:6d:68:2b:8a:1b:9b:7e:a5:4d:a6:e9:01:95:6d:5e:
         33:b4:48:c4:3f:39:29:7f:91:2d:55:ef:d1:ca:eb:99:2e:d4:
         d7:8d:23:6c:30:19:f3:8c:3a:9e:96:b2:a3:b1:b3:01:78:0b:
         25:d7:9b:db:33:84:3b:18:d0:81:dd:0f:2e:a9:95:1d:ba:f5:
         32:33:b6:d4:35:a4:8b:62:0e:19:e1:8b:97:c4:06:c4:ff:26:
         3c:f6:10:64:c5:48:50:55:31:94:58:89:6d:ba:27:f2:02:69:
         97:66:94:6e:31:4b:fe:81:8f:7c:7b:49:f6:60:90:fd:36:48:
         98:f9:bc:07:0a:18:99:23:d0:2b:1f:49:20:56:76:fc:fc:b1:
         2c:61:ac:47:6f:1a:83:ba:d1:09:ef:8c:f1:c3:13:62:2a:63:
         bb:81:38:3a:ff:16:a1:d1:92:7a:f0:55:e1:95:d6:f0:eb:f3:
         52:df:8a:2f:60:e6:22:dd:ea:e4:17:31:8b:f7:56:d3:bd:b2:
         67:e6:0f:66:44:81:bd:4e:6f:f3:bb:81:d0:87:ea:9f:37:1c:
         9d:80:19:dd
-----BEGIN CERTIFICATE-----
MIIFLzCCBBegAwIBAgIQZn3fFfOjC/7bFMbXTd0CrzANBgkqhkiG9w0BAQsFADCB
rzELMAkGA1UEBhMCVVMxEzARBgNVBAgMCkNhbGlmb3JuaWExFjAUBgNVBAcMDVNh
biBGcmFuY2lzY28xIDAeBgNVBAoMF0NvcHlsZWZ0IENlcnRpZmljYXRlIENvMR8w
HQYDVQQLDBZNeSBPcmdhbml6YXRpb25hbCBVbml0MREwDwYDVQQDDAhDaGFuZ2VN
ZTEdMBsGCSqGSIb3DQEJARYObWVAZXhhbXBsZS5uZXQwHhcNMjMxMTExMTA1NzI0
WhcNMjQxMTEwMTA1NzI0WjCBuzELMAkGA1UEBhMCVVMxCzAJBgNVBAgMAk9IMRMw
EQYDVQQHDApDaW5jaW5uYXRpMSEwHwYDVQQKDBhVbml2ZXJzaXR5IG9mIENpbmNp
bm5hdGkxKjAoBgNVBAsMIURlcHQuIEVsZWMuIENvbXAuIEVuZy4gQ29tcC4gU2Np
LjERMA8GA1UEAwwIY2xpZW50MzIxKDAmBgkqhkiG9w0BCQEWGWZyYW5jb0BnYXVz
cy5lY2Vjcy51Yy5lZHUwggEiMA0GCSqGSIb3DQEBAQUAA4IBDwAwggEKAoIBAQC9
9baaNqbalX/uIbdo674pyeudHr50MkS+tzDv1Icx3CMrt1rtP0sktLFp9R05BbrP
EDuruQTqGGyPZGeN0BXCPzeZKebJ+jKor+KqN+y1sVQlw16LhZ6pPUas6/KyYW+a
qfJjnm8hlAxoFQhnDOMEXfft/umNrTh0ylyIhhs5rNMYbhXc1NPr75u38PFnHl17
YhrkJ9YDu/x+5PGergT3QEnQBcCAZW1rFkIVdNPEGpYrC+iD6x7mNIA4+/wyRzEi
ENZ6JkMPUGy8f9t03exfdbOf0kZv/XzVTLZubMHlDzeulV+B4qV+TD4M7bVHlGLO
nODNBq36QQXTbTkcvukRAgMBAAGjggE3MIIBMzAJBgNVHRMEAjAAMB0GA1UdDgQW
BBTBd+7/PkaOAabDfEr+8QqfFnvivzCB5AYDVR0jBIHcMIHZgBREAcwGC0F1y8j7
yTeGLZ3S2Hm2i6GBtaSBsjCBrzELMAkGA1UEBhMCVVMxEzARBgNVBAgMCkNhbGlm
b3JuaWExFjAUBgNVBAcMDVNhbiBGcmFuY2lzY28xIDAeBgNVBAoMF0NvcHlsZWZ0
IENlcnRpZmljYXRlIENvMR8wHQYDVQQLDBZNeSBPcmdhbml6YXRpb25hbCBVbml0
MREwDwYDVQQDDAhDaGFuZ2VNZTEdMBsGCSqGSIb3DQEJARYObWVAZXhhbXBsZS5u
ZXSCCQCv6ODdxYsO3TATBgNVHSUEDDAKBggrBgEFBQcDAjALBgNVHQ8EBAMCB4Aw
DQYJKoZIhvcNAQELBQADggEBAHM0Ivcz3IW4bs6cjwKQG4Ozft0pwRoyHL9XMDqN
Oz2OdXTCymDgt21oK4obm36lTabpAZVtXjO0SMQ/OSl/kS1V79HK65ku1NeNI2ww
GfOMOp6WsqOxswF4CyXXm9szhDsY0IHdDy6plR269TIzttQ1pItiDhnhi5fEBsT/
Jjz2EGTFSFBVMZRYiW26J/ICaZdmlG4xS/6Bj3x7SfZgkP02SJj5vAcKGJkj0Csf
SSBWdvz8sSxhrEdvGoO60QnvjPHDE2IqY7uBODr/FqHRknrwVeGV1vDr81Lfii9g
5iLd6uQXMYv3VtO9smfmD2ZEgb1Ob/O7gdCH6p83HJ2AGd0=
-----END CERTIFICATE-----
