Certificate:
    Data:
        Version: 3 (0x2)
        Serial Number:
            d2:a7:32:8e:45:e1:dd:4e:e7:09:b5:e7:bf:b3:1b:8b
    Signature Algorithm: sha256WithRSAEncryption
        Issuer: C=US, ST=California, L=San Francisco, O=Copyleft Certificate Co, OU=My Organizational Unit, CN=ChangeMe/emailAddress=me@example.net
        Validity
            Not Before: Nov 10 17:45:26 2023 GMT
            Not After : Nov  9 17:45:26 2024 GMT
        Subject: C=US, ST=OH, L=Cincinnati, O=University of Cincinnati, OU=Dept_Elec_Com_ Eng_Com_Sci., CN=client105/emailAddress=franco@gauss.ececs.uc.edu
        Subject Public Key Info:
            Public Key Algorithm: rsaEncryption
                Public-Key: (2048 bit)
                Modulus:
                    00:e5:ba:25:bc:d2:1b:31:3c:cb:92:71:d6:ba:4a:
                    98:cd:a0:3e:43:64:3d:43:19:b0:a0:a4:e5:f1:50:
                    35:3f:29:41:13:d2:94:5e:4e:43:72:e6:96:72:02:
                    fc:35:8a:3e:d9:0f:cc:12:99:6a:a6:b5:4c:d1:e0:
                    0e:a5:cd:1f:3e:8b:55:50:77:0a:1b:e1:a4:86:b6:
                    3c:ee:5d:64:d1:02:c9:9b:0e:36:c1:d7:94:d8:7b:
                    40:7f:45:eb:58:3a:10:45:dd:f9:cf:47:87:73:eb:
                    8f:c4:f6:ab:f3:b8:5e:c0:c6:ea:55:08:0b:df:b6:
                    db:b3:2d:f0:cf:97:d5:48:dc:49:c1:23:fc:c2:0c:
                    2f:b2:ad:a1:50:fa:b2:0a:41:b7:f4:20:56:9a:ba:
                    77:4e:5b:45:43:bf:cb:00:f6:b7:47:c3:0f:84:5c:
                    75:02:45:d3:74:44:3c:cc:57:7e:ed:45:09:c9:f4:
                    5f:e3:37:c4:52:b5:0d:a3:c5:51:6f:3c:b1:56:37:
                    2d:e6:f1:83:59:c5:a4:65:ed:48:6a:0b:d8:9d:2a:
                    7f:9d:57:a6:a8:85:46:7a:94:01:74:17:2d:af:04:
                    f5:dd:a5:1e:75:f0:d5:3a:82:ad:f9:99:a4:1b:1a:
                    4f:49:40:4d:5b:c0:ad:89:b5:e4:df:8a:3c:10:60:
                    4f:fb
                Exponent: 65537 (0x10001)
        X509v3 extensions:
            X509v3 Basic Constraints: 
                CA:FALSE
            X509v3 Subject Key Identifier: 
                AC:4C:06:72:2A:AE:52:C3:1B:AA:4A:1F:E9:37:89:2E:A5:CF:4E:B6
            X509v3 Authority Key Identifier: 
                keyid:C8:27:DA:64:30:08:40:08:4A:25:CC:DC:43:99:DE:77:A1:FE:77:BD
                DirName:/C=US/ST=California/L=San Francisco/O=Copyleft Certificate Co/OU=My Organizational Unit/CN=ChangeMe/emailAddress=me@example.net
                serial:A9:48:C3:7E:FC:1B:B0:A1

            X509v3 Extended Key Usage: 
                TLS Web Client Authentication
            X509v3 Key Usage: 
                Digital Signature
    Signature Algorithm: sha256WithRSAEncryption
         2c:23:94:6a:11:13:f2:aa:6d:59:16:7b:6e:4b:7e:9a:05:b4:
         0e:55:d2:3f:9f:7d:13:69:29:3a:65:09:bc:90:ac:fa:70:64:
         f6:4b:3a:ab:dc:60:a1:e2:b6:6e:65:51:f4:31:f2:32:3c:ed:
         40:f5:ca:4e:24:0d:6e:8c:52:e8:e8:84:a5:18:68:3a:fa:98:
         10:b2:06:79:a9:cc:71:10:1d:d8:d3:d7:9e:0b:22:f5:5b:4b:
         0d:f4:16:5f:bc:a6:c4:99:22:5c:d3:bf:7b:23:69:f6:41:44:
         1c:21:30:87:de:a2:40:36:93:d3:70:47:4b:e8:0d:d1:f7:e8:
         93:f4:7b:c2:db:88:0f:10:08:d4:68:1f:ad:3e:b7:4f:1a:5d:
         4a:db:38:f8:f1:50:c6:b4:fc:be:5b:d0:b2:5c:10:65:1b:90:
         17:40:61:36:5a:df:bf:30:91:bd:28:31:d2:c2:18:c1:33:18:
         1a:31:55:e8:06:6a:5a:92:16:8d:7a:1c:48:4d:56:97:54:09:
         0d:2f:a8:a2:66:f8:a6:a2:5d:e4:15:7c:4b:8b:8f:ea:bc:6a:
         8a:94:94:f4:1d:ca:9b:6d:0f:06:c2:a8:d2:2a:87:76:74:1f:
         24:9e:d7:76:3d:8b:01:e1:30:5b:e5:45:95:dd:ce:79:01:7e:
         f8:7e:63:20
-----BEGIN CERTIFICATE-----
MIIFKzCCBBOgAwIBAgIRANKnMo5F4d1O5wm157+zG4swDQYJKoZIhvcNAQELBQAw
ga8xCzAJBgNVBAYTAlVTMRMwEQYDVQQIDApDYWxpZm9ybmlhMRYwFAYDVQQHDA1T
YW4gRnJhbmNpc2NvMSAwHgYDVQQKDBdDb3B5bGVmdCBDZXJ0aWZpY2F0ZSBDbzEf
MB0GA1UECwwWTXkgT3JnYW5pemF0aW9uYWwgVW5pdDERMA8GA1UEAwwIQ2hhbmdl
TWUxHTAbBgkqhkiG9w0BCQEWDm1lQGV4YW1wbGUubmV0MB4XDTIzMTExMDE3NDUy
NloXDTI0MTEwOTE3NDUyNlowgbYxCzAJBgNVBAYTAlVTMQswCQYDVQQIDAJPSDET
MBEGA1UEBwwKQ2luY2lubmF0aTEhMB8GA1UECgwYVW5pdmVyc2l0eSBvZiBDaW5j
aW5uYXRpMSQwIgYDVQQLDBtEZXB0X0VsZWNfQ29tXyBFbmdfQ29tX1NjaS4xEjAQ
BgNVBAMMCWNsaWVudDEwNTEoMCYGCSqGSIb3DQEJARYZZnJhbmNvQGdhdXNzLmVj
ZWNzLnVjLmVkdTCCASIwDQYJKoZIhvcNAQEBBQADggEPADCCAQoCggEBAOW6JbzS
GzE8y5Jx1rpKmM2gPkNkPUMZsKCk5fFQNT8pQRPSlF5OQ3LmlnIC/DWKPtkPzBKZ
aqa1TNHgDqXNHz6LVVB3ChvhpIa2PO5dZNECyZsONsHXlNh7QH9F61g6EEXd+c9H
h3Prj8T2q/O4XsDG6lUIC9+227Mt8M+X1UjcScEj/MIML7KtoVD6sgpBt/QgVpq6
d05bRUO/ywD2t0fDD4RcdQJF03REPMxXfu1FCcn0X+M3xFK1DaPFUW88sVY3Lebx
g1nFpGXtSGoL2J0qf51XpqiFRnqUAXQXLa8E9d2lHnXw1TqCrfmZpBsaT0lATVvA
rYm15N+KPBBgT/sCAwEAAaOCATcwggEzMAkGA1UdEwQCMAAwHQYDVR0OBBYEFKxM
BnIqrlLDG6pKH+k3iS6lz062MIHkBgNVHSMEgdwwgdmAFMgn2mQwCEAISiXM3EOZ
3neh/ne9oYG1pIGyMIGvMQswCQYDVQQGEwJVUzETMBEGA1UECAwKQ2FsaWZvcm5p
YTEWMBQGA1UEBwwNU2FuIEZyYW5jaXNjbzEgMB4GA1UECgwXQ29weWxlZnQgQ2Vy
dGlmaWNhdGUgQ28xHzAdBgNVBAsMFk15IE9yZ2FuaXphdGlvbmFsIFVuaXQxETAP
BgNVBAMMCENoYW5nZU1lMR0wGwYJKoZIhvcNAQkBFg5tZUBleGFtcGxlLm5ldIIJ
AKlIw378G7ChMBMGA1UdJQQMMAoGCCsGAQUFBwMCMAsGA1UdDwQEAwIHgDANBgkq
hkiG9w0BAQsFAAOCAQEALCOUahET8qptWRZ7bkt+mgW0DlXSP599E2kpOmUJvJCs
+nBk9ks6q9xgoeK2bmVR9DHyMjztQPXKTiQNboxS6OiEpRhoOvqYELIGeanMcRAd
2NPXngsi9VtLDfQWX7ymxJkiXNO/eyNp9kFEHCEwh96iQDaT03BHS+gN0ffok/R7
wtuIDxAI1GgfrT63TxpdSts4+PFQxrT8vlvQslwQZRuQF0BhNlrfvzCRvSgx0sIY
wTMYGjFV6AZqWpIWjXocSE1Wl1QJDS+oomb4pqJd5BV8S4uP6rxqipSU9B3Km20P
BsKo0iqHdnQfJJ7Xdj2LAeEwW+VFld3OeQF++H5jIA==
-----END CERTIFICATE-----
