Certificate:
    Data:
        Version: 3 (0x2)
        Serial Number:
            e8:98:8b:c1:82:59:0a:c3:34:6d:86:68:56:51:2f:50
    Signature Algorithm: sha256WithRSAEncryption
        Issuer: C=US, ST=California, L=San Francisco, O=Copyleft Certificate Co, OU=My Organizational Unit, CN=ChangeMe/emailAddress=me@example.net
        Validity
            Not Before: Nov 10 17:48:06 2023 GMT
            Not After : Nov  9 17:48:06 2024 GMT
        Subject: C=US, ST=OH, L=Cincinnati, O=University of Cincinnati, OU=Dept_Elec_Com_ Eng_Com_Sci., CN=client145/emailAddress=franco@gauss.ececs.uc.edu
        Subject Public Key Info:
            Public Key Algorithm: rsaEncryption
                Public-Key: (2048 bit)
                Modulus:
                    00:a5:5e:7d:9d:03:eb:86:1c:dc:09:84:bb:05:4d:
                    84:68:40:e2:4d:55:db:d4:d9:d2:a0:20:fc:d3:e9:
                    ce:2b:72:f0:c7:2c:07:78:97:e8:84:e9:8b:3e:40:
                    ae:b4:c9:1e:e4:f3:4d:e4:95:ee:ba:11:49:c6:2f:
                    d4:0b:8d:4e:04:f7:12:f6:12:27:64:a2:10:f6:a9:
                    75:a7:e0:f1:1b:a9:79:d1:f1:cd:41:27:ae:b7:21:
                    34:e0:16:03:57:65:99:fb:46:e9:df:27:0c:67:72:
                    d4:d1:fa:56:ab:d6:5b:3b:0b:77:74:69:98:7e:29:
                    90:91:f1:3d:b7:09:72:4b:be:3d:e5:22:c1:d3:38:
                    e3:ef:dd:7d:9b:67:41:4f:c1:14:f0:ba:3b:d2:0c:
                    8a:50:7e:fd:c5:71:b8:dc:bb:4b:8f:1f:9c:20:b1:
                    6a:0c:75:5b:bb:cd:49:07:00:9e:47:76:d3:7d:88:
                    69:e5:02:a8:52:a3:14:e6:e5:4f:a5:85:53:f0:b9:
                    04:a4:0e:b5:0c:75:1c:e4:fd:27:39:f7:aa:91:48:
                    fa:7e:ca:25:3c:10:12:d9:b2:c3:fe:d1:a0:e7:bd:
                    bc:91:ef:3b:03:67:7b:85:5c:14:95:ac:85:07:f0:
                    f1:04:9b:9a:07:e2:39:1c:9f:8b:74:3f:91:70:c0:
                    29:a3
                Exponent: 65537 (0x10001)
        X509v3 extensions:
            X509v3 Basic Constraints: 
                CA:FALSE
            X509v3 Subject Key Identifier: 
                A6:78:D3:38:2F:7B:DE:07:11:9A:16:DE:90:00:0E:55:21:D1:62:1D
            X509v3 Authority Key Identifier: 
                keyid:C8:27:DA:64:30:08:40:08:4A:25:CC:DC:43:99:DE:77:A1:FE:77:BD
                DirName:/C=US/ST=California/L=San Francisco/O=Copyleft Certificate Co/OU=My Organizational Unit/CN=ChangeMe/emailAddress=me@example.net
                serial:A9:48:C3:7E:FC:1B:B0:A1

            X509v3 Extended Key Usage: 
                TLS Web Client Authentication
            X509v3 Key Usage: 
                Digital Signature
    Signature Algorithm: sha256WithRSAEncryption
         0f:65:c2:54:aa:15:05:20:bd:10:72:4e:ec:eb:57:5f:18:eb:
         10:71:0e:15:7e:6d:e1:bd:d6:e6:02:11:db:65:bf:31:ba:40:
         af:14:19:55:a8:cc:eb:e2:6b:19:c0:a7:1f:fc:e2:d5:f9:53:
         10:b7:e9:d3:8d:dd:a4:bf:b8:10:3f:81:ac:89:30:fa:7b:b0:
         16:a9:ff:87:3b:ec:55:30:76:a2:b7:f9:e7:0a:f6:bb:4d:9a:
         19:03:0c:01:c4:de:c2:b8:ab:f5:ad:35:73:e8:d7:b1:2c:d5:
         08:42:9e:3a:66:31:61:19:a5:ce:de:37:ad:6c:8d:0b:16:3a:
         26:79:2b:7b:6d:f9:89:96:ec:2e:27:ad:ed:46:58:6a:7d:43:
         9c:d2:bf:f1:e9:35:a5:5f:63:d5:9e:cb:45:29:d0:53:fe:25:
         3f:1c:53:1f:a9:52:91:7e:f8:25:b6:9d:f1:0f:c4:ef:e0:c1:
         60:78:e9:f9:b6:49:79:6c:68:81:1f:d6:96:1c:29:a7:e5:bf:
         46:01:48:41:9b:1c:8a:e9:55:5c:e0:b1:06:23:a6:a3:f0:d1:
         6e:43:15:3a:aa:c4:14:35:6b:09:b2:e9:4a:e3:d4:ed:5e:5a:
         a1:83:45:78:0d:40:ed:61:47:13:50:70:f5:ee:01:7b:91:45:
         f1:3e:cd:e1
-----BEGIN CERTIFICATE-----
MIIFKzCCBBOgAwIBAgIRAOiYi8GCWQrDNG2GaFZRL1AwDQYJKoZIhvcNAQELBQAw
ga8xCzAJBgNVBAYTAlVTMRMwEQYDVQQIDApDYWxpZm9ybmlhMRYwFAYDVQQHDA1T
YW4gRnJhbmNpc2NvMSAwHgYDVQQKDBdDb3B5bGVmdCBDZXJ0aWZpY2F0ZSBDbzEf
MB0GA1UECwwWTXkgT3JnYW5pemF0aW9uYWwgVW5pdDERMA8GA1UEAwwIQ2hhbmdl
TWUxHTAbBgkqhkiG9w0BCQEWDm1lQGV4YW1wbGUubmV0MB4XDTIzMTExMDE3NDgw
NloXDTI0MTEwOTE3NDgwNlowgbYxCzAJBgNVBAYTAlVTMQswCQYDVQQIDAJPSDET
MBEGA1UEBwwKQ2luY2lubmF0aTEhMB8GA1UECgwYVW5pdmVyc2l0eSBvZiBDaW5j
aW5uYXRpMSQwIgYDVQQLDBtEZXB0X0VsZWNfQ29tXyBFbmdfQ29tX1NjaS4xEjAQ
BgNVBAMMCWNsaWVudDE0NTEoMCYGCSqGSIb3DQEJARYZZnJhbmNvQGdhdXNzLmVj
ZWNzLnVjLmVkdTCCASIwDQYJKoZIhvcNAQEBBQADggEPADCCAQoCggEBAKVefZ0D
64Yc3AmEuwVNhGhA4k1V29TZ0qAg/NPpzity8McsB3iX6ITpiz5ArrTJHuTzTeSV
7roRScYv1AuNTgT3EvYSJ2SiEPapdafg8RupedHxzUEnrrchNOAWA1dlmftG6d8n
DGdy1NH6VqvWWzsLd3RpmH4pkJHxPbcJcku+PeUiwdM44+/dfZtnQU/BFPC6O9IM
ilB+/cVxuNy7S48fnCCxagx1W7vNSQcAnkd2032IaeUCqFKjFOblT6WFU/C5BKQO
tQx1HOT9Jzn3qpFI+n7KJTwQEtmyw/7RoOe9vJHvOwNne4VcFJWshQfw8QSbmgfi
ORyfi3Q/kXDAKaMCAwEAAaOCATcwggEzMAkGA1UdEwQCMAAwHQYDVR0OBBYEFKZ4
0zgve94HEZoW3pAADlUh0WIdMIHkBgNVHSMEgdwwgdmAFMgn2mQwCEAISiXM3EOZ
3neh/ne9oYG1pIGyMIGvMQswCQYDVQQGEwJVUzETMBEGA1UECAwKQ2FsaWZvcm5p
YTEWMBQGA1UEBwwNU2FuIEZyYW5jaXNjbzEgMB4GA1UECgwXQ29weWxlZnQgQ2Vy
dGlmaWNhdGUgQ28xHzAdBgNVBAsMFk15IE9yZ2FuaXphdGlvbmFsIFVuaXQxETAP
BgNVBAMMCENoYW5nZU1lMR0wGwYJKoZIhvcNAQkBFg5tZUBleGFtcGxlLm5ldIIJ
AKlIw378G7ChMBMGA1UdJQQMMAoGCCsGAQUFBwMCMAsGA1UdDwQEAwIHgDANBgkq
hkiG9w0BAQsFAAOCAQEAD2XCVKoVBSC9EHJO7OtXXxjrEHEOFX5t4b3W5gIR22W/
MbpArxQZVajM6+JrGcCnH/zi1flTELfp043dpL+4ED+BrIkw+nuwFqn/hzvsVTB2
orf55wr2u02aGQMMAcTewrir9a01c+jXsSzVCEKeOmYxYRmlzt43rWyNCxY6Jnkr
e235iZbsLiet7UZYan1DnNK/8ek1pV9j1Z7LRSnQU/4lPxxTH6lSkX74Jbad8Q/E
7+DBYHjp+bZJeWxogR/Wlhwpp+W/RgFIQZsciulVXOCxBiOmo/DRbkMVOqrEFDVr
CbLpSuPU7V5aoYNFeA1A7WFHE1Bw9e4Be5FF8T7N4Q==
-----END CERTIFICATE-----
