Certificate:
    Data:
        Version: 3 (0x2)
        Serial Number:
            22:51:1d:18:b3:dc:62:19:41:20:9b:f0:14:40:6b:37
    Signature Algorithm: sha256WithRSAEncryption
        Issuer: C=US, ST=California, L=San Francisco, O=Copyleft Certificate Co, OU=My Organizational Unit, CN=ChangeMe/emailAddress=me@example.net
        Validity
            Not Before: Nov 10 17:48:02 2023 GMT
            Not After : Nov  9 17:48:02 2024 GMT
        Subject: C=US, ST=OH, L=Cincinnati, O=University of Cincinnati, OU=Dept_Elec_Com_ Eng_Com_Sci., CN=client144/emailAddress=franco@gauss.ececs.uc.edu
        Subject Public Key Info:
            Public Key Algorithm: rsaEncryption
                Public-Key: (2048 bit)
                Modulus:
                    00:ea:1d:68:b3:58:5b:7a:dc:6b:60:2a:a5:ca:97:
                    76:d8:22:c0:65:5a:40:81:f0:a8:cf:bb:22:89:5d:
                    07:ba:55:64:56:fe:e1:3c:0e:5f:66:da:50:53:ab:
                    50:63:8b:8a:e7:24:08:b6:69:06:fb:6e:5b:58:fe:
                    c2:a6:30:d3:29:97:69:8b:1e:1c:01:3f:ee:7d:29:
                    db:4d:39:7f:cb:2e:e6:33:19:f6:d1:2f:83:c6:53:
                    d1:af:67:3c:89:90:fb:c5:07:6b:ee:d2:d6:f8:3e:
                    19:7a:ef:0e:d3:b6:4f:ef:9d:de:61:41:43:ae:3c:
                    39:54:ae:0c:63:ed:23:02:e7:f8:24:c2:f5:ab:b5:
                    71:ae:f3:08:9a:08:60:a5:c8:98:55:6e:a4:42:61:
                    6c:71:8e:2f:4b:5b:67:a3:c2:e2:de:d3:67:88:a5:
                    e1:77:f0:13:a0:28:bb:46:54:79:44:ae:ab:92:77:
                    d5:d8:e2:80:ea:4a:9f:b7:7b:a5:86:92:23:a1:6f:
                    49:2d:bf:e8:04:4a:02:f4:b3:fe:cc:87:1e:10:02:
                    ee:5c:a3:3d:09:3a:fc:e0:65:b7:d5:be:7c:9f:95:
                    72:20:c3:f5:44:6a:93:7c:f8:8c:41:e3:5a:23:e8:
                    3a:c9:2d:08:0b:79:70:c8:c6:90:bc:27:f6:40:8e:
                    c8:ab
                Exponent: 65537 (0x10001)
        X509v3 extensions:
            X509v3 Basic Constraints: 
                CA:FALSE
            X509v3 Subject Key Identifier: 
                3D:DD:17:08:6C:88:FD:BA:50:E2:89:07:D4:86:80:5A:26:CC:6B:AB
            X509v3 Authority Key Identifier: 
                keyid:C8:27:DA:64:30:08:40:08:4A:25:CC:DC:43:99:DE:77:A1:FE:77:BD
                DirName:/C=US/ST=California/L=San Francisco/O=Copyleft Certificate Co/OU=My Organizational Unit/CN=ChangeMe/emailAddress=me@example.net
                serial:A9:48:C3:7E:FC:1B:B0:A1

            X509v3 Extended Key Usage: 
                TLS Web Client Authentication
            X509v3 Key Usage: 
                Digital Signature
    Signature Algorithm: sha256WithRSAEncryption
         a3:f9:ec:73:80:ac:0f:15:cf:52:23:43:51:59:ae:95:07:2b:
         65:d6:46:2e:ef:c0:4f:f9:aa:e1:81:ef:8a:5a:e4:39:77:5c:
         37:62:ef:00:09:3a:20:16:c0:26:b4:d3:73:88:43:8b:42:7f:
         2c:a5:99:0a:57:02:72:11:c3:8f:dc:e9:b3:37:96:80:8b:35:
         bc:ad:88:b4:15:d8:e0:84:f9:c2:16:e6:44:f5:c5:db:72:63:
         41:4f:97:b4:7f:1a:a4:32:b4:94:95:65:19:db:ad:eb:7c:bf:
         4d:cd:b0:81:b2:d4:e1:f8:9f:6b:f4:2b:0b:cd:da:f5:c1:dc:
         d1:35:b7:43:4c:af:d0:fa:e9:45:3c:86:aa:dc:0e:5f:a4:32:
         16:f2:3e:48:62:a3:a9:3a:6d:a5:a1:7f:76:6d:16:11:c8:76:
         42:c2:91:99:16:8d:a5:e7:ed:76:a4:51:c6:17:39:b2:38:6e:
         ab:1a:75:68:b2:26:77:62:d0:10:dd:ae:8d:87:ff:1e:e4:09:
         9d:c0:7c:e9:79:a1:da:f7:d5:55:d0:84:90:9e:13:55:3d:22:
         ba:90:a3:99:64:5a:f1:78:9e:83:15:18:31:ff:f1:70:7e:00:
         64:a2:6f:68:d3:db:cc:25:a5:35:a0:d2:ba:ec:68:a5:f3:9e:
         fc:13:3e:61
-----BEGIN CERTIFICATE-----
MIIFKjCCBBKgAwIBAgIQIlEdGLPcYhlBIJvwFEBrNzANBgkqhkiG9w0BAQsFADCB
rzELMAkGA1UEBhMCVVMxEzARBgNVBAgMCkNhbGlmb3JuaWExFjAUBgNVBAcMDVNh
biBGcmFuY2lzY28xIDAeBgNVBAoMF0NvcHlsZWZ0IENlcnRpZmljYXRlIENvMR8w
HQYDVQQLDBZNeSBPcmdhbml6YXRpb25hbCBVbml0MREwDwYDVQQDDAhDaGFuZ2VN
ZTEdMBsGCSqGSIb3DQEJARYObWVAZXhhbXBsZS5uZXQwHhcNMjMxMTEwMTc0ODAy
WhcNMjQxMTA5MTc0ODAyWjCBtjELMAkGA1UEBhMCVVMxCzAJBgNVBAgMAk9IMRMw
EQYDVQQHDApDaW5jaW5uYXRpMSEwHwYDVQQKDBhVbml2ZXJzaXR5IG9mIENpbmNp
bm5hdGkxJDAiBgNVBAsMG0RlcHRfRWxlY19Db21fIEVuZ19Db21fU2NpLjESMBAG
A1UEAwwJY2xpZW50MTQ0MSgwJgYJKoZIhvcNAQkBFhlmcmFuY29AZ2F1c3MuZWNl
Y3MudWMuZWR1MIIBIjANBgkqhkiG9w0BAQEFAAOCAQ8AMIIBCgKCAQEA6h1os1hb
etxrYCqlypd22CLAZVpAgfCoz7siiV0HulVkVv7hPA5fZtpQU6tQY4uK5yQItmkG
+25bWP7CpjDTKZdpix4cAT/ufSnbTTl/yy7mMxn20S+DxlPRr2c8iZD7xQdr7tLW
+D4Zeu8O07ZP753eYUFDrjw5VK4MY+0jAuf4JML1q7VxrvMImghgpciYVW6kQmFs
cY4vS1tno8Li3tNniKXhd/AToCi7RlR5RK6rknfV2OKA6kqft3ulhpIjoW9JLb/o
BEoC9LP+zIceEALuXKM9CTr84GW31b58n5VyIMP1RGqTfPiMQeNaI+g6yS0IC3lw
yMaQvCf2QI7IqwIDAQABo4IBNzCCATMwCQYDVR0TBAIwADAdBgNVHQ4EFgQUPd0X
CGyI/bpQ4okH1IaAWibMa6swgeQGA1UdIwSB3DCB2YAUyCfaZDAIQAhKJczcQ5ne
d6H+d72hgbWkgbIwga8xCzAJBgNVBAYTAlVTMRMwEQYDVQQIDApDYWxpZm9ybmlh
MRYwFAYDVQQHDA1TYW4gRnJhbmNpc2NvMSAwHgYDVQQKDBdDb3B5bGVmdCBDZXJ0
aWZpY2F0ZSBDbzEfMB0GA1UECwwWTXkgT3JnYW5pemF0aW9uYWwgVW5pdDERMA8G
A1UEAwwIQ2hhbmdlTWUxHTAbBgkqhkiG9w0BCQEWDm1lQGV4YW1wbGUubmV0ggkA
qUjDfvwbsKEwEwYDVR0lBAwwCgYIKwYBBQUHAwIwCwYDVR0PBAQDAgeAMA0GCSqG
SIb3DQEBCwUAA4IBAQCj+exzgKwPFc9SI0NRWa6VBytl1kYu78BP+arhge+KWuQ5
d1w3Yu8ACTogFsAmtNNziEOLQn8spZkKVwJyEcOP3OmzN5aAizW8rYi0FdjghPnC
FuZE9cXbcmNBT5e0fxqkMrSUlWUZ263rfL9NzbCBstTh+J9r9CsLzdr1wdzRNbdD
TK/Q+ulFPIaq3A5fpDIW8j5IYqOpOm2loX92bRYRyHZCwpGZFo2l5+12pFHGFzmy
OG6rGnVosiZ3YtAQ3a6Nh/8e5AmdwHzpeaHa99VV0ISQnhNVPSK6kKOZZFrxeJ6D
FRgx//FwfgBkom9o09vMJaU1oNK67Gil8578Ez5h
-----END CERTIFICATE-----
