Certificate:
    Data:
        Version: 3 (0x2)
        Serial Number:
            08:c5:3c:76:5a:a6:05:ff:8d:20:f9:e1:5b:b5:be:b0
    Signature Algorithm: sha256WithRSAEncryption
        Issuer: C=US, ST=California, L=San Francisco, O=Copyleft Certificate Co, OU=My Organizational Unit, CN=ChangeMe/emailAddress=me@example.net
        Validity
            Not Before: Nov 11 01:45:10 2023 GMT
            Not After : Nov 10 01:45:10 2024 GMT
        Subject: C=US, ST=OH, L=Cincinnati, O=University of Cincinnati, OU=Dept. Elec. Comp. Eng. Comp. Sci., CN=client82/emailAddress=franco@gauss.ececs.uc.edu
        Subject Public Key Info:
            Public Key Algorithm: rsaEncryption
                Public-Key: (2048 bit)
                Modulus:
                    00:c1:f1:8a:94:fe:34:ee:b8:aa:75:17:09:51:20:
                    99:61:6b:9c:d7:86:81:17:7c:77:32:1a:d0:5f:6f:
                    e3:06:13:d0:38:54:e6:fe:3c:49:6d:77:e2:eb:e7:
                    df:ca:78:75:fb:7c:90:b4:30:06:27:4d:e5:7d:c1:
                    b0:b9:f9:6a:ed:a3:70:b0:13:b4:be:c2:a0:58:1a:
                    fe:9c:08:6c:21:1f:b8:33:ff:9b:c3:50:6b:d2:d9:
                    fc:e9:49:f8:5e:21:b0:cc:dd:d6:f5:71:82:c2:e2:
                    32:8b:3d:51:50:0b:9c:e4:ea:4c:db:d8:a7:73:59:
                    b1:38:c6:48:1c:34:9a:06:cd:6e:d0:35:56:e6:fd:
                    70:a2:18:d8:40:a1:93:ed:19:98:28:fe:1d:45:de:
                    37:9e:5b:ab:47:dd:f7:0a:04:21:72:3b:21:4f:50:
                    84:2e:39:44:ca:45:21:ba:68:dc:86:ff:7b:7c:e7:
                    9f:c2:6c:eb:7c:8a:8f:eb:e1:f3:0c:1a:3d:7b:cc:
                    34:d0:32:68:a7:85:66:94:66:23:b9:0c:45:69:f3:
                    cf:95:32:5b:dc:6e:23:af:d7:d8:4a:8d:3d:f4:d4:
                    87:df:f7:07:3f:6e:c7:fb:2a:fc:dc:57:dc:66:e5:
                    b8:c8:54:28:7a:e2:a6:79:90:c4:72:be:c7:28:9a:
                    67:43
                Exponent: 65537 (0x10001)
        X509v3 extensions:
            X509v3 Basic Constraints: 
                CA:FALSE
            X509v3 Subject Key Identifier: 
                EF:21:B5:AD:66:E2:FC:4F:A2:30:A7:FE:09:C4:1B:8B:55:04:D0:9E
            X509v3 Authority Key Identifier: 
                keyid:73:DE:A0:43:0F:AE:B1:9E:E8:59:69:18:50:A1:1A:1F:D4:A1:E3:F0
                DirName:/C=US/ST=California/L=San Francisco/O=Copyleft Certificate Co/OU=My Organizational Unit/CN=ChangeMe/emailAddress=me@example.net
                serial:E9:BB:CB:16:C5:32:BE:3B

            X509v3 Extended Key Usage: 
                TLS Web Client Authentication
            X509v3 Key Usage: 
                Digital Signature
    Signature Algorithm: sha256WithRSAEncryption
         47:ad:14:0c:1b:b3:75:57:1a:b7:de:63:3b:92:a9:87:bb:93:
         ce:f2:12:ac:0c:3a:42:44:e4:de:cc:f3:02:bc:3e:a5:26:b6:
         ae:3f:3c:82:4c:31:8f:03:5b:05:fe:5b:12:45:8b:0d:f4:2c:
         1d:93:20:0a:58:a0:3b:2d:00:c9:57:1f:ec:b5:03:2b:84:76:
         56:42:f2:49:95:f2:c1:09:3c:12:a6:7c:a7:20:96:da:8f:41:
         f9:c7:27:38:d6:96:75:25:03:b9:0b:a4:31:ec:71:e9:aa:4d:
         5b:09:22:96:dc:c5:dd:dd:32:ca:e0:9b:25:bb:19:d7:d8:f4:
         f3:60:53:20:b3:3f:a5:be:ee:ac:70:37:ee:3f:de:2c:50:38:
         55:91:4d:fa:57:b4:73:04:b2:fc:ab:18:15:72:9c:fa:cf:6d:
         67:3f:b8:d2:87:41:78:fb:1f:33:46:3d:34:f6:0a:3f:4b:f3:
         fa:89:16:1a:83:6d:5c:a1:a2:2b:4d:78:aa:17:19:73:e6:08:
         a6:a1:6f:8b:0e:39:9b:7d:f2:03:6d:90:1b:2e:cc:28:f4:51:
         9b:12:bc:33:b9:ca:78:f0:f3:a6:57:6c:77:b9:62:82:31:45:
         35:89:0e:f0:80:3e:cc:f5:0f:24:7c:7d:ce:2b:ab:37:4d:73:
         0c:d3:f5:8f
-----BEGIN CERTIFICATE-----
MIIFLzCCBBegAwIBAgIQCMU8dlqmBf+NIPnhW7W+sDANBgkqhkiG9w0BAQsFADCB
rzELMAkGA1UEBhMCVVMxEzARBgNVBAgMCkNhbGlmb3JuaWExFjAUBgNVBAcMDVNh
biBGcmFuY2lzY28xIDAeBgNVBAoMF0NvcHlsZWZ0IENlcnRpZmljYXRlIENvMR8w
HQYDVQQLDBZNeSBPcmdhbml6YXRpb25hbCBVbml0MREwDwYDVQQDDAhDaGFuZ2VN
ZTEdMBsGCSqGSIb3DQEJARYObWVAZXhhbXBsZS5uZXQwHhcNMjMxMTExMDE0NTEw
WhcNMjQxMTEwMDE0NTEwWjCBuzELMAkGA1UEBhMCVVMxCzAJBgNVBAgMAk9IMRMw
EQYDVQQHDApDaW5jaW5uYXRpMSEwHwYDVQQKDBhVbml2ZXJzaXR5IG9mIENpbmNp
bm5hdGkxKjAoBgNVBAsMIURlcHQuIEVsZWMuIENvbXAuIEVuZy4gQ29tcC4gU2Np
LjERMA8GA1UEAwwIY2xpZW50ODIxKDAmBgkqhkiG9w0BCQEWGWZyYW5jb0BnYXVz
cy5lY2Vjcy51Yy5lZHUwggEiMA0GCSqGSIb3DQEBAQUAA4IBDwAwggEKAoIBAQDB
8YqU/jTuuKp1FwlRIJlha5zXhoEXfHcyGtBfb+MGE9A4VOb+PEltd+Lr59/KeHX7
fJC0MAYnTeV9wbC5+Wrto3CwE7S+wqBYGv6cCGwhH7gz/5vDUGvS2fzpSfheIbDM
3db1cYLC4jKLPVFQC5zk6kzb2KdzWbE4xkgcNJoGzW7QNVbm/XCiGNhAoZPtGZgo
/h1F3jeeW6tH3fcKBCFyOyFPUIQuOUTKRSG6aNyG/3t855/CbOt8io/r4fMMGj17
zDTQMminhWaUZiO5DEVp88+VMlvcbiOv19hKjT301Iff9wc/bsf7KvzcV9xm5bjI
VCh64qZ5kMRyvscommdDAgMBAAGjggE3MIIBMzAJBgNVHRMEAjAAMB0GA1UdDgQW
BBTvIbWtZuL8T6Iwp/4JxBuLVQTQnjCB5AYDVR0jBIHcMIHZgBRz3qBDD66xnuhZ
aRhQoRof1KHj8KGBtaSBsjCBrzELMAkGA1UEBhMCVVMxEzARBgNVBAgMCkNhbGlm
b3JuaWExFjAUBgNVBAcMDVNhbiBGcmFuY2lzY28xIDAeBgNVBAoMF0NvcHlsZWZ0
IENlcnRpZmljYXRlIENvMR8wHQYDVQQLDBZNeSBPcmdhbml6YXRpb25hbCBVbml0
MREwDwYDVQQDDAhDaGFuZ2VNZTEdMBsGCSqGSIb3DQEJARYObWVAZXhhbXBsZS5u
ZXSCCQDpu8sWxTK+OzATBgNVHSUEDDAKBggrBgEFBQcDAjALBgNVHQ8EBAMCB4Aw
DQYJKoZIhvcNAQELBQADggEBAEetFAwbs3VXGrfeYzuSqYe7k87yEqwMOkJE5N7M
8wK8PqUmtq4/PIJMMY8DWwX+WxJFiw30LB2TIApYoDstAMlXH+y1AyuEdlZC8kmV
8sEJPBKmfKcgltqPQfnHJzjWlnUlA7kLpDHscemqTVsJIpbcxd3dMsrgmyW7GdfY
9PNgUyCzP6W+7qxwN+4/3ixQOFWRTfpXtHMEsvyrGBVynPrPbWc/uNKHQXj7HzNG
PTT2Cj9L8/qJFhqDbVyhoitNeKoXGXPmCKahb4sOOZt98gNtkBsuzCj0UZsSvDO5
ynjw86ZXbHe5YoIxRTWJDvCAPsz1DyR8fc4rqzdNcwzT9Y8=
-----END CERTIFICATE-----
