Certificate:
    Data:
        Version: 3 (0x2)
        Serial Number:
            84:e7:20:f4:61:7f:7b:29:df:97:6d:78:af:f0:0e:8b
    Signature Algorithm: sha256WithRSAEncryption
        Issuer: C=US, ST=California, L=San Francisco, O=Copyleft Certificate Co, OU=My Organizational Unit, CN=ChangeMe/emailAddress=me@example.net
        Validity
            Not Before: Jan 23 18:29:01 2021 GMT
            Not After : Jan 23 18:29:01 2022 GMT
        Subject: C=US, ST=OH, L=Cincinnati, O=University of Cincinnati, OU=Dept. Electrical Eng. and Computer Sci., CN=client75/emailAddress=franco@gauss.ececs.uc.edu
        Subject Public Key Info:
            Public Key Algorithm: rsaEncryption
                Public-Key: (2048 bit)
                Modulus:
                    00:b6:7a:3b:17:49:95:d9:35:23:9f:f4:11:9d:4f:
                    9f:a1:0d:be:3a:21:38:2a:54:9a:d9:80:7b:d0:a0:
                    41:79:be:f6:e6:5b:51:4d:ee:ef:43:d3:8b:e1:e9:
                    5b:25:d8:0d:b4:c5:11:0d:8d:d6:89:45:00:d5:87:
                    36:bd:89:61:5f:55:54:eb:6a:3e:62:55:cb:95:e6:
                    86:a1:fa:16:83:26:fd:58:88:54:50:47:a1:45:81:
                    a0:55:d1:d2:96:bf:b0:cf:fb:3b:5c:cf:84:76:b0:
                    6c:2f:96:51:06:b3:1c:c8:46:0e:56:0c:5a:0e:b4:
                    86:83:89:75:4d:ea:02:96:af:2d:73:53:33:cf:fc:
                    23:06:da:b9:58:e8:f6:46:c5:c9:07:36:cd:6a:ad:
                    6d:03:96:69:b9:f6:48:03:eb:b6:7c:6d:a1:e8:c2:
                    f6:66:e8:85:53:d0:b8:d8:d5:dd:25:fd:18:4e:84:
                    13:90:9e:12:2a:89:18:dd:14:95:10:cf:64:00:37:
                    66:a0:39:95:46:b8:85:f4:c4:4c:52:cc:8c:06:c6:
                    8d:f0:12:77:68:82:1b:71:ee:6a:97:d3:6d:dd:6f:
                    ed:32:77:ab:5e:37:00:67:0e:8c:d5:2f:dc:8b:82:
                    9d:f1:d2:29:ec:51:4b:fc:d6:0f:0d:e2:4f:5c:85:
                    9c:7b
                Exponent: 65537 (0x10001)
        X509v3 extensions:
            X509v3 Basic Constraints: 
                CA:FALSE
            X509v3 Subject Key Identifier: 
                FE:0F:DA:AA:BB:93:4D:0F:08:8C:E1:0C:CD:D7:F9:46:B3:96:20:56
            X509v3 Authority Key Identifier: 
                keyid:EF:DC:B6:3D:4B:FD:A7:87:05:C5:22:3D:8B:DC:BF:99:2A:EE:E4:DB
                DirName:/C=US/ST=California/L=San Francisco/O=Copyleft Certificate Co/OU=My Organizational Unit/CN=ChangeMe/emailAddress=me@example.net
                serial:87:1E:1D:DC:6B:8C:66:88

            X509v3 Extended Key Usage: 
                TLS Web Client Authentication
            X509v3 Key Usage: 
                Digital Signature
    Signature Algorithm: sha256WithRSAEncryption
         37:41:d0:f9:62:be:7e:05:1a:ba:83:1c:57:cb:e1:16:36:15:
         5a:fa:5c:57:dd:61:64:6f:73:8c:a8:f0:84:18:b0:f0:9b:c3:
         4d:57:82:a8:2d:6f:e6:8d:e6:0b:10:5b:eb:0f:ca:b5:4d:73:
         c0:a8:14:0f:64:30:fd:a9:fd:71:84:34:05:28:20:77:89:65:
         a0:35:4d:45:61:96:d7:7e:42:de:a8:ae:95:d0:21:ff:af:57:
         44:8c:31:9f:a0:36:00:48:85:71:f7:80:2e:a5:40:b4:41:b3:
         33:e7:d8:f2:00:68:00:32:4a:ef:0c:36:0c:c9:01:37:06:f1:
         e8:6e:d7:85:4d:1d:79:5f:82:18:7d:e3:f3:38:38:7c:49:a2:
         e7:e0:bc:83:03:85:3f:3f:c9:eb:7b:e3:dd:e4:d3:ce:15:b2:
         3f:37:74:5a:1f:6d:30:9b:bd:36:3e:69:e3:a4:45:cb:aa:68:
         f5:73:2e:84:6d:41:fd:f9:7e:e7:88:d3:03:70:e2:3c:f0:28:
         4a:c0:fc:94:f5:47:88:46:7d:4a:9a:99:5d:78:32:29:18:a2:
         16:b9:ec:4c:6d:e0:a9:12:7a:a1:45:70:a5:7d:80:50:d8:07:
         cd:9c:fa:39:ff:cd:6c:28:54:5a:e9:d4:c8:7f:fb:b7:01:fe:
         8d:aa:72:c8
-----BEGIN CERTIFICATE-----
MIIFNjCCBB6gAwIBAgIRAITnIPRhf3sp35dteK/wDoswDQYJKoZIhvcNAQELBQAw
ga8xCzAJBgNVBAYTAlVTMRMwEQYDVQQIDApDYWxpZm9ybmlhMRYwFAYDVQQHDA1T
YW4gRnJhbmNpc2NvMSAwHgYDVQQKDBdDb3B5bGVmdCBDZXJ0aWZpY2F0ZSBDbzEf
MB0GA1UECwwWTXkgT3JnYW5pemF0aW9uYWwgVW5pdDERMA8GA1UEAwwIQ2hhbmdl
TWUxHTAbBgkqhkiG9w0BCQEWDm1lQGV4YW1wbGUubmV0MB4XDTIxMDEyMzE4Mjkw
MVoXDTIyMDEyMzE4MjkwMVowgcExCzAJBgNVBAYTAlVTMQswCQYDVQQIDAJPSDET
MBEGA1UEBwwKQ2luY2lubmF0aTEhMB8GA1UECgwYVW5pdmVyc2l0eSBvZiBDaW5j
aW5uYXRpMTAwLgYDVQQLDCdEZXB0LiBFbGVjdHJpY2FsIEVuZy4gYW5kIENvbXB1
dGVyIFNjaS4xETAPBgNVBAMMCGNsaWVudDc1MSgwJgYJKoZIhvcNAQkBFhlmcmFu
Y29AZ2F1c3MuZWNlY3MudWMuZWR1MIIBIjANBgkqhkiG9w0BAQEFAAOCAQ8AMIIB
CgKCAQEAtno7F0mV2TUjn/QRnU+foQ2+OiE4KlSa2YB70KBBeb725ltRTe7vQ9OL
4elbJdgNtMURDY3WiUUA1Yc2vYlhX1VU62o+YlXLleaGofoWgyb9WIhUUEehRYGg
VdHSlr+wz/s7XM+EdrBsL5ZRBrMcyEYOVgxaDrSGg4l1TeoClq8tc1Mzz/wjBtq5
WOj2RsXJBzbNaq1tA5ZpufZIA+u2fG2h6ML2ZuiFU9C42NXdJf0YToQTkJ4SKokY
3RSVEM9kADdmoDmVRriF9MRMUsyMBsaN8BJ3aIIbce5ql9Nt3W/tMnerXjcAZw6M
1S/ci4Kd8dIp7FFL/NYPDeJPXIWcewIDAQABo4IBNzCCATMwCQYDVR0TBAIwADAd
BgNVHQ4EFgQU/g/aqruTTQ8IjOEMzdf5RrOWIFYwgeQGA1UdIwSB3DCB2YAU79y2
PUv9p4cFxSI9i9y/mSru5NuhgbWkgbIwga8xCzAJBgNVBAYTAlVTMRMwEQYDVQQI
DApDYWxpZm9ybmlhMRYwFAYDVQQHDA1TYW4gRnJhbmNpc2NvMSAwHgYDVQQKDBdD
b3B5bGVmdCBDZXJ0aWZpY2F0ZSBDbzEfMB0GA1UECwwWTXkgT3JnYW5pemF0aW9u
YWwgVW5pdDERMA8GA1UEAwwIQ2hhbmdlTWUxHTAbBgkqhkiG9w0BCQEWDm1lQGV4
YW1wbGUubmV0ggkAhx4d3GuMZogwEwYDVR0lBAwwCgYIKwYBBQUHAwIwCwYDVR0P
BAQDAgeAMA0GCSqGSIb3DQEBCwUAA4IBAQA3QdD5Yr5+BRq6gxxXy+EWNhVa+lxX
3WFkb3OMqPCEGLDwm8NNV4KoLW/mjeYLEFvrD8q1TXPAqBQPZDD9qf1xhDQFKCB3
iWWgNU1FYZbXfkLeqK6V0CH/r1dEjDGfoDYASIVx94AupUC0QbMz59jyAGgAMkrv
DDYMyQE3BvHobteFTR15X4IYfePzODh8SaLn4LyDA4U/P8nre+Pd5NPOFbI/N3Ra
H20wm702PmnjpEXLqmj1cy6EbUH9+X7niNMDcOI88ChKwPyU9UeIRn1KmpldeDIp
GKIWuexMbeCpEnqhRXClfYBQ2AfNnPo5/81sKFRa6dTIf/u3Af6NqnLI
-----END CERTIFICATE-----
