Certificate:
    Data:
        Version: 3 (0x2)
        Serial Number:
            3b:ad:5c:80:41:06:92:dc:72:f5:48:9c:37:db:a3:16
    Signature Algorithm: sha256WithRSAEncryption
        Issuer: C=US, ST=California, L=San Francisco, O=Copyleft Certificate Co, OU=My Organizational Unit, CN=ChangeMe/emailAddress=me@example.net
        Validity
            Not Before: Jan 23 18:28:03 2021 GMT
            Not After : Jan 23 18:28:03 2022 GMT
        Subject: C=US, ST=OH, L=Cincinnati, O=University of Cincinnati, OU=Dept. Electrical Eng. and Computer Sci., CN=client33/emailAddress=franco@gauss.ececs.uc.edu
        Subject Public Key Info:
            Public Key Algorithm: rsaEncryption
                Public-Key: (2048 bit)
                Modulus:
                    00:a3:f7:bd:4a:1d:79:6f:31:75:d4:e8:ab:a1:f7:
                    32:43:4e:82:44:5f:25:f8:86:a2:53:42:61:48:6e:
                    b2:58:3a:8f:2c:d1:65:5e:64:6e:4b:bb:1c:1d:ca:
                    74:d3:2a:f5:73:ca:25:f6:9b:2f:03:8f:d9:b7:5c:
                    28:58:cc:30:a1:12:b4:e2:98:6f:70:89:ef:75:fc:
                    4e:d7:97:fc:a2:02:d3:20:a0:dc:73:b5:0f:1e:7c:
                    66:e7:44:6f:db:8c:2b:a6:7c:96:3b:90:60:aa:3d:
                    9b:21:95:cc:a8:cb:ce:d5:50:b6:b5:ff:9a:0f:d8:
                    3e:a4:fe:4a:e8:7d:dc:cc:87:b5:29:31:55:c8:a1:
                    58:89:46:18:7d:2c:1c:ae:46:98:59:ad:86:f6:15:
                    e5:7c:aa:be:94:82:f5:6a:53:5f:31:91:91:9e:79:
                    dd:fb:12:82:81:b7:84:91:f7:cc:3e:16:c9:97:48:
                    79:fe:97:5e:68:f6:11:40:59:db:64:52:5a:3b:b0:
                    50:36:03:da:ed:07:98:e0:57:a3:85:96:ee:55:d9:
                    d0:07:35:27:58:24:a0:f9:73:eb:93:46:b7:9f:97:
                    cb:2a:30:db:50:7f:c2:6a:94:2e:3c:11:fd:ad:a1:
                    a9:7b:c9:6a:71:a9:a1:e7:58:a2:c3:e5:34:c4:fe:
                    36:c3
                Exponent: 65537 (0x10001)
        X509v3 extensions:
            X509v3 Basic Constraints: 
                CA:FALSE
            X509v3 Subject Key Identifier: 
                06:97:35:3E:BF:C5:E0:1B:6B:58:96:CD:3F:CE:EB:A2:ED:CE:66:7E
            X509v3 Authority Key Identifier: 
                keyid:EF:DC:B6:3D:4B:FD:A7:87:05:C5:22:3D:8B:DC:BF:99:2A:EE:E4:DB
                DirName:/C=US/ST=California/L=San Francisco/O=Copyleft Certificate Co/OU=My Organizational Unit/CN=ChangeMe/emailAddress=me@example.net
                serial:87:1E:1D:DC:6B:8C:66:88

            X509v3 Extended Key Usage: 
                TLS Web Client Authentication
            X509v3 Key Usage: 
                Digital Signature
    Signature Algorithm: sha256WithRSAEncryption
         4e:b8:a9:45:1a:53:be:26:73:0f:f2:3b:17:11:77:51:36:03:
         88:0f:0b:33:62:f0:c9:15:47:eb:1c:38:a0:d2:1a:7f:59:0b:
         49:f5:bf:85:a3:58:35:e7:da:d3:ac:26:a0:16:7a:2f:ad:a3:
         15:d0:db:ca:04:c3:67:19:fe:1d:f4:a5:5b:8c:3f:b5:0a:f2:
         ac:83:47:c7:8b:77:12:6a:14:f6:c7:51:d2:2f:4b:3f:ba:1c:
         9f:07:fa:77:f8:7f:3f:53:9c:bc:a8:9b:28:f2:a7:e1:45:04:
         1d:85:7f:c0:b5:88:59:4a:ca:1b:06:4f:9e:68:e5:af:89:27:
         f2:a2:d9:08:5b:d9:d4:7d:c7:53:ea:9f:74:5d:6b:25:82:04:
         f2:bd:e2:e2:68:41:e7:0c:87:87:82:1d:3a:93:dd:f0:1f:ef:
         ad:16:5a:4d:cb:59:f2:e0:d8:f2:cc:79:d9:ee:e1:1e:ec:1c:
         aa:51:0b:07:0b:42:f4:bb:d9:98:56:f5:67:d6:12:e6:9b:ec:
         d3:9b:9c:f7:d8:88:a2:96:13:a1:b5:5d:02:09:d7:3b:7c:72:
         3f:00:b0:68:ff:e7:3d:1b:95:14:86:89:09:aa:38:06:c3:a5:
         3f:ea:56:f9:3e:6f:e8:cf:32:de:4b:23:49:e9:21:40:0e:b0:
         82:93:09:c4
-----BEGIN CERTIFICATE-----
MIIFNTCCBB2gAwIBAgIQO61cgEEGktxy9UicN9ujFjANBgkqhkiG9w0BAQsFADCB
rzELMAkGA1UEBhMCVVMxEzARBgNVBAgMCkNhbGlmb3JuaWExFjAUBgNVBAcMDVNh
biBGcmFuY2lzY28xIDAeBgNVBAoMF0NvcHlsZWZ0IENlcnRpZmljYXRlIENvMR8w
HQYDVQQLDBZNeSBPcmdhbml6YXRpb25hbCBVbml0MREwDwYDVQQDDAhDaGFuZ2VN
ZTEdMBsGCSqGSIb3DQEJARYObWVAZXhhbXBsZS5uZXQwHhcNMjEwMTIzMTgyODAz
WhcNMjIwMTIzMTgyODAzWjCBwTELMAkGA1UEBhMCVVMxCzAJBgNVBAgMAk9IMRMw
EQYDVQQHDApDaW5jaW5uYXRpMSEwHwYDVQQKDBhVbml2ZXJzaXR5IG9mIENpbmNp
bm5hdGkxMDAuBgNVBAsMJ0RlcHQuIEVsZWN0cmljYWwgRW5nLiBhbmQgQ29tcHV0
ZXIgU2NpLjERMA8GA1UEAwwIY2xpZW50MzMxKDAmBgkqhkiG9w0BCQEWGWZyYW5j
b0BnYXVzcy5lY2Vjcy51Yy5lZHUwggEiMA0GCSqGSIb3DQEBAQUAA4IBDwAwggEK
AoIBAQCj971KHXlvMXXU6Kuh9zJDToJEXyX4hqJTQmFIbrJYOo8s0WVeZG5Luxwd
ynTTKvVzyiX2my8Dj9m3XChYzDChErTimG9wie91/E7Xl/yiAtMgoNxztQ8efGbn
RG/bjCumfJY7kGCqPZshlcyoy87VULa1/5oP2D6k/krofdzMh7UpMVXIoViJRhh9
LByuRphZrYb2FeV8qr6UgvVqU18xkZGeed37EoKBt4SR98w+FsmXSHn+l15o9hFA
WdtkUlo7sFA2A9rtB5jgV6OFlu5V2dAHNSdYJKD5c+uTRrefl8sqMNtQf8JqlC48
Ef2toal7yWpxqaHnWKLD5TTE/jbDAgMBAAGjggE3MIIBMzAJBgNVHRMEAjAAMB0G
A1UdDgQWBBQGlzU+v8XgG2tYls0/zuui7c5mfjCB5AYDVR0jBIHcMIHZgBTv3LY9
S/2nhwXFIj2L3L+ZKu7k26GBtaSBsjCBrzELMAkGA1UEBhMCVVMxEzARBgNVBAgM
CkNhbGlmb3JuaWExFjAUBgNVBAcMDVNhbiBGcmFuY2lzY28xIDAeBgNVBAoMF0Nv
cHlsZWZ0IENlcnRpZmljYXRlIENvMR8wHQYDVQQLDBZNeSBPcmdhbml6YXRpb25h
bCBVbml0MREwDwYDVQQDDAhDaGFuZ2VNZTEdMBsGCSqGSIb3DQEJARYObWVAZXhh
bXBsZS5uZXSCCQCHHh3ca4xmiDATBgNVHSUEDDAKBggrBgEFBQcDAjALBgNVHQ8E
BAMCB4AwDQYJKoZIhvcNAQELBQADggEBAE64qUUaU74mcw/yOxcRd1E2A4gPCzNi
8MkVR+scOKDSGn9ZC0n1v4WjWDXn2tOsJqAWei+toxXQ28oEw2cZ/h30pVuMP7UK
8qyDR8eLdxJqFPbHUdIvSz+6HJ8H+nf4fz9TnLyomyjyp+FFBB2Ff8C1iFlKyhsG
T55o5a+JJ/Ki2Qhb2dR9x1Pqn3RdayWCBPK94uJoQecMh4eCHTqT3fAf760WWk3L
WfLg2PLMednu4R7sHKpRCwcLQvS72ZhW9WfWEuab7NObnPfYiKKWE6G1XQIJ1zt8
cj8AsGj/5z0blRSGiQmqOAbDpT/qVvk+b+jPMt5LI0npIUAOsIKTCcQ=
-----END CERTIFICATE-----
