Certificate:
    Data:
        Version: 3 (0x2)
        Serial Number:
            12:b0:fa:bf:99:6e:19:30:bf:79:e0:30:28:4a:bd:60
    Signature Algorithm: sha256WithRSAEncryption
        Issuer: C=US, ST=California, L=San Francisco, O=Copyleft Certificate Co, OU=My Organizational Unit, CN=ChangeMe/emailAddress=me@example.net
        Validity
            Not Before: Nov 10 17:47:02 2023 GMT
            Not After : Nov  9 17:47:02 2024 GMT
        Subject: C=US, ST=OH, L=Cincinnati, O=University of Cincinnati, OU=Dept_Elec_Com_ Eng_Com_Sci., CN=client129/emailAddress=franco@gauss.ececs.uc.edu
        Subject Public Key Info:
            Public Key Algorithm: rsaEncryption
                Public-Key: (2048 bit)
                Modulus:
                    00:d9:c1:1d:fe:f2:ec:f1:27:d2:2b:f0:1d:d2:5f:
                    bd:0e:64:df:5d:1a:02:70:00:39:1b:e7:97:0a:55:
                    33:ab:c2:a0:bd:6c:2e:64:49:e0:60:b7:51:5e:a8:
                    c1:c7:91:b3:c1:ed:5e:6b:58:01:39:02:a2:f4:36:
                    9f:89:18:af:54:0f:0e:be:d0:52:d3:33:f7:0b:0f:
                    94:51:12:ca:5f:8f:e0:61:51:ca:5d:ff:65:dc:2a:
                    e2:7f:38:0e:2c:2d:f0:7e:33:fb:fd:8c:59:31:bc:
                    43:a2:6d:48:52:8c:36:5d:9a:ab:1f:d3:50:3c:fe:
                    26:b2:1b:6a:c0:91:fa:0e:91:57:46:86:71:cf:d3:
                    d4:6b:a8:64:bf:cb:6e:0c:21:25:3e:0c:30:05:2c:
                    58:42:9a:94:eb:3c:1a:b8:43:25:2b:8b:63:da:ee:
                    d9:0f:98:06:1c:e3:d5:86:86:51:15:ca:ca:35:ce:
                    b1:66:df:1b:57:87:2a:02:6c:98:ce:0d:c5:33:57:
                    44:02:3a:1d:7d:1e:7c:db:a0:2d:a0:a2:86:25:b6:
                    05:5c:6b:cd:70:96:b1:cb:9d:1e:fb:58:68:1c:03:
                    7d:d7:a4:23:2c:bf:07:e4:76:82:3a:98:64:69:10:
                    3a:78:06:3b:a5:2c:ed:c1:93:b4:3b:cf:ec:6f:b5:
                    98:3d
                Exponent: 65537 (0x10001)
        X509v3 extensions:
            X509v3 Basic Constraints: 
                CA:FALSE
            X509v3 Subject Key Identifier: 
                CA:20:B7:67:DA:F0:3B:28:80:04:12:0E:99:A1:92:F0:42:F6:BD:CA
            X509v3 Authority Key Identifier: 
                keyid:C8:27:DA:64:30:08:40:08:4A:25:CC:DC:43:99:DE:77:A1:FE:77:BD
                DirName:/C=US/ST=California/L=San Francisco/O=Copyleft Certificate Co/OU=My Organizational Unit/CN=ChangeMe/emailAddress=me@example.net
                serial:A9:48:C3:7E:FC:1B:B0:A1

            X509v3 Extended Key Usage: 
                TLS Web Client Authentication
            X509v3 Key Usage: 
                Digital Signature
    Signature Algorithm: sha256WithRSAEncryption
         38:2d:03:6a:60:5b:7a:96:3b:35:20:fa:3f:1e:81:0c:32:3f:
         2d:4a:4a:aa:7b:a0:3a:da:20:42:bc:0f:49:10:77:6d:06:05:
         e4:d7:7e:55:49:8e:58:0a:3e:c6:8c:70:b1:4d:35:6b:83:96:
         1e:05:2a:9a:5c:32:5d:89:6b:c8:fb:f5:0f:2a:af:88:02:5a:
         aa:55:5e:28:58:bc:4e:07:bc:a7:ee:80:62:a7:70:9d:58:46:
         2f:47:e5:56:9b:f7:5a:2b:50:1f:3e:c2:5b:d0:9b:5b:95:60:
         96:28:6c:59:a7:d4:8c:1c:fb:0d:4c:c0:f4:e1:33:1d:78:29:
         91:c4:6e:8a:e2:b1:49:84:97:a0:da:fe:e6:0d:c4:d3:65:93:
         9d:e7:84:3e:17:7b:17:cd:54:8b:ca:ed:33:08:fd:ff:05:23:
         f4:c4:3f:4a:8b:ed:b7:bf:77:2c:26:5f:d5:8e:04:88:45:c0:
         bd:f6:2d:8d:2f:af:39:9f:a8:93:66:26:f1:55:32:64:d3:82:
         6d:62:ef:b3:e7:55:32:fe:c5:3d:83:d6:e9:01:78:1c:dc:cc:
         18:3a:e9:47:51:09:4e:37:3e:73:36:bc:11:4d:d1:da:34:e6:
         7c:1d:31:9b:fe:e6:35:d9:67:fb:a4:c6:9a:d1:cd:44:40:66:
         92:65:6a:57
-----BEGIN CERTIFICATE-----
MIIFKjCCBBKgAwIBAgIQErD6v5luGTC/eeAwKEq9YDANBgkqhkiG9w0BAQsFADCB
rzELMAkGA1UEBhMCVVMxEzARBgNVBAgMCkNhbGlmb3JuaWExFjAUBgNVBAcMDVNh
biBGcmFuY2lzY28xIDAeBgNVBAoMF0NvcHlsZWZ0IENlcnRpZmljYXRlIENvMR8w
HQYDVQQLDBZNeSBPcmdhbml6YXRpb25hbCBVbml0MREwDwYDVQQDDAhDaGFuZ2VN
ZTEdMBsGCSqGSIb3DQEJARYObWVAZXhhbXBsZS5uZXQwHhcNMjMxMTEwMTc0NzAy
WhcNMjQxMTA5MTc0NzAyWjCBtjELMAkGA1UEBhMCVVMxCzAJBgNVBAgMAk9IMRMw
EQYDVQQHDApDaW5jaW5uYXRpMSEwHwYDVQQKDBhVbml2ZXJzaXR5IG9mIENpbmNp
bm5hdGkxJDAiBgNVBAsMG0RlcHRfRWxlY19Db21fIEVuZ19Db21fU2NpLjESMBAG
A1UEAwwJY2xpZW50MTI5MSgwJgYJKoZIhvcNAQkBFhlmcmFuY29AZ2F1c3MuZWNl
Y3MudWMuZWR1MIIBIjANBgkqhkiG9w0BAQEFAAOCAQ8AMIIBCgKCAQEA2cEd/vLs
8SfSK/Ad0l+9DmTfXRoCcAA5G+eXClUzq8KgvWwuZEngYLdRXqjBx5Gzwe1ea1gB
OQKi9DafiRivVA8OvtBS0zP3Cw+UURLKX4/gYVHKXf9l3CrifzgOLC3wfjP7/YxZ
MbxDom1IUow2XZqrH9NQPP4mshtqwJH6DpFXRoZxz9PUa6hkv8tuDCElPgwwBSxY
QpqU6zwauEMlK4tj2u7ZD5gGHOPVhoZRFcrKNc6xZt8bV4cqAmyYzg3FM1dEAjod
fR5826AtoKKGJbYFXGvNcJaxy50e+1hoHAN916QjLL8H5HaCOphkaRA6eAY7pSzt
wZO0O8/sb7WYPQIDAQABo4IBNzCCATMwCQYDVR0TBAIwADAdBgNVHQ4EFgQUyiC3
Z9rwOyiABBIOmaGS8EL2vcowgeQGA1UdIwSB3DCB2YAUyCfaZDAIQAhKJczcQ5ne
d6H+d72hgbWkgbIwga8xCzAJBgNVBAYTAlVTMRMwEQYDVQQIDApDYWxpZm9ybmlh
MRYwFAYDVQQHDA1TYW4gRnJhbmNpc2NvMSAwHgYDVQQKDBdDb3B5bGVmdCBDZXJ0
aWZpY2F0ZSBDbzEfMB0GA1UECwwWTXkgT3JnYW5pemF0aW9uYWwgVW5pdDERMA8G
A1UEAwwIQ2hhbmdlTWUxHTAbBgkqhkiG9w0BCQEWDm1lQGV4YW1wbGUubmV0ggkA
qUjDfvwbsKEwEwYDVR0lBAwwCgYIKwYBBQUHAwIwCwYDVR0PBAQDAgeAMA0GCSqG
SIb3DQEBCwUAA4IBAQA4LQNqYFt6ljs1IPo/HoEMMj8tSkqqe6A62iBCvA9JEHdt
BgXk135VSY5YCj7GjHCxTTVrg5YeBSqaXDJdiWvI+/UPKq+IAlqqVV4oWLxOB7yn
7oBip3CdWEYvR+VWm/daK1AfPsJb0JtblWCWKGxZp9SMHPsNTMD04TMdeCmRxG6K
4rFJhJeg2v7mDcTTZZOd54Q+F3sXzVSLyu0zCP3/BSP0xD9Ki+23v3csJl/VjgSI
RcC99i2NL685n6iTZibxVTJk04JtYu+z51Uy/sU9g9bpAXgc3MwYOulHUQlONz5z
NrwRTdHaNOZ8HTGb/uY12Wf7pMaa0c1EQGaSZWpX
-----END CERTIFICATE-----
