Certificate:
    Data:
        Version: 3 (0x2)
        Serial Number:
            bb:b9:02:6c:a2:52:e7:ff:19:09:8b:65:17:11:18:35
    Signature Algorithm: sha256WithRSAEncryption
        Issuer: C=US, ST=California, L=San Francisco, O=Copyleft Certificate Co, OU=My Organizational Unit, CN=ChangeMe/emailAddress=me@example.net
        Validity
            Not Before: Jan 23 18:29:04 2021 GMT
            Not After : Jan 23 18:29:04 2022 GMT
        Subject: C=US, ST=OH, L=Cincinnati, O=University of Cincinnati, OU=Dept. Electrical Eng. and Computer Sci., CN=client78/emailAddress=franco@gauss.ececs.uc.edu
        Subject Public Key Info:
            Public Key Algorithm: rsaEncryption
                Public-Key: (2048 bit)
                Modulus:
                    00:c0:f1:2d:89:a3:e0:8d:b9:aa:fa:f3:da:49:49:
                    2f:35:0b:ef:2c:ec:24:66:98:4d:e6:37:0b:27:7d:
                    77:73:89:09:ef:98:22:4b:9c:3b:82:f2:23:6d:58:
                    cc:dc:76:fa:1a:73:91:07:df:c1:20:61:29:a7:44:
                    bb:ae:94:9b:87:5d:62:75:f7:a3:ca:6a:0d:85:56:
                    f3:39:d3:6b:67:77:ab:57:33:81:23:6c:8d:e8:e3:
                    a3:b1:46:52:00:a9:a2:7b:6a:2d:2e:83:5f:53:2b:
                    ca:32:77:50:6f:e7:e3:d9:14:90:bc:1b:d7:c8:b2:
                    b6:9b:7c:3c:9c:05:85:a5:11:d4:63:6f:d9:71:fb:
                    b2:1e:16:b5:02:fa:ba:1d:5b:b0:2e:4c:e2:4e:74:
                    e5:d4:97:79:9a:51:dc:a3:71:da:7f:b3:92:53:71:
                    a2:d1:4d:27:8b:c0:81:71:ae:d3:d2:10:dd:50:e4:
                    84:02:cb:fb:53:da:ce:e1:79:0e:65:25:8c:95:a1:
                    5a:cc:1b:3d:09:0d:d1:e8:8f:76:7b:e0:08:f9:74:
                    b7:90:a3:de:41:fc:6b:09:31:3a:95:fc:e8:70:93:
                    ff:11:f1:7c:e0:6b:e2:cd:24:bd:70:ce:2c:3e:92:
                    2a:85:29:e0:11:b0:fb:a5:cf:bf:b1:67:06:ae:2c:
                    1b:a1
                Exponent: 65537 (0x10001)
        X509v3 extensions:
            X509v3 Basic Constraints: 
                CA:FALSE
            X509v3 Subject Key Identifier: 
                3C:45:44:BF:0C:F6:04:2B:A4:91:4A:D1:40:20:3B:7C:C9:90:42:FB
            X509v3 Authority Key Identifier: 
                keyid:EF:DC:B6:3D:4B:FD:A7:87:05:C5:22:3D:8B:DC:BF:99:2A:EE:E4:DB
                DirName:/C=US/ST=California/L=San Francisco/O=Copyleft Certificate Co/OU=My Organizational Unit/CN=ChangeMe/emailAddress=me@example.net
                serial:87:1E:1D:DC:6B:8C:66:88

            X509v3 Extended Key Usage: 
                TLS Web Client Authentication
            X509v3 Key Usage: 
                Digital Signature
    Signature Algorithm: sha256WithRSAEncryption
         7f:16:a8:21:ad:ce:c5:19:f1:af:a6:10:1d:9a:e3:9e:7f:42:
         d8:4d:73:20:c7:aa:20:22:88:69:85:10:b5:1c:bd:ed:cf:9e:
         3d:ca:21:69:e0:45:f6:03:34:db:f4:88:fb:c3:be:5b:97:e5:
         7d:8e:93:0a:52:de:6d:54:ac:ac:04:ef:06:9c:3e:fa:89:0b:
         db:a1:fe:8d:15:df:f0:ae:7a:7e:9b:a5:de:57:6c:cf:7f:44:
         55:70:86:93:ad:60:13:75:b8:d3:6f:d6:63:e3:cb:7e:69:67:
         e3:84:87:33:50:2a:ee:62:e0:eb:13:51:b0:79:81:0c:38:69:
         17:67:0e:56:ca:8a:9d:7c:6e:a4:d3:a3:34:a6:9f:f8:f6:1d:
         21:66:b7:8a:22:8c:e1:66:02:db:53:ae:89:09:f9:2a:c4:f2:
         ce:8b:32:d9:27:94:69:17:02:b0:d2:4d:7f:32:42:58:d9:0e:
         02:a4:6d:93:ca:ab:de:a2:be:23:f9:11:f7:bf:0f:22:0c:d5:
         3f:53:08:34:d4:d0:c0:df:2e:56:b5:33:3b:22:7f:28:44:af:
         e6:f8:71:11:51:2b:28:8e:bc:f2:ae:df:b1:a8:a3:a1:f0:1f:
         18:aa:ba:55:40:73:cc:c6:7a:54:57:eb:6f:b6:13:ce:9e:7e:
         7b:31:16:18
-----BEGIN CERTIFICATE-----
MIIFNjCCBB6gAwIBAgIRALu5AmyiUuf/GQmLZRcRGDUwDQYJKoZIhvcNAQELBQAw
ga8xCzAJBgNVBAYTAlVTMRMwEQYDVQQIDApDYWxpZm9ybmlhMRYwFAYDVQQHDA1T
YW4gRnJhbmNpc2NvMSAwHgYDVQQKDBdDb3B5bGVmdCBDZXJ0aWZpY2F0ZSBDbzEf
MB0GA1UECwwWTXkgT3JnYW5pemF0aW9uYWwgVW5pdDERMA8GA1UEAwwIQ2hhbmdl
TWUxHTAbBgkqhkiG9w0BCQEWDm1lQGV4YW1wbGUubmV0MB4XDTIxMDEyMzE4Mjkw
NFoXDTIyMDEyMzE4MjkwNFowgcExCzAJBgNVBAYTAlVTMQswCQYDVQQIDAJPSDET
MBEGA1UEBwwKQ2luY2lubmF0aTEhMB8GA1UECgwYVW5pdmVyc2l0eSBvZiBDaW5j
aW5uYXRpMTAwLgYDVQQLDCdEZXB0LiBFbGVjdHJpY2FsIEVuZy4gYW5kIENvbXB1
dGVyIFNjaS4xETAPBgNVBAMMCGNsaWVudDc4MSgwJgYJKoZIhvcNAQkBFhlmcmFu
Y29AZ2F1c3MuZWNlY3MudWMuZWR1MIIBIjANBgkqhkiG9w0BAQEFAAOCAQ8AMIIB
CgKCAQEAwPEtiaPgjbmq+vPaSUkvNQvvLOwkZphN5jcLJ313c4kJ75giS5w7gvIj
bVjM3Hb6GnORB9/BIGEpp0S7rpSbh11idfejymoNhVbzOdNrZ3erVzOBI2yN6OOj
sUZSAKmie2otLoNfUyvKMndQb+fj2RSQvBvXyLK2m3w8nAWFpRHUY2/ZcfuyHha1
Avq6HVuwLkziTnTl1Jd5mlHco3Haf7OSU3Gi0U0ni8CBca7T0hDdUOSEAsv7U9rO
4XkOZSWMlaFazBs9CQ3R6I92e+AI+XS3kKPeQfxrCTE6lfzocJP/EfF84GvizSS9
cM4sPpIqhSngEbD7pc+/sWcGriwboQIDAQABo4IBNzCCATMwCQYDVR0TBAIwADAd
BgNVHQ4EFgQUPEVEvwz2BCukkUrRQCA7fMmQQvswgeQGA1UdIwSB3DCB2YAU79y2
PUv9p4cFxSI9i9y/mSru5NuhgbWkgbIwga8xCzAJBgNVBAYTAlVTMRMwEQYDVQQI
DApDYWxpZm9ybmlhMRYwFAYDVQQHDA1TYW4gRnJhbmNpc2NvMSAwHgYDVQQKDBdD
b3B5bGVmdCBDZXJ0aWZpY2F0ZSBDbzEfMB0GA1UECwwWTXkgT3JnYW5pemF0aW9u
YWwgVW5pdDERMA8GA1UEAwwIQ2hhbmdlTWUxHTAbBgkqhkiG9w0BCQEWDm1lQGV4
YW1wbGUubmV0ggkAhx4d3GuMZogwEwYDVR0lBAwwCgYIKwYBBQUHAwIwCwYDVR0P
BAQDAgeAMA0GCSqGSIb3DQEBCwUAA4IBAQB/Fqghrc7FGfGvphAdmuOef0LYTXMg
x6ogIohphRC1HL3tz549yiFp4EX2AzTb9Ij7w75bl+V9jpMKUt5tVKysBO8GnD76
iQvbof6NFd/wrnp+m6XeV2zPf0RVcIaTrWATdbjTb9Zj48t+aWfjhIczUCruYuDr
E1GweYEMOGkXZw5WyoqdfG6k06M0pp/49h0hZreKIozhZgLbU66JCfkqxPLOizLZ
J5RpFwKw0k1/MkJY2Q4CpG2Tyqveor4j+RH3vw8iDNU/Uwg01NDA3y5WtTM7In8o
RK/m+HERUSsojrzyrt+xqKOh8B8YqrpVQHPMxnpUV+tvthPOnn57MRYY
-----END CERTIFICATE-----
