Certificate:
    Data:
        Version: 3 (0x2)
        Serial Number:
            0f:9f:7b:33:75:7c:ad:7f:3d:6a:e4:1c:32:bb:31:25
    Signature Algorithm: sha256WithRSAEncryption
        Issuer: C=US, ST=California, L=San Francisco, O=Copyleft Certificate Co, OU=My Organizational Unit, CN=ChangeMe/emailAddress=me@example.net
        Validity
            Not Before: Nov 11 01:43:30 2023 GMT
            Not After : Nov 10 01:43:30 2024 GMT
        Subject: C=US, ST=OH, L=Cincinnati, O=University of Cincinnati, OU=Dept. Elec. Comp. Eng. Comp. Sci., CN=client57/emailAddress=franco@gauss.ececs.uc.edu
        Subject Public Key Info:
            Public Key Algorithm: rsaEncryption
                Public-Key: (2048 bit)
                Modulus:
                    00:c0:f2:8d:8e:dd:85:9a:bd:55:aa:6f:fb:43:a6:
                    fa:6f:7e:34:d0:1f:16:6a:a3:21:6f:3c:60:28:a2:
                    8a:ef:a2:e5:4f:91:d2:d8:0e:ce:06:41:1b:da:c9:
                    1f:09:7e:d6:f6:6b:d0:41:6e:24:ed:cb:13:7b:be:
                    0c:cc:38:e7:59:14:48:f6:2c:cf:e2:89:c0:34:ae:
                    87:89:67:09:5c:ec:8f:ce:5f:ab:49:9e:30:44:19:
                    a8:75:0d:c8:f8:9b:d7:f1:74:31:65:de:01:65:4c:
                    ff:a9:ab:83:eb:2f:6a:de:6d:46:b4:51:f3:a5:32:
                    18:ec:bb:4e:21:eb:3a:3e:87:5e:f2:5b:65:47:d8:
                    05:60:c1:90:dc:45:f2:df:ba:d5:a8:03:ea:7b:1b:
                    84:2d:6d:03:d3:bd:48:39:e5:a0:17:38:e7:05:95:
                    a7:36:df:e7:19:b5:63:a0:71:b3:a3:07:b4:b1:07:
                    a1:41:fc:60:6e:3c:33:c6:c2:40:4c:6c:07:4f:b1:
                    90:15:ca:96:d0:43:85:2c:d6:0c:9d:a5:ed:37:cb:
                    d2:9b:d3:94:2a:a6:0a:a2:36:9d:54:2b:bd:29:f0:
                    42:b2:63:fd:c7:c4:7e:34:ce:b0:85:30:41:1c:18:
                    c7:d1:76:0d:41:45:2a:e4:cb:7a:72:a9:24:6a:fc:
                    49:13
                Exponent: 65537 (0x10001)
        X509v3 extensions:
            X509v3 Basic Constraints: 
                CA:FALSE
            X509v3 Subject Key Identifier: 
                75:5C:9C:BA:75:82:B8:19:FF:CF:56:FC:76:EC:C6:51:BD:ED:8A:EF
            X509v3 Authority Key Identifier: 
                keyid:73:DE:A0:43:0F:AE:B1:9E:E8:59:69:18:50:A1:1A:1F:D4:A1:E3:F0
                DirName:/C=US/ST=California/L=San Francisco/O=Copyleft Certificate Co/OU=My Organizational Unit/CN=ChangeMe/emailAddress=me@example.net
                serial:E9:BB:CB:16:C5:32:BE:3B

            X509v3 Extended Key Usage: 
                TLS Web Client Authentication
            X509v3 Key Usage: 
                Digital Signature
    Signature Algorithm: sha256WithRSAEncryption
         75:f9:37:82:58:6a:41:93:66:39:05:3b:d2:16:00:99:31:20:
         b6:74:57:b2:8b:22:4f:ae:ac:9d:95:5c:ae:10:08:8d:48:27:
         d8:29:14:d9:3d:23:6f:a7:29:c0:eb:44:36:89:d2:80:61:60:
         00:aa:cf:14:0d:fd:69:14:72:3f:62:ac:89:a8:45:8b:96:a0:
         43:c8:00:f3:9d:3a:32:b6:cb:f8:d0:1d:e7:1f:5e:c3:27:1f:
         ef:1e:15:52:3e:91:0e:bf:ab:b7:20:fd:b6:28:ee:4e:9c:08:
         c3:f3:19:7b:55:0d:85:f3:56:c9:07:52:ca:78:3d:b6:1e:e8:
         dd:20:e2:33:f5:09:50:86:b6:05:1b:cd:11:79:93:c4:51:25:
         a4:9b:b4:66:50:8d:3b:0a:f6:0d:e3:ad:5f:a0:8d:90:5b:74:
         43:16:7d:a1:de:d8:db:7b:40:d4:9c:3c:24:9a:79:4e:fd:d1:
         81:ac:91:f8:ae:a7:ac:62:28:41:4b:e3:48:c1:73:f7:bc:78:
         ce:de:1e:80:9b:2c:d0:a5:67:13:1f:39:76:2f:81:6d:32:60:
         d5:be:6d:ec:33:ea:fd:67:f7:40:13:1a:82:fa:c1:f8:8a:8f:
         1c:95:e7:3e:32:56:b1:5b:af:4c:f3:79:d4:bc:0a:76:91:b5:
         9c:ee:2e:04
-----BEGIN CERTIFICATE-----
MIIFLzCCBBegAwIBAgIQD597M3V8rX89auQcMrsxJTANBgkqhkiG9w0BAQsFADCB
rzELMAkGA1UEBhMCVVMxEzARBgNVBAgMCkNhbGlmb3JuaWExFjAUBgNVBAcMDVNh
biBGcmFuY2lzY28xIDAeBgNVBAoMF0NvcHlsZWZ0IENlcnRpZmljYXRlIENvMR8w
HQYDVQQLDBZNeSBPcmdhbml6YXRpb25hbCBVbml0MREwDwYDVQQDDAhDaGFuZ2VN
ZTEdMBsGCSqGSIb3DQEJARYObWVAZXhhbXBsZS5uZXQwHhcNMjMxMTExMDE0MzMw
WhcNMjQxMTEwMDE0MzMwWjCBuzELMAkGA1UEBhMCVVMxCzAJBgNVBAgMAk9IMRMw
EQYDVQQHDApDaW5jaW5uYXRpMSEwHwYDVQQKDBhVbml2ZXJzaXR5IG9mIENpbmNp
bm5hdGkxKjAoBgNVBAsMIURlcHQuIEVsZWMuIENvbXAuIEVuZy4gQ29tcC4gU2Np
LjERMA8GA1UEAwwIY2xpZW50NTcxKDAmBgkqhkiG9w0BCQEWGWZyYW5jb0BnYXVz
cy5lY2Vjcy51Yy5lZHUwggEiMA0GCSqGSIb3DQEBAQUAA4IBDwAwggEKAoIBAQDA
8o2O3YWavVWqb/tDpvpvfjTQHxZqoyFvPGAooorvouVPkdLYDs4GQRvayR8Jftb2
a9BBbiTtyxN7vgzMOOdZFEj2LM/iicA0roeJZwlc7I/OX6tJnjBEGah1Dcj4m9fx
dDFl3gFlTP+pq4PrL2rebUa0UfOlMhjsu04h6zo+h17yW2VH2AVgwZDcRfLfutWo
A+p7G4QtbQPTvUg55aAXOOcFlac23+cZtWOgcbOjB7SxB6FB/GBuPDPGwkBMbAdP
sZAVypbQQ4Us1gydpe03y9Kb05QqpgqiNp1UK70p8EKyY/3HxH40zrCFMEEcGMfR
dg1BRSrky3pyqSRq/EkTAgMBAAGjggE3MIIBMzAJBgNVHRMEAjAAMB0GA1UdDgQW
BBR1XJy6dYK4Gf/PVvx27MZRve2K7zCB5AYDVR0jBIHcMIHZgBRz3qBDD66xnuhZ
aRhQoRof1KHj8KGBtaSBsjCBrzELMAkGA1UEBhMCVVMxEzARBgNVBAgMCkNhbGlm
b3JuaWExFjAUBgNVBAcMDVNhbiBGcmFuY2lzY28xIDAeBgNVBAoMF0NvcHlsZWZ0
IENlcnRpZmljYXRlIENvMR8wHQYDVQQLDBZNeSBPcmdhbml6YXRpb25hbCBVbml0
MREwDwYDVQQDDAhDaGFuZ2VNZTEdMBsGCSqGSIb3DQEJARYObWVAZXhhbXBsZS5u
ZXSCCQDpu8sWxTK+OzATBgNVHSUEDDAKBggrBgEFBQcDAjALBgNVHQ8EBAMCB4Aw
DQYJKoZIhvcNAQELBQADggEBAHX5N4JYakGTZjkFO9IWAJkxILZ0V7KLIk+urJ2V
XK4QCI1IJ9gpFNk9I2+nKcDrRDaJ0oBhYACqzxQN/WkUcj9irImoRYuWoEPIAPOd
OjK2y/jQHecfXsMnH+8eFVI+kQ6/q7cg/bYo7k6cCMPzGXtVDYXzVskHUsp4PbYe
6N0g4jP1CVCGtgUbzRF5k8RRJaSbtGZQjTsK9g3jrV+gjZBbdEMWfaHe2Nt7QNSc
PCSaeU790YGskfiup6xiKEFL40jBc/e8eM7eHoCbLNClZxMfOXYvgW0yYNW+bewz
6v1n90ATGoL6wfiKjxyV5z4yVrFbr0zzedS8CnaRtZzuLgQ=
-----END CERTIFICATE-----
