Certificate:
    Data:
        Version: 3 (0x2)
        Serial Number:
            eb:5b:81:d5:2e:52:91:4c:a0:1d:d2:aa:56:9d:5a:b2
    Signature Algorithm: sha256WithRSAEncryption
        Issuer: C=US, ST=California, L=San Francisco, O=Copyleft Certificate Co, OU=My Organizational Unit, CN=ChangeMe/emailAddress=me@example.net
        Validity
            Not Before: Nov 11 01:45:54 2023 GMT
            Not After : Nov 10 01:45:54 2024 GMT
        Subject: C=US, ST=OH, L=Cincinnati, O=University of Cincinnati, OU=Dept. Elec. Comp. Eng. Comp. Sci., CN=client93/emailAddress=franco@gauss.ececs.uc.edu
        Subject Public Key Info:
            Public Key Algorithm: rsaEncryption
                Public-Key: (2048 bit)
                Modulus:
                    00:bd:fe:10:55:4e:57:aa:78:7f:5c:82:0f:38:05:
                    65:95:b7:12:47:42:1f:6c:c1:17:04:52:80:2f:9d:
                    04:83:83:f3:ea:8b:03:b7:ad:07:75:11:0c:9f:54:
                    dc:50:2f:23:6f:94:5c:a6:7a:d0:04:f1:94:bf:9a:
                    d3:b8:af:c5:ab:8b:a8:06:09:f9:93:b9:eb:3c:22:
                    ce:3b:8a:09:8f:b6:65:f2:7a:0f:a8:76:9e:7f:b4:
                    10:51:e6:01:e8:02:db:e2:8a:de:f8:4e:20:b5:97:
                    51:61:7e:10:61:4a:45:7b:6a:6b:ab:44:cc:4e:de:
                    50:44:2f:34:a9:4c:a5:03:78:e6:82:6f:3c:40:db:
                    88:cc:5e:43:8b:76:56:d4:7b:b0:66:61:17:f7:21:
                    b2:91:fe:4c:ad:9a:e2:96:0a:7c:1a:25:85:51:ed:
                    5a:7b:75:2d:f9:fb:92:96:d9:01:91:74:18:94:7a:
                    ca:eb:a2:94:77:c7:3f:d1:63:2e:53:75:e3:08:87:
                    b2:64:10:f5:c2:15:24:b6:cd:13:36:ec:5f:b6:2d:
                    65:03:3f:d4:f4:0e:ef:62:1f:dd:fd:1b:d5:9f:a5:
                    2c:a9:c7:c1:90:1a:2f:6d:b6:0c:85:8d:ea:0c:27:
                    5d:a7:12:0d:34:ac:58:86:70:bc:6c:81:a4:47:6e:
                    f9:01
                Exponent: 65537 (0x10001)
        X509v3 extensions:
            X509v3 Basic Constraints: 
                CA:FALSE
            X509v3 Subject Key Identifier: 
                B3:B8:B5:8C:41:DE:81:3C:65:24:78:74:49:67:44:9F:12:6B:36:2D
            X509v3 Authority Key Identifier: 
                keyid:73:DE:A0:43:0F:AE:B1:9E:E8:59:69:18:50:A1:1A:1F:D4:A1:E3:F0
                DirName:/C=US/ST=California/L=San Francisco/O=Copyleft Certificate Co/OU=My Organizational Unit/CN=ChangeMe/emailAddress=me@example.net
                serial:E9:BB:CB:16:C5:32:BE:3B

            X509v3 Extended Key Usage: 
                TLS Web Client Authentication
            X509v3 Key Usage: 
                Digital Signature
    Signature Algorithm: sha256WithRSAEncryption
         36:eb:d6:a0:c6:f7:23:f3:a6:c2:90:eb:9a:15:ec:97:88:3b:
         36:be:2b:79:86:b1:cc:71:f0:4a:ac:7f:4e:76:9c:d3:97:f3:
         c9:92:b0:55:d7:7c:e9:45:92:52:f8:d4:aa:29:2f:8b:df:9d:
         95:0c:bf:d7:f1:57:63:1e:e5:1f:da:d4:c7:52:90:8e:f5:05:
         df:a3:26:85:3f:a5:d8:46:99:6d:8f:12:4d:b0:7a:61:39:b0:
         26:2c:94:9d:f8:33:5b:81:e4:6d:19:b0:83:09:66:cd:26:09:
         f0:3f:7b:d3:98:19:58:40:55:b2:70:a6:73:2a:d8:4c:20:42:
         a4:27:1c:69:fd:fe:76:cc:65:5d:bd:92:d2:29:9c:08:0b:3d:
         ee:ad:fc:0f:58:52:5d:7d:aa:28:83:a4:68:b3:0e:67:e9:b7:
         14:86:1e:9e:c8:46:7c:8e:81:0b:5d:dc:06:3d:99:67:38:5e:
         5a:20:b3:fe:42:86:81:63:13:0b:94:b0:49:ba:ba:21:1c:65:
         4c:fb:ac:60:9b:b2:5b:d8:f4:be:3c:f6:1f:29:27:66:3c:08:
         4b:7e:d2:87:9f:36:1c:cf:7a:71:5f:aa:b1:64:ab:49:e3:1d:
         00:07:cb:a6:39:2a:99:18:82:bc:65:d5:88:a1:1e:59:a6:79:
         ba:81:48:cc
-----BEGIN CERTIFICATE-----
MIIFMDCCBBigAwIBAgIRAOtbgdUuUpFMoB3SqladWrIwDQYJKoZIhvcNAQELBQAw
ga8xCzAJBgNVBAYTAlVTMRMwEQYDVQQIDApDYWxpZm9ybmlhMRYwFAYDVQQHDA1T
YW4gRnJhbmNpc2NvMSAwHgYDVQQKDBdDb3B5bGVmdCBDZXJ0aWZpY2F0ZSBDbzEf
MB0GA1UECwwWTXkgT3JnYW5pemF0aW9uYWwgVW5pdDERMA8GA1UEAwwIQ2hhbmdl
TWUxHTAbBgkqhkiG9w0BCQEWDm1lQGV4YW1wbGUubmV0MB4XDTIzMTExMTAxNDU1
NFoXDTI0MTExMDAxNDU1NFowgbsxCzAJBgNVBAYTAlVTMQswCQYDVQQIDAJPSDET
MBEGA1UEBwwKQ2luY2lubmF0aTEhMB8GA1UECgwYVW5pdmVyc2l0eSBvZiBDaW5j
aW5uYXRpMSowKAYDVQQLDCFEZXB0LiBFbGVjLiBDb21wLiBFbmcuIENvbXAuIFNj
aS4xETAPBgNVBAMMCGNsaWVudDkzMSgwJgYJKoZIhvcNAQkBFhlmcmFuY29AZ2F1
c3MuZWNlY3MudWMuZWR1MIIBIjANBgkqhkiG9w0BAQEFAAOCAQ8AMIIBCgKCAQEA
vf4QVU5Xqnh/XIIPOAVllbcSR0IfbMEXBFKAL50Eg4Pz6osDt60HdREMn1TcUC8j
b5RcpnrQBPGUv5rTuK/Fq4uoBgn5k7nrPCLOO4oJj7Zl8noPqHaef7QQUeYB6ALb
4ore+E4gtZdRYX4QYUpFe2prq0TMTt5QRC80qUylA3jmgm88QNuIzF5Di3ZW1Huw
ZmEX9yGykf5MrZrilgp8GiWFUe1ae3Ut+fuSltkBkXQYlHrK66KUd8c/0WMuU3Xj
CIeyZBD1whUkts0TNuxfti1lAz/U9A7vYh/d/RvVn6UsqcfBkBovbbYMhY3qDCdd
pxINNKxYhnC8bIGkR275AQIDAQABo4IBNzCCATMwCQYDVR0TBAIwADAdBgNVHQ4E
FgQUs7i1jEHegTxlJHh0SWdEnxJrNi0wgeQGA1UdIwSB3DCB2YAUc96gQw+usZ7o
WWkYUKEaH9Sh4/ChgbWkgbIwga8xCzAJBgNVBAYTAlVTMRMwEQYDVQQIDApDYWxp
Zm9ybmlhMRYwFAYDVQQHDA1TYW4gRnJhbmNpc2NvMSAwHgYDVQQKDBdDb3B5bGVm
dCBDZXJ0aWZpY2F0ZSBDbzEfMB0GA1UECwwWTXkgT3JnYW5pemF0aW9uYWwgVW5p
dDERMA8GA1UEAwwIQ2hhbmdlTWUxHTAbBgkqhkiG9w0BCQEWDm1lQGV4YW1wbGUu
bmV0ggkA6bvLFsUyvjswEwYDVR0lBAwwCgYIKwYBBQUHAwIwCwYDVR0PBAQDAgeA
MA0GCSqGSIb3DQEBCwUAA4IBAQA269agxvcj86bCkOuaFeyXiDs2vit5hrHMcfBK
rH9OdpzTl/PJkrBV13zpRZJS+NSqKS+L352VDL/X8VdjHuUf2tTHUpCO9QXfoyaF
P6XYRpltjxJNsHphObAmLJSd+DNbgeRtGbCDCWbNJgnwP3vTmBlYQFWycKZzKthM
IEKkJxxp/f52zGVdvZLSKZwICz3urfwPWFJdfaoog6Rosw5n6bcUhh6eyEZ8joEL
XdwGPZlnOF5aILP+QoaBYxMLlLBJurohHGVM+6xgm7Jb2PS+PPYfKSdmPAhLftKH
nzYcz3pxX6qxZKtJ4x0AB8umOSqZGIK8ZdWIoR5Zpnm6gUjM
-----END CERTIFICATE-----
