Certificate:
    Data:
        Version: 3 (0x2)
        Serial Number:
            f7:4a:32:01:fc:7c:eb:d9:5b:c4:52:c4:3b:4a:c5:b3
    Signature Algorithm: sha256WithRSAEncryption
        Issuer: C=US, ST=California, L=San Francisco, O=Copyleft Certificate Co, OU=My Organizational Unit, CN=ChangeMe/emailAddress=me@example.net
        Validity
            Not Before: Nov 10 17:46:10 2023 GMT
            Not After : Nov  9 17:46:10 2024 GMT
        Subject: C=US, ST=OH, L=Cincinnati, O=University of Cincinnati, OU=Dept_Elec_Com_ Eng_Com_Sci., CN=client116/emailAddress=franco@gauss.ececs.uc.edu
        Subject Public Key Info:
            Public Key Algorithm: rsaEncryption
                Public-Key: (2048 bit)
                Modulus:
                    00:c1:cf:6d:0e:31:b2:29:8d:b7:18:de:e7:19:7f:
                    84:54:b8:32:7d:a4:75:9b:8d:49:00:c0:91:4b:89:
                    57:b2:f3:67:ea:f4:8f:e0:6e:fd:62:89:70:99:c8:
                    60:98:04:63:a2:a6:a4:21:9a:27:8e:d6:e7:f7:d4:
                    5c:fc:eb:cb:44:b6:55:b4:e7:ab:86:96:e1:2f:cf:
                    e6:ef:64:88:75:63:87:20:9a:55:21:e0:1e:2b:53:
                    ca:2e:a5:87:3d:66:c1:ab:f5:c3:f3:f2:c3:e1:1f:
                    45:8e:d3:3a:1b:b2:91:d7:43:7f:87:7c:a2:e1:c5:
                    8e:55:8d:ec:ab:7b:3e:be:c9:3e:f5:be:6c:30:2b:
                    68:5c:11:fa:9c:74:5b:5a:19:65:7d:b5:65:d1:4d:
                    db:76:93:54:41:8e:8d:9a:1d:41:81:0b:fb:79:bd:
                    d5:9c:1d:b2:ad:90:dc:11:ce:f2:c5:60:e1:e8:5f:
                    88:15:e5:05:81:41:21:5b:de:e7:bb:69:f7:cb:2b:
                    9a:6e:c2:5e:3e:2a:a8:df:af:e7:0f:df:5e:c5:ba:
                    9f:a6:06:06:21:b5:0b:13:40:9b:59:c7:63:56:f4:
                    11:d3:28:ec:98:6e:4a:dc:ba:28:8e:df:e3:52:47:
                    af:73:b8:d8:e9:20:27:41:82:bd:63:14:c1:f3:b2:
                    df:39
                Exponent: 65537 (0x10001)
        X509v3 extensions:
            X509v3 Basic Constraints: 
                CA:FALSE
            X509v3 Subject Key Identifier: 
                0F:F5:50:AB:EA:3A:B4:DE:C8:AE:4E:AD:35:4E:5E:0C:39:23:32:98
            X509v3 Authority Key Identifier: 
                keyid:C8:27:DA:64:30:08:40:08:4A:25:CC:DC:43:99:DE:77:A1:FE:77:BD
                DirName:/C=US/ST=California/L=San Francisco/O=Copyleft Certificate Co/OU=My Organizational Unit/CN=ChangeMe/emailAddress=me@example.net
                serial:A9:48:C3:7E:FC:1B:B0:A1

            X509v3 Extended Key Usage: 
                TLS Web Client Authentication
            X509v3 Key Usage: 
                Digital Signature
    Signature Algorithm: sha256WithRSAEncryption
         57:6a:09:30:f4:9c:ab:30:4d:6f:aa:ff:a5:3c:15:fb:86:7b:
         56:d2:b7:79:35:e7:46:41:b0:f0:61:b4:9f:78:81:2b:fb:f9:
         68:62:74:14:31:b4:d1:43:40:22:56:d7:3f:f6:56:8f:7d:88:
         91:7f:d9:75:60:54:4f:0f:c0:bd:45:ca:97:2e:f7:9a:bf:ba:
         11:85:45:70:32:dc:65:cc:2a:e8:1d:fb:88:e9:d4:e4:dd:d6:
         d0:9a:10:28:47:b4:4d:c7:ad:17:b1:5d:ad:48:67:76:11:37:
         db:7b:85:7c:77:6d:17:0f:28:5a:91:1e:28:c0:07:75:b4:0e:
         6d:38:73:24:73:f6:82:8b:b4:41:26:f6:63:ea:a6:e0:0b:bc:
         41:d7:f7:44:ac:40:92:99:cf:dd:62:f3:51:24:85:44:57:8b:
         ae:b5:c0:ee:06:30:1c:e8:96:2e:a4:5b:8b:27:68:b7:0a:0b:
         5f:40:99:b5:f7:97:31:94:87:45:67:00:af:37:ca:5b:f3:03:
         10:2b:f0:eb:26:14:92:24:d8:3b:0c:7f:e1:0a:28:db:5d:f2:
         b2:7b:45:1d:14:56:5f:0a:2a:a0:5f:37:59:89:cb:0d:22:b0:
         43:c8:15:a4:8a:ee:5d:df:74:c6:a4:0a:18:83:b8:15:70:2c:
         73:bf:c8:a2
-----BEGIN CERTIFICATE-----
MIIFKzCCBBOgAwIBAgIRAPdKMgH8fOvZW8RSxDtKxbMwDQYJKoZIhvcNAQELBQAw
ga8xCzAJBgNVBAYTAlVTMRMwEQYDVQQIDApDYWxpZm9ybmlhMRYwFAYDVQQHDA1T
YW4gRnJhbmNpc2NvMSAwHgYDVQQKDBdDb3B5bGVmdCBDZXJ0aWZpY2F0ZSBDbzEf
MB0GA1UECwwWTXkgT3JnYW5pemF0aW9uYWwgVW5pdDERMA8GA1UEAwwIQ2hhbmdl
TWUxHTAbBgkqhkiG9w0BCQEWDm1lQGV4YW1wbGUubmV0MB4XDTIzMTExMDE3NDYx
MFoXDTI0MTEwOTE3NDYxMFowgbYxCzAJBgNVBAYTAlVTMQswCQYDVQQIDAJPSDET
MBEGA1UEBwwKQ2luY2lubmF0aTEhMB8GA1UECgwYVW5pdmVyc2l0eSBvZiBDaW5j
aW5uYXRpMSQwIgYDVQQLDBtEZXB0X0VsZWNfQ29tXyBFbmdfQ29tX1NjaS4xEjAQ
BgNVBAMMCWNsaWVudDExNjEoMCYGCSqGSIb3DQEJARYZZnJhbmNvQGdhdXNzLmVj
ZWNzLnVjLmVkdTCCASIwDQYJKoZIhvcNAQEBBQADggEPADCCAQoCggEBAMHPbQ4x
simNtxje5xl/hFS4Mn2kdZuNSQDAkUuJV7LzZ+r0j+Bu/WKJcJnIYJgEY6KmpCGa
J47W5/fUXPzry0S2VbTnq4aW4S/P5u9kiHVjhyCaVSHgHitTyi6lhz1mwav1w/Py
w+EfRY7TOhuykddDf4d8ouHFjlWN7Kt7Pr7JPvW+bDAraFwR+px0W1oZZX21ZdFN
23aTVEGOjZodQYEL+3m91Zwdsq2Q3BHO8sVg4ehfiBXlBYFBIVve57tp98srmm7C
Xj4qqN+v5w/fXsW6n6YGBiG1CxNAm1nHY1b0EdMo7JhuSty6KI7f41JHr3O42Okg
J0GCvWMUwfOy3zkCAwEAAaOCATcwggEzMAkGA1UdEwQCMAAwHQYDVR0OBBYEFA/1
UKvqOrTeyK5OrTVOXgw5IzKYMIHkBgNVHSMEgdwwgdmAFMgn2mQwCEAISiXM3EOZ
3neh/ne9oYG1pIGyMIGvMQswCQYDVQQGEwJVUzETMBEGA1UECAwKQ2FsaWZvcm5p
YTEWMBQGA1UEBwwNU2FuIEZyYW5jaXNjbzEgMB4GA1UECgwXQ29weWxlZnQgQ2Vy
dGlmaWNhdGUgQ28xHzAdBgNVBAsMFk15IE9yZ2FuaXphdGlvbmFsIFVuaXQxETAP
BgNVBAMMCENoYW5nZU1lMR0wGwYJKoZIhvcNAQkBFg5tZUBleGFtcGxlLm5ldIIJ
AKlIw378G7ChMBMGA1UdJQQMMAoGCCsGAQUFBwMCMAsGA1UdDwQEAwIHgDANBgkq
hkiG9w0BAQsFAAOCAQEAV2oJMPScqzBNb6r/pTwV+4Z7VtK3eTXnRkGw8GG0n3iB
K/v5aGJ0FDG00UNAIlbXP/ZWj32IkX/ZdWBUTw/AvUXKly73mr+6EYVFcDLcZcwq
6B37iOnU5N3W0JoQKEe0TcetF7FdrUhndhE323uFfHdtFw8oWpEeKMAHdbQObThz
JHP2gou0QSb2Y+qm4Au8Qdf3RKxAkpnP3WLzUSSFRFeLrrXA7gYwHOiWLqRbiydo
twoLX0CZtfeXMZSHRWcArzfKW/MDECvw6yYUkiTYOwx/4Qoo213ysntFHRRWXwoq
oF83WYnLDSKwQ8gVpIruXd90xqQKGIO4FXAsc7/Iog==
-----END CERTIFICATE-----
