Certificate:
    Data:
        Version: 3 (0x2)
        Serial Number:
            2b:83:c6:bf:c2:1e:e1:77:68:7a:9d:c0:0d:f7:f6:d6
    Signature Algorithm: sha256WithRSAEncryption
        Issuer: C=US, ST=California, L=San Francisco, O=Copyleft Certificate Co, OU=My Organizational Unit, CN=ChangeMe/emailAddress=me@example.net
        Validity
            Not Before: Nov 11 01:48:10 2023 GMT
            Not After : Nov 10 01:48:10 2024 GMT
        Subject: C=US, ST=OH, L=Cincinnati, O=University of Cincinnati, OU=Dept. Elec. Comp. Eng. Comp. Sci., CN=client127/emailAddress=franco@gauss.ececs.uc.edu
        Subject Public Key Info:
            Public Key Algorithm: rsaEncryption
                Public-Key: (2048 bit)
                Modulus:
                    00:d8:2e:f0:96:c4:92:f5:b4:29:2f:50:b7:9f:eb:
                    63:86:f1:e3:ea:95:35:78:6e:31:01:eb:25:3c:32:
                    7c:31:58:0d:ea:9f:3f:86:38:75:8c:17:96:b8:71:
                    56:6b:dd:27:50:d6:cb:e5:72:8d:56:70:23:24:ec:
                    e8:28:d9:12:66:f4:1b:ec:b1:18:fa:4a:16:f1:67:
                    a3:fd:43:22:59:84:26:53:25:fe:b2:ef:ef:23:75:
                    37:10:74:40:04:71:df:aa:35:d1:38:dc:37:67:23:
                    9b:50:5a:d6:a2:33:8b:bb:5e:ca:69:08:34:3a:c5:
                    bb:d3:62:86:66:c7:64:7b:ba:85:4d:da:a4:06:f9:
                    06:85:39:a8:f9:d1:ef:24:8e:38:17:56:7e:74:c1:
                    03:0b:b2:20:53:a1:0f:fe:72:bf:dc:be:34:9d:46:
                    05:4b:0d:1a:95:7d:75:34:d8:8f:99:87:16:c9:f9:
                    26:59:c3:70:b6:c0:9b:83:6e:32:03:99:d7:a8:9c:
                    4d:46:4e:cf:b9:43:f3:17:b5:7c:cc:e2:6f:46:ca:
                    19:04:91:7b:7d:aa:51:a0:e4:83:d7:75:b8:43:59:
                    c6:dd:72:11:39:4e:aa:5b:86:73:a0:ea:bc:99:7a:
                    35:cb:da:cf:7f:55:d6:dd:5e:6f:65:cd:80:ed:64:
                    9d:27
                Exponent: 65537 (0x10001)
        X509v3 extensions:
            X509v3 Basic Constraints: 
                CA:FALSE
            X509v3 Subject Key Identifier: 
                AB:80:73:A0:2F:76:31:43:C1:A2:A1:55:A2:0F:F9:69:40:02:C9:BF
            X509v3 Authority Key Identifier: 
                keyid:73:DE:A0:43:0F:AE:B1:9E:E8:59:69:18:50:A1:1A:1F:D4:A1:E3:F0
                DirName:/C=US/ST=California/L=San Francisco/O=Copyleft Certificate Co/OU=My Organizational Unit/CN=ChangeMe/emailAddress=me@example.net
                serial:E9:BB:CB:16:C5:32:BE:3B

            X509v3 Extended Key Usage: 
                TLS Web Client Authentication
            X509v3 Key Usage: 
                Digital Signature
    Signature Algorithm: sha256WithRSAEncryption
         94:05:28:34:d0:a5:11:10:27:57:09:df:34:13:6e:3f:40:05:
         03:c3:73:39:12:c6:9f:7c:b5:a0:3e:59:55:26:b2:e7:f0:be:
         b1:ad:86:8f:ad:09:8d:6c:c4:74:26:da:b6:be:8b:ab:46:e3:
         7b:85:91:4b:36:36:d3:d0:56:7e:69:fd:4a:a1:2a:a0:a9:fa:
         6c:8b:e9:93:d7:e3:ef:e4:05:83:0d:9a:ed:48:8b:a6:bb:4f:
         62:61:a5:12:ef:59:4b:a3:99:9e:71:15:68:09:38:bb:ad:ab:
         b3:22:35:64:05:59:05:a8:e4:ff:fc:49:62:f6:9d:8b:df:77:
         67:3b:24:ec:52:5a:1c:37:24:90:df:5d:98:05:e0:3b:b5:f1:
         ca:6a:81:e5:cb:11:b4:4a:6a:e6:66:b5:88:be:c5:67:d2:70:
         a1:76:b3:3f:20:18:0e:08:66:60:e3:15:4a:05:70:43:a8:75:
         77:1b:aa:97:dd:01:32:ed:ff:94:9e:27:a9:a6:4b:a6:83:00:
         cf:6e:14:af:2b:dd:2b:b5:8f:08:c8:ef:5c:c5:c8:ff:c8:a3:
         11:10:b3:4f:f4:9f:fe:95:fb:f1:00:ac:e3:e7:7b:c9:68:17:
         97:1b:af:c2:62:0b:4f:70:dd:76:db:7d:49:31:d7:f3:6c:80:
         36:12:04:cd
-----BEGIN CERTIFICATE-----
MIIFMDCCBBigAwIBAgIQK4PGv8Ie4Xdoep3ADff21jANBgkqhkiG9w0BAQsFADCB
rzELMAkGA1UEBhMCVVMxEzARBgNVBAgMCkNhbGlmb3JuaWExFjAUBgNVBAcMDVNh
biBGcmFuY2lzY28xIDAeBgNVBAoMF0NvcHlsZWZ0IENlcnRpZmljYXRlIENvMR8w
HQYDVQQLDBZNeSBPcmdhbml6YXRpb25hbCBVbml0MREwDwYDVQQDDAhDaGFuZ2VN
ZTEdMBsGCSqGSIb3DQEJARYObWVAZXhhbXBsZS5uZXQwHhcNMjMxMTExMDE0ODEw
WhcNMjQxMTEwMDE0ODEwWjCBvDELMAkGA1UEBhMCVVMxCzAJBgNVBAgMAk9IMRMw
EQYDVQQHDApDaW5jaW5uYXRpMSEwHwYDVQQKDBhVbml2ZXJzaXR5IG9mIENpbmNp
bm5hdGkxKjAoBgNVBAsMIURlcHQuIEVsZWMuIENvbXAuIEVuZy4gQ29tcC4gU2Np
LjESMBAGA1UEAwwJY2xpZW50MTI3MSgwJgYJKoZIhvcNAQkBFhlmcmFuY29AZ2F1
c3MuZWNlY3MudWMuZWR1MIIBIjANBgkqhkiG9w0BAQEFAAOCAQ8AMIIBCgKCAQEA
2C7wlsSS9bQpL1C3n+tjhvHj6pU1eG4xAeslPDJ8MVgN6p8/hjh1jBeWuHFWa90n
UNbL5XKNVnAjJOzoKNkSZvQb7LEY+koW8Wej/UMiWYQmUyX+su/vI3U3EHRABHHf
qjXRONw3ZyObUFrWojOLu17KaQg0OsW702KGZsdke7qFTdqkBvkGhTmo+dHvJI44
F1Z+dMEDC7IgU6EP/nK/3L40nUYFSw0alX11NNiPmYcWyfkmWcNwtsCbg24yA5nX
qJxNRk7PuUPzF7V8zOJvRsoZBJF7fapRoOSD13W4Q1nG3XIROU6qW4ZzoOq8mXo1
y9rPf1XW3V5vZc2A7WSdJwIDAQABo4IBNzCCATMwCQYDVR0TBAIwADAdBgNVHQ4E
FgQUq4BzoC92MUPBoqFVog/5aUACyb8wgeQGA1UdIwSB3DCB2YAUc96gQw+usZ7o
WWkYUKEaH9Sh4/ChgbWkgbIwga8xCzAJBgNVBAYTAlVTMRMwEQYDVQQIDApDYWxp
Zm9ybmlhMRYwFAYDVQQHDA1TYW4gRnJhbmNpc2NvMSAwHgYDVQQKDBdDb3B5bGVm
dCBDZXJ0aWZpY2F0ZSBDbzEfMB0GA1UECwwWTXkgT3JnYW5pemF0aW9uYWwgVW5p
dDERMA8GA1UEAwwIQ2hhbmdlTWUxHTAbBgkqhkiG9w0BCQEWDm1lQGV4YW1wbGUu
bmV0ggkA6bvLFsUyvjswEwYDVR0lBAwwCgYIKwYBBQUHAwIwCwYDVR0PBAQDAgeA
MA0GCSqGSIb3DQEBCwUAA4IBAQCUBSg00KURECdXCd80E24/QAUDw3M5EsaffLWg
PllVJrLn8L6xrYaPrQmNbMR0Jtq2vourRuN7hZFLNjbT0FZ+af1KoSqgqfpsi+mT
1+Pv5AWDDZrtSIumu09iYaUS71lLo5mecRVoCTi7rauzIjVkBVkFqOT//Eli9p2L
33dnOyTsUlocNySQ312YBeA7tfHKaoHlyxG0SmrmZrWIvsVn0nChdrM/IBgOCGZg
4xVKBXBDqHV3G6qX3QEy7f+UnieppkumgwDPbhSvK90rtY8IyO9cxcj/yKMRELNP
9J/+lfvxAKzj53vJaBeXG6/CYgtPcN12231JMdfzbIA2EgTN
-----END CERTIFICATE-----
