Certificate:
    Data:
        Version: 3 (0x2)
        Serial Number:
            f0:d5:51:13:9b:94:eb:06:44:9d:1d:dc:40:9d:e4:ed
    Signature Algorithm: sha256WithRSAEncryption
        Issuer: C=US, ST=California, L=San Francisco, O=Copyleft Certificate Co, OU=My Organizational Unit, CN=ChangeMe/emailAddress=me@example.net
        Validity
            Not Before: Nov 11 01:45:38 2023 GMT
            Not After : Nov 10 01:45:38 2024 GMT
        Subject: C=US, ST=OH, L=Cincinnati, O=University of Cincinnati, OU=Dept. Elec. Comp. Eng. Comp. Sci., CN=client89/emailAddress=franco@gauss.ececs.uc.edu
        Subject Public Key Info:
            Public Key Algorithm: rsaEncryption
                Public-Key: (2048 bit)
                Modulus:
                    00:b6:58:23:b7:62:4d:94:e9:b3:08:6e:8b:10:b1:
                    16:ec:91:b7:0f:1c:63:0a:a6:0d:5c:2a:f9:6c:96:
                    da:e8:00:f4:8a:e6:54:c8:bc:e6:2e:81:c3:29:77:
                    6c:05:6e:d0:4e:83:c2:67:44:8b:70:d8:95:51:3f:
                    33:6a:e7:d7:79:c5:16:30:af:55:13:a2:9b:fe:c5:
                    58:18:2c:e0:8f:9d:48:28:24:3b:a8:04:00:4f:c1:
                    f1:cb:f7:35:f2:c9:da:7e:66:39:86:eb:92:f8:e4:
                    43:54:41:52:68:34:d3:5d:b5:1c:52:c9:0b:21:ae:
                    1a:c6:ef:c6:e6:60:7b:ee:69:9c:e9:c1:9b:82:10:
                    a8:4d:3c:53:8b:b1:02:12:43:45:7e:db:72:ca:6c:
                    e4:44:ed:df:21:b2:32:ec:de:ea:36:32:2d:f0:0d:
                    18:61:55:92:5a:7b:92:47:f5:80:25:54:3d:6f:68:
                    36:e0:3b:9d:f8:ce:37:18:78:32:1f:ce:98:f1:c3:
                    41:4c:57:b4:2a:fa:e7:f3:07:aa:bd:ef:a6:e5:99:
                    cc:5a:cf:9b:d6:8f:53:7b:bd:8d:2f:ff:38:cd:39:
                    d1:40:91:f2:5d:6b:7b:ab:7b:71:af:58:ef:99:b0:
                    3b:3c:23:12:e7:72:77:56:2e:c9:64:a7:10:85:09:
                    7c:ad
                Exponent: 65537 (0x10001)
        X509v3 extensions:
            X509v3 Basic Constraints: 
                CA:FALSE
            X509v3 Subject Key Identifier: 
                4C:56:20:6B:D9:B3:35:F7:B7:05:FB:16:61:73:D2:8D:21:28:41:75
            X509v3 Authority Key Identifier: 
                keyid:73:DE:A0:43:0F:AE:B1:9E:E8:59:69:18:50:A1:1A:1F:D4:A1:E3:F0
                DirName:/C=US/ST=California/L=San Francisco/O=Copyleft Certificate Co/OU=My Organizational Unit/CN=ChangeMe/emailAddress=me@example.net
                serial:E9:BB:CB:16:C5:32:BE:3B

            X509v3 Extended Key Usage: 
                TLS Web Client Authentication
            X509v3 Key Usage: 
                Digital Signature
    Signature Algorithm: sha256WithRSAEncryption
         49:cd:c0:47:dc:ef:e9:5e:0c:90:6c:c3:72:82:fa:17:f2:ad:
         4e:62:60:75:8e:ac:84:97:e0:12:9b:84:6a:ea:34:ab:47:b1:
         70:ba:25:c1:4a:0e:26:ab:7b:b2:43:95:ff:49:3e:08:34:1b:
         6d:87:59:f9:25:0d:18:af:1b:19:44:ee:73:2e:c6:ed:c6:da:
         c6:3a:95:ba:37:b6:98:cd:e5:0c:90:ad:62:10:ae:cc:4b:81:
         68:13:e0:c2:89:88:01:a7:1e:d0:90:59:f3:32:98:7f:66:b1:
         13:ec:32:b5:a0:5c:aa:a0:d2:26:a0:29:32:e2:91:03:f5:29:
         a5:37:4f:16:fd:ef:23:5e:6a:42:f6:7d:30:9e:a1:ae:20:e1:
         81:80:aa:7f:5a:6d:cb:34:ed:90:b2:eb:56:40:5f:14:11:49:
         f3:43:6c:f8:b1:46:0e:16:70:cd:57:2a:e7:ce:bc:f6:ac:3b:
         1c:8d:0e:89:3d:ae:a0:71:4e:46:c5:08:b3:38:3a:d4:13:29:
         4e:c7:bd:c4:fa:98:b6:fd:40:8a:e0:ae:5b:4d:ce:80:5a:4e:
         bc:cb:d4:71:ed:52:08:30:45:79:19:1d:d1:ff:3f:3b:5e:c0:
         e6:54:d1:78:e7:a2:08:46:fe:bc:0c:57:1f:3c:3b:b0:97:41:
         06:cb:ca:b4
-----BEGIN CERTIFICATE-----
MIIFMDCCBBigAwIBAgIRAPDVUROblOsGRJ0d3ECd5O0wDQYJKoZIhvcNAQELBQAw
ga8xCzAJBgNVBAYTAlVTMRMwEQYDVQQIDApDYWxpZm9ybmlhMRYwFAYDVQQHDA1T
YW4gRnJhbmNpc2NvMSAwHgYDVQQKDBdDb3B5bGVmdCBDZXJ0aWZpY2F0ZSBDbzEf
MB0GA1UECwwWTXkgT3JnYW5pemF0aW9uYWwgVW5pdDERMA8GA1UEAwwIQ2hhbmdl
TWUxHTAbBgkqhkiG9w0BCQEWDm1lQGV4YW1wbGUubmV0MB4XDTIzMTExMTAxNDUz
OFoXDTI0MTExMDAxNDUzOFowgbsxCzAJBgNVBAYTAlVTMQswCQYDVQQIDAJPSDET
MBEGA1UEBwwKQ2luY2lubmF0aTEhMB8GA1UECgwYVW5pdmVyc2l0eSBvZiBDaW5j
aW5uYXRpMSowKAYDVQQLDCFEZXB0LiBFbGVjLiBDb21wLiBFbmcuIENvbXAuIFNj
aS4xETAPBgNVBAMMCGNsaWVudDg5MSgwJgYJKoZIhvcNAQkBFhlmcmFuY29AZ2F1
c3MuZWNlY3MudWMuZWR1MIIBIjANBgkqhkiG9w0BAQEFAAOCAQ8AMIIBCgKCAQEA
tlgjt2JNlOmzCG6LELEW7JG3DxxjCqYNXCr5bJba6AD0iuZUyLzmLoHDKXdsBW7Q
ToPCZ0SLcNiVUT8zaufXecUWMK9VE6Kb/sVYGCzgj51IKCQ7qAQAT8Hxy/c18sna
fmY5huuS+ORDVEFSaDTTXbUcUskLIa4axu/G5mB77mmc6cGbghCoTTxTi7ECEkNF
fttyymzkRO3fIbIy7N7qNjIt8A0YYVWSWnuSR/WAJVQ9b2g24Dud+M43GHgyH86Y
8cNBTFe0Kvrn8weqve+m5ZnMWs+b1o9Te72NL/84zTnRQJHyXWt7q3txr1jvmbA7
PCMS53J3Vi7JZKcQhQl8rQIDAQABo4IBNzCCATMwCQYDVR0TBAIwADAdBgNVHQ4E
FgQUTFYga9mzNfe3BfsWYXPSjSEoQXUwgeQGA1UdIwSB3DCB2YAUc96gQw+usZ7o
WWkYUKEaH9Sh4/ChgbWkgbIwga8xCzAJBgNVBAYTAlVTMRMwEQYDVQQIDApDYWxp
Zm9ybmlhMRYwFAYDVQQHDA1TYW4gRnJhbmNpc2NvMSAwHgYDVQQKDBdDb3B5bGVm
dCBDZXJ0aWZpY2F0ZSBDbzEfMB0GA1UECwwWTXkgT3JnYW5pemF0aW9uYWwgVW5p
dDERMA8GA1UEAwwIQ2hhbmdlTWUxHTAbBgkqhkiG9w0BCQEWDm1lQGV4YW1wbGUu
bmV0ggkA6bvLFsUyvjswEwYDVR0lBAwwCgYIKwYBBQUHAwIwCwYDVR0PBAQDAgeA
MA0GCSqGSIb3DQEBCwUAA4IBAQBJzcBH3O/pXgyQbMNygvoX8q1OYmB1jqyEl+AS
m4Rq6jSrR7FwuiXBSg4mq3uyQ5X/ST4INBtth1n5JQ0YrxsZRO5zLsbtxtrGOpW6
N7aYzeUMkK1iEK7MS4FoE+DCiYgBpx7QkFnzMph/ZrET7DK1oFyqoNImoCky4pED
9SmlN08W/e8jXmpC9n0wnqGuIOGBgKp/Wm3LNO2QsutWQF8UEUnzQ2z4sUYOFnDN
Vyrnzrz2rDscjQ6JPa6gcU5GxQizODrUEylOx73E+pi2/UCK4K5bTc6AWk68y9Rx
7VIIMEV5GR3R/z87XsDmVNF456IIRv68DFcfPDuwl0EGy8q0
-----END CERTIFICATE-----
