Certificate:
    Data:
        Version: 3 (0x2)
        Serial Number:
            b3:6a:28:f6:32:57:b5:b8:50:d5:a7:75:a7:fc:8d:31
    Signature Algorithm: sha256WithRSAEncryption
        Issuer: C=US, ST=California, L=San Francisco, O=Copyleft Certificate Co, OU=My Organizational Unit, CN=ChangeMe/emailAddress=me@example.net
        Validity
            Not Before: Nov 11 01:44:02 2023 GMT
            Not After : Nov 10 01:44:02 2024 GMT
        Subject: C=US, ST=OH, L=Cincinnati, O=University of Cincinnati, OU=Dept. Elec. Comp. Eng. Comp. Sci., CN=client65/emailAddress=franco@gauss.ececs.uc.edu
        Subject Public Key Info:
            Public Key Algorithm: rsaEncryption
                Public-Key: (2048 bit)
                Modulus:
                    00:bf:e5:99:ed:17:bc:87:bd:d6:95:d6:23:aa:87:
                    ca:4d:cb:28:50:cf:1f:e1:37:f0:d2:c7:4b:9e:cc:
                    19:eb:3a:3f:f8:4c:97:81:c0:85:a1:ab:d9:f9:cc:
                    15:5f:c8:39:a0:9b:27:b3:2c:9d:1a:fa:05:8b:0e:
                    a8:20:60:ad:65:e2:9e:1f:df:69:e9:9e:cf:17:f2:
                    d4:5f:d6:46:99:74:62:f1:f4:89:e9:25:1b:ed:fd:
                    96:58:80:ef:8a:b2:d2:0c:0e:87:8d:34:c2:ba:81:
                    d1:c3:c1:17:21:c7:e2:f2:ec:fd:7a:fe:cd:47:b9:
                    8c:91:74:fb:08:fa:3e:09:72:dd:ef:98:77:75:d1:
                    36:d6:c5:fa:8e:0e:a4:a3:c9:0c:5b:5d:8a:9b:fc:
                    b5:39:7e:ae:bf:d7:49:93:30:30:ad:45:89:85:1e:
                    39:15:51:5c:1d:c4:4a:35:61:27:cc:5d:8e:fb:f3:
                    1f:98:f8:c6:5c:89:9a:aa:ec:de:04:33:8a:b1:6b:
                    79:1b:53:89:51:4f:e4:a3:41:62:cf:be:10:2e:d5:
                    14:81:70:0b:f7:eb:fe:96:68:78:04:71:af:60:6a:
                    10:2a:e2:ee:7d:94:70:47:06:a8:62:44:14:2b:1a:
                    ea:51:8a:41:21:6a:ee:d3:85:92:51:5d:ac:ac:a7:
                    31:6f
                Exponent: 65537 (0x10001)
        X509v3 extensions:
            X509v3 Basic Constraints: 
                CA:FALSE
            X509v3 Subject Key Identifier: 
                93:E3:06:C1:67:CA:2A:CC:BB:B1:D8:DB:FB:C3:C7:E6:7C:4D:45:F4
            X509v3 Authority Key Identifier: 
                keyid:73:DE:A0:43:0F:AE:B1:9E:E8:59:69:18:50:A1:1A:1F:D4:A1:E3:F0
                DirName:/C=US/ST=California/L=San Francisco/O=Copyleft Certificate Co/OU=My Organizational Unit/CN=ChangeMe/emailAddress=me@example.net
                serial:E9:BB:CB:16:C5:32:BE:3B

            X509v3 Extended Key Usage: 
                TLS Web Client Authentication
            X509v3 Key Usage: 
                Digital Signature
    Signature Algorithm: sha256WithRSAEncryption
         8f:db:a5:62:66:f8:f9:57:3c:4c:e4:19:c9:ee:a1:3e:69:c3:
         fb:52:d5:98:ee:32:64:ba:0e:2b:08:d2:c5:ca:01:8a:1e:83:
         f0:72:c0:8c:1f:96:92:63:86:ea:8a:c4:05:b9:ed:9a:82:6a:
         9a:bd:0c:b2:f3:70:7b:e0:88:79:ff:c4:e6:92:70:10:49:d8:
         03:23:69:60:78:03:74:18:b6:99:d5:e5:12:ac:45:ed:bc:55:
         bd:46:5c:26:e1:70:20:c1:76:9f:3f:bf:de:5d:63:90:ad:17:
         98:4d:d4:ac:99:c4:10:3b:57:25:6a:ac:de:9e:b2:a9:42:b2:
         71:08:0a:97:1d:4b:50:03:7b:5d:47:3a:97:f1:c3:90:35:19:
         bd:03:b1:90:2f:8d:b7:3f:5a:aa:d0:74:78:6a:36:e8:5a:1d:
         ab:70:c0:ad:d0:27:6f:d0:f3:b7:0d:e9:08:6f:bd:8a:99:c7:
         ee:6c:9a:19:b7:c0:cb:90:0d:50:b7:8c:44:77:a9:c2:d0:d4:
         2e:c8:50:41:e7:4a:f9:f4:41:98:e9:96:e3:96:26:9f:e9:df:
         99:61:4f:f1:8b:9c:aa:7d:f1:92:7a:b3:46:bb:c3:44:fa:dc:
         b6:a9:6b:dc:d2:cd:a0:17:92:c4:1f:17:44:4c:b5:10:68:b7:
         f2:f3:10:91
-----BEGIN CERTIFICATE-----
MIIFMDCCBBigAwIBAgIRALNqKPYyV7W4UNWndaf8jTEwDQYJKoZIhvcNAQELBQAw
ga8xCzAJBgNVBAYTAlVTMRMwEQYDVQQIDApDYWxpZm9ybmlhMRYwFAYDVQQHDA1T
YW4gRnJhbmNpc2NvMSAwHgYDVQQKDBdDb3B5bGVmdCBDZXJ0aWZpY2F0ZSBDbzEf
MB0GA1UECwwWTXkgT3JnYW5pemF0aW9uYWwgVW5pdDERMA8GA1UEAwwIQ2hhbmdl
TWUxHTAbBgkqhkiG9w0BCQEWDm1lQGV4YW1wbGUubmV0MB4XDTIzMTExMTAxNDQw
MloXDTI0MTExMDAxNDQwMlowgbsxCzAJBgNVBAYTAlVTMQswCQYDVQQIDAJPSDET
MBEGA1UEBwwKQ2luY2lubmF0aTEhMB8GA1UECgwYVW5pdmVyc2l0eSBvZiBDaW5j
aW5uYXRpMSowKAYDVQQLDCFEZXB0LiBFbGVjLiBDb21wLiBFbmcuIENvbXAuIFNj
aS4xETAPBgNVBAMMCGNsaWVudDY1MSgwJgYJKoZIhvcNAQkBFhlmcmFuY29AZ2F1
c3MuZWNlY3MudWMuZWR1MIIBIjANBgkqhkiG9w0BAQEFAAOCAQ8AMIIBCgKCAQEA
v+WZ7Re8h73WldYjqofKTcsoUM8f4Tfw0sdLnswZ6zo/+EyXgcCFoavZ+cwVX8g5
oJsnsyydGvoFiw6oIGCtZeKeH99p6Z7PF/LUX9ZGmXRi8fSJ6SUb7f2WWIDvirLS
DA6HjTTCuoHRw8EXIcfi8uz9ev7NR7mMkXT7CPo+CXLd75h3ddE21sX6jg6ko8kM
W12Km/y1OX6uv9dJkzAwrUWJhR45FVFcHcRKNWEnzF2O+/MfmPjGXImaquzeBDOK
sWt5G1OJUU/ko0Fiz74QLtUUgXAL9+v+lmh4BHGvYGoQKuLufZRwRwaoYkQUKxrq
UYpBIWru04WSUV2srKcxbwIDAQABo4IBNzCCATMwCQYDVR0TBAIwADAdBgNVHQ4E
FgQUk+MGwWfKKsy7sdjb+8PH5nxNRfQwgeQGA1UdIwSB3DCB2YAUc96gQw+usZ7o
WWkYUKEaH9Sh4/ChgbWkgbIwga8xCzAJBgNVBAYTAlVTMRMwEQYDVQQIDApDYWxp
Zm9ybmlhMRYwFAYDVQQHDA1TYW4gRnJhbmNpc2NvMSAwHgYDVQQKDBdDb3B5bGVm
dCBDZXJ0aWZpY2F0ZSBDbzEfMB0GA1UECwwWTXkgT3JnYW5pemF0aW9uYWwgVW5p
dDERMA8GA1UEAwwIQ2hhbmdlTWUxHTAbBgkqhkiG9w0BCQEWDm1lQGV4YW1wbGUu
bmV0ggkA6bvLFsUyvjswEwYDVR0lBAwwCgYIKwYBBQUHAwIwCwYDVR0PBAQDAgeA
MA0GCSqGSIb3DQEBCwUAA4IBAQCP26ViZvj5VzxM5BnJ7qE+acP7UtWY7jJkug4r
CNLFygGKHoPwcsCMH5aSY4bqisQFue2agmqavQyy83B74Ih5/8TmknAQSdgDI2lg
eAN0GLaZ1eUSrEXtvFW9Rlwm4XAgwXafP7/eXWOQrReYTdSsmcQQO1claqzenrKp
QrJxCAqXHUtQA3tdRzqX8cOQNRm9A7GQL423P1qq0HR4ajboWh2rcMCt0Cdv0PO3
DekIb72KmcfubJoZt8DLkA1Qt4xEd6nC0NQuyFBB50r59EGY6Zbjliaf6d+ZYU/x
i5yqffGSerNGu8NE+ty2qWvc0s2gF5LEHxdETLUQaLfy8xCR
-----END CERTIFICATE-----
