Certificate:
    Data:
        Version: 3 (0x2)
        Serial Number:
            39:44:47:e3:8f:6a:a4:57:c1:21:18:b7:12:70:8c:fb
    Signature Algorithm: sha256WithRSAEncryption
        Issuer: C=US, ST=California, L=San Francisco, O=Copyleft Certificate Co, OU=My Organizational Unit, CN=ChangeMe/emailAddress=me@example.net
        Validity
            Not Before: Nov 11 01:48:58 2023 GMT
            Not After : Nov 10 01:48:58 2024 GMT
        Subject: C=US, ST=OH, L=Cincinnati, O=University of Cincinnati, OU=Dept. Elec. Comp. Eng. Comp. Sci., CN=client139/emailAddress=franco@gauss.ececs.uc.edu
        Subject Public Key Info:
            Public Key Algorithm: rsaEncryption
                Public-Key: (2048 bit)
                Modulus:
                    00:98:b6:f4:a1:f0:4c:0c:75:1b:97:10:73:8c:20:
                    16:d4:b1:af:27:41:db:ac:c7:4a:a5:ce:02:17:c8:
                    88:ab:8c:af:95:d5:53:b1:e2:37:0c:c7:04:57:c9:
                    e1:4c:9f:90:81:77:30:92:25:10:85:00:13:1d:96:
                    2a:fa:7a:ca:94:3e:81:cd:4b:9c:13:33:7b:93:e6:
                    1a:0f:45:d5:1a:50:8c:9c:28:f9:2b:dc:99:25:f1:
                    51:fc:da:39:a3:c3:9d:98:72:92:ab:96:77:09:e9:
                    95:f4:8a:26:85:f4:16:16:a3:89:26:e4:aa:3c:cf:
                    35:ad:93:4c:d2:1d:cc:b9:04:26:e4:bc:54:a2:49:
                    e7:ea:eb:c1:b2:91:0b:48:e1:f1:4c:c2:0f:7e:b3:
                    0f:63:28:a0:08:c3:4d:19:d3:29:2f:55:d0:5f:52:
                    ea:cb:97:86:3f:78:db:1e:9b:b7:35:1d:6d:a2:86:
                    80:e5:14:09:28:cb:07:b3:3c:a8:27:dc:f9:09:c0:
                    61:59:f8:bd:30:f6:f4:05:5b:c5:84:ab:87:56:24:
                    e5:f9:6f:59:8a:04:99:72:7b:b1:94:79:78:52:75:
                    64:8f:4a:bf:c4:38:9c:70:ab:be:f1:91:b9:ec:65:
                    09:d8:2f:1e:a4:ef:a9:5f:9f:f9:fc:96:df:75:e0:
                    53:87
                Exponent: 65537 (0x10001)
        X509v3 extensions:
            X509v3 Basic Constraints: 
                CA:FALSE
            X509v3 Subject Key Identifier: 
                5D:55:D5:3B:9E:8C:EA:2F:1A:90:CF:FB:05:11:8A:29:76:74:E4:29
            X509v3 Authority Key Identifier: 
                keyid:73:DE:A0:43:0F:AE:B1:9E:E8:59:69:18:50:A1:1A:1F:D4:A1:E3:F0
                DirName:/C=US/ST=California/L=San Francisco/O=Copyleft Certificate Co/OU=My Organizational Unit/CN=ChangeMe/emailAddress=me@example.net
                serial:E9:BB:CB:16:C5:32:BE:3B

            X509v3 Extended Key Usage: 
                TLS Web Client Authentication
            X509v3 Key Usage: 
                Digital Signature
    Signature Algorithm: sha256WithRSAEncryption
         4b:05:6f:d4:cd:8c:14:fb:90:03:f2:a3:ab:4d:e8:8a:1c:06:
         e5:a9:4b:6f:47:fb:09:f9:c3:70:c3:95:0e:14:09:9f:71:49:
         c8:e5:d2:5b:ec:0b:8c:36:00:57:de:c6:78:79:03:62:17:c8:
         10:77:7f:74:aa:68:d4:82:cf:50:95:19:bf:8e:05:98:a9:4f:
         35:92:fd:1c:f2:e4:0a:5f:2f:dc:b5:16:51:ef:9b:43:6f:84:
         87:e2:e1:f3:1f:36:90:ae:a1:d2:4e:a3:ee:1c:f2:74:59:1d:
         61:d2:30:77:4c:7d:35:11:a3:b4:32:d8:0e:69:ff:f9:66:20:
         49:a6:cd:81:40:84:56:58:9f:4e:a3:c4:c8:3a:82:75:df:23:
         42:b2:be:83:05:d8:ee:a9:da:66:16:30:46:1f:d9:8b:d0:3c:
         a0:5f:70:2e:f8:34:60:15:01:e5:2e:48:3b:d2:2c:74:4c:f4:
         c6:e0:c2:42:21:07:21:ac:9e:94:58:32:43:93:33:17:d1:d1:
         f4:2c:68:ea:c6:ac:50:d7:ea:67:6f:62:e9:b6:f4:2b:1f:a6:
         4f:83:32:52:67:ab:c0:e4:88:17:80:79:c3:0d:d7:32:63:c2:
         ba:0d:63:0e:59:02:6e:56:c6:d7:f6:cc:2c:eb:7f:ff:ce:bc:
         ea:c6:4f:f5
-----BEGIN CERTIFICATE-----
MIIFMDCCBBigAwIBAgIQOURH449qpFfBIRi3EnCM+zANBgkqhkiG9w0BAQsFADCB
rzELMAkGA1UEBhMCVVMxEzARBgNVBAgMCkNhbGlmb3JuaWExFjAUBgNVBAcMDVNh
biBGcmFuY2lzY28xIDAeBgNVBAoMF0NvcHlsZWZ0IENlcnRpZmljYXRlIENvMR8w
HQYDVQQLDBZNeSBPcmdhbml6YXRpb25hbCBVbml0MREwDwYDVQQDDAhDaGFuZ2VN
ZTEdMBsGCSqGSIb3DQEJARYObWVAZXhhbXBsZS5uZXQwHhcNMjMxMTExMDE0ODU4
WhcNMjQxMTEwMDE0ODU4WjCBvDELMAkGA1UEBhMCVVMxCzAJBgNVBAgMAk9IMRMw
EQYDVQQHDApDaW5jaW5uYXRpMSEwHwYDVQQKDBhVbml2ZXJzaXR5IG9mIENpbmNp
bm5hdGkxKjAoBgNVBAsMIURlcHQuIEVsZWMuIENvbXAuIEVuZy4gQ29tcC4gU2Np
LjESMBAGA1UEAwwJY2xpZW50MTM5MSgwJgYJKoZIhvcNAQkBFhlmcmFuY29AZ2F1
c3MuZWNlY3MudWMuZWR1MIIBIjANBgkqhkiG9w0BAQEFAAOCAQ8AMIIBCgKCAQEA
mLb0ofBMDHUblxBzjCAW1LGvJ0HbrMdKpc4CF8iIq4yvldVTseI3DMcEV8nhTJ+Q
gXcwkiUQhQATHZYq+nrKlD6BzUucEzN7k+YaD0XVGlCMnCj5K9yZJfFR/No5o8Od
mHKSq5Z3CemV9IomhfQWFqOJJuSqPM81rZNM0h3MuQQm5LxUoknn6uvBspELSOHx
TMIPfrMPYyigCMNNGdMpL1XQX1Lqy5eGP3jbHpu3NR1tooaA5RQJKMsHszyoJ9z5
CcBhWfi9MPb0BVvFhKuHViTl+W9ZigSZcnuxlHl4UnVkj0q/xDiccKu+8ZG57GUJ
2C8epO+pX5/5/JbfdeBThwIDAQABo4IBNzCCATMwCQYDVR0TBAIwADAdBgNVHQ4E
FgQUXVXVO56M6i8akM/7BRGKKXZ05CkwgeQGA1UdIwSB3DCB2YAUc96gQw+usZ7o
WWkYUKEaH9Sh4/ChgbWkgbIwga8xCzAJBgNVBAYTAlVTMRMwEQYDVQQIDApDYWxp
Zm9ybmlhMRYwFAYDVQQHDA1TYW4gRnJhbmNpc2NvMSAwHgYDVQQKDBdDb3B5bGVm
dCBDZXJ0aWZpY2F0ZSBDbzEfMB0GA1UECwwWTXkgT3JnYW5pemF0aW9uYWwgVW5p
dDERMA8GA1UEAwwIQ2hhbmdlTWUxHTAbBgkqhkiG9w0BCQEWDm1lQGV4YW1wbGUu
bmV0ggkA6bvLFsUyvjswEwYDVR0lBAwwCgYIKwYBBQUHAwIwCwYDVR0PBAQDAgeA
MA0GCSqGSIb3DQEBCwUAA4IBAQBLBW/UzYwU+5AD8qOrTeiKHAblqUtvR/sJ+cNw
w5UOFAmfcUnI5dJb7AuMNgBX3sZ4eQNiF8gQd390qmjUgs9QlRm/jgWYqU81kv0c
8uQKXy/ctRZR75tDb4SH4uHzHzaQrqHSTqPuHPJ0WR1h0jB3TH01EaO0MtgOaf/5
ZiBJps2BQIRWWJ9Oo8TIOoJ13yNCsr6DBdjuqdpmFjBGH9mL0DygX3Au+DRgFQHl
Lkg70ix0TPTG4MJCIQchrJ6UWDJDkzMX0dH0LGjqxqxQ1+pnb2LptvQrH6ZPgzJS
Z6vA5IgXgHnDDdcyY8K6DWMOWQJuVsbX9sws63//zrzqxk/1
-----END CERTIFICATE-----
