Certificate:
    Data:
        Version: 3 (0x2)
        Serial Number:
            43:0e:6c:c6:2d:75:a2:70:56:13:65:05:2e:79:11:65
    Signature Algorithm: sha256WithRSAEncryption
        Issuer: C=US, ST=California, L=San Francisco, O=Copyleft Certificate Co, OU=My Organizational Unit, CN=ChangeMe/emailAddress=me@example.net
        Validity
            Not Before: Nov 11 01:45:50 2023 GMT
            Not After : Nov 10 01:45:50 2024 GMT
        Subject: C=US, ST=OH, L=Cincinnati, O=University of Cincinnati, OU=Dept. Elec. Comp. Eng. Comp. Sci., CN=client92/emailAddress=franco@gauss.ececs.uc.edu
        Subject Public Key Info:
            Public Key Algorithm: rsaEncryption
                Public-Key: (2048 bit)
                Modulus:
                    00:f3:3f:b0:75:6e:34:0a:d9:5f:37:25:45:8c:a9:
                    8b:ae:95:78:a2:68:2d:31:50:c9:85:c4:be:34:a0:
                    78:23:d0:7b:b9:a4:ae:22:b7:45:e7:9a:60:9e:0f:
                    10:af:f6:6d:9a:51:ec:68:c7:24:4f:a4:46:cb:b6:
                    b6:45:48:e0:d4:c6:01:80:74:7d:e6:8f:1a:38:60:
                    4c:eb:e4:27:e5:9a:e0:28:13:21:6a:87:c0:de:18:
                    85:9b:18:18:ee:e7:e6:96:e6:2d:f4:e7:0b:5d:6b:
                    65:c3:44:4b:a9:5e:80:13:9e:54:fd:4f:e1:de:4d:
                    09:e8:5f:ed:62:c9:5a:81:8c:9e:57:49:d2:0e:52:
                    18:da:96:9e:45:d6:c7:37:5e:43:1e:10:3f:ae:77:
                    2c:73:80:36:9a:77:fe:6e:85:7c:6a:b5:9d:44:4f:
                    dd:fc:cd:fc:f0:d9:80:70:60:6b:e7:4b:02:15:af:
                    f4:d4:b1:02:a7:f4:af:00:78:25:5b:9d:4b:f6:70:
                    de:1e:5b:8a:c4:ad:f0:1a:f2:42:ee:1c:14:40:eb:
                    56:64:af:cb:bb:26:86:51:db:27:84:6a:da:e9:2b:
                    91:26:f6:cf:f5:3d:25:94:ea:28:3e:50:a5:9d:cb:
                    2d:15:64:4d:ae:37:87:be:97:9f:a5:fa:1a:62:8b:
                    01:b5
                Exponent: 65537 (0x10001)
        X509v3 extensions:
            X509v3 Basic Constraints: 
                CA:FALSE
            X509v3 Subject Key Identifier: 
                C2:D8:B2:21:A1:FF:DD:35:29:8B:E3:1A:42:5F:7F:4F:B3:6D:A6:C8
            X509v3 Authority Key Identifier: 
                keyid:73:DE:A0:43:0F:AE:B1:9E:E8:59:69:18:50:A1:1A:1F:D4:A1:E3:F0
                DirName:/C=US/ST=California/L=San Francisco/O=Copyleft Certificate Co/OU=My Organizational Unit/CN=ChangeMe/emailAddress=me@example.net
                serial:E9:BB:CB:16:C5:32:BE:3B

            X509v3 Extended Key Usage: 
                TLS Web Client Authentication
            X509v3 Key Usage: 
                Digital Signature
    Signature Algorithm: sha256WithRSAEncryption
         34:ca:92:96:5a:1b:93:64:99:1f:7c:a4:f4:b9:e5:03:ac:bd:
         83:a8:1d:44:c5:98:18:6f:ee:81:df:13:0e:f4:27:89:78:00:
         72:eb:fa:7c:7e:52:52:5b:7f:d0:d7:10:71:75:fa:5b:cb:39:
         05:be:0a:bc:51:81:2c:37:1b:db:47:12:c2:8e:b5:50:6e:c6:
         d7:f9:c9:74:8b:de:a3:26:a1:9a:4c:6d:80:52:b7:2c:62:ab:
         d9:2f:1d:46:79:b4:a8:26:0b:91:61:66:2f:7c:8e:5e:38:fe:
         0e:95:be:e1:3f:3a:c9:0d:c2:a4:16:a0:ad:d6:72:99:f5:3c:
         37:df:a0:b1:ec:f1:71:03:31:c6:c4:f8:25:79:f5:3b:80:79:
         64:5d:15:78:37:5a:21:71:72:e7:9a:45:ff:12:b7:9f:17:90:
         24:d1:2e:a3:5c:7d:28:57:a6:72:0a:ac:07:a3:e3:b1:59:3c:
         a2:d3:7b:0f:f3:8e:83:a5:7c:a5:40:27:ad:6d:d2:1d:7f:1e:
         08:ff:8e:25:b4:44:da:72:e9:f2:50:ee:27:9e:00:81:17:cd:
         52:64:39:38:f3:d9:a6:a4:52:eb:83:4e:73:bd:11:9f:82:54:
         ad:9f:e3:b2:22:38:5a:fa:87:e9:29:d5:82:e5:af:0a:c3:8d:
         7f:10:07:de
-----BEGIN CERTIFICATE-----
MIIFLzCCBBegAwIBAgIQQw5sxi11onBWE2UFLnkRZTANBgkqhkiG9w0BAQsFADCB
rzELMAkGA1UEBhMCVVMxEzARBgNVBAgMCkNhbGlmb3JuaWExFjAUBgNVBAcMDVNh
biBGcmFuY2lzY28xIDAeBgNVBAoMF0NvcHlsZWZ0IENlcnRpZmljYXRlIENvMR8w
HQYDVQQLDBZNeSBPcmdhbml6YXRpb25hbCBVbml0MREwDwYDVQQDDAhDaGFuZ2VN
ZTEdMBsGCSqGSIb3DQEJARYObWVAZXhhbXBsZS5uZXQwHhcNMjMxMTExMDE0NTUw
WhcNMjQxMTEwMDE0NTUwWjCBuzELMAkGA1UEBhMCVVMxCzAJBgNVBAgMAk9IMRMw
EQYDVQQHDApDaW5jaW5uYXRpMSEwHwYDVQQKDBhVbml2ZXJzaXR5IG9mIENpbmNp
bm5hdGkxKjAoBgNVBAsMIURlcHQuIEVsZWMuIENvbXAuIEVuZy4gQ29tcC4gU2Np
LjERMA8GA1UEAwwIY2xpZW50OTIxKDAmBgkqhkiG9w0BCQEWGWZyYW5jb0BnYXVz
cy5lY2Vjcy51Yy5lZHUwggEiMA0GCSqGSIb3DQEBAQUAA4IBDwAwggEKAoIBAQDz
P7B1bjQK2V83JUWMqYuulXiiaC0xUMmFxL40oHgj0Hu5pK4it0XnmmCeDxCv9m2a
UexoxyRPpEbLtrZFSODUxgGAdH3mjxo4YEzr5CflmuAoEyFqh8DeGIWbGBju5+aW
5i305wtda2XDREupXoATnlT9T+HeTQnoX+1iyVqBjJ5XSdIOUhjalp5F1sc3XkMe
ED+udyxzgDaad/5uhXxqtZ1ET938zfzw2YBwYGvnSwIVr/TUsQKn9K8AeCVbnUv2
cN4eW4rErfAa8kLuHBRA61Zkr8u7JoZR2yeEatrpK5Em9s/1PSWU6ig+UKWdyy0V
ZE2uN4e+l5+l+hpiiwG1AgMBAAGjggE3MIIBMzAJBgNVHRMEAjAAMB0GA1UdDgQW
BBTC2LIhof/dNSmL4xpCX39Ps22myDCB5AYDVR0jBIHcMIHZgBRz3qBDD66xnuhZ
aRhQoRof1KHj8KGBtaSBsjCBrzELMAkGA1UEBhMCVVMxEzARBgNVBAgMCkNhbGlm
b3JuaWExFjAUBgNVBAcMDVNhbiBGcmFuY2lzY28xIDAeBgNVBAoMF0NvcHlsZWZ0
IENlcnRpZmljYXRlIENvMR8wHQYDVQQLDBZNeSBPcmdhbml6YXRpb25hbCBVbml0
MREwDwYDVQQDDAhDaGFuZ2VNZTEdMBsGCSqGSIb3DQEJARYObWVAZXhhbXBsZS5u
ZXSCCQDpu8sWxTK+OzATBgNVHSUEDDAKBggrBgEFBQcDAjALBgNVHQ8EBAMCB4Aw
DQYJKoZIhvcNAQELBQADggEBADTKkpZaG5NkmR98pPS55QOsvYOoHUTFmBhv7oHf
Ew70J4l4AHLr+nx+UlJbf9DXEHF1+lvLOQW+CrxRgSw3G9tHEsKOtVBuxtf5yXSL
3qMmoZpMbYBStyxiq9kvHUZ5tKgmC5FhZi98jl44/g6VvuE/OskNwqQWoK3Wcpn1
PDffoLHs8XEDMcbE+CV59TuAeWRdFXg3WiFxcueaRf8St58XkCTRLqNcfShXpnIK
rAej47FZPKLTew/zjoOlfKVAJ61t0h1/Hgj/jiW0RNpy6fJQ7ieeAIEXzVJkOTjz
2aakUuuDTnO9EZ+CVK2f47IiOFr6h+kp1YLlrwrDjX8QB94=
-----END CERTIFICATE-----
