Certificate:
    Data:
        Version: 3 (0x2)
        Serial Number:
            6a:08:4b:62:5d:c8:42:31:78:eb:5f:18:97:a7:7e:34
    Signature Algorithm: sha256WithRSAEncryption
        Issuer: C=US, ST=California, L=San Francisco, O=Copyleft Certificate Co, OU=My Organizational Unit, CN=ChangeMe/emailAddress=me@example.net
        Validity
            Not Before: Nov 10 17:43:50 2023 GMT
            Not After : Nov  9 17:43:50 2024 GMT
        Subject: C=US, ST=OH, L=Cincinnati, O=University of Cincinnati, OU=Dept_Elec_Com_ Eng_Com_Sci., CN=client81/emailAddress=franco@gauss.ececs.uc.edu
        Subject Public Key Info:
            Public Key Algorithm: rsaEncryption
                Public-Key: (2048 bit)
                Modulus:
                    00:d2:1e:eb:2e:78:69:fc:1d:26:25:06:fe:f6:d0:
                    46:68:3a:b3:43:ca:37:52:19:b9:8b:a5:07:fe:e8:
                    9a:18:fa:4d:47:0a:d3:7f:2e:a9:95:34:4d:b2:c7:
                    15:ba:0e:56:56:f7:c4:18:07:02:c6:12:bb:c9:ca:
                    8a:e8:7a:d1:38:5a:72:71:bf:ad:24:2b:54:c7:2d:
                    45:3d:f0:ac:b9:8a:2b:5c:f1:e1:82:ef:ff:28:51:
                    9e:db:5e:20:fb:3f:8c:3b:eb:31:05:1f:f4:cd:98:
                    f6:cd:c1:36:df:c3:8e:82:09:ca:5b:bb:ac:0e:ea:
                    2d:db:8c:a4:ed:7f:94:25:58:ec:ab:02:27:4b:47:
                    dd:65:af:cd:3c:61:89:77:6d:08:2e:ba:41:9a:13:
                    04:c5:d3:32:f8:46:e9:50:a5:6e:3b:67:a0:50:ec:
                    c9:0d:4a:5f:cd:52:e3:e1:fc:ae:78:2a:ce:67:70:
                    1e:cd:de:2d:1f:bb:e7:5e:89:72:f1:64:ea:8f:6d:
                    52:b2:c3:1b:38:b4:e4:4f:d2:ff:93:9d:a8:2f:ee:
                    31:12:fb:10:53:ee:6a:d3:92:a9:98:0b:3b:91:06:
                    f8:af:ce:85:e6:1d:31:be:f1:05:f7:29:c3:3c:0a:
                    df:56:e2:92:13:b1:bf:05:f0:96:de:69:8f:ab:f4:
                    67:c9
                Exponent: 65537 (0x10001)
        X509v3 extensions:
            X509v3 Basic Constraints: 
                CA:FALSE
            X509v3 Subject Key Identifier: 
                AC:9E:AC:51:EA:38:32:67:8A:2B:1E:FB:77:FE:53:C2:4D:44:79:8D
            X509v3 Authority Key Identifier: 
                keyid:C8:27:DA:64:30:08:40:08:4A:25:CC:DC:43:99:DE:77:A1:FE:77:BD
                DirName:/C=US/ST=California/L=San Francisco/O=Copyleft Certificate Co/OU=My Organizational Unit/CN=ChangeMe/emailAddress=me@example.net
                serial:A9:48:C3:7E:FC:1B:B0:A1

            X509v3 Extended Key Usage: 
                TLS Web Client Authentication
            X509v3 Key Usage: 
                Digital Signature
    Signature Algorithm: sha256WithRSAEncryption
         b5:6e:d7:c5:bb:79:d8:d2:0c:09:c5:7b:03:ab:60:1d:e9:ed:
         fd:9a:10:53:a7:06:2f:97:60:25:94:58:e0:aa:c8:d0:41:2b:
         1c:1b:9c:32:4d:9d:d6:a1:ae:2e:48:e5:ec:e9:13:22:23:8e:
         81:ff:98:13:93:33:01:15:ab:a0:c0:ad:68:8c:b4:9a:f3:73:
         ce:68:bb:ac:f0:c2:80:35:4d:f2:2a:57:9d:08:1c:9f:0a:a4:
         d0:5f:67:b4:72:c5:78:41:03:1d:45:4b:42:a0:7c:b7:2b:44:
         89:9c:2d:c2:f4:2f:ac:dc:44:42:0b:c1:a3:61:ce:21:3a:8f:
         94:10:3d:a0:73:70:4a:45:a6:de:92:66:9f:11:2c:c9:21:55:
         6f:0f:d4:45:e8:eb:8c:9b:23:a7:e5:6b:5c:4d:f3:c5:e6:3d:
         44:37:3a:30:05:67:67:b3:f8:83:73:d0:2d:59:07:b8:37:15:
         06:39:3e:78:c7:b6:ee:37:4b:c7:7e:cb:ee:5c:36:6a:02:75:
         33:4b:67:69:e0:fd:a0:a8:33:86:81:00:9e:e9:a9:a7:0a:48:
         51:8e:83:88:8a:fe:a5:e1:d5:96:75:a2:ef:11:5a:31:46:5e:
         a7:b6:0e:7c:f3:3c:b6:0d:38:75:95:ff:b1:fd:ea:65:be:00:
         4d:3f:6a:eb
-----BEGIN CERTIFICATE-----
MIIFKTCCBBGgAwIBAgIQaghLYl3IQjF4618Yl6d+NDANBgkqhkiG9w0BAQsFADCB
rzELMAkGA1UEBhMCVVMxEzARBgNVBAgMCkNhbGlmb3JuaWExFjAUBgNVBAcMDVNh
biBGcmFuY2lzY28xIDAeBgNVBAoMF0NvcHlsZWZ0IENlcnRpZmljYXRlIENvMR8w
HQYDVQQLDBZNeSBPcmdhbml6YXRpb25hbCBVbml0MREwDwYDVQQDDAhDaGFuZ2VN
ZTEdMBsGCSqGSIb3DQEJARYObWVAZXhhbXBsZS5uZXQwHhcNMjMxMTEwMTc0MzUw
WhcNMjQxMTA5MTc0MzUwWjCBtTELMAkGA1UEBhMCVVMxCzAJBgNVBAgMAk9IMRMw
EQYDVQQHDApDaW5jaW5uYXRpMSEwHwYDVQQKDBhVbml2ZXJzaXR5IG9mIENpbmNp
bm5hdGkxJDAiBgNVBAsMG0RlcHRfRWxlY19Db21fIEVuZ19Db21fU2NpLjERMA8G
A1UEAwwIY2xpZW50ODExKDAmBgkqhkiG9w0BCQEWGWZyYW5jb0BnYXVzcy5lY2Vj
cy51Yy5lZHUwggEiMA0GCSqGSIb3DQEBAQUAA4IBDwAwggEKAoIBAQDSHusueGn8
HSYlBv720EZoOrNDyjdSGbmLpQf+6JoY+k1HCtN/LqmVNE2yxxW6DlZW98QYBwLG
ErvJyoroetE4WnJxv60kK1THLUU98Ky5iitc8eGC7/8oUZ7bXiD7P4w76zEFH/TN
mPbNwTbfw46CCcpbu6wO6i3bjKTtf5QlWOyrAidLR91lr808YYl3bQguukGaEwTF
0zL4RulQpW47Z6BQ7MkNSl/NUuPh/K54Ks5ncB7N3i0fu+deiXLxZOqPbVKywxs4
tORP0v+Tnagv7jES+xBT7mrTkqmYCzuRBvivzoXmHTG+8QX3KcM8Ct9W4pITsb8F
8JbeaY+r9GfJAgMBAAGjggE3MIIBMzAJBgNVHRMEAjAAMB0GA1UdDgQWBBSsnqxR
6jgyZ4orHvt3/lPCTUR5jTCB5AYDVR0jBIHcMIHZgBTIJ9pkMAhACEolzNxDmd53
of53vaGBtaSBsjCBrzELMAkGA1UEBhMCVVMxEzARBgNVBAgMCkNhbGlmb3JuaWEx
FjAUBgNVBAcMDVNhbiBGcmFuY2lzY28xIDAeBgNVBAoMF0NvcHlsZWZ0IENlcnRp
ZmljYXRlIENvMR8wHQYDVQQLDBZNeSBPcmdhbml6YXRpb25hbCBVbml0MREwDwYD
VQQDDAhDaGFuZ2VNZTEdMBsGCSqGSIb3DQEJARYObWVAZXhhbXBsZS5uZXSCCQCp
SMN+/BuwoTATBgNVHSUEDDAKBggrBgEFBQcDAjALBgNVHQ8EBAMCB4AwDQYJKoZI
hvcNAQELBQADggEBALVu18W7edjSDAnFewOrYB3p7f2aEFOnBi+XYCWUWOCqyNBB
KxwbnDJNndahri5I5ezpEyIjjoH/mBOTMwEVq6DArWiMtJrzc85ou6zwwoA1TfIq
V50IHJ8KpNBfZ7RyxXhBAx1FS0KgfLcrRImcLcL0L6zcREILwaNhziE6j5QQPaBz
cEpFpt6SZp8RLMkhVW8P1EXo64ybI6fla1xN88XmPUQ3OjAFZ2ez+INz0C1ZB7g3
FQY5PnjHtu43S8d+y+5cNmoCdTNLZ2ng/aCoM4aBAJ7pqacKSFGOg4iK/qXh1ZZ1
ou8RWjFGXqe2DnzzPLYNOHWV/7H96mW+AE0/aus=
-----END CERTIFICATE-----
