Certificate:
    Data:
        Version: 3 (0x2)
        Serial Number:
            51:b1:ec:42:77:fb:0b:90:2f:20:ba:6b:15:c6:f3:53
    Signature Algorithm: sha256WithRSAEncryption
        Issuer: C=US, ST=California, L=San Francisco, O=Copyleft Certificate Co, OU=My Organizational Unit, CN=ChangeMe/emailAddress=me@example.net
        Validity
            Not Before: Nov 10 17:44:58 2023 GMT
            Not After : Nov  9 17:44:58 2024 GMT
        Subject: C=US, ST=OH, L=Cincinnati, O=University of Cincinnati, OU=Dept_Elec_Com_ Eng_Com_Sci., CN=client98/emailAddress=franco@gauss.ececs.uc.edu
        Subject Public Key Info:
            Public Key Algorithm: rsaEncryption
                Public-Key: (2048 bit)
                Modulus:
                    00:a4:45:26:0b:94:72:ff:8b:69:99:c8:70:04:ea:
                    1d:0d:aa:2a:93:da:d5:6e:ac:c3:06:51:74:12:08:
                    8e:85:8c:70:cd:9d:90:e8:fc:3e:eb:b2:a5:f8:8b:
                    5a:26:da:4d:1a:e2:46:47:8f:b6:e8:1e:a7:bc:69:
                    07:d9:25:2d:12:65:13:a1:a7:04:d8:a0:c1:1b:32:
                    a3:aa:ef:4c:fc:05:74:6a:9f:0b:1c:0c:8b:2b:25:
                    57:ac:24:5f:4e:a0:55:0c:be:36:c9:b4:89:7c:83:
                    d7:a9:4e:5f:22:e9:35:24:bc:f1:8e:4e:6a:95:45:
                    9e:fa:eb:c6:df:ca:ae:5e:eb:08:bc:30:91:f3:71:
                    82:a7:7a:b9:f8:b6:1c:3f:27:62:c4:9c:c2:2d:b5:
                    c0:57:d2:ef:db:f0:7e:4b:4d:37:85:5f:5f:c8:0a:
                    b5:be:8e:b0:28:b2:5a:68:b2:32:27:10:c3:fb:a2:
                    f9:74:5e:e5:cc:19:28:f6:c8:c2:bd:d0:88:b8:9d:
                    e7:b8:39:07:6f:1e:46:71:76:f2:43:c7:b5:ab:84:
                    6a:48:a7:e3:6c:ba:ec:eb:4c:8a:ed:06:ee:99:e0:
                    36:27:24:ea:cd:80:e5:fb:a5:27:9b:01:cf:d7:ad:
                    5a:f2:0a:33:af:80:5b:ef:85:1d:52:ba:2d:54:db:
                    ed:31
                Exponent: 65537 (0x10001)
        X509v3 extensions:
            X509v3 Basic Constraints: 
                CA:FALSE
            X509v3 Subject Key Identifier: 
                A5:17:FD:A6:63:3F:EF:6B:D7:33:4F:12:15:4A:5C:52:D9:E7:B1:29
            X509v3 Authority Key Identifier: 
                keyid:C8:27:DA:64:30:08:40:08:4A:25:CC:DC:43:99:DE:77:A1:FE:77:BD
                DirName:/C=US/ST=California/L=San Francisco/O=Copyleft Certificate Co/OU=My Organizational Unit/CN=ChangeMe/emailAddress=me@example.net
                serial:A9:48:C3:7E:FC:1B:B0:A1

            X509v3 Extended Key Usage: 
                TLS Web Client Authentication
            X509v3 Key Usage: 
                Digital Signature
    Signature Algorithm: sha256WithRSAEncryption
         30:8e:0d:9c:ad:e6:b5:61:83:78:21:92:c7:9a:b6:07:fe:0e:
         71:99:9f:4a:f5:cc:1e:69:56:bb:5e:4c:39:c9:7c:dc:cf:2d:
         12:82:62:f6:15:92:e9:cb:e9:5e:b3:18:5c:ff:de:60:50:ef:
         2c:97:fc:c8:13:fa:65:4c:08:4b:3a:95:99:34:cd:7d:83:8f:
         7f:d7:5f:45:93:14:07:97:e9:f6:c4:8f:29:a5:ff:9b:f5:ce:
         15:f1:3c:f4:a5:e7:39:64:49:f4:19:04:8f:28:70:74:a5:74:
         ff:8c:f9:c7:46:82:39:ff:fc:23:b3:98:af:89:5e:ba:ae:9b:
         70:f7:6e:af:9e:9f:39:80:bc:06:3c:9b:83:f7:a2:1a:f7:6e:
         e4:be:34:5e:dd:2f:43:3e:8f:41:68:da:c1:a6:59:18:c1:e7:
         3e:c3:aa:fe:a2:00:60:4d:15:f2:5f:09:c8:bf:c0:eb:46:1f:
         c7:98:0b:6d:b5:df:3c:67:a2:7e:ba:46:44:fa:41:bb:ad:c8:
         9d:5c:fc:7f:db:ee:1e:71:5a:bb:c3:16:33:c9:9c:ab:9b:1a:
         f3:45:f2:33:07:1e:67:7e:52:d1:55:b3:cc:a9:06:6f:3f:f7:
         ea:11:d2:85:3f:36:bb:aa:1f:4e:4d:50:73:b3:7b:ad:f2:17:
         d2:1c:74:f5
-----BEGIN CERTIFICATE-----
MIIFKTCCBBGgAwIBAgIQUbHsQnf7C5AvILprFcbzUzANBgkqhkiG9w0BAQsFADCB
rzELMAkGA1UEBhMCVVMxEzARBgNVBAgMCkNhbGlmb3JuaWExFjAUBgNVBAcMDVNh
biBGcmFuY2lzY28xIDAeBgNVBAoMF0NvcHlsZWZ0IENlcnRpZmljYXRlIENvMR8w
HQYDVQQLDBZNeSBPcmdhbml6YXRpb25hbCBVbml0MREwDwYDVQQDDAhDaGFuZ2VN
ZTEdMBsGCSqGSIb3DQEJARYObWVAZXhhbXBsZS5uZXQwHhcNMjMxMTEwMTc0NDU4
WhcNMjQxMTA5MTc0NDU4WjCBtTELMAkGA1UEBhMCVVMxCzAJBgNVBAgMAk9IMRMw
EQYDVQQHDApDaW5jaW5uYXRpMSEwHwYDVQQKDBhVbml2ZXJzaXR5IG9mIENpbmNp
bm5hdGkxJDAiBgNVBAsMG0RlcHRfRWxlY19Db21fIEVuZ19Db21fU2NpLjERMA8G
A1UEAwwIY2xpZW50OTgxKDAmBgkqhkiG9w0BCQEWGWZyYW5jb0BnYXVzcy5lY2Vj
cy51Yy5lZHUwggEiMA0GCSqGSIb3DQEBAQUAA4IBDwAwggEKAoIBAQCkRSYLlHL/
i2mZyHAE6h0NqiqT2tVurMMGUXQSCI6FjHDNnZDo/D7rsqX4i1om2k0a4kZHj7bo
Hqe8aQfZJS0SZROhpwTYoMEbMqOq70z8BXRqnwscDIsrJVesJF9OoFUMvjbJtIl8
g9epTl8i6TUkvPGOTmqVRZ7668bfyq5e6wi8MJHzcYKnern4thw/J2LEnMIttcBX
0u/b8H5LTTeFX1/ICrW+jrAoslposjInEMP7ovl0XuXMGSj2yMK90Ii4nee4OQdv
HkZxdvJDx7WrhGpIp+NsuuzrTIrtBu6Z4DYnJOrNgOX7pSebAc/XrVryCjOvgFvv
hR1Sui1U2+0xAgMBAAGjggE3MIIBMzAJBgNVHRMEAjAAMB0GA1UdDgQWBBSlF/2m
Yz/va9czTxIVSlxS2eexKTCB5AYDVR0jBIHcMIHZgBTIJ9pkMAhACEolzNxDmd53
of53vaGBtaSBsjCBrzELMAkGA1UEBhMCVVMxEzARBgNVBAgMCkNhbGlmb3JuaWEx
FjAUBgNVBAcMDVNhbiBGcmFuY2lzY28xIDAeBgNVBAoMF0NvcHlsZWZ0IENlcnRp
ZmljYXRlIENvMR8wHQYDVQQLDBZNeSBPcmdhbml6YXRpb25hbCBVbml0MREwDwYD
VQQDDAhDaGFuZ2VNZTEdMBsGCSqGSIb3DQEJARYObWVAZXhhbXBsZS5uZXSCCQCp
SMN+/BuwoTATBgNVHSUEDDAKBggrBgEFBQcDAjALBgNVHQ8EBAMCB4AwDQYJKoZI
hvcNAQELBQADggEBADCODZyt5rVhg3ghkseatgf+DnGZn0r1zB5pVrteTDnJfNzP
LRKCYvYVkunL6V6zGFz/3mBQ7yyX/MgT+mVMCEs6lZk0zX2Dj3/XX0WTFAeX6fbE
jyml/5v1zhXxPPSl5zlkSfQZBI8ocHSldP+M+cdGgjn//COzmK+JXrqum3D3bq+e
nzmAvAY8m4P3ohr3buS+NF7dL0M+j0Fo2sGmWRjB5z7Dqv6iAGBNFfJfCci/wOtG
H8eYC2213zxnon66RkT6QbutyJ1c/H/b7h5xWrvDFjPJnKubGvNF8jMHHmd+UtFV
s8ypBm8/9+oR0oU/NruqH05NUHOze63yF9IcdPU=
-----END CERTIFICATE-----
