Certificate:
    Data:
        Version: 3 (0x2)
        Serial Number:
            39:ed:aa:36:da:c8:4c:1f:ce:64:c2:8d:f0:f7:2e:03
    Signature Algorithm: sha256WithRSAEncryption
        Issuer: C=US, ST=California, L=San Francisco, O=Copyleft Certificate Co, OU=My Organizational Unit, CN=ChangeMe/emailAddress=me@example.net
        Validity
            Not Before: Nov 11 10:56:32 2023 GMT
            Not After : Nov 10 10:56:32 2024 GMT
        Subject: C=US, ST=OH, L=Cincinnati, O=University of Cincinnati, OU=Dept. Elec. Comp. Eng. Comp. Sci., CN=client19/emailAddress=franco@gauss.ececs.uc.edu
        Subject Public Key Info:
            Public Key Algorithm: rsaEncryption
                Public-Key: (2048 bit)
                Modulus:
                    00:b8:60:1d:d0:e9:8d:07:3f:06:33:6f:4d:ad:98:
                    75:17:67:bf:bb:e9:18:4c:98:4e:03:11:2d:d7:1e:
                    c5:2d:3d:56:bf:01:bf:b1:c0:36:ff:6c:bd:47:5a:
                    69:04:e8:a4:b7:75:4c:ad:73:b9:29:3d:9f:dd:8a:
                    ef:41:17:77:6b:15:33:59:ea:aa:2f:8a:33:a0:27:
                    3b:58:ae:04:17:ec:97:f5:0f:ea:a8:8e:75:d8:cf:
                    5d:35:c4:aa:33:b0:2b:9d:24:f2:1b:a2:e8:99:cf:
                    dc:03:3c:51:91:64:85:81:09:30:3b:e0:ba:9a:37:
                    12:f4:02:7b:00:40:b0:17:8a:e1:82:5c:6b:9e:0b:
                    bd:f5:e2:6d:67:6a:29:1d:42:fa:0e:6e:ae:74:d2:
                    db:66:9e:b5:28:6c:4b:c3:6c:7b:6e:bf:09:23:af:
                    48:e0:c8:59:ca:4a:39:f3:48:26:56:d4:4c:90:a1:
                    f6:be:0d:bf:e0:0c:3d:a2:fd:16:d3:7b:ad:56:24:
                    7a:2d:cd:cd:1c:f5:3e:23:85:c1:b1:d0:4d:f3:0d:
                    f4:78:a9:49:c2:6c:22:b4:2d:cb:d1:7f:f7:19:c1:
                    df:82:3b:e5:1c:ba:c9:b7:85:c1:fa:70:02:c0:c0:
                    16:97:3b:a6:57:af:48:a8:83:cc:d3:81:0e:48:1f:
                    03:cf
                Exponent: 65537 (0x10001)
        X509v3 extensions:
            X509v3 Basic Constraints: 
                CA:FALSE
            X509v3 Subject Key Identifier: 
                6C:64:5E:50:4D:BB:4E:20:A4:41:9C:00:1E:1C:BF:E4:54:08:88:B0
            X509v3 Authority Key Identifier: 
                keyid:44:01:CC:06:0B:41:75:CB:C8:FB:C9:37:86:2D:9D:D2:D8:79:B6:8B
                DirName:/C=US/ST=California/L=San Francisco/O=Copyleft Certificate Co/OU=My Organizational Unit/CN=ChangeMe/emailAddress=me@example.net
                serial:AF:E8:E0:DD:C5:8B:0E:DD

            X509v3 Extended Key Usage: 
                TLS Web Client Authentication
            X509v3 Key Usage: 
                Digital Signature
    Signature Algorithm: sha256WithRSAEncryption
         2a:f4:2e:66:18:8c:a7:bf:35:98:bd:59:37:5f:8c:0f:e6:70:
         4d:5d:0c:09:7f:74:8f:10:a7:9c:8e:ac:60:1f:05:90:eb:e1:
         e5:51:cd:09:23:db:c6:ed:36:55:38:74:9d:d5:c2:a0:56:a3:
         4e:9d:e7:19:a4:5c:c9:c3:34:c5:50:a8:49:0d:53:f6:75:2b:
         43:c0:29:49:10:b6:f7:a9:e0:b3:07:40:bd:dd:50:58:6c:f4:
         5d:d9:1a:6a:76:ef:55:e6:f8:9f:67:00:30:e4:2d:e9:96:ab:
         a3:82:12:eb:72:eb:ca:1e:c5:75:73:8e:14:50:7c:a6:55:cc:
         82:95:19:86:fe:02:57:73:c8:e4:c0:11:92:d9:39:6c:cb:53:
         58:98:52:59:a9:67:73:2c:3e:f7:98:cf:65:93:3d:cb:17:e5:
         18:b9:8b:de:1e:21:2e:76:4f:f6:60:71:78:fb:58:34:0f:35:
         7b:e2:ca:be:28:e4:7c:4d:dc:08:32:ec:96:8a:a7:94:a5:9f:
         1c:5d:c8:ff:f4:38:7c:2e:07:80:d0:0b:20:55:5f:7d:4c:3b:
         5f:ef:79:f4:77:12:d8:c0:3f:c7:7c:ef:ea:65:7e:ef:c6:0f:
         b6:9e:68:91:69:ec:67:ec:b1:55:ce:a3:58:cc:78:bd:73:b3:
         75:c4:24:a7
-----BEGIN CERTIFICATE-----
MIIFLzCCBBegAwIBAgIQOe2qNtrITB/OZMKN8PcuAzANBgkqhkiG9w0BAQsFADCB
rzELMAkGA1UEBhMCVVMxEzARBgNVBAgMCkNhbGlmb3JuaWExFjAUBgNVBAcMDVNh
biBGcmFuY2lzY28xIDAeBgNVBAoMF0NvcHlsZWZ0IENlcnRpZmljYXRlIENvMR8w
HQYDVQQLDBZNeSBPcmdhbml6YXRpb25hbCBVbml0MREwDwYDVQQDDAhDaGFuZ2VN
ZTEdMBsGCSqGSIb3DQEJARYObWVAZXhhbXBsZS5uZXQwHhcNMjMxMTExMTA1NjMy
WhcNMjQxMTEwMTA1NjMyWjCBuzELMAkGA1UEBhMCVVMxCzAJBgNVBAgMAk9IMRMw
EQYDVQQHDApDaW5jaW5uYXRpMSEwHwYDVQQKDBhVbml2ZXJzaXR5IG9mIENpbmNp
bm5hdGkxKjAoBgNVBAsMIURlcHQuIEVsZWMuIENvbXAuIEVuZy4gQ29tcC4gU2Np
LjERMA8GA1UEAwwIY2xpZW50MTkxKDAmBgkqhkiG9w0BCQEWGWZyYW5jb0BnYXVz
cy5lY2Vjcy51Yy5lZHUwggEiMA0GCSqGSIb3DQEBAQUAA4IBDwAwggEKAoIBAQC4
YB3Q6Y0HPwYzb02tmHUXZ7+76RhMmE4DES3XHsUtPVa/Ab+xwDb/bL1HWmkE6KS3
dUytc7kpPZ/diu9BF3drFTNZ6qovijOgJztYrgQX7Jf1D+qojnXYz101xKozsCud
JPIbouiZz9wDPFGRZIWBCTA74LqaNxL0AnsAQLAXiuGCXGueC7314m1naikdQvoO
bq500ttmnrUobEvDbHtuvwkjr0jgyFnKSjnzSCZW1EyQofa+Db/gDD2i/RbTe61W
JHotzc0c9T4jhcGx0E3zDfR4qUnCbCK0LcvRf/cZwd+CO+Ucusm3hcH6cALAwBaX
O6ZXr0iog8zTgQ5IHwPPAgMBAAGjggE3MIIBMzAJBgNVHRMEAjAAMB0GA1UdDgQW
BBRsZF5QTbtOIKRBnAAeHL/kVAiIsDCB5AYDVR0jBIHcMIHZgBREAcwGC0F1y8j7
yTeGLZ3S2Hm2i6GBtaSBsjCBrzELMAkGA1UEBhMCVVMxEzARBgNVBAgMCkNhbGlm
b3JuaWExFjAUBgNVBAcMDVNhbiBGcmFuY2lzY28xIDAeBgNVBAoMF0NvcHlsZWZ0
IENlcnRpZmljYXRlIENvMR8wHQYDVQQLDBZNeSBPcmdhbml6YXRpb25hbCBVbml0
MREwDwYDVQQDDAhDaGFuZ2VNZTEdMBsGCSqGSIb3DQEJARYObWVAZXhhbXBsZS5u
ZXSCCQCv6ODdxYsO3TATBgNVHSUEDDAKBggrBgEFBQcDAjALBgNVHQ8EBAMCB4Aw
DQYJKoZIhvcNAQELBQADggEBACr0LmYYjKe/NZi9WTdfjA/mcE1dDAl/dI8Qp5yO
rGAfBZDr4eVRzQkj28btNlU4dJ3VwqBWo06d5xmkXMnDNMVQqEkNU/Z1K0PAKUkQ
tvep4LMHQL3dUFhs9F3ZGmp271Xm+J9nADDkLemWq6OCEuty68oexXVzjhRQfKZV
zIKVGYb+AldzyOTAEZLZOWzLU1iYUlmpZ3MsPveYz2WTPcsX5Ri5i94eIS52T/Zg
cXj7WDQPNXviyr4o5HxN3Agy7JaKp5SlnxxdyP/0OHwuB4DQCyBVX31MO1/vefR3
EtjAP8d87+plfu/GD7aeaJFp7GfssVXOo1jMeL1zs3XEJKc=
-----END CERTIFICATE-----
