Certificate:
    Data:
        Version: 3 (0x2)
        Serial Number:
            d1:72:2a:32:c8:d8:77:80:8a:8e:61:11:27:3d:33:69
    Signature Algorithm: sha256WithRSAEncryption
        Issuer: C=US, ST=California, L=San Francisco, O=Copyleft Certificate Co, OU=My Organizational Unit, CN=ChangeMe/emailAddress=me@example.net
        Validity
            Not Before: Nov 11 02:01:23 2023 GMT
            Not After : Nov 10 02:01:23 2024 GMT
        Subject: C=US, ST=OH, L=Cincinnati, O=University of Cincinnati, OU=Dept. Elec. Comp. Eng. Comp. Sci., CN=client50/emailAddress=franco@gauss.ececs.uc.edu
        Subject Public Key Info:
            Public Key Algorithm: rsaEncryption
                Public-Key: (2048 bit)
                Modulus:
                    00:b9:35:28:d7:a8:7d:10:a6:f1:fb:3c:2f:1f:39:
                    70:79:af:b6:98:2c:19:f3:1c:8e:9c:42:85:c5:d0:
                    c9:20:2e:4d:44:98:6a:8e:8d:a0:6f:33:1b:4e:fe:
                    99:56:c2:62:72:34:57:b5:6c:ff:d1:1f:92:45:6f:
                    49:f6:f5:87:8a:0f:0a:3c:d0:24:b0:bc:00:13:91:
                    13:bd:0f:b0:9e:ee:aa:8a:67:fa:41:cf:76:db:de:
                    8d:e6:9f:31:69:97:44:ed:e0:d9:ca:17:35:b4:43:
                    02:93:82:18:ec:0d:c1:fd:b2:87:44:b6:18:26:a2:
                    cb:ce:8d:28:09:f6:f2:77:73:20:19:7f:86:7f:5a:
                    a6:70:23:9c:af:7e:b6:26:02:01:92:48:8b:98:fe:
                    20:7b:4b:8b:c4:69:95:82:27:c2:f3:6c:f0:2b:4a:
                    de:a9:5a:38:db:39:e8:07:84:79:64:59:f3:ab:1d:
                    ce:6e:9b:59:92:af:9c:f2:c5:04:e0:ff:c2:76:9c:
                    33:37:bd:81:87:13:87:59:0c:54:3f:95:95:a1:a1:
                    a4:b3:7c:69:7a:03:74:4d:c8:90:c4:94:6a:3b:2c:
                    eb:50:f9:aa:d7:46:77:3e:0d:f5:f4:28:dd:cc:26:
                    97:59:0e:42:3e:01:bd:1a:82:7c:a4:ef:b4:c9:e2:
                    de:0d
                Exponent: 65537 (0x10001)
        X509v3 extensions:
            X509v3 Basic Constraints: 
                CA:FALSE
            X509v3 Subject Key Identifier: 
                FC:50:5F:77:D3:AF:C8:CA:D0:9A:10:BF:7C:5D:4E:3F:99:7B:6B:69
            X509v3 Authority Key Identifier: 
                keyid:7B:0F:93:16:64:9F:71:41:D3:1B:FB:ED:6A:70:9B:CA:2E:70:F0:4B
                DirName:/C=US/ST=California/L=San Francisco/O=Copyleft Certificate Co/OU=My Organizational Unit/CN=ChangeMe/emailAddress=me@example.net
                serial:B9:F2:4E:2C:79:B3:D4:6C

            X509v3 Extended Key Usage: 
                TLS Web Client Authentication
            X509v3 Key Usage: 
                Digital Signature
    Signature Algorithm: sha256WithRSAEncryption
         22:67:50:82:01:05:dc:52:c4:3b:eb:b4:d7:39:ef:c8:3d:bb:
         59:a4:e3:5c:e7:eb:8f:df:fd:39:d9:fe:3d:e2:66:e6:ac:99:
         32:05:71:f3:c3:60:52:99:2a:60:e2:e0:ef:bc:9e:a5:2e:3e:
         35:53:ec:37:99:45:09:0b:c9:38:1d:6e:1b:da:1f:ab:b8:47:
         ec:d1:c2:8a:65:25:dd:45:d1:f1:f2:09:ad:9c:8e:63:18:0a:
         b5:df:41:89:01:46:4d:55:3a:eb:0e:07:b6:7f:35:f9:00:fa:
         79:9f:67:31:d4:ce:ae:07:ac:e1:73:b5:f6:02:79:1c:ec:83:
         fc:06:29:f8:f7:ae:b1:b4:5c:8b:95:0f:65:d0:6d:14:0a:e6:
         23:2b:6a:4c:cf:4e:2f:8b:90:9d:0e:86:f7:9a:5c:f8:82:00:
         e5:1b:5c:be:14:dd:f0:f5:57:62:82:12:3d:2f:af:8b:16:cc:
         2d:cf:48:7d:1b:d2:7a:a8:27:0a:35:1c:64:6a:8f:5d:a2:4b:
         b9:81:16:ea:82:63:73:a9:17:fc:14:2b:ec:54:91:2c:3a:eb:
         d0:bf:1a:40:89:c4:e8:ef:13:52:a0:6b:2a:1d:ba:c8:ed:8d:
         17:0d:90:48:a6:16:9d:0d:c3:1d:d4:35:d9:b7:8b:ff:b8:04:
         3e:df:87:16
-----BEGIN CERTIFICATE-----
MIIFMDCCBBigAwIBAgIRANFyKjLI2HeAio5hESc9M2kwDQYJKoZIhvcNAQELBQAw
ga8xCzAJBgNVBAYTAlVTMRMwEQYDVQQIDApDYWxpZm9ybmlhMRYwFAYDVQQHDA1T
YW4gRnJhbmNpc2NvMSAwHgYDVQQKDBdDb3B5bGVmdCBDZXJ0aWZpY2F0ZSBDbzEf
MB0GA1UECwwWTXkgT3JnYW5pemF0aW9uYWwgVW5pdDERMA8GA1UEAwwIQ2hhbmdl
TWUxHTAbBgkqhkiG9w0BCQEWDm1lQGV4YW1wbGUubmV0MB4XDTIzMTExMTAyMDEy
M1oXDTI0MTExMDAyMDEyM1owgbsxCzAJBgNVBAYTAlVTMQswCQYDVQQIDAJPSDET
MBEGA1UEBwwKQ2luY2lubmF0aTEhMB8GA1UECgwYVW5pdmVyc2l0eSBvZiBDaW5j
aW5uYXRpMSowKAYDVQQLDCFEZXB0LiBFbGVjLiBDb21wLiBFbmcuIENvbXAuIFNj
aS4xETAPBgNVBAMMCGNsaWVudDUwMSgwJgYJKoZIhvcNAQkBFhlmcmFuY29AZ2F1
c3MuZWNlY3MudWMuZWR1MIIBIjANBgkqhkiG9w0BAQEFAAOCAQ8AMIIBCgKCAQEA
uTUo16h9EKbx+zwvHzlwea+2mCwZ8xyOnEKFxdDJIC5NRJhqjo2gbzMbTv6ZVsJi
cjRXtWz/0R+SRW9J9vWHig8KPNAksLwAE5ETvQ+wnu6qimf6Qc92296N5p8xaZdE
7eDZyhc1tEMCk4IY7A3B/bKHRLYYJqLLzo0oCfbyd3MgGX+Gf1qmcCOcr362JgIB
kkiLmP4ge0uLxGmVgifC82zwK0reqVo42znoB4R5ZFnzqx3ObptZkq+c8sUE4P/C
dpwzN72BhxOHWQxUP5WVoaGks3xpegN0TciQxJRqOyzrUPmq10Z3Pg319CjdzCaX
WQ5CPgG9GoJ8pO+0yeLeDQIDAQABo4IBNzCCATMwCQYDVR0TBAIwADAdBgNVHQ4E
FgQU/FBfd9OvyMrQmhC/fF1OP5l7a2kwgeQGA1UdIwSB3DCB2YAUew+TFmSfcUHT
G/vtanCbyi5w8EuhgbWkgbIwga8xCzAJBgNVBAYTAlVTMRMwEQYDVQQIDApDYWxp
Zm9ybmlhMRYwFAYDVQQHDA1TYW4gRnJhbmNpc2NvMSAwHgYDVQQKDBdDb3B5bGVm
dCBDZXJ0aWZpY2F0ZSBDbzEfMB0GA1UECwwWTXkgT3JnYW5pemF0aW9uYWwgVW5p
dDERMA8GA1UEAwwIQ2hhbmdlTWUxHTAbBgkqhkiG9w0BCQEWDm1lQGV4YW1wbGUu
bmV0ggkAufJOLHmz1GwwEwYDVR0lBAwwCgYIKwYBBQUHAwIwCwYDVR0PBAQDAgeA
MA0GCSqGSIb3DQEBCwUAA4IBAQAiZ1CCAQXcUsQ767TXOe/IPbtZpONc5+uP3/05
2f494mbmrJkyBXHzw2BSmSpg4uDvvJ6lLj41U+w3mUUJC8k4HW4b2h+ruEfs0cKK
ZSXdRdHx8gmtnI5jGAq130GJAUZNVTrrDge2fzX5APp5n2cx1M6uB6zhc7X2Ankc
7IP8Bin4966xtFyLlQ9l0G0UCuYjK2pMz04vi5CdDob3mlz4ggDlG1y+FN3w9Vdi
ghI9L6+LFswtz0h9G9J6qCcKNRxkao9doku5gRbqgmNzqRf8FCvsVJEsOuvQvxpA
icTo7xNSoGsqHbrI7Y0XDZBIphadDcMd1DXZt4v/uAQ+34cW
-----END CERTIFICATE-----
