Certificate:
    Data:
        Version: 3 (0x2)
        Serial Number:
            cf:87:3e:0a:51:db:1b:d5:32:4d:ac:80:fe:a3:2a:f8
    Signature Algorithm: sha256WithRSAEncryption
        Issuer: C=US, ST=California, L=San Francisco, O=Copyleft Certificate Co, OU=My Organizational Unit, CN=ChangeMe/emailAddress=me@example.net
        Validity
            Not Before: Nov 11 01:44:06 2023 GMT
            Not After : Nov 10 01:44:06 2024 GMT
        Subject: C=US, ST=OH, L=Cincinnati, O=University of Cincinnati, OU=Dept. Elec. Comp. Eng. Comp. Sci., CN=client66/emailAddress=franco@gauss.ececs.uc.edu
        Subject Public Key Info:
            Public Key Algorithm: rsaEncryption
                Public-Key: (2048 bit)
                Modulus:
                    00:bf:19:22:dc:f5:28:40:b3:50:50:bd:20:0e:e3:
                    3d:c6:b2:87:e3:ea:24:4b:5d:54:77:92:82:7b:2e:
                    44:2e:14:48:8d:14:7d:85:41:75:40:15:90:14:e2:
                    4e:e8:46:9d:e6:7d:e7:14:56:ee:31:6f:32:2e:d8:
                    df:d0:8e:2e:4e:30:6f:86:87:14:b8:69:f1:54:6c:
                    64:d9:ae:47:7c:96:21:66:5e:ea:d2:8f:92:fb:f9:
                    16:4b:fc:0e:67:44:9c:e7:9f:7f:11:eb:f4:26:54:
                    90:e3:bd:a3:9f:16:a5:22:d2:db:b3:81:a0:36:52:
                    e6:e7:3c:e0:e2:a6:5d:01:6b:2a:a7:21:0c:e6:fd:
                    79:4a:8b:7f:1b:47:ed:7f:41:a5:0b:18:02:58:6c:
                    3e:b4:62:19:2f:d3:5e:b6:bb:12:ca:7d:67:18:cf:
                    11:02:2f:24:88:64:b9:7f:d0:8d:32:b6:24:c7:8b:
                    4c:14:df:ce:7a:f5:46:6c:f0:dd:28:20:65:82:82:
                    0b:ec:8a:ad:ea:0c:10:97:a7:5b:ea:68:db:d6:3d:
                    46:fe:61:5f:57:a5:18:ef:d7:ec:96:b2:60:37:1f:
                    f6:7a:a6:79:18:0b:f9:77:71:88:4b:7f:c9:4a:43:
                    9a:2c:6a:28:a6:71:c1:c4:af:3c:6d:f7:1e:b3:fe:
                    a6:33
                Exponent: 65537 (0x10001)
        X509v3 extensions:
            X509v3 Basic Constraints: 
                CA:FALSE
            X509v3 Subject Key Identifier: 
                61:B1:D2:BF:15:E6:63:95:9C:09:E4:C4:8B:D8:53:69:01:57:00:5E
            X509v3 Authority Key Identifier: 
                keyid:73:DE:A0:43:0F:AE:B1:9E:E8:59:69:18:50:A1:1A:1F:D4:A1:E3:F0
                DirName:/C=US/ST=California/L=San Francisco/O=Copyleft Certificate Co/OU=My Organizational Unit/CN=ChangeMe/emailAddress=me@example.net
                serial:E9:BB:CB:16:C5:32:BE:3B

            X509v3 Extended Key Usage: 
                TLS Web Client Authentication
            X509v3 Key Usage: 
                Digital Signature
    Signature Algorithm: sha256WithRSAEncryption
         67:7a:dc:41:b9:89:31:b9:90:88:ff:43:5f:51:c8:2f:d3:06:
         bd:67:a2:18:86:98:47:91:75:0d:5f:55:53:7c:0e:78:19:e7:
         91:09:3e:78:22:0e:dd:ac:a8:f1:97:e7:3a:b3:4b:d1:93:95:
         e6:9d:69:d2:de:28:9c:55:b0:3b:33:9c:ed:6c:69:cf:e9:cd:
         a1:82:02:1f:dd:a7:15:cc:29:ed:aa:10:e5:8f:ae:d5:a0:1d:
         ec:a1:c8:6a:5e:4b:7f:98:94:6f:07:f9:d0:17:e1:89:97:eb:
         f3:fa:1d:74:dc:e7:3c:22:c9:13:96:e1:14:6a:20:d3:7b:ad:
         2c:3f:39:2d:6a:8f:2e:56:71:4e:76:ff:c0:f5:6e:cd:de:7b:
         16:e4:2b:d3:1d:ea:2a:88:fa:74:61:88:7d:57:2e:90:d1:fa:
         a7:de:d9:5f:4b:95:17:a3:49:64:5d:ef:1b:03:41:d2:c0:88:
         b2:4f:c1:d4:86:e3:78:46:71:18:f7:4f:eb:b2:3b:3f:be:73:
         0c:bd:f0:db:f6:e3:7b:41:a2:81:ad:3f:2d:40:ad:8e:ee:2f:
         bf:95:6d:c5:3b:ab:a0:d2:c6:09:4b:89:0a:f7:17:4a:63:73:
         88:cf:01:db:ab:e7:e3:ee:6a:42:80:0b:4b:05:75:c0:a6:e3:
         9f:a3:cb:55
-----BEGIN CERTIFICATE-----
MIIFMDCCBBigAwIBAgIRAM+HPgpR2xvVMk2sgP6jKvgwDQYJKoZIhvcNAQELBQAw
ga8xCzAJBgNVBAYTAlVTMRMwEQYDVQQIDApDYWxpZm9ybmlhMRYwFAYDVQQHDA1T
YW4gRnJhbmNpc2NvMSAwHgYDVQQKDBdDb3B5bGVmdCBDZXJ0aWZpY2F0ZSBDbzEf
MB0GA1UECwwWTXkgT3JnYW5pemF0aW9uYWwgVW5pdDERMA8GA1UEAwwIQ2hhbmdl
TWUxHTAbBgkqhkiG9w0BCQEWDm1lQGV4YW1wbGUubmV0MB4XDTIzMTExMTAxNDQw
NloXDTI0MTExMDAxNDQwNlowgbsxCzAJBgNVBAYTAlVTMQswCQYDVQQIDAJPSDET
MBEGA1UEBwwKQ2luY2lubmF0aTEhMB8GA1UECgwYVW5pdmVyc2l0eSBvZiBDaW5j
aW5uYXRpMSowKAYDVQQLDCFEZXB0LiBFbGVjLiBDb21wLiBFbmcuIENvbXAuIFNj
aS4xETAPBgNVBAMMCGNsaWVudDY2MSgwJgYJKoZIhvcNAQkBFhlmcmFuY29AZ2F1
c3MuZWNlY3MudWMuZWR1MIIBIjANBgkqhkiG9w0BAQEFAAOCAQ8AMIIBCgKCAQEA
vxki3PUoQLNQUL0gDuM9xrKH4+okS11Ud5KCey5ELhRIjRR9hUF1QBWQFOJO6Ead
5n3nFFbuMW8yLtjf0I4uTjBvhocUuGnxVGxk2a5HfJYhZl7q0o+S+/kWS/wOZ0Sc
559/Eev0JlSQ472jnxalItLbs4GgNlLm5zzg4qZdAWsqpyEM5v15Sot/G0ftf0Gl
CxgCWGw+tGIZL9NetrsSyn1nGM8RAi8kiGS5f9CNMrYkx4tMFN/OevVGbPDdKCBl
goIL7Iqt6gwQl6db6mjb1j1G/mFfV6UY79fslrJgNx/2eqZ5GAv5d3GIS3/JSkOa
LGoopnHBxK88bfces/6mMwIDAQABo4IBNzCCATMwCQYDVR0TBAIwADAdBgNVHQ4E
FgQUYbHSvxXmY5WcCeTEi9hTaQFXAF4wgeQGA1UdIwSB3DCB2YAUc96gQw+usZ7o
WWkYUKEaH9Sh4/ChgbWkgbIwga8xCzAJBgNVBAYTAlVTMRMwEQYDVQQIDApDYWxp
Zm9ybmlhMRYwFAYDVQQHDA1TYW4gRnJhbmNpc2NvMSAwHgYDVQQKDBdDb3B5bGVm
dCBDZXJ0aWZpY2F0ZSBDbzEfMB0GA1UECwwWTXkgT3JnYW5pemF0aW9uYWwgVW5p
dDERMA8GA1UEAwwIQ2hhbmdlTWUxHTAbBgkqhkiG9w0BCQEWDm1lQGV4YW1wbGUu
bmV0ggkA6bvLFsUyvjswEwYDVR0lBAwwCgYIKwYBBQUHAwIwCwYDVR0PBAQDAgeA
MA0GCSqGSIb3DQEBCwUAA4IBAQBnetxBuYkxuZCI/0NfUcgv0wa9Z6IYhphHkXUN
X1VTfA54GeeRCT54Ig7drKjxl+c6s0vRk5XmnWnS3iicVbA7M5ztbGnP6c2hggIf
3acVzCntqhDlj67VoB3sochqXkt/mJRvB/nQF+GJl+vz+h103Oc8IskTluEUaiDT
e60sPzktao8uVnFOdv/A9W7N3nsW5CvTHeoqiPp0YYh9Vy6Q0fqn3tlfS5UXo0lk
Xe8bA0HSwIiyT8HUhuN4RnEY90/rsjs/vnMMvfDb9uN7QaKBrT8tQK2O7i+/lW3F
O6ug0sYJS4kK9xdKY3OIzwHbq+fj7mpCgAtLBXXApuOfo8tV
-----END CERTIFICATE-----
