Certificate:
    Data:
        Version: 3 (0x2)
        Serial Number:
            cb:a9:1e:b5:ee:a2:e4:9c:30:46:6b:46:7a:e9:ac:a7
    Signature Algorithm: sha256WithRSAEncryption
        Issuer: C=US, ST=California, L=San Francisco, O=Copyleft Certificate Co, OU=My Organizational Unit, CN=ChangeMe/emailAddress=me@example.net
        Validity
            Not Before: Nov 11 01:48:54 2023 GMT
            Not After : Nov 10 01:48:54 2024 GMT
        Subject: C=US, ST=OH, L=Cincinnati, O=University of Cincinnati, OU=Dept. Elec. Comp. Eng. Comp. Sci., CN=client138/emailAddress=franco@gauss.ececs.uc.edu
        Subject Public Key Info:
            Public Key Algorithm: rsaEncryption
                Public-Key: (2048 bit)
                Modulus:
                    00:d2:b7:96:07:7a:05:47:b7:1e:c7:1a:be:db:05:
                    6c:9a:16:ff:2c:c2:ff:c3:37:0c:49:6c:fa:a0:fb:
                    cf:58:e0:1c:e9:36:ec:e6:44:28:2b:0b:cc:f5:78:
                    bf:69:49:30:f1:1d:ab:d4:36:60:58:fc:74:30:f1:
                    70:f2:72:e2:93:52:89:bd:9a:ce:9a:64:e7:16:8a:
                    6c:4b:2c:5b:a3:85:95:7b:be:12:a5:e5:a9:ae:f3:
                    2e:3a:ce:a0:e9:b1:1a:76:12:db:0b:cd:5c:d9:4c:
                    7b:61:90:bf:6d:a4:9a:97:d5:c4:6b:2b:71:cd:dc:
                    12:37:33:fd:2d:3b:70:78:66:5e:38:0c:8a:da:de:
                    87:a4:0d:08:90:83:8e:c0:63:d2:e4:2b:07:0c:20:
                    49:88:31:0d:06:da:95:bc:8f:9e:09:5e:e1:b2:f5:
                    62:a9:7b:11:e8:24:15:05:48:21:ed:c3:58:2e:a4:
                    42:f2:e1:fa:33:69:72:d7:b0:69:b9:8e:2a:d6:aa:
                    68:e7:a3:b4:63:78:89:23:5f:2c:23:0c:ff:4d:6a:
                    c1:e6:14:7d:ed:7b:f8:22:10:49:82:df:5e:e0:cf:
                    1d:6b:af:88:56:31:70:4e:62:8e:ca:fd:9c:fb:4d:
                    e1:57:45:cd:3b:12:f8:77:39:01:b7:0e:53:71:4c:
                    09:43
                Exponent: 65537 (0x10001)
        X509v3 extensions:
            X509v3 Basic Constraints: 
                CA:FALSE
            X509v3 Subject Key Identifier: 
                00:19:1F:BC:AB:26:61:34:46:8D:4A:6B:C2:7F:16:72:AA:0E:62:A0
            X509v3 Authority Key Identifier: 
                keyid:73:DE:A0:43:0F:AE:B1:9E:E8:59:69:18:50:A1:1A:1F:D4:A1:E3:F0
                DirName:/C=US/ST=California/L=San Francisco/O=Copyleft Certificate Co/OU=My Organizational Unit/CN=ChangeMe/emailAddress=me@example.net
                serial:E9:BB:CB:16:C5:32:BE:3B

            X509v3 Extended Key Usage: 
                TLS Web Client Authentication
            X509v3 Key Usage: 
                Digital Signature
    Signature Algorithm: sha256WithRSAEncryption
         ad:62:35:34:f4:93:ff:04:53:55:9e:b2:ec:fb:67:03:80:4b:
         23:44:0c:1c:ac:97:28:94:a5:79:3c:c6:14:fe:45:b9:84:99:
         d1:85:44:2a:81:de:35:c9:3d:3f:cb:6d:f9:92:25:99:1a:91:
         29:09:98:3d:cb:64:ef:5f:5a:e1:12:f9:dd:fd:17:2d:21:bb:
         45:59:5c:45:70:5e:13:49:d1:8b:6e:35:06:ca:2e:41:05:56:
         1c:71:2d:2d:95:22:54:9f:e6:4f:49:1f:d8:0f:c6:0e:5e:55:
         d4:74:2d:2d:25:de:ec:e7:d2:4b:67:51:c0:8c:a3:e6:88:a3:
         2c:43:ba:77:ab:6e:39:fd:7e:e4:65:2b:48:3f:ed:90:f5:36:
         c2:cf:7b:e1:2f:bf:46:e2:05:40:97:5b:cf:7c:3a:d2:23:af:
         8b:13:47:d5:29:c2:41:42:29:a9:1d:f8:17:30:ed:49:49:9b:
         9e:40:82:da:0c:a4:98:65:a1:6f:41:24:d5:cd:0e:7b:59:d5:
         09:f5:3a:da:e2:c3:50:d7:b3:79:1e:7d:ce:ed:d4:9d:af:b3:
         bb:f6:d3:17:f4:c1:fb:da:b8:b4:b2:dc:ee:d2:1e:2b:90:6f:
         4f:6d:0d:12:21:50:dc:7c:8e:db:50:0b:c5:14:a6:85:fd:72:
         e7:a4:f4:9f
-----BEGIN CERTIFICATE-----
MIIFMTCCBBmgAwIBAgIRAMupHrXuouScMEZrRnrprKcwDQYJKoZIhvcNAQELBQAw
ga8xCzAJBgNVBAYTAlVTMRMwEQYDVQQIDApDYWxpZm9ybmlhMRYwFAYDVQQHDA1T
YW4gRnJhbmNpc2NvMSAwHgYDVQQKDBdDb3B5bGVmdCBDZXJ0aWZpY2F0ZSBDbzEf
MB0GA1UECwwWTXkgT3JnYW5pemF0aW9uYWwgVW5pdDERMA8GA1UEAwwIQ2hhbmdl
TWUxHTAbBgkqhkiG9w0BCQEWDm1lQGV4YW1wbGUubmV0MB4XDTIzMTExMTAxNDg1
NFoXDTI0MTExMDAxNDg1NFowgbwxCzAJBgNVBAYTAlVTMQswCQYDVQQIDAJPSDET
MBEGA1UEBwwKQ2luY2lubmF0aTEhMB8GA1UECgwYVW5pdmVyc2l0eSBvZiBDaW5j
aW5uYXRpMSowKAYDVQQLDCFEZXB0LiBFbGVjLiBDb21wLiBFbmcuIENvbXAuIFNj
aS4xEjAQBgNVBAMMCWNsaWVudDEzODEoMCYGCSqGSIb3DQEJARYZZnJhbmNvQGdh
dXNzLmVjZWNzLnVjLmVkdTCCASIwDQYJKoZIhvcNAQEBBQADggEPADCCAQoCggEB
ANK3lgd6BUe3HscavtsFbJoW/yzC/8M3DEls+qD7z1jgHOk27OZEKCsLzPV4v2lJ
MPEdq9Q2YFj8dDDxcPJy4pNSib2azppk5xaKbEssW6OFlXu+EqXlqa7zLjrOoOmx
GnYS2wvNXNlMe2GQv22kmpfVxGsrcc3cEjcz/S07cHhmXjgMitreh6QNCJCDjsBj
0uQrBwwgSYgxDQbalbyPngle4bL1Yql7EegkFQVIIe3DWC6kQvLh+jNpctewabmO
KtaqaOejtGN4iSNfLCMM/01qweYUfe17+CIQSYLfXuDPHWuviFYxcE5ijsr9nPtN
4VdFzTsS+Hc5AbcOU3FMCUMCAwEAAaOCATcwggEzMAkGA1UdEwQCMAAwHQYDVR0O
BBYEFAAZH7yrJmE0Ro1Ka8J/FnKqDmKgMIHkBgNVHSMEgdwwgdmAFHPeoEMPrrGe
6FlpGFChGh/UoePwoYG1pIGyMIGvMQswCQYDVQQGEwJVUzETMBEGA1UECAwKQ2Fs
aWZvcm5pYTEWMBQGA1UEBwwNU2FuIEZyYW5jaXNjbzEgMB4GA1UECgwXQ29weWxl
ZnQgQ2VydGlmaWNhdGUgQ28xHzAdBgNVBAsMFk15IE9yZ2FuaXphdGlvbmFsIFVu
aXQxETAPBgNVBAMMCENoYW5nZU1lMR0wGwYJKoZIhvcNAQkBFg5tZUBleGFtcGxl
Lm5ldIIJAOm7yxbFMr47MBMGA1UdJQQMMAoGCCsGAQUFBwMCMAsGA1UdDwQEAwIH
gDANBgkqhkiG9w0BAQsFAAOCAQEArWI1NPST/wRTVZ6y7PtnA4BLI0QMHKyXKJSl
eTzGFP5FuYSZ0YVEKoHeNck9P8tt+ZIlmRqRKQmYPctk719a4RL53f0XLSG7RVlc
RXBeE0nRi241BsouQQVWHHEtLZUiVJ/mT0kf2A/GDl5V1HQtLSXe7OfSS2dRwIyj
5oijLEO6d6tuOf1+5GUrSD/tkPU2ws974S+/RuIFQJdbz3w60iOvixNH1SnCQUIp
qR34FzDtSUmbnkCC2gykmGWhb0Ek1c0Oe1nVCfU62uLDUNezeR59zu3Una+zu/bT
F/TB+9q4tLLc7tIeK5BvT20NEiFQ3HyO21ALxRSmhf1y56T0nw==
-----END CERTIFICATE-----
