Certificate:
    Data:
        Version: 3 (0x2)
        Serial Number:
            f2:be:9f:e6:9e:2a:16:55:cc:6d:52:ff:a4:5b:53:d2
    Signature Algorithm: sha256WithRSAEncryption
        Issuer: C=US, ST=California, L=San Francisco, O=Copyleft Certificate Co, OU=My Organizational Unit, CN=ChangeMe/emailAddress=me@example.net
        Validity
            Not Before: Nov 11 01:43:54 2023 GMT
            Not After : Nov 10 01:43:54 2024 GMT
        Subject: C=US, ST=OH, L=Cincinnati, O=University of Cincinnati, OU=Dept. Elec. Comp. Eng. Comp. Sci., CN=client63/emailAddress=franco@gauss.ececs.uc.edu
        Subject Public Key Info:
            Public Key Algorithm: rsaEncryption
                Public-Key: (2048 bit)
                Modulus:
                    00:a6:24:af:16:ec:b4:d5:36:01:4b:37:64:22:c4:
                    d1:37:7f:55:1e:de:f3:1c:19:0a:29:a3:52:be:19:
                    ec:5a:d4:ac:32:36:c5:48:35:5d:26:53:7e:db:34:
                    2d:28:01:62:e4:39:de:d7:16:be:1c:91:ee:91:88:
                    83:21:5d:5e:76:28:0b:de:33:b3:ca:95:bc:2a:8f:
                    e8:52:e0:52:0f:ec:90:d8:25:7f:13:91:35:3c:63:
                    4c:b4:fb:36:9b:47:ee:be:99:b1:78:25:cc:a3:c2:
                    fc:52:72:95:3f:54:02:60:c4:d3:9c:52:be:38:32:
                    a0:5f:9d:ee:82:d0:db:59:1f:c2:6e:84:3d:47:96:
                    86:fe:e5:78:84:f3:e0:7a:42:26:9e:b7:43:15:47:
                    a9:31:01:73:21:a7:0f:5a:c8:75:0f:d6:b6:1e:3b:
                    75:2a:01:ef:7f:10:6e:a1:72:1f:94:c3:c8:1c:ed:
                    e4:07:52:bb:9b:2e:d5:0f:60:8f:c1:f5:76:e9:9c:
                    c6:8c:41:81:2f:82:54:5b:5b:20:32:13:e2:85:f3:
                    40:ce:e0:fe:5f:26:1c:f8:b6:39:90:0f:ab:d2:98:
                    0d:ad:25:07:82:92:c1:ce:2c:c5:14:30:fb:78:2c:
                    bf:bd:06:64:83:c2:09:b3:c8:5d:fa:67:e3:6d:cb:
                    ae:8b
                Exponent: 65537 (0x10001)
        X509v3 extensions:
            X509v3 Basic Constraints: 
                CA:FALSE
            X509v3 Subject Key Identifier: 
                C8:A2:50:01:53:03:B5:52:F3:47:ED:2E:72:DD:3C:5A:E8:F8:A5:7A
            X509v3 Authority Key Identifier: 
                keyid:73:DE:A0:43:0F:AE:B1:9E:E8:59:69:18:50:A1:1A:1F:D4:A1:E3:F0
                DirName:/C=US/ST=California/L=San Francisco/O=Copyleft Certificate Co/OU=My Organizational Unit/CN=ChangeMe/emailAddress=me@example.net
                serial:E9:BB:CB:16:C5:32:BE:3B

            X509v3 Extended Key Usage: 
                TLS Web Client Authentication
            X509v3 Key Usage: 
                Digital Signature
    Signature Algorithm: sha256WithRSAEncryption
         7a:87:37:18:54:f1:5b:48:90:ff:19:54:d9:21:d4:81:0f:9f:
         0d:8e:8d:53:f6:34:87:64:50:72:42:d4:5c:1a:51:b2:0f:b3:
         b2:ac:aa:58:da:bf:9d:7b:8f:48:9b:7f:5e:ab:d1:88:2a:d3:
         87:3f:d3:ea:b5:b2:96:01:f0:af:a1:49:e3:16:7b:91:d2:13:
         8f:2e:77:b4:4a:d5:a5:71:86:fd:3c:17:16:c3:5b:53:81:f6:
         5c:0c:5f:01:bf:32:d3:d4:53:53:ec:ba:4c:e9:34:6e:44:da:
         3a:aa:c8:24:ce:fe:91:85:7c:e4:e8:99:de:80:76:5e:41:8a:
         be:34:fc:ee:42:e0:64:32:8e:2f:e3:69:74:34:42:0b:82:76:
         f1:d7:70:2b:2c:e7:cd:ab:f6:9c:da:f0:f5:b9:70:b5:9f:46:
         ef:b4:d3:8f:f8:1a:d8:e5:d5:60:d9:e8:b2:58:26:91:07:af:
         7d:23:3f:1a:5d:b3:15:13:95:34:18:f0:e3:1e:62:01:e7:bd:
         43:e3:4c:84:9e:6b:ee:39:2b:e6:27:86:71:02:7b:d7:d7:2b:
         bc:dc:9f:6a:74:3f:49:6a:2d:ff:aa:a0:c6:b1:ab:13:67:e0:
         b0:ee:48:52:4c:7d:28:89:c5:e1:03:96:3b:03:c2:b8:e3:56:
         f2:2b:86:e8
-----BEGIN CERTIFICATE-----
MIIFMDCCBBigAwIBAgIRAPK+n+aeKhZVzG1S/6RbU9IwDQYJKoZIhvcNAQELBQAw
ga8xCzAJBgNVBAYTAlVTMRMwEQYDVQQIDApDYWxpZm9ybmlhMRYwFAYDVQQHDA1T
YW4gRnJhbmNpc2NvMSAwHgYDVQQKDBdDb3B5bGVmdCBDZXJ0aWZpY2F0ZSBDbzEf
MB0GA1UECwwWTXkgT3JnYW5pemF0aW9uYWwgVW5pdDERMA8GA1UEAwwIQ2hhbmdl
TWUxHTAbBgkqhkiG9w0BCQEWDm1lQGV4YW1wbGUubmV0MB4XDTIzMTExMTAxNDM1
NFoXDTI0MTExMDAxNDM1NFowgbsxCzAJBgNVBAYTAlVTMQswCQYDVQQIDAJPSDET
MBEGA1UEBwwKQ2luY2lubmF0aTEhMB8GA1UECgwYVW5pdmVyc2l0eSBvZiBDaW5j
aW5uYXRpMSowKAYDVQQLDCFEZXB0LiBFbGVjLiBDb21wLiBFbmcuIENvbXAuIFNj
aS4xETAPBgNVBAMMCGNsaWVudDYzMSgwJgYJKoZIhvcNAQkBFhlmcmFuY29AZ2F1
c3MuZWNlY3MudWMuZWR1MIIBIjANBgkqhkiG9w0BAQEFAAOCAQ8AMIIBCgKCAQEA
piSvFuy01TYBSzdkIsTRN39VHt7zHBkKKaNSvhnsWtSsMjbFSDVdJlN+2zQtKAFi
5Dne1xa+HJHukYiDIV1edigL3jOzypW8Ko/oUuBSD+yQ2CV/E5E1PGNMtPs2m0fu
vpmxeCXMo8L8UnKVP1QCYMTTnFK+ODKgX53ugtDbWR/CboQ9R5aG/uV4hPPgekIm
nrdDFUepMQFzIacPWsh1D9a2Hjt1KgHvfxBuoXIflMPIHO3kB1K7my7VD2CPwfV2
6ZzGjEGBL4JUW1sgMhPihfNAzuD+XyYc+LY5kA+r0pgNrSUHgpLBzizFFDD7eCy/
vQZkg8IJs8hd+mfjbcuuiwIDAQABo4IBNzCCATMwCQYDVR0TBAIwADAdBgNVHQ4E
FgQUyKJQAVMDtVLzR+0uct08Wuj4pXowgeQGA1UdIwSB3DCB2YAUc96gQw+usZ7o
WWkYUKEaH9Sh4/ChgbWkgbIwga8xCzAJBgNVBAYTAlVTMRMwEQYDVQQIDApDYWxp
Zm9ybmlhMRYwFAYDVQQHDA1TYW4gRnJhbmNpc2NvMSAwHgYDVQQKDBdDb3B5bGVm
dCBDZXJ0aWZpY2F0ZSBDbzEfMB0GA1UECwwWTXkgT3JnYW5pemF0aW9uYWwgVW5p
dDERMA8GA1UEAwwIQ2hhbmdlTWUxHTAbBgkqhkiG9w0BCQEWDm1lQGV4YW1wbGUu
bmV0ggkA6bvLFsUyvjswEwYDVR0lBAwwCgYIKwYBBQUHAwIwCwYDVR0PBAQDAgeA
MA0GCSqGSIb3DQEBCwUAA4IBAQB6hzcYVPFbSJD/GVTZIdSBD58Njo1T9jSHZFBy
QtRcGlGyD7OyrKpY2r+de49Im39eq9GIKtOHP9PqtbKWAfCvoUnjFnuR0hOPLne0
StWlcYb9PBcWw1tTgfZcDF8BvzLT1FNT7LpM6TRuRNo6qsgkzv6RhXzk6JnegHZe
QYq+NPzuQuBkMo4v42l0NEILgnbx13ArLOfNq/ac2vD1uXC1n0bvtNOP+BrY5dVg
2eiyWCaRB699Iz8aXbMVE5U0GPDjHmIB571D40yEnmvuOSvmJ4ZxAnvX1yu83J9q
dD9Jai3/qqDGsasTZ+Cw7khSTH0oicXhA5Y7A8K441byK4bo
-----END CERTIFICATE-----
