Certificate:
    Data:
        Version: 3 (0x2)
        Serial Number:
            ed:30:c0:0e:b7:31:c2:0c:87:0e:cc:bf:fa:f4:b3:26
    Signature Algorithm: sha256WithRSAEncryption
        Issuer: C=US, ST=California, L=San Francisco, O=Copyleft Certificate Co, OU=My Organizational Unit, CN=ChangeMe/emailAddress=me@example.net
        Validity
            Not Before: Nov 10 17:45:58 2023 GMT
            Not After : Nov  9 17:45:58 2024 GMT
        Subject: C=US, ST=OH, L=Cincinnati, O=University of Cincinnati, OU=Dept_Elec_Com_ Eng_Com_Sci., CN=client113/emailAddress=franco@gauss.ececs.uc.edu
        Subject Public Key Info:
            Public Key Algorithm: rsaEncryption
                Public-Key: (2048 bit)
                Modulus:
                    00:c1:54:cb:b4:4f:35:5b:0f:8f:70:18:fb:d7:b0:
                    4b:ce:63:3b:8a:f0:d7:c4:0c:15:28:d5:28:9c:1e:
                    07:01:fa:cc:44:9c:65:d9:a2:11:14:85:0a:8b:0b:
                    39:77:5f:a8:2c:58:16:bf:ca:89:e3:e3:2b:e9:67:
                    6f:70:a5:4a:a2:fb:ed:d3:cc:32:4f:a1:41:fb:a5:
                    51:ed:87:7b:86:fa:ee:80:1e:c1:9d:53:1e:4d:a0:
                    f6:7d:e4:d7:47:9f:0b:4b:2b:86:2d:51:d1:48:1b:
                    86:f4:c7:41:03:1b:cb:b1:d7:83:cf:58:b7:66:1a:
                    32:17:97:03:0a:2a:fc:fe:c5:e6:f4:04:6b:cb:1d:
                    dc:ca:f1:e3:bc:a5:24:8e:bc:09:d5:88:13:19:75:
                    1f:6e:40:2c:45:59:a9:72:91:8e:7c:82:5a:05:3f:
                    c9:a1:75:9c:b4:f8:a0:07:99:ce:8a:cf:45:e5:09:
                    e7:3c:5e:c8:90:76:27:24:34:74:60:90:2f:9a:8c:
                    3d:45:a4:e5:6f:f0:fb:76:90:da:27:dd:8e:33:7e:
                    95:45:e0:cc:a2:1f:90:6c:66:ed:e5:c6:36:9a:37:
                    c5:c3:2d:04:0d:8f:b8:b0:fd:58:76:52:90:e6:ea:
                    c5:92:b9:1e:8c:64:59:56:b9:67:6a:96:0a:29:33:
                    c0:55
                Exponent: 65537 (0x10001)
        X509v3 extensions:
            X509v3 Basic Constraints: 
                CA:FALSE
            X509v3 Subject Key Identifier: 
                0C:4A:37:CA:4B:10:22:A1:C1:C1:50:01:20:93:DE:BF:8C:93:80:41
            X509v3 Authority Key Identifier: 
                keyid:C8:27:DA:64:30:08:40:08:4A:25:CC:DC:43:99:DE:77:A1:FE:77:BD
                DirName:/C=US/ST=California/L=San Francisco/O=Copyleft Certificate Co/OU=My Organizational Unit/CN=ChangeMe/emailAddress=me@example.net
                serial:A9:48:C3:7E:FC:1B:B0:A1

            X509v3 Extended Key Usage: 
                TLS Web Client Authentication
            X509v3 Key Usage: 
                Digital Signature
    Signature Algorithm: sha256WithRSAEncryption
         60:6d:98:c7:f3:21:01:80:30:32:3e:57:67:c3:b0:78:b2:a3:
         cf:76:51:95:28:e2:a3:8e:bd:00:bb:d7:5d:5a:4d:22:91:0c:
         32:f9:2b:72:59:6f:3f:8d:1c:7d:4d:f2:c7:8d:ff:ef:2b:db:
         b6:30:94:72:3f:df:b1:7a:30:a7:49:31:23:16:0d:e1:60:65:
         fb:7d:1b:24:87:a3:82:20:79:22:39:d0:34:6d:fd:5e:ac:fe:
         68:94:13:6b:c8:54:0b:aa:fb:34:67:81:20:4c:52:93:c9:7b:
         87:b5:3c:77:74:95:07:8f:30:cf:5f:1a:1a:50:3d:f8:c5:d6:
         f9:a6:9e:13:71:a2:c6:99:a6:fe:53:1b:7c:f0:e8:a0:57:13:
         17:73:11:14:d0:51:c1:19:74:bd:6c:82:e4:41:ef:76:bd:bb:
         66:1e:80:84:85:44:6f:b8:11:b6:14:a0:d7:26:42:80:94:31:
         e3:46:1e:3c:9b:54:6a:25:21:33:ea:bb:ae:00:20:8d:cf:3a:
         97:2a:16:ce:9f:8b:35:c0:fc:48:b9:20:32:b4:cf:67:0e:3b:
         ad:6c:c7:0e:e6:ef:fa:55:7b:e4:d8:56:a8:64:3b:b4:bc:52:
         92:88:76:b7:5e:1d:8b:4a:96:98:5c:d9:56:86:c3:73:eb:be:
         46:85:8d:84
-----BEGIN CERTIFICATE-----
MIIFKzCCBBOgAwIBAgIRAO0wwA63McIMhw7Mv/r0syYwDQYJKoZIhvcNAQELBQAw
ga8xCzAJBgNVBAYTAlVTMRMwEQYDVQQIDApDYWxpZm9ybmlhMRYwFAYDVQQHDA1T
YW4gRnJhbmNpc2NvMSAwHgYDVQQKDBdDb3B5bGVmdCBDZXJ0aWZpY2F0ZSBDbzEf
MB0GA1UECwwWTXkgT3JnYW5pemF0aW9uYWwgVW5pdDERMA8GA1UEAwwIQ2hhbmdl
TWUxHTAbBgkqhkiG9w0BCQEWDm1lQGV4YW1wbGUubmV0MB4XDTIzMTExMDE3NDU1
OFoXDTI0MTEwOTE3NDU1OFowgbYxCzAJBgNVBAYTAlVTMQswCQYDVQQIDAJPSDET
MBEGA1UEBwwKQ2luY2lubmF0aTEhMB8GA1UECgwYVW5pdmVyc2l0eSBvZiBDaW5j
aW5uYXRpMSQwIgYDVQQLDBtEZXB0X0VsZWNfQ29tXyBFbmdfQ29tX1NjaS4xEjAQ
BgNVBAMMCWNsaWVudDExMzEoMCYGCSqGSIb3DQEJARYZZnJhbmNvQGdhdXNzLmVj
ZWNzLnVjLmVkdTCCASIwDQYJKoZIhvcNAQEBBQADggEPADCCAQoCggEBAMFUy7RP
NVsPj3AY+9ewS85jO4rw18QMFSjVKJweBwH6zEScZdmiERSFCosLOXdfqCxYFr/K
iePjK+lnb3ClSqL77dPMMk+hQfulUe2He4b67oAewZ1THk2g9n3k10efC0srhi1R
0UgbhvTHQQMby7HXg89Yt2YaMheXAwoq/P7F5vQEa8sd3Mrx47ylJI68CdWIExl1
H25ALEVZqXKRjnyCWgU/yaF1nLT4oAeZzorPReUJ5zxeyJB2JyQ0dGCQL5qMPUWk
5W/w+3aQ2ifdjjN+lUXgzKIfkGxm7eXGNpo3xcMtBA2PuLD9WHZSkObqxZK5Hoxk
WVa5Z2qWCikzwFUCAwEAAaOCATcwggEzMAkGA1UdEwQCMAAwHQYDVR0OBBYEFAxK
N8pLECKhwcFQASCT3r+Mk4BBMIHkBgNVHSMEgdwwgdmAFMgn2mQwCEAISiXM3EOZ
3neh/ne9oYG1pIGyMIGvMQswCQYDVQQGEwJVUzETMBEGA1UECAwKQ2FsaWZvcm5p
YTEWMBQGA1UEBwwNU2FuIEZyYW5jaXNjbzEgMB4GA1UECgwXQ29weWxlZnQgQ2Vy
dGlmaWNhdGUgQ28xHzAdBgNVBAsMFk15IE9yZ2FuaXphdGlvbmFsIFVuaXQxETAP
BgNVBAMMCENoYW5nZU1lMR0wGwYJKoZIhvcNAQkBFg5tZUBleGFtcGxlLm5ldIIJ
AKlIw378G7ChMBMGA1UdJQQMMAoGCCsGAQUFBwMCMAsGA1UdDwQEAwIHgDANBgkq
hkiG9w0BAQsFAAOCAQEAYG2Yx/MhAYAwMj5XZ8OweLKjz3ZRlSjio469ALvXXVpN
IpEMMvkrcllvP40cfU3yx43/7yvbtjCUcj/fsXowp0kxIxYN4WBl+30bJIejgiB5
IjnQNG39Xqz+aJQTa8hUC6r7NGeBIExSk8l7h7U8d3SVB48wz18aGlA9+MXW+aae
E3Gixpmm/lMbfPDooFcTF3MRFNBRwRl0vWyC5EHvdr27Zh6AhIVEb7gRthSg1yZC
gJQx40YePJtUaiUhM+q7rgAgjc86lyoWzp+LNcD8SLkgMrTPZw47rWzHDubv+lV7
5NhWqGQ7tLxSkoh2t14di0qWmFzZVobDc+u+RoWNhA==
-----END CERTIFICATE-----
