Certificate:
    Data:
        Version: 3 (0x2)
        Serial Number:
            87:a7:c6:af:ba:3a:44:ac:83:70:80:49:db:38:f7:69
    Signature Algorithm: sha256WithRSAEncryption
        Issuer: C=US, ST=California, L=San Francisco, O=Copyleft Certificate Co, OU=My Organizational Unit, CN=ChangeMe/emailAddress=me@example.net
        Validity
            Not Before: Nov 11 01:46:54 2023 GMT
            Not After : Nov 10 01:46:54 2024 GMT
        Subject: C=US, ST=OH, L=Cincinnati, O=University of Cincinnati, OU=Dept. Elec. Comp. Eng. Comp. Sci., CN=client108/emailAddress=franco@gauss.ececs.uc.edu
        Subject Public Key Info:
            Public Key Algorithm: rsaEncryption
                Public-Key: (2048 bit)
                Modulus:
                    00:a0:cb:71:2f:5a:43:41:c5:a2:b0:f0:5e:20:9e:
                    f6:57:8c:46:35:d7:77:3a:42:93:24:ca:55:c5:ff:
                    99:98:96:5c:de:06:8e:d0:aa:71:58:92:1c:a1:23:
                    e8:b3:ec:3d:da:47:ad:f3:78:97:8a:b1:0f:25:df:
                    88:97:5c:83:f4:01:4d:b6:da:ad:5a:92:b4:f7:04:
                    12:6d:b1:82:0e:5a:f8:a8:45:26:e2:cb:26:d3:d1:
                    a7:9f:f9:03:83:0a:da:9d:89:f7:d9:40:59:dd:fc:
                    40:75:d5:a7:1d:2f:37:b4:c1:a0:07:eb:96:2f:13:
                    65:6e:ac:37:02:6f:62:e9:b7:07:69:aa:cc:ee:c2:
                    5c:d7:83:06:7c:86:3d:35:95:a7:17:6f:4b:a8:56:
                    89:19:2a:0a:11:f4:c7:5b:31:fc:18:28:ee:da:61:
                    cd:0b:d6:75:33:c5:41:7e:8d:df:5f:c9:28:87:b4:
                    fa:6a:a3:24:10:fb:37:57:f5:60:c6:c5:1f:c0:c4:
                    ce:d0:d6:90:85:1c:57:0b:07:5b:b1:fa:15:5f:4f:
                    a6:ff:57:74:23:db:d6:1c:76:59:49:75:c5:77:f4:
                    8a:aa:7c:b1:54:19:11:63:00:28:ac:78:af:0e:72:
                    94:ac:2a:f9:6c:cb:60:8c:b3:e5:8c:91:7c:da:ac:
                    55:01
                Exponent: 65537 (0x10001)
        X509v3 extensions:
            X509v3 Basic Constraints: 
                CA:FALSE
            X509v3 Subject Key Identifier: 
                F5:47:F3:28:76:67:7E:0E:77:07:5F:4D:B6:04:F8:33:33:8E:62:39
            X509v3 Authority Key Identifier: 
                keyid:73:DE:A0:43:0F:AE:B1:9E:E8:59:69:18:50:A1:1A:1F:D4:A1:E3:F0
                DirName:/C=US/ST=California/L=San Francisco/O=Copyleft Certificate Co/OU=My Organizational Unit/CN=ChangeMe/emailAddress=me@example.net
                serial:E9:BB:CB:16:C5:32:BE:3B

            X509v3 Extended Key Usage: 
                TLS Web Client Authentication
            X509v3 Key Usage: 
                Digital Signature
    Signature Algorithm: sha256WithRSAEncryption
         a6:b2:e2:4a:71:66:31:33:86:ad:43:69:c8:67:a1:9b:b6:ef:
         39:6e:41:f3:0e:50:00:3e:3a:b2:94:9c:c9:f3:ab:33:90:d2:
         c3:0c:d3:af:57:f9:55:ca:66:83:69:9e:c3:f5:1c:12:ce:4e:
         49:2c:31:90:d8:e7:46:9b:4d:5d:54:09:01:f4:fc:08:58:45:
         10:74:54:2a:ff:9c:9d:a5:3c:94:cd:76:23:f9:61:fa:29:1f:
         8e:fd:67:11:d1:1e:42:ab:22:68:af:57:19:59:46:15:05:95:
         67:82:81:ae:ef:f6:47:2f:e9:49:dc:4c:cc:0a:86:7a:27:d8:
         a3:3a:03:75:8c:29:b0:40:53:2b:79:96:72:e9:e9:dc:2c:0f:
         1c:6b:77:45:7c:92:25:25:01:59:e8:e5:ee:86:a4:cf:85:70:
         56:58:8e:42:18:6a:a5:42:06:f6:45:56:7d:99:40:60:67:6e:
         cd:16:15:0a:a6:f9:dc:5a:7e:d9:bb:61:d7:6a:a1:ce:bd:61:
         7f:44:e7:66:a9:fa:09:b4:db:8d:04:81:a7:50:cb:1d:4c:83:
         db:ea:11:2c:e9:7d:df:36:5a:ce:b6:70:06:0d:fa:2c:b6:aa:
         e8:a8:e9:bb:b4:a0:de:11:b8:33:f7:1c:f8:18:4c:9f:a7:32:
         a3:61:0b:c5
-----BEGIN CERTIFICATE-----
MIIFMTCCBBmgAwIBAgIRAIenxq+6OkSsg3CASds492kwDQYJKoZIhvcNAQELBQAw
ga8xCzAJBgNVBAYTAlVTMRMwEQYDVQQIDApDYWxpZm9ybmlhMRYwFAYDVQQHDA1T
YW4gRnJhbmNpc2NvMSAwHgYDVQQKDBdDb3B5bGVmdCBDZXJ0aWZpY2F0ZSBDbzEf
MB0GA1UECwwWTXkgT3JnYW5pemF0aW9uYWwgVW5pdDERMA8GA1UEAwwIQ2hhbmdl
TWUxHTAbBgkqhkiG9w0BCQEWDm1lQGV4YW1wbGUubmV0MB4XDTIzMTExMTAxNDY1
NFoXDTI0MTExMDAxNDY1NFowgbwxCzAJBgNVBAYTAlVTMQswCQYDVQQIDAJPSDET
MBEGA1UEBwwKQ2luY2lubmF0aTEhMB8GA1UECgwYVW5pdmVyc2l0eSBvZiBDaW5j
aW5uYXRpMSowKAYDVQQLDCFEZXB0LiBFbGVjLiBDb21wLiBFbmcuIENvbXAuIFNj
aS4xEjAQBgNVBAMMCWNsaWVudDEwODEoMCYGCSqGSIb3DQEJARYZZnJhbmNvQGdh
dXNzLmVjZWNzLnVjLmVkdTCCASIwDQYJKoZIhvcNAQEBBQADggEPADCCAQoCggEB
AKDLcS9aQ0HForDwXiCe9leMRjXXdzpCkyTKVcX/mZiWXN4GjtCqcViSHKEj6LPs
PdpHrfN4l4qxDyXfiJdcg/QBTbbarVqStPcEEm2xgg5a+KhFJuLLJtPRp5/5A4MK
2p2J99lAWd38QHXVpx0vN7TBoAfrli8TZW6sNwJvYum3B2mqzO7CXNeDBnyGPTWV
pxdvS6hWiRkqChH0x1sx/Bgo7tphzQvWdTPFQX6N31/JKIe0+mqjJBD7N1f1YMbF
H8DEztDWkIUcVwsHW7H6FV9Ppv9XdCPb1hx2WUl1xXf0iqp8sVQZEWMAKKx4rw5y
lKwq+WzLYIyz5YyRfNqsVQECAwEAAaOCATcwggEzMAkGA1UdEwQCMAAwHQYDVR0O
BBYEFPVH8yh2Z34OdwdfTbYE+DMzjmI5MIHkBgNVHSMEgdwwgdmAFHPeoEMPrrGe
6FlpGFChGh/UoePwoYG1pIGyMIGvMQswCQYDVQQGEwJVUzETMBEGA1UECAwKQ2Fs
aWZvcm5pYTEWMBQGA1UEBwwNU2FuIEZyYW5jaXNjbzEgMB4GA1UECgwXQ29weWxl
ZnQgQ2VydGlmaWNhdGUgQ28xHzAdBgNVBAsMFk15IE9yZ2FuaXphdGlvbmFsIFVu
aXQxETAPBgNVBAMMCENoYW5nZU1lMR0wGwYJKoZIhvcNAQkBFg5tZUBleGFtcGxl
Lm5ldIIJAOm7yxbFMr47MBMGA1UdJQQMMAoGCCsGAQUFBwMCMAsGA1UdDwQEAwIH
gDANBgkqhkiG9w0BAQsFAAOCAQEAprLiSnFmMTOGrUNpyGehm7bvOW5B8w5QAD46
spScyfOrM5DSwwzTr1f5Vcpmg2mew/UcEs5OSSwxkNjnRptNXVQJAfT8CFhFEHRU
Kv+cnaU8lM12I/lh+ikfjv1nEdEeQqsiaK9XGVlGFQWVZ4KBru/2Ry/pSdxMzAqG
eifYozoDdYwpsEBTK3mWcunp3CwPHGt3RXySJSUBWejl7oakz4VwVliOQhhqpUIG
9kVWfZlAYGduzRYVCqb53Fp+2bth12qhzr1hf0TnZqn6CbTbjQSBp1DLHUyD2+oR
LOl93zZazrZwBg36LLaq6Kjpu7Sg3hG4M/cc+BhMn6cyo2ELxQ==
-----END CERTIFICATE-----
