Certificate:
    Data:
        Version: 3 (0x2)
        Serial Number:
            fc:e7:06:0e:33:a2:cc:59:0a:b9:ea:de:ed:93:2f:e4
    Signature Algorithm: sha256WithRSAEncryption
        Issuer: C=US, ST=California, L=San Francisco, O=Copyleft Certificate Co, OU=My Organizational Unit, CN=ChangeMe/emailAddress=me@example.net
        Validity
            Not Before: Nov 11 01:46:58 2023 GMT
            Not After : Nov 10 01:46:58 2024 GMT
        Subject: C=US, ST=OH, L=Cincinnati, O=University of Cincinnati, OU=Dept. Elec. Comp. Eng. Comp. Sci., CN=client109/emailAddress=franco@gauss.ececs.uc.edu
        Subject Public Key Info:
            Public Key Algorithm: rsaEncryption
                Public-Key: (2048 bit)
                Modulus:
                    00:a6:d1:e1:33:c1:a4:b8:54:1d:8b:81:69:0e:01:
                    df:06:8a:4e:3f:93:a0:1e:d1:59:42:35:f3:45:95:
                    42:52:13:4c:4c:af:8b:65:c9:42:d5:54:99:8b:06:
                    1d:fc:62:f3:04:e5:ab:72:5a:b1:df:0f:1e:75:0b:
                    b0:37:98:f8:4e:26:2b:b1:6a:b8:b4:fb:79:f6:69:
                    b2:f4:f6:ae:39:f3:97:2a:a6:fd:3e:02:8b:04:e3:
                    4f:9a:54:a7:53:f9:49:9c:16:0c:d0:06:6a:ad:29:
                    18:e8:49:19:eb:13:c6:29:33:65:50:2d:de:89:b6:
                    2f:8a:9c:ec:b5:0f:b3:f7:fd:59:5c:21:a4:eb:3a:
                    1f:8b:f6:af:7f:83:47:bb:9d:d2:29:ca:a6:c2:0f:
                    3d:57:f1:02:8a:e8:87:be:16:a2:aa:0d:bc:16:88:
                    9e:3f:5f:a1:c3:2d:c5:01:c7:cf:2a:d1:da:07:b9:
                    9a:71:d9:a0:75:02:f5:46:71:fb:37:d6:57:e7:89:
                    27:5a:de:3d:66:92:39:70:d2:b4:23:2b:4f:6b:04:
                    4e:ef:68:a8:5d:88:6c:7d:8b:f5:8b:8b:9b:5e:0c:
                    86:ae:f4:f1:22:70:9c:ec:d5:b8:62:2c:08:3f:c0:
                    02:21:e6:ab:6f:a7:ac:2c:b2:f8:f9:45:8e:f8:52:
                    18:af
                Exponent: 65537 (0x10001)
        X509v3 extensions:
            X509v3 Basic Constraints: 
                CA:FALSE
            X509v3 Subject Key Identifier: 
                46:39:D9:9B:16:B9:47:4D:EF:CA:3C:A6:42:B8:94:48:93:07:4E:7D
            X509v3 Authority Key Identifier: 
                keyid:73:DE:A0:43:0F:AE:B1:9E:E8:59:69:18:50:A1:1A:1F:D4:A1:E3:F0
                DirName:/C=US/ST=California/L=San Francisco/O=Copyleft Certificate Co/OU=My Organizational Unit/CN=ChangeMe/emailAddress=me@example.net
                serial:E9:BB:CB:16:C5:32:BE:3B

            X509v3 Extended Key Usage: 
                TLS Web Client Authentication
            X509v3 Key Usage: 
                Digital Signature
    Signature Algorithm: sha256WithRSAEncryption
         71:5e:42:c1:77:3c:6a:30:0e:f7:73:b3:f2:96:6d:d9:9d:2d:
         d7:11:cd:75:62:1f:c8:52:0f:54:11:ea:ac:be:18:64:42:c7:
         88:23:04:85:27:65:34:d1:99:c2:5d:84:73:3f:2c:75:7f:19:
         5b:bc:eb:ee:6b:aa:b9:13:b5:89:9f:1a:fd:59:6a:62:8f:04:
         89:26:6e:4e:0a:46:8d:f0:98:32:41:9b:ef:d6:d0:bf:92:1b:
         6b:4a:61:dd:a4:f7:64:3e:09:aa:1b:50:65:e1:6d:89:81:ec:
         88:64:e8:cc:cf:4c:a9:71:04:bc:48:58:2e:47:7c:1f:44:03:
         c1:87:8b:24:d2:d8:49:6f:b1:05:e8:a6:87:3e:be:09:f6:6c:
         2c:07:fe:2f:00:0c:da:71:be:e9:76:8d:93:6f:f8:ee:20:f7:
         40:ac:16:ea:ac:af:82:26:47:cc:a7:2f:8e:c0:a9:ab:d8:e6:
         34:eb:18:75:6e:cc:de:96:34:fa:ff:bd:07:3f:b8:fd:59:e4:
         73:1c:73:bc:8e:9d:50:69:d8:6b:fc:3a:93:d0:17:34:52:31:
         ae:87:eb:28:3d:ec:18:29:01:6e:1b:49:83:aa:06:33:d3:4e:
         dd:bc:0d:d4:8c:e2:21:86:db:ee:e5:0e:8a:c9:cf:c3:0e:f9:
         bf:38:fe:de
-----BEGIN CERTIFICATE-----
MIIFMTCCBBmgAwIBAgIRAPznBg4zosxZCrnq3u2TL+QwDQYJKoZIhvcNAQELBQAw
ga8xCzAJBgNVBAYTAlVTMRMwEQYDVQQIDApDYWxpZm9ybmlhMRYwFAYDVQQHDA1T
YW4gRnJhbmNpc2NvMSAwHgYDVQQKDBdDb3B5bGVmdCBDZXJ0aWZpY2F0ZSBDbzEf
MB0GA1UECwwWTXkgT3JnYW5pemF0aW9uYWwgVW5pdDERMA8GA1UEAwwIQ2hhbmdl
TWUxHTAbBgkqhkiG9w0BCQEWDm1lQGV4YW1wbGUubmV0MB4XDTIzMTExMTAxNDY1
OFoXDTI0MTExMDAxNDY1OFowgbwxCzAJBgNVBAYTAlVTMQswCQYDVQQIDAJPSDET
MBEGA1UEBwwKQ2luY2lubmF0aTEhMB8GA1UECgwYVW5pdmVyc2l0eSBvZiBDaW5j
aW5uYXRpMSowKAYDVQQLDCFEZXB0LiBFbGVjLiBDb21wLiBFbmcuIENvbXAuIFNj
aS4xEjAQBgNVBAMMCWNsaWVudDEwOTEoMCYGCSqGSIb3DQEJARYZZnJhbmNvQGdh
dXNzLmVjZWNzLnVjLmVkdTCCASIwDQYJKoZIhvcNAQEBBQADggEPADCCAQoCggEB
AKbR4TPBpLhUHYuBaQ4B3waKTj+ToB7RWUI180WVQlITTEyvi2XJQtVUmYsGHfxi
8wTlq3Jasd8PHnULsDeY+E4mK7FquLT7efZpsvT2rjnzlyqm/T4CiwTjT5pUp1P5
SZwWDNAGaq0pGOhJGesTxikzZVAt3om2L4qc7LUPs/f9WVwhpOs6H4v2r3+DR7ud
0inKpsIPPVfxAoroh74WoqoNvBaInj9focMtxQHHzyrR2ge5mnHZoHUC9UZx+zfW
V+eJJ1rePWaSOXDStCMrT2sETu9oqF2IbH2L9YuLm14Mhq708SJwnOzVuGIsCD/A
AiHmq2+nrCyy+PlFjvhSGK8CAwEAAaOCATcwggEzMAkGA1UdEwQCMAAwHQYDVR0O
BBYEFEY52ZsWuUdN78o8pkK4lEiTB059MIHkBgNVHSMEgdwwgdmAFHPeoEMPrrGe
6FlpGFChGh/UoePwoYG1pIGyMIGvMQswCQYDVQQGEwJVUzETMBEGA1UECAwKQ2Fs
aWZvcm5pYTEWMBQGA1UEBwwNU2FuIEZyYW5jaXNjbzEgMB4GA1UECgwXQ29weWxl
ZnQgQ2VydGlmaWNhdGUgQ28xHzAdBgNVBAsMFk15IE9yZ2FuaXphdGlvbmFsIFVu
aXQxETAPBgNVBAMMCENoYW5nZU1lMR0wGwYJKoZIhvcNAQkBFg5tZUBleGFtcGxl
Lm5ldIIJAOm7yxbFMr47MBMGA1UdJQQMMAoGCCsGAQUFBwMCMAsGA1UdDwQEAwIH
gDANBgkqhkiG9w0BAQsFAAOCAQEAcV5CwXc8ajAO93Oz8pZt2Z0t1xHNdWIfyFIP
VBHqrL4YZELHiCMEhSdlNNGZwl2Ecz8sdX8ZW7zr7muquRO1iZ8a/VlqYo8EiSZu
TgpGjfCYMkGb79bQv5Iba0ph3aT3ZD4JqhtQZeFtiYHsiGTozM9MqXEEvEhYLkd8
H0QDwYeLJNLYSW+xBeimhz6+CfZsLAf+LwAM2nG+6XaNk2/47iD3QKwW6qyvgiZH
zKcvjsCpq9jmNOsYdW7M3pY0+v+9Bz+4/VnkcxxzvI6dUGnYa/w6k9AXNFIxrofr
KD3sGCkBbhtJg6oGM9NO3bwN1IziIYbb7uUOisnPww75vzj+3g==
-----END CERTIFICATE-----
