Certificate:
    Data:
        Version: 3 (0x2)
        Serial Number:
            1f:89:94:4e:ba:d8:93:59:eb:1c:8f:83:0b:4a:fe:fb
    Signature Algorithm: sha256WithRSAEncryption
        Issuer: C=US, ST=California, L=San Francisco, O=Copyleft Certificate Co, OU=My Organizational Unit, CN=ChangeMe/emailAddress=me@example.net
        Validity
            Not Before: Nov 11 01:46:30 2023 GMT
            Not After : Nov 10 01:46:30 2024 GMT
        Subject: C=US, ST=OH, L=Cincinnati, O=University of Cincinnati, OU=Dept. Elec. Comp. Eng. Comp. Sci., CN=client102/emailAddress=franco@gauss.ececs.uc.edu
        Subject Public Key Info:
            Public Key Algorithm: rsaEncryption
                Public-Key: (2048 bit)
                Modulus:
                    00:ec:3b:c7:27:31:fe:1e:f7:aa:ca:bd:a3:22:25:
                    d8:ff:a4:c9:39:6a:55:b3:36:a4:a7:a8:0a:1a:70:
                    e0:9e:1a:5e:4e:eb:f6:85:79:6d:b3:9d:b5:37:55:
                    ac:04:33:38:7d:48:29:69:c3:c6:87:e8:d3:1d:3e:
                    6e:cd:1a:0b:0f:a3:53:d7:46:f5:51:71:71:da:42:
                    b8:56:80:38:a2:e1:44:09:ca:99:95:69:3b:55:b5:
                    69:1b:39:1a:0e:34:6d:7b:4e:93:9c:90:d7:db:70:
                    51:86:af:2d:bb:b1:2a:16:e5:d3:4f:10:20:a5:8c:
                    cc:ea:70:da:3f:23:95:18:2f:41:9c:8f:b8:56:67:
                    96:4f:b5:e5:53:83:37:1c:9e:4c:c6:2a:7a:55:6b:
                    5d:f1:7a:0e:c8:b4:4a:6c:d2:5f:4d:e3:a9:bd:70:
                    58:5e:38:76:f6:75:ed:cb:0a:e7:10:a0:cd:c2:69:
                    b5:15:91:f3:73:5e:50:e4:ad:bd:2c:41:bd:b1:10:
                    42:bc:a5:4c:b6:0a:f4:f2:56:57:03:e9:ea:62:25:
                    ca:15:14:9e:0c:9b:3b:29:e3:35:45:85:44:0a:4f:
                    c6:a7:4c:1b:51:90:ba:94:e4:6f:26:ad:47:b7:67:
                    fc:3c:ea:28:57:64:83:c5:a5:33:e1:e9:e6:c0:62:
                    f9:97
                Exponent: 65537 (0x10001)
        X509v3 extensions:
            X509v3 Basic Constraints: 
                CA:FALSE
            X509v3 Subject Key Identifier: 
                BB:9B:8B:19:D5:57:F0:79:7D:2D:18:2B:F0:A0:04:CC:03:47:BC:65
            X509v3 Authority Key Identifier: 
                keyid:73:DE:A0:43:0F:AE:B1:9E:E8:59:69:18:50:A1:1A:1F:D4:A1:E3:F0
                DirName:/C=US/ST=California/L=San Francisco/O=Copyleft Certificate Co/OU=My Organizational Unit/CN=ChangeMe/emailAddress=me@example.net
                serial:E9:BB:CB:16:C5:32:BE:3B

            X509v3 Extended Key Usage: 
                TLS Web Client Authentication
            X509v3 Key Usage: 
                Digital Signature
    Signature Algorithm: sha256WithRSAEncryption
         08:dd:8c:62:97:d8:96:06:f7:4e:0b:b8:71:53:3c:6b:14:f4:
         98:80:03:41:73:ee:d9:58:31:6e:8f:70:6d:ef:61:03:fb:67:
         5e:40:c7:76:39:82:95:a7:6c:22:b5:04:71:ef:a0:2a:9b:94:
         74:5c:98:d7:d4:88:df:8a:92:f7:16:fb:ad:4f:03:94:1a:41:
         24:38:98:1e:32:95:96:33:e9:24:43:91:4c:a3:5c:5c:18:90:
         b0:ac:45:9e:f7:4f:a4:0a:ce:95:31:30:98:1d:84:95:cd:1d:
         fa:1d:ee:a8:80:9e:fb:4f:fa:97:31:a9:85:b0:a5:de:dc:b8:
         6f:9e:e3:fa:07:1b:0f:53:21:9d:46:f1:cd:0b:ad:a5:46:02:
         7c:31:53:e5:64:a0:91:c2:2f:b9:f5:c3:a4:b2:89:34:ea:01:
         5b:1e:8d:38:f8:9b:16:69:60:41:f2:c3:ec:cd:1b:e8:36:e9:
         fd:7d:1e:50:ad:a9:46:7f:e9:18:45:cc:58:d6:90:4f:0f:46:
         b6:76:4b:d3:53:92:7b:54:16:a6:cb:d2:d5:8b:cd:b9:70:75:
         1e:fd:bd:cd:f4:ef:e6:bb:c4:63:87:e1:a0:89:8c:b4:a2:e8:
         6d:8f:42:11:2f:16:ba:2b:19:8d:bb:41:43:0a:d6:b8:23:06:
         58:57:89:af
-----BEGIN CERTIFICATE-----
MIIFMDCCBBigAwIBAgIQH4mUTrrYk1nrHI+DC0r++zANBgkqhkiG9w0BAQsFADCB
rzELMAkGA1UEBhMCVVMxEzARBgNVBAgMCkNhbGlmb3JuaWExFjAUBgNVBAcMDVNh
biBGcmFuY2lzY28xIDAeBgNVBAoMF0NvcHlsZWZ0IENlcnRpZmljYXRlIENvMR8w
HQYDVQQLDBZNeSBPcmdhbml6YXRpb25hbCBVbml0MREwDwYDVQQDDAhDaGFuZ2VN
ZTEdMBsGCSqGSIb3DQEJARYObWVAZXhhbXBsZS5uZXQwHhcNMjMxMTExMDE0NjMw
WhcNMjQxMTEwMDE0NjMwWjCBvDELMAkGA1UEBhMCVVMxCzAJBgNVBAgMAk9IMRMw
EQYDVQQHDApDaW5jaW5uYXRpMSEwHwYDVQQKDBhVbml2ZXJzaXR5IG9mIENpbmNp
bm5hdGkxKjAoBgNVBAsMIURlcHQuIEVsZWMuIENvbXAuIEVuZy4gQ29tcC4gU2Np
LjESMBAGA1UEAwwJY2xpZW50MTAyMSgwJgYJKoZIhvcNAQkBFhlmcmFuY29AZ2F1
c3MuZWNlY3MudWMuZWR1MIIBIjANBgkqhkiG9w0BAQEFAAOCAQ8AMIIBCgKCAQEA
7DvHJzH+Hveqyr2jIiXY/6TJOWpVszakp6gKGnDgnhpeTuv2hXlts521N1WsBDM4
fUgpacPGh+jTHT5uzRoLD6NT10b1UXFx2kK4VoA4ouFECcqZlWk7VbVpGzkaDjRt
e06TnJDX23BRhq8tu7EqFuXTTxAgpYzM6nDaPyOVGC9BnI+4VmeWT7XlU4M3HJ5M
xip6VWtd8XoOyLRKbNJfTeOpvXBYXjh29nXtywrnEKDNwmm1FZHzc15Q5K29LEG9
sRBCvKVMtgr08lZXA+nqYiXKFRSeDJs7KeM1RYVECk/Gp0wbUZC6lORvJq1Ht2f8
POooV2SDxaUz4enmwGL5lwIDAQABo4IBNzCCATMwCQYDVR0TBAIwADAdBgNVHQ4E
FgQUu5uLGdVX8Hl9LRgr8KAEzANHvGUwgeQGA1UdIwSB3DCB2YAUc96gQw+usZ7o
WWkYUKEaH9Sh4/ChgbWkgbIwga8xCzAJBgNVBAYTAlVTMRMwEQYDVQQIDApDYWxp
Zm9ybmlhMRYwFAYDVQQHDA1TYW4gRnJhbmNpc2NvMSAwHgYDVQQKDBdDb3B5bGVm
dCBDZXJ0aWZpY2F0ZSBDbzEfMB0GA1UECwwWTXkgT3JnYW5pemF0aW9uYWwgVW5p
dDERMA8GA1UEAwwIQ2hhbmdlTWUxHTAbBgkqhkiG9w0BCQEWDm1lQGV4YW1wbGUu
bmV0ggkA6bvLFsUyvjswEwYDVR0lBAwwCgYIKwYBBQUHAwIwCwYDVR0PBAQDAgeA
MA0GCSqGSIb3DQEBCwUAA4IBAQAI3Yxil9iWBvdOC7hxUzxrFPSYgANBc+7ZWDFu
j3Bt72ED+2deQMd2OYKVp2witQRx76Aqm5R0XJjX1IjfipL3FvutTwOUGkEkOJge
MpWWM+kkQ5FMo1xcGJCwrEWe90+kCs6VMTCYHYSVzR36He6ogJ77T/qXMamFsKXe
3LhvnuP6BxsPUyGdRvHNC62lRgJ8MVPlZKCRwi+59cOksok06gFbHo04+JsWaWBB
8sPszRvoNun9fR5QralGf+kYRcxY1pBPD0a2dkvTU5J7VBamy9LVi825cHUe/b3N
9O/mu8Rjh+GgiYy0ouhtj0IRLxa6KxmNu0FDCta4IwZYV4mv
-----END CERTIFICATE-----
