Certificate:
    Data:
        Version: 3 (0x2)
        Serial Number:
            f1:0e:ed:e3:aa:ee:8c:f4:bd:95:8c:44:7c:58:45:45
    Signature Algorithm: sha256WithRSAEncryption
        Issuer: C=US, ST=California, L=San Francisco, O=Copyleft Certificate Co, OU=My Organizational Unit, CN=ChangeMe/emailAddress=me@example.net
        Validity
            Not Before: Nov 10 17:45:18 2023 GMT
            Not After : Nov  9 17:45:18 2024 GMT
        Subject: C=US, ST=OH, L=Cincinnati, O=University of Cincinnati, OU=Dept_Elec_Com_ Eng_Com_Sci., CN=client103/emailAddress=franco@gauss.ececs.uc.edu
        Subject Public Key Info:
            Public Key Algorithm: rsaEncryption
                Public-Key: (2048 bit)
                Modulus:
                    00:dd:94:ab:17:ae:32:4b:3b:cb:18:15:d2:4f:f8:
                    7f:ab:ec:eb:11:a1:6f:94:d9:ed:42:ff:6b:79:d6:
                    c1:c8:ba:e6:73:06:7f:68:b5:74:63:4c:ab:0c:47:
                    80:58:a3:14:64:66:35:72:d2:c0:96:3b:3c:14:88:
                    3e:9a:08:49:9b:bd:93:9f:47:55:d2:97:b1:14:d0:
                    5d:c0:a0:4f:ca:35:72:39:d1:58:9e:b1:ee:17:53:
                    ec:30:25:8f:a2:72:66:0d:bc:0a:5d:38:cb:6d:b4:
                    fc:86:55:38:5f:0e:a5:36:d2:8a:65:7c:9f:1d:1e:
                    e8:d1:5a:f8:00:f9:25:93:ce:fb:86:10:15:aa:ca:
                    b2:cd:f6:be:c2:43:68:dd:25:ed:66:0a:23:61:3e:
                    da:4a:21:2e:e2:0e:d7:82:dd:c9:07:96:8b:73:50:
                    e4:1a:df:2b:d1:38:09:3c:be:dd:84:9c:3c:9e:1d:
                    8c:bb:18:23:ef:40:08:46:6b:66:fe:ba:ff:e4:76:
                    e7:dc:75:c2:19:00:48:a6:f0:3d:5a:84:6a:dc:8b:
                    38:f8:4f:c7:09:78:8a:5e:40:33:f4:bb:32:87:42:
                    05:2d:78:e9:57:2f:7b:18:f5:4a:64:55:4f:4c:3e:
                    a2:d0:49:95:85:5a:54:86:48:11:27:36:a0:60:34:
                    72:11
                Exponent: 65537 (0x10001)
        X509v3 extensions:
            X509v3 Basic Constraints: 
                CA:FALSE
            X509v3 Subject Key Identifier: 
                F4:4B:DC:62:B7:B4:68:BC:3C:B9:F6:77:10:07:FA:D1:D5:76:8E:9C
            X509v3 Authority Key Identifier: 
                keyid:C8:27:DA:64:30:08:40:08:4A:25:CC:DC:43:99:DE:77:A1:FE:77:BD
                DirName:/C=US/ST=California/L=San Francisco/O=Copyleft Certificate Co/OU=My Organizational Unit/CN=ChangeMe/emailAddress=me@example.net
                serial:A9:48:C3:7E:FC:1B:B0:A1

            X509v3 Extended Key Usage: 
                TLS Web Client Authentication
            X509v3 Key Usage: 
                Digital Signature
    Signature Algorithm: sha256WithRSAEncryption
         5c:1d:9a:da:02:25:e4:ed:2b:70:4f:38:af:b2:e7:d6:8b:1a:
         6a:1b:16:34:b1:8a:64:40:c4:42:86:6f:2f:d0:06:66:b9:30:
         f6:bf:e6:dc:6e:85:a3:fc:4d:17:b4:a3:25:0c:b6:6c:25:ae:
         00:9f:41:0d:ea:80:70:3b:65:fc:84:93:26:ec:13:6f:be:66:
         e6:98:38:96:c5:19:a9:2a:c3:a1:d0:30:f3:14:d2:cc:6a:1d:
         3f:00:e9:37:4b:2d:5d:51:83:06:71:b9:d4:7e:77:b4:fa:96:
         bb:39:39:c4:19:2d:d9:20:23:30:39:38:17:f9:90:31:ed:1e:
         cf:ed:eb:0d:b6:60:04:f0:e0:7f:6f:ab:6a:df:13:8e:f1:07:
         99:68:3c:d3:44:84:59:32:3d:27:66:dc:39:4d:5c:6d:42:34:
         19:03:30:37:45:59:c5:55:81:a9:68:6f:a2:19:a2:94:26:fd:
         cd:15:c9:98:a4:5a:bc:59:17:93:04:f8:6b:d7:ba:49:a1:3d:
         0d:d5:49:a9:fa:c5:17:0c:c0:68:d2:3b:d5:da:ad:42:ec:23:
         a6:8a:92:61:95:24:a0:26:ee:ac:17:2d:42:9e:1d:ea:8e:95:
         dc:49:38:ca:fa:15:76:f6:56:60:49:ce:a6:b9:91:f3:38:76:
         95:16:54:01
-----BEGIN CERTIFICATE-----
MIIFKzCCBBOgAwIBAgIRAPEO7eOq7oz0vZWMRHxYRUUwDQYJKoZIhvcNAQELBQAw
ga8xCzAJBgNVBAYTAlVTMRMwEQYDVQQIDApDYWxpZm9ybmlhMRYwFAYDVQQHDA1T
YW4gRnJhbmNpc2NvMSAwHgYDVQQKDBdDb3B5bGVmdCBDZXJ0aWZpY2F0ZSBDbzEf
MB0GA1UECwwWTXkgT3JnYW5pemF0aW9uYWwgVW5pdDERMA8GA1UEAwwIQ2hhbmdl
TWUxHTAbBgkqhkiG9w0BCQEWDm1lQGV4YW1wbGUubmV0MB4XDTIzMTExMDE3NDUx
OFoXDTI0MTEwOTE3NDUxOFowgbYxCzAJBgNVBAYTAlVTMQswCQYDVQQIDAJPSDET
MBEGA1UEBwwKQ2luY2lubmF0aTEhMB8GA1UECgwYVW5pdmVyc2l0eSBvZiBDaW5j
aW5uYXRpMSQwIgYDVQQLDBtEZXB0X0VsZWNfQ29tXyBFbmdfQ29tX1NjaS4xEjAQ
BgNVBAMMCWNsaWVudDEwMzEoMCYGCSqGSIb3DQEJARYZZnJhbmNvQGdhdXNzLmVj
ZWNzLnVjLmVkdTCCASIwDQYJKoZIhvcNAQEBBQADggEPADCCAQoCggEBAN2Uqxeu
Mks7yxgV0k/4f6vs6xGhb5TZ7UL/a3nWwci65nMGf2i1dGNMqwxHgFijFGRmNXLS
wJY7PBSIPpoISZu9k59HVdKXsRTQXcCgT8o1cjnRWJ6x7hdT7DAlj6JyZg28Cl04
y220/IZVOF8OpTbSimV8nx0e6NFa+AD5JZPO+4YQFarKss32vsJDaN0l7WYKI2E+
2kohLuIO14LdyQeWi3NQ5BrfK9E4CTy+3YScPJ4djLsYI+9ACEZrZv66/+R259x1
whkASKbwPVqEatyLOPhPxwl4il5AM/S7ModCBS146Vcvexj1SmRVT0w+otBJlYVa
VIZIESc2oGA0chECAwEAAaOCATcwggEzMAkGA1UdEwQCMAAwHQYDVR0OBBYEFPRL
3GK3tGi8PLn2dxAH+tHVdo6cMIHkBgNVHSMEgdwwgdmAFMgn2mQwCEAISiXM3EOZ
3neh/ne9oYG1pIGyMIGvMQswCQYDVQQGEwJVUzETMBEGA1UECAwKQ2FsaWZvcm5p
YTEWMBQGA1UEBwwNU2FuIEZyYW5jaXNjbzEgMB4GA1UECgwXQ29weWxlZnQgQ2Vy
dGlmaWNhdGUgQ28xHzAdBgNVBAsMFk15IE9yZ2FuaXphdGlvbmFsIFVuaXQxETAP
BgNVBAMMCENoYW5nZU1lMR0wGwYJKoZIhvcNAQkBFg5tZUBleGFtcGxlLm5ldIIJ
AKlIw378G7ChMBMGA1UdJQQMMAoGCCsGAQUFBwMCMAsGA1UdDwQEAwIHgDANBgkq
hkiG9w0BAQsFAAOCAQEAXB2a2gIl5O0rcE84r7Ln1osaahsWNLGKZEDEQoZvL9AG
Zrkw9r/m3G6Fo/xNF7SjJQy2bCWuAJ9BDeqAcDtl/ISTJuwTb75m5pg4lsUZqSrD
odAw8xTSzGodPwDpN0stXVGDBnG51H53tPqWuzk5xBkt2SAjMDk4F/mQMe0ez+3r
DbZgBPDgf2+rat8TjvEHmWg800SEWTI9J2bcOU1cbUI0GQMwN0VZxVWBqWhvohmi
lCb9zRXJmKRavFkXkwT4a9e6SaE9DdVJqfrFFwzAaNI71dqtQuwjpoqSYZUkoCbu
rBctQp4d6o6V3Ek4yvoVdvZWYEnOprmR8zh2lRZUAQ==
-----END CERTIFICATE-----
