Certificate:
    Data:
        Version: 3 (0x2)
        Serial Number:
            c3:74:34:90:f4:23:39:32:7b:e2:f5:bb:4b:ae:b8:3e
    Signature Algorithm: sha256WithRSAEncryption
        Issuer: C=US, ST=California, L=San Francisco, O=Copyleft Certificate Co, OU=My Organizational Unit, CN=ChangeMe/emailAddress=me@example.net
        Validity
            Not Before: Nov 10 17:41:49 2023 GMT
            Not After : Nov  9 17:41:49 2024 GMT
        Subject: C=US, ST=OH, L=Cincinnati, O=University of Cincinnati, OU=Dept_Elec_Com_ Eng_Com_Sci., CN=client51/emailAddress=franco@gauss.ececs.uc.edu
        Subject Public Key Info:
            Public Key Algorithm: rsaEncryption
                Public-Key: (2048 bit)
                Modulus:
                    00:c7:bb:f1:c6:48:54:bb:52:9a:24:d6:a2:ec:bc:
                    6e:0d:7c:fe:c1:74:02:6a:90:ea:8b:ec:bf:fd:25:
                    44:94:19:b5:9c:34:5e:8e:9d:64:e6:f3:5c:a0:0a:
                    5c:20:0f:41:ac:6e:be:42:09:68:7c:c9:86:77:46:
                    6d:e8:7f:d0:6d:30:34:7d:77:e8:bc:1c:49:a3:b5:
                    8c:ed:5b:e5:55:a7:31:6b:18:cc:b0:a9:3f:7f:90:
                    5c:04:97:2e:c3:0d:30:2f:0c:0f:79:3c:87:0c:b7:
                    56:91:73:ca:61:6d:82:3c:a0:b0:c7:df:18:e8:d1:
                    be:ff:96:b6:70:8f:0a:8d:22:1e:85:eb:b8:ca:a7:
                    81:67:dd:4c:81:e5:13:9f:41:b5:d8:1c:c9:6b:cf:
                    b0:bf:10:0b:5e:d5:5e:cf:55:54:ec:47:57:38:c5:
                    23:50:40:6c:79:58:3c:51:99:7a:51:99:ad:a3:8a:
                    63:b8:09:6c:8f:51:a8:22:6b:9d:fb:b5:9e:3e:43:
                    90:ef:e9:61:3f:27:b1:15:d9:15:c4:e7:5b:ac:bf:
                    52:3d:fd:f4:2d:5a:49:eb:a9:b3:4d:42:ac:c6:fd:
                    90:f9:de:e6:5e:9e:79:25:a4:68:67:17:05:25:93:
                    16:99:43:b0:e5:3d:f6:4d:36:6f:5f:f1:35:61:d0:
                    0b:19
                Exponent: 65537 (0x10001)
        X509v3 extensions:
            X509v3 Basic Constraints: 
                CA:FALSE
            X509v3 Subject Key Identifier: 
                C6:97:F9:22:11:8A:87:B7:C3:BD:1B:C2:8B:AC:D8:4A:72:68:07:FD
            X509v3 Authority Key Identifier: 
                keyid:C8:27:DA:64:30:08:40:08:4A:25:CC:DC:43:99:DE:77:A1:FE:77:BD
                DirName:/C=US/ST=California/L=San Francisco/O=Copyleft Certificate Co/OU=My Organizational Unit/CN=ChangeMe/emailAddress=me@example.net
                serial:A9:48:C3:7E:FC:1B:B0:A1

            X509v3 Extended Key Usage: 
                TLS Web Client Authentication
            X509v3 Key Usage: 
                Digital Signature
    Signature Algorithm: sha256WithRSAEncryption
         15:5f:f3:85:7c:ee:e6:2c:ef:2d:de:8c:37:18:8f:2e:b4:fc:
         6c:7b:61:22:7c:84:e7:c8:60:0b:d5:76:b8:3c:ac:d8:95:36:
         07:02:54:c5:0e:0a:bf:12:a5:f4:f7:68:11:b9:4e:2d:23:aa:
         d3:11:4b:b4:b0:8f:99:5e:04:b5:75:55:35:94:eb:42:a0:39:
         63:92:88:88:39:9b:41:f3:af:bf:1d:00:2a:40:0f:de:39:93:
         e9:f5:f5:5f:19:71:f1:3c:e2:96:f3:13:e5:75:2d:0a:5e:42:
         7d:c3:58:cb:5a:d4:51:30:d7:77:d8:8f:ce:02:a4:c1:37:d3:
         39:73:e0:80:85:e3:49:65:81:06:d1:05:9c:2c:de:0f:de:e2:
         72:03:eb:83:d3:71:4e:c6:76:79:0d:fa:c2:87:48:d4:35:fc:
         9b:fa:a3:72:a9:f7:52:aa:83:38:9b:82:1b:a3:b1:26:1c:6e:
         78:7c:c6:0e:b7:6a:ba:ed:20:d0:f4:0c:fe:9a:f1:94:e1:ca:
         45:d0:4a:3b:94:37:43:b0:d7:19:95:14:58:ba:2a:04:8f:a4:
         51:47:eb:4d:43:05:80:a3:c8:b0:0d:4c:55:42:ed:ec:c1:78:
         b9:a6:8b:60:83:ad:c8:58:64:0c:1a:13:58:16:c4:b8:3e:e0:
         da:c8:60:bd
-----BEGIN CERTIFICATE-----
MIIFKjCCBBKgAwIBAgIRAMN0NJD0Izkye+L1u0uuuD4wDQYJKoZIhvcNAQELBQAw
ga8xCzAJBgNVBAYTAlVTMRMwEQYDVQQIDApDYWxpZm9ybmlhMRYwFAYDVQQHDA1T
YW4gRnJhbmNpc2NvMSAwHgYDVQQKDBdDb3B5bGVmdCBDZXJ0aWZpY2F0ZSBDbzEf
MB0GA1UECwwWTXkgT3JnYW5pemF0aW9uYWwgVW5pdDERMA8GA1UEAwwIQ2hhbmdl
TWUxHTAbBgkqhkiG9w0BCQEWDm1lQGV4YW1wbGUubmV0MB4XDTIzMTExMDE3NDE0
OVoXDTI0MTEwOTE3NDE0OVowgbUxCzAJBgNVBAYTAlVTMQswCQYDVQQIDAJPSDET
MBEGA1UEBwwKQ2luY2lubmF0aTEhMB8GA1UECgwYVW5pdmVyc2l0eSBvZiBDaW5j
aW5uYXRpMSQwIgYDVQQLDBtEZXB0X0VsZWNfQ29tXyBFbmdfQ29tX1NjaS4xETAP
BgNVBAMMCGNsaWVudDUxMSgwJgYJKoZIhvcNAQkBFhlmcmFuY29AZ2F1c3MuZWNl
Y3MudWMuZWR1MIIBIjANBgkqhkiG9w0BAQEFAAOCAQ8AMIIBCgKCAQEAx7vxxkhU
u1KaJNai7LxuDXz+wXQCapDqi+y//SVElBm1nDRejp1k5vNcoApcIA9BrG6+Qglo
fMmGd0Zt6H/QbTA0fXfovBxJo7WM7VvlVacxaxjMsKk/f5BcBJcuww0wLwwPeTyH
DLdWkXPKYW2CPKCwx98Y6NG+/5a2cI8KjSIeheu4yqeBZ91MgeUTn0G12BzJa8+w
vxALXtVez1VU7EdXOMUjUEBseVg8UZl6UZmto4pjuAlsj1GoImud+7WePkOQ7+lh
PyexFdkVxOdbrL9SPf30LVpJ66mzTUKsxv2Q+d7mXp55JaRoZxcFJZMWmUOw5T32
TTZvX/E1YdALGQIDAQABo4IBNzCCATMwCQYDVR0TBAIwADAdBgNVHQ4EFgQUxpf5
IhGKh7fDvRvCi6zYSnJoB/0wgeQGA1UdIwSB3DCB2YAUyCfaZDAIQAhKJczcQ5ne
d6H+d72hgbWkgbIwga8xCzAJBgNVBAYTAlVTMRMwEQYDVQQIDApDYWxpZm9ybmlh
MRYwFAYDVQQHDA1TYW4gRnJhbmNpc2NvMSAwHgYDVQQKDBdDb3B5bGVmdCBDZXJ0
aWZpY2F0ZSBDbzEfMB0GA1UECwwWTXkgT3JnYW5pemF0aW9uYWwgVW5pdDERMA8G
A1UEAwwIQ2hhbmdlTWUxHTAbBgkqhkiG9w0BCQEWDm1lQGV4YW1wbGUubmV0ggkA
qUjDfvwbsKEwEwYDVR0lBAwwCgYIKwYBBQUHAwIwCwYDVR0PBAQDAgeAMA0GCSqG
SIb3DQEBCwUAA4IBAQAVX/OFfO7mLO8t3ow3GI8utPxse2EifITnyGAL1Xa4PKzY
lTYHAlTFDgq/EqX092gRuU4tI6rTEUu0sI+ZXgS1dVU1lOtCoDljkoiIOZtB86+/
HQAqQA/eOZPp9fVfGXHxPOKW8xPldS0KXkJ9w1jLWtRRMNd32I/OAqTBN9M5c+CA
heNJZYEG0QWcLN4P3uJyA+uD03FOxnZ5DfrCh0jUNfyb+qNyqfdSqoM4m4Ibo7Em
HG54fMYOt2q67SDQ9Az+mvGU4cpF0Eo7lDdDsNcZlRRYuioEj6RRR+tNQwWAo8iw
DUxVQu3swXi5potgg63IWGQMGhNYFsS4PuDayGC9
-----END CERTIFICATE-----
