Certificate:
    Data:
        Version: 3 (0x2)
        Serial Number:
            c1:77:47:cf:4c:b4:d4:0c:85:b5:ad:a2:31:19:be:44
    Signature Algorithm: sha256WithRSAEncryption
        Issuer: C=US, ST=California, L=San Francisco, O=Copyleft Certificate Co, OU=My Organizational Unit, CN=ChangeMe/emailAddress=me@example.net
        Validity
            Not Before: Nov 10 17:45:54 2023 GMT
            Not After : Nov  9 17:45:54 2024 GMT
        Subject: C=US, ST=OH, L=Cincinnati, O=University of Cincinnati, OU=Dept_Elec_Com_ Eng_Com_Sci., CN=client112/emailAddress=franco@gauss.ececs.uc.edu
        Subject Public Key Info:
            Public Key Algorithm: rsaEncryption
                Public-Key: (2048 bit)
                Modulus:
                    00:ac:3f:d8:44:81:00:fa:9d:94:eb:e3:a8:19:4b:
                    89:6f:ef:4e:79:16:5d:fe:9f:8a:07:b3:bd:ce:50:
                    60:a0:e4:df:36:e5:c7:f1:db:1b:d2:1e:9e:0f:50:
                    89:b6:cd:38:5f:ff:31:df:84:10:e7:1c:03:3e:ba:
                    fb:16:e3:fb:5e:86:4c:60:16:52:21:5f:19:29:80:
                    3f:7c:32:5c:ad:83:d2:ed:e0:bc:9f:dc:6d:ef:a6:
                    18:34:d2:4c:f7:40:3f:d7:34:82:21:0d:67:f2:69:
                    55:f8:54:e3:f6:dc:53:4e:e6:35:ae:cd:57:fd:68:
                    82:c1:ff:9e:67:78:5a:af:e0:56:d4:88:e7:76:9e:
                    5e:2f:bd:51:81:67:7a:08:8f:0c:31:e0:e1:7f:18:
                    44:0e:41:08:63:9b:b5:a4:09:41:28:fd:21:ac:a2:
                    c9:ad:34:a1:e8:eb:ac:e3:49:d4:50:94:08:59:0b:
                    26:62:65:35:68:a4:9b:32:3f:11:82:1c:1a:9b:6f:
                    39:bd:c8:82:5b:aa:f5:f9:b9:c5:64:1e:d8:ef:c0:
                    74:30:c4:eb:27:fc:7f:a1:82:88:57:b0:cb:44:5b:
                    9d:56:3a:69:ad:f7:ac:59:0e:10:1a:1b:19:2c:9c:
                    ea:67:0f:64:ec:bf:86:75:72:c7:cb:c7:79:70:d1:
                    8f:85
                Exponent: 65537 (0x10001)
        X509v3 extensions:
            X509v3 Basic Constraints: 
                CA:FALSE
            X509v3 Subject Key Identifier: 
                A2:10:80:26:9A:44:47:40:74:75:6A:87:84:BF:40:19:39:9D:CC:E6
            X509v3 Authority Key Identifier: 
                keyid:C8:27:DA:64:30:08:40:08:4A:25:CC:DC:43:99:DE:77:A1:FE:77:BD
                DirName:/C=US/ST=California/L=San Francisco/O=Copyleft Certificate Co/OU=My Organizational Unit/CN=ChangeMe/emailAddress=me@example.net
                serial:A9:48:C3:7E:FC:1B:B0:A1

            X509v3 Extended Key Usage: 
                TLS Web Client Authentication
            X509v3 Key Usage: 
                Digital Signature
    Signature Algorithm: sha256WithRSAEncryption
         54:46:4d:ee:36:87:17:ee:b2:9b:65:1a:a0:bd:11:6e:d8:89:
         83:cd:25:d2:4e:ee:8d:8c:cd:f3:ae:52:54:b9:e5:ef:ae:eb:
         23:1e:22:04:fe:0b:d7:4a:26:8a:c5:0e:e3:b0:db:97:aa:12:
         a2:78:ba:6b:71:73:ee:52:a3:b9:56:5a:ef:05:67:bf:f6:16:
         6d:6f:09:fb:66:98:35:ea:2e:f1:72:a9:c9:e5:c5:d2:61:c5:
         9a:b0:d7:86:c3:fd:95:91:a3:63:5d:41:65:27:86:08:1b:1e:
         ea:8b:c1:47:d8:2b:36:62:bc:76:a6:45:5d:7d:dc:5a:8e:65:
         bc:61:38:5e:c3:f2:00:49:17:e1:36:76:b9:3c:17:87:01:12:
         0b:61:26:9f:4d:57:05:3c:78:7b:0e:eb:11:ed:94:3a:92:34:
         81:2c:55:cf:0d:92:e1:dc:7a:21:45:90:5b:c0:42:c9:20:af:
         8a:6b:33:d5:ba:28:8c:ee:ce:4a:2b:d9:a6:c8:49:4b:61:5e:
         86:97:c4:6b:88:d1:7e:2d:b6:f6:7c:6d:c7:bb:cb:dc:04:d3:
         eb:61:7b:37:ea:97:d1:49:4b:fc:fa:0f:a6:7c:68:54:0a:13:
         f7:e0:0b:8c:e3:30:a3:d8:f5:2d:a9:66:27:33:59:26:44:96:
         d1:a5:bd:12
-----BEGIN CERTIFICATE-----
MIIFKzCCBBOgAwIBAgIRAMF3R89MtNQMhbWtojEZvkQwDQYJKoZIhvcNAQELBQAw
ga8xCzAJBgNVBAYTAlVTMRMwEQYDVQQIDApDYWxpZm9ybmlhMRYwFAYDVQQHDA1T
YW4gRnJhbmNpc2NvMSAwHgYDVQQKDBdDb3B5bGVmdCBDZXJ0aWZpY2F0ZSBDbzEf
MB0GA1UECwwWTXkgT3JnYW5pemF0aW9uYWwgVW5pdDERMA8GA1UEAwwIQ2hhbmdl
TWUxHTAbBgkqhkiG9w0BCQEWDm1lQGV4YW1wbGUubmV0MB4XDTIzMTExMDE3NDU1
NFoXDTI0MTEwOTE3NDU1NFowgbYxCzAJBgNVBAYTAlVTMQswCQYDVQQIDAJPSDET
MBEGA1UEBwwKQ2luY2lubmF0aTEhMB8GA1UECgwYVW5pdmVyc2l0eSBvZiBDaW5j
aW5uYXRpMSQwIgYDVQQLDBtEZXB0X0VsZWNfQ29tXyBFbmdfQ29tX1NjaS4xEjAQ
BgNVBAMMCWNsaWVudDExMjEoMCYGCSqGSIb3DQEJARYZZnJhbmNvQGdhdXNzLmVj
ZWNzLnVjLmVkdTCCASIwDQYJKoZIhvcNAQEBBQADggEPADCCAQoCggEBAKw/2ESB
APqdlOvjqBlLiW/vTnkWXf6figezvc5QYKDk3zblx/HbG9Ieng9QibbNOF//Md+E
EOccAz66+xbj+16GTGAWUiFfGSmAP3wyXK2D0u3gvJ/cbe+mGDTSTPdAP9c0giEN
Z/JpVfhU4/bcU07mNa7NV/1ogsH/nmd4Wq/gVtSI53aeXi+9UYFnegiPDDHg4X8Y
RA5BCGObtaQJQSj9Iayiya00oejrrONJ1FCUCFkLJmJlNWikmzI/EYIcGptvOb3I
gluq9fm5xWQe2O/AdDDE6yf8f6GCiFewy0RbnVY6aa33rFkOEBobGSyc6mcPZOy/
hnVyx8vHeXDRj4UCAwEAAaOCATcwggEzMAkGA1UdEwQCMAAwHQYDVR0OBBYEFKIQ
gCaaREdAdHVqh4S/QBk5nczmMIHkBgNVHSMEgdwwgdmAFMgn2mQwCEAISiXM3EOZ
3neh/ne9oYG1pIGyMIGvMQswCQYDVQQGEwJVUzETMBEGA1UECAwKQ2FsaWZvcm5p
YTEWMBQGA1UEBwwNU2FuIEZyYW5jaXNjbzEgMB4GA1UECgwXQ29weWxlZnQgQ2Vy
dGlmaWNhdGUgQ28xHzAdBgNVBAsMFk15IE9yZ2FuaXphdGlvbmFsIFVuaXQxETAP
BgNVBAMMCENoYW5nZU1lMR0wGwYJKoZIhvcNAQkBFg5tZUBleGFtcGxlLm5ldIIJ
AKlIw378G7ChMBMGA1UdJQQMMAoGCCsGAQUFBwMCMAsGA1UdDwQEAwIHgDANBgkq
hkiG9w0BAQsFAAOCAQEAVEZN7jaHF+6ym2UaoL0RbtiJg80l0k7ujYzN865SVLnl
767rIx4iBP4L10omisUO47Dbl6oSoni6a3Fz7lKjuVZa7wVnv/YWbW8J+2aYNeou
8XKpyeXF0mHFmrDXhsP9lZGjY11BZSeGCBse6ovBR9grNmK8dqZFXX3cWo5lvGE4
XsPyAEkX4TZ2uTwXhwESC2Emn01XBTx4ew7rEe2UOpI0gSxVzw2S4dx6IUWQW8BC
ySCvimsz1boojO7OSivZpshJS2FehpfEa4jRfi229nxtx7vL3ATT62F7N+qX0UlL
/PoPpnxoVAoT9+ALjOMwo9j1LalmJzNZJkSW0aW9Eg==
-----END CERTIFICATE-----
