Certificate:
    Data:
        Version: 3 (0x2)
        Serial Number:
            44:0c:a7:08:19:a7:e9:2b:3c:54:d7:1e:a9:59:4d:c4
    Signature Algorithm: sha256WithRSAEncryption
        Issuer: C=US, ST=California, L=San Francisco, O=Copyleft Certificate Co, OU=My Organizational Unit, CN=ChangeMe/emailAddress=me@example.net
        Validity
            Not Before: Nov 11 01:48:46 2023 GMT
            Not After : Nov 10 01:48:46 2024 GMT
        Subject: C=US, ST=OH, L=Cincinnati, O=University of Cincinnati, OU=Dept. Elec. Comp. Eng. Comp. Sci., CN=client136/emailAddress=franco@gauss.ececs.uc.edu
        Subject Public Key Info:
            Public Key Algorithm: rsaEncryption
                Public-Key: (2048 bit)
                Modulus:
                    00:a9:4f:38:10:61:ce:c5:9f:1e:97:93:67:cd:30:
                    f0:6d:90:0b:58:00:4d:47:fd:21:e1:9b:1b:52:9a:
                    22:97:07:0f:1d:3a:6a:7d:ae:08:4c:83:2b:04:5e:
                    c1:57:e9:f4:10:f4:06:5b:c7:43:cc:c1:e1:0b:a5:
                    37:48:63:7b:db:06:d9:34:bc:91:46:8c:78:05:2a:
                    a0:3b:6c:a0:3c:40:c5:c5:6e:73:b3:96:7c:77:fb:
                    c8:17:f1:8e:cc:bd:b5:ed:99:1c:77:58:1a:8e:06:
                    52:3c:96:c4:28:7c:77:67:35:58:47:78:c2:47:d0:
                    9c:89:b7:6d:37:d7:fe:ae:59:81:02:46:26:4d:8c:
                    29:58:2c:10:5b:87:75:67:31:44:83:e2:c6:44:a4:
                    f6:73:ec:04:52:45:f0:7e:04:86:da:9c:85:f3:52:
                    4c:a0:cd:5c:74:f1:01:70:00:80:0a:9a:87:35:38:
                    dc:cd:df:de:0b:aa:f4:b1:2a:e8:f1:27:03:40:a2:
                    5f:0e:b4:65:ce:21:08:26:a2:7d:41:11:a6:04:d4:
                    3e:38:2c:a2:2c:04:2a:62:8e:26:1c:b0:99:29:fb:
                    a0:64:2b:b1:58:b9:c7:a9:ad:4a:a7:2a:60:bd:6c:
                    65:fa:6c:9f:32:43:ea:1c:dd:7b:66:30:8a:da:b2:
                    7a:c9
                Exponent: 65537 (0x10001)
        X509v3 extensions:
            X509v3 Basic Constraints: 
                CA:FALSE
            X509v3 Subject Key Identifier: 
                6A:DE:7D:EA:2F:45:5C:79:B3:85:B3:57:A0:A4:1D:C8:50:5B:07:88
            X509v3 Authority Key Identifier: 
                keyid:73:DE:A0:43:0F:AE:B1:9E:E8:59:69:18:50:A1:1A:1F:D4:A1:E3:F0
                DirName:/C=US/ST=California/L=San Francisco/O=Copyleft Certificate Co/OU=My Organizational Unit/CN=ChangeMe/emailAddress=me@example.net
                serial:E9:BB:CB:16:C5:32:BE:3B

            X509v3 Extended Key Usage: 
                TLS Web Client Authentication
            X509v3 Key Usage: 
                Digital Signature
    Signature Algorithm: sha256WithRSAEncryption
         7d:5b:cc:67:05:1c:f6:dd:21:47:d8:28:fc:12:d2:0d:14:41:
         a1:18:af:57:f8:47:64:c1:f8:87:11:a6:fb:96:e5:39:e5:20:
         39:51:34:9d:31:f7:47:61:8c:4f:56:33:31:f3:f9:04:7c:53:
         0e:5d:08:92:34:93:34:23:6c:7f:68:56:8c:e1:eb:ee:a6:fd:
         00:de:4d:e9:13:73:7b:a6:1f:26:e4:e6:b3:5a:4a:ae:b8:71:
         46:e6:23:a9:a8:38:b6:61:76:32:0c:87:41:a1:86:ea:8c:31:
         c2:09:48:88:5b:e9:7e:92:5f:df:0f:be:73:14:0b:80:6c:5b:
         28:71:93:d3:2e:55:5d:8f:91:64:a0:58:32:a8:36:1e:e7:fd:
         62:9d:73:db:96:6b:ff:ec:8d:a3:39:1b:91:11:7e:9c:72:78:
         a4:b4:09:b7:9a:63:8d:4e:7f:42:66:b8:60:cc:a7:6a:8f:aa:
         10:7c:ec:d2:f6:86:9e:84:f4:29:b5:3f:50:2c:77:50:bd:d0:
         06:ea:3a:30:ef:77:26:64:b3:eb:ef:0f:00:83:53:8e:4a:ba:
         02:b7:98:96:58:2c:c4:b5:30:e3:7c:44:24:f4:6e:5e:1a:fb:
         2d:7f:f5:f7:75:d0:a6:e4:e4:9a:85:2f:d4:15:2e:d6:fc:ee:
         45:66:b4:cf
-----BEGIN CERTIFICATE-----
MIIFMDCCBBigAwIBAgIQRAynCBmn6Ss8VNceqVlNxDANBgkqhkiG9w0BAQsFADCB
rzELMAkGA1UEBhMCVVMxEzARBgNVBAgMCkNhbGlmb3JuaWExFjAUBgNVBAcMDVNh
biBGcmFuY2lzY28xIDAeBgNVBAoMF0NvcHlsZWZ0IENlcnRpZmljYXRlIENvMR8w
HQYDVQQLDBZNeSBPcmdhbml6YXRpb25hbCBVbml0MREwDwYDVQQDDAhDaGFuZ2VN
ZTEdMBsGCSqGSIb3DQEJARYObWVAZXhhbXBsZS5uZXQwHhcNMjMxMTExMDE0ODQ2
WhcNMjQxMTEwMDE0ODQ2WjCBvDELMAkGA1UEBhMCVVMxCzAJBgNVBAgMAk9IMRMw
EQYDVQQHDApDaW5jaW5uYXRpMSEwHwYDVQQKDBhVbml2ZXJzaXR5IG9mIENpbmNp
bm5hdGkxKjAoBgNVBAsMIURlcHQuIEVsZWMuIENvbXAuIEVuZy4gQ29tcC4gU2Np
LjESMBAGA1UEAwwJY2xpZW50MTM2MSgwJgYJKoZIhvcNAQkBFhlmcmFuY29AZ2F1
c3MuZWNlY3MudWMuZWR1MIIBIjANBgkqhkiG9w0BAQEFAAOCAQ8AMIIBCgKCAQEA
qU84EGHOxZ8el5NnzTDwbZALWABNR/0h4ZsbUpoilwcPHTpqfa4ITIMrBF7BV+n0
EPQGW8dDzMHhC6U3SGN72wbZNLyRRox4BSqgO2ygPEDFxW5zs5Z8d/vIF/GOzL21
7Zkcd1gajgZSPJbEKHx3ZzVYR3jCR9CcibdtN9f+rlmBAkYmTYwpWCwQW4d1ZzFE
g+LGRKT2c+wEUkXwfgSG2pyF81JMoM1cdPEBcACACpqHNTjczd/eC6r0sSro8ScD
QKJfDrRlziEIJqJ9QRGmBNQ+OCyiLAQqYo4mHLCZKfugZCuxWLnHqa1KpypgvWxl
+myfMkPqHN17ZjCK2rJ6yQIDAQABo4IBNzCCATMwCQYDVR0TBAIwADAdBgNVHQ4E
FgQUat596i9FXHmzhbNXoKQdyFBbB4gwgeQGA1UdIwSB3DCB2YAUc96gQw+usZ7o
WWkYUKEaH9Sh4/ChgbWkgbIwga8xCzAJBgNVBAYTAlVTMRMwEQYDVQQIDApDYWxp
Zm9ybmlhMRYwFAYDVQQHDA1TYW4gRnJhbmNpc2NvMSAwHgYDVQQKDBdDb3B5bGVm
dCBDZXJ0aWZpY2F0ZSBDbzEfMB0GA1UECwwWTXkgT3JnYW5pemF0aW9uYWwgVW5p
dDERMA8GA1UEAwwIQ2hhbmdlTWUxHTAbBgkqhkiG9w0BCQEWDm1lQGV4YW1wbGUu
bmV0ggkA6bvLFsUyvjswEwYDVR0lBAwwCgYIKwYBBQUHAwIwCwYDVR0PBAQDAgeA
MA0GCSqGSIb3DQEBCwUAA4IBAQB9W8xnBRz23SFH2Cj8EtINFEGhGK9X+EdkwfiH
Eab7luU55SA5UTSdMfdHYYxPVjMx8/kEfFMOXQiSNJM0I2x/aFaM4evupv0A3k3p
E3N7ph8m5OazWkquuHFG5iOpqDi2YXYyDIdBoYbqjDHCCUiIW+l+kl/fD75zFAuA
bFsocZPTLlVdj5FkoFgyqDYe5/1inXPblmv/7I2jORuREX6ccniktAm3mmONTn9C
ZrhgzKdqj6oQfOzS9oaehPQptT9QLHdQvdAG6jow73cmZLPr7w8Ag1OOSroCt5iW
WCzEtTDjfEQk9G5eGvstf/X3ddCm5OSahS/UFS7W/O5FZrTP
-----END CERTIFICATE-----
