Certificate:
    Data:
        Version: 3 (0x2)
        Serial Number:
            e5:66:62:b7:7c:1a:0f:b9:6a:d6:e9:fb:cc:5e:d2:d0
    Signature Algorithm: sha256WithRSAEncryption
        Issuer: C=US, ST=California, L=San Francisco, O=Copyleft Certificate Co, OU=My Organizational Unit, CN=ChangeMe/emailAddress=me@example.net
        Validity
            Not Before: Nov 10 17:42:37 2023 GMT
            Not After : Nov  9 17:42:37 2024 GMT
        Subject: C=US, ST=OH, L=Cincinnati, O=University of Cincinnati, OU=Dept_Elec_Com_ Eng_Com_Sci., CN=client63/emailAddress=franco@gauss.ececs.uc.edu
        Subject Public Key Info:
            Public Key Algorithm: rsaEncryption
                Public-Key: (2048 bit)
                Modulus:
                    00:c4:0b:87:85:87:0e:3e:31:7d:ee:79:b8:d4:87:
                    22:55:79:4f:f3:16:72:1e:b4:fd:e1:63:ae:0b:df:
                    5e:17:a2:39:04:01:22:9c:8f:81:b2:9a:01:1c:27:
                    af:b6:cb:a0:6d:c6:d3:61:be:7f:1b:12:5f:b0:7e:
                    60:4b:4e:26:8f:1b:cb:e6:bb:47:b4:af:00:bd:df:
                    cf:cc:9b:32:9e:65:c7:97:41:1f:df:39:46:d0:9b:
                    1e:13:b2:9c:92:2b:3a:ed:b8:7f:a7:ca:89:06:00:
                    03:9d:9e:99:55:09:73:35:5b:53:95:49:1b:e5:3c:
                    b7:82:fb:b6:43:5a:98:a0:e3:ec:eb:67:b0:3c:f2:
                    9e:f0:1c:8a:d4:a3:14:42:2e:10:b0:f1:45:46:43:
                    d9:34:24:ff:ad:1b:b1:2c:a8:6c:1f:92:6f:a6:ca:
                    cf:a2:4b:19:11:06:82:50:19:e2:d0:f8:b3:f1:6b:
                    3e:4c:48:52:c4:a9:6e:eb:16:be:5b:23:ac:44:c5:
                    d9:5a:d4:80:39:68:3d:99:c3:47:38:ae:8f:51:1d:
                    e8:84:dc:c7:6f:08:2f:9c:b5:47:05:55:92:c0:ff:
                    6e:b4:8a:2d:a4:66:c2:ec:e8:16:9a:35:01:82:a4:
                    0e:81:32:f1:a0:d8:30:38:6d:6b:1c:e9:d3:b0:55:
                    ac:4d
                Exponent: 65537 (0x10001)
        X509v3 extensions:
            X509v3 Basic Constraints: 
                CA:FALSE
            X509v3 Subject Key Identifier: 
                5F:0A:4F:EA:82:40:32:44:52:9B:3E:C5:25:AD:57:9D:61:88:AC:07
            X509v3 Authority Key Identifier: 
                keyid:C8:27:DA:64:30:08:40:08:4A:25:CC:DC:43:99:DE:77:A1:FE:77:BD
                DirName:/C=US/ST=California/L=San Francisco/O=Copyleft Certificate Co/OU=My Organizational Unit/CN=ChangeMe/emailAddress=me@example.net
                serial:A9:48:C3:7E:FC:1B:B0:A1

            X509v3 Extended Key Usage: 
                TLS Web Client Authentication
            X509v3 Key Usage: 
                Digital Signature
    Signature Algorithm: sha256WithRSAEncryption
         a0:61:52:a1:1d:5e:50:5a:1e:f6:75:b7:77:24:84:ec:9f:77:
         c1:d8:49:ae:4d:c4:31:1e:a6:2d:ef:c3:4b:22:d4:f3:97:e0:
         9d:15:f5:f7:b5:0c:4d:e6:d6:4c:df:8b:33:51:b0:df:02:28:
         89:d1:e3:85:7e:78:e7:0c:7f:68:07:30:60:16:4f:d4:5a:48:
         18:d7:17:c1:9f:f5:2b:25:cf:73:79:6f:bf:89:1a:d7:e7:42:
         76:b4:59:d8:91:b6:b8:8f:89:c6:83:d5:6e:ab:27:e7:30:59:
         74:1d:89:38:02:09:7f:ba:8c:bd:8e:f0:f4:17:28:83:3b:80:
         a3:9a:db:71:9e:cb:a8:41:2f:52:9e:ca:3f:66:d7:5e:ba:aa:
         93:92:b7:9a:2a:db:bb:16:82:e6:65:dd:e9:8d:33:45:e9:de:
         a5:2a:74:17:fc:f1:2e:39:b0:19:af:1e:39:06:6c:3c:f3:be:
         65:37:11:70:41:1d:82:f0:0f:86:77:fb:58:31:b7:7e:e3:92:
         73:9a:cc:7f:75:f9:35:bd:8e:97:81:12:22:94:d5:7b:0e:c7:
         54:d5:3e:62:38:68:0e:61:88:f8:ea:a7:63:09:15:7a:55:92:
         f4:b8:1f:ba:9c:eb:ed:a2:c6:ee:89:67:e9:27:86:cd:c2:c4:
         3c:de:90:06
-----BEGIN CERTIFICATE-----
MIIFKjCCBBKgAwIBAgIRAOVmYrd8Gg+5atbp+8xe0tAwDQYJKoZIhvcNAQELBQAw
ga8xCzAJBgNVBAYTAlVTMRMwEQYDVQQIDApDYWxpZm9ybmlhMRYwFAYDVQQHDA1T
YW4gRnJhbmNpc2NvMSAwHgYDVQQKDBdDb3B5bGVmdCBDZXJ0aWZpY2F0ZSBDbzEf
MB0GA1UECwwWTXkgT3JnYW5pemF0aW9uYWwgVW5pdDERMA8GA1UEAwwIQ2hhbmdl
TWUxHTAbBgkqhkiG9w0BCQEWDm1lQGV4YW1wbGUubmV0MB4XDTIzMTExMDE3NDIz
N1oXDTI0MTEwOTE3NDIzN1owgbUxCzAJBgNVBAYTAlVTMQswCQYDVQQIDAJPSDET
MBEGA1UEBwwKQ2luY2lubmF0aTEhMB8GA1UECgwYVW5pdmVyc2l0eSBvZiBDaW5j
aW5uYXRpMSQwIgYDVQQLDBtEZXB0X0VsZWNfQ29tXyBFbmdfQ29tX1NjaS4xETAP
BgNVBAMMCGNsaWVudDYzMSgwJgYJKoZIhvcNAQkBFhlmcmFuY29AZ2F1c3MuZWNl
Y3MudWMuZWR1MIIBIjANBgkqhkiG9w0BAQEFAAOCAQ8AMIIBCgKCAQEAxAuHhYcO
PjF97nm41IciVXlP8xZyHrT94WOuC99eF6I5BAEinI+BspoBHCevtsugbcbTYb5/
GxJfsH5gS04mjxvL5rtHtK8Avd/PzJsynmXHl0Ef3zlG0JseE7Kckis67bh/p8qJ
BgADnZ6ZVQlzNVtTlUkb5Ty3gvu2Q1qYoOPs62ewPPKe8ByK1KMUQi4QsPFFRkPZ
NCT/rRuxLKhsH5JvpsrPoksZEQaCUBni0Piz8Ws+TEhSxKlu6xa+WyOsRMXZWtSA
OWg9mcNHOK6PUR3ohNzHbwgvnLVHBVWSwP9utIotpGbC7OgWmjUBgqQOgTLxoNgw
OG1rHOnTsFWsTQIDAQABo4IBNzCCATMwCQYDVR0TBAIwADAdBgNVHQ4EFgQUXwpP
6oJAMkRSmz7FJa1XnWGIrAcwgeQGA1UdIwSB3DCB2YAUyCfaZDAIQAhKJczcQ5ne
d6H+d72hgbWkgbIwga8xCzAJBgNVBAYTAlVTMRMwEQYDVQQIDApDYWxpZm9ybmlh
MRYwFAYDVQQHDA1TYW4gRnJhbmNpc2NvMSAwHgYDVQQKDBdDb3B5bGVmdCBDZXJ0
aWZpY2F0ZSBDbzEfMB0GA1UECwwWTXkgT3JnYW5pemF0aW9uYWwgVW5pdDERMA8G
A1UEAwwIQ2hhbmdlTWUxHTAbBgkqhkiG9w0BCQEWDm1lQGV4YW1wbGUubmV0ggkA
qUjDfvwbsKEwEwYDVR0lBAwwCgYIKwYBBQUHAwIwCwYDVR0PBAQDAgeAMA0GCSqG
SIb3DQEBCwUAA4IBAQCgYVKhHV5QWh72dbd3JITsn3fB2EmuTcQxHqYt78NLItTz
l+CdFfX3tQxN5tZM34szUbDfAiiJ0eOFfnjnDH9oBzBgFk/UWkgY1xfBn/UrJc9z
eW+/iRrX50J2tFnYkba4j4nGg9VuqyfnMFl0HYk4Agl/uoy9jvD0FyiDO4Cjmttx
nsuoQS9Snso/ZtdeuqqTkreaKtu7FoLmZd3pjTNF6d6lKnQX/PEuObAZrx45Bmw8
875lNxFwQR2C8A+Gd/tYMbd+45Jzmsx/dfk1vY6XgRIilNV7DsdU1T5iOGgOYYj4
6qdjCRV6VZL0uB+6nOvtosbuiWfpJ4bNwsQ83pAG
-----END CERTIFICATE-----
