Certificate:
    Data:
        Version: 3 (0x2)
        Serial Number:
            22:22:40:5b:57:cd:6d:f7:5c:1b:8c:ab:8b:c7:b8:a0
    Signature Algorithm: sha256WithRSAEncryption
        Issuer: C=US, ST=California, L=San Francisco, O=Copyleft Certificate Co, OU=My Organizational Unit, CN=ChangeMe/emailAddress=me@example.net
        Validity
            Not Before: Nov 11 10:57:12 2023 GMT
            Not After : Nov 10 10:57:12 2024 GMT
        Subject: C=US, ST=OH, L=Cincinnati, O=University of Cincinnati, OU=Dept. Elec. Comp. Eng. Comp. Sci., CN=client29/emailAddress=franco@gauss.ececs.uc.edu
        Subject Public Key Info:
            Public Key Algorithm: rsaEncryption
                Public-Key: (2048 bit)
                Modulus:
                    00:a5:35:e6:9b:b6:a3:46:ca:ac:d5:be:1e:92:3f:
                    f5:70:58:13:71:42:7b:1a:9e:96:22:1a:07:25:e1:
                    42:ae:02:87:70:a0:18:a5:b4:9a:fc:8d:31:07:18:
                    0a:46:59:63:47:9e:6f:e2:9e:14:bc:71:cc:2b:bf:
                    24:69:13:80:7b:22:21:ce:bc:39:75:5d:fd:ff:f4:
                    05:ce:9d:8c:76:d4:28:9a:5b:09:67:04:13:08:e1:
                    02:37:81:0e:14:5a:ba:53:6d:0c:b1:93:00:08:8d:
                    62:0a:59:f2:39:0a:49:72:6f:91:31:2e:d2:ca:3b:
                    1e:ee:8a:56:90:09:82:53:44:3a:00:62:66:0b:c0:
                    4b:a2:f8:74:c9:28:e5:01:31:01:41:44:72:a1:82:
                    c5:05:b3:62:10:d1:b8:db:35:0b:ae:8c:80:d9:89:
                    84:13:2a:bd:39:dd:48:86:b9:bc:b7:a4:be:c9:4a:
                    96:2a:49:d2:2c:6a:04:dd:40:17:b2:2e:89:ad:3f:
                    a9:51:70:48:53:a0:47:ef:3d:a5:32:6b:fc:2b:77:
                    33:a3:71:9d:bd:26:3c:3c:e5:95:60:aa:ff:e4:40:
                    bb:14:52:f0:7c:1a:71:7d:52:c1:a4:6c:71:02:fe:
                    62:32:2f:24:c5:09:cb:14:47:84:4b:02:5c:d4:44:
                    20:c5
                Exponent: 65537 (0x10001)
        X509v3 extensions:
            X509v3 Basic Constraints: 
                CA:FALSE
            X509v3 Subject Key Identifier: 
                58:2E:A5:31:00:91:EF:1E:4A:69:05:C7:A1:BD:A8:DB:6C:19:2C:C1
            X509v3 Authority Key Identifier: 
                keyid:44:01:CC:06:0B:41:75:CB:C8:FB:C9:37:86:2D:9D:D2:D8:79:B6:8B
                DirName:/C=US/ST=California/L=San Francisco/O=Copyleft Certificate Co/OU=My Organizational Unit/CN=ChangeMe/emailAddress=me@example.net
                serial:AF:E8:E0:DD:C5:8B:0E:DD

            X509v3 Extended Key Usage: 
                TLS Web Client Authentication
            X509v3 Key Usage: 
                Digital Signature
    Signature Algorithm: sha256WithRSAEncryption
         ab:62:d1:47:a5:97:2f:d9:8a:c4:08:19:41:39:94:7d:92:34:
         d7:df:c8:25:ba:e9:4f:a1:66:34:95:54:68:14:05:2c:13:b1:
         2d:78:d8:2e:f3:7f:4a:ec:ad:fd:e2:eb:fe:ce:2d:cb:db:8c:
         36:7b:53:c0:1f:7d:02:55:42:37:c1:fa:31:00:e4:83:1b:46:
         6e:27:b6:5f:05:bd:6f:f1:ce:3d:ce:63:95:17:be:2b:bf:4a:
         bc:1e:1d:28:69:23:1e:3c:c0:b0:60:10:91:a0:5e:ab:ec:a7:
         b1:26:04:cb:d0:9d:12:23:4e:71:bc:9d:71:55:f6:db:6c:e6:
         b3:d1:89:49:88:45:86:79:e7:45:4f:2a:cb:ab:11:df:c8:8d:
         46:8c:0d:17:fa:60:5e:c4:aa:ab:45:d8:b7:35:b4:47:b9:e3:
         7c:f9:e9:15:c4:8a:ee:fc:8b:ca:75:1b:2b:0e:d4:fe:22:fd:
         5b:83:a2:26:86:2b:89:76:f9:44:87:8b:fd:b9:76:7b:25:3e:
         3f:b2:98:b6:30:05:78:e4:77:fa:f3:6f:f5:bf:fe:54:3e:f6:
         2b:48:ae:ea:6f:4f:db:f7:aa:92:71:be:bb:24:8c:04:a0:47:
         2b:61:1d:3b:3a:57:9c:0e:c2:77:d4:fd:0f:30:6e:8e:bf:a8:
         99:e8:42:f9
-----BEGIN CERTIFICATE-----
MIIFLzCCBBegAwIBAgIQIiJAW1fNbfdcG4yri8e4oDANBgkqhkiG9w0BAQsFADCB
rzELMAkGA1UEBhMCVVMxEzARBgNVBAgMCkNhbGlmb3JuaWExFjAUBgNVBAcMDVNh
biBGcmFuY2lzY28xIDAeBgNVBAoMF0NvcHlsZWZ0IENlcnRpZmljYXRlIENvMR8w
HQYDVQQLDBZNeSBPcmdhbml6YXRpb25hbCBVbml0MREwDwYDVQQDDAhDaGFuZ2VN
ZTEdMBsGCSqGSIb3DQEJARYObWVAZXhhbXBsZS5uZXQwHhcNMjMxMTExMTA1NzEy
WhcNMjQxMTEwMTA1NzEyWjCBuzELMAkGA1UEBhMCVVMxCzAJBgNVBAgMAk9IMRMw
EQYDVQQHDApDaW5jaW5uYXRpMSEwHwYDVQQKDBhVbml2ZXJzaXR5IG9mIENpbmNp
bm5hdGkxKjAoBgNVBAsMIURlcHQuIEVsZWMuIENvbXAuIEVuZy4gQ29tcC4gU2Np
LjERMA8GA1UEAwwIY2xpZW50MjkxKDAmBgkqhkiG9w0BCQEWGWZyYW5jb0BnYXVz
cy5lY2Vjcy51Yy5lZHUwggEiMA0GCSqGSIb3DQEBAQUAA4IBDwAwggEKAoIBAQCl
NeabtqNGyqzVvh6SP/VwWBNxQnsanpYiGgcl4UKuAodwoBiltJr8jTEHGApGWWNH
nm/inhS8ccwrvyRpE4B7IiHOvDl1Xf3/9AXOnYx21CiaWwlnBBMI4QI3gQ4UWrpT
bQyxkwAIjWIKWfI5Cklyb5ExLtLKOx7uilaQCYJTRDoAYmYLwEui+HTJKOUBMQFB
RHKhgsUFs2IQ0bjbNQuujIDZiYQTKr053UiGuby3pL7JSpYqSdIsagTdQBeyLomt
P6lRcEhToEfvPaUya/wrdzOjcZ29Jjw85ZVgqv/kQLsUUvB8GnF9UsGkbHEC/mIy
LyTFCcsUR4RLAlzURCDFAgMBAAGjggE3MIIBMzAJBgNVHRMEAjAAMB0GA1UdDgQW
BBRYLqUxAJHvHkppBcehvajbbBkswTCB5AYDVR0jBIHcMIHZgBREAcwGC0F1y8j7
yTeGLZ3S2Hm2i6GBtaSBsjCBrzELMAkGA1UEBhMCVVMxEzARBgNVBAgMCkNhbGlm
b3JuaWExFjAUBgNVBAcMDVNhbiBGcmFuY2lzY28xIDAeBgNVBAoMF0NvcHlsZWZ0
IENlcnRpZmljYXRlIENvMR8wHQYDVQQLDBZNeSBPcmdhbml6YXRpb25hbCBVbml0
MREwDwYDVQQDDAhDaGFuZ2VNZTEdMBsGCSqGSIb3DQEJARYObWVAZXhhbXBsZS5u
ZXSCCQCv6ODdxYsO3TATBgNVHSUEDDAKBggrBgEFBQcDAjALBgNVHQ8EBAMCB4Aw
DQYJKoZIhvcNAQELBQADggEBAKti0Uelly/ZisQIGUE5lH2SNNffyCW66U+hZjSV
VGgUBSwTsS142C7zf0rsrf3i6/7OLcvbjDZ7U8AffQJVQjfB+jEA5IMbRm4ntl8F
vW/xzj3OY5UXviu/SrweHShpIx48wLBgEJGgXqvsp7EmBMvQnRIjTnG8nXFV9tts
5rPRiUmIRYZ550VPKsurEd/IjUaMDRf6YF7EqqtF2Lc1tEe543z56RXEiu78i8p1
GysO1P4i/VuDoiaGK4l2+USHi/25dnslPj+ymLYwBXjkd/rzb/W//lQ+9itIrupv
T9v3qpJxvrskjASgRythHTs6V5wOwnfU/Q8wbo6/qJnoQvk=
-----END CERTIFICATE-----
