Certificate:
    Data:
        Version: 3 (0x2)
        Serial Number:
            60:ba:c7:66:6d:42:ed:8b:03:ff:8c:5e:a8:c4:df:63
    Signature Algorithm: sha256WithRSAEncryption
        Issuer: C=US, ST=California, L=San Francisco, O=Copyleft Certificate Co, OU=My Organizational Unit, CN=ChangeMe/emailAddress=me@example.net
        Validity
            Not Before: Nov 11 10:57:28 2023 GMT
            Not After : Nov 10 10:57:28 2024 GMT
        Subject: C=US, ST=OH, L=Cincinnati, O=University of Cincinnati, OU=Dept. Elec. Comp. Eng. Comp. Sci., CN=client33/emailAddress=franco@gauss.ececs.uc.edu
        Subject Public Key Info:
            Public Key Algorithm: rsaEncryption
                Public-Key: (2048 bit)
                Modulus:
                    00:c0:6b:d1:07:62:d1:46:8a:d8:df:ad:38:ed:05:
                    5d:5d:eb:fe:12:ac:d0:55:5b:e7:ae:22:9f:8d:77:
                    53:0a:4a:33:8c:cf:bc:48:32:b5:54:30:70:ce:9b:
                    ed:04:ce:f6:bd:f8:a1:03:ae:2b:0b:1e:60:c4:1f:
                    6a:04:79:5f:3c:66:38:0a:b8:97:46:dc:e4:44:03:
                    fd:4d:99:ab:d9:0c:86:da:16:24:e6:20:8f:a0:c6:
                    9d:70:d3:44:85:33:21:e3:76:69:e8:0c:96:10:22:
                    b6:13:6e:5b:bc:ce:e6:17:14:03:fc:22:0f:f7:00:
                    3d:51:c1:0a:1b:f0:45:13:cc:cb:32:74:29:14:a2:
                    34:0e:e7:5c:56:21:c1:21:80:40:35:27:cc:a7:72:
                    66:84:f0:15:fc:f4:82:b4:2d:dc:e8:84:a5:bb:96:
                    4e:21:48:aa:f9:1d:97:51:98:cc:b8:ce:52:8e:0d:
                    e9:8c:79:90:84:b7:dc:29:b0:7d:3b:cc:ed:9e:d0:
                    72:3b:b0:1c:ec:c1:92:36:fc:6f:a9:b6:ed:18:27:
                    8f:83:6d:d9:ed:c3:f1:02:ac:15:67:13:8a:d6:e5:
                    0a:1c:f6:03:04:86:1d:b7:80:f0:94:b0:39:3a:18:
                    f9:35:0b:4f:78:0e:37:4e:aa:13:bb:38:41:63:82:
                    04:9f
                Exponent: 65537 (0x10001)
        X509v3 extensions:
            X509v3 Basic Constraints: 
                CA:FALSE
            X509v3 Subject Key Identifier: 
                D9:16:0A:A9:9C:87:D4:80:F1:50:3A:58:99:2C:62:EC:61:F5:BE:E5
            X509v3 Authority Key Identifier: 
                keyid:44:01:CC:06:0B:41:75:CB:C8:FB:C9:37:86:2D:9D:D2:D8:79:B6:8B
                DirName:/C=US/ST=California/L=San Francisco/O=Copyleft Certificate Co/OU=My Organizational Unit/CN=ChangeMe/emailAddress=me@example.net
                serial:AF:E8:E0:DD:C5:8B:0E:DD

            X509v3 Extended Key Usage: 
                TLS Web Client Authentication
            X509v3 Key Usage: 
                Digital Signature
    Signature Algorithm: sha256WithRSAEncryption
         8e:ba:5d:d8:7d:ce:4b:22:ab:c2:35:66:b5:a6:eb:71:1b:18:
         53:81:3c:cb:f2:6e:bb:35:48:4d:af:5a:5e:ea:b4:89:2e:34:
         31:2c:a3:0b:47:3a:95:fc:93:24:b3:ab:16:33:e7:e6:94:ce:
         06:c0:95:ac:cd:c1:8f:63:48:88:2d:0c:45:74:fd:46:1c:a3:
         61:bd:18:e1:c9:2c:26:2e:18:0e:bf:c9:2f:5d:4f:bd:4e:0f:
         11:1e:23:5d:74:7d:a1:97:18:69:65:1c:e2:bf:22:c4:d5:95:
         7f:a4:04:11:c7:bd:ee:b1:e1:8c:83:66:aa:bd:49:60:5a:fd:
         25:76:67:dd:b3:2a:62:65:dc:d4:be:ad:66:e8:18:b5:aa:29:
         06:b0:f0:8f:6d:39:9d:c6:f8:9d:7b:66:3c:0c:c9:9d:c1:40:
         4a:96:03:7b:17:d4:f6:50:cd:e6:c1:cb:bd:05:d5:ac:67:aa:
         b6:22:d8:57:5b:01:19:68:02:36:6a:48:33:79:9a:d8:46:32:
         fe:02:a2:f9:2c:b9:9f:d4:3b:6c:4e:37:15:89:75:80:44:5e:
         a2:f9:ab:7d:1e:96:f4:8d:e0:8a:cd:52:58:aa:e6:7b:36:38:
         63:0d:fb:90:56:b6:c0:44:df:3d:90:af:91:0a:3d:d1:74:82:
         d0:a9:ef:ec
-----BEGIN CERTIFICATE-----
MIIFLzCCBBegAwIBAgIQYLrHZm1C7YsD/4xeqMTfYzANBgkqhkiG9w0BAQsFADCB
rzELMAkGA1UEBhMCVVMxEzARBgNVBAgMCkNhbGlmb3JuaWExFjAUBgNVBAcMDVNh
biBGcmFuY2lzY28xIDAeBgNVBAoMF0NvcHlsZWZ0IENlcnRpZmljYXRlIENvMR8w
HQYDVQQLDBZNeSBPcmdhbml6YXRpb25hbCBVbml0MREwDwYDVQQDDAhDaGFuZ2VN
ZTEdMBsGCSqGSIb3DQEJARYObWVAZXhhbXBsZS5uZXQwHhcNMjMxMTExMTA1NzI4
WhcNMjQxMTEwMTA1NzI4WjCBuzELMAkGA1UEBhMCVVMxCzAJBgNVBAgMAk9IMRMw
EQYDVQQHDApDaW5jaW5uYXRpMSEwHwYDVQQKDBhVbml2ZXJzaXR5IG9mIENpbmNp
bm5hdGkxKjAoBgNVBAsMIURlcHQuIEVsZWMuIENvbXAuIEVuZy4gQ29tcC4gU2Np
LjERMA8GA1UEAwwIY2xpZW50MzMxKDAmBgkqhkiG9w0BCQEWGWZyYW5jb0BnYXVz
cy5lY2Vjcy51Yy5lZHUwggEiMA0GCSqGSIb3DQEBAQUAA4IBDwAwggEKAoIBAQDA
a9EHYtFGitjfrTjtBV1d6/4SrNBVW+euIp+Nd1MKSjOMz7xIMrVUMHDOm+0Ezva9
+KEDrisLHmDEH2oEeV88ZjgKuJdG3OREA/1NmavZDIbaFiTmII+gxp1w00SFMyHj
dmnoDJYQIrYTblu8zuYXFAP8Ig/3AD1RwQob8EUTzMsydCkUojQO51xWIcEhgEA1
J8yncmaE8BX89IK0LdzohKW7lk4hSKr5HZdRmMy4zlKODemMeZCEt9wpsH07zO2e
0HI7sBzswZI2/G+ptu0YJ4+Dbdntw/ECrBVnE4rW5Qoc9gMEhh23gPCUsDk6GPk1
C094DjdOqhO7OEFjggSfAgMBAAGjggE3MIIBMzAJBgNVHRMEAjAAMB0GA1UdDgQW
BBTZFgqpnIfUgPFQOliZLGLsYfW+5TCB5AYDVR0jBIHcMIHZgBREAcwGC0F1y8j7
yTeGLZ3S2Hm2i6GBtaSBsjCBrzELMAkGA1UEBhMCVVMxEzARBgNVBAgMCkNhbGlm
b3JuaWExFjAUBgNVBAcMDVNhbiBGcmFuY2lzY28xIDAeBgNVBAoMF0NvcHlsZWZ0
IENlcnRpZmljYXRlIENvMR8wHQYDVQQLDBZNeSBPcmdhbml6YXRpb25hbCBVbml0
MREwDwYDVQQDDAhDaGFuZ2VNZTEdMBsGCSqGSIb3DQEJARYObWVAZXhhbXBsZS5u
ZXSCCQCv6ODdxYsO3TATBgNVHSUEDDAKBggrBgEFBQcDAjALBgNVHQ8EBAMCB4Aw
DQYJKoZIhvcNAQELBQADggEBAI66Xdh9zksiq8I1ZrWm63EbGFOBPMvybrs1SE2v
Wl7qtIkuNDEsowtHOpX8kySzqxYz5+aUzgbAlazNwY9jSIgtDEV0/UYco2G9GOHJ
LCYuGA6/yS9dT71ODxEeI110faGXGGllHOK/IsTVlX+kBBHHve6x4YyDZqq9SWBa
/SV2Z92zKmJl3NS+rWboGLWqKQaw8I9tOZ3G+J17ZjwMyZ3BQEqWA3sX1PZQzebB
y70F1axnqrYi2FdbARloAjZqSDN5mthGMv4CovksuZ/UO2xONxWJdYBEXqL5q30e
lvSN4IrNUliq5ns2OGMN+5BWtsBE3z2Qr5EKPdF0gtCp7+w=
-----END CERTIFICATE-----
