Certificate:
    Data:
        Version: 3 (0x2)
        Serial Number:
            10:73:af:04:10:f0:2e:d1:4d:2a:fe:0e:5c:53:37:f5
    Signature Algorithm: sha256WithRSAEncryption
        Issuer: C=US, ST=California, L=San Francisco, O=Copyleft Certificate Co, OU=My Organizational Unit, CN=ChangeMe/emailAddress=me@example.net
        Validity
            Not Before: Nov 11 01:45:14 2023 GMT
            Not After : Nov 10 01:45:14 2024 GMT
        Subject: C=US, ST=OH, L=Cincinnati, O=University of Cincinnati, OU=Dept. Elec. Comp. Eng. Comp. Sci., CN=client83/emailAddress=franco@gauss.ececs.uc.edu
        Subject Public Key Info:
            Public Key Algorithm: rsaEncryption
                Public-Key: (2048 bit)
                Modulus:
                    00:a5:ed:53:06:64:b4:29:67:8a:a2:5b:01:91:9b:
                    0e:4a:7d:f5:96:74:7a:dc:12:d6:7a:55:c6:69:b5:
                    a8:24:3a:e4:c1:04:1f:21:1f:72:a5:41:3f:d0:59:
                    58:28:f0:48:78:6a:8c:4b:d6:5d:fe:8c:c2:42:03:
                    12:a5:b0:5d:ae:75:ee:2f:fc:98:36:57:61:80:d3:
                    bf:be:e6:a6:8a:23:36:7f:91:b4:3b:35:a3:68:dc:
                    e4:2b:25:8d:fe:e8:8b:b5:11:79:e9:0e:a0:7b:c1:
                    f1:21:8e:d8:7c:ef:2d:1f:31:3a:83:db:4f:ce:a8:
                    dd:36:a1:38:04:72:0c:38:29:ab:e0:a2:a1:5a:c5:
                    7a:ba:77:8d:6c:14:31:55:26:70:a3:fc:22:fa:a8:
                    13:3c:9b:4d:1f:02:84:87:50:c2:44:69:12:6b:1a:
                    5a:7c:ee:6e:62:15:aa:a2:65:62:4d:a2:76:76:dd:
                    3b:3a:7f:cf:7e:4d:8e:1d:8a:ce:97:75:03:62:69:
                    40:6b:f1:78:4d:9c:53:6b:4a:81:cf:69:66:5e:7c:
                    96:12:7b:cf:30:26:51:67:b5:57:ed:4b:57:93:25:
                    90:a1:6b:d3:c9:d8:63:42:72:e8:79:32:ff:42:0b:
                    31:7d:f9:b8:e9:69:c4:52:e6:48:c9:81:98:54:6e:
                    20:95
                Exponent: 65537 (0x10001)
        X509v3 extensions:
            X509v3 Basic Constraints: 
                CA:FALSE
            X509v3 Subject Key Identifier: 
                AE:A6:5A:7D:8C:11:4F:96:A9:7D:26:CE:4A:AA:7E:E8:DE:21:24:89
            X509v3 Authority Key Identifier: 
                keyid:73:DE:A0:43:0F:AE:B1:9E:E8:59:69:18:50:A1:1A:1F:D4:A1:E3:F0
                DirName:/C=US/ST=California/L=San Francisco/O=Copyleft Certificate Co/OU=My Organizational Unit/CN=ChangeMe/emailAddress=me@example.net
                serial:E9:BB:CB:16:C5:32:BE:3B

            X509v3 Extended Key Usage: 
                TLS Web Client Authentication
            X509v3 Key Usage: 
                Digital Signature
    Signature Algorithm: sha256WithRSAEncryption
         4a:6d:30:1e:09:82:2e:ea:8b:de:d5:37:42:1c:51:96:05:79:
         e3:41:33:04:e7:e5:75:0b:2d:61:fa:78:de:9c:b3:2a:bc:0d:
         e5:89:89:7d:73:99:a7:47:61:1d:24:d5:a6:d9:2c:12:6f:5e:
         b3:89:99:85:a3:cb:7a:5e:71:cd:99:df:73:09:79:bf:99:9a:
         71:4d:28:5d:78:35:ef:09:eb:a8:67:07:69:5b:bc:6b:c8:a4:
         ce:91:73:c8:a6:7f:70:7d:c1:bd:b8:7e:a5:0b:c3:e7:9d:3d:
         31:7c:bf:dd:a0:3a:6e:82:af:95:b9:50:05:a4:69:3b:7f:4b:
         54:9e:44:3d:e1:86:04:07:21:17:80:6d:3f:b1:81:f8:5b:7e:
         ce:05:59:25:c3:16:9f:b0:4c:01:b2:5d:75:d8:f5:f2:5d:38:
         26:53:0d:71:47:a4:1c:1c:39:15:a1:44:83:08:df:b3:a3:e7:
         aa:70:fe:86:45:ef:4e:a0:c3:d4:2e:1b:0e:c3:0d:ec:aa:31:
         82:df:b4:6b:5c:d4:5a:32:29:a2:ce:29:35:0c:8b:57:7f:4f:
         22:31:01:b4:19:3f:29:99:32:67:50:1e:32:2a:e3:33:44:a3:
         5c:2a:d0:09:b5:7f:6a:74:6a:3d:90:81:28:4b:04:9f:46:59:
         62:12:02:e6
-----BEGIN CERTIFICATE-----
MIIFLzCCBBegAwIBAgIQEHOvBBDwLtFNKv4OXFM39TANBgkqhkiG9w0BAQsFADCB
rzELMAkGA1UEBhMCVVMxEzARBgNVBAgMCkNhbGlmb3JuaWExFjAUBgNVBAcMDVNh
biBGcmFuY2lzY28xIDAeBgNVBAoMF0NvcHlsZWZ0IENlcnRpZmljYXRlIENvMR8w
HQYDVQQLDBZNeSBPcmdhbml6YXRpb25hbCBVbml0MREwDwYDVQQDDAhDaGFuZ2VN
ZTEdMBsGCSqGSIb3DQEJARYObWVAZXhhbXBsZS5uZXQwHhcNMjMxMTExMDE0NTE0
WhcNMjQxMTEwMDE0NTE0WjCBuzELMAkGA1UEBhMCVVMxCzAJBgNVBAgMAk9IMRMw
EQYDVQQHDApDaW5jaW5uYXRpMSEwHwYDVQQKDBhVbml2ZXJzaXR5IG9mIENpbmNp
bm5hdGkxKjAoBgNVBAsMIURlcHQuIEVsZWMuIENvbXAuIEVuZy4gQ29tcC4gU2Np
LjERMA8GA1UEAwwIY2xpZW50ODMxKDAmBgkqhkiG9w0BCQEWGWZyYW5jb0BnYXVz
cy5lY2Vjcy51Yy5lZHUwggEiMA0GCSqGSIb3DQEBAQUAA4IBDwAwggEKAoIBAQCl
7VMGZLQpZ4qiWwGRmw5KffWWdHrcEtZ6VcZptagkOuTBBB8hH3KlQT/QWVgo8Eh4
aoxL1l3+jMJCAxKlsF2ude4v/Jg2V2GA07++5qaKIzZ/kbQ7NaNo3OQrJY3+6Iu1
EXnpDqB7wfEhjth87y0fMTqD20/OqN02oTgEcgw4KavgoqFaxXq6d41sFDFVJnCj
/CL6qBM8m00fAoSHUMJEaRJrGlp87m5iFaqiZWJNonZ23Ts6f89+TY4dis6XdQNi
aUBr8XhNnFNrSoHPaWZefJYSe88wJlFntVftS1eTJZCha9PJ2GNCcuh5Mv9CCzF9
+bjpacRS5kjJgZhUbiCVAgMBAAGjggE3MIIBMzAJBgNVHRMEAjAAMB0GA1UdDgQW
BBSuplp9jBFPlql9Js5Kqn7o3iEkiTCB5AYDVR0jBIHcMIHZgBRz3qBDD66xnuhZ
aRhQoRof1KHj8KGBtaSBsjCBrzELMAkGA1UEBhMCVVMxEzARBgNVBAgMCkNhbGlm
b3JuaWExFjAUBgNVBAcMDVNhbiBGcmFuY2lzY28xIDAeBgNVBAoMF0NvcHlsZWZ0
IENlcnRpZmljYXRlIENvMR8wHQYDVQQLDBZNeSBPcmdhbml6YXRpb25hbCBVbml0
MREwDwYDVQQDDAhDaGFuZ2VNZTEdMBsGCSqGSIb3DQEJARYObWVAZXhhbXBsZS5u
ZXSCCQDpu8sWxTK+OzATBgNVHSUEDDAKBggrBgEFBQcDAjALBgNVHQ8EBAMCB4Aw
DQYJKoZIhvcNAQELBQADggEBAEptMB4Jgi7qi97VN0IcUZYFeeNBMwTn5XULLWH6
eN6csyq8DeWJiX1zmadHYR0k1abZLBJvXrOJmYWjy3pecc2Z33MJeb+ZmnFNKF14
Ne8J66hnB2lbvGvIpM6Rc8imf3B9wb24fqULw+edPTF8v92gOm6Cr5W5UAWkaTt/
S1SeRD3hhgQHIReAbT+xgfhbfs4FWSXDFp+wTAGyXXXY9fJdOCZTDXFHpBwcORWh
RIMI37Oj56pw/oZF706gw9QuGw7DDeyqMYLftGtc1FoyKaLOKTUMi1d/TyIxAbQZ
PymZMmdQHjIq4zNEo1wq0Am1f2p0aj2QgShLBJ9GWWISAuY=
-----END CERTIFICATE-----
