Certificate:
    Data:
        Version: 3 (0x2)
        Serial Number:
            bd:a4:ea:a9:d3:c3:10:71:73:b5:f9:97:8a:95:0c:51
    Signature Algorithm: sha256WithRSAEncryption
        Issuer: C=US, ST=California, L=San Francisco, O=Copyleft Certificate Co, OU=My Organizational Unit, CN=ChangeMe/emailAddress=me@example.net
        Validity
            Not Before: Nov 13 11:49:26 2023 GMT
            Not After : Nov 12 11:49:26 2024 GMT
        Subject: C=US, ST=OH, L=Cincinnati, O=University of Cincinnati, OU=Dept. Elec. Comp. Eng. Comp. Sci., CN=client45/emailAddress=franco@gauss.ececs.uc.edu
        Subject Public Key Info:
            Public Key Algorithm: rsaEncryption
                Public-Key: (2048 bit)
                Modulus:
                    00:b2:5e:4a:48:44:ad:58:52:96:0e:9b:52:4d:5b:
                    04:15:62:ee:a9:c3:73:65:e1:55:aa:14:60:08:d5:
                    1e:ab:cc:07:ba:e9:13:0b:96:48:d2:de:be:11:bd:
                    9a:bc:30:24:b3:03:ba:51:f0:1c:bc:86:6a:33:76:
                    b5:d4:81:ba:97:94:3b:6b:96:dd:f0:6e:4b:99:52:
                    5c:de:d9:10:0d:ff:19:f9:41:d6:51:38:89:51:a6:
                    2b:34:64:6b:30:78:d8:c3:20:78:76:8a:27:80:dd:
                    7e:73:fd:6e:1b:ba:4e:87:7f:ef:78:0a:e1:6f:11:
                    0e:6f:cc:14:79:d3:fb:ae:29:be:fc:97:c9:b5:07:
                    e5:5b:f9:92:66:8a:e3:7e:47:ff:f8:c1:d1:9e:1f:
                    2c:d1:d8:7b:3b:15:7c:87:d9:5f:f9:2c:fc:06:58:
                    57:39:3e:6a:c4:17:a4:f1:f6:cf:10:28:e2:e0:10:
                    2e:d6:f1:b7:42:de:f9:d3:3e:0c:8c:7c:85:f8:56:
                    bc:ae:b6:f3:96:87:6c:af:4a:e1:c0:d5:4e:8a:7c:
                    d2:1e:a9:8b:f9:78:fb:7c:4f:8b:d8:ff:c6:2a:53:
                    1b:dd:c2:ae:d7:fc:3d:69:c6:29:25:16:43:e3:42:
                    18:cd:4c:bc:16:09:77:ac:33:f9:da:60:b8:71:dc:
                    63:5f
                Exponent: 65537 (0x10001)
        X509v3 extensions:
            X509v3 Basic Constraints: 
                CA:FALSE
            X509v3 Subject Key Identifier: 
                C2:BB:D0:87:11:AF:FE:54:2F:00:6F:F6:53:D8:43:FC:26:D9:F4:10
            X509v3 Authority Key Identifier: 
                keyid:B4:AE:AB:ED:FC:ED:84:AA:AD:77:5D:7C:84:28:1C:CA:CE:AE:2A:44
                DirName:/C=US/ST=California/L=San Francisco/O=Copyleft Certificate Co/OU=My Organizational Unit/CN=ChangeMe/emailAddress=me@example.net
                serial:BD:6C:3B:F4:D3:07:C9:D1

            X509v3 Extended Key Usage: 
                TLS Web Client Authentication
            X509v3 Key Usage: 
                Digital Signature
    Signature Algorithm: sha256WithRSAEncryption
         99:8e:6c:74:57:6c:bf:b9:16:4d:d0:cf:9a:0e:ce:e0:72:ed:
         e3:aa:5d:41:13:9c:c0:36:b5:a8:2e:4d:1c:01:68:d2:4a:f4:
         60:26:f6:90:e3:e8:61:11:2e:9f:8f:1a:00:e7:d2:85:52:90:
         77:96:17:5d:ea:5b:aa:60:d9:5d:2b:67:ee:16:43:e6:99:03:
         13:1e:9b:28:d3:ca:1c:cd:75:82:39:59:48:35:37:72:0a:6d:
         2c:b4:09:48:23:e9:c8:96:04:15:78:3f:b4:74:ac:76:e7:51:
         36:17:d6:fd:43:2f:c2:fa:bd:99:6a:ee:2a:86:d9:2f:ed:b5:
         71:c9:17:c8:ae:a2:d0:da:63:6b:46:eb:f1:00:82:5b:db:90:
         99:37:c0:5c:0e:b9:a8:18:99:ba:74:b1:84:38:3f:2c:cc:a8:
         17:83:0f:73:63:8e:d8:61:ea:09:66:4c:b9:c5:35:73:ea:e5:
         17:86:c7:44:e0:d9:f6:32:5b:e6:c8:3a:f4:c0:6f:c4:c6:d0:
         6b:4f:bf:7f:db:aa:23:97:45:bf:97:73:f1:8b:79:dd:fc:01:
         2b:19:74:51:e7:75:f8:30:6c:ff:2f:06:b5:e7:a4:9d:cf:95:
         0f:13:6e:fa:8a:ec:dc:4f:fb:ad:77:69:3c:20:0c:9d:92:58:
         cc:38:72:ac
-----BEGIN CERTIFICATE-----
MIIFMDCCBBigAwIBAgIRAL2k6qnTwxBxc7X5l4qVDFEwDQYJKoZIhvcNAQELBQAw
ga8xCzAJBgNVBAYTAlVTMRMwEQYDVQQIDApDYWxpZm9ybmlhMRYwFAYDVQQHDA1T
YW4gRnJhbmNpc2NvMSAwHgYDVQQKDBdDb3B5bGVmdCBDZXJ0aWZpY2F0ZSBDbzEf
MB0GA1UECwwWTXkgT3JnYW5pemF0aW9uYWwgVW5pdDERMA8GA1UEAwwIQ2hhbmdl
TWUxHTAbBgkqhkiG9w0BCQEWDm1lQGV4YW1wbGUubmV0MB4XDTIzMTExMzExNDky
NloXDTI0MTExMjExNDkyNlowgbsxCzAJBgNVBAYTAlVTMQswCQYDVQQIDAJPSDET
MBEGA1UEBwwKQ2luY2lubmF0aTEhMB8GA1UECgwYVW5pdmVyc2l0eSBvZiBDaW5j
aW5uYXRpMSowKAYDVQQLDCFEZXB0LiBFbGVjLiBDb21wLiBFbmcuIENvbXAuIFNj
aS4xETAPBgNVBAMMCGNsaWVudDQ1MSgwJgYJKoZIhvcNAQkBFhlmcmFuY29AZ2F1
c3MuZWNlY3MudWMuZWR1MIIBIjANBgkqhkiG9w0BAQEFAAOCAQ8AMIIBCgKCAQEA
sl5KSEStWFKWDptSTVsEFWLuqcNzZeFVqhRgCNUeq8wHuukTC5ZI0t6+Eb2avDAk
swO6UfAcvIZqM3a11IG6l5Q7a5bd8G5LmVJc3tkQDf8Z+UHWUTiJUaYrNGRrMHjY
wyB4doongN1+c/1uG7pOh3/veArhbxEOb8wUedP7rim+/JfJtQflW/mSZorjfkf/
+MHRnh8s0dh7OxV8h9lf+Sz8BlhXOT5qxBek8fbPECji4BAu1vG3Qt750z4MjHyF
+Fa8rrbzlodsr0rhwNVOinzSHqmL+Xj7fE+L2P/GKlMb3cKu1/w9acYpJRZD40IY
zUy8Fgl3rDP52mC4cdxjXwIDAQABo4IBNzCCATMwCQYDVR0TBAIwADAdBgNVHQ4E
FgQUwrvQhxGv/lQvAG/2U9hD/CbZ9BAwgeQGA1UdIwSB3DCB2YAUtK6r7fzthKqt
d118hCgcys6uKkShgbWkgbIwga8xCzAJBgNVBAYTAlVTMRMwEQYDVQQIDApDYWxp
Zm9ybmlhMRYwFAYDVQQHDA1TYW4gRnJhbmNpc2NvMSAwHgYDVQQKDBdDb3B5bGVm
dCBDZXJ0aWZpY2F0ZSBDbzEfMB0GA1UECwwWTXkgT3JnYW5pemF0aW9uYWwgVW5p
dDERMA8GA1UEAwwIQ2hhbmdlTWUxHTAbBgkqhkiG9w0BCQEWDm1lQGV4YW1wbGUu
bmV0ggkAvWw79NMHydEwEwYDVR0lBAwwCgYIKwYBBQUHAwIwCwYDVR0PBAQDAgeA
MA0GCSqGSIb3DQEBCwUAA4IBAQCZjmx0V2y/uRZN0M+aDs7gcu3jql1BE5zANrWo
Lk0cAWjSSvRgJvaQ4+hhES6fjxoA59KFUpB3lhdd6luqYNldK2fuFkPmmQMTHpso
08oczXWCOVlINTdyCm0stAlII+nIlgQVeD+0dKx251E2F9b9Qy/C+r2Zau4qhtkv
7bVxyRfIrqLQ2mNrRuvxAIJb25CZN8BcDrmoGJm6dLGEOD8szKgXgw9zY47YYeoJ
Zky5xTVz6uUXhsdE4Nn2MlvmyDr0wG/ExtBrT79/26ojl0W/l3Pxi3nd/AErGXRR
53X4MGz/Lwa156Sdz5UPE276iuzcT/utd2k8IAydkljMOHKs
-----END CERTIFICATE-----
