Certificate:
    Data:
        Version: 3 (0x2)
        Serial Number:
            c5:14:06:7e:b4:12:c8:83:c9:b2:32:d3:b5:cd:f8:f4
    Signature Algorithm: sha256WithRSAEncryption
        Issuer: C=US, ST=California, L=San Francisco, O=Copyleft Certificate Co, OU=My Organizational Unit, CN=ChangeMe/emailAddress=me@example.net
        Validity
            Not Before: Nov 10 17:47:26 2023 GMT
            Not After : Nov  9 17:47:26 2024 GMT
        Subject: C=US, ST=OH, L=Cincinnati, O=University of Cincinnati, OU=Dept_Elec_Com_ Eng_Com_Sci., CN=client135/emailAddress=franco@gauss.ececs.uc.edu
        Subject Public Key Info:
            Public Key Algorithm: rsaEncryption
                Public-Key: (2048 bit)
                Modulus:
                    00:f7:66:ab:43:20:b9:13:61:38:81:ee:9d:77:f4:
                    03:c9:1f:44:f5:fb:2f:0f:73:fd:d2:21:b0:20:85:
                    e2:f7:2a:97:14:3b:65:43:93:c2:8f:9b:af:c9:99:
                    13:10:b9:7a:8d:50:7b:88:50:88:0d:82:99:9e:90:
                    0e:b5:96:48:3c:b7:4e:4d:61:f5:fb:49:f7:8c:9a:
                    9d:4d:09:54:e5:5d:cd:bb:23:a7:67:2f:07:f9:e7:
                    b8:1e:a6:3f:97:a8:1f:da:56:3c:ee:32:34:38:e7:
                    21:74:df:11:c0:56:ae:b5:53:44:ee:ce:54:07:11:
                    12:47:f9:fa:d1:b9:08:b0:32:92:6c:4c:34:4d:fa:
                    69:cf:68:a5:a3:1a:45:88:51:13:d4:e8:ca:b1:de:
                    be:21:28:39:1b:a3:19:6b:89:c4:e5:5b:d0:d6:2f:
                    6a:ce:e4:f0:18:98:a4:07:35:d5:83:49:ac:1c:53:
                    4f:37:7f:ac:6d:8d:d3:d4:80:0f:59:11:e3:30:9f:
                    87:59:b4:98:7d:86:b8:50:7b:98:dd:44:55:ba:0c:
                    a0:90:3c:b4:c6:34:5d:00:d4:c8:71:df:9b:ca:5d:
                    1a:bd:84:18:3d:0f:d6:d5:dc:f2:f5:8c:ce:b3:67:
                    09:d3:3b:ce:4e:15:cf:61:7b:c7:7f:14:08:93:82:
                    23:ff
                Exponent: 65537 (0x10001)
        X509v3 extensions:
            X509v3 Basic Constraints: 
                CA:FALSE
            X509v3 Subject Key Identifier: 
                42:06:2F:F0:77:0A:DE:D5:E5:B1:3A:94:12:3E:0B:15:58:29:E5:46
            X509v3 Authority Key Identifier: 
                keyid:C8:27:DA:64:30:08:40:08:4A:25:CC:DC:43:99:DE:77:A1:FE:77:BD
                DirName:/C=US/ST=California/L=San Francisco/O=Copyleft Certificate Co/OU=My Organizational Unit/CN=ChangeMe/emailAddress=me@example.net
                serial:A9:48:C3:7E:FC:1B:B0:A1

            X509v3 Extended Key Usage: 
                TLS Web Client Authentication
            X509v3 Key Usage: 
                Digital Signature
    Signature Algorithm: sha256WithRSAEncryption
         3b:15:6d:e7:53:dc:72:81:9d:c8:2e:30:80:bb:5f:8d:40:21:
         37:a4:b5:95:ed:95:ac:7d:e1:6a:c6:cb:25:78:28:d5:fe:cf:
         e8:b5:e0:ff:b2:64:01:89:1b:ad:47:ad:e4:a5:e8:d2:52:44:
         43:f8:92:d4:13:be:bb:46:3f:17:32:c9:ef:b2:7e:1f:48:98:
         0d:b1:d8:d1:18:64:6c:12:8a:17:d4:ec:58:77:be:88:27:8b:
         cb:22:e2:8f:d9:83:ac:77:d4:07:2c:c7:aa:30:7e:bc:d2:f3:
         67:e6:12:84:98:1e:1e:e9:56:ee:27:8a:7b:4b:ea:27:49:0e:
         0b:70:1a:f3:6f:90:91:e1:8f:27:5b:35:71:81:05:0b:d1:32:
         f3:f9:91:df:29:ab:86:cd:3c:12:0c:48:70:1f:ac:13:7c:c1:
         69:95:5b:8a:a6:4e:67:c3:e0:1e:24:04:55:0f:99:01:31:eb:
         a9:39:9b:dc:79:72:24:26:b5:af:5e:21:1d:50:a0:bd:8c:62:
         d8:a2:e5:90:0f:f0:14:d6:5b:87:94:82:07:27:5c:67:44:94:
         99:bc:25:18:20:56:58:57:a4:84:f7:cc:a2:1a:4b:29:6d:63:
         64:41:28:3c:fc:a3:5d:92:d1:1f:92:ce:8c:17:eb:a5:6e:76:
         5a:1f:e8:2b
-----BEGIN CERTIFICATE-----
MIIFKzCCBBOgAwIBAgIRAMUUBn60EsiDybIy07XN+PQwDQYJKoZIhvcNAQELBQAw
ga8xCzAJBgNVBAYTAlVTMRMwEQYDVQQIDApDYWxpZm9ybmlhMRYwFAYDVQQHDA1T
YW4gRnJhbmNpc2NvMSAwHgYDVQQKDBdDb3B5bGVmdCBDZXJ0aWZpY2F0ZSBDbzEf
MB0GA1UECwwWTXkgT3JnYW5pemF0aW9uYWwgVW5pdDERMA8GA1UEAwwIQ2hhbmdl
TWUxHTAbBgkqhkiG9w0BCQEWDm1lQGV4YW1wbGUubmV0MB4XDTIzMTExMDE3NDcy
NloXDTI0MTEwOTE3NDcyNlowgbYxCzAJBgNVBAYTAlVTMQswCQYDVQQIDAJPSDET
MBEGA1UEBwwKQ2luY2lubmF0aTEhMB8GA1UECgwYVW5pdmVyc2l0eSBvZiBDaW5j
aW5uYXRpMSQwIgYDVQQLDBtEZXB0X0VsZWNfQ29tXyBFbmdfQ29tX1NjaS4xEjAQ
BgNVBAMMCWNsaWVudDEzNTEoMCYGCSqGSIb3DQEJARYZZnJhbmNvQGdhdXNzLmVj
ZWNzLnVjLmVkdTCCASIwDQYJKoZIhvcNAQEBBQADggEPADCCAQoCggEBAPdmq0Mg
uRNhOIHunXf0A8kfRPX7Lw9z/dIhsCCF4vcqlxQ7ZUOTwo+br8mZExC5eo1Qe4hQ
iA2CmZ6QDrWWSDy3Tk1h9ftJ94yanU0JVOVdzbsjp2cvB/nnuB6mP5eoH9pWPO4y
NDjnIXTfEcBWrrVTRO7OVAcREkf5+tG5CLAykmxMNE36ac9opaMaRYhRE9ToyrHe
viEoORujGWuJxOVb0NYvas7k8BiYpAc11YNJrBxTTzd/rG2N09SAD1kR4zCfh1m0
mH2GuFB7mN1EVboMoJA8tMY0XQDUyHHfm8pdGr2EGD0P1tXc8vWMzrNnCdM7zk4V
z2F7x38UCJOCI/8CAwEAAaOCATcwggEzMAkGA1UdEwQCMAAwHQYDVR0OBBYEFEIG
L/B3Ct7V5bE6lBI+CxVYKeVGMIHkBgNVHSMEgdwwgdmAFMgn2mQwCEAISiXM3EOZ
3neh/ne9oYG1pIGyMIGvMQswCQYDVQQGEwJVUzETMBEGA1UECAwKQ2FsaWZvcm5p
YTEWMBQGA1UEBwwNU2FuIEZyYW5jaXNjbzEgMB4GA1UECgwXQ29weWxlZnQgQ2Vy
dGlmaWNhdGUgQ28xHzAdBgNVBAsMFk15IE9yZ2FuaXphdGlvbmFsIFVuaXQxETAP
BgNVBAMMCENoYW5nZU1lMR0wGwYJKoZIhvcNAQkBFg5tZUBleGFtcGxlLm5ldIIJ
AKlIw378G7ChMBMGA1UdJQQMMAoGCCsGAQUFBwMCMAsGA1UdDwQEAwIHgDANBgkq
hkiG9w0BAQsFAAOCAQEAOxVt51PccoGdyC4wgLtfjUAhN6S1le2VrH3hasbLJXgo
1f7P6LXg/7JkAYkbrUet5KXo0lJEQ/iS1BO+u0Y/FzLJ77J+H0iYDbHY0RhkbBKK
F9TsWHe+iCeLyyLij9mDrHfUByzHqjB+vNLzZ+YShJgeHulW7ieKe0vqJ0kOC3Aa
82+QkeGPJ1s1cYEFC9Ey8/mR3ymrhs08EgxIcB+sE3zBaZVbiqZOZ8PgHiQEVQ+Z
ATHrqTmb3HlyJCa1r14hHVCgvYxi2KLlkA/wFNZbh5SCBydcZ0SUmbwlGCBWWFek
hPfMohpLKW1jZEEoPPyjXZLRH5LOjBfrpW52Wh/oKw==
-----END CERTIFICATE-----
