Certificate:
    Data:
        Version: 3 (0x2)
        Serial Number:
            8a:51:3d:ae:f4:62:ff:ed:1e:9b:9f:40:63:55:bd:86
    Signature Algorithm: sha256WithRSAEncryption
        Issuer: C=US, ST=California, L=San Francisco, O=Copyleft Certificate Co, OU=My Organizational Unit, CN=ChangeMe/emailAddress=me@example.net
        Validity
            Not Before: Nov 13 11:48:30 2023 GMT
            Not After : Nov 12 11:48:30 2024 GMT
        Subject: C=US, ST=OH, L=Cincinnati, O=University of Cincinnati, OU=Dept. Elec. Comp. Eng. Comp. Sci., CN=client31/emailAddress=franco@gauss.ececs.uc.edu
        Subject Public Key Info:
            Public Key Algorithm: rsaEncryption
                Public-Key: (2048 bit)
                Modulus:
                    00:db:7f:2b:aa:a9:60:58:fc:8a:96:95:80:dc:ee:
                    e6:a0:7f:21:38:32:0e:b2:68:8c:02:bf:6d:90:53:
                    50:f0:47:6a:28:48:de:6f:5b:d3:be:ea:ce:53:e4:
                    67:10:23:f5:33:9e:9e:09:85:36:7a:08:1a:0d:ac:
                    70:54:42:73:d2:66:82:fe:ee:0b:99:95:71:28:ff:
                    a7:89:3e:07:02:37:4a:18:ed:d7:dc:2c:6a:1c:fb:
                    c1:b0:88:93:61:14:6b:c8:c6:a5:c8:81:51:65:6b:
                    f1:81:62:c5:31:25:1a:0d:fa:10:fe:0a:4d:a8:bd:
                    30:77:55:45:1e:41:08:35:24:78:0e:94:1e:30:76:
                    8e:11:4b:62:a9:52:ae:cb:b8:d1:88:8d:b0:ad:29:
                    46:99:17:f4:ca:67:d3:e2:9b:f6:23:8f:04:31:7b:
                    cd:e5:3c:f2:14:a0:ea:56:bf:7b:31:50:3f:f4:2c:
                    5d:ad:d4:01:de:47:82:4f:ba:a5:40:04:9c:8f:e3:
                    d5:c2:15:86:d2:dd:0e:3e:86:60:b1:00:b6:b2:4c:
                    fe:8a:df:db:2e:ea:f4:99:69:24:e7:6a:a7:39:fe:
                    77:94:30:1d:1f:99:da:e7:60:38:cb:e2:2a:7c:db:
                    99:15:6a:fa:77:8e:ca:7a:46:2d:2b:15:ff:e3:89:
                    2d:45
                Exponent: 65537 (0x10001)
        X509v3 extensions:
            X509v3 Basic Constraints: 
                CA:FALSE
            X509v3 Subject Key Identifier: 
                5B:1D:69:B3:D5:81:77:5D:F7:A6:D2:21:08:E3:70:33:BD:9C:75:34
            X509v3 Authority Key Identifier: 
                keyid:B4:AE:AB:ED:FC:ED:84:AA:AD:77:5D:7C:84:28:1C:CA:CE:AE:2A:44
                DirName:/C=US/ST=California/L=San Francisco/O=Copyleft Certificate Co/OU=My Organizational Unit/CN=ChangeMe/emailAddress=me@example.net
                serial:BD:6C:3B:F4:D3:07:C9:D1

            X509v3 Extended Key Usage: 
                TLS Web Client Authentication
            X509v3 Key Usage: 
                Digital Signature
    Signature Algorithm: sha256WithRSAEncryption
         ac:62:40:d4:79:c1:43:05:2b:0e:3a:77:5b:0a:de:6d:f7:5b:
         17:b2:7b:ff:40:a0:12:9a:8d:fa:be:eb:a4:3f:4c:c3:4c:07:
         dd:bf:20:54:4f:4c:e9:44:46:ac:32:33:74:22:61:3a:4e:22:
         26:74:c0:60:2e:5f:fb:73:e8:e5:14:28:29:75:3c:4c:e6:ed:
         bb:3d:9a:94:5c:3d:61:27:ee:8d:e0:e0:1b:16:c5:9a:ee:69:
         ac:9a:59:d3:f4:7e:40:3c:ad:f0:5f:2e:98:ee:5e:08:42:9a:
         c2:54:8c:bc:0c:66:51:42:af:79:02:43:63:db:30:9e:62:01:
         cc:0f:e8:8a:6c:71:ef:bc:cb:18:f0:34:51:46:42:63:53:1e:
         5c:50:1e:d8:17:42:e6:98:fc:46:a3:81:5b:fc:03:dc:4e:57:
         1b:5b:6d:c1:63:a6:5e:4a:4e:8b:30:49:ba:e2:0d:74:5a:73:
         05:31:3a:a1:83:ed:3b:dd:88:47:07:88:c7:eb:f3:63:31:3b:
         46:d7:3f:ea:4a:96:9a:0b:5e:6d:38:18:6a:ae:24:99:d6:20:
         0a:18:5e:29:47:f7:36:61:04:0d:34:a1:cb:f0:02:e6:17:1b:
         58:92:cb:3f:41:b3:d3:01:df:ac:a0:38:45:d0:3d:cd:f2:64:
         68:80:0a:5e
-----BEGIN CERTIFICATE-----
MIIFMDCCBBigAwIBAgIRAIpRPa70Yv/tHpufQGNVvYYwDQYJKoZIhvcNAQELBQAw
ga8xCzAJBgNVBAYTAlVTMRMwEQYDVQQIDApDYWxpZm9ybmlhMRYwFAYDVQQHDA1T
YW4gRnJhbmNpc2NvMSAwHgYDVQQKDBdDb3B5bGVmdCBDZXJ0aWZpY2F0ZSBDbzEf
MB0GA1UECwwWTXkgT3JnYW5pemF0aW9uYWwgVW5pdDERMA8GA1UEAwwIQ2hhbmdl
TWUxHTAbBgkqhkiG9w0BCQEWDm1lQGV4YW1wbGUubmV0MB4XDTIzMTExMzExNDgz
MFoXDTI0MTExMjExNDgzMFowgbsxCzAJBgNVBAYTAlVTMQswCQYDVQQIDAJPSDET
MBEGA1UEBwwKQ2luY2lubmF0aTEhMB8GA1UECgwYVW5pdmVyc2l0eSBvZiBDaW5j
aW5uYXRpMSowKAYDVQQLDCFEZXB0LiBFbGVjLiBDb21wLiBFbmcuIENvbXAuIFNj
aS4xETAPBgNVBAMMCGNsaWVudDMxMSgwJgYJKoZIhvcNAQkBFhlmcmFuY29AZ2F1
c3MuZWNlY3MudWMuZWR1MIIBIjANBgkqhkiG9w0BAQEFAAOCAQ8AMIIBCgKCAQEA
238rqqlgWPyKlpWA3O7moH8hODIOsmiMAr9tkFNQ8EdqKEjeb1vTvurOU+RnECP1
M56eCYU2eggaDaxwVEJz0maC/u4LmZVxKP+niT4HAjdKGO3X3CxqHPvBsIiTYRRr
yMalyIFRZWvxgWLFMSUaDfoQ/gpNqL0wd1VFHkEINSR4DpQeMHaOEUtiqVKuy7jR
iI2wrSlGmRf0ymfT4pv2I48EMXvN5TzyFKDqVr97MVA/9CxdrdQB3keCT7qlQASc
j+PVwhWG0t0OPoZgsQC2skz+it/bLur0mWkk52qnOf53lDAdH5na52A4y+IqfNuZ
FWr6d47KekYtKxX/44ktRQIDAQABo4IBNzCCATMwCQYDVR0TBAIwADAdBgNVHQ4E
FgQUWx1ps9WBd133ptIhCONwM72cdTQwgeQGA1UdIwSB3DCB2YAUtK6r7fzthKqt
d118hCgcys6uKkShgbWkgbIwga8xCzAJBgNVBAYTAlVTMRMwEQYDVQQIDApDYWxp
Zm9ybmlhMRYwFAYDVQQHDA1TYW4gRnJhbmNpc2NvMSAwHgYDVQQKDBdDb3B5bGVm
dCBDZXJ0aWZpY2F0ZSBDbzEfMB0GA1UECwwWTXkgT3JnYW5pemF0aW9uYWwgVW5p
dDERMA8GA1UEAwwIQ2hhbmdlTWUxHTAbBgkqhkiG9w0BCQEWDm1lQGV4YW1wbGUu
bmV0ggkAvWw79NMHydEwEwYDVR0lBAwwCgYIKwYBBQUHAwIwCwYDVR0PBAQDAgeA
MA0GCSqGSIb3DQEBCwUAA4IBAQCsYkDUecFDBSsOOndbCt5t91sXsnv/QKASmo36
vuukP0zDTAfdvyBUT0zpREasMjN0ImE6TiImdMBgLl/7c+jlFCgpdTxM5u27PZqU
XD1hJ+6N4OAbFsWa7mmsmlnT9H5APK3wXy6Y7l4IQprCVIy8DGZRQq95AkNj2zCe
YgHMD+iKbHHvvMsY8DRRRkJjUx5cUB7YF0LmmPxGo4Fb/APcTlcbW23BY6ZeSk6L
MEm64g10WnMFMTqhg+073YhHB4jH6/NjMTtG1z/qSpaaC15tOBhqriSZ1iAKGF4p
R/c2YQQNNKHL8ALmFxtYkss/QbPTAd+soDhF0D3N8mRogApe
-----END CERTIFICATE-----
