Certificate:
    Data:
        Version: 3 (0x2)
        Serial Number:
            b6:00:b0:2f:f7:68:ec:d2:74:37:5b:a0:68:69:f4:8a
    Signature Algorithm: sha256WithRSAEncryption
        Issuer: C=US, ST=California, L=San Francisco, O=Copyleft Certificate Co, OU=My Organizational Unit, CN=ChangeMe/emailAddress=me@example.net
        Validity
            Not Before: Nov 12 11:48:39 2023 GMT
            Not After : Nov 11 11:48:39 2024 GMT
        Subject: C=US, ST=OH, L=Cincinnati, O=University of Cincinnati, OU=Dept. Elec. Comp. Eng. Comp. Sci., CN=client36/emailAddress=franco@gauss.ececs.uc.edu
        Subject Public Key Info:
            Public Key Algorithm: rsaEncryption
                Public-Key: (2048 bit)
                Modulus:
                    00:c2:89:3b:7c:b6:64:fc:9d:f6:e4:71:54:cf:11:
                    8c:d9:b6:bf:a8:85:a4:23:72:9e:9e:d1:cb:fe:ae:
                    bc:e7:47:a5:5e:b0:0f:42:a1:36:18:8b:d6:9d:43:
                    10:c6:de:fe:07:e6:ec:b9:90:b0:d9:96:97:47:b2:
                    3b:1b:84:ee:8f:b6:9e:70:c8:2d:c5:a5:15:ee:01:
                    a3:f8:1e:d9:6d:03:c2:57:04:b3:02:6d:15:76:eb:
                    fb:b3:37:fc:04:b1:65:63:ed:01:b5:a7:f7:e9:dd:
                    c3:a0:1a:88:ff:6d:20:f4:6d:54:c0:7c:c7:a9:8b:
                    f9:eb:21:c8:9a:a5:39:a3:b4:af:ed:7e:0c:b2:40:
                    e6:37:38:c0:8c:d5:0f:1f:4f:77:eb:2d:0a:04:b3:
                    fa:8a:d7:e2:83:25:e2:d7:9a:59:3a:87:dc:d2:cf:
                    79:2d:6d:27:2b:c1:04:c8:8c:68:76:c5:13:af:d8:
                    b0:f9:54:cb:d2:96:4c:d2:a0:07:8a:45:5f:95:70:
                    7e:d1:db:69:0c:fe:a9:f3:f0:8b:fa:53:96:ee:7f:
                    74:f7:58:c7:28:c6:d7:06:a5:53:0e:45:95:ae:1e:
                    2e:58:2e:9c:3c:cb:f4:c0:95:95:5f:3f:3d:2a:40:
                    91:a4:97:51:6c:ee:cb:7c:01:37:a9:20:5e:65:88:
                    34:df
                Exponent: 65537 (0x10001)
        X509v3 extensions:
            X509v3 Basic Constraints: 
                CA:FALSE
            X509v3 Subject Key Identifier: 
                58:1C:75:AE:F6:F2:8A:18:02:7E:A3:68:ED:E9:EC:1C:D4:E7:0C:11
            X509v3 Authority Key Identifier: 
                keyid:C4:46:F2:96:38:56:02:B8:9D:09:04:52:25:91:35:97:6A:D7:B1:F0
                DirName:/C=US/ST=California/L=San Francisco/O=Copyleft Certificate Co/OU=My Organizational Unit/CN=ChangeMe/emailAddress=me@example.net
                serial:D1:5A:15:1C:F0:20:95:62

            X509v3 Extended Key Usage: 
                TLS Web Client Authentication
            X509v3 Key Usage: 
                Digital Signature
    Signature Algorithm: sha256WithRSAEncryption
         be:59:76:1e:c8:26:41:be:00:ab:e6:80:45:73:e5:72:9d:16:
         a8:ba:3b:57:37:8f:93:01:85:90:33:fc:eb:3f:b5:7d:bf:65:
         4d:a2:6d:88:c9:dc:09:59:38:7a:4c:13:fe:50:18:0a:8c:e9:
         26:ac:40:76:22:e4:3e:c0:10:a3:91:2b:3d:fe:58:6d:ef:33:
         d8:6a:28:f2:66:35:36:c6:cb:df:0b:7a:50:bd:9b:d9:45:38:
         2d:ec:de:47:6f:6d:db:64:34:88:f2:79:ab:4b:97:2f:81:07:
         6e:2f:50:3b:54:fb:b0:f6:5f:1d:4d:b0:c9:5d:d4:67:78:ac:
         2b:c5:9a:0c:5d:cc:5b:d8:e9:11:ab:fd:58:79:02:f1:b1:d3:
         6d:8d:00:fe:46:c8:ea:e6:b4:a3:aa:f6:78:5e:ef:14:64:ce:
         39:1e:f2:b1:ed:20:7f:89:ac:b2:1f:fc:b8:f2:9f:88:5e:dc:
         fc:23:92:e5:0e:6f:5e:8b:5e:76:e6:3a:79:9e:48:f9:de:ac:
         8b:66:78:ce:a8:58:b9:2b:65:33:5f:fe:8c:9c:3a:81:47:33:
         f8:0b:47:dd:b3:5f:63:5a:d6:72:c6:f7:f1:eb:08:e3:43:82:
         8a:17:61:f7:29:72:6a:8a:94:f0:71:fc:14:6f:73:a2:6b:44:
         59:27:ff:4a
-----BEGIN CERTIFICATE-----
MIIFMDCCBBigAwIBAgIRALYAsC/3aOzSdDdboGhp9IowDQYJKoZIhvcNAQELBQAw
ga8xCzAJBgNVBAYTAlVTMRMwEQYDVQQIDApDYWxpZm9ybmlhMRYwFAYDVQQHDA1T
YW4gRnJhbmNpc2NvMSAwHgYDVQQKDBdDb3B5bGVmdCBDZXJ0aWZpY2F0ZSBDbzEf
MB0GA1UECwwWTXkgT3JnYW5pemF0aW9uYWwgVW5pdDERMA8GA1UEAwwIQ2hhbmdl
TWUxHTAbBgkqhkiG9w0BCQEWDm1lQGV4YW1wbGUubmV0MB4XDTIzMTExMjExNDgz
OVoXDTI0MTExMTExNDgzOVowgbsxCzAJBgNVBAYTAlVTMQswCQYDVQQIDAJPSDET
MBEGA1UEBwwKQ2luY2lubmF0aTEhMB8GA1UECgwYVW5pdmVyc2l0eSBvZiBDaW5j
aW5uYXRpMSowKAYDVQQLDCFEZXB0LiBFbGVjLiBDb21wLiBFbmcuIENvbXAuIFNj
aS4xETAPBgNVBAMMCGNsaWVudDM2MSgwJgYJKoZIhvcNAQkBFhlmcmFuY29AZ2F1
c3MuZWNlY3MudWMuZWR1MIIBIjANBgkqhkiG9w0BAQEFAAOCAQ8AMIIBCgKCAQEA
wok7fLZk/J325HFUzxGM2ba/qIWkI3KentHL/q6850elXrAPQqE2GIvWnUMQxt7+
B+bsuZCw2ZaXR7I7G4Tuj7aecMgtxaUV7gGj+B7ZbQPCVwSzAm0Vduv7szf8BLFl
Y+0Btaf36d3DoBqI/20g9G1UwHzHqYv56yHImqU5o7Sv7X4MskDmNzjAjNUPH093
6y0KBLP6itfigyXi15pZOofc0s95LW0nK8EEyIxodsUTr9iw+VTL0pZM0qAHikVf
lXB+0dtpDP6p8/CL+lOW7n9091jHKMbXBqVTDkWVrh4uWC6cPMv0wJWVXz89KkCR
pJdRbO7LfAE3qSBeZYg03wIDAQABo4IBNzCCATMwCQYDVR0TBAIwADAdBgNVHQ4E
FgQUWBx1rvbyihgCfqNo7ensHNTnDBEwgeQGA1UdIwSB3DCB2YAUxEbyljhWArid
CQRSJZE1l2rXsfChgbWkgbIwga8xCzAJBgNVBAYTAlVTMRMwEQYDVQQIDApDYWxp
Zm9ybmlhMRYwFAYDVQQHDA1TYW4gRnJhbmNpc2NvMSAwHgYDVQQKDBdDb3B5bGVm
dCBDZXJ0aWZpY2F0ZSBDbzEfMB0GA1UECwwWTXkgT3JnYW5pemF0aW9uYWwgVW5p
dDERMA8GA1UEAwwIQ2hhbmdlTWUxHTAbBgkqhkiG9w0BCQEWDm1lQGV4YW1wbGUu
bmV0ggkA0VoVHPAglWIwEwYDVR0lBAwwCgYIKwYBBQUHAwIwCwYDVR0PBAQDAgeA
MA0GCSqGSIb3DQEBCwUAA4IBAQC+WXYeyCZBvgCr5oBFc+VynRaoujtXN4+TAYWQ
M/zrP7V9v2VNom2IydwJWTh6TBP+UBgKjOkmrEB2IuQ+wBCjkSs9/lht7zPYaijy
ZjU2xsvfC3pQvZvZRTgt7N5Hb23bZDSI8nmrS5cvgQduL1A7VPuw9l8dTbDJXdRn
eKwrxZoMXcxb2OkRq/1YeQLxsdNtjQD+Rsjq5rSjqvZ4Xu8UZM45HvKx7SB/iayy
H/y48p+IXtz8I5LlDm9ei1525jp5nkj53qyLZnjOqFi5K2UzX/6MnDqBRzP4C0fd
s19jWtZyxvfx6wjjQ4KKF2H3KXJqipTwcfwUb3Oia0RZJ/9K
-----END CERTIFICATE-----
