Certificate:
    Data:
        Version: 3 (0x2)
        Serial Number:
            c1:85:00:4f:ae:99:9d:9d:b1:da:12:a5:31:96:a8:8b
    Signature Algorithm: sha256WithRSAEncryption
        Issuer: C=US, ST=California, L=San Francisco, O=Copyleft Certificate Co, OU=My Organizational Unit, CN=ChangeMe/emailAddress=me@example.net
        Validity
            Not Before: Nov 11 01:43:09 2023 GMT
            Not After : Nov 10 01:43:09 2024 GMT
        Subject: C=US, ST=OH, L=Cincinnati, O=University of Cincinnati, OU=Dept. Elec. Comp. Eng. Comp. Sci., CN=client52/emailAddress=franco@gauss.ececs.uc.edu
        Subject Public Key Info:
            Public Key Algorithm: rsaEncryption
                Public-Key: (2048 bit)
                Modulus:
                    00:bf:c6:33:c7:51:06:50:06:03:28:79:bc:40:d7:
                    39:b0:a6:27:bb:d9:a1:e9:b0:85:af:16:8e:49:f5:
                    79:5b:69:51:c2:4b:ae:62:e0:da:22:2c:66:04:b8:
                    ad:46:b2:7d:2c:38:ee:fd:1b:33:f7:3f:eb:9d:55:
                    9b:35:a1:fc:51:21:5e:f9:33:4b:e8:13:74:62:af:
                    a6:41:f3:9a:7d:f0:12:0f:01:87:de:7f:5a:84:42:
                    a3:29:99:39:f6:bc:a6:b5:dc:85:40:a7:13:a9:fc:
                    62:0a:a2:cb:dc:92:4a:b2:b0:2a:bc:f3:81:72:e8:
                    7b:96:bf:91:77:fb:7f:0f:4f:7e:9a:ae:79:35:63:
                    96:f7:99:fb:ae:fa:3f:97:a4:b5:08:0b:6a:9c:b8:
                    0f:00:cb:39:2b:58:31:94:0f:9c:36:7a:cb:98:fb:
                    a9:23:94:6d:bb:f7:6a:48:1f:4e:8d:e0:50:e5:0b:
                    9a:5a:98:b0:d5:49:d9:b3:8d:f2:9d:e8:41:8e:e8:
                    b1:39:57:95:af:af:48:29:f4:5d:f6:66:40:a5:04:
                    e8:d7:9d:34:e9:21:79:29:64:d1:89:11:1e:5d:53:
                    af:cf:4c:bd:7e:4a:d5:7d:2d:c2:e7:dd:02:22:48:
                    b0:a4:53:2c:c6:31:7a:04:59:7e:f8:58:8d:49:62:
                    e7:1d
                Exponent: 65537 (0x10001)
        X509v3 extensions:
            X509v3 Basic Constraints: 
                CA:FALSE
            X509v3 Subject Key Identifier: 
                8C:F6:B2:16:6E:18:7B:0B:26:A5:16:33:1F:F1:0F:D6:8C:97:02:57
            X509v3 Authority Key Identifier: 
                keyid:73:DE:A0:43:0F:AE:B1:9E:E8:59:69:18:50:A1:1A:1F:D4:A1:E3:F0
                DirName:/C=US/ST=California/L=San Francisco/O=Copyleft Certificate Co/OU=My Organizational Unit/CN=ChangeMe/emailAddress=me@example.net
                serial:E9:BB:CB:16:C5:32:BE:3B

            X509v3 Extended Key Usage: 
                TLS Web Client Authentication
            X509v3 Key Usage: 
                Digital Signature
    Signature Algorithm: sha256WithRSAEncryption
         58:88:a4:c9:6e:fa:ae:21:13:a5:18:14:67:12:51:31:f1:3a:
         7f:99:bd:fd:38:04:d3:d3:93:09:56:d8:40:d8:af:14:c5:e8:
         f6:e6:fb:1c:16:61:ba:67:b4:0f:51:5a:23:61:a3:37:3a:04:
         67:9e:30:5f:4f:21:fe:90:0a:6c:83:2e:cb:82:8b:bb:21:ae:
         f4:6d:e8:96:24:10:af:ac:5f:86:87:c2:51:1d:8c:d9:01:fe:
         88:a6:95:72:95:12:2b:f2:84:92:2d:81:93:f1:a2:34:ba:50:
         bf:4e:d8:0b:18:05:75:40:1f:e1:7f:fd:2e:35:6b:3a:ba:72:
         05:d3:a7:ba:42:9d:01:75:1e:07:e6:14:2a:12:10:21:c0:f5:
         93:f9:8e:d9:bb:b8:6e:cb:a9:30:8d:a9:69:ce:25:5c:07:cf:
         a6:9a:58:eb:e6:5a:d6:c1:b5:9c:3b:89:cb:e9:af:54:2d:0a:
         13:5f:92:5b:aa:43:b2:4a:28:5f:f2:63:08:61:8d:dc:0e:4e:
         6f:bd:bc:1d:c7:13:92:1f:9c:46:48:d8:ff:49:00:6b:73:63:
         be:dc:72:ef:d3:db:74:8a:2e:8e:81:d6:ea:cb:d5:1c:8a:cb:
         13:35:b1:2d:59:54:27:37:fb:98:9c:78:49:bc:29:99:c1:63:
         b9:b2:8c:7b
-----BEGIN CERTIFICATE-----
MIIFMDCCBBigAwIBAgIRAMGFAE+umZ2dsdoSpTGWqIswDQYJKoZIhvcNAQELBQAw
ga8xCzAJBgNVBAYTAlVTMRMwEQYDVQQIDApDYWxpZm9ybmlhMRYwFAYDVQQHDA1T
YW4gRnJhbmNpc2NvMSAwHgYDVQQKDBdDb3B5bGVmdCBDZXJ0aWZpY2F0ZSBDbzEf
MB0GA1UECwwWTXkgT3JnYW5pemF0aW9uYWwgVW5pdDERMA8GA1UEAwwIQ2hhbmdl
TWUxHTAbBgkqhkiG9w0BCQEWDm1lQGV4YW1wbGUubmV0MB4XDTIzMTExMTAxNDMw
OVoXDTI0MTExMDAxNDMwOVowgbsxCzAJBgNVBAYTAlVTMQswCQYDVQQIDAJPSDET
MBEGA1UEBwwKQ2luY2lubmF0aTEhMB8GA1UECgwYVW5pdmVyc2l0eSBvZiBDaW5j
aW5uYXRpMSowKAYDVQQLDCFEZXB0LiBFbGVjLiBDb21wLiBFbmcuIENvbXAuIFNj
aS4xETAPBgNVBAMMCGNsaWVudDUyMSgwJgYJKoZIhvcNAQkBFhlmcmFuY29AZ2F1
c3MuZWNlY3MudWMuZWR1MIIBIjANBgkqhkiG9w0BAQEFAAOCAQ8AMIIBCgKCAQEA
v8Yzx1EGUAYDKHm8QNc5sKYnu9mh6bCFrxaOSfV5W2lRwkuuYuDaIixmBLitRrJ9
LDju/Rsz9z/rnVWbNaH8USFe+TNL6BN0Yq+mQfOaffASDwGH3n9ahEKjKZk59rym
tdyFQKcTqfxiCqLL3JJKsrAqvPOBcuh7lr+Rd/t/D09+mq55NWOW95n7rvo/l6S1
CAtqnLgPAMs5K1gxlA+cNnrLmPupI5Rtu/dqSB9OjeBQ5QuaWpiw1UnZs43ynehB
juixOVeVr69IKfRd9mZApQTo15006SF5KWTRiREeXVOvz0y9fkrVfS3C590CIkiw
pFMsxjF6BFl++FiNSWLnHQIDAQABo4IBNzCCATMwCQYDVR0TBAIwADAdBgNVHQ4E
FgQUjPayFm4YewsmpRYzH/EP1oyXAlcwgeQGA1UdIwSB3DCB2YAUc96gQw+usZ7o
WWkYUKEaH9Sh4/ChgbWkgbIwga8xCzAJBgNVBAYTAlVTMRMwEQYDVQQIDApDYWxp
Zm9ybmlhMRYwFAYDVQQHDA1TYW4gRnJhbmNpc2NvMSAwHgYDVQQKDBdDb3B5bGVm
dCBDZXJ0aWZpY2F0ZSBDbzEfMB0GA1UECwwWTXkgT3JnYW5pemF0aW9uYWwgVW5p
dDERMA8GA1UEAwwIQ2hhbmdlTWUxHTAbBgkqhkiG9w0BCQEWDm1lQGV4YW1wbGUu
bmV0ggkA6bvLFsUyvjswEwYDVR0lBAwwCgYIKwYBBQUHAwIwCwYDVR0PBAQDAgeA
MA0GCSqGSIb3DQEBCwUAA4IBAQBYiKTJbvquIROlGBRnElEx8Tp/mb39OATT05MJ
VthA2K8Uxej25vscFmG6Z7QPUVojYaM3OgRnnjBfTyH+kApsgy7Lgou7Ia70beiW
JBCvrF+Gh8JRHYzZAf6IppVylRIr8oSSLYGT8aI0ulC/TtgLGAV1QB/hf/0uNWs6
unIF06e6Qp0BdR4H5hQqEhAhwPWT+Y7Zu7huy6kwjalpziVcB8+mmljr5lrWwbWc
O4nL6a9ULQoTX5JbqkOySihf8mMIYY3cDk5vvbwdxxOSH5xGSNj/SQBrc2O+3HLv
09t0ii6Ogdbqy9UcissTNbEtWVQnN/uYnHhJvCmZwWO5sox7
-----END CERTIFICATE-----
