Certificate:
    Data:
        Version: 3 (0x2)
        Serial Number:
            e4:3a:48:fc:1e:55:2f:d5:cf:5e:e0:43:68:a9:58:f0
    Signature Algorithm: sha256WithRSAEncryption
        Issuer: C=US, ST=California, L=San Francisco, O=Copyleft Certificate Co, OU=My Organizational Unit, CN=ChangeMe/emailAddress=me@example.net
        Validity
            Not Before: Nov 13 11:49:14 2023 GMT
            Not After : Nov 12 11:49:14 2024 GMT
        Subject: C=US, ST=OH, L=Cincinnati, O=University of Cincinnati, OU=Dept. Elec. Comp. Eng. Comp. Sci., CN=client42/emailAddress=franco@gauss.ececs.uc.edu
        Subject Public Key Info:
            Public Key Algorithm: rsaEncryption
                Public-Key: (2048 bit)
                Modulus:
                    00:ea:b8:81:ed:3c:48:07:65:f2:6b:fd:47:b2:ba:
                    ed:d6:78:49:8c:8a:18:16:42:b4:dc:0b:6c:16:78:
                    ab:9d:38:3b:7c:9f:3e:90:6f:a6:f0:ae:ef:b2:fd:
                    ea:86:9f:95:ea:d0:33:74:7c:4c:81:ad:78:40:a3:
                    bd:d4:7a:43:3c:1e:09:4f:57:74:33:97:7e:e9:d4:
                    fe:63:7e:ff:c6:d3:92:2f:13:79:86:25:8d:6c:24:
                    84:c7:29:23:3c:b9:3b:0b:c7:73:79:ec:a9:13:17:
                    66:c9:7f:62:b1:e6:dc:1e:03:58:b2:da:5b:bc:e7:
                    f1:62:71:7e:4e:a8:dd:16:26:09:bc:f5:5f:89:3b:
                    2b:47:e6:cf:2f:2d:e8:97:09:c3:d4:24:40:45:32:
                    af:8f:bd:b3:e0:ac:c5:23:3c:02:90:9e:1a:19:a9:
                    4e:5d:41:99:03:83:27:86:16:28:68:9e:0b:c6:74:
                    6f:4c:a5:a8:a7:f3:45:7d:e1:50:a7:76:78:4e:d5:
                    99:5b:6d:2d:99:f6:71:7b:fd:c3:bc:57:1a:95:7d:
                    7d:77:60:21:fd:97:54:dc:7e:c8:68:e3:af:42:6e:
                    1a:94:73:19:5b:bc:a6:ee:ac:9c:11:ec:e6:91:a3:
                    2c:41:69:a8:b7:2a:67:9d:6e:9c:fc:a2:37:75:da:
                    78:57
                Exponent: 65537 (0x10001)
        X509v3 extensions:
            X509v3 Basic Constraints: 
                CA:FALSE
            X509v3 Subject Key Identifier: 
                2B:01:E7:72:E4:DB:CD:FF:5E:B9:5A:D0:1E:64:3D:CC:E0:23:AE:E7
            X509v3 Authority Key Identifier: 
                keyid:B4:AE:AB:ED:FC:ED:84:AA:AD:77:5D:7C:84:28:1C:CA:CE:AE:2A:44
                DirName:/C=US/ST=California/L=San Francisco/O=Copyleft Certificate Co/OU=My Organizational Unit/CN=ChangeMe/emailAddress=me@example.net
                serial:BD:6C:3B:F4:D3:07:C9:D1

            X509v3 Extended Key Usage: 
                TLS Web Client Authentication
            X509v3 Key Usage: 
                Digital Signature
    Signature Algorithm: sha256WithRSAEncryption
         9f:e9:be:dc:7a:6f:e0:39:a7:a8:d3:3c:86:28:6f:e7:ff:47:
         f5:8c:cd:52:a8:56:6f:de:60:ba:54:c7:66:43:64:78:9a:85:
         d7:0c:82:24:b4:59:cf:c7:c4:01:59:6d:87:2b:f6:5a:26:78:
         9e:e1:8e:da:26:3d:01:c9:4b:10:0c:1d:5f:00:a1:2b:ec:79:
         a9:d4:6b:c4:52:9a:ab:e8:d3:6a:8c:91:8f:e7:17:f7:3a:47:
         2e:88:57:da:c2:88:4f:c9:31:bb:a4:4b:3c:71:e9:49:f1:8b:
         a5:0e:2c:08:ba:22:e4:89:88:3a:68:da:31:92:2f:be:e1:de:
         40:8f:6a:92:83:34:fd:f7:42:08:ee:2f:43:b2:04:11:37:8a:
         bf:30:d5:23:0e:f8:77:0e:c6:8f:f1:59:ea:0a:86:18:d7:5e:
         c1:89:58:05:e9:74:a8:9b:aa:0c:1d:ca:fc:f1:6d:b8:0d:ea:
         39:8d:8f:11:4e:4f:27:0a:7d:15:b6:60:8c:12:a6:e4:15:c9:
         35:aa:62:da:e4:4f:02:e0:96:e3:8e:59:f7:b2:a1:c3:97:16:
         f4:f4:59:50:85:0f:a3:f2:3a:fc:ba:21:3c:9e:7d:b8:29:9f:
         bc:84:c6:7f:e7:da:94:01:3e:b9:d1:aa:1a:3c:22:bb:9e:88:
         12:46:11:fe
-----BEGIN CERTIFICATE-----
MIIFMDCCBBigAwIBAgIRAOQ6SPweVS/Vz17gQ2ipWPAwDQYJKoZIhvcNAQELBQAw
ga8xCzAJBgNVBAYTAlVTMRMwEQYDVQQIDApDYWxpZm9ybmlhMRYwFAYDVQQHDA1T
YW4gRnJhbmNpc2NvMSAwHgYDVQQKDBdDb3B5bGVmdCBDZXJ0aWZpY2F0ZSBDbzEf
MB0GA1UECwwWTXkgT3JnYW5pemF0aW9uYWwgVW5pdDERMA8GA1UEAwwIQ2hhbmdl
TWUxHTAbBgkqhkiG9w0BCQEWDm1lQGV4YW1wbGUubmV0MB4XDTIzMTExMzExNDkx
NFoXDTI0MTExMjExNDkxNFowgbsxCzAJBgNVBAYTAlVTMQswCQYDVQQIDAJPSDET
MBEGA1UEBwwKQ2luY2lubmF0aTEhMB8GA1UECgwYVW5pdmVyc2l0eSBvZiBDaW5j
aW5uYXRpMSowKAYDVQQLDCFEZXB0LiBFbGVjLiBDb21wLiBFbmcuIENvbXAuIFNj
aS4xETAPBgNVBAMMCGNsaWVudDQyMSgwJgYJKoZIhvcNAQkBFhlmcmFuY29AZ2F1
c3MuZWNlY3MudWMuZWR1MIIBIjANBgkqhkiG9w0BAQEFAAOCAQ8AMIIBCgKCAQEA
6riB7TxIB2Xya/1Hsrrt1nhJjIoYFkK03AtsFnirnTg7fJ8+kG+m8K7vsv3qhp+V
6tAzdHxMga14QKO91HpDPB4JT1d0M5d+6dT+Y37/xtOSLxN5hiWNbCSExykjPLk7
C8dzeeypExdmyX9isebcHgNYstpbvOfxYnF+TqjdFiYJvPVfiTsrR+bPLy3olwnD
1CRARTKvj72z4KzFIzwCkJ4aGalOXUGZA4MnhhYoaJ4LxnRvTKWop/NFfeFQp3Z4
TtWZW20tmfZxe/3DvFcalX19d2Ah/ZdU3H7IaOOvQm4alHMZW7ym7qycEezmkaMs
QWmotypnnW6c/KI3ddp4VwIDAQABo4IBNzCCATMwCQYDVR0TBAIwADAdBgNVHQ4E
FgQUKwHncuTbzf9euVrQHmQ9zOAjrucwgeQGA1UdIwSB3DCB2YAUtK6r7fzthKqt
d118hCgcys6uKkShgbWkgbIwga8xCzAJBgNVBAYTAlVTMRMwEQYDVQQIDApDYWxp
Zm9ybmlhMRYwFAYDVQQHDA1TYW4gRnJhbmNpc2NvMSAwHgYDVQQKDBdDb3B5bGVm
dCBDZXJ0aWZpY2F0ZSBDbzEfMB0GA1UECwwWTXkgT3JnYW5pemF0aW9uYWwgVW5p
dDERMA8GA1UEAwwIQ2hhbmdlTWUxHTAbBgkqhkiG9w0BCQEWDm1lQGV4YW1wbGUu
bmV0ggkAvWw79NMHydEwEwYDVR0lBAwwCgYIKwYBBQUHAwIwCwYDVR0PBAQDAgeA
MA0GCSqGSIb3DQEBCwUAA4IBAQCf6b7cem/gOaeo0zyGKG/n/0f1jM1SqFZv3mC6
VMdmQ2R4moXXDIIktFnPx8QBWW2HK/ZaJnie4Y7aJj0ByUsQDB1fAKEr7Hmp1GvE
Upqr6NNqjJGP5xf3OkcuiFfawohPyTG7pEs8celJ8YulDiwIuiLkiYg6aNoxki++
4d5Aj2qSgzT990II7i9DsgQRN4q/MNUjDvh3DsaP8VnqCoYY117BiVgF6XSom6oM
Hcr88W24Deo5jY8RTk8nCn0VtmCMEqbkFck1qmLa5E8C4Jbjjln3sqHDlxb09FlQ
hQ+j8jr8uiE8nn24KZ+8hMZ/59qUAT650aoaPCK7nogSRhH+
-----END CERTIFICATE-----
