Certificate:
    Data:
        Version: 3 (0x2)
        Serial Number:
            6b:48:79:3e:d0:92:1b:27:d2:18:23:0d:2b:33:f0:b9
    Signature Algorithm: sha256WithRSAEncryption
        Issuer: C=US, ST=California, L=San Francisco, O=Copyleft Certificate Co, OU=My Organizational Unit, CN=ChangeMe/emailAddress=me@example.net
        Validity
            Not Before: Nov 10 17:42:21 2023 GMT
            Not After : Nov  9 17:42:21 2024 GMT
        Subject: C=US, ST=OH, L=Cincinnati, O=University of Cincinnati, OU=Dept_Elec_Com_ Eng_Com_Sci., CN=client59/emailAddress=franco@gauss.ececs.uc.edu
        Subject Public Key Info:
            Public Key Algorithm: rsaEncryption
                Public-Key: (2048 bit)
                Modulus:
                    00:da:58:1b:11:e7:ea:93:bb:de:65:f0:fe:cb:0a:
                    51:4b:c2:66:73:c8:0a:64:28:d4:8d:cb:28:05:c6:
                    b2:e3:8d:5a:ce:74:7f:98:fe:63:c3:1a:56:c8:bf:
                    ff:b2:5d:49:db:02:87:93:0f:56:60:8c:87:2d:ed:
                    fe:7c:13:4b:48:e4:5d:48:49:d8:27:29:32:3d:bb:
                    50:b8:14:15:80:3c:5e:50:21:ba:77:8b:bb:8b:d5:
                    e8:a2:68:60:e6:43:89:e5:ec:0f:3c:b0:47:47:e9:
                    b6:78:ce:d9:65:c5:df:18:72:2a:5b:93:39:d4:4f:
                    92:c5:93:f6:ed:2c:1e:6b:08:70:2c:30:2a:a2:f6:
                    38:76:0d:f5:bf:52:57:38:bf:5a:f6:82:9b:e4:ff:
                    f5:fd:ff:bc:f1:bf:6e:7f:40:28:32:17:2b:89:31:
                    3c:00:40:26:24:92:d2:8a:0a:82:59:da:e6:c4:31:
                    1a:34:cc:f9:0e:b8:93:8c:b6:b3:4d:d6:3d:1d:40:
                    a8:d3:4d:ad:a2:79:a4:52:c0:ac:ba:38:86:09:24:
                    05:61:b8:d2:f3:1d:5b:47:d3:5b:05:60:71:82:29:
                    0d:43:d6:1f:ce:08:25:a8:b7:44:bc:6b:63:19:76:
                    7e:fe:e3:23:5d:e3:9a:93:d6:29:7e:b1:f2:8d:e7:
                    e1:33
                Exponent: 65537 (0x10001)
        X509v3 extensions:
            X509v3 Basic Constraints: 
                CA:FALSE
            X509v3 Subject Key Identifier: 
                9B:5C:89:4D:18:CB:11:22:24:E8:28:52:DF:BF:A5:21:70:B8:FA:F5
            X509v3 Authority Key Identifier: 
                keyid:C8:27:DA:64:30:08:40:08:4A:25:CC:DC:43:99:DE:77:A1:FE:77:BD
                DirName:/C=US/ST=California/L=San Francisco/O=Copyleft Certificate Co/OU=My Organizational Unit/CN=ChangeMe/emailAddress=me@example.net
                serial:A9:48:C3:7E:FC:1B:B0:A1

            X509v3 Extended Key Usage: 
                TLS Web Client Authentication
            X509v3 Key Usage: 
                Digital Signature
    Signature Algorithm: sha256WithRSAEncryption
         b9:c5:83:97:af:94:6e:e4:e6:ab:b3:cc:f9:28:ff:aa:81:a7:
         42:9e:6c:ad:5d:08:e3:58:b6:60:df:0a:16:10:46:7a:5c:8c:
         f8:8c:ea:f0:7a:af:a6:ab:52:49:e5:1b:61:5f:5f:d1:2d:6f:
         90:b7:52:ce:d5:eb:1b:7d:82:0d:a5:34:cb:d9:de:0d:43:93:
         d6:ee:85:44:db:28:d9:0e:f7:0a:f4:b6:1e:9e:03:ed:92:4f:
         58:62:d5:be:05:8d:e2:67:3a:73:03:ef:f8:34:08:1f:b2:53:
         9a:13:16:a4:f5:e4:f3:8c:5d:a6:c9:7c:04:b7:b9:a3:82:b6:
         37:48:a2:53:1d:c7:29:bc:23:5c:f9:03:ce:94:f2:9e:25:63:
         4a:f2:8d:0a:8d:79:54:aa:e5:d0:91:b9:ee:54:99:6d:0a:90:
         72:cd:7b:53:1d:a9:a5:9e:8c:2c:df:80:77:b4:de:88:9c:fe:
         3d:4f:78:ea:e3:af:e8:92:1f:ac:2e:1d:27:7c:22:d7:76:71:
         ca:2b:47:d5:9c:c4:b3:97:9e:6f:de:5c:25:e3:29:36:05:f4:
         52:87:40:63:cf:c3:e8:57:73:51:db:89:0b:a2:75:21:1a:6c:
         2f:ed:b0:e2:5a:4c:af:4b:48:7f:f5:cf:90:d7:2b:f0:ed:83:
         7c:9e:f4:fd
-----BEGIN CERTIFICATE-----
MIIFKTCCBBGgAwIBAgIQa0h5PtCSGyfSGCMNKzPwuTANBgkqhkiG9w0BAQsFADCB
rzELMAkGA1UEBhMCVVMxEzARBgNVBAgMCkNhbGlmb3JuaWExFjAUBgNVBAcMDVNh
biBGcmFuY2lzY28xIDAeBgNVBAoMF0NvcHlsZWZ0IENlcnRpZmljYXRlIENvMR8w
HQYDVQQLDBZNeSBPcmdhbml6YXRpb25hbCBVbml0MREwDwYDVQQDDAhDaGFuZ2VN
ZTEdMBsGCSqGSIb3DQEJARYObWVAZXhhbXBsZS5uZXQwHhcNMjMxMTEwMTc0MjIx
WhcNMjQxMTA5MTc0MjIxWjCBtTELMAkGA1UEBhMCVVMxCzAJBgNVBAgMAk9IMRMw
EQYDVQQHDApDaW5jaW5uYXRpMSEwHwYDVQQKDBhVbml2ZXJzaXR5IG9mIENpbmNp
bm5hdGkxJDAiBgNVBAsMG0RlcHRfRWxlY19Db21fIEVuZ19Db21fU2NpLjERMA8G
A1UEAwwIY2xpZW50NTkxKDAmBgkqhkiG9w0BCQEWGWZyYW5jb0BnYXVzcy5lY2Vj
cy51Yy5lZHUwggEiMA0GCSqGSIb3DQEBAQUAA4IBDwAwggEKAoIBAQDaWBsR5+qT
u95l8P7LClFLwmZzyApkKNSNyygFxrLjjVrOdH+Y/mPDGlbIv/+yXUnbAoeTD1Zg
jIct7f58E0tI5F1ISdgnKTI9u1C4FBWAPF5QIbp3i7uL1eiiaGDmQ4nl7A88sEdH
6bZ4ztllxd8YcipbkznUT5LFk/btLB5rCHAsMCqi9jh2DfW/Ulc4v1r2gpvk//X9
/7zxv25/QCgyFyuJMTwAQCYkktKKCoJZ2ubEMRo0zPkOuJOMtrNN1j0dQKjTTa2i
eaRSwKy6OIYJJAVhuNLzHVtH01sFYHGCKQ1D1h/OCCWot0S8a2MZdn7+4yNd45qT
1il+sfKN5+EzAgMBAAGjggE3MIIBMzAJBgNVHRMEAjAAMB0GA1UdDgQWBBSbXIlN
GMsRIiToKFLfv6UhcLj69TCB5AYDVR0jBIHcMIHZgBTIJ9pkMAhACEolzNxDmd53
of53vaGBtaSBsjCBrzELMAkGA1UEBhMCVVMxEzARBgNVBAgMCkNhbGlmb3JuaWEx
FjAUBgNVBAcMDVNhbiBGcmFuY2lzY28xIDAeBgNVBAoMF0NvcHlsZWZ0IENlcnRp
ZmljYXRlIENvMR8wHQYDVQQLDBZNeSBPcmdhbml6YXRpb25hbCBVbml0MREwDwYD
VQQDDAhDaGFuZ2VNZTEdMBsGCSqGSIb3DQEJARYObWVAZXhhbXBsZS5uZXSCCQCp
SMN+/BuwoTATBgNVHSUEDDAKBggrBgEFBQcDAjALBgNVHQ8EBAMCB4AwDQYJKoZI
hvcNAQELBQADggEBALnFg5evlG7k5quzzPko/6qBp0KebK1dCONYtmDfChYQRnpc
jPiM6vB6r6arUknlG2FfX9Etb5C3Us7V6xt9gg2lNMvZ3g1Dk9buhUTbKNkO9wr0
th6eA+2ST1hi1b4FjeJnOnMD7/g0CB+yU5oTFqT15POMXabJfAS3uaOCtjdIolMd
xym8I1z5A86U8p4lY0ryjQqNeVSq5dCRue5UmW0KkHLNe1MdqaWejCzfgHe03oic
/j1PeOrjr+iSH6wuHSd8Itd2ccorR9WcxLOXnm/eXCXjKTYF9FKHQGPPw+hXc1Hb
iQuidSEabC/tsOJaTK9LSH/1z5DXK/Dtg3ye9P0=
-----END CERTIFICATE-----
