Certificate:
    Data:
        Version: 3 (0x2)
        Serial Number:
            6a:1c:98:0f:fe:ba:dc:ad:00:91:07:33:6b:d7:5e:ca
    Signature Algorithm: sha256WithRSAEncryption
        Issuer: C=US, ST=California, L=San Francisco, O=Copyleft Certificate Co, OU=My Organizational Unit, CN=ChangeMe/emailAddress=me@example.net
        Validity
            Not Before: Nov 11 10:57:04 2023 GMT
            Not After : Nov 10 10:57:04 2024 GMT
        Subject: C=US, ST=OH, L=Cincinnati, O=University of Cincinnati, OU=Dept. Elec. Comp. Eng. Comp. Sci., CN=client27/emailAddress=franco@gauss.ececs.uc.edu
        Subject Public Key Info:
            Public Key Algorithm: rsaEncryption
                Public-Key: (2048 bit)
                Modulus:
                    00:9e:e4:57:ce:92:81:7e:47:61:d4:8c:2b:04:68:
                    27:3d:dc:64:c3:3b:5a:99:92:eb:6b:5d:aa:80:f2:
                    1a:34:00:7a:3c:df:44:d7:cb:3f:63:2f:18:44:e9:
                    47:ac:6d:11:15:de:86:9b:93:d3:15:b5:7d:e6:6c:
                    e1:f1:12:14:82:c8:c5:cb:f9:d3:1c:e2:1c:d7:b9:
                    1b:7f:16:bc:c9:6c:3f:e5:bb:3d:6a:f3:16:96:5a:
                    59:ed:fc:7d:ba:0e:2a:58:d5:be:6b:c4:ad:ba:5d:
                    15:ce:55:4a:c5:55:e7:13:7a:b2:44:f6:60:28:b5:
                    7f:11:6a:ef:4b:8e:04:df:d1:eb:4e:85:af:65:80:
                    f6:6b:46:5b:10:6e:40:4f:35:1d:ed:05:3d:2d:64:
                    6e:81:f1:b0:ff:0c:bc:cb:85:b8:ac:e6:ac:ec:25:
                    ad:45:23:34:a5:4d:55:db:84:93:94:64:8f:86:38:
                    5f:1e:18:38:e9:2b:32:d0:3c:82:74:b0:71:3b:e9:
                    dc:c6:6b:91:2a:d7:64:7e:41:4b:17:f2:cd:8d:f5:
                    3f:ad:b5:47:1c:b3:20:21:6f:db:e1:23:cd:12:ba:
                    f0:72:41:f6:e7:23:4d:a6:8a:39:23:af:ae:8f:fd:
                    05:dc:f1:f4:ee:4e:2a:10:cf:c4:5e:2a:ed:eb:76:
                    a5:47
                Exponent: 65537 (0x10001)
        X509v3 extensions:
            X509v3 Basic Constraints: 
                CA:FALSE
            X509v3 Subject Key Identifier: 
                21:83:02:42:F9:4F:2C:7B:6B:74:F4:39:B4:19:E1:B2:D7:90:CB:1E
            X509v3 Authority Key Identifier: 
                keyid:44:01:CC:06:0B:41:75:CB:C8:FB:C9:37:86:2D:9D:D2:D8:79:B6:8B
                DirName:/C=US/ST=California/L=San Francisco/O=Copyleft Certificate Co/OU=My Organizational Unit/CN=ChangeMe/emailAddress=me@example.net
                serial:AF:E8:E0:DD:C5:8B:0E:DD

            X509v3 Extended Key Usage: 
                TLS Web Client Authentication
            X509v3 Key Usage: 
                Digital Signature
    Signature Algorithm: sha256WithRSAEncryption
         6c:62:88:29:98:f3:e6:45:a9:04:11:80:9b:85:ca:d0:5b:a2:
         7e:4e:cf:74:8d:31:97:36:cb:17:04:8d:b1:fb:63:4b:37:d8:
         28:43:61:95:ad:32:0c:cd:a6:eb:1e:68:99:90:80:09:4a:61:
         89:b5:f7:b8:9f:32:4b:2b:71:e9:6c:4d:d3:99:f0:8b:9d:34:
         e8:e7:e1:84:4d:d1:43:c1:a2:9b:e8:5f:25:a0:27:bd:6d:3f:
         91:5a:0d:e2:60:de:87:57:e1:b1:89:76:b7:5c:7c:c9:5e:4a:
         f0:73:8c:93:99:93:9f:dc:c0:32:a0:cd:17:80:b8:0a:b5:6c:
         5e:ce:ec:d5:18:4c:80:ba:02:af:cf:29:f1:44:7a:4c:a5:1f:
         18:3f:d4:2e:46:e8:78:2d:19:10:4c:e7:0b:af:ea:76:f9:8d:
         73:e2:71:25:cc:07:81:62:94:34:1e:26:63:45:46:51:8e:7d:
         33:48:d2:83:83:f1:86:1a:8c:2d:bb:10:2b:87:3e:91:5c:17:
         18:c5:33:c6:5d:e0:8a:76:dd:67:2e:1a:3d:c8:f4:ae:f2:e3:
         65:cc:79:8c:7f:98:96:39:42:75:4d:eb:db:a9:11:ab:42:ea:
         b5:e8:80:59:3b:b7:33:6e:09:8f:58:c9:3b:37:ca:da:b7:d2:
         8a:ab:80:ec
-----BEGIN CERTIFICATE-----
MIIFLzCCBBegAwIBAgIQahyYD/663K0AkQcza9deyjANBgkqhkiG9w0BAQsFADCB
rzELMAkGA1UEBhMCVVMxEzARBgNVBAgMCkNhbGlmb3JuaWExFjAUBgNVBAcMDVNh
biBGcmFuY2lzY28xIDAeBgNVBAoMF0NvcHlsZWZ0IENlcnRpZmljYXRlIENvMR8w
HQYDVQQLDBZNeSBPcmdhbml6YXRpb25hbCBVbml0MREwDwYDVQQDDAhDaGFuZ2VN
ZTEdMBsGCSqGSIb3DQEJARYObWVAZXhhbXBsZS5uZXQwHhcNMjMxMTExMTA1NzA0
WhcNMjQxMTEwMTA1NzA0WjCBuzELMAkGA1UEBhMCVVMxCzAJBgNVBAgMAk9IMRMw
EQYDVQQHDApDaW5jaW5uYXRpMSEwHwYDVQQKDBhVbml2ZXJzaXR5IG9mIENpbmNp
bm5hdGkxKjAoBgNVBAsMIURlcHQuIEVsZWMuIENvbXAuIEVuZy4gQ29tcC4gU2Np
LjERMA8GA1UEAwwIY2xpZW50MjcxKDAmBgkqhkiG9w0BCQEWGWZyYW5jb0BnYXVz
cy5lY2Vjcy51Yy5lZHUwggEiMA0GCSqGSIb3DQEBAQUAA4IBDwAwggEKAoIBAQCe
5FfOkoF+R2HUjCsEaCc93GTDO1qZkutrXaqA8ho0AHo830TXyz9jLxhE6UesbREV
3oabk9MVtX3mbOHxEhSCyMXL+dMc4hzXuRt/FrzJbD/luz1q8xaWWlnt/H26DipY
1b5rxK26XRXOVUrFVecTerJE9mAotX8Rau9LjgTf0etOha9lgPZrRlsQbkBPNR3t
BT0tZG6B8bD/DLzLhbis5qzsJa1FIzSlTVXbhJOUZI+GOF8eGDjpKzLQPIJ0sHE7
6dzGa5Eq12R+QUsX8s2N9T+ttUccsyAhb9vhI80SuvByQfbnI02mijkjr66P/QXc
8fTuTioQz8ReKu3rdqVHAgMBAAGjggE3MIIBMzAJBgNVHRMEAjAAMB0GA1UdDgQW
BBQhgwJC+U8se2t09Dm0GeGy15DLHjCB5AYDVR0jBIHcMIHZgBREAcwGC0F1y8j7
yTeGLZ3S2Hm2i6GBtaSBsjCBrzELMAkGA1UEBhMCVVMxEzARBgNVBAgMCkNhbGlm
b3JuaWExFjAUBgNVBAcMDVNhbiBGcmFuY2lzY28xIDAeBgNVBAoMF0NvcHlsZWZ0
IENlcnRpZmljYXRlIENvMR8wHQYDVQQLDBZNeSBPcmdhbml6YXRpb25hbCBVbml0
MREwDwYDVQQDDAhDaGFuZ2VNZTEdMBsGCSqGSIb3DQEJARYObWVAZXhhbXBsZS5u
ZXSCCQCv6ODdxYsO3TATBgNVHSUEDDAKBggrBgEFBQcDAjALBgNVHQ8EBAMCB4Aw
DQYJKoZIhvcNAQELBQADggEBAGxiiCmY8+ZFqQQRgJuFytBbon5Oz3SNMZc2yxcE
jbH7Y0s32ChDYZWtMgzNpuseaJmQgAlKYYm197ifMksrcelsTdOZ8IudNOjn4YRN
0UPBopvoXyWgJ71tP5FaDeJg3odX4bGJdrdcfMleSvBzjJOZk5/cwDKgzReAuAq1
bF7O7NUYTIC6Aq/PKfFEekylHxg/1C5G6HgtGRBM5wuv6nb5jXPicSXMB4FilDQe
JmNFRlGOfTNI0oOD8YYajC27ECuHPpFcFxjFM8Zd4Ip23WcuGj3I9K7y42XMeYx/
mJY5QnVN69upEatC6rXogFk7tzNuCY9YyTs3ytq30oqrgOw=
-----END CERTIFICATE-----
