Certificate:
    Data:
        Version: 3 (0x2)
        Serial Number:
            e5:de:d3:b8:6e:60:93:6f:a8:8f:0a:01:ab:67:09:57
    Signature Algorithm: sha256WithRSAEncryption
        Issuer: C=US, ST=California, L=San Francisco, O=Copyleft Certificate Co, OU=My Organizational Unit, CN=ChangeMe/emailAddress=me@example.net
        Validity
            Not Before: Nov 11 10:56:00 2023 GMT
            Not After : Nov 10 10:56:00 2024 GMT
        Subject: C=US, ST=OH, L=Cincinnati, O=University of Cincinnati, OU=Dept. Elec. Comp. Eng. Comp. Sci., CN=client11/emailAddress=franco@gauss.ececs.uc.edu
        Subject Public Key Info:
            Public Key Algorithm: rsaEncryption
                Public-Key: (2048 bit)
                Modulus:
                    00:a3:44:5e:3e:ba:9d:37:f5:e5:e6:c3:48:4f:ad:
                    4c:16:0b:8a:c9:59:5c:6e:2b:be:5b:0d:87:d7:71:
                    bc:55:58:68:dc:a9:96:a3:05:7f:59:89:33:6c:27:
                    fd:31:5b:08:54:68:b0:e2:79:56:92:3e:67:65:0d:
                    2c:70:fe:2e:88:6d:1f:91:83:cc:6b:44:cb:34:bf:
                    65:ef:9d:d2:20:a0:04:3d:18:b7:ab:b6:1e:d2:91:
                    64:2a:02:bf:cc:5b:b9:30:d5:b3:77:c5:a4:43:07:
                    a6:cc:c3:8b:e6:a8:e4:c4:72:ef:d8:8d:5f:48:1d:
                    93:d6:03:ba:a0:34:70:d5:c1:0a:61:08:97:44:1a:
                    11:e8:4e:c5:18:52:70:e0:ea:73:86:40:4d:3a:af:
                    ff:18:de:30:76:cb:fc:86:da:dd:03:90:ad:e8:35:
                    94:51:bc:a5:64:12:ec:f5:b6:98:c7:3d:c4:37:44:
                    b9:a4:9d:b7:70:a3:90:d1:be:fa:5c:65:5c:dd:c9:
                    ce:8b:a4:f9:cc:f0:26:e2:6c:c6:61:3f:fc:6e:29:
                    76:33:34:79:5c:0d:a5:30:1d:a0:91:f4:25:5a:e2:
                    41:58:ec:ff:a1:c7:6a:68:f4:7c:e6:f1:1c:fa:7b:
                    d8:60:5f:1c:ed:dc:be:3f:0b:d2:7d:f8:58:42:d1:
                    e8:83
                Exponent: 65537 (0x10001)
        X509v3 extensions:
            X509v3 Basic Constraints: 
                CA:FALSE
            X509v3 Subject Key Identifier: 
                63:2D:41:55:9E:9B:FA:AE:5E:EE:49:AB:DE:0D:E6:19:97:10:C1:0C
            X509v3 Authority Key Identifier: 
                keyid:44:01:CC:06:0B:41:75:CB:C8:FB:C9:37:86:2D:9D:D2:D8:79:B6:8B
                DirName:/C=US/ST=California/L=San Francisco/O=Copyleft Certificate Co/OU=My Organizational Unit/CN=ChangeMe/emailAddress=me@example.net
                serial:AF:E8:E0:DD:C5:8B:0E:DD

            X509v3 Extended Key Usage: 
                TLS Web Client Authentication
            X509v3 Key Usage: 
                Digital Signature
    Signature Algorithm: sha256WithRSAEncryption
         3a:53:49:83:13:5c:c9:2c:10:f4:02:cf:60:db:0c:62:19:e6:
         b6:69:a6:ef:33:b9:9c:7a:2a:3f:d3:03:d8:96:ce:d9:19:60:
         50:4a:d9:20:21:36:8a:ca:3a:48:6c:3e:bf:62:66:8a:a5:0b:
         9a:b9:55:4c:1b:2f:06:90:f0:eb:c5:c5:58:9c:cf:4e:f9:d6:
         35:3b:80:e7:62:d5:55:73:2e:cf:e4:23:7d:ca:0d:d1:cb:c4:
         88:11:5b:12:02:d3:5c:44:21:a5:c7:ad:4d:4e:bd:98:f7:55:
         c2:25:0a:9c:1e:01:d8:5a:cf:50:40:ac:ff:cf:9e:76:18:4a:
         f7:ed:e6:83:4e:9d:ca:46:a7:ed:21:83:70:01:50:6d:8d:4d:
         a1:18:19:77:01:6d:5c:2a:a3:b2:9a:9f:37:f3:2c:c5:6a:c4:
         3b:a1:39:bd:d2:b4:bf:ac:d5:1b:1e:82:57:0f:47:7e:f1:bc:
         81:6f:f5:6b:c6:43:38:43:97:55:24:16:d7:a0:c9:bc:29:3d:
         01:70:a9:ac:49:c5:4f:68:ff:49:4a:31:b1:6e:53:33:18:10:
         4d:0a:12:3b:52:61:99:0e:bf:45:38:63:33:48:a7:ed:3a:4f:
         71:f4:2d:36:99:59:fe:29:6c:31:06:87:5b:6b:da:49:91:47:
         e4:c9:0f:a3
-----BEGIN CERTIFICATE-----
MIIFMDCCBBigAwIBAgIRAOXe07huYJNvqI8KAatnCVcwDQYJKoZIhvcNAQELBQAw
ga8xCzAJBgNVBAYTAlVTMRMwEQYDVQQIDApDYWxpZm9ybmlhMRYwFAYDVQQHDA1T
YW4gRnJhbmNpc2NvMSAwHgYDVQQKDBdDb3B5bGVmdCBDZXJ0aWZpY2F0ZSBDbzEf
MB0GA1UECwwWTXkgT3JnYW5pemF0aW9uYWwgVW5pdDERMA8GA1UEAwwIQ2hhbmdl
TWUxHTAbBgkqhkiG9w0BCQEWDm1lQGV4YW1wbGUubmV0MB4XDTIzMTExMTEwNTYw
MFoXDTI0MTExMDEwNTYwMFowgbsxCzAJBgNVBAYTAlVTMQswCQYDVQQIDAJPSDET
MBEGA1UEBwwKQ2luY2lubmF0aTEhMB8GA1UECgwYVW5pdmVyc2l0eSBvZiBDaW5j
aW5uYXRpMSowKAYDVQQLDCFEZXB0LiBFbGVjLiBDb21wLiBFbmcuIENvbXAuIFNj
aS4xETAPBgNVBAMMCGNsaWVudDExMSgwJgYJKoZIhvcNAQkBFhlmcmFuY29AZ2F1
c3MuZWNlY3MudWMuZWR1MIIBIjANBgkqhkiG9w0BAQEFAAOCAQ8AMIIBCgKCAQEA
o0RePrqdN/Xl5sNIT61MFguKyVlcbiu+Ww2H13G8VVho3KmWowV/WYkzbCf9MVsI
VGiw4nlWkj5nZQ0scP4uiG0fkYPMa0TLNL9l753SIKAEPRi3q7Ye0pFkKgK/zFu5
MNWzd8WkQwemzMOL5qjkxHLv2I1fSB2T1gO6oDRw1cEKYQiXRBoR6E7FGFJw4Opz
hkBNOq//GN4wdsv8htrdA5Ct6DWUUbylZBLs9baYxz3EN0S5pJ23cKOQ0b76XGVc
3cnOi6T5zPAm4mzGYT/8bil2MzR5XA2lMB2gkfQlWuJBWOz/ocdqaPR85vEc+nvY
YF8c7dy+PwvSffhYQtHogwIDAQABo4IBNzCCATMwCQYDVR0TBAIwADAdBgNVHQ4E
FgQUYy1BVZ6b+q5e7kmr3g3mGZcQwQwwgeQGA1UdIwSB3DCB2YAURAHMBgtBdcvI
+8k3hi2d0th5touhgbWkgbIwga8xCzAJBgNVBAYTAlVTMRMwEQYDVQQIDApDYWxp
Zm9ybmlhMRYwFAYDVQQHDA1TYW4gRnJhbmNpc2NvMSAwHgYDVQQKDBdDb3B5bGVm
dCBDZXJ0aWZpY2F0ZSBDbzEfMB0GA1UECwwWTXkgT3JnYW5pemF0aW9uYWwgVW5p
dDERMA8GA1UEAwwIQ2hhbmdlTWUxHTAbBgkqhkiG9w0BCQEWDm1lQGV4YW1wbGUu
bmV0ggkAr+jg3cWLDt0wEwYDVR0lBAwwCgYIKwYBBQUHAwIwCwYDVR0PBAQDAgeA
MA0GCSqGSIb3DQEBCwUAA4IBAQA6U0mDE1zJLBD0As9g2wxiGea2aabvM7mceio/
0wPYls7ZGWBQStkgITaKyjpIbD6/YmaKpQuauVVMGy8GkPDrxcVYnM9O+dY1O4Dn
YtVVcy7P5CN9yg3Ry8SIEVsSAtNcRCGlx61NTr2Y91XCJQqcHgHYWs9QQKz/z552
GEr37eaDTp3KRqftIYNwAVBtjU2hGBl3AW1cKqOymp838yzFasQ7oTm90rS/rNUb
HoJXD0d+8byBb/VrxkM4Q5dVJBbXoMm8KT0BcKmsScVPaP9JSjGxblMzGBBNChI7
UmGZDr9FOGMzSKftOk9x9C02mVn+KWwxBodba9pJkUfkyQ+j
-----END CERTIFICATE-----
