Certificate:
    Data:
        Version: 3 (0x2)
        Serial Number:
            b8:32:57:0f:57:ce:34:a6:38:0e:11:b2:b0:05:7e:57
    Signature Algorithm: sha256WithRSAEncryption
        Issuer: C=US, ST=California, L=San Francisco, O=Copyleft Certificate Co, OU=My Organizational Unit, CN=ChangeMe/emailAddress=me@example.net
        Validity
            Not Before: Nov 11 01:47:38 2023 GMT
            Not After : Nov 10 01:47:38 2024 GMT
        Subject: C=US, ST=OH, L=Cincinnati, O=University of Cincinnati, OU=Dept. Elec. Comp. Eng. Comp. Sci., CN=client119/emailAddress=franco@gauss.ececs.uc.edu
        Subject Public Key Info:
            Public Key Algorithm: rsaEncryption
                Public-Key: (2048 bit)
                Modulus:
                    00:b2:4d:8f:59:92:09:3e:0d:46:e4:28:63:8c:55:
                    25:c0:28:0f:14:fe:25:c0:f5:12:d8:db:fe:66:ce:
                    04:69:df:06:f4:0f:4c:16:74:8c:75:f1:9b:61:16:
                    cd:9b:b2:4a:c2:f8:98:ff:59:c4:c7:4e:7c:15:8b:
                    ac:78:e7:54:81:e1:3c:dd:e0:4c:a5:fe:b6:13:3b:
                    9e:9f:f0:8b:b6:f2:8e:72:f9:53:9f:af:40:21:c3:
                    d1:ea:ad:b6:87:cd:da:a9:58:f4:87:39:57:75:3a:
                    30:c9:fb:8a:30:18:6d:f1:24:22:a1:77:d5:d1:07:
                    3a:f0:fb:4d:eb:b9:4f:cc:be:84:39:25:06:5e:51:
                    af:72:37:0c:40:32:b3:f7:25:20:f8:f0:24:5f:4d:
                    ce:ce:a5:88:49:30:d4:ac:50:49:7c:40:db:4f:1b:
                    22:1b:f6:81:27:fa:7e:6e:11:01:75:cf:b0:02:e4:
                    30:57:46:9d:e0:44:ca:a5:bf:b0:18:9c:6b:5e:4f:
                    95:1c:89:28:e4:66:a8:ee:b8:4e:44:cd:10:c8:85:
                    8a:60:4f:db:66:68:df:fe:1f:bb:63:e0:0d:06:08:
                    15:97:bf:73:8b:c0:66:f5:ff:8d:ce:80:b0:f1:36:
                    c8:d3:a1:6c:b2:8e:b6:c6:45:03:74:6d:98:e4:51:
                    e2:1d
                Exponent: 65537 (0x10001)
        X509v3 extensions:
            X509v3 Basic Constraints: 
                CA:FALSE
            X509v3 Subject Key Identifier: 
                69:B9:72:D4:47:DD:DD:84:D7:A7:E6:3C:AA:3D:E9:23:7F:34:76:D7
            X509v3 Authority Key Identifier: 
                keyid:73:DE:A0:43:0F:AE:B1:9E:E8:59:69:18:50:A1:1A:1F:D4:A1:E3:F0
                DirName:/C=US/ST=California/L=San Francisco/O=Copyleft Certificate Co/OU=My Organizational Unit/CN=ChangeMe/emailAddress=me@example.net
                serial:E9:BB:CB:16:C5:32:BE:3B

            X509v3 Extended Key Usage: 
                TLS Web Client Authentication
            X509v3 Key Usage: 
                Digital Signature
    Signature Algorithm: sha256WithRSAEncryption
         27:b8:38:7c:ca:e6:31:bb:4d:b2:50:29:90:27:a5:6e:b9:08:
         f8:6c:0a:97:1f:33:54:28:17:dd:dd:4d:54:ea:f6:2e:15:de:
         56:b0:78:2f:48:13:1f:59:66:31:bc:9c:d8:dd:fd:db:cb:82:
         57:f0:e1:a3:e4:56:ff:96:27:b1:52:6e:7f:61:57:6c:fb:7a:
         df:20:37:62:e7:c3:58:e9:0d:20:86:d0:93:bb:54:c1:5d:8a:
         0d:70:92:f1:d4:b5:8b:38:17:55:5e:d8:98:ac:d8:07:12:cc:
         e0:fd:b5:83:ea:73:74:31:e8:eb:03:3b:f0:75:00:7a:a8:66:
         5f:2f:b6:fb:54:81:3f:8b:bf:61:2b:e9:9f:93:ea:22:2e:9b:
         03:28:87:c6:11:ac:f4:db:f9:93:06:71:7e:42:23:48:0b:fd:
         06:cc:75:79:cb:f6:f5:14:ff:a6:64:45:c1:9d:c7:e8:a6:1c:
         1a:54:f8:3f:71:34:18:1c:61:3c:30:56:8c:88:e4:44:08:c4:
         f4:e8:66:a8:03:32:13:74:1e:e3:0d:77:37:43:d8:1b:dd:d7:
         2d:45:c2:9f:95:13:7d:a0:58:d0:a4:01:c9:94:1e:17:d7:4e:
         03:fb:c4:dd:40:fb:d9:c6:fd:a4:dd:1b:14:66:1b:ad:db:94:
         a3:86:8c:88
-----BEGIN CERTIFICATE-----
MIIFMTCCBBmgAwIBAgIRALgyVw9XzjSmOA4RsrAFflcwDQYJKoZIhvcNAQELBQAw
ga8xCzAJBgNVBAYTAlVTMRMwEQYDVQQIDApDYWxpZm9ybmlhMRYwFAYDVQQHDA1T
YW4gRnJhbmNpc2NvMSAwHgYDVQQKDBdDb3B5bGVmdCBDZXJ0aWZpY2F0ZSBDbzEf
MB0GA1UECwwWTXkgT3JnYW5pemF0aW9uYWwgVW5pdDERMA8GA1UEAwwIQ2hhbmdl
TWUxHTAbBgkqhkiG9w0BCQEWDm1lQGV4YW1wbGUubmV0MB4XDTIzMTExMTAxNDcz
OFoXDTI0MTExMDAxNDczOFowgbwxCzAJBgNVBAYTAlVTMQswCQYDVQQIDAJPSDET
MBEGA1UEBwwKQ2luY2lubmF0aTEhMB8GA1UECgwYVW5pdmVyc2l0eSBvZiBDaW5j
aW5uYXRpMSowKAYDVQQLDCFEZXB0LiBFbGVjLiBDb21wLiBFbmcuIENvbXAuIFNj
aS4xEjAQBgNVBAMMCWNsaWVudDExOTEoMCYGCSqGSIb3DQEJARYZZnJhbmNvQGdh
dXNzLmVjZWNzLnVjLmVkdTCCASIwDQYJKoZIhvcNAQEBBQADggEPADCCAQoCggEB
ALJNj1mSCT4NRuQoY4xVJcAoDxT+JcD1Etjb/mbOBGnfBvQPTBZ0jHXxm2EWzZuy
SsL4mP9ZxMdOfBWLrHjnVIHhPN3gTKX+thM7np/wi7byjnL5U5+vQCHD0eqttofN
2qlY9Ic5V3U6MMn7ijAYbfEkIqF31dEHOvD7Teu5T8y+hDklBl5Rr3I3DEAys/cl
IPjwJF9Nzs6liEkw1KxQSXxA208bIhv2gSf6fm4RAXXPsALkMFdGneBEyqW/sBic
a15PlRyJKORmqO64TkTNEMiFimBP22Zo3/4fu2PgDQYIFZe/c4vAZvX/jc6AsPE2
yNOhbLKOtsZFA3RtmORR4h0CAwEAAaOCATcwggEzMAkGA1UdEwQCMAAwHQYDVR0O
BBYEFGm5ctRH3d2E16fmPKo96SN/NHbXMIHkBgNVHSMEgdwwgdmAFHPeoEMPrrGe
6FlpGFChGh/UoePwoYG1pIGyMIGvMQswCQYDVQQGEwJVUzETMBEGA1UECAwKQ2Fs
aWZvcm5pYTEWMBQGA1UEBwwNU2FuIEZyYW5jaXNjbzEgMB4GA1UECgwXQ29weWxl
ZnQgQ2VydGlmaWNhdGUgQ28xHzAdBgNVBAsMFk15IE9yZ2FuaXphdGlvbmFsIFVu
aXQxETAPBgNVBAMMCENoYW5nZU1lMR0wGwYJKoZIhvcNAQkBFg5tZUBleGFtcGxl
Lm5ldIIJAOm7yxbFMr47MBMGA1UdJQQMMAoGCCsGAQUFBwMCMAsGA1UdDwQEAwIH
gDANBgkqhkiG9w0BAQsFAAOCAQEAJ7g4fMrmMbtNslApkCelbrkI+GwKlx8zVCgX
3d1NVOr2LhXeVrB4L0gTH1lmMbyc2N3928uCV/Dho+RW/5YnsVJuf2FXbPt63yA3
YufDWOkNIIbQk7tUwV2KDXCS8dS1izgXVV7YmKzYBxLM4P21g+pzdDHo6wM78HUA
eqhmXy+2+1SBP4u/YSvpn5PqIi6bAyiHxhGs9Nv5kwZxfkIjSAv9Bsx1ecv29RT/
pmRFwZ3H6KYcGlT4P3E0GBxhPDBWjIjkRAjE9OhmqAMyE3Qe4w13N0PYG93XLUXC
n5UTfaBY0KQByZQeF9dOA/vE3UD72cb9pN0bFGYbrduUo4aMiA==
-----END CERTIFICATE-----
