Certificate:
    Data:
        Version: 3 (0x2)
        Serial Number:
            3a:da:ff:a7:7d:d6:3a:c0:7f:34:c5:fc:ad:ab:6a:7e
    Signature Algorithm: sha256WithRSAEncryption
        Issuer: C=US, ST=California, L=San Francisco, O=Copyleft Certificate Co, OU=My Organizational Unit, CN=ChangeMe/emailAddress=me@example.net
        Validity
            Not Before: Nov 10 17:43:33 2023 GMT
            Not After : Nov  9 17:43:33 2024 GMT
        Subject: C=US, ST=OH, L=Cincinnati, O=University of Cincinnati, OU=Dept_Elec_Com_ Eng_Com_Sci., CN=client77/emailAddress=franco@gauss.ececs.uc.edu
        Subject Public Key Info:
            Public Key Algorithm: rsaEncryption
                Public-Key: (2048 bit)
                Modulus:
                    00:e4:e9:3e:3d:5d:5c:4c:7c:62:0c:ef:ce:00:9a:
                    bb:67:a1:7c:e6:fd:08:f3:cd:80:da:bc:e4:ca:f7:
                    49:88:ba:b5:77:2a:a3:62:8c:fd:3d:91:c7:75:cf:
                    30:03:f1:8b:ff:3a:7a:5d:1f:8c:b1:76:ef:71:49:
                    5a:f3:cf:2c:99:9c:a7:b5:0d:d3:b0:24:ff:b4:3a:
                    d0:6e:a6:53:99:84:6b:d2:23:f3:94:45:3a:98:a1:
                    93:cc:31:76:e0:07:ca:f7:e6:49:c3:2f:af:ee:1e:
                    f2:86:d0:2e:18:fa:dc:bc:3f:7a:88:e1:d3:ab:9b:
                    07:9d:17:2c:b5:a1:31:d5:ad:89:5a:8b:f6:4c:c9:
                    4c:8f:76:0d:11:4c:a1:39:13:98:44:41:29:6f:40:
                    41:43:32:a3:70:c1:64:8f:0c:8e:29:25:bb:84:4d:
                    64:7d:e8:e1:e5:7b:74:90:1f:79:ae:3b:bf:c9:c4:
                    20:03:cd:3f:b7:43:b3:32:b9:6e:93:4a:58:ec:aa:
                    72:e4:90:48:d6:da:c5:05:d7:11:75:36:e1:77:a4:
                    20:f3:82:67:ce:3f:f9:06:61:d6:02:6a:a0:c0:23:
                    b3:24:de:78:b4:1c:72:bd:2c:ef:d8:58:fe:06:fb:
                    39:4f:1d:4b:39:b7:56:25:0e:b0:72:08:e0:7c:a3:
                    19:7f
                Exponent: 65537 (0x10001)
        X509v3 extensions:
            X509v3 Basic Constraints: 
                CA:FALSE
            X509v3 Subject Key Identifier: 
                8F:A1:CC:2C:E2:49:0C:E2:D1:87:A2:44:D1:94:0E:68:43:D1:94:46
            X509v3 Authority Key Identifier: 
                keyid:C8:27:DA:64:30:08:40:08:4A:25:CC:DC:43:99:DE:77:A1:FE:77:BD
                DirName:/C=US/ST=California/L=San Francisco/O=Copyleft Certificate Co/OU=My Organizational Unit/CN=ChangeMe/emailAddress=me@example.net
                serial:A9:48:C3:7E:FC:1B:B0:A1

            X509v3 Extended Key Usage: 
                TLS Web Client Authentication
            X509v3 Key Usage: 
                Digital Signature
    Signature Algorithm: sha256WithRSAEncryption
         69:b1:1d:bb:d4:f9:ae:8f:41:36:60:32:a0:c2:fe:df:a4:58:
         2d:8e:5d:87:38:71:bc:9c:b8:ee:75:f4:ca:19:c2:d3:62:f2:
         6e:21:76:48:5e:46:7e:78:3d:bc:d2:f5:0a:1a:30:41:ed:9a:
         85:b8:f5:24:6c:b3:9e:09:33:ae:6c:df:28:58:88:8e:ca:55:
         20:55:2d:ce:54:d0:88:7c:43:41:09:9e:26:6a:43:4d:8a:3b:
         83:ad:8b:55:44:c0:97:17:ad:6a:9f:be:3d:47:24:17:56:17:
         7d:22:5a:1d:8d:4c:28:5e:8d:1f:c6:bb:dc:70:f8:5b:e2:9f:
         b1:b1:6e:37:bc:26:de:c3:b9:43:e5:78:60:3f:7f:36:d6:01:
         a1:14:91:f6:82:f2:1b:48:68:1d:ba:bd:e2:ef:0b:fa:da:fe:
         1a:2a:46:aa:81:8c:b9:75:01:8b:ad:0d:7c:e9:5b:14:1b:a2:
         b3:01:8c:24:43:8f:73:ab:d4:15:91:77:9b:2e:5b:4d:45:29:
         2c:76:19:41:a5:66:b9:8c:2a:12:db:5d:b6:d4:83:32:40:b0:
         cc:b2:eb:af:7c:07:6a:3e:27:6b:fc:06:72:29:fc:35:79:9f:
         10:00:ca:21:72:4b:b4:94:74:51:45:bf:88:10:4d:5d:46:ec:
         73:c3:65:6e
-----BEGIN CERTIFICATE-----
MIIFKTCCBBGgAwIBAgIQOtr/p33WOsB/NMX8ratqfjANBgkqhkiG9w0BAQsFADCB
rzELMAkGA1UEBhMCVVMxEzARBgNVBAgMCkNhbGlmb3JuaWExFjAUBgNVBAcMDVNh
biBGcmFuY2lzY28xIDAeBgNVBAoMF0NvcHlsZWZ0IENlcnRpZmljYXRlIENvMR8w
HQYDVQQLDBZNeSBPcmdhbml6YXRpb25hbCBVbml0MREwDwYDVQQDDAhDaGFuZ2VN
ZTEdMBsGCSqGSIb3DQEJARYObWVAZXhhbXBsZS5uZXQwHhcNMjMxMTEwMTc0MzMz
WhcNMjQxMTA5MTc0MzMzWjCBtTELMAkGA1UEBhMCVVMxCzAJBgNVBAgMAk9IMRMw
EQYDVQQHDApDaW5jaW5uYXRpMSEwHwYDVQQKDBhVbml2ZXJzaXR5IG9mIENpbmNp
bm5hdGkxJDAiBgNVBAsMG0RlcHRfRWxlY19Db21fIEVuZ19Db21fU2NpLjERMA8G
A1UEAwwIY2xpZW50NzcxKDAmBgkqhkiG9w0BCQEWGWZyYW5jb0BnYXVzcy5lY2Vj
cy51Yy5lZHUwggEiMA0GCSqGSIb3DQEBAQUAA4IBDwAwggEKAoIBAQDk6T49XVxM
fGIM784AmrtnoXzm/QjzzYDavOTK90mIurV3KqNijP09kcd1zzAD8Yv/OnpdH4yx
du9xSVrzzyyZnKe1DdOwJP+0OtBuplOZhGvSI/OURTqYoZPMMXbgB8r35knDL6/u
HvKG0C4Y+ty8P3qI4dOrmwedFyy1oTHVrYlai/ZMyUyPdg0RTKE5E5hEQSlvQEFD
MqNwwWSPDI4pJbuETWR96OHle3SQH3muO7/JxCADzT+3Q7MyuW6TSljsqnLkkEjW
2sUF1xF1NuF3pCDzgmfOP/kGYdYCaqDAI7Mk3ni0HHK9LO/YWP4G+zlPHUs5t1Yl
DrByCOB8oxl/AgMBAAGjggE3MIIBMzAJBgNVHRMEAjAAMB0GA1UdDgQWBBSPocws
4kkM4tGHokTRlA5oQ9GURjCB5AYDVR0jBIHcMIHZgBTIJ9pkMAhACEolzNxDmd53
of53vaGBtaSBsjCBrzELMAkGA1UEBhMCVVMxEzARBgNVBAgMCkNhbGlmb3JuaWEx
FjAUBgNVBAcMDVNhbiBGcmFuY2lzY28xIDAeBgNVBAoMF0NvcHlsZWZ0IENlcnRp
ZmljYXRlIENvMR8wHQYDVQQLDBZNeSBPcmdhbml6YXRpb25hbCBVbml0MREwDwYD
VQQDDAhDaGFuZ2VNZTEdMBsGCSqGSIb3DQEJARYObWVAZXhhbXBsZS5uZXSCCQCp
SMN+/BuwoTATBgNVHSUEDDAKBggrBgEFBQcDAjALBgNVHQ8EBAMCB4AwDQYJKoZI
hvcNAQELBQADggEBAGmxHbvU+a6PQTZgMqDC/t+kWC2OXYc4cbycuO519MoZwtNi
8m4hdkheRn54PbzS9QoaMEHtmoW49SRss54JM65s3yhYiI7KVSBVLc5U0Ih8Q0EJ
niZqQ02KO4Oti1VEwJcXrWqfvj1HJBdWF30iWh2NTChejR/Gu9xw+Fvin7Gxbje8
Jt7DuUPleGA/fzbWAaEUkfaC8htIaB26veLvC/ra/hoqRqqBjLl1AYutDXzpWxQb
orMBjCRDj3Or1BWRd5suW01FKSx2GUGlZrmMKhLbXbbUgzJAsMyy6698B2o+J2v8
BnIp/DV5nxAAyiFyS7SUdFFFv4gQTV1G7HPDZW4=
-----END CERTIFICATE-----
