Certificate:
    Data:
        Version: 3 (0x2)
        Serial Number:
            b8:5d:e7:22:47:4e:3a:05:a0:57:26:10:80:47:9f:95
    Signature Algorithm: sha256WithRSAEncryption
        Issuer: C=US, ST=California, L=San Francisco, O=Copyleft Certificate Co, OU=My Organizational Unit, CN=ChangeMe/emailAddress=me@example.net
        Validity
            Not Before: Nov 10 17:44:30 2023 GMT
            Not After : Nov  9 17:44:30 2024 GMT
        Subject: C=US, ST=OH, L=Cincinnati, O=University of Cincinnati, OU=Dept_Elec_Com_ Eng_Com_Sci., CN=client91/emailAddress=franco@gauss.ececs.uc.edu
        Subject Public Key Info:
            Public Key Algorithm: rsaEncryption
                Public-Key: (2048 bit)
                Modulus:
                    00:a8:c2:7b:75:87:e9:39:be:1b:53:b9:b4:39:ad:
                    81:6c:97:e2:2b:fe:15:0f:bc:d2:d3:1d:8c:7b:8f:
                    64:f1:af:2f:ea:bc:b7:1b:b4:82:dd:d4:e4:52:0c:
                    71:03:e9:17:10:d1:5f:f2:af:b1:ab:3a:3a:60:79:
                    12:75:64:1b:45:09:68:6c:67:7e:06:7e:88:91:04:
                    5a:eb:9f:8c:01:0e:ad:7e:45:6e:e5:d4:6c:cf:c9:
                    00:66:ab:1c:59:c6:fc:e6:e1:93:d6:ea:c4:74:6b:
                    bf:33:1b:2d:55:5e:b5:fb:df:45:b9:0b:f7:45:47:
                    4d:a1:8a:d8:d6:a7:49:a1:8c:e4:d4:cd:fe:93:85:
                    4a:f1:19:83:cd:ee:bf:30:4b:ec:63:ab:04:0e:ee:
                    53:d3:d6:54:2a:99:16:8f:bb:d5:21:fd:48:e4:62:
                    29:26:f4:2c:51:77:b2:ee:66:78:b7:33:67:f2:53:
                    c1:47:34:e1:55:43:5d:96:9e:f3:18:99:92:5b:4d:
                    97:bd:fc:c4:c7:b4:ce:a1:f2:98:6e:3d:d8:dd:6e:
                    e6:63:d9:c6:f6:9c:11:38:73:bb:26:e7:81:e7:5d:
                    36:0d:78:fc:6d:93:00:19:89:af:ad:20:eb:95:42:
                    2c:d2:0d:ee:15:3c:16:93:cf:5f:de:65:29:9a:bf:
                    eb:9f
                Exponent: 65537 (0x10001)
        X509v3 extensions:
            X509v3 Basic Constraints: 
                CA:FALSE
            X509v3 Subject Key Identifier: 
                48:C8:FC:61:1B:8B:30:E4:8C:54:DB:DD:BA:80:30:B4:69:7B:FD:68
            X509v3 Authority Key Identifier: 
                keyid:C8:27:DA:64:30:08:40:08:4A:25:CC:DC:43:99:DE:77:A1:FE:77:BD
                DirName:/C=US/ST=California/L=San Francisco/O=Copyleft Certificate Co/OU=My Organizational Unit/CN=ChangeMe/emailAddress=me@example.net
                serial:A9:48:C3:7E:FC:1B:B0:A1

            X509v3 Extended Key Usage: 
                TLS Web Client Authentication
            X509v3 Key Usage: 
                Digital Signature
    Signature Algorithm: sha256WithRSAEncryption
         32:cc:60:df:91:ae:52:e3:c8:55:97:9c:8d:09:ad:59:d2:86:
         19:5b:61:05:bb:9d:c8:f2:88:a4:f8:93:09:49:01:ba:cf:65:
         27:dd:64:d5:65:8a:59:c9:f6:7c:0d:99:3b:2f:77:30:d3:94:
         cb:86:20:9d:f0:4b:16:b5:e2:bf:84:6f:16:47:ad:09:f8:52:
         55:08:46:13:74:30:16:ab:03:c0:b1:41:42:74:ec:a3:a0:5f:
         08:c1:13:bd:90:8c:c5:34:20:11:44:4e:68:08:a7:a8:82:b3:
         00:da:3c:ad:d3:bc:e6:a1:da:e3:00:25:de:ff:a3:3f:dc:b8:
         97:f2:62:94:1d:6e:8f:81:dc:b4:ea:df:ec:64:28:22:84:cf:
         81:09:e9:c8:3c:37:79:7d:1a:b9:86:52:ae:cb:6c:a1:3d:aa:
         1b:88:e2:10:6a:d0:bd:9c:9c:32:d0:56:b0:ae:2b:99:22:57:
         6e:8a:75:6c:9f:9f:6f:a7:b2:48:88:9d:09:dd:2e:cb:19:64:
         a2:de:df:ac:cd:85:b1:2e:58:73:cc:e6:3b:76:fe:2c:d9:61:
         a0:b1:d6:07:ba:61:a1:b9:63:07:dc:eb:80:92:78:84:ef:8b:
         24:b8:2b:0b:45:b0:ce:e0:c6:fa:6d:63:8c:bd:b3:77:c1:9d:
         2d:b2:b7:0b
-----BEGIN CERTIFICATE-----
MIIFKjCCBBKgAwIBAgIRALhd5yJHTjoFoFcmEIBHn5UwDQYJKoZIhvcNAQELBQAw
ga8xCzAJBgNVBAYTAlVTMRMwEQYDVQQIDApDYWxpZm9ybmlhMRYwFAYDVQQHDA1T
YW4gRnJhbmNpc2NvMSAwHgYDVQQKDBdDb3B5bGVmdCBDZXJ0aWZpY2F0ZSBDbzEf
MB0GA1UECwwWTXkgT3JnYW5pemF0aW9uYWwgVW5pdDERMA8GA1UEAwwIQ2hhbmdl
TWUxHTAbBgkqhkiG9w0BCQEWDm1lQGV4YW1wbGUubmV0MB4XDTIzMTExMDE3NDQz
MFoXDTI0MTEwOTE3NDQzMFowgbUxCzAJBgNVBAYTAlVTMQswCQYDVQQIDAJPSDET
MBEGA1UEBwwKQ2luY2lubmF0aTEhMB8GA1UECgwYVW5pdmVyc2l0eSBvZiBDaW5j
aW5uYXRpMSQwIgYDVQQLDBtEZXB0X0VsZWNfQ29tXyBFbmdfQ29tX1NjaS4xETAP
BgNVBAMMCGNsaWVudDkxMSgwJgYJKoZIhvcNAQkBFhlmcmFuY29AZ2F1c3MuZWNl
Y3MudWMuZWR1MIIBIjANBgkqhkiG9w0BAQEFAAOCAQ8AMIIBCgKCAQEAqMJ7dYfp
Ob4bU7m0Oa2BbJfiK/4VD7zS0x2Me49k8a8v6ry3G7SC3dTkUgxxA+kXENFf8q+x
qzo6YHkSdWQbRQlobGd+Bn6IkQRa65+MAQ6tfkVu5dRsz8kAZqscWcb85uGT1urE
dGu/MxstVV61+99FuQv3RUdNoYrY1qdJoYzk1M3+k4VK8RmDze6/MEvsY6sEDu5T
09ZUKpkWj7vVIf1I5GIpJvQsUXey7mZ4tzNn8lPBRzThVUNdlp7zGJmSW02XvfzE
x7TOofKYbj3Y3W7mY9nG9pwROHO7JueB5102DXj8bZMAGYmvrSDrlUIs0g3uFTwW
k89f3mUpmr/rnwIDAQABo4IBNzCCATMwCQYDVR0TBAIwADAdBgNVHQ4EFgQUSMj8
YRuLMOSMVNvduoAwtGl7/WgwgeQGA1UdIwSB3DCB2YAUyCfaZDAIQAhKJczcQ5ne
d6H+d72hgbWkgbIwga8xCzAJBgNVBAYTAlVTMRMwEQYDVQQIDApDYWxpZm9ybmlh
MRYwFAYDVQQHDA1TYW4gRnJhbmNpc2NvMSAwHgYDVQQKDBdDb3B5bGVmdCBDZXJ0
aWZpY2F0ZSBDbzEfMB0GA1UECwwWTXkgT3JnYW5pemF0aW9uYWwgVW5pdDERMA8G
A1UEAwwIQ2hhbmdlTWUxHTAbBgkqhkiG9w0BCQEWDm1lQGV4YW1wbGUubmV0ggkA
qUjDfvwbsKEwEwYDVR0lBAwwCgYIKwYBBQUHAwIwCwYDVR0PBAQDAgeAMA0GCSqG
SIb3DQEBCwUAA4IBAQAyzGDfka5S48hVl5yNCa1Z0oYZW2EFu53I8oik+JMJSQG6
z2Un3WTVZYpZyfZ8DZk7L3cw05TLhiCd8EsWteK/hG8WR60J+FJVCEYTdDAWqwPA
sUFCdOyjoF8IwRO9kIzFNCARRE5oCKeogrMA2jyt07zmodrjACXe/6M/3LiX8mKU
HW6Pgdy06t/sZCgihM+BCenIPDd5fRq5hlKuy2yhPaobiOIQatC9nJwy0FawriuZ
IlduinVsn59vp7JIiJ0J3S7LGWSi3t+szYWxLlhzzOY7dv4s2WGgsdYHumGhuWMH
3OuAkniE74skuCsLRbDO4Mb6bWOMvbN3wZ0tsrcL
-----END CERTIFICATE-----
