Certificate:
    Data:
        Version: 3 (0x2)
        Serial Number:
            34:75:2f:31:67:a1:cd:70:6a:24:ae:55:92:59:ed:a2
    Signature Algorithm: sha256WithRSAEncryption
        Issuer: C=US, ST=California, L=San Francisco, O=Copyleft Certificate Co, OU=My Organizational Unit, CN=ChangeMe/emailAddress=me@example.net
        Validity
            Not Before: Nov 11 10:56:44 2023 GMT
            Not After : Nov 10 10:56:44 2024 GMT
        Subject: C=US, ST=OH, L=Cincinnati, O=University of Cincinnati, OU=Dept. Elec. Comp. Eng. Comp. Sci., CN=client22/emailAddress=franco@gauss.ececs.uc.edu
        Subject Public Key Info:
            Public Key Algorithm: rsaEncryption
                Public-Key: (2048 bit)
                Modulus:
                    00:ac:06:37:18:bf:d1:8e:0a:94:e9:09:17:e2:66:
                    83:d7:48:c9:fe:23:fb:d3:a0:50:fd:d2:95:f8:42:
                    ce:ce:85:33:00:17:10:95:27:ea:51:20:be:0d:0f:
                    9c:81:13:ac:45:db:6f:cc:40:72:1f:44:82:53:96:
                    bc:94:dc:6b:6e:ee:c0:85:b1:74:e7:d1:da:e3:a3:
                    f7:16:02:4c:28:82:6a:b4:a5:0b:f1:6b:94:03:6f:
                    8a:07:57:c9:f0:ce:31:81:14:10:24:e6:13:11:14:
                    71:a9:44:80:1a:60:85:f0:62:78:f3:c3:12:45:89:
                    1d:1e:f5:ac:56:a9:f3:66:9f:c1:9c:76:49:75:74:
                    62:c0:dd:8f:6a:4f:f7:47:51:ec:9c:91:66:0f:de:
                    6f:ca:10:07:f3:c8:0c:a1:19:83:d7:46:63:90:d3:
                    79:28:4c:73:09:b7:3a:d2:69:f7:33:d5:11:fb:f4:
                    89:88:b2:ee:14:1a:c3:f8:cb:8c:88:7e:eb:32:96:
                    f3:bc:cc:64:0b:29:d8:cd:60:3a:1f:a2:86:db:9f:
                    f6:0e:dd:e7:97:cb:c8:d0:60:d3:98:21:8e:e6:e7:
                    f0:15:f8:8e:2b:d3:18:8f:37:71:f2:26:ee:9a:8c:
                    62:b5:05:25:0b:b5:c2:29:c5:62:6e:44:de:65:c7:
                    4f:a5
                Exponent: 65537 (0x10001)
        X509v3 extensions:
            X509v3 Basic Constraints: 
                CA:FALSE
            X509v3 Subject Key Identifier: 
                5E:35:17:F7:33:84:EB:F4:CE:1E:BD:EE:09:3B:A5:73:1E:7A:AF:61
            X509v3 Authority Key Identifier: 
                keyid:44:01:CC:06:0B:41:75:CB:C8:FB:C9:37:86:2D:9D:D2:D8:79:B6:8B
                DirName:/C=US/ST=California/L=San Francisco/O=Copyleft Certificate Co/OU=My Organizational Unit/CN=ChangeMe/emailAddress=me@example.net
                serial:AF:E8:E0:DD:C5:8B:0E:DD

            X509v3 Extended Key Usage: 
                TLS Web Client Authentication
            X509v3 Key Usage: 
                Digital Signature
    Signature Algorithm: sha256WithRSAEncryption
         0d:67:be:38:5e:7a:71:78:93:ea:ad:d6:f1:cb:ea:f1:26:48:
         62:b6:e8:6e:0e:1d:ad:bf:9f:70:2d:b9:8c:a4:43:ed:0c:68:
         f7:4a:64:61:48:69:a2:2d:8d:5c:b7:ef:15:26:85:4b:8b:50:
         72:1f:e0:f4:55:bf:f4:79:d4:30:df:e8:24:7a:d2:dd:92:45:
         61:9a:2d:d9:7a:60:57:a6:ae:2c:30:8b:91:9d:ad:68:41:59:
         ad:be:be:09:53:b4:2d:ab:76:54:25:09:b1:6e:36:cc:af:56:
         78:22:71:d2:70:cc:d0:4e:53:da:ac:6b:34:ea:e5:99:a4:a7:
         95:b2:29:ce:0f:d9:d7:99:dc:1d:7b:cd:f5:34:69:91:1b:84:
         53:59:1d:f7:1b:f2:b2:17:86:2f:d8:20:fe:bf:1d:67:ea:ca:
         7e:3f:aa:c6:e3:b4:f6:e4:ee:fc:ab:02:0b:51:6d:95:7d:c1:
         f8:c3:a4:6f:ab:5b:48:bb:92:85:96:4a:32:ab:df:c3:fc:6b:
         1a:f8:51:bb:17:b7:d5:04:57:03:ed:9d:d3:b2:3b:86:81:06:
         00:25:16:ea:27:d8:a2:08:3a:84:d9:cc:e6:70:ec:12:b2:c7:
         ce:7b:6c:36:4c:a5:b2:6d:a2:48:04:ad:65:e6:72:2b:f6:ce:
         d6:15:33:29
-----BEGIN CERTIFICATE-----
MIIFLzCCBBegAwIBAgIQNHUvMWehzXBqJK5VklntojANBgkqhkiG9w0BAQsFADCB
rzELMAkGA1UEBhMCVVMxEzARBgNVBAgMCkNhbGlmb3JuaWExFjAUBgNVBAcMDVNh
biBGcmFuY2lzY28xIDAeBgNVBAoMF0NvcHlsZWZ0IENlcnRpZmljYXRlIENvMR8w
HQYDVQQLDBZNeSBPcmdhbml6YXRpb25hbCBVbml0MREwDwYDVQQDDAhDaGFuZ2VN
ZTEdMBsGCSqGSIb3DQEJARYObWVAZXhhbXBsZS5uZXQwHhcNMjMxMTExMTA1NjQ0
WhcNMjQxMTEwMTA1NjQ0WjCBuzELMAkGA1UEBhMCVVMxCzAJBgNVBAgMAk9IMRMw
EQYDVQQHDApDaW5jaW5uYXRpMSEwHwYDVQQKDBhVbml2ZXJzaXR5IG9mIENpbmNp
bm5hdGkxKjAoBgNVBAsMIURlcHQuIEVsZWMuIENvbXAuIEVuZy4gQ29tcC4gU2Np
LjERMA8GA1UEAwwIY2xpZW50MjIxKDAmBgkqhkiG9w0BCQEWGWZyYW5jb0BnYXVz
cy5lY2Vjcy51Yy5lZHUwggEiMA0GCSqGSIb3DQEBAQUAA4IBDwAwggEKAoIBAQCs
BjcYv9GOCpTpCRfiZoPXSMn+I/vToFD90pX4Qs7OhTMAFxCVJ+pRIL4ND5yBE6xF
22/MQHIfRIJTlryU3Gtu7sCFsXTn0drjo/cWAkwogmq0pQvxa5QDb4oHV8nwzjGB
FBAk5hMRFHGpRIAaYIXwYnjzwxJFiR0e9axWqfNmn8Gcdkl1dGLA3Y9qT/dHUeyc
kWYP3m/KEAfzyAyhGYPXRmOQ03koTHMJtzrSafcz1RH79ImIsu4UGsP4y4yIfusy
lvO8zGQLKdjNYDofoobbn/YO3eeXy8jQYNOYIY7m5/AV+I4r0xiPN3HyJu6ajGK1
BSULtcIpxWJuRN5lx0+lAgMBAAGjggE3MIIBMzAJBgNVHRMEAjAAMB0GA1UdDgQW
BBReNRf3M4Tr9M4eve4JO6VzHnqvYTCB5AYDVR0jBIHcMIHZgBREAcwGC0F1y8j7
yTeGLZ3S2Hm2i6GBtaSBsjCBrzELMAkGA1UEBhMCVVMxEzARBgNVBAgMCkNhbGlm
b3JuaWExFjAUBgNVBAcMDVNhbiBGcmFuY2lzY28xIDAeBgNVBAoMF0NvcHlsZWZ0
IENlcnRpZmljYXRlIENvMR8wHQYDVQQLDBZNeSBPcmdhbml6YXRpb25hbCBVbml0
MREwDwYDVQQDDAhDaGFuZ2VNZTEdMBsGCSqGSIb3DQEJARYObWVAZXhhbXBsZS5u
ZXSCCQCv6ODdxYsO3TATBgNVHSUEDDAKBggrBgEFBQcDAjALBgNVHQ8EBAMCB4Aw
DQYJKoZIhvcNAQELBQADggEBAA1nvjheenF4k+qt1vHL6vEmSGK26G4OHa2/n3At
uYykQ+0MaPdKZGFIaaItjVy37xUmhUuLUHIf4PRVv/R51DDf6CR60t2SRWGaLdl6
YFemriwwi5GdrWhBWa2+vglTtC2rdlQlCbFuNsyvVngicdJwzNBOU9qsazTq5Zmk
p5WyKc4P2deZ3B17zfU0aZEbhFNZHfcb8rIXhi/YIP6/HWfqyn4/qsbjtPbk7vyr
AgtRbZV9wfjDpG+rW0i7koWWSjKr38P8axr4UbsXt9UEVwPtndOyO4aBBgAlFuon
2KIIOoTZzOZw7BKyx857bDZMpbJtokgErWXmciv2ztYVMyk=
-----END CERTIFICATE-----
