Certificate:
    Data:
        Version: 3 (0x2)
        Serial Number:
            ff:56:ec:d8:49:3d:a5:74:ec:2b:78:15:ec:f0:be:f6
    Signature Algorithm: sha256WithRSAEncryption
        Issuer: C=US, ST=California, L=San Francisco, O=Copyleft Certificate Co, OU=My Organizational Unit, CN=ChangeMe/emailAddress=me@example.net
        Validity
            Not Before: Jan 23 18:28:40 2021 GMT
            Not After : Jan 23 18:28:40 2022 GMT
        Subject: C=US, ST=OH, L=Cincinnati, O=University of Cincinnati, OU=Dept. Electrical Eng. and Computer Sci., CN=client60/emailAddress=franco@gauss.ececs.uc.edu
        Subject Public Key Info:
            Public Key Algorithm: rsaEncryption
                Public-Key: (2048 bit)
                Modulus:
                    00:ca:6e:9d:29:f7:42:03:a8:ae:a7:be:06:8a:27:
                    1f:e2:07:a4:ea:21:25:44:72:cb:8e:00:17:14:c4:
                    74:44:b9:cd:b7:55:a0:c5:24:14:3b:33:96:fa:cd:
                    1f:75:79:a9:d6:3b:02:44:49:80:3b:3a:ed:1e:c4:
                    ca:22:e4:c1:99:84:d7:db:1d:62:73:c2:de:95:5d:
                    74:76:4e:37:2b:af:a0:67:7d:43:6e:11:32:13:4a:
                    ba:07:07:0b:5c:59:cb:74:f8:8a:0a:b5:f2:3f:18:
                    ca:2b:95:08:49:55:30:d0:2e:b9:f7:77:12:98:98:
                    c5:31:28:38:97:b4:f9:c5:e8:14:2a:39:b2:fb:cb:
                    64:12:04:1c:fd:9a:f8:71:27:2f:b0:72:70:fd:c4:
                    bb:32:b8:10:ad:f4:39:c8:65:b3:12:d0:4a:96:b9:
                    37:cc:ed:b8:7e:a8:3f:04:12:ff:bb:91:25:02:18:
                    13:48:08:18:57:fa:d2:c5:a3:45:83:76:16:04:04:
                    d7:c7:99:91:81:4e:75:e5:50:2e:50:27:fe:4e:5a:
                    71:7e:41:b5:a1:5c:72:cb:03:9b:71:29:36:1e:13:
                    c9:73:a9:fb:c3:7a:da:d0:00:f2:d6:f8:fb:9d:ab:
                    40:47:f0:a3:a8:1f:a2:cc:b7:0f:9f:cc:e6:24:15:
                    68:a1
                Exponent: 65537 (0x10001)
        X509v3 extensions:
            X509v3 Basic Constraints: 
                CA:FALSE
            X509v3 Subject Key Identifier: 
                56:53:2D:EA:5F:1A:FE:53:79:03:3B:01:BC:34:CC:FF:66:9B:2B:D9
            X509v3 Authority Key Identifier: 
                keyid:EF:DC:B6:3D:4B:FD:A7:87:05:C5:22:3D:8B:DC:BF:99:2A:EE:E4:DB
                DirName:/C=US/ST=California/L=San Francisco/O=Copyleft Certificate Co/OU=My Organizational Unit/CN=ChangeMe/emailAddress=me@example.net
                serial:87:1E:1D:DC:6B:8C:66:88

            X509v3 Extended Key Usage: 
                TLS Web Client Authentication
            X509v3 Key Usage: 
                Digital Signature
    Signature Algorithm: sha256WithRSAEncryption
         23:4b:c8:ee:ea:9b:b8:a5:38:b1:2e:22:ab:7e:47:0a:1c:89:
         e0:f6:89:12:ba:89:c7:52:b4:30:09:45:4e:91:1b:a9:b7:16:
         c9:79:27:1b:bf:0e:91:ac:04:03:26:54:2c:23:7b:49:bf:44:
         69:af:1b:f7:76:e1:27:2c:0b:29:35:97:87:9b:cb:f0:3d:58:
         ef:02:f8:b0:36:05:e7:74:1e:0a:96:b1:8e:de:50:a6:3b:c2:
         17:99:08:3c:92:c8:7e:24:8b:40:dc:cf:96:9b:55:4b:86:20:
         71:77:6a:89:ff:d5:b8:c3:36:21:0f:30:1f:bd:95:f2:4e:4e:
         d4:9b:7b:ee:1e:15:a6:87:ff:0e:31:82:ff:1a:18:08:0f:99:
         b8:83:51:41:46:96:03:4f:2c:75:13:34:06:76:c9:1b:1b:ba:
         8d:51:fc:65:f0:12:1d:11:4e:37:e0:b2:36:70:0b:27:63:08:
         d8:b8:b7:3c:90:b0:b4:b6:b0:6b:9c:ff:87:89:8e:b1:0c:da:
         07:00:fe:b9:df:ff:5b:23:00:8e:00:9d:48:aa:c7:4c:23:e0:
         92:ac:ea:97:e7:e4:fa:c0:5e:23:c9:c8:75:df:bf:fa:d3:d1:
         2d:16:71:99:60:cb:a6:f5:9f:66:35:d9:25:ee:70:34:9b:3a:
         bd:16:92:c6
-----BEGIN CERTIFICATE-----
MIIFNjCCBB6gAwIBAgIRAP9W7NhJPaV07Ct4FezwvvYwDQYJKoZIhvcNAQELBQAw
ga8xCzAJBgNVBAYTAlVTMRMwEQYDVQQIDApDYWxpZm9ybmlhMRYwFAYDVQQHDA1T
YW4gRnJhbmNpc2NvMSAwHgYDVQQKDBdDb3B5bGVmdCBDZXJ0aWZpY2F0ZSBDbzEf
MB0GA1UECwwWTXkgT3JnYW5pemF0aW9uYWwgVW5pdDERMA8GA1UEAwwIQ2hhbmdl
TWUxHTAbBgkqhkiG9w0BCQEWDm1lQGV4YW1wbGUubmV0MB4XDTIxMDEyMzE4Mjg0
MFoXDTIyMDEyMzE4Mjg0MFowgcExCzAJBgNVBAYTAlVTMQswCQYDVQQIDAJPSDET
MBEGA1UEBwwKQ2luY2lubmF0aTEhMB8GA1UECgwYVW5pdmVyc2l0eSBvZiBDaW5j
aW5uYXRpMTAwLgYDVQQLDCdEZXB0LiBFbGVjdHJpY2FsIEVuZy4gYW5kIENvbXB1
dGVyIFNjaS4xETAPBgNVBAMMCGNsaWVudDYwMSgwJgYJKoZIhvcNAQkBFhlmcmFu
Y29AZ2F1c3MuZWNlY3MudWMuZWR1MIIBIjANBgkqhkiG9w0BAQEFAAOCAQ8AMIIB
CgKCAQEAym6dKfdCA6iup74Giicf4gek6iElRHLLjgAXFMR0RLnNt1WgxSQUOzOW
+s0fdXmp1jsCREmAOzrtHsTKIuTBmYTX2x1ic8LelV10dk43K6+gZ31DbhEyE0q6
BwcLXFnLdPiKCrXyPxjKK5UISVUw0C6593cSmJjFMSg4l7T5xegUKjmy+8tkEgQc
/Zr4cScvsHJw/cS7MrgQrfQ5yGWzEtBKlrk3zO24fqg/BBL/u5ElAhgTSAgYV/rS
xaNFg3YWBATXx5mRgU515VAuUCf+TlpxfkG1oVxyywObcSk2HhPJc6n7w3ra0ADy
1vj7natAR/CjqB+izLcPn8zmJBVooQIDAQABo4IBNzCCATMwCQYDVR0TBAIwADAd
BgNVHQ4EFgQUVlMt6l8a/lN5AzsBvDTM/2abK9kwgeQGA1UdIwSB3DCB2YAU79y2
PUv9p4cFxSI9i9y/mSru5NuhgbWkgbIwga8xCzAJBgNVBAYTAlVTMRMwEQYDVQQI
DApDYWxpZm9ybmlhMRYwFAYDVQQHDA1TYW4gRnJhbmNpc2NvMSAwHgYDVQQKDBdD
b3B5bGVmdCBDZXJ0aWZpY2F0ZSBDbzEfMB0GA1UECwwWTXkgT3JnYW5pemF0aW9u
YWwgVW5pdDERMA8GA1UEAwwIQ2hhbmdlTWUxHTAbBgkqhkiG9w0BCQEWDm1lQGV4
YW1wbGUubmV0ggkAhx4d3GuMZogwEwYDVR0lBAwwCgYIKwYBBQUHAwIwCwYDVR0P
BAQDAgeAMA0GCSqGSIb3DQEBCwUAA4IBAQAjS8ju6pu4pTixLiKrfkcKHIng9okS
uonHUrQwCUVOkRuptxbJeScbvw6RrAQDJlQsI3tJv0Rprxv3duEnLAspNZeHm8vw
PVjvAviwNgXndB4KlrGO3lCmO8IXmQg8ksh+JItA3M+Wm1VLhiBxd2qJ/9W4wzYh
DzAfvZXyTk7Um3vuHhWmh/8OMYL/GhgID5m4g1FBRpYDTyx1EzQGdskbG7qNUfxl
8BIdEU434LI2cAsnYwjYuLc8kLC0trBrnP+HiY6xDNoHAP653/9bIwCOAJ1IqsdM
I+CSrOqX5+T6wF4jych137/609EtFnGZYMum9Z9mNdkl7nA0mzq9FpLG
-----END CERTIFICATE-----
