Certificate:
    Data:
        Version: 3 (0x2)
        Serial Number:
            af:2d:b8:df:a1:c6:6f:ac:9d:12:f3:93:7d:5c:18:61
    Signature Algorithm: sha256WithRSAEncryption
        Issuer: C=US, ST=California, L=San Francisco, O=Copyleft Certificate Co, OU=My Organizational Unit, CN=ChangeMe/emailAddress=me@example.net
        Validity
            Not Before: Nov 11 01:47:22 2023 GMT
            Not After : Nov 10 01:47:22 2024 GMT
        Subject: C=US, ST=OH, L=Cincinnati, O=University of Cincinnati, OU=Dept. Elec. Comp. Eng. Comp. Sci., CN=client115/emailAddress=franco@gauss.ececs.uc.edu
        Subject Public Key Info:
            Public Key Algorithm: rsaEncryption
                Public-Key: (2048 bit)
                Modulus:
                    00:d1:36:cd:c9:85:cd:19:ea:fa:f5:e1:a9:fb:d1:
                    78:3a:8a:44:76:3b:45:de:cf:40:40:57:88:b6:e1:
                    3f:60:da:9a:2a:84:15:51:61:c8:75:43:1c:9e:ce:
                    7d:16:8b:0e:a7:1c:9f:25:4f:d9:66:68:c1:1f:42:
                    78:38:f8:c2:da:39:cb:b0:ad:c0:bc:db:40:a5:c7:
                    d9:80:e9:b1:9a:ce:ba:db:26:74:ac:31:97:33:22:
                    2c:37:63:4f:d2:ae:9d:68:24:34:37:12:6a:e3:0c:
                    a0:05:8a:0b:6f:ae:54:22:68:39:5d:e2:d2:47:91:
                    5b:06:cd:cd:50:99:26:84:cc:e1:f8:18:69:f6:7a:
                    b1:fa:99:1e:eb:50:50:12:4f:e7:be:0c:77:6b:4e:
                    4a:89:94:a5:75:f2:1b:d8:db:18:b3:e2:d1:08:e7:
                    9a:a9:84:54:2f:78:2e:db:f0:cf:cd:c8:ad:91:57:
                    c1:2e:92:6a:76:02:4b:a5:75:da:85:ca:57:32:14:
                    6a:2e:b9:e2:c1:d8:9e:dd:28:a4:41:44:6d:d0:22:
                    18:d3:eb:51:90:e6:7f:8e:84:ce:a8:4d:4e:13:ec:
                    2d:b0:e9:97:70:c4:0a:47:5b:d7:10:fc:a9:cc:c3:
                    f7:e7:80:18:a2:93:8e:e0:41:7b:02:4d:81:1e:03:
                    47:79
                Exponent: 65537 (0x10001)
        X509v3 extensions:
            X509v3 Basic Constraints: 
                CA:FALSE
            X509v3 Subject Key Identifier: 
                F8:8B:51:C9:9D:F2:7D:7C:0F:47:62:8B:AB:1C:7C:FF:D4:C5:F7:9E
            X509v3 Authority Key Identifier: 
                keyid:73:DE:A0:43:0F:AE:B1:9E:E8:59:69:18:50:A1:1A:1F:D4:A1:E3:F0
                DirName:/C=US/ST=California/L=San Francisco/O=Copyleft Certificate Co/OU=My Organizational Unit/CN=ChangeMe/emailAddress=me@example.net
                serial:E9:BB:CB:16:C5:32:BE:3B

            X509v3 Extended Key Usage: 
                TLS Web Client Authentication
            X509v3 Key Usage: 
                Digital Signature
    Signature Algorithm: sha256WithRSAEncryption
         4b:92:db:9b:c8:95:20:ce:31:2b:cb:cd:cb:ba:44:5e:41:92:
         0d:15:0b:5a:cb:79:9f:5d:55:77:ad:30:d2:5a:a2:0d:a0:b7:
         be:6a:a4:5e:40:fb:ca:52:d8:43:5f:38:a6:a7:6d:12:57:e2:
         fc:00:c6:32:96:4e:7c:49:4f:54:93:dc:a1:cb:af:d2:c7:c2:
         11:5a:72:15:a6:0e:01:f5:8f:1f:67:11:e6:3b:ca:5d:ef:44:
         c8:f1:ec:63:33:24:aa:48:ad:32:76:80:87:69:3c:34:5e:e8:
         a9:33:a4:e0:0f:3e:7c:6d:a7:bc:f2:69:48:84:46:af:0f:31:
         fe:be:3c:a1:5f:fb:cd:e0:84:e0:79:33:fc:42:27:33:40:d6:
         8a:83:ef:08:54:94:bc:d3:b8:35:60:fa:16:de:8b:ce:4b:26:
         e6:5b:05:7b:b2:04:71:34:c6:f6:54:03:0a:5f:d8:e3:9f:82:
         57:31:6a:bd:3b:b7:d3:68:39:01:26:96:ae:b2:d9:23:e0:d0:
         cb:1b:cb:11:e8:e4:7a:b1:fc:08:09:9f:8e:a9:50:72:72:10:
         b9:0e:c4:34:ea:86:2e:a6:b3:88:42:9a:62:22:4b:9d:00:d1:
         98:1a:38:d7:73:76:6f:7c:6c:12:f5:73:c1:7c:e2:ef:78:84:
         61:74:5e:54
-----BEGIN CERTIFICATE-----
MIIFMTCCBBmgAwIBAgIRAK8tuN+hxm+snRLzk31cGGEwDQYJKoZIhvcNAQELBQAw
ga8xCzAJBgNVBAYTAlVTMRMwEQYDVQQIDApDYWxpZm9ybmlhMRYwFAYDVQQHDA1T
YW4gRnJhbmNpc2NvMSAwHgYDVQQKDBdDb3B5bGVmdCBDZXJ0aWZpY2F0ZSBDbzEf
MB0GA1UECwwWTXkgT3JnYW5pemF0aW9uYWwgVW5pdDERMA8GA1UEAwwIQ2hhbmdl
TWUxHTAbBgkqhkiG9w0BCQEWDm1lQGV4YW1wbGUubmV0MB4XDTIzMTExMTAxNDcy
MloXDTI0MTExMDAxNDcyMlowgbwxCzAJBgNVBAYTAlVTMQswCQYDVQQIDAJPSDET
MBEGA1UEBwwKQ2luY2lubmF0aTEhMB8GA1UECgwYVW5pdmVyc2l0eSBvZiBDaW5j
aW5uYXRpMSowKAYDVQQLDCFEZXB0LiBFbGVjLiBDb21wLiBFbmcuIENvbXAuIFNj
aS4xEjAQBgNVBAMMCWNsaWVudDExNTEoMCYGCSqGSIb3DQEJARYZZnJhbmNvQGdh
dXNzLmVjZWNzLnVjLmVkdTCCASIwDQYJKoZIhvcNAQEBBQADggEPADCCAQoCggEB
ANE2zcmFzRnq+vXhqfvReDqKRHY7Rd7PQEBXiLbhP2DamiqEFVFhyHVDHJ7OfRaL
DqccnyVP2WZowR9CeDj4wto5y7CtwLzbQKXH2YDpsZrOutsmdKwxlzMiLDdjT9Ku
nWgkNDcSauMMoAWKC2+uVCJoOV3i0keRWwbNzVCZJoTM4fgYafZ6sfqZHutQUBJP
574Md2tOSomUpXXyG9jbGLPi0QjnmqmEVC94Ltvwz83IrZFXwS6SanYCS6V12oXK
VzIUai654sHYnt0opEFEbdAiGNPrUZDmf46EzqhNThPsLbDpl3DECkdb1xD8qczD
9+eAGKKTjuBBewJNgR4DR3kCAwEAAaOCATcwggEzMAkGA1UdEwQCMAAwHQYDVR0O
BBYEFPiLUcmd8n18D0dii6scfP/UxfeeMIHkBgNVHSMEgdwwgdmAFHPeoEMPrrGe
6FlpGFChGh/UoePwoYG1pIGyMIGvMQswCQYDVQQGEwJVUzETMBEGA1UECAwKQ2Fs
aWZvcm5pYTEWMBQGA1UEBwwNU2FuIEZyYW5jaXNjbzEgMB4GA1UECgwXQ29weWxl
ZnQgQ2VydGlmaWNhdGUgQ28xHzAdBgNVBAsMFk15IE9yZ2FuaXphdGlvbmFsIFVu
aXQxETAPBgNVBAMMCENoYW5nZU1lMR0wGwYJKoZIhvcNAQkBFg5tZUBleGFtcGxl
Lm5ldIIJAOm7yxbFMr47MBMGA1UdJQQMMAoGCCsGAQUFBwMCMAsGA1UdDwQEAwIH
gDANBgkqhkiG9w0BAQsFAAOCAQEAS5Lbm8iVIM4xK8vNy7pEXkGSDRULWst5n11V
d60w0lqiDaC3vmqkXkD7ylLYQ184pqdtElfi/ADGMpZOfElPVJPcocuv0sfCEVpy
FaYOAfWPH2cR5jvKXe9EyPHsYzMkqkitMnaAh2k8NF7oqTOk4A8+fG2nvPJpSIRG
rw8x/r48oV/7zeCE4Hkz/EInM0DWioPvCFSUvNO4NWD6Ft6Lzksm5lsFe7IEcTTG
9lQDCl/Y45+CVzFqvTu302g5ASaWrrLZI+DQyxvLEejkerH8CAmfjqlQcnIQuQ7E
NOqGLqaziEKaYiJLnQDRmBo413N2b3xsEvVzwXzi73iEYXReVA==
-----END CERTIFICATE-----
