Certificate:
    Data:
        Version: 3 (0x2)
        Serial Number:
            c6:c3:13:18:c3:6c:2f:9c:20:d4:33:4d:6e:bf:f9:cb
    Signature Algorithm: sha256WithRSAEncryption
        Issuer: C=US, ST=California, L=San Francisco, O=Copyleft Certificate Co, OU=My Organizational Unit, CN=ChangeMe/emailAddress=me@example.net
        Validity
            Not Before: Nov 10 17:42:33 2023 GMT
            Not After : Nov  9 17:42:33 2024 GMT
        Subject: C=US, ST=OH, L=Cincinnati, O=University of Cincinnati, OU=Dept_Elec_Com_ Eng_Com_Sci., CN=client62/emailAddress=franco@gauss.ececs.uc.edu
        Subject Public Key Info:
            Public Key Algorithm: rsaEncryption
                Public-Key: (2048 bit)
                Modulus:
                    00:c5:ed:4f:25:46:af:8d:2a:2c:ff:e8:b0:88:67:
                    96:bb:f8:57:ae:d6:83:79:97:98:f0:2d:5b:07:88:
                    c1:1d:ea:4b:35:c4:3b:a9:10:56:59:fc:ae:51:95:
                    c4:13:90:82:fd:b7:58:c6:f2:9a:66:9b:a7:60:13:
                    a0:83:22:13:e4:ae:9e:a7:c7:9d:00:db:86:44:bb:
                    4a:f0:e7:50:d5:fa:30:43:7f:17:b0:66:94:36:96:
                    f0:e9:b3:3a:65:8d:36:2b:ee:db:c5:22:c5:31:60:
                    63:7f:83:4b:8a:bc:44:62:25:ea:1f:90:01:ac:f8:
                    ea:04:5e:16:62:9b:fc:fc:9e:ea:9d:ef:85:01:d8:
                    51:6c:fb:cc:6b:e8:08:ae:a8:be:ec:c8:43:ca:69:
                    dd:71:5b:42:5b:ca:e2:45:b7:a0:f5:c6:4b:6b:0a:
                    0b:01:cb:45:9b:9a:37:cd:46:97:39:a3:13:fb:1c:
                    e7:61:24:30:93:dc:ee:73:0f:b5:ba:33:6f:00:2c:
                    52:b7:25:f1:5b:9b:b5:97:13:d7:35:ca:52:27:f6:
                    4b:0d:09:0f:9e:40:23:32:9d:ab:9a:bc:42:73:7e:
                    68:a4:5d:fc:48:aa:1c:17:70:1c:46:93:29:27:7a:
                    ec:e5:f8:b8:96:de:71:36:8e:ad:84:ff:34:0e:a8:
                    5e:e7
                Exponent: 65537 (0x10001)
        X509v3 extensions:
            X509v3 Basic Constraints: 
                CA:FALSE
            X509v3 Subject Key Identifier: 
                6F:1C:96:69:59:FB:24:AD:5A:EA:DC:DB:45:16:88:80:33:6B:DF:D3
            X509v3 Authority Key Identifier: 
                keyid:C8:27:DA:64:30:08:40:08:4A:25:CC:DC:43:99:DE:77:A1:FE:77:BD
                DirName:/C=US/ST=California/L=San Francisco/O=Copyleft Certificate Co/OU=My Organizational Unit/CN=ChangeMe/emailAddress=me@example.net
                serial:A9:48:C3:7E:FC:1B:B0:A1

            X509v3 Extended Key Usage: 
                TLS Web Client Authentication
            X509v3 Key Usage: 
                Digital Signature
    Signature Algorithm: sha256WithRSAEncryption
         0d:11:89:af:69:8e:aa:64:57:b5:97:64:6a:36:af:16:3e:f7:
         39:ed:72:a5:7e:4a:33:0e:d2:b6:97:86:b5:e4:e5:78:4b:4d:
         a6:63:64:7f:b5:47:3a:e9:82:b9:e8:0e:91:b1:cd:b6:fc:05:
         5d:40:ad:8f:ab:68:02:af:00:74:f3:e8:ae:66:64:e1:08:f3:
         e8:a9:9e:81:d6:0b:0b:50:02:49:5b:94:4e:0c:99:c9:ff:66:
         86:6f:ad:ce:e5:80:9b:c2:90:f6:7c:e8:a3:91:52:89:96:a7:
         a6:6b:83:8c:27:e9:fc:88:3b:86:30:7f:24:41:0a:7f:33:c4:
         41:7f:49:8e:e6:37:f8:5c:fa:7a:34:6f:b0:ed:1b:59:3a:38:
         82:12:54:e2:85:78:f2:4c:35:96:4c:ca:71:d3:e3:cf:af:85:
         39:95:c0:9a:fe:a9:f0:ff:ff:fc:a2:0d:45:0f:f9:75:f2:7c:
         ee:1e:94:14:0c:e9:95:6c:d0:e2:9b:ea:eb:9c:66:07:2d:7b:
         11:bb:a0:38:54:bf:d6:4e:28:5b:2b:fa:52:ef:7a:83:47:84:
         0b:84:62:97:e8:78:25:b6:54:df:41:e5:62:ba:e9:85:fc:5c:
         bd:24:e2:a7:7b:2d:52:e8:49:f0:0a:91:38:35:66:06:15:9d:
         a7:ae:37:ed
-----BEGIN CERTIFICATE-----
MIIFKjCCBBKgAwIBAgIRAMbDExjDbC+cINQzTW6/+cswDQYJKoZIhvcNAQELBQAw
ga8xCzAJBgNVBAYTAlVTMRMwEQYDVQQIDApDYWxpZm9ybmlhMRYwFAYDVQQHDA1T
YW4gRnJhbmNpc2NvMSAwHgYDVQQKDBdDb3B5bGVmdCBDZXJ0aWZpY2F0ZSBDbzEf
MB0GA1UECwwWTXkgT3JnYW5pemF0aW9uYWwgVW5pdDERMA8GA1UEAwwIQ2hhbmdl
TWUxHTAbBgkqhkiG9w0BCQEWDm1lQGV4YW1wbGUubmV0MB4XDTIzMTExMDE3NDIz
M1oXDTI0MTEwOTE3NDIzM1owgbUxCzAJBgNVBAYTAlVTMQswCQYDVQQIDAJPSDET
MBEGA1UEBwwKQ2luY2lubmF0aTEhMB8GA1UECgwYVW5pdmVyc2l0eSBvZiBDaW5j
aW5uYXRpMSQwIgYDVQQLDBtEZXB0X0VsZWNfQ29tXyBFbmdfQ29tX1NjaS4xETAP
BgNVBAMMCGNsaWVudDYyMSgwJgYJKoZIhvcNAQkBFhlmcmFuY29AZ2F1c3MuZWNl
Y3MudWMuZWR1MIIBIjANBgkqhkiG9w0BAQEFAAOCAQ8AMIIBCgKCAQEAxe1PJUav
jSos/+iwiGeWu/hXrtaDeZeY8C1bB4jBHepLNcQ7qRBWWfyuUZXEE5CC/bdYxvKa
ZpunYBOggyIT5K6ep8edANuGRLtK8OdQ1fowQ38XsGaUNpbw6bM6ZY02K+7bxSLF
MWBjf4NLirxEYiXqH5ABrPjqBF4WYpv8/J7qne+FAdhRbPvMa+gIrqi+7MhDymnd
cVtCW8riRbeg9cZLawoLActFm5o3zUaXOaMT+xznYSQwk9zucw+1ujNvACxStyXx
W5u1lxPXNcpSJ/ZLDQkPnkAjMp2rmrxCc35opF38SKocF3AcRpMpJ3rs5fi4lt5x
No6thP80Dqhe5wIDAQABo4IBNzCCATMwCQYDVR0TBAIwADAdBgNVHQ4EFgQUbxyW
aVn7JK1a6tzbRRaIgDNr39MwgeQGA1UdIwSB3DCB2YAUyCfaZDAIQAhKJczcQ5ne
d6H+d72hgbWkgbIwga8xCzAJBgNVBAYTAlVTMRMwEQYDVQQIDApDYWxpZm9ybmlh
MRYwFAYDVQQHDA1TYW4gRnJhbmNpc2NvMSAwHgYDVQQKDBdDb3B5bGVmdCBDZXJ0
aWZpY2F0ZSBDbzEfMB0GA1UECwwWTXkgT3JnYW5pemF0aW9uYWwgVW5pdDERMA8G
A1UEAwwIQ2hhbmdlTWUxHTAbBgkqhkiG9w0BCQEWDm1lQGV4YW1wbGUubmV0ggkA
qUjDfvwbsKEwEwYDVR0lBAwwCgYIKwYBBQUHAwIwCwYDVR0PBAQDAgeAMA0GCSqG
SIb3DQEBCwUAA4IBAQANEYmvaY6qZFe1l2RqNq8WPvc57XKlfkozDtK2l4a15OV4
S02mY2R/tUc66YK56A6Rsc22/AVdQK2Pq2gCrwB08+iuZmThCPPoqZ6B1gsLUAJJ
W5RODJnJ/2aGb63O5YCbwpD2fOijkVKJlqema4OMJ+n8iDuGMH8kQQp/M8RBf0mO
5jf4XPp6NG+w7RtZOjiCElTihXjyTDWWTMpx0+PPr4U5lcCa/qnw///8og1FD/l1
8nzuHpQUDOmVbNDim+rrnGYHLXsRu6A4VL/WTihbK/pS73qDR4QLhGKX6HgltlTf
QeViuumF/Fy9JOKney1S6EnwCpE4NWYGFZ2nrjft
-----END CERTIFICATE-----
