Certificate:
    Data:
        Version: 3 (0x2)
        Serial Number:
            b7:11:d8:a3:48:99:a2:80:76:ae:46:65:e8:5e:ee:b1
    Signature Algorithm: sha256WithRSAEncryption
        Issuer: C=US, ST=California, L=San Francisco, O=Copyleft Certificate Co, OU=My Organizational Unit, CN=ChangeMe/emailAddress=me@example.net
        Validity
            Not Before: Nov 11 10:57:32 2023 GMT
            Not After : Nov 10 10:57:32 2024 GMT
        Subject: C=US, ST=OH, L=Cincinnati, O=University of Cincinnati, OU=Dept. Elec. Comp. Eng. Comp. Sci., CN=client34/emailAddress=franco@gauss.ececs.uc.edu
        Subject Public Key Info:
            Public Key Algorithm: rsaEncryption
                Public-Key: (2048 bit)
                Modulus:
                    00:bb:85:48:ee:7c:ec:b7:52:3c:b7:44:37:07:f2:
                    71:49:d5:c6:cc:f0:dd:ed:01:ef:af:4d:87:b5:aa:
                    10:13:41:5d:01:23:42:22:d3:74:51:26:33:be:c3:
                    69:9b:ea:cc:e5:20:15:0a:81:08:58:71:cb:1f:57:
                    1c:22:43:b3:f7:f9:79:ba:1d:40:ae:ca:c2:e2:67:
                    ea:9b:fd:95:9a:54:7a:ed:68:23:03:37:f2:c5:f3:
                    1f:e0:92:bf:9c:19:e4:77:aa:6f:55:14:56:02:42:
                    f9:4f:0f:ec:68:cc:f2:7c:ca:14:51:0a:88:c3:0d:
                    65:8d:12:06:18:8c:e9:02:fb:3a:59:a6:14:e0:55:
                    2c:0a:82:dc:93:70:99:40:92:9a:7a:91:b3:9b:75:
                    5f:f5:6e:57:9f:80:ee:57:a3:16:63:c7:50:93:66:
                    fd:3b:fe:f5:f4:fb:1e:6a:72:62:14:ae:96:d5:7d:
                    77:a7:0c:1c:14:b0:24:c1:d5:31:4c:b3:a9:ac:4a:
                    58:9f:45:30:73:67:72:18:0e:23:cf:5d:3b:10:11:
                    70:70:b9:a5:c1:60:1c:4b:2b:d2:5d:77:aa:62:a6:
                    1e:36:94:43:d9:90:15:f5:04:ff:c4:0b:5f:7e:68:
                    e5:8e:b5:48:a9:f4:75:cc:f2:47:c3:9b:e0:2b:d3:
                    36:87
                Exponent: 65537 (0x10001)
        X509v3 extensions:
            X509v3 Basic Constraints: 
                CA:FALSE
            X509v3 Subject Key Identifier: 
                34:E6:31:E7:C6:8C:18:DA:DE:D6:75:72:28:D6:B6:AA:D2:B9:96:96
            X509v3 Authority Key Identifier: 
                keyid:44:01:CC:06:0B:41:75:CB:C8:FB:C9:37:86:2D:9D:D2:D8:79:B6:8B
                DirName:/C=US/ST=California/L=San Francisco/O=Copyleft Certificate Co/OU=My Organizational Unit/CN=ChangeMe/emailAddress=me@example.net
                serial:AF:E8:E0:DD:C5:8B:0E:DD

            X509v3 Extended Key Usage: 
                TLS Web Client Authentication
            X509v3 Key Usage: 
                Digital Signature
    Signature Algorithm: sha256WithRSAEncryption
         53:93:76:6f:67:4d:af:15:7a:75:ad:28:4b:e5:7e:80:66:11:
         20:98:ad:b0:33:94:42:dd:5a:57:b2:7a:ab:8d:24:e0:d6:3a:
         db:ae:17:2e:48:78:a6:34:9f:71:34:91:69:d9:4b:dc:c3:b8:
         54:b5:1b:58:1f:9d:33:13:2b:8c:c6:9c:36:4b:22:d3:80:cb:
         d1:7a:b8:2a:a9:c3:b2:ed:28:16:53:db:56:68:0d:64:e4:e2:
         fa:2e:cc:7b:04:1a:86:81:0e:46:bb:3f:c8:4a:bf:d6:4f:0f:
         ff:97:42:5b:f1:c4:97:6d:9b:4a:77:9e:dc:22:ad:4e:12:62:
         a1:5e:f2:3d:6c:55:fe:4c:c4:d9:3b:ab:e1:13:f5:6a:d2:c2:
         f6:2d:96:32:9f:87:e5:2b:81:09:46:19:cd:e6:63:98:42:19:
         98:c3:f4:8d:3f:4f:9e:a2:0f:07:b7:a4:4d:f9:c7:6a:19:a8:
         64:f7:ea:98:52:ba:6d:16:09:ce:f3:85:67:4b:56:ab:ec:a2:
         6e:50:12:db:08:99:bf:ac:61:45:d1:e6:47:81:38:72:1a:4f:
         7c:ee:09:00:9e:48:c4:7b:98:b4:6c:49:e0:13:3d:0f:ee:fb:
         c5:27:0f:a8:fe:f9:49:0b:84:90:03:82:40:86:6a:de:a2:c8:
         9e:ca:91:0f
-----BEGIN CERTIFICATE-----
MIIFMDCCBBigAwIBAgIRALcR2KNImaKAdq5GZehe7rEwDQYJKoZIhvcNAQELBQAw
ga8xCzAJBgNVBAYTAlVTMRMwEQYDVQQIDApDYWxpZm9ybmlhMRYwFAYDVQQHDA1T
YW4gRnJhbmNpc2NvMSAwHgYDVQQKDBdDb3B5bGVmdCBDZXJ0aWZpY2F0ZSBDbzEf
MB0GA1UECwwWTXkgT3JnYW5pemF0aW9uYWwgVW5pdDERMA8GA1UEAwwIQ2hhbmdl
TWUxHTAbBgkqhkiG9w0BCQEWDm1lQGV4YW1wbGUubmV0MB4XDTIzMTExMTEwNTcz
MloXDTI0MTExMDEwNTczMlowgbsxCzAJBgNVBAYTAlVTMQswCQYDVQQIDAJPSDET
MBEGA1UEBwwKQ2luY2lubmF0aTEhMB8GA1UECgwYVW5pdmVyc2l0eSBvZiBDaW5j
aW5uYXRpMSowKAYDVQQLDCFEZXB0LiBFbGVjLiBDb21wLiBFbmcuIENvbXAuIFNj
aS4xETAPBgNVBAMMCGNsaWVudDM0MSgwJgYJKoZIhvcNAQkBFhlmcmFuY29AZ2F1
c3MuZWNlY3MudWMuZWR1MIIBIjANBgkqhkiG9w0BAQEFAAOCAQ8AMIIBCgKCAQEA
u4VI7nzst1I8t0Q3B/JxSdXGzPDd7QHvr02HtaoQE0FdASNCItN0USYzvsNpm+rM
5SAVCoEIWHHLH1ccIkOz9/l5uh1ArsrC4mfqm/2VmlR67WgjAzfyxfMf4JK/nBnk
d6pvVRRWAkL5Tw/saMzyfMoUUQqIww1ljRIGGIzpAvs6WaYU4FUsCoLck3CZQJKa
epGzm3Vf9W5Xn4DuV6MWY8dQk2b9O/719PseanJiFK6W1X13pwwcFLAkwdUxTLOp
rEpYn0Uwc2dyGA4jz107EBFwcLmlwWAcSyvSXXeqYqYeNpRD2ZAV9QT/xAtffmjl
jrVIqfR1zPJHw5vgK9M2hwIDAQABo4IBNzCCATMwCQYDVR0TBAIwADAdBgNVHQ4E
FgQUNOYx58aMGNre1nVyKNa2qtK5lpYwgeQGA1UdIwSB3DCB2YAURAHMBgtBdcvI
+8k3hi2d0th5touhgbWkgbIwga8xCzAJBgNVBAYTAlVTMRMwEQYDVQQIDApDYWxp
Zm9ybmlhMRYwFAYDVQQHDA1TYW4gRnJhbmNpc2NvMSAwHgYDVQQKDBdDb3B5bGVm
dCBDZXJ0aWZpY2F0ZSBDbzEfMB0GA1UECwwWTXkgT3JnYW5pemF0aW9uYWwgVW5p
dDERMA8GA1UEAwwIQ2hhbmdlTWUxHTAbBgkqhkiG9w0BCQEWDm1lQGV4YW1wbGUu
bmV0ggkAr+jg3cWLDt0wEwYDVR0lBAwwCgYIKwYBBQUHAwIwCwYDVR0PBAQDAgeA
MA0GCSqGSIb3DQEBCwUAA4IBAQBTk3ZvZ02vFXp1rShL5X6AZhEgmK2wM5RC3VpX
snqrjSTg1jrbrhcuSHimNJ9xNJFp2Uvcw7hUtRtYH50zEyuMxpw2SyLTgMvRergq
qcOy7SgWU9tWaA1k5OL6Lsx7BBqGgQ5Guz/ISr/WTw//l0Jb8cSXbZtKd57cIq1O
EmKhXvI9bFX+TMTZO6vhE/Vq0sL2LZYyn4flK4EJRhnN5mOYQhmYw/SNP0+eog8H
t6RN+cdqGahk9+qYUrptFgnO84VnS1ar7KJuUBLbCJm/rGFF0eZHgThyGk987gkA
nkjEe5i0bEngEz0P7vvFJw+o/vlJC4SQA4JAhmreosieypEP
-----END CERTIFICATE-----
