Certificate:
    Data:
        Version: 3 (0x2)
        Serial Number:
            f3:ff:e8:90:51:6b:56:2e:02:50:0c:47:63:d4:2b:0a
    Signature Algorithm: sha256WithRSAEncryption
        Issuer: C=US, ST=California, L=San Francisco, O=Copyleft Certificate Co, OU=My Organizational Unit, CN=ChangeMe/emailAddress=me@example.net
        Validity
            Not Before: Nov 10 17:42:01 2023 GMT
            Not After : Nov  9 17:42:01 2024 GMT
        Subject: C=US, ST=OH, L=Cincinnati, O=University of Cincinnati, OU=Dept_Elec_Com_ Eng_Com_Sci., CN=client54/emailAddress=franco@gauss.ececs.uc.edu
        Subject Public Key Info:
            Public Key Algorithm: rsaEncryption
                Public-Key: (2048 bit)
                Modulus:
                    00:c7:8a:19:1f:aa:8d:1c:71:b7:db:aa:41:60:9c:
                    55:c4:e6:8a:8c:81:6d:63:9f:74:63:85:88:42:c7:
                    d4:41:03:a7:f8:87:ee:1f:45:39:52:72:92:6b:81:
                    b4:8d:b8:f0:7b:7b:a7:92:51:d1:72:4d:68:b5:08:
                    49:bf:8a:28:8b:f7:8b:be:22:49:48:81:0f:e7:5e:
                    3e:6f:65:32:a1:0a:7f:55:46:a3:31:1d:4f:02:bf:
                    1e:39:4a:08:79:34:95:6b:59:4f:86:66:bb:a4:f2:
                    10:60:76:f0:2f:c3:e5:ea:c6:dd:04:39:d3:19:86:
                    67:fc:6b:b4:12:3b:71:a5:f8:19:53:9b:9d:0a:36:
                    08:d1:a5:6f:e1:c2:a1:1d:61:cc:1d:f7:b8:73:81:
                    af:de:ac:98:40:6f:88:d6:28:62:1b:cb:36:78:40:
                    34:6c:a9:26:54:e7:61:af:b2:89:f6:dc:b1:ed:0d:
                    3e:4a:d5:a3:6d:ba:7f:9f:b7:f6:ed:cf:17:21:ad:
                    e4:9c:87:0f:e0:e6:d8:dd:7e:b3:9c:a8:be:cf:f6:
                    70:51:d4:ed:45:e6:24:02:54:6a:cf:d0:f1:f3:f2:
                    0c:a5:83:ae:6f:9c:a9:30:bc:fb:b9:67:f8:67:0c:
                    93:2d:c1:6a:86:39:d1:f8:08:34:8c:ff:3e:10:17:
                    ce:99
                Exponent: 65537 (0x10001)
        X509v3 extensions:
            X509v3 Basic Constraints: 
                CA:FALSE
            X509v3 Subject Key Identifier: 
                D9:1F:68:99:88:73:AC:29:E7:B3:A3:53:76:2C:E7:E4:8E:69:61:2B
            X509v3 Authority Key Identifier: 
                keyid:C8:27:DA:64:30:08:40:08:4A:25:CC:DC:43:99:DE:77:A1:FE:77:BD
                DirName:/C=US/ST=California/L=San Francisco/O=Copyleft Certificate Co/OU=My Organizational Unit/CN=ChangeMe/emailAddress=me@example.net
                serial:A9:48:C3:7E:FC:1B:B0:A1

            X509v3 Extended Key Usage: 
                TLS Web Client Authentication
            X509v3 Key Usage: 
                Digital Signature
    Signature Algorithm: sha256WithRSAEncryption
         30:c6:e7:c3:91:8e:d2:e7:cf:0d:37:36:ee:e6:b6:e5:b8:68:
         34:b3:aa:cb:47:cc:48:c4:36:06:75:85:bd:c0:18:06:7c:39:
         e4:e4:14:a8:91:7b:19:49:72:ce:d8:e7:df:68:ff:e8:df:70:
         af:e0:a8:56:cd:9f:08:19:3b:0f:18:9f:9d:2b:a2:a2:b2:67:
         4c:65:53:32:a0:60:84:df:60:8f:1a:19:93:79:fe:27:c7:84:
         1b:a7:26:4d:50:22:a0:d8:5d:35:97:b0:c8:aa:d2:05:bb:6b:
         a8:8f:a0:46:96:00:24:d3:3c:18:4d:88:21:a0:87:7a:c6:ad:
         24:84:24:6e:4c:db:0f:e3:24:f3:f7:21:21:36:6b:eb:12:23:
         6b:1c:ab:da:1a:9a:31:2f:19:fa:ba:86:f5:c0:a7:c7:f8:4b:
         55:6b:37:56:38:8e:ea:52:82:f9:01:24:f5:da:94:64:a8:3a:
         80:80:ce:30:62:fb:df:fd:0f:1d:62:00:cf:8e:5d:6d:34:43:
         6c:1f:84:8e:50:8c:4a:5d:4c:a9:97:8c:08:e0:2b:4e:ee:02:
         ad:d6:75:0f:41:17:24:ce:24:98:53:de:70:62:c1:89:0b:71:
         19:35:9e:cb:33:1e:2e:04:8b:2a:3d:d2:ce:a8:a6:fe:d9:c5:
         49:73:9c:0f
-----BEGIN CERTIFICATE-----
MIIFKjCCBBKgAwIBAgIRAPP/6JBRa1YuAlAMR2PUKwowDQYJKoZIhvcNAQELBQAw
ga8xCzAJBgNVBAYTAlVTMRMwEQYDVQQIDApDYWxpZm9ybmlhMRYwFAYDVQQHDA1T
YW4gRnJhbmNpc2NvMSAwHgYDVQQKDBdDb3B5bGVmdCBDZXJ0aWZpY2F0ZSBDbzEf
MB0GA1UECwwWTXkgT3JnYW5pemF0aW9uYWwgVW5pdDERMA8GA1UEAwwIQ2hhbmdl
TWUxHTAbBgkqhkiG9w0BCQEWDm1lQGV4YW1wbGUubmV0MB4XDTIzMTExMDE3NDIw
MVoXDTI0MTEwOTE3NDIwMVowgbUxCzAJBgNVBAYTAlVTMQswCQYDVQQIDAJPSDET
MBEGA1UEBwwKQ2luY2lubmF0aTEhMB8GA1UECgwYVW5pdmVyc2l0eSBvZiBDaW5j
aW5uYXRpMSQwIgYDVQQLDBtEZXB0X0VsZWNfQ29tXyBFbmdfQ29tX1NjaS4xETAP
BgNVBAMMCGNsaWVudDU0MSgwJgYJKoZIhvcNAQkBFhlmcmFuY29AZ2F1c3MuZWNl
Y3MudWMuZWR1MIIBIjANBgkqhkiG9w0BAQEFAAOCAQ8AMIIBCgKCAQEAx4oZH6qN
HHG326pBYJxVxOaKjIFtY590Y4WIQsfUQQOn+IfuH0U5UnKSa4G0jbjwe3unklHR
ck1otQhJv4ooi/eLviJJSIEP514+b2UyoQp/VUajMR1PAr8eOUoIeTSVa1lPhma7
pPIQYHbwL8Pl6sbdBDnTGYZn/Gu0EjtxpfgZU5udCjYI0aVv4cKhHWHMHfe4c4Gv
3qyYQG+I1ihiG8s2eEA0bKkmVOdhr7KJ9tyx7Q0+StWjbbp/n7f27c8XIa3knIcP
4ObY3X6znKi+z/ZwUdTtReYkAlRqz9Dx8/IMpYOub5ypMLz7uWf4ZwyTLcFqhjnR
+Ag0jP8+EBfOmQIDAQABo4IBNzCCATMwCQYDVR0TBAIwADAdBgNVHQ4EFgQU2R9o
mYhzrCnns6NTdizn5I5pYSswgeQGA1UdIwSB3DCB2YAUyCfaZDAIQAhKJczcQ5ne
d6H+d72hgbWkgbIwga8xCzAJBgNVBAYTAlVTMRMwEQYDVQQIDApDYWxpZm9ybmlh
MRYwFAYDVQQHDA1TYW4gRnJhbmNpc2NvMSAwHgYDVQQKDBdDb3B5bGVmdCBDZXJ0
aWZpY2F0ZSBDbzEfMB0GA1UECwwWTXkgT3JnYW5pemF0aW9uYWwgVW5pdDERMA8G
A1UEAwwIQ2hhbmdlTWUxHTAbBgkqhkiG9w0BCQEWDm1lQGV4YW1wbGUubmV0ggkA
qUjDfvwbsKEwEwYDVR0lBAwwCgYIKwYBBQUHAwIwCwYDVR0PBAQDAgeAMA0GCSqG
SIb3DQEBCwUAA4IBAQAwxufDkY7S588NNzbu5rbluGg0s6rLR8xIxDYGdYW9wBgG
fDnk5BSokXsZSXLO2OffaP/o33Cv4KhWzZ8IGTsPGJ+dK6KismdMZVMyoGCE32CP
GhmTef4nx4QbpyZNUCKg2F01l7DIqtIFu2uoj6BGlgAk0zwYTYghoId6xq0khCRu
TNsP4yTz9yEhNmvrEiNrHKvaGpoxLxn6uob1wKfH+EtVazdWOI7qUoL5AST12pRk
qDqAgM4wYvvf/Q8dYgDPjl1tNENsH4SOUIxKXUypl4wI4CtO7gKt1nUPQRckziSY
U95wYsGJC3EZNZ7LMx4uBIsqPdLOqKb+2cVJc5wP
-----END CERTIFICATE-----
