Certificate:
    Data:
        Version: 3 (0x2)
        Serial Number:
            3f:c7:a7:c8:7a:d1:85:60:b6:e7:98:9a:32:aa:c7:48
    Signature Algorithm: sha256WithRSAEncryption
        Issuer: C=US, ST=California, L=San Francisco, O=Copyleft Certificate Co, OU=My Organizational Unit, CN=ChangeMe/emailAddress=me@example.net
        Validity
            Not Before: Nov 11 10:57:48 2023 GMT
            Not After : Nov 10 10:57:48 2024 GMT
        Subject: C=US, ST=OH, L=Cincinnati, O=University of Cincinnati, OU=Dept. Elec. Comp. Eng. Comp. Sci., CN=client38/emailAddress=franco@gauss.ececs.uc.edu
        Subject Public Key Info:
            Public Key Algorithm: rsaEncryption
                Public-Key: (2048 bit)
                Modulus:
                    00:c2:82:0c:a8:6e:d1:c8:6b:d3:fe:7a:b8:d0:85:
                    66:84:4b:9d:22:27:4c:4c:e9:f4:7e:57:2c:67:68:
                    3b:26:7f:24:de:2d:3d:bc:3c:71:f4:0e:97:16:0a:
                    71:b2:c4:95:29:5b:f3:e6:5c:36:c1:fa:d5:26:9e:
                    89:75:30:44:0a:38:d1:19:6c:b2:21:18:05:07:f7:
                    b8:19:ec:a5:a3:82:7a:83:58:cc:21:48:8e:ad:ca:
                    3e:8a:f4:12:a0:2a:e8:5a:45:46:86:49:4c:fb:ab:
                    88:56:ff:b5:ac:1e:0e:b6:3c:bd:33:f5:fb:b3:17:
                    ef:8c:c6:78:ca:06:12:51:7f:05:87:ee:11:9f:1a:
                    fc:01:ae:7d:af:c1:f6:6f:fb:82:0b:f4:2f:b4:98:
                    27:b9:86:55:95:32:6a:94:93:c7:b7:eb:eb:77:29:
                    82:16:0c:3e:2d:a8:62:b9:84:cf:35:a6:57:d8:b3:
                    91:0a:26:17:2c:a7:18:26:1c:98:3c:c0:15:a0:69:
                    39:81:8a:b5:cc:80:94:cf:6f:43:00:e8:f8:e5:94:
                    e8:9e:cb:89:24:f8:89:e3:02:74:98:ec:68:b1:2f:
                    e9:78:fc:b5:c7:9f:bb:76:2c:ed:bb:71:73:23:1e:
                    2b:b2:cb:d8:e1:39:0f:cb:bc:f0:0b:e5:60:78:d4:
                    8f:bb
                Exponent: 65537 (0x10001)
        X509v3 extensions:
            X509v3 Basic Constraints: 
                CA:FALSE
            X509v3 Subject Key Identifier: 
                27:63:76:5B:B4:BD:53:AC:F1:53:B6:B3:AC:59:4E:10:69:AF:3C:00
            X509v3 Authority Key Identifier: 
                keyid:44:01:CC:06:0B:41:75:CB:C8:FB:C9:37:86:2D:9D:D2:D8:79:B6:8B
                DirName:/C=US/ST=California/L=San Francisco/O=Copyleft Certificate Co/OU=My Organizational Unit/CN=ChangeMe/emailAddress=me@example.net
                serial:AF:E8:E0:DD:C5:8B:0E:DD

            X509v3 Extended Key Usage: 
                TLS Web Client Authentication
            X509v3 Key Usage: 
                Digital Signature
    Signature Algorithm: sha256WithRSAEncryption
         88:f7:07:75:af:e3:cc:70:7d:78:2f:5a:57:d9:47:18:e2:ab:
         60:39:a6:ee:b9:df:a2:36:80:23:5d:1c:2d:41:ce:e3:42:76:
         33:9b:d6:f5:22:b2:32:46:a4:37:f8:7d:8c:07:08:ee:29:25:
         54:64:d6:a4:e6:9f:72:bb:19:1a:da:61:93:01:90:89:f9:0e:
         9d:f3:90:1e:d0:c4:11:37:4c:22:d4:4b:91:7c:4a:fe:fd:60:
         38:1b:00:fd:e4:1c:d1:0d:ac:74:71:3d:a1:29:ea:23:c6:27:
         3b:54:ca:55:61:3e:18:91:0d:50:a6:a9:92:8b:76:4a:5f:d0:
         0a:d8:6f:b5:cc:d6:eb:21:c2:c6:cc:7e:de:46:3e:cf:2b:43:
         41:5b:34:c0:10:13:0a:62:0c:2f:c4:ae:5a:d4:7e:05:fd:e1:
         9d:79:74:45:14:bf:e7:c4:51:a2:25:90:6c:0f:48:05:8f:a7:
         b8:d5:32:cb:2c:b5:c3:6f:d2:46:8e:01:7c:c4:af:ac:d6:0d:
         71:8f:9a:78:52:7a:37:ea:05:0e:77:f9:27:f3:bb:57:cb:d6:
         db:f5:88:83:c9:3b:fd:00:df:1e:68:a4:2c:bc:c7:68:32:54:
         33:6c:c9:e7:f7:e9:32:d4:1f:c4:43:69:08:c8:ab:a4:ae:b6:
         5f:1a:6a:75
-----BEGIN CERTIFICATE-----
MIIFLzCCBBegAwIBAgIQP8enyHrRhWC255iaMqrHSDANBgkqhkiG9w0BAQsFADCB
rzELMAkGA1UEBhMCVVMxEzARBgNVBAgMCkNhbGlmb3JuaWExFjAUBgNVBAcMDVNh
biBGcmFuY2lzY28xIDAeBgNVBAoMF0NvcHlsZWZ0IENlcnRpZmljYXRlIENvMR8w
HQYDVQQLDBZNeSBPcmdhbml6YXRpb25hbCBVbml0MREwDwYDVQQDDAhDaGFuZ2VN
ZTEdMBsGCSqGSIb3DQEJARYObWVAZXhhbXBsZS5uZXQwHhcNMjMxMTExMTA1NzQ4
WhcNMjQxMTEwMTA1NzQ4WjCBuzELMAkGA1UEBhMCVVMxCzAJBgNVBAgMAk9IMRMw
EQYDVQQHDApDaW5jaW5uYXRpMSEwHwYDVQQKDBhVbml2ZXJzaXR5IG9mIENpbmNp
bm5hdGkxKjAoBgNVBAsMIURlcHQuIEVsZWMuIENvbXAuIEVuZy4gQ29tcC4gU2Np
LjERMA8GA1UEAwwIY2xpZW50MzgxKDAmBgkqhkiG9w0BCQEWGWZyYW5jb0BnYXVz
cy5lY2Vjcy51Yy5lZHUwggEiMA0GCSqGSIb3DQEBAQUAA4IBDwAwggEKAoIBAQDC
ggyobtHIa9P+erjQhWaES50iJ0xM6fR+VyxnaDsmfyTeLT28PHH0DpcWCnGyxJUp
W/PmXDbB+tUmnol1MEQKONEZbLIhGAUH97gZ7KWjgnqDWMwhSI6tyj6K9BKgKuha
RUaGSUz7q4hW/7WsHg62PL0z9fuzF++MxnjKBhJRfwWH7hGfGvwBrn2vwfZv+4IL
9C+0mCe5hlWVMmqUk8e36+t3KYIWDD4tqGK5hM81plfYs5EKJhcspxgmHJg8wBWg
aTmBirXMgJTPb0MA6PjllOiey4kk+InjAnSY7GixL+l4/LXHn7t2LO27cXMjHiuy
y9jhOQ/LvPAL5WB41I+7AgMBAAGjggE3MIIBMzAJBgNVHRMEAjAAMB0GA1UdDgQW
BBQnY3ZbtL1TrPFTtrOsWU4Qaa88ADCB5AYDVR0jBIHcMIHZgBREAcwGC0F1y8j7
yTeGLZ3S2Hm2i6GBtaSBsjCBrzELMAkGA1UEBhMCVVMxEzARBgNVBAgMCkNhbGlm
b3JuaWExFjAUBgNVBAcMDVNhbiBGcmFuY2lzY28xIDAeBgNVBAoMF0NvcHlsZWZ0
IENlcnRpZmljYXRlIENvMR8wHQYDVQQLDBZNeSBPcmdhbml6YXRpb25hbCBVbml0
MREwDwYDVQQDDAhDaGFuZ2VNZTEdMBsGCSqGSIb3DQEJARYObWVAZXhhbXBsZS5u
ZXSCCQCv6ODdxYsO3TATBgNVHSUEDDAKBggrBgEFBQcDAjALBgNVHQ8EBAMCB4Aw
DQYJKoZIhvcNAQELBQADggEBAIj3B3Wv48xwfXgvWlfZRxjiq2A5pu6536I2gCNd
HC1BzuNCdjOb1vUisjJGpDf4fYwHCO4pJVRk1qTmn3K7GRraYZMBkIn5Dp3zkB7Q
xBE3TCLUS5F8Sv79YDgbAP3kHNENrHRxPaEp6iPGJztUylVhPhiRDVCmqZKLdkpf
0ArYb7XM1ushwsbMft5GPs8rQ0FbNMAQEwpiDC/ErlrUfgX94Z15dEUUv+fEUaIl
kGwPSAWPp7jVMssstcNv0kaOAXzEr6zWDXGPmnhSejfqBQ53+Sfzu1fL1tv1iIPJ
O/0A3x5opCy8x2gyVDNsyef36TLUH8RDaQjIq6Sutl8aanU=
-----END CERTIFICATE-----
