Certificate:
    Data:
        Version: 3 (0x2)
        Serial Number:
            f1:2c:7a:f2:1f:16:be:36:98:6b:63:fa:6c:78:ec:b9
    Signature Algorithm: sha256WithRSAEncryption
        Issuer: C=US, ST=California, L=San Francisco, O=Copyleft Certificate Co, OU=My Organizational Unit, CN=ChangeMe/emailAddress=me@example.net
        Validity
            Not Before: Nov 10 17:42:25 2023 GMT
            Not After : Nov  9 17:42:25 2024 GMT
        Subject: C=US, ST=OH, L=Cincinnati, O=University of Cincinnati, OU=Dept_Elec_Com_ Eng_Com_Sci., CN=client60/emailAddress=franco@gauss.ececs.uc.edu
        Subject Public Key Info:
            Public Key Algorithm: rsaEncryption
                Public-Key: (2048 bit)
                Modulus:
                    00:d6:19:17:ae:65:8d:1f:b2:2c:f4:7a:28:bd:26:
                    a2:99:01:7a:30:00:67:55:b9:5b:06:60:90:31:0e:
                    f8:bd:04:86:06:96:13:c4:99:4f:8d:62:05:fe:ee:
                    17:b4:08:c8:a0:84:47:22:5e:d3:db:0b:e8:ce:bb:
                    f9:a5:c3:6d:a4:c0:7b:19:76:dd:3e:c9:48:60:fc:
                    98:89:90:e1:88:e0:b1:30:4d:45:e1:2e:dd:63:dd:
                    59:40:eb:f2:07:b8:28:5e:7c:fe:2d:4e:0c:57:c7:
                    d2:57:51:de:fd:8f:f3:89:28:74:c1:a1:71:ca:d3:
                    8e:20:75:7f:98:18:cc:8b:83:b5:44:15:d6:52:42:
                    86:aa:09:1a:73:38:8f:3f:8e:81:13:6d:61:a7:a2:
                    48:14:0d:a0:39:31:8c:07:d0:a3:10:aa:0e:07:8c:
                    2d:b2:08:d5:ef:1a:9f:be:9d:77:57:13:a3:b4:62:
                    80:c2:6e:9b:74:68:47:77:42:c4:d3:38:9c:23:c8:
                    4a:c6:c4:6a:9e:6d:72:61:48:37:1b:f2:27:91:df:
                    d8:9c:fa:d7:29:a9:77:84:4e:45:1f:3d:a6:49:ba:
                    92:8f:7f:af:b9:39:55:8e:0b:44:e0:56:a3:b8:58:
                    17:a6:7e:86:fb:ae:01:c4:17:0d:35:a8:54:76:7f:
                    cf:39
                Exponent: 65537 (0x10001)
        X509v3 extensions:
            X509v3 Basic Constraints: 
                CA:FALSE
            X509v3 Subject Key Identifier: 
                EC:D9:97:1A:51:FD:70:AA:63:51:4D:F2:21:31:38:61:90:D3:87:95
            X509v3 Authority Key Identifier: 
                keyid:C8:27:DA:64:30:08:40:08:4A:25:CC:DC:43:99:DE:77:A1:FE:77:BD
                DirName:/C=US/ST=California/L=San Francisco/O=Copyleft Certificate Co/OU=My Organizational Unit/CN=ChangeMe/emailAddress=me@example.net
                serial:A9:48:C3:7E:FC:1B:B0:A1

            X509v3 Extended Key Usage: 
                TLS Web Client Authentication
            X509v3 Key Usage: 
                Digital Signature
    Signature Algorithm: sha256WithRSAEncryption
         9d:2a:80:2a:b0:f9:dd:03:8d:35:c9:07:47:23:de:29:5a:40:
         6d:51:aa:8d:9a:c4:33:8d:64:b4:50:1d:43:29:9a:35:1b:fc:
         de:70:1d:30:3e:db:14:d7:a0:99:95:ee:ce:7e:38:45:fc:1c:
         12:52:ef:37:67:f6:51:6c:c9:f0:b4:c0:19:ab:2b:54:93:80:
         5e:31:af:06:b9:00:9d:17:d8:64:00:be:8e:89:b4:cc:70:e1:
         1c:6e:e9:cf:7d:15:4e:1b:6a:6c:90:3f:33:be:87:8d:10:b1:
         81:ab:4e:33:40:d5:00:a0:b1:6c:77:82:03:ec:cd:3d:4f:2f:
         91:3e:e3:3f:ac:15:e8:19:48:7a:d2:2e:58:5f:22:29:45:23:
         3c:66:d4:b9:e4:3f:e1:8e:d8:84:e6:96:ba:b9:b3:ac:51:77:
         a1:47:9e:fc:87:4c:48:96:75:59:82:9d:4a:2a:c0:11:fc:0a:
         6f:38:64:46:27:4a:57:ab:82:ce:2a:b9:d1:a3:19:1b:75:d5:
         5e:70:cb:38:06:88:e2:d8:94:1d:c5:12:82:37:4e:2e:dd:62:
         d7:2a:62:78:da:b6:4b:90:b5:9f:15:0e:40:17:06:fc:e1:d6:
         9c:dd:d7:20:32:da:21:b5:a3:36:7c:8e:c0:b1:6f:99:80:1d:
         c5:a9:fc:f4
-----BEGIN CERTIFICATE-----
MIIFKjCCBBKgAwIBAgIRAPEsevIfFr42mGtj+mx47LkwDQYJKoZIhvcNAQELBQAw
ga8xCzAJBgNVBAYTAlVTMRMwEQYDVQQIDApDYWxpZm9ybmlhMRYwFAYDVQQHDA1T
YW4gRnJhbmNpc2NvMSAwHgYDVQQKDBdDb3B5bGVmdCBDZXJ0aWZpY2F0ZSBDbzEf
MB0GA1UECwwWTXkgT3JnYW5pemF0aW9uYWwgVW5pdDERMA8GA1UEAwwIQ2hhbmdl
TWUxHTAbBgkqhkiG9w0BCQEWDm1lQGV4YW1wbGUubmV0MB4XDTIzMTExMDE3NDIy
NVoXDTI0MTEwOTE3NDIyNVowgbUxCzAJBgNVBAYTAlVTMQswCQYDVQQIDAJPSDET
MBEGA1UEBwwKQ2luY2lubmF0aTEhMB8GA1UECgwYVW5pdmVyc2l0eSBvZiBDaW5j
aW5uYXRpMSQwIgYDVQQLDBtEZXB0X0VsZWNfQ29tXyBFbmdfQ29tX1NjaS4xETAP
BgNVBAMMCGNsaWVudDYwMSgwJgYJKoZIhvcNAQkBFhlmcmFuY29AZ2F1c3MuZWNl
Y3MudWMuZWR1MIIBIjANBgkqhkiG9w0BAQEFAAOCAQ8AMIIBCgKCAQEA1hkXrmWN
H7Is9HoovSaimQF6MABnVblbBmCQMQ74vQSGBpYTxJlPjWIF/u4XtAjIoIRHIl7T
2wvozrv5pcNtpMB7GXbdPslIYPyYiZDhiOCxME1F4S7dY91ZQOvyB7goXnz+LU4M
V8fSV1He/Y/ziSh0waFxytOOIHV/mBjMi4O1RBXWUkKGqgkacziPP46BE21hp6JI
FA2gOTGMB9CjEKoOB4wtsgjV7xqfvp13VxOjtGKAwm6bdGhHd0LE0zicI8hKxsRq
nm1yYUg3G/Inkd/YnPrXKal3hE5FHz2mSbqSj3+vuTlVjgtE4FajuFgXpn6G+64B
xBcNNahUdn/POQIDAQABo4IBNzCCATMwCQYDVR0TBAIwADAdBgNVHQ4EFgQU7NmX
GlH9cKpjUU3yITE4YZDTh5UwgeQGA1UdIwSB3DCB2YAUyCfaZDAIQAhKJczcQ5ne
d6H+d72hgbWkgbIwga8xCzAJBgNVBAYTAlVTMRMwEQYDVQQIDApDYWxpZm9ybmlh
MRYwFAYDVQQHDA1TYW4gRnJhbmNpc2NvMSAwHgYDVQQKDBdDb3B5bGVmdCBDZXJ0
aWZpY2F0ZSBDbzEfMB0GA1UECwwWTXkgT3JnYW5pemF0aW9uYWwgVW5pdDERMA8G
A1UEAwwIQ2hhbmdlTWUxHTAbBgkqhkiG9w0BCQEWDm1lQGV4YW1wbGUubmV0ggkA
qUjDfvwbsKEwEwYDVR0lBAwwCgYIKwYBBQUHAwIwCwYDVR0PBAQDAgeAMA0GCSqG
SIb3DQEBCwUAA4IBAQCdKoAqsPndA401yQdHI94pWkBtUaqNmsQzjWS0UB1DKZo1
G/zecB0wPtsU16CZle7OfjhF/BwSUu83Z/ZRbMnwtMAZqytUk4BeMa8GuQCdF9hk
AL6OibTMcOEcbunPfRVOG2pskD8zvoeNELGBq04zQNUAoLFsd4ID7M09Ty+RPuM/
rBXoGUh60i5YXyIpRSM8ZtS55D/hjtiE5pa6ubOsUXehR578h0xIlnVZgp1KKsAR
/ApvOGRGJ0pXq4LOKrnRoxkbddVecMs4Boji2JQdxRKCN04u3WLXKmJ42rZLkLWf
FQ5AFwb84dac3dcgMtohtaM2fI7AsW+ZgB3Fqfz0
-----END CERTIFICATE-----
