Certificate:
    Data:
        Version: 3 (0x2)
        Serial Number:
            c5:5e:47:8e:c8:aa:00:28:cb:0b:22:8b:0d:32:e9:e0
    Signature Algorithm: sha256WithRSAEncryption
        Issuer: C=US, ST=California, L=San Francisco, O=Copyleft Certificate Co, OU=My Organizational Unit, CN=ChangeMe/emailAddress=me@example.net
        Validity
            Not Before: Nov 10 17:43:01 2023 GMT
            Not After : Nov  9 17:43:01 2024 GMT
        Subject: C=US, ST=OH, L=Cincinnati, O=University of Cincinnati, OU=Dept_Elec_Com_ Eng_Com_Sci., CN=client69/emailAddress=franco@gauss.ececs.uc.edu
        Subject Public Key Info:
            Public Key Algorithm: rsaEncryption
                Public-Key: (2048 bit)
                Modulus:
                    00:e2:05:30:48:0a:4c:14:b3:ed:62:c4:56:3f:53:
                    0b:b0:ee:da:b5:e8:d5:99:e8:71:38:1e:c9:e9:9a:
                    e8:5f:1f:50:01:e7:23:d2:fb:68:40:9b:73:21:e7:
                    a7:42:0a:0c:de:89:91:c1:b0:92:c5:ad:6e:39:8a:
                    ec:4e:20:af:88:cb:a6:4c:b9:61:16:1a:d8:28:38:
                    3e:ee:98:1c:cc:8c:6f:23:b2:9c:41:84:d4:ce:c5:
                    99:d3:cd:30:9f:0f:91:10:13:9b:12:f8:06:a8:33:
                    3a:6b:c8:52:76:9f:11:d1:79:f4:e7:1f:bc:4d:e7:
                    5d:b6:2b:96:18:76:06:95:3b:72:4f:5c:66:01:3f:
                    18:1f:93:ff:6d:65:01:20:ab:12:56:09:73:64:b3:
                    d4:15:a4:62:f4:cc:89:16:d9:ae:f7:c2:b0:f3:c8:
                    83:34:d7:99:4c:e7:dd:64:13:89:1d:20:60:15:db:
                    bd:95:0a:bc:69:5d:41:90:79:bb:33:75:0c:2f:37:
                    08:47:6c:77:8d:7c:cf:cd:f4:40:42:98:05:9b:f4:
                    5e:fa:2d:d8:06:df:96:17:ac:8f:06:a3:43:99:42:
                    e1:65:4c:f2:1d:90:58:af:64:1e:c2:fa:b9:77:ae:
                    92:c7:7b:e5:ea:d0:d8:31:bb:eb:90:c5:d2:d7:e6:
                    76:9f
                Exponent: 65537 (0x10001)
        X509v3 extensions:
            X509v3 Basic Constraints: 
                CA:FALSE
            X509v3 Subject Key Identifier: 
                1B:38:01:8B:67:29:37:06:65:9B:CF:4D:37:12:A7:98:87:B8:12:01
            X509v3 Authority Key Identifier: 
                keyid:C8:27:DA:64:30:08:40:08:4A:25:CC:DC:43:99:DE:77:A1:FE:77:BD
                DirName:/C=US/ST=California/L=San Francisco/O=Copyleft Certificate Co/OU=My Organizational Unit/CN=ChangeMe/emailAddress=me@example.net
                serial:A9:48:C3:7E:FC:1B:B0:A1

            X509v3 Extended Key Usage: 
                TLS Web Client Authentication
            X509v3 Key Usage: 
                Digital Signature
    Signature Algorithm: sha256WithRSAEncryption
         86:9d:fb:3a:8d:45:01:d1:11:c4:8a:a2:d1:c7:3f:7f:f9:60:
         a9:61:dc:02:22:f1:84:e0:f0:21:49:45:8c:8d:38:de:c4:c6:
         37:a4:8e:2c:12:6d:d3:5c:52:81:9c:66:11:f0:9b:74:83:17:
         39:2a:8a:a0:2d:6e:d5:91:dd:48:6a:1d:8d:c1:51:04:b6:42:
         b0:79:10:0d:5c:76:bd:36:af:9b:0b:28:e0:a5:35:34:e5:f1:
         87:f7:af:f5:1b:ab:7e:a0:18:e5:a2:dd:00:a1:8b:64:7a:ce:
         17:ce:d5:a5:09:87:11:89:e4:39:81:5b:1f:44:a4:ae:a0:03:
         92:3e:c3:34:4f:05:2a:73:e6:c5:b7:94:c0:af:f4:01:f2:b6:
         ff:26:6a:9a:2b:25:79:81:21:2b:75:44:14:ac:85:10:87:fb:
         2b:cd:14:f4:bb:ef:35:df:ed:71:88:82:46:da:6a:90:78:df:
         bc:97:e0:2a:84:15:9a:76:7f:8a:89:9b:82:78:93:70:16:9f:
         08:3c:82:55:6f:6a:f4:48:d1:63:e3:d4:f4:c3:c1:84:e1:ee:
         f2:ad:c2:c8:8d:a2:70:e9:97:24:01:d3:14:52:d7:10:8b:08:
         80:02:ca:a4:7c:10:6f:c9:c3:00:14:4e:89:1a:5d:ec:05:41:
         1b:c7:05:cf
-----BEGIN CERTIFICATE-----
MIIFKjCCBBKgAwIBAgIRAMVeR47IqgAoywsiiw0y6eAwDQYJKoZIhvcNAQELBQAw
ga8xCzAJBgNVBAYTAlVTMRMwEQYDVQQIDApDYWxpZm9ybmlhMRYwFAYDVQQHDA1T
YW4gRnJhbmNpc2NvMSAwHgYDVQQKDBdDb3B5bGVmdCBDZXJ0aWZpY2F0ZSBDbzEf
MB0GA1UECwwWTXkgT3JnYW5pemF0aW9uYWwgVW5pdDERMA8GA1UEAwwIQ2hhbmdl
TWUxHTAbBgkqhkiG9w0BCQEWDm1lQGV4YW1wbGUubmV0MB4XDTIzMTExMDE3NDMw
MVoXDTI0MTEwOTE3NDMwMVowgbUxCzAJBgNVBAYTAlVTMQswCQYDVQQIDAJPSDET
MBEGA1UEBwwKQ2luY2lubmF0aTEhMB8GA1UECgwYVW5pdmVyc2l0eSBvZiBDaW5j
aW5uYXRpMSQwIgYDVQQLDBtEZXB0X0VsZWNfQ29tXyBFbmdfQ29tX1NjaS4xETAP
BgNVBAMMCGNsaWVudDY5MSgwJgYJKoZIhvcNAQkBFhlmcmFuY29AZ2F1c3MuZWNl
Y3MudWMuZWR1MIIBIjANBgkqhkiG9w0BAQEFAAOCAQ8AMIIBCgKCAQEA4gUwSApM
FLPtYsRWP1MLsO7atejVmehxOB7J6ZroXx9QAecj0vtoQJtzIeenQgoM3omRwbCS
xa1uOYrsTiCviMumTLlhFhrYKDg+7pgczIxvI7KcQYTUzsWZ080wnw+REBObEvgG
qDM6a8hSdp8R0Xn05x+8TeddtiuWGHYGlTtyT1xmAT8YH5P/bWUBIKsSVglzZLPU
FaRi9MyJFtmu98Kw88iDNNeZTOfdZBOJHSBgFdu9lQq8aV1BkHm7M3UMLzcIR2x3
jXzPzfRAQpgFm/Re+i3YBt+WF6yPBqNDmULhZUzyHZBYr2Qewvq5d66Sx3vl6tDY
MbvrkMXS1+Z2nwIDAQABo4IBNzCCATMwCQYDVR0TBAIwADAdBgNVHQ4EFgQUGzgB
i2cpNwZlm89NNxKnmIe4EgEwgeQGA1UdIwSB3DCB2YAUyCfaZDAIQAhKJczcQ5ne
d6H+d72hgbWkgbIwga8xCzAJBgNVBAYTAlVTMRMwEQYDVQQIDApDYWxpZm9ybmlh
MRYwFAYDVQQHDA1TYW4gRnJhbmNpc2NvMSAwHgYDVQQKDBdDb3B5bGVmdCBDZXJ0
aWZpY2F0ZSBDbzEfMB0GA1UECwwWTXkgT3JnYW5pemF0aW9uYWwgVW5pdDERMA8G
A1UEAwwIQ2hhbmdlTWUxHTAbBgkqhkiG9w0BCQEWDm1lQGV4YW1wbGUubmV0ggkA
qUjDfvwbsKEwEwYDVR0lBAwwCgYIKwYBBQUHAwIwCwYDVR0PBAQDAgeAMA0GCSqG
SIb3DQEBCwUAA4IBAQCGnfs6jUUB0RHEiqLRxz9/+WCpYdwCIvGE4PAhSUWMjTje
xMY3pI4sEm3TXFKBnGYR8Jt0gxc5KoqgLW7Vkd1Iah2NwVEEtkKweRANXHa9Nq+b
CyjgpTU05fGH96/1G6t+oBjlot0AoYtkes4XztWlCYcRieQ5gVsfRKSuoAOSPsM0
TwUqc+bFt5TAr/QB8rb/JmqaKyV5gSErdUQUrIUQh/srzRT0u+813+1xiIJG2mqQ
eN+8l+AqhBWadn+KiZuCeJNwFp8IPIJVb2r0SNFj49T0w8GE4e7yrcLIjaJw6Zck
AdMUUtcQiwiAAsqkfBBvycMAFE6JGl3sBUEbxwXP
-----END CERTIFICATE-----
