Certificate:
    Data:
        Version: 3 (0x2)
        Serial Number:
            b6:71:9f:d6:a9:c0:6c:a7:88:8f:73:cd:5a:cf:f0:c0
    Signature Algorithm: sha256WithRSAEncryption
        Issuer: C=US, ST=California, L=San Francisco, O=Copyleft Certificate Co, OU=My Organizational Unit, CN=ChangeMe/emailAddress=me@example.net
        Validity
            Not Before: Nov 12 11:46:43 2023 GMT
            Not After : Nov 11 11:46:43 2024 GMT
        Subject: C=US, ST=OH, L=Cincinnati, O=University of Cincinnati, OU=Dept. Elec. Comp. Eng. Comp. Sci., CN=client7/emailAddress=franco@gauss.ececs.uc.edu
        Subject Public Key Info:
            Public Key Algorithm: rsaEncryption
                Public-Key: (2048 bit)
                Modulus:
                    00:d7:4a:05:da:e6:02:fa:c2:14:78:c5:6b:53:d6:
                    97:ef:f9:45:5b:66:4f:03:4e:ce:71:0a:2e:d2:b8:
                    9c:4e:80:7d:7e:f7:b2:67:b7:80:4c:c3:f2:b6:78:
                    9e:b6:2b:49:6f:ca:c1:18:2c:01:1b:5b:7a:56:66:
                    bb:85:28:4f:6a:97:5b:04:4f:85:10:d5:03:43:49:
                    a8:81:6f:3f:7e:bc:82:80:f6:13:2f:01:cb:00:1f:
                    07:9d:56:17:95:40:4f:63:53:dd:05:e3:bc:a7:ca:
                    2e:c2:32:51:ad:95:55:01:91:c6:f2:6e:ba:9d:a6:
                    fa:49:ea:a2:50:72:84:a7:46:fd:28:5d:dd:82:d1:
                    13:e7:86:33:24:75:94:22:2e:c6:49:33:78:1a:1e:
                    17:f6:c2:09:63:28:28:9e:56:01:a7:11:fa:ce:12:
                    c7:d8:1f:05:9d:78:a5:6e:cb:c0:bc:ec:46:c9:f2:
                    9c:20:30:58:aa:54:84:f6:c5:54:d5:5f:3d:9f:91:
                    de:a0:c8:47:98:bf:90:4f:25:69:31:f9:8e:27:2f:
                    1d:6b:30:14:f6:cc:d3:b9:f0:25:9f:fb:f6:c9:63:
                    9b:7a:e7:0b:c2:c6:16:44:06:79:c3:a6:b3:38:b2:
                    74:cc:eb:79:e9:00:6b:6e:a7:47:cf:77:e0:d6:43:
                    e4:33
                Exponent: 65537 (0x10001)
        X509v3 extensions:
            X509v3 Basic Constraints: 
                CA:FALSE
            X509v3 Subject Key Identifier: 
                9A:3A:0D:9A:7B:6B:C6:5F:25:EB:A2:FB:C2:97:A4:BC:03:BD:FD:3D
            X509v3 Authority Key Identifier: 
                keyid:C4:46:F2:96:38:56:02:B8:9D:09:04:52:25:91:35:97:6A:D7:B1:F0
                DirName:/C=US/ST=California/L=San Francisco/O=Copyleft Certificate Co/OU=My Organizational Unit/CN=ChangeMe/emailAddress=me@example.net
                serial:D1:5A:15:1C:F0:20:95:62

            X509v3 Extended Key Usage: 
                TLS Web Client Authentication
            X509v3 Key Usage: 
                Digital Signature
    Signature Algorithm: sha256WithRSAEncryption
         97:66:9f:6d:1c:db:de:78:34:e9:08:ff:a4:55:0d:5f:84:7e:
         27:41:cc:1e:ab:e2:32:cf:d1:24:d9:cd:68:e1:e9:c6:7a:11:
         5d:4d:6f:3d:8f:96:08:7e:1d:5d:3f:bd:d0:d3:15:f6:20:4e:
         64:21:31:58:d5:86:bc:b7:b0:36:74:6a:5c:c7:c4:41:cc:1d:
         98:fa:53:6a:f0:3f:d0:98:e5:73:f8:1e:bb:7f:39:9e:80:7f:
         a5:e2:12:70:17:55:1b:0f:8f:e6:e9:44:bc:91:60:85:54:a8:
         3f:08:39:20:68:7b:58:f4:c5:4b:05:8b:2a:3d:67:e7:a0:06:
         fd:3e:31:e0:d8:90:1b:6e:14:91:f4:20:6c:5a:1d:8b:1a:c5:
         11:71:63:51:fb:f9:0c:75:92:e0:52:0a:b8:92:ed:bf:fd:46:
         f4:dc:9a:00:9c:8d:f6:78:a3:a5:c3:6e:32:63:3f:9d:1b:b3:
         6a:04:fd:11:a2:be:26:e1:45:03:7b:45:f7:27:60:be:d1:07:
         d3:d0:07:cf:7f:2c:74:be:52:09:04:d6:c4:a8:a2:5e:50:10:
         8d:a3:19:4b:c2:fd:9c:63:a6:4a:8d:cf:e3:74:01:c9:4a:7a:
         42:89:2d:3c:aa:a4:7d:14:d9:73:c1:d7:2d:7f:9c:1b:63:88:
         e1:93:93:36
-----BEGIN CERTIFICATE-----
MIIFLzCCBBegAwIBAgIRALZxn9apwGyniI9zzVrP8MAwDQYJKoZIhvcNAQELBQAw
ga8xCzAJBgNVBAYTAlVTMRMwEQYDVQQIDApDYWxpZm9ybmlhMRYwFAYDVQQHDA1T
YW4gRnJhbmNpc2NvMSAwHgYDVQQKDBdDb3B5bGVmdCBDZXJ0aWZpY2F0ZSBDbzEf
MB0GA1UECwwWTXkgT3JnYW5pemF0aW9uYWwgVW5pdDERMA8GA1UEAwwIQ2hhbmdl
TWUxHTAbBgkqhkiG9w0BCQEWDm1lQGV4YW1wbGUubmV0MB4XDTIzMTExMjExNDY0
M1oXDTI0MTExMTExNDY0M1owgboxCzAJBgNVBAYTAlVTMQswCQYDVQQIDAJPSDET
MBEGA1UEBwwKQ2luY2lubmF0aTEhMB8GA1UECgwYVW5pdmVyc2l0eSBvZiBDaW5j
aW5uYXRpMSowKAYDVQQLDCFEZXB0LiBFbGVjLiBDb21wLiBFbmcuIENvbXAuIFNj
aS4xEDAOBgNVBAMMB2NsaWVudDcxKDAmBgkqhkiG9w0BCQEWGWZyYW5jb0BnYXVz
cy5lY2Vjcy51Yy5lZHUwggEiMA0GCSqGSIb3DQEBAQUAA4IBDwAwggEKAoIBAQDX
SgXa5gL6whR4xWtT1pfv+UVbZk8DTs5xCi7SuJxOgH1+97Jnt4BMw/K2eJ62K0lv
ysEYLAEbW3pWZruFKE9ql1sET4UQ1QNDSaiBbz9+vIKA9hMvAcsAHwedVheVQE9j
U90F47ynyi7CMlGtlVUBkcbybrqdpvpJ6qJQcoSnRv0oXd2C0RPnhjMkdZQiLsZJ
M3gaHhf2wgljKCieVgGnEfrOEsfYHwWdeKVuy8C87EbJ8pwgMFiqVIT2xVTVXz2f
kd6gyEeYv5BPJWkx+Y4nLx1rMBT2zNO58CWf+/bJY5t65wvCxhZEBnnDprM4snTM
63npAGtup0fPd+DWQ+QzAgMBAAGjggE3MIIBMzAJBgNVHRMEAjAAMB0GA1UdDgQW
BBSaOg2ae2vGXyXrovvCl6S8A739PTCB5AYDVR0jBIHcMIHZgBTERvKWOFYCuJ0J
BFIlkTWXatex8KGBtaSBsjCBrzELMAkGA1UEBhMCVVMxEzARBgNVBAgMCkNhbGlm
b3JuaWExFjAUBgNVBAcMDVNhbiBGcmFuY2lzY28xIDAeBgNVBAoMF0NvcHlsZWZ0
IENlcnRpZmljYXRlIENvMR8wHQYDVQQLDBZNeSBPcmdhbml6YXRpb25hbCBVbml0
MREwDwYDVQQDDAhDaGFuZ2VNZTEdMBsGCSqGSIb3DQEJARYObWVAZXhhbXBsZS5u
ZXSCCQDRWhUc8CCVYjATBgNVHSUEDDAKBggrBgEFBQcDAjALBgNVHQ8EBAMCB4Aw
DQYJKoZIhvcNAQELBQADggEBAJdmn20c2954NOkI/6RVDV+EfidBzB6r4jLP0STZ
zWjh6cZ6EV1Nbz2Plgh+HV0/vdDTFfYgTmQhMVjVhry3sDZ0alzHxEHMHZj6U2rw
P9CY5XP4Hrt/OZ6Af6XiEnAXVRsPj+bpRLyRYIVUqD8IOSBoe1j0xUsFiyo9Z+eg
Bv0+MeDYkBtuFJH0IGxaHYsaxRFxY1H7+Qx1kuBSCriS7b/9RvTcmgCcjfZ4o6XD
bjJjP50bs2oE/RGivibhRQN7RfcnYL7RB9PQB89/LHS+UgkE1sSool5QEI2jGUvC
/ZxjpkqNz+N0AclKekKJLTyqpH0U2XPB1y1/nBtjiOGTkzY=
-----END CERTIFICATE-----
