Certificate:
    Data:
        Version: 3 (0x2)
        Serial Number:
            f7:35:33:ca:07:7f:26:a3:55:e8:ee:eb:59:49:5e:53
    Signature Algorithm: sha256WithRSAEncryption
        Issuer: C=US, ST=California, L=San Francisco, O=Copyleft Certificate Co, OU=My Organizational Unit, CN=ChangeMe/emailAddress=me@example.net
        Validity
            Not Before: Nov 11 01:48:06 2023 GMT
            Not After : Nov 10 01:48:06 2024 GMT
        Subject: C=US, ST=OH, L=Cincinnati, O=University of Cincinnati, OU=Dept. Elec. Comp. Eng. Comp. Sci., CN=client126/emailAddress=franco@gauss.ececs.uc.edu
        Subject Public Key Info:
            Public Key Algorithm: rsaEncryption
                Public-Key: (2048 bit)
                Modulus:
                    00:c6:e6:e3:0f:54:55:e9:96:c0:aa:1d:dc:3e:f0:
                    ea:ff:b4:38:87:2d:4c:e3:50:04:39:4c:7f:aa:58:
                    bd:95:57:17:70:d8:60:43:23:01:b3:c4:6f:29:55:
                    96:ab:c3:c0:db:85:b7:14:3a:50:85:ae:3a:f4:0f:
                    ab:4a:a7:6e:58:a0:fe:d1:aa:d8:8d:c7:0a:24:13:
                    e6:bd:8f:7a:51:57:cb:00:ec:7c:e5:3f:85:d1:09:
                    54:f7:8c:72:de:7b:23:33:46:eb:81:77:2f:19:c4:
                    29:e6:86:dd:4a:f8:36:38:ec:0a:70:68:d9:b9:32:
                    ca:74:93:da:b6:e1:91:33:9d:d6:3b:eb:0f:83:ce:
                    87:eb:fe:e4:6a:36:b9:b2:e8:b5:d1:82:46:9c:1b:
                    bb:ff:84:86:78:b0:c3:6e:f2:9e:62:5a:ca:24:11:
                    99:3e:b4:29:5e:b8:9c:cc:af:26:05:f4:12:e4:95:
                    82:cd:b8:6d:48:fc:27:d8:a4:7e:06:bc:39:ac:41:
                    3f:eb:75:75:79:b8:64:3d:72:16:31:26:4b:39:11:
                    d4:3c:83:e6:a3:87:e3:fa:c0:99:d7:97:7f:4c:25:
                    ad:cc:0d:34:a3:a0:08:7b:35:16:20:38:2f:fe:9e:
                    1c:ae:56:ce:df:ec:19:f6:c5:80:96:96:ab:46:25:
                    11:a1
                Exponent: 65537 (0x10001)
        X509v3 extensions:
            X509v3 Basic Constraints: 
                CA:FALSE
            X509v3 Subject Key Identifier: 
                6A:F2:72:8B:2D:B3:34:6B:58:92:12:75:69:27:C6:A1:E1:0A:0E:F2
            X509v3 Authority Key Identifier: 
                keyid:73:DE:A0:43:0F:AE:B1:9E:E8:59:69:18:50:A1:1A:1F:D4:A1:E3:F0
                DirName:/C=US/ST=California/L=San Francisco/O=Copyleft Certificate Co/OU=My Organizational Unit/CN=ChangeMe/emailAddress=me@example.net
                serial:E9:BB:CB:16:C5:32:BE:3B

            X509v3 Extended Key Usage: 
                TLS Web Client Authentication
            X509v3 Key Usage: 
                Digital Signature
    Signature Algorithm: sha256WithRSAEncryption
         92:02:ef:88:e5:52:d6:b5:be:fa:c8:b3:b6:f4:2a:51:65:68:
         fa:6d:92:57:bb:44:92:86:e4:63:73:58:41:d9:0a:b0:92:0a:
         86:6c:bc:55:2d:36:25:a4:8e:bb:bc:4e:90:d3:04:bb:e5:19:
         11:34:99:cf:22:96:e6:3f:ef:10:68:53:c7:09:5d:c2:cb:65:
         63:30:e8:26:fa:46:ef:72:2d:2d:83:a1:a3:9d:2f:48:ec:a7:
         d8:01:5d:43:99:6c:e3:1d:d3:d2:0f:c6:59:d8:32:a4:ec:e4:
         1d:c9:e9:e2:1a:20:de:77:69:02:d7:bc:18:f1:d1:72:f0:e3:
         a9:e9:5c:c7:53:56:9d:bc:aa:57:a2:cd:da:8e:a7:bb:0a:b3:
         9f:eb:7c:ff:de:08:58:7a:be:1a:b4:44:45:75:ce:06:00:8d:
         88:b4:96:d7:69:0e:ea:80:65:18:c6:22:3b:31:b3:0b:19:2e:
         78:52:b8:41:a5:85:b4:0c:07:3d:1a:44:93:38:d2:e9:09:79:
         36:62:69:58:6c:88:e9:b0:a8:8f:c7:77:b7:37:f3:bc:67:af:
         2b:b8:d7:05:f4:29:cd:9d:a9:38:e3:51:8d:ac:e6:73:6a:c7:
         73:f9:7f:1a:5a:8c:70:6c:9c:3c:72:c4:1f:97:6a:09:cc:3f:
         7f:f1:5f:52
-----BEGIN CERTIFICATE-----
MIIFMTCCBBmgAwIBAgIRAPc1M8oHfyajVeju61lJXlMwDQYJKoZIhvcNAQELBQAw
ga8xCzAJBgNVBAYTAlVTMRMwEQYDVQQIDApDYWxpZm9ybmlhMRYwFAYDVQQHDA1T
YW4gRnJhbmNpc2NvMSAwHgYDVQQKDBdDb3B5bGVmdCBDZXJ0aWZpY2F0ZSBDbzEf
MB0GA1UECwwWTXkgT3JnYW5pemF0aW9uYWwgVW5pdDERMA8GA1UEAwwIQ2hhbmdl
TWUxHTAbBgkqhkiG9w0BCQEWDm1lQGV4YW1wbGUubmV0MB4XDTIzMTExMTAxNDgw
NloXDTI0MTExMDAxNDgwNlowgbwxCzAJBgNVBAYTAlVTMQswCQYDVQQIDAJPSDET
MBEGA1UEBwwKQ2luY2lubmF0aTEhMB8GA1UECgwYVW5pdmVyc2l0eSBvZiBDaW5j
aW5uYXRpMSowKAYDVQQLDCFEZXB0LiBFbGVjLiBDb21wLiBFbmcuIENvbXAuIFNj
aS4xEjAQBgNVBAMMCWNsaWVudDEyNjEoMCYGCSqGSIb3DQEJARYZZnJhbmNvQGdh
dXNzLmVjZWNzLnVjLmVkdTCCASIwDQYJKoZIhvcNAQEBBQADggEPADCCAQoCggEB
AMbm4w9UVemWwKod3D7w6v+0OIctTONQBDlMf6pYvZVXF3DYYEMjAbPEbylVlqvD
wNuFtxQ6UIWuOvQPq0qnblig/tGq2I3HCiQT5r2PelFXywDsfOU/hdEJVPeMct57
IzNG64F3LxnEKeaG3Ur4NjjsCnBo2bkyynST2rbhkTOd1jvrD4POh+v+5Go2ubLo
tdGCRpwbu/+Ehniww27ynmJayiQRmT60KV64nMyvJgX0EuSVgs24bUj8J9ikfga8
OaxBP+t1dXm4ZD1yFjEmSzkR1DyD5qOH4/rAmdeXf0wlrcwNNKOgCHs1FiA4L/6e
HK5Wzt/sGfbFgJaWq0YlEaECAwEAAaOCATcwggEzMAkGA1UdEwQCMAAwHQYDVR0O
BBYEFGrycostszRrWJISdWknxqHhCg7yMIHkBgNVHSMEgdwwgdmAFHPeoEMPrrGe
6FlpGFChGh/UoePwoYG1pIGyMIGvMQswCQYDVQQGEwJVUzETMBEGA1UECAwKQ2Fs
aWZvcm5pYTEWMBQGA1UEBwwNU2FuIEZyYW5jaXNjbzEgMB4GA1UECgwXQ29weWxl
ZnQgQ2VydGlmaWNhdGUgQ28xHzAdBgNVBAsMFk15IE9yZ2FuaXphdGlvbmFsIFVu
aXQxETAPBgNVBAMMCENoYW5nZU1lMR0wGwYJKoZIhvcNAQkBFg5tZUBleGFtcGxl
Lm5ldIIJAOm7yxbFMr47MBMGA1UdJQQMMAoGCCsGAQUFBwMCMAsGA1UdDwQEAwIH
gDANBgkqhkiG9w0BAQsFAAOCAQEAkgLviOVS1rW++siztvQqUWVo+m2SV7tEkobk
Y3NYQdkKsJIKhmy8VS02JaSOu7xOkNMEu+UZETSZzyKW5j/vEGhTxwldwstlYzDo
JvpG73ItLYOho50vSOyn2AFdQ5ls4x3T0g/GWdgypOzkHcnp4hog3ndpAte8GPHR
cvDjqelcx1NWnbyqV6LN2o6nuwqzn+t8/94IWHq+GrRERXXOBgCNiLSW12kO6oBl
GMYiOzGzCxkueFK4QaWFtAwHPRpEkzjS6Ql5NmJpWGyI6bCoj8d3tzfzvGevK7jX
BfQpzZ2pOONRjazmc2rHc/l/GlqMcGycPHLEH5dqCcw/f/FfUg==
-----END CERTIFICATE-----
