Certificate:
    Data:
        Version: 3 (0x2)
        Serial Number:
            43:81:9a:63:6b:6e:03:d7:fd:73:29:93:42:08:4e:fc
    Signature Algorithm: sha256WithRSAEncryption
        Issuer: C=US, ST=California, L=San Francisco, O=Copyleft Certificate Co, OU=My Organizational Unit, CN=ChangeMe/emailAddress=me@example.net
        Validity
            Not Before: Nov 10 17:42:45 2023 GMT
            Not After : Nov  9 17:42:45 2024 GMT
        Subject: C=US, ST=OH, L=Cincinnati, O=University of Cincinnati, OU=Dept_Elec_Com_ Eng_Com_Sci., CN=client65/emailAddress=franco@gauss.ececs.uc.edu
        Subject Public Key Info:
            Public Key Algorithm: rsaEncryption
                Public-Key: (2048 bit)
                Modulus:
                    00:a5:12:b9:dc:6e:d1:0f:79:6d:b2:e2:51:6d:7e:
                    a6:c3:d2:4a:b7:74:b6:8a:22:fd:01:b8:96:32:54:
                    7f:08:76:f4:e0:fa:22:3d:12:03:60:f3:5d:90:ce:
                    3f:e9:d2:8b:a4:2a:76:a6:1c:43:e4:36:82:6a:78:
                    e2:e0:83:a0:06:02:cc:25:41:45:40:35:0d:58:48:
                    26:56:ba:61:f1:80:53:fc:4b:cf:08:76:ea:be:9e:
                    f0:6b:46:82:d5:98:c5:05:cc:f9:42:ec:ca:42:51:
                    8b:12:9d:59:9a:e5:c4:b7:ce:7e:5f:ca:31:41:eb:
                    d1:37:1d:6e:47:62:cf:f1:16:f0:8c:2c:46:c9:eb:
                    2c:76:cf:c9:47:5d:49:50:8a:3f:48:7b:76:de:79:
                    b1:ac:9b:e9:12:df:ff:6b:ef:60:68:e5:b8:f0:0a:
                    e4:28:da:15:92:32:d1:16:4d:d9:10:ad:62:1f:17:
                    a3:b0:46:4c:f1:24:89:75:83:47:a8:46:ef:b6:8c:
                    5c:be:12:34:c5:56:3d:52:0f:c2:e3:98:80:9c:0a:
                    38:1a:38:d0:d9:5f:1f:2e:82:47:7e:98:a8:b9:57:
                    71:b1:67:88:99:64:0e:f6:15:42:4f:c3:6a:49:47:
                    da:2c:7e:3f:38:36:69:b0:12:f4:1b:b7:fa:10:46:
                    b5:bd
                Exponent: 65537 (0x10001)
        X509v3 extensions:
            X509v3 Basic Constraints: 
                CA:FALSE
            X509v3 Subject Key Identifier: 
                B1:3A:0B:39:1C:BA:25:15:C4:AD:BE:1C:D1:80:DF:89:57:03:CA:06
            X509v3 Authority Key Identifier: 
                keyid:C8:27:DA:64:30:08:40:08:4A:25:CC:DC:43:99:DE:77:A1:FE:77:BD
                DirName:/C=US/ST=California/L=San Francisco/O=Copyleft Certificate Co/OU=My Organizational Unit/CN=ChangeMe/emailAddress=me@example.net
                serial:A9:48:C3:7E:FC:1B:B0:A1

            X509v3 Extended Key Usage: 
                TLS Web Client Authentication
            X509v3 Key Usage: 
                Digital Signature
    Signature Algorithm: sha256WithRSAEncryption
         20:c9:ab:e3:d6:2e:d0:71:c8:81:bc:d7:21:e9:5f:94:07:64:
         99:cf:a4:d9:fb:71:91:32:bf:31:7f:d8:b7:15:c0:f9:0e:39:
         4c:6a:f3:f5:8f:f6:39:0f:e1:86:c5:63:72:68:44:ce:d7:71:
         ea:87:15:e8:c0:bb:ad:bf:44:e7:a5:ba:c0:43:ad:50:f8:6b:
         0f:9a:ef:51:41:58:6a:89:dc:3c:7b:2d:67:f4:eb:fe:93:fd:
         c0:4d:61:ae:96:ca:7b:41:78:59:45:92:48:d9:c5:e8:13:d6:
         0a:13:7a:fb:71:2e:2d:ec:6a:8e:2d:36:87:22:b1:fe:65:4a:
         98:3d:a5:2d:c4:00:c7:64:a7:f2:db:41:2f:ee:a8:ad:e0:40:
         10:e3:b4:48:ad:8c:19:cd:60:94:d4:c0:e3:f7:fb:88:cd:50:
         a7:67:99:5c:bc:2e:0c:e7:01:94:91:e9:73:a7:3e:6d:79:99:
         7a:39:86:e7:87:34:24:81:da:00:5e:85:10:58:3d:a2:b9:49:
         81:18:ac:0c:c5:27:6f:9f:b1:77:5f:82:73:ff:5c:5a:1b:9e:
         87:27:f1:d3:a3:85:8a:83:71:f9:37:53:06:65:4b:52:93:ab:
         b8:d3:1a:25:79:27:19:fd:8a:a2:a6:02:df:80:ba:d0:73:05:
         6e:ec:5c:51
-----BEGIN CERTIFICATE-----
MIIFKTCCBBGgAwIBAgIQQ4GaY2tuA9f9cymTQghO/DANBgkqhkiG9w0BAQsFADCB
rzELMAkGA1UEBhMCVVMxEzARBgNVBAgMCkNhbGlmb3JuaWExFjAUBgNVBAcMDVNh
biBGcmFuY2lzY28xIDAeBgNVBAoMF0NvcHlsZWZ0IENlcnRpZmljYXRlIENvMR8w
HQYDVQQLDBZNeSBPcmdhbml6YXRpb25hbCBVbml0MREwDwYDVQQDDAhDaGFuZ2VN
ZTEdMBsGCSqGSIb3DQEJARYObWVAZXhhbXBsZS5uZXQwHhcNMjMxMTEwMTc0MjQ1
WhcNMjQxMTA5MTc0MjQ1WjCBtTELMAkGA1UEBhMCVVMxCzAJBgNVBAgMAk9IMRMw
EQYDVQQHDApDaW5jaW5uYXRpMSEwHwYDVQQKDBhVbml2ZXJzaXR5IG9mIENpbmNp
bm5hdGkxJDAiBgNVBAsMG0RlcHRfRWxlY19Db21fIEVuZ19Db21fU2NpLjERMA8G
A1UEAwwIY2xpZW50NjUxKDAmBgkqhkiG9w0BCQEWGWZyYW5jb0BnYXVzcy5lY2Vj
cy51Yy5lZHUwggEiMA0GCSqGSIb3DQEBAQUAA4IBDwAwggEKAoIBAQClErncbtEP
eW2y4lFtfqbD0kq3dLaKIv0BuJYyVH8IdvTg+iI9EgNg812Qzj/p0oukKnamHEPk
NoJqeOLgg6AGAswlQUVANQ1YSCZWumHxgFP8S88Iduq+nvBrRoLVmMUFzPlC7MpC
UYsSnVma5cS3zn5fyjFB69E3HW5HYs/xFvCMLEbJ6yx2z8lHXUlQij9Ie3beebGs
m+kS3/9r72Bo5bjwCuQo2hWSMtEWTdkQrWIfF6OwRkzxJIl1g0eoRu+2jFy+EjTF
Vj1SD8LjmICcCjgaONDZXx8ugkd+mKi5V3GxZ4iZZA72FUJPw2pJR9osfj84Nmmw
EvQbt/oQRrW9AgMBAAGjggE3MIIBMzAJBgNVHRMEAjAAMB0GA1UdDgQWBBSxOgs5
HLolFcStvhzRgN+JVwPKBjCB5AYDVR0jBIHcMIHZgBTIJ9pkMAhACEolzNxDmd53
of53vaGBtaSBsjCBrzELMAkGA1UEBhMCVVMxEzARBgNVBAgMCkNhbGlmb3JuaWEx
FjAUBgNVBAcMDVNhbiBGcmFuY2lzY28xIDAeBgNVBAoMF0NvcHlsZWZ0IENlcnRp
ZmljYXRlIENvMR8wHQYDVQQLDBZNeSBPcmdhbml6YXRpb25hbCBVbml0MREwDwYD
VQQDDAhDaGFuZ2VNZTEdMBsGCSqGSIb3DQEJARYObWVAZXhhbXBsZS5uZXSCCQCp
SMN+/BuwoTATBgNVHSUEDDAKBggrBgEFBQcDAjALBgNVHQ8EBAMCB4AwDQYJKoZI
hvcNAQELBQADggEBACDJq+PWLtBxyIG81yHpX5QHZJnPpNn7cZEyvzF/2LcVwPkO
OUxq8/WP9jkP4YbFY3JoRM7XceqHFejAu62/ROelusBDrVD4aw+a71FBWGqJ3Dx7
LWf06/6T/cBNYa6WyntBeFlFkkjZxegT1goTevtxLi3sao4tNocisf5lSpg9pS3E
AMdkp/LbQS/uqK3gQBDjtEitjBnNYJTUwOP3+4jNUKdnmVy8LgznAZSR6XOnPm15
mXo5hueHNCSB2gBehRBYPaK5SYEYrAzFJ2+fsXdfgnP/XFobnocn8dOjhYqDcfk3
UwZlS1KTq7jTGiV5Jxn9iqKmAt+AutBzBW7sXFE=
-----END CERTIFICATE-----
