Certificate:
    Data:
        Version: 3 (0x2)
        Serial Number:
            98:18:f0:38:cd:52:8b:d9:a2:6a:1b:a1:d4:d6:e0:70
    Signature Algorithm: sha256WithRSAEncryption
        Issuer: C=US, ST=California, L=San Francisco, O=Copyleft Certificate Co, OU=My Organizational Unit, CN=ChangeMe/emailAddress=me@example.net
        Validity
            Not Before: Nov 11 01:44:30 2023 GMT
            Not After : Nov 10 01:44:30 2024 GMT
        Subject: C=US, ST=OH, L=Cincinnati, O=University of Cincinnati, OU=Dept. Elec. Comp. Eng. Comp. Sci., CN=client72/emailAddress=franco@gauss.ececs.uc.edu
        Subject Public Key Info:
            Public Key Algorithm: rsaEncryption
                Public-Key: (2048 bit)
                Modulus:
                    00:ac:8f:0b:a4:0a:b6:1e:1d:06:26:2c:d3:c1:7e:
                    d8:4a:d2:2d:b7:f2:2a:3c:99:df:48:0f:1e:20:3b:
                    18:a6:3e:05:c3:cc:1b:08:f6:9c:6b:ed:ca:91:ad:
                    f7:44:93:4d:1d:3f:ea:b0:3b:a1:cd:e1:81:9a:62:
                    a2:1b:5c:cf:0f:46:f8:0c:8a:d9:27:cf:17:70:c4:
                    4c:c9:3d:cf:97:67:5c:2f:03:cb:31:f1:12:a1:88:
                    fd:23:a7:d0:0e:da:ba:e2:ca:db:db:56:8f:e2:b8:
                    51:c2:ae:a3:d3:c3:1e:89:e5:13:6d:bf:7b:46:6b:
                    dc:c4:90:c8:48:f4:29:2d:f2:bb:6a:b9:de:5d:f7:
                    f0:26:7f:f1:93:41:0d:be:91:9d:16:1b:19:57:bd:
                    e1:91:e3:3c:1a:a7:fd:ed:d3:9f:37:3f:a1:ae:b3:
                    53:94:54:b1:b5:9e:e9:15:de:bd:4b:b5:51:f4:3d:
                    f8:73:f9:c4:19:a5:9a:21:20:d4:46:4e:7a:1e:c2:
                    0f:f1:4d:80:c2:62:6f:a1:50:31:32:e8:17:4f:58:
                    c7:86:9a:e3:45:5c:e2:4f:9e:2c:4b:a9:b1:0e:01:
                    d1:12:8e:57:1a:95:56:b3:93:97:46:b5:96:55:c0:
                    24:eb:27:bf:fa:a5:1e:6c:15:83:19:03:eb:2d:2c:
                    51:6f
                Exponent: 65537 (0x10001)
        X509v3 extensions:
            X509v3 Basic Constraints: 
                CA:FALSE
            X509v3 Subject Key Identifier: 
                78:84:E0:1A:77:A6:E3:A8:55:38:29:8E:03:06:D1:DE:BE:4A:3F:C6
            X509v3 Authority Key Identifier: 
                keyid:73:DE:A0:43:0F:AE:B1:9E:E8:59:69:18:50:A1:1A:1F:D4:A1:E3:F0
                DirName:/C=US/ST=California/L=San Francisco/O=Copyleft Certificate Co/OU=My Organizational Unit/CN=ChangeMe/emailAddress=me@example.net
                serial:E9:BB:CB:16:C5:32:BE:3B

            X509v3 Extended Key Usage: 
                TLS Web Client Authentication
            X509v3 Key Usage: 
                Digital Signature
    Signature Algorithm: sha256WithRSAEncryption
         75:52:e5:f0:c7:a9:82:33:22:a0:70:33:ff:c7:e2:25:5e:1d:
         2e:53:23:22:88:95:29:bc:ab:fa:ac:1f:55:fa:35:1a:b6:19:
         ed:e2:69:0c:6a:91:98:b3:9f:e8:39:7d:6b:b4:73:1e:1c:95:
         ce:68:ed:4a:30:34:92:57:08:23:7a:5c:fc:0a:e2:99:90:20:
         ca:1a:dd:fa:38:f1:a1:05:51:db:73:8f:24:25:84:26:6b:c1:
         f9:5d:6d:5c:34:14:a2:25:bc:5c:e5:e5:75:82:a0:ce:91:68:
         9d:4c:4a:c2:3f:b6:55:66:51:82:d0:bb:84:c0:35:ba:9c:f5:
         87:d0:77:14:fa:7c:69:d2:2a:70:fa:02:15:ba:2c:60:35:b6:
         48:62:bb:4e:d4:58:91:f0:74:5d:ce:c3:58:5b:64:70:a7:07:
         0c:b9:30:fd:ef:1b:92:cf:92:e3:b0:e7:9c:8d:43:01:dd:a3:
         21:9e:09:d4:a8:94:09:d3:89:bb:b9:c3:ce:e3:13:8d:ae:d9:
         d8:bd:3e:5a:b2:41:85:b0:d5:bd:4f:37:b1:5c:c8:8c:fc:df:
         ce:a6:10:4b:07:c1:2a:22:4e:06:41:01:2f:80:5c:e0:e0:7c:
         88:e9:7f:0e:f6:47:74:49:05:7b:0b:68:8d:0b:09:3a:3c:cc:
         53:5d:5f:75
-----BEGIN CERTIFICATE-----
MIIFMDCCBBigAwIBAgIRAJgY8DjNUovZomobodTW4HAwDQYJKoZIhvcNAQELBQAw
ga8xCzAJBgNVBAYTAlVTMRMwEQYDVQQIDApDYWxpZm9ybmlhMRYwFAYDVQQHDA1T
YW4gRnJhbmNpc2NvMSAwHgYDVQQKDBdDb3B5bGVmdCBDZXJ0aWZpY2F0ZSBDbzEf
MB0GA1UECwwWTXkgT3JnYW5pemF0aW9uYWwgVW5pdDERMA8GA1UEAwwIQ2hhbmdl
TWUxHTAbBgkqhkiG9w0BCQEWDm1lQGV4YW1wbGUubmV0MB4XDTIzMTExMTAxNDQz
MFoXDTI0MTExMDAxNDQzMFowgbsxCzAJBgNVBAYTAlVTMQswCQYDVQQIDAJPSDET
MBEGA1UEBwwKQ2luY2lubmF0aTEhMB8GA1UECgwYVW5pdmVyc2l0eSBvZiBDaW5j
aW5uYXRpMSowKAYDVQQLDCFEZXB0LiBFbGVjLiBDb21wLiBFbmcuIENvbXAuIFNj
aS4xETAPBgNVBAMMCGNsaWVudDcyMSgwJgYJKoZIhvcNAQkBFhlmcmFuY29AZ2F1
c3MuZWNlY3MudWMuZWR1MIIBIjANBgkqhkiG9w0BAQEFAAOCAQ8AMIIBCgKCAQEA
rI8LpAq2Hh0GJizTwX7YStItt/IqPJnfSA8eIDsYpj4Fw8wbCPaca+3Kka33RJNN
HT/qsDuhzeGBmmKiG1zPD0b4DIrZJ88XcMRMyT3Pl2dcLwPLMfESoYj9I6fQDtq6
4srb21aP4rhRwq6j08MeieUTbb97RmvcxJDISPQpLfK7arneXffwJn/xk0ENvpGd
FhsZV73hkeM8Gqf97dOfNz+hrrNTlFSxtZ7pFd69S7VR9D34c/nEGaWaISDURk56
HsIP8U2AwmJvoVAxMugXT1jHhprjRVziT54sS6mxDgHREo5XGpVWs5OXRrWWVcAk
6ye/+qUebBWDGQPrLSxRbwIDAQABo4IBNzCCATMwCQYDVR0TBAIwADAdBgNVHQ4E
FgQUeITgGnem46hVOCmOAwbR3r5KP8YwgeQGA1UdIwSB3DCB2YAUc96gQw+usZ7o
WWkYUKEaH9Sh4/ChgbWkgbIwga8xCzAJBgNVBAYTAlVTMRMwEQYDVQQIDApDYWxp
Zm9ybmlhMRYwFAYDVQQHDA1TYW4gRnJhbmNpc2NvMSAwHgYDVQQKDBdDb3B5bGVm
dCBDZXJ0aWZpY2F0ZSBDbzEfMB0GA1UECwwWTXkgT3JnYW5pemF0aW9uYWwgVW5p
dDERMA8GA1UEAwwIQ2hhbmdlTWUxHTAbBgkqhkiG9w0BCQEWDm1lQGV4YW1wbGUu
bmV0ggkA6bvLFsUyvjswEwYDVR0lBAwwCgYIKwYBBQUHAwIwCwYDVR0PBAQDAgeA
MA0GCSqGSIb3DQEBCwUAA4IBAQB1UuXwx6mCMyKgcDP/x+IlXh0uUyMiiJUpvKv6
rB9V+jUathnt4mkMapGYs5/oOX1rtHMeHJXOaO1KMDSSVwgjelz8CuKZkCDKGt36
OPGhBVHbc48kJYQma8H5XW1cNBSiJbxc5eV1gqDOkWidTErCP7ZVZlGC0LuEwDW6
nPWH0HcU+nxp0ipw+gIVuixgNbZIYrtO1FiR8HRdzsNYW2RwpwcMuTD97xuSz5Lj
sOecjUMB3aMhngnUqJQJ04m7ucPO4xONrtnYvT5askGFsNW9TzexXMiM/N/OphBL
B8EqIk4GQQEvgFzg4HyI6X8O9kd0SQV7C2iNCwk6PMxTXV91
-----END CERTIFICATE-----
