Certificate:
    Data:
        Version: 3 (0x2)
        Serial Number:
            17:f0:71:4b:29:f4:ba:5c:36:86:4e:a3:a9:de:d6:a3
    Signature Algorithm: sha256WithRSAEncryption
        Issuer: C=US, ST=California, L=San Francisco, O=Copyleft Certificate Co, OU=My Organizational Unit, CN=ChangeMe/emailAddress=me@example.net
        Validity
            Not Before: Jan 23 18:28:06 2021 GMT
            Not After : Jan 23 18:28:06 2022 GMT
        Subject: C=US, ST=OH, L=Cincinnati, O=University of Cincinnati, OU=Dept. Electrical Eng. and Computer Sci., CN=client35/emailAddress=franco@gauss.ececs.uc.edu
        Subject Public Key Info:
            Public Key Algorithm: rsaEncryption
                Public-Key: (2048 bit)
                Modulus:
                    00:9e:35:11:ef:5f:94:da:99:21:c3:39:00:c4:05:
                    af:36:fb:fb:14:9e:11:af:bd:9d:23:46:87:92:72:
                    e4:1b:17:ca:d3:d0:3d:bd:0e:b8:2d:06:fb:01:b2:
                    3f:cc:90:db:b5:cd:94:c3:09:f0:af:f3:51:1f:c1:
                    28:27:52:82:82:29:60:3e:6a:6b:59:14:3d:42:5b:
                    79:40:b8:5d:41:6d:31:e2:ab:9e:9d:9e:ec:3a:3c:
                    e1:d8:48:9b:7a:01:95:f1:f8:74:ca:38:fd:24:a4:
                    bf:50:5c:ff:85:90:90:d4:ff:ad:89:99:3d:69:fb:
                    76:9e:5b:35:35:af:fb:61:a4:7f:54:1f:6b:1c:37:
                    6b:0b:b4:01:91:0a:fd:9e:b0:c2:29:78:b1:91:16:
                    5d:29:2d:21:e5:be:8f:8a:d0:7b:1e:04:0d:37:70:
                    15:68:cd:42:c4:19:f6:21:ec:ff:e3:80:9a:64:3f:
                    1c:73:2f:de:8e:e6:6d:0f:62:a1:26:7b:5b:41:fe:
                    53:08:da:07:0e:19:81:04:0f:90:e8:e7:b3:75:51:
                    09:e7:d9:eb:cd:61:b1:ae:7a:24:fb:fa:96:ee:85:
                    d7:65:3c:c0:3f:c7:ae:6e:f5:0e:78:ac:73:18:e5:
                    4c:e5:17:fd:1b:7a:9f:1f:50:ac:b1:11:6c:50:61:
                    36:f9
                Exponent: 65537 (0x10001)
        X509v3 extensions:
            X509v3 Basic Constraints: 
                CA:FALSE
            X509v3 Subject Key Identifier: 
                63:09:82:28:A0:B8:8B:CB:5A:64:62:FD:5D:3C:02:DC:13:DA:45:B8
            X509v3 Authority Key Identifier: 
                keyid:EF:DC:B6:3D:4B:FD:A7:87:05:C5:22:3D:8B:DC:BF:99:2A:EE:E4:DB
                DirName:/C=US/ST=California/L=San Francisco/O=Copyleft Certificate Co/OU=My Organizational Unit/CN=ChangeMe/emailAddress=me@example.net
                serial:87:1E:1D:DC:6B:8C:66:88

            X509v3 Extended Key Usage: 
                TLS Web Client Authentication
            X509v3 Key Usage: 
                Digital Signature
    Signature Algorithm: sha256WithRSAEncryption
         b9:7c:37:b3:29:65:46:61:95:f7:81:fe:09:d6:7b:58:0b:8a:
         25:bb:9a:23:9d:a3:f3:a4:8b:d1:7a:53:67:85:4a:35:48:fa:
         88:09:42:de:96:aa:bb:a8:80:ec:09:38:03:13:e3:53:ff:d1:
         47:10:4e:54:35:09:77:25:41:6a:e1:ce:c6:7d:a6:ce:a1:4e:
         d2:c4:76:32:2c:c4:6d:60:36:79:7c:c2:20:f3:83:46:40:ba:
         86:42:59:25:56:14:5d:83:5b:ba:69:32:3e:44:3e:25:ba:01:
         9b:40:c0:91:74:0b:f0:38:c7:a9:65:59:42:b7:66:7e:f8:f7:
         5b:5a:e9:57:f8:97:f1:21:40:65:f3:ad:c3:ca:0a:63:74:3b:
         37:81:2e:82:41:93:8f:27:b7:8e:11:22:1d:c8:fd:40:79:22:
         fd:89:ba:df:5a:17:69:d1:06:d8:50:23:9b:d6:3f:d7:13:3b:
         15:4c:cb:48:76:c3:f2:68:f0:04:8d:4d:75:a4:d8:2f:72:d4:
         88:26:59:6a:7b:27:e3:22:0a:b9:e1:c6:a1:aa:7e:08:08:75:
         5d:0e:9f:92:00:95:98:7e:f6:53:71:9a:bd:f2:03:8c:88:a0:
         15:ce:4c:83:86:92:62:17:6a:38:5f:28:c6:68:3d:2b:af:d8:
         39:cf:88:aa
-----BEGIN CERTIFICATE-----
MIIFNTCCBB2gAwIBAgIQF/BxSyn0ulw2hk6jqd7WozANBgkqhkiG9w0BAQsFADCB
rzELMAkGA1UEBhMCVVMxEzARBgNVBAgMCkNhbGlmb3JuaWExFjAUBgNVBAcMDVNh
biBGcmFuY2lzY28xIDAeBgNVBAoMF0NvcHlsZWZ0IENlcnRpZmljYXRlIENvMR8w
HQYDVQQLDBZNeSBPcmdhbml6YXRpb25hbCBVbml0MREwDwYDVQQDDAhDaGFuZ2VN
ZTEdMBsGCSqGSIb3DQEJARYObWVAZXhhbXBsZS5uZXQwHhcNMjEwMTIzMTgyODA2
WhcNMjIwMTIzMTgyODA2WjCBwTELMAkGA1UEBhMCVVMxCzAJBgNVBAgMAk9IMRMw
EQYDVQQHDApDaW5jaW5uYXRpMSEwHwYDVQQKDBhVbml2ZXJzaXR5IG9mIENpbmNp
bm5hdGkxMDAuBgNVBAsMJ0RlcHQuIEVsZWN0cmljYWwgRW5nLiBhbmQgQ29tcHV0
ZXIgU2NpLjERMA8GA1UEAwwIY2xpZW50MzUxKDAmBgkqhkiG9w0BCQEWGWZyYW5j
b0BnYXVzcy5lY2Vjcy51Yy5lZHUwggEiMA0GCSqGSIb3DQEBAQUAA4IBDwAwggEK
AoIBAQCeNRHvX5TamSHDOQDEBa82+/sUnhGvvZ0jRoeScuQbF8rT0D29DrgtBvsB
sj/MkNu1zZTDCfCv81EfwSgnUoKCKWA+amtZFD1CW3lAuF1BbTHiq56dnuw6POHY
SJt6AZXx+HTKOP0kpL9QXP+FkJDU/62JmT1p+3aeWzU1r/thpH9UH2scN2sLtAGR
Cv2esMIpeLGRFl0pLSHlvo+K0HseBA03cBVozULEGfYh7P/jgJpkPxxzL96O5m0P
YqEme1tB/lMI2gcOGYEED5Do57N1UQnn2evNYbGueiT7+pbuhddlPMA/x65u9Q54
rHMY5UzlF/0bep8fUKyxEWxQYTb5AgMBAAGjggE3MIIBMzAJBgNVHRMEAjAAMB0G
A1UdDgQWBBRjCYIooLiLy1pkYv1dPALcE9pFuDCB5AYDVR0jBIHcMIHZgBTv3LY9
S/2nhwXFIj2L3L+ZKu7k26GBtaSBsjCBrzELMAkGA1UEBhMCVVMxEzARBgNVBAgM
CkNhbGlmb3JuaWExFjAUBgNVBAcMDVNhbiBGcmFuY2lzY28xIDAeBgNVBAoMF0Nv
cHlsZWZ0IENlcnRpZmljYXRlIENvMR8wHQYDVQQLDBZNeSBPcmdhbml6YXRpb25h
bCBVbml0MREwDwYDVQQDDAhDaGFuZ2VNZTEdMBsGCSqGSIb3DQEJARYObWVAZXhh
bXBsZS5uZXSCCQCHHh3ca4xmiDATBgNVHSUEDDAKBggrBgEFBQcDAjALBgNVHQ8E
BAMCB4AwDQYJKoZIhvcNAQELBQADggEBALl8N7MpZUZhlfeB/gnWe1gLiiW7miOd
o/Oki9F6U2eFSjVI+ogJQt6WqruogOwJOAMT41P/0UcQTlQ1CXclQWrhzsZ9ps6h
TtLEdjIsxG1gNnl8wiDzg0ZAuoZCWSVWFF2DW7ppMj5EPiW6AZtAwJF0C/A4x6ll
WUK3Zn7491ta6Vf4l/EhQGXzrcPKCmN0OzeBLoJBk48nt44RIh3I/UB5Iv2Jut9a
F2nRBthQI5vWP9cTOxVMy0h2w/Jo8ASNTXWk2C9y1IgmWWp7J+MiCrnhxqGqfggI
dV0On5IAlZh+9lNxmr3yA4yIoBXOTIOGkmIXajhfKMZoPSuv2DnPiKo=
-----END CERTIFICATE-----
