Certificate:
    Data:
        Version: 3 (0x2)
        Serial Number:
            a3:fa:77:fb:20:f4:51:76:57:37:8b:a3:1d:b6:cc:f8
    Signature Algorithm: sha256WithRSAEncryption
        Issuer: C=US, ST=California, L=San Francisco, O=Copyleft Certificate Co, OU=My Organizational Unit, CN=ChangeMe/emailAddress=me@example.net
        Validity
            Not Before: Nov 13 11:47:22 2023 GMT
            Not After : Nov 12 11:47:22 2024 GMT
        Subject: C=US, ST=OH, L=Cincinnati, O=University of Cincinnati, OU=Dept. Elec. Comp. Eng. Comp. Sci., CN=client14/emailAddress=franco@gauss.ececs.uc.edu
        Subject Public Key Info:
            Public Key Algorithm: rsaEncryption
                Public-Key: (2048 bit)
                Modulus:
                    00:be:47:f0:29:97:e8:21:f8:bc:99:0c:7d:e9:ca:
                    f0:1a:61:af:c2:9f:ef:c1:51:bf:4e:8e:f5:6d:59:
                    13:c4:9e:37:ec:aa:62:18:86:ab:f8:c2:d9:83:6c:
                    35:26:1b:04:5f:af:81:7e:97:a8:78:92:da:92:48:
                    82:8b:85:4f:f6:9f:c1:37:c1:15:22:92:70:29:f0:
                    65:11:dd:28:d1:95:01:ed:e7:3c:06:da:03:09:09:
                    b3:d9:fb:0e:91:db:ad:1c:c1:8f:e2:cd:35:52:c4:
                    68:67:90:cc:3f:0b:9a:23:36:f6:45:96:8b:7c:3a:
                    85:35:a5:18:e2:a4:b2:88:3c:4f:1a:dc:7d:1a:9b:
                    58:76:c4:89:8b:6d:b0:ee:9e:e7:1e:e3:62:b4:47:
                    bc:d9:41:fc:8e:c4:5f:32:ee:87:af:4a:32:4f:b2:
                    92:5f:b0:89:97:1a:3c:1c:83:a7:bf:77:7a:2a:39:
                    18:4e:dc:65:18:d0:65:99:34:2a:51:40:49:a6:97:
                    82:42:17:df:bf:ae:b9:c3:84:21:96:87:87:13:b8:
                    4a:da:08:6c:e5:56:42:34:6c:36:f0:dd:f6:c0:35:
                    e0:4b:25:3b:3f:35:5c:7c:b3:ce:b1:80:d1:8a:48:
                    41:33:4d:9a:c7:ff:68:a6:b4:0d:dc:82:d7:90:75:
                    a0:1b
                Exponent: 65537 (0x10001)
        X509v3 extensions:
            X509v3 Basic Constraints: 
                CA:FALSE
            X509v3 Subject Key Identifier: 
                3B:5C:3E:24:BC:4F:D8:DF:B2:56:8B:12:24:1C:7D:26:D1:25:AE:74
            X509v3 Authority Key Identifier: 
                keyid:B4:AE:AB:ED:FC:ED:84:AA:AD:77:5D:7C:84:28:1C:CA:CE:AE:2A:44
                DirName:/C=US/ST=California/L=San Francisco/O=Copyleft Certificate Co/OU=My Organizational Unit/CN=ChangeMe/emailAddress=me@example.net
                serial:BD:6C:3B:F4:D3:07:C9:D1

            X509v3 Extended Key Usage: 
                TLS Web Client Authentication
            X509v3 Key Usage: 
                Digital Signature
    Signature Algorithm: sha256WithRSAEncryption
         c4:32:93:83:78:db:e7:4a:d8:8e:54:3c:73:4f:5d:6e:0d:61:
         f7:b0:ac:44:1b:a3:9f:e2:aa:25:53:08:10:8d:6d:a5:fc:59:
         e3:f3:23:ac:50:8f:00:99:2f:ff:e6:d6:a8:a2:23:da:c5:b4:
         64:ef:26:ca:20:63:45:49:70:82:6b:d2:bc:3b:11:a2:63:c9:
         86:61:ff:e0:33:d1:e2:65:17:d0:06:29:53:ee:4a:8f:1e:f6:
         80:1b:e1:44:84:19:5d:d1:ed:be:1c:f0:86:5d:75:32:47:71:
         30:f4:d9:f8:e5:fa:5b:8d:26:01:51:e8:ac:83:1a:45:14:81:
         ee:3b:6a:e4:63:16:11:bc:86:e7:c2:9b:a9:da:c1:97:ab:1d:
         6b:c2:54:6a:81:be:2c:b5:fb:3a:a4:05:97:a1:2c:73:b2:45:
         c5:1b:50:c7:cf:59:d8:ff:34:bf:c7:c7:31:e9:09:4d:a2:a5:
         61:bc:66:7a:46:b1:10:a8:c0:0a:03:d2:4d:a9:d0:e5:d1:5d:
         a6:7d:c3:5f:03:c1:d9:9c:69:93:3f:30:55:f4:ef:b7:67:a1:
         23:06:ba:6e:cc:e1:e7:5b:1a:1d:57:82:05:5c:c0:b4:2d:a4:
         cb:29:e5:19:6f:b4:c1:19:7d:98:94:de:1b:13:d9:7e:fd:3e:
         d7:dd:ad:37
-----BEGIN CERTIFICATE-----
MIIFMDCCBBigAwIBAgIRAKP6d/sg9FF2VzeLox22zPgwDQYJKoZIhvcNAQELBQAw
ga8xCzAJBgNVBAYTAlVTMRMwEQYDVQQIDApDYWxpZm9ybmlhMRYwFAYDVQQHDA1T
YW4gRnJhbmNpc2NvMSAwHgYDVQQKDBdDb3B5bGVmdCBDZXJ0aWZpY2F0ZSBDbzEf
MB0GA1UECwwWTXkgT3JnYW5pemF0aW9uYWwgVW5pdDERMA8GA1UEAwwIQ2hhbmdl
TWUxHTAbBgkqhkiG9w0BCQEWDm1lQGV4YW1wbGUubmV0MB4XDTIzMTExMzExNDcy
MloXDTI0MTExMjExNDcyMlowgbsxCzAJBgNVBAYTAlVTMQswCQYDVQQIDAJPSDET
MBEGA1UEBwwKQ2luY2lubmF0aTEhMB8GA1UECgwYVW5pdmVyc2l0eSBvZiBDaW5j
aW5uYXRpMSowKAYDVQQLDCFEZXB0LiBFbGVjLiBDb21wLiBFbmcuIENvbXAuIFNj
aS4xETAPBgNVBAMMCGNsaWVudDE0MSgwJgYJKoZIhvcNAQkBFhlmcmFuY29AZ2F1
c3MuZWNlY3MudWMuZWR1MIIBIjANBgkqhkiG9w0BAQEFAAOCAQ8AMIIBCgKCAQEA
vkfwKZfoIfi8mQx96crwGmGvwp/vwVG/To71bVkTxJ437KpiGIar+MLZg2w1JhsE
X6+BfpeoeJLakkiCi4VP9p/BN8EVIpJwKfBlEd0o0ZUB7ec8BtoDCQmz2fsOkdut
HMGP4s01UsRoZ5DMPwuaIzb2RZaLfDqFNaUY4qSyiDxPGtx9GptYdsSJi22w7p7n
HuNitEe82UH8jsRfMu6Hr0oyT7KSX7CJlxo8HIOnv3d6KjkYTtxlGNBlmTQqUUBJ
ppeCQhffv665w4QhloeHE7hK2ghs5VZCNGw28N32wDXgSyU7PzVcfLPOsYDRikhB
M02ax/9oprQN3ILXkHWgGwIDAQABo4IBNzCCATMwCQYDVR0TBAIwADAdBgNVHQ4E
FgQUO1w+JLxP2N+yVosSJBx9JtElrnQwgeQGA1UdIwSB3DCB2YAUtK6r7fzthKqt
d118hCgcys6uKkShgbWkgbIwga8xCzAJBgNVBAYTAlVTMRMwEQYDVQQIDApDYWxp
Zm9ybmlhMRYwFAYDVQQHDA1TYW4gRnJhbmNpc2NvMSAwHgYDVQQKDBdDb3B5bGVm
dCBDZXJ0aWZpY2F0ZSBDbzEfMB0GA1UECwwWTXkgT3JnYW5pemF0aW9uYWwgVW5p
dDERMA8GA1UEAwwIQ2hhbmdlTWUxHTAbBgkqhkiG9w0BCQEWDm1lQGV4YW1wbGUu
bmV0ggkAvWw79NMHydEwEwYDVR0lBAwwCgYIKwYBBQUHAwIwCwYDVR0PBAQDAgeA
MA0GCSqGSIb3DQEBCwUAA4IBAQDEMpODeNvnStiOVDxzT11uDWH3sKxEG6Of4qol
UwgQjW2l/Fnj8yOsUI8AmS//5taooiPaxbRk7ybKIGNFSXCCa9K8OxGiY8mGYf/g
M9HiZRfQBilT7kqPHvaAG+FEhBld0e2+HPCGXXUyR3Ew9Nn45fpbjSYBUeisgxpF
FIHuO2rkYxYRvIbnwpup2sGXqx1rwlRqgb4stfs6pAWXoSxzskXFG1DHz1nY/zS/
x8cx6QlNoqVhvGZ6RrEQqMAKA9JNqdDl0V2mfcNfA8HZnGmTPzBV9O+3Z6EjBrpu
zOHnWxodV4IFXMC0LaTLKeUZb7TBGX2YlN4bE9l+/T7X3a03
-----END CERTIFICATE-----
