Certificate:
    Data:
        Version: 3 (0x2)
        Serial Number:
            6d:1e:83:ed:88:4d:9a:b7:da:d2:18:71:e6:02:f0:67
    Signature Algorithm: sha256WithRSAEncryption
        Issuer: C=US, ST=California, L=San Francisco, O=Copyleft Certificate Co, OU=My Organizational Unit, CN=ChangeMe/emailAddress=me@example.net
        Validity
            Not Before: Nov 11 01:45:58 2023 GMT
            Not After : Nov 10 01:45:58 2024 GMT
        Subject: C=US, ST=OH, L=Cincinnati, O=University of Cincinnati, OU=Dept. Elec. Comp. Eng. Comp. Sci., CN=client94/emailAddress=franco@gauss.ececs.uc.edu
        Subject Public Key Info:
            Public Key Algorithm: rsaEncryption
                Public-Key: (2048 bit)
                Modulus:
                    00:b8:ad:44:1f:2f:60:3c:59:f8:91:e9:20:ea:72:
                    fa:b7:14:01:74:5f:09:d2:84:c5:a2:db:a7:4e:99:
                    76:15:a6:04:ae:4f:81:11:82:ba:c7:ff:f8:da:16:
                    d0:cb:1e:dc:77:9c:1a:9e:fd:fc:ee:41:dd:e0:78:
                    6d:79:48:49:b7:63:94:c0:3e:c0:35:93:7b:db:bb:
                    79:44:05:4c:40:e7:e2:a5:ad:b7:fb:28:74:67:ee:
                    0d:ac:49:5f:f0:8b:cf:63:0b:55:81:24:0a:f5:a6:
                    0c:2b:02:16:82:fe:78:9c:09:53:17:d8:24:0c:dd:
                    97:c9:18:b0:55:ae:f8:81:be:38:b2:fa:86:7f:83:
                    fb:dd:47:03:b1:83:3a:08:29:b6:b1:89:16:a5:45:
                    3e:a5:b4:ef:9d:98:65:63:5e:7e:4b:c3:4c:5a:b8:
                    af:72:4b:81:f7:7f:4a:58:7b:8f:2d:84:b4:b4:13:
                    26:09:62:2a:86:8d:e5:e8:6f:2a:98:6e:5c:f0:52:
                    1a:27:ca:87:e9:2f:05:17:6b:68:11:e4:58:fa:7a:
                    f8:a5:5d:5a:f6:36:6c:b2:f7:5e:01:b8:ca:28:4e:
                    a0:e1:69:6f:aa:d8:56:af:e8:82:6f:34:ca:5d:d0:
                    2e:17:0f:7e:2e:86:f1:1b:46:80:de:77:82:cc:44:
                    15:69
                Exponent: 65537 (0x10001)
        X509v3 extensions:
            X509v3 Basic Constraints: 
                CA:FALSE
            X509v3 Subject Key Identifier: 
                FB:19:C5:42:96:96:24:BD:D6:A1:9C:22:F5:A6:78:E4:67:C2:B3:13
            X509v3 Authority Key Identifier: 
                keyid:73:DE:A0:43:0F:AE:B1:9E:E8:59:69:18:50:A1:1A:1F:D4:A1:E3:F0
                DirName:/C=US/ST=California/L=San Francisco/O=Copyleft Certificate Co/OU=My Organizational Unit/CN=ChangeMe/emailAddress=me@example.net
                serial:E9:BB:CB:16:C5:32:BE:3B

            X509v3 Extended Key Usage: 
                TLS Web Client Authentication
            X509v3 Key Usage: 
                Digital Signature
    Signature Algorithm: sha256WithRSAEncryption
         2a:39:01:46:94:02:6d:33:a6:c2:7c:a0:c8:2a:39:08:56:3e:
         82:20:34:a4:ec:c6:0f:0f:26:35:a3:5e:30:df:bc:4f:f4:ca:
         c4:40:89:83:3f:ad:1e:4b:34:04:64:26:9d:6e:54:74:cc:ed:
         ec:bc:00:fa:08:2c:11:0b:ba:03:b2:e0:a8:a9:16:fb:f4:ee:
         4d:c7:aa:b3:9e:d4:c6:26:e5:2f:52:a3:f5:7c:90:09:a1:f0:
         c0:bb:5d:11:fa:b1:af:ab:af:4c:49:4e:cb:ca:3a:eb:42:2c:
         8b:e5:b1:c5:0a:2e:43:e3:a4:4a:c7:74:93:1e:cf:a8:ac:59:
         7b:00:e3:18:a8:37:ed:af:e0:71:f1:55:46:75:85:4e:31:fa:
         8e:33:f1:73:8d:94:34:40:d7:c9:bd:f1:15:ec:ef:c1:75:f9:
         17:fd:bc:bf:1b:02:88:e5:84:43:46:61:08:dc:a6:7f:a8:19:
         e2:d6:b4:99:a7:4f:cf:4d:5d:30:b5:76:44:2e:2f:76:e4:59:
         79:34:39:68:52:55:1b:87:f9:a3:47:30:a8:1b:27:50:83:b6:
         57:8e:02:1f:e2:4f:ea:74:8d:22:a6:7f:78:3d:52:6b:95:1d:
         ec:0e:b9:b0:83:9d:dc:72:fa:be:29:93:28:2e:01:74:3d:c1:
         eb:87:53:ff
-----BEGIN CERTIFICATE-----
MIIFLzCCBBegAwIBAgIQbR6D7YhNmrfa0hhx5gLwZzANBgkqhkiG9w0BAQsFADCB
rzELMAkGA1UEBhMCVVMxEzARBgNVBAgMCkNhbGlmb3JuaWExFjAUBgNVBAcMDVNh
biBGcmFuY2lzY28xIDAeBgNVBAoMF0NvcHlsZWZ0IENlcnRpZmljYXRlIENvMR8w
HQYDVQQLDBZNeSBPcmdhbml6YXRpb25hbCBVbml0MREwDwYDVQQDDAhDaGFuZ2VN
ZTEdMBsGCSqGSIb3DQEJARYObWVAZXhhbXBsZS5uZXQwHhcNMjMxMTExMDE0NTU4
WhcNMjQxMTEwMDE0NTU4WjCBuzELMAkGA1UEBhMCVVMxCzAJBgNVBAgMAk9IMRMw
EQYDVQQHDApDaW5jaW5uYXRpMSEwHwYDVQQKDBhVbml2ZXJzaXR5IG9mIENpbmNp
bm5hdGkxKjAoBgNVBAsMIURlcHQuIEVsZWMuIENvbXAuIEVuZy4gQ29tcC4gU2Np
LjERMA8GA1UEAwwIY2xpZW50OTQxKDAmBgkqhkiG9w0BCQEWGWZyYW5jb0BnYXVz
cy5lY2Vjcy51Yy5lZHUwggEiMA0GCSqGSIb3DQEBAQUAA4IBDwAwggEKAoIBAQC4
rUQfL2A8WfiR6SDqcvq3FAF0XwnShMWi26dOmXYVpgSuT4ERgrrH//jaFtDLHtx3
nBqe/fzuQd3geG15SEm3Y5TAPsA1k3vbu3lEBUxA5+Klrbf7KHRn7g2sSV/wi89j
C1WBJAr1pgwrAhaC/nicCVMX2CQM3ZfJGLBVrviBvjiy+oZ/g/vdRwOxgzoIKbax
iRalRT6ltO+dmGVjXn5Lw0xauK9yS4H3f0pYe48thLS0EyYJYiqGjeXobyqYblzw
UhonyofpLwUXa2gR5Fj6evilXVr2Nmyy914BuMooTqDhaW+q2Fav6IJvNMpd0C4X
D34uhvEbRoDed4LMRBVpAgMBAAGjggE3MIIBMzAJBgNVHRMEAjAAMB0GA1UdDgQW
BBT7GcVClpYkvdahnCL1pnjkZ8KzEzCB5AYDVR0jBIHcMIHZgBRz3qBDD66xnuhZ
aRhQoRof1KHj8KGBtaSBsjCBrzELMAkGA1UEBhMCVVMxEzARBgNVBAgMCkNhbGlm
b3JuaWExFjAUBgNVBAcMDVNhbiBGcmFuY2lzY28xIDAeBgNVBAoMF0NvcHlsZWZ0
IENlcnRpZmljYXRlIENvMR8wHQYDVQQLDBZNeSBPcmdhbml6YXRpb25hbCBVbml0
MREwDwYDVQQDDAhDaGFuZ2VNZTEdMBsGCSqGSIb3DQEJARYObWVAZXhhbXBsZS5u
ZXSCCQDpu8sWxTK+OzATBgNVHSUEDDAKBggrBgEFBQcDAjALBgNVHQ8EBAMCB4Aw
DQYJKoZIhvcNAQELBQADggEBACo5AUaUAm0zpsJ8oMgqOQhWPoIgNKTsxg8PJjWj
XjDfvE/0ysRAiYM/rR5LNARkJp1uVHTM7ey8APoILBELugOy4KipFvv07k3HqrOe
1MYm5S9So/V8kAmh8MC7XRH6sa+rr0xJTsvKOutCLIvlscUKLkPjpErHdJMez6is
WXsA4xioN+2v4HHxVUZ1hU4x+o4z8XONlDRA18m98RXs78F1+Rf9vL8bAojlhENG
YQjcpn+oGeLWtJmnT89NXTC1dkQuL3bkWXk0OWhSVRuH+aNHMKgbJ1CDtleOAh/i
T+p0jSKmf3g9UmuVHewOubCDndxy+r4pkyguAXQ9weuHU/8=
-----END CERTIFICATE-----
