Certificate:
    Data:
        Version: 3 (0x2)
        Serial Number:
            5a:f2:8e:37:92:41:37:e0:0f:37:27:05:5b:99:d8:4b
    Signature Algorithm: sha256WithRSAEncryption
        Issuer: C=US, ST=California, L=San Francisco, O=Copyleft Certificate Co, OU=My Organizational Unit, CN=ChangeMe/emailAddress=me@example.net
        Validity
            Not Before: Nov 11 01:48:26 2023 GMT
            Not After : Nov 10 01:48:26 2024 GMT
        Subject: C=US, ST=OH, L=Cincinnati, O=University of Cincinnati, OU=Dept. Elec. Comp. Eng. Comp. Sci., CN=client131/emailAddress=franco@gauss.ececs.uc.edu
        Subject Public Key Info:
            Public Key Algorithm: rsaEncryption
                Public-Key: (2048 bit)
                Modulus:
                    00:b3:5f:45:f5:1c:79:ad:19:9a:0c:22:6d:49:7f:
                    d2:63:79:0d:5a:18:fc:46:c1:93:eb:4c:ff:2f:f2:
                    5a:79:88:8e:55:0e:a1:25:e0:94:54:bc:16:79:b7:
                    40:b1:80:97:bb:18:90:d0:ab:67:01:f6:9a:c0:b6:
                    60:07:c6:15:19:c2:6e:85:35:eb:e5:26:7e:99:46:
                    36:96:47:5b:6b:b0:75:33:84:89:4f:86:d7:d2:8e:
                    96:fe:8e:37:74:08:b6:49:a8:a0:8f:f7:de:e2:8a:
                    9e:2a:45:d4:5a:30:d6:66:79:69:f6:7b:46:67:cf:
                    38:fd:a5:55:ed:fa:75:09:37:fb:c5:6c:3c:e0:45:
                    45:6f:96:27:97:0e:a6:ea:58:1e:af:87:a4:7b:50:
                    14:fc:58:c5:ec:a6:5c:5f:b0:3f:b5:ce:0a:89:98:
                    92:56:79:4c:6c:20:d0:3d:2a:4d:82:f1:bb:25:db:
                    1f:95:d3:6f:80:9a:11:53:0a:58:c2:ed:17:b7:a7:
                    7e:2b:fc:c9:72:5e:9b:1c:c5:dc:ca:96:40:4b:c8:
                    fc:b0:7c:90:5a:85:2d:8e:f1:e4:53:ef:4e:72:55:
                    6f:70:a2:e5:b0:4f:68:5f:6f:c0:d6:65:ce:e1:56:
                    fb:ea:73:fa:e1:58:71:36:9a:23:df:a8:46:9d:ac:
                    d1:cd
                Exponent: 65537 (0x10001)
        X509v3 extensions:
            X509v3 Basic Constraints: 
                CA:FALSE
            X509v3 Subject Key Identifier: 
                27:DC:D9:65:88:E1:DC:78:07:C6:1E:24:97:64:5F:63:56:5A:18:3D
            X509v3 Authority Key Identifier: 
                keyid:73:DE:A0:43:0F:AE:B1:9E:E8:59:69:18:50:A1:1A:1F:D4:A1:E3:F0
                DirName:/C=US/ST=California/L=San Francisco/O=Copyleft Certificate Co/OU=My Organizational Unit/CN=ChangeMe/emailAddress=me@example.net
                serial:E9:BB:CB:16:C5:32:BE:3B

            X509v3 Extended Key Usage: 
                TLS Web Client Authentication
            X509v3 Key Usage: 
                Digital Signature
    Signature Algorithm: sha256WithRSAEncryption
         bd:c2:b2:d0:e7:a9:58:4a:66:59:c7:c7:8f:c3:73:53:5c:ab:
         6b:61:dc:be:13:a6:36:a3:0a:81:d7:46:d2:27:9d:8f:0f:8d:
         58:74:69:90:55:10:6a:f0:21:b4:f8:94:f4:66:98:49:e0:84:
         81:82:3e:48:75:e0:a3:de:27:12:57:b3:5c:cb:10:93:d3:3f:
         f1:8c:cd:6c:4d:08:55:5a:d8:e4:ae:14:d3:83:af:80:ac:0d:
         7c:e4:d5:30:4e:b6:a3:d7:84:f7:5e:94:3c:aa:6f:2e:a3:09:
         a3:c7:59:69:bf:96:2d:c8:07:8b:5b:24:2d:84:b3:bf:18:f2:
         00:52:52:96:4b:b5:ba:a0:5e:c6:c7:1e:f9:6f:cd:eb:7f:c8:
         ae:f8:56:c5:24:57:f4:1a:bb:93:1f:19:0e:1d:23:41:09:78:
         1f:70:cc:0e:92:0f:1b:31:0c:4f:1a:66:81:a8:07:86:48:d2:
         2b:c0:55:a6:ff:7f:0d:2c:0e:ee:ca:7e:15:cd:31:4e:63:4e:
         11:48:b3:87:b4:db:eb:0e:53:34:c1:63:b9:b9:ea:50:e8:a5:
         45:f9:82:7d:a4:b1:82:ab:75:4b:13:61:b0:35:a2:c8:98:44:
         2b:75:84:67:63:23:96:46:69:47:54:32:d4:01:83:b6:4f:f8:
         63:64:b4:1a
-----BEGIN CERTIFICATE-----
MIIFMDCCBBigAwIBAgIQWvKON5JBN+APNycFW5nYSzANBgkqhkiG9w0BAQsFADCB
rzELMAkGA1UEBhMCVVMxEzARBgNVBAgMCkNhbGlmb3JuaWExFjAUBgNVBAcMDVNh
biBGcmFuY2lzY28xIDAeBgNVBAoMF0NvcHlsZWZ0IENlcnRpZmljYXRlIENvMR8w
HQYDVQQLDBZNeSBPcmdhbml6YXRpb25hbCBVbml0MREwDwYDVQQDDAhDaGFuZ2VN
ZTEdMBsGCSqGSIb3DQEJARYObWVAZXhhbXBsZS5uZXQwHhcNMjMxMTExMDE0ODI2
WhcNMjQxMTEwMDE0ODI2WjCBvDELMAkGA1UEBhMCVVMxCzAJBgNVBAgMAk9IMRMw
EQYDVQQHDApDaW5jaW5uYXRpMSEwHwYDVQQKDBhVbml2ZXJzaXR5IG9mIENpbmNp
bm5hdGkxKjAoBgNVBAsMIURlcHQuIEVsZWMuIENvbXAuIEVuZy4gQ29tcC4gU2Np
LjESMBAGA1UEAwwJY2xpZW50MTMxMSgwJgYJKoZIhvcNAQkBFhlmcmFuY29AZ2F1
c3MuZWNlY3MudWMuZWR1MIIBIjANBgkqhkiG9w0BAQEFAAOCAQ8AMIIBCgKCAQEA
s19F9Rx5rRmaDCJtSX/SY3kNWhj8RsGT60z/L/JaeYiOVQ6hJeCUVLwWebdAsYCX
uxiQ0KtnAfaawLZgB8YVGcJuhTXr5SZ+mUY2lkdba7B1M4SJT4bX0o6W/o43dAi2
Saigj/fe4oqeKkXUWjDWZnlp9ntGZ884/aVV7fp1CTf7xWw84EVFb5Ynlw6m6lge
r4eke1AU/FjF7KZcX7A/tc4KiZiSVnlMbCDQPSpNgvG7JdsfldNvgJoRUwpYwu0X
t6d+K/zJcl6bHMXcypZAS8j8sHyQWoUtjvHkU+9OclVvcKLlsE9oX2/A1mXO4Vb7
6nP64VhxNpoj36hGnazRzQIDAQABo4IBNzCCATMwCQYDVR0TBAIwADAdBgNVHQ4E
FgQUJ9zZZYjh3HgHxh4kl2RfY1ZaGD0wgeQGA1UdIwSB3DCB2YAUc96gQw+usZ7o
WWkYUKEaH9Sh4/ChgbWkgbIwga8xCzAJBgNVBAYTAlVTMRMwEQYDVQQIDApDYWxp
Zm9ybmlhMRYwFAYDVQQHDA1TYW4gRnJhbmNpc2NvMSAwHgYDVQQKDBdDb3B5bGVm
dCBDZXJ0aWZpY2F0ZSBDbzEfMB0GA1UECwwWTXkgT3JnYW5pemF0aW9uYWwgVW5p
dDERMA8GA1UEAwwIQ2hhbmdlTWUxHTAbBgkqhkiG9w0BCQEWDm1lQGV4YW1wbGUu
bmV0ggkA6bvLFsUyvjswEwYDVR0lBAwwCgYIKwYBBQUHAwIwCwYDVR0PBAQDAgeA
MA0GCSqGSIb3DQEBCwUAA4IBAQC9wrLQ56lYSmZZx8ePw3NTXKtrYdy+E6Y2owqB
10bSJ52PD41YdGmQVRBq8CG0+JT0ZphJ4ISBgj5IdeCj3icSV7NcyxCT0z/xjM1s
TQhVWtjkrhTTg6+ArA185NUwTraj14T3XpQ8qm8uowmjx1lpv5YtyAeLWyQthLO/
GPIAUlKWS7W6oF7Gxx75b83rf8iu+FbFJFf0GruTHxkOHSNBCXgfcMwOkg8bMQxP
GmaBqAeGSNIrwFWm/38NLA7uyn4VzTFOY04RSLOHtNvrDlM0wWO5uepQ6KVF+YJ9
pLGCq3VLE2GwNaLImEQrdYRnYyOWRmlHVDLUAYO2T/hjZLQa
-----END CERTIFICATE-----
