Certificate:
    Data:
        Version: 3 (0x2)
        Serial Number:
            05:c6:ae:ac:23:f6:d3:75:aa:30:99:b1:f3:c6:61:70
    Signature Algorithm: sha256WithRSAEncryption
        Issuer: C=US, ST=California, L=San Francisco, O=Copyleft Certificate Co, OU=My Organizational Unit, CN=ChangeMe/emailAddress=me@example.net
        Validity
            Not Before: Jan 23 18:29:10 2021 GMT
            Not After : Jan 23 18:29:10 2022 GMT
        Subject: C=US, ST=OH, L=Cincinnati, O=University of Cincinnati, OU=Dept. Electrical Eng. and Computer Sci., CN=client82/emailAddress=franco@gauss.ececs.uc.edu
        Subject Public Key Info:
            Public Key Algorithm: rsaEncryption
                Public-Key: (2048 bit)
                Modulus:
                    00:eb:6f:81:d9:52:b1:e5:95:4d:c4:ae:56:5d:0f:
                    23:50:99:44:6c:a1:ba:9e:4d:6f:b4:4c:8b:80:b9:
                    44:b7:41:b9:d1:62:71:2f:61:b9:4a:9f:01:f3:9b:
                    39:92:2a:54:89:91:8d:3f:4d:57:6e:68:ce:5d:22:
                    1d:f7:06:7a:fd:bc:15:d6:2e:da:27:51:e8:f5:31:
                    35:32:a7:0f:79:c6:9c:73:e1:23:a0:2f:02:e3:1a:
                    d0:cb:4f:71:1e:7a:0c:a9:42:98:98:db:96:66:f4:
                    ce:bb:7a:ea:2b:de:8a:f3:1a:1f:35:87:75:5d:ee:
                    2c:7f:76:3e:61:14:79:d7:87:ce:7c:61:b7:fc:ca:
                    c6:ee:69:ab:6f:0f:df:d3:7d:0d:c0:e7:f3:e9:7f:
                    a9:13:79:47:a4:85:39:a0:f0:49:6e:4c:48:39:ad:
                    b7:45:34:12:82:7e:cf:c0:08:ca:60:72:d9:ab:d7:
                    1e:05:ef:a7:3d:fc:a7:b6:55:94:a3:19:c4:7d:33:
                    8e:f0:92:3c:8a:a1:6a:07:a6:04:7e:04:0f:39:cb:
                    7e:67:ee:68:ec:db:93:e5:a9:7c:ab:b1:7f:eb:c6:
                    3e:de:8d:77:8b:2c:72:82:7a:28:8d:f9:a0:82:9c:
                    0c:a2:59:0d:82:7f:93:76:8a:1a:30:90:7c:72:46:
                    71:6f
                Exponent: 65537 (0x10001)
        X509v3 extensions:
            X509v3 Basic Constraints: 
                CA:FALSE
            X509v3 Subject Key Identifier: 
                17:D0:CE:BC:11:BE:6C:98:6A:E7:13:71:E2:82:1A:45:CC:5B:54:38
            X509v3 Authority Key Identifier: 
                keyid:EF:DC:B6:3D:4B:FD:A7:87:05:C5:22:3D:8B:DC:BF:99:2A:EE:E4:DB
                DirName:/C=US/ST=California/L=San Francisco/O=Copyleft Certificate Co/OU=My Organizational Unit/CN=ChangeMe/emailAddress=me@example.net
                serial:87:1E:1D:DC:6B:8C:66:88

            X509v3 Extended Key Usage: 
                TLS Web Client Authentication
            X509v3 Key Usage: 
                Digital Signature
    Signature Algorithm: sha256WithRSAEncryption
         02:56:62:59:19:46:03:66:b2:00:28:dc:08:c2:78:97:d0:99:
         e6:b2:eb:02:60:bf:b7:70:a6:41:f9:bf:59:12:57:26:d6:9b:
         83:42:01:21:89:81:12:52:11:90:28:eb:42:e6:52:04:69:e0:
         ab:b2:ef:ee:31:ad:5f:00:3e:8f:58:fb:9e:3f:fb:41:31:d4:
         45:62:9b:61:e8:7f:ea:7c:57:88:02:28:0e:c5:4a:5c:47:0f:
         37:b6:f5:d5:2d:a3:46:e3:00:88:07:00:1a:1a:42:da:9e:68:
         8f:2e:8f:d9:76:dc:0a:93:ff:1a:51:95:8a:41:fc:be:65:1d:
         fb:f0:21:c7:c0:45:a3:d2:f2:4a:72:53:83:90:54:03:89:01:
         9a:71:36:08:46:d5:00:a5:ca:e1:9a:7c:bc:cb:ae:86:09:ca:
         8e:cc:ca:62:aa:20:64:45:21:0e:47:1e:00:0c:7f:fc:59:1c:
         39:ca:f5:ba:a8:7e:3d:f9:ca:03:c8:69:e2:bb:29:13:d9:15:
         74:8a:33:79:cf:2b:69:df:ce:e8:66:3c:2d:ae:b8:dd:c1:19:
         f1:6c:ce:44:e5:a3:aa:53:96:33:d6:3d:85:53:6c:5f:04:4e:
         4e:dc:ac:ea:35:ae:89:d2:7f:4b:99:5c:1e:27:9a:7c:ce:0a:
         6c:15:fb:bd
-----BEGIN CERTIFICATE-----
MIIFNTCCBB2gAwIBAgIQBcaurCP203WqMJmx88ZhcDANBgkqhkiG9w0BAQsFADCB
rzELMAkGA1UEBhMCVVMxEzARBgNVBAgMCkNhbGlmb3JuaWExFjAUBgNVBAcMDVNh
biBGcmFuY2lzY28xIDAeBgNVBAoMF0NvcHlsZWZ0IENlcnRpZmljYXRlIENvMR8w
HQYDVQQLDBZNeSBPcmdhbml6YXRpb25hbCBVbml0MREwDwYDVQQDDAhDaGFuZ2VN
ZTEdMBsGCSqGSIb3DQEJARYObWVAZXhhbXBsZS5uZXQwHhcNMjEwMTIzMTgyOTEw
WhcNMjIwMTIzMTgyOTEwWjCBwTELMAkGA1UEBhMCVVMxCzAJBgNVBAgMAk9IMRMw
EQYDVQQHDApDaW5jaW5uYXRpMSEwHwYDVQQKDBhVbml2ZXJzaXR5IG9mIENpbmNp
bm5hdGkxMDAuBgNVBAsMJ0RlcHQuIEVsZWN0cmljYWwgRW5nLiBhbmQgQ29tcHV0
ZXIgU2NpLjERMA8GA1UEAwwIY2xpZW50ODIxKDAmBgkqhkiG9w0BCQEWGWZyYW5j
b0BnYXVzcy5lY2Vjcy51Yy5lZHUwggEiMA0GCSqGSIb3DQEBAQUAA4IBDwAwggEK
AoIBAQDrb4HZUrHllU3ErlZdDyNQmURsobqeTW+0TIuAuUS3QbnRYnEvYblKnwHz
mzmSKlSJkY0/TVduaM5dIh33Bnr9vBXWLtonUej1MTUypw95xpxz4SOgLwLjGtDL
T3EeegypQpiY25Zm9M67euor3orzGh81h3Vd7ix/dj5hFHnXh858Ybf8ysbuaatv
D9/TfQ3A5/Ppf6kTeUekhTmg8EluTEg5rbdFNBKCfs/ACMpgctmr1x4F76c9/Ke2
VZSjGcR9M47wkjyKoWoHpgR+BA85y35n7mjs25PlqXyrsX/rxj7ejXeLLHKCeiiN
+aCCnAyiWQ2Cf5N2ihowkHxyRnFvAgMBAAGjggE3MIIBMzAJBgNVHRMEAjAAMB0G
A1UdDgQWBBQX0M68Eb5smGrnE3HighpFzFtUODCB5AYDVR0jBIHcMIHZgBTv3LY9
S/2nhwXFIj2L3L+ZKu7k26GBtaSBsjCBrzELMAkGA1UEBhMCVVMxEzARBgNVBAgM
CkNhbGlmb3JuaWExFjAUBgNVBAcMDVNhbiBGcmFuY2lzY28xIDAeBgNVBAoMF0Nv
cHlsZWZ0IENlcnRpZmljYXRlIENvMR8wHQYDVQQLDBZNeSBPcmdhbml6YXRpb25h
bCBVbml0MREwDwYDVQQDDAhDaGFuZ2VNZTEdMBsGCSqGSIb3DQEJARYObWVAZXhh
bXBsZS5uZXSCCQCHHh3ca4xmiDATBgNVHSUEDDAKBggrBgEFBQcDAjALBgNVHQ8E
BAMCB4AwDQYJKoZIhvcNAQELBQADggEBAAJWYlkZRgNmsgAo3AjCeJfQmeay6wJg
v7dwpkH5v1kSVybWm4NCASGJgRJSEZAo60LmUgRp4Kuy7+4xrV8APo9Y+54/+0Ex
1EVim2Hof+p8V4gCKA7FSlxHDze29dUto0bjAIgHABoaQtqeaI8uj9l23AqT/xpR
lYpB/L5lHfvwIcfARaPS8kpyU4OQVAOJAZpxNghG1QClyuGafLzLroYJyo7MymKq
IGRFIQ5HHgAMf/xZHDnK9bqofj35ygPIaeK7KRPZFXSKM3nPK2nfzuhmPC2uuN3B
GfFszkTlo6pTljPWPYVTbF8ETk7crOo1ronSf0uZXB4nmnzOCmwV+70=
-----END CERTIFICATE-----
