Certificate:
    Data:
        Version: 3 (0x2)
        Serial Number:
            7b:1c:70:2d:57:70:0e:70:5d:76:2c:9f:67:da:b7:7b
    Signature Algorithm: sha256WithRSAEncryption
        Issuer: C=US, ST=California, L=San Francisco, O=Copyleft Certificate Co, OU=My Organizational Unit, CN=ChangeMe/emailAddress=me@example.net
        Validity
            Not Before: Nov 10 17:41:57 2023 GMT
            Not After : Nov  9 17:41:57 2024 GMT
        Subject: C=US, ST=OH, L=Cincinnati, O=University of Cincinnati, OU=Dept_Elec_Com_ Eng_Com_Sci., CN=client53/emailAddress=franco@gauss.ececs.uc.edu
        Subject Public Key Info:
            Public Key Algorithm: rsaEncryption
                Public-Key: (2048 bit)
                Modulus:
                    00:e0:9f:d6:43:18:1c:32:7e:ea:85:5f:2d:3a:ba:
                    5c:c0:0a:d4:da:d9:90:37:5f:55:a7:a4:a3:90:b5:
                    88:36:98:0f:a6:6d:36:cc:29:02:87:ae:e1:e0:9b:
                    25:87:c0:dc:6a:db:4f:20:4c:9e:ff:16:2c:7a:8b:
                    97:89:c2:9b:b0:65:0a:b5:ef:5c:27:91:a0:38:18:
                    2c:21:d2:a7:57:c8:a9:ba:93:d5:24:cb:8c:79:e1:
                    c5:1b:87:dd:c2:2b:f8:d1:d0:4e:32:f9:bf:2f:7d:
                    65:01:aa:a1:ee:80:89:eb:1c:bd:ad:7c:9a:73:33:
                    97:a5:c8:a8:1d:2c:df:a4:61:a7:6f:e8:ab:62:ce:
                    a2:11:f7:bd:b4:88:6a:99:b1:87:ee:10:f4:2d:78:
                    e9:3c:1d:b9:ae:d0:37:1e:66:88:2d:87:e0:39:76:
                    8d:93:9a:e0:4d:91:17:56:12:30:35:41:2a:75:da:
                    32:d7:19:7b:16:5f:dd:f3:7c:ab:8d:bb:13:55:78:
                    1e:6a:5d:22:83:d6:6a:50:c4:60:f7:b6:b1:3e:cc:
                    56:62:5c:e6:53:93:37:39:5b:49:4f:1c:ab:0f:2e:
                    ae:6f:35:4e:04:46:7e:e4:10:0e:7c:f1:9b:a7:ac:
                    d1:d5:21:a5:5f:ef:e7:ab:7d:f2:4a:39:8b:23:7a:
                    5e:ed
                Exponent: 65537 (0x10001)
        X509v3 extensions:
            X509v3 Basic Constraints: 
                CA:FALSE
            X509v3 Subject Key Identifier: 
                4B:38:1F:DB:2E:4F:83:45:1F:69:B3:0B:37:1F:49:6C:AA:B5:AF:65
            X509v3 Authority Key Identifier: 
                keyid:C8:27:DA:64:30:08:40:08:4A:25:CC:DC:43:99:DE:77:A1:FE:77:BD
                DirName:/C=US/ST=California/L=San Francisco/O=Copyleft Certificate Co/OU=My Organizational Unit/CN=ChangeMe/emailAddress=me@example.net
                serial:A9:48:C3:7E:FC:1B:B0:A1

            X509v3 Extended Key Usage: 
                TLS Web Client Authentication
            X509v3 Key Usage: 
                Digital Signature
    Signature Algorithm: sha256WithRSAEncryption
         15:61:48:c8:1d:42:21:8c:37:cd:db:95:1e:4c:24:a4:6b:a0:
         2d:c3:39:94:31:42:c8:7e:5c:72:bd:45:84:81:37:f3:80:1d:
         86:f1:f8:ca:58:16:3a:11:31:a9:f0:b8:e5:6f:83:1f:62:9d:
         a0:84:de:5e:b5:48:53:eb:bc:1e:46:4a:9b:a9:d1:86:96:8f:
         8a:a5:7e:4f:86:f4:50:bb:ce:aa:d5:09:b3:c2:57:fe:0a:68:
         51:c1:92:dc:7c:9c:49:91:7a:e2:9a:93:55:3a:fa:4a:46:0a:
         38:b0:50:bb:7d:83:41:c8:df:21:e5:52:90:3c:e6:6e:5b:82:
         31:dd:8a:5c:8d:ad:c8:c7:b4:35:16:3e:9d:ea:05:bf:8c:2d:
         94:23:34:d5:93:34:17:75:6a:12:9a:d5:2a:8f:0f:9f:d6:ca:
         4f:ef:d3:1d:92:2e:f9:33:2c:54:53:1d:6b:91:82:96:a0:45:
         f8:ab:49:58:76:af:a5:1a:59:54:b9:f1:9a:8a:4b:3e:a0:15:
         b4:ac:bb:18:3e:f9:79:0f:e7:51:e4:52:71:86:ec:0f:22:11:
         20:14:23:cd:54:69:33:b9:ad:ec:fb:62:74:ee:9f:b4:36:b4:
         5e:68:54:7f:21:31:b8:15:b6:35:ba:5f:a5:f2:cc:32:af:35:
         14:17:c3:df
-----BEGIN CERTIFICATE-----
MIIFKTCCBBGgAwIBAgIQexxwLVdwDnBddiyfZ9q3ezANBgkqhkiG9w0BAQsFADCB
rzELMAkGA1UEBhMCVVMxEzARBgNVBAgMCkNhbGlmb3JuaWExFjAUBgNVBAcMDVNh
biBGcmFuY2lzY28xIDAeBgNVBAoMF0NvcHlsZWZ0IENlcnRpZmljYXRlIENvMR8w
HQYDVQQLDBZNeSBPcmdhbml6YXRpb25hbCBVbml0MREwDwYDVQQDDAhDaGFuZ2VN
ZTEdMBsGCSqGSIb3DQEJARYObWVAZXhhbXBsZS5uZXQwHhcNMjMxMTEwMTc0MTU3
WhcNMjQxMTA5MTc0MTU3WjCBtTELMAkGA1UEBhMCVVMxCzAJBgNVBAgMAk9IMRMw
EQYDVQQHDApDaW5jaW5uYXRpMSEwHwYDVQQKDBhVbml2ZXJzaXR5IG9mIENpbmNp
bm5hdGkxJDAiBgNVBAsMG0RlcHRfRWxlY19Db21fIEVuZ19Db21fU2NpLjERMA8G
A1UEAwwIY2xpZW50NTMxKDAmBgkqhkiG9w0BCQEWGWZyYW5jb0BnYXVzcy5lY2Vj
cy51Yy5lZHUwggEiMA0GCSqGSIb3DQEBAQUAA4IBDwAwggEKAoIBAQDgn9ZDGBwy
fuqFXy06ulzACtTa2ZA3X1WnpKOQtYg2mA+mbTbMKQKHruHgmyWHwNxq208gTJ7/
Fix6i5eJwpuwZQq171wnkaA4GCwh0qdXyKm6k9Uky4x54cUbh93CK/jR0E4y+b8v
fWUBqqHugInrHL2tfJpzM5elyKgdLN+kYadv6KtizqIR9720iGqZsYfuEPQteOk8
Hbmu0DceZogth+A5do2TmuBNkRdWEjA1QSp12jLXGXsWX93zfKuNuxNVeB5qXSKD
1mpQxGD3trE+zFZiXOZTkzc5W0lPHKsPLq5vNU4ERn7kEA588ZunrNHVIaVf7+er
ffJKOYsjel7tAgMBAAGjggE3MIIBMzAJBgNVHRMEAjAAMB0GA1UdDgQWBBRLOB/b
Lk+DRR9psws3H0lsqrWvZTCB5AYDVR0jBIHcMIHZgBTIJ9pkMAhACEolzNxDmd53
of53vaGBtaSBsjCBrzELMAkGA1UEBhMCVVMxEzARBgNVBAgMCkNhbGlmb3JuaWEx
FjAUBgNVBAcMDVNhbiBGcmFuY2lzY28xIDAeBgNVBAoMF0NvcHlsZWZ0IENlcnRp
ZmljYXRlIENvMR8wHQYDVQQLDBZNeSBPcmdhbml6YXRpb25hbCBVbml0MREwDwYD
VQQDDAhDaGFuZ2VNZTEdMBsGCSqGSIb3DQEJARYObWVAZXhhbXBsZS5uZXSCCQCp
SMN+/BuwoTATBgNVHSUEDDAKBggrBgEFBQcDAjALBgNVHQ8EBAMCB4AwDQYJKoZI
hvcNAQELBQADggEBABVhSMgdQiGMN83blR5MJKRroC3DOZQxQsh+XHK9RYSBN/OA
HYbx+MpYFjoRManwuOVvgx9inaCE3l61SFPrvB5GSpup0YaWj4qlfk+G9FC7zqrV
CbPCV/4KaFHBktx8nEmReuKak1U6+kpGCjiwULt9g0HI3yHlUpA85m5bgjHdilyN
rcjHtDUWPp3qBb+MLZQjNNWTNBd1ahKa1SqPD5/Wyk/v0x2SLvkzLFRTHWuRgpag
RfirSVh2r6UaWVS58ZqKSz6gFbSsuxg++XkP51HkUnGG7A8iESAUI81UaTO5rez7
YnTun7Q2tF5oVH8hMbgVtjW6X6XyzDKvNRQXw98=
-----END CERTIFICATE-----
