Certificate:
    Data:
        Version: 3 (0x2)
        Serial Number:
            63:ce:f6:4b:d8:2a:ba:35:74:d3:20:80:4b:bf:1e:0d
    Signature Algorithm: sha256WithRSAEncryption
        Issuer: C=US, ST=California, L=San Francisco, O=Copyleft Certificate Co, OU=My Organizational Unit, CN=ChangeMe/emailAddress=me@example.net
        Validity
            Not Before: Jan 23 18:30:30 2021 GMT
            Not After : Jan 23 18:30:30 2022 GMT
        Subject: C=US, ST=OH, L=Cincinnati, O=University of Cincinnati, OU=Dept. Electrical Eng. and Computer Sci., CN=client138/emailAddress=franco@gauss.ececs.uc.edu
        Subject Public Key Info:
            Public Key Algorithm: rsaEncryption
                Public-Key: (2048 bit)
                Modulus:
                    00:f0:dc:58:09:d4:6e:da:e6:b4:69:98:7d:92:da:
                    79:c0:13:1b:52:54:d3:b5:f8:91:0c:77:25:49:50:
                    d6:d3:28:00:e1:e6:81:0d:fb:b4:a8:d9:8a:40:e5:
                    b9:d3:58:34:24:04:3a:27:ea:9d:70:da:35:62:7e:
                    a9:af:08:8f:e1:23:11:a6:45:12:d3:c7:8c:f5:66:
                    9e:77:08:50:d5:9b:4a:3d:ac:65:cf:cc:70:b7:e6:
                    aa:9f:cf:86:26:ec:d1:eb:32:23:c4:84:d3:df:06:
                    e0:df:77:64:9b:0b:44:49:72:b3:cc:f0:fe:9b:5b:
                    86:3a:e1:dd:fa:0d:88:36:30:c1:0c:dd:b3:36:1f:
                    43:22:8c:44:c4:a3:aa:cf:51:71:3b:9d:5b:29:a7:
                    b5:21:0e:f6:32:cd:20:54:e3:77:dc:56:a0:b9:62:
                    8b:d5:12:9e:96:75:b4:d5:02:c6:9b:fc:a4:39:3d:
                    5b:7c:70:a6:09:fe:ed:62:4e:a6:3c:c9:1f:2c:6a:
                    46:a3:d7:67:9f:6a:c8:39:c0:7f:89:45:3d:34:47:
                    26:bc:f0:ef:fc:8d:a4:e9:f7:b3:4b:25:ff:dc:cb:
                    04:6a:64:c1:ac:ab:50:2d:e8:b6:ec:17:02:d7:36:
                    cc:a4:cc:6b:af:40:ad:48:35:bd:d8:29:17:62:26:
                    87:39
                Exponent: 65537 (0x10001)
        X509v3 extensions:
            X509v3 Basic Constraints: 
                CA:FALSE
            X509v3 Subject Key Identifier: 
                D6:90:5B:90:2A:05:F4:9E:1A:25:8F:9D:F8:A0:2C:27:9A:0C:52:67
            X509v3 Authority Key Identifier: 
                keyid:EF:DC:B6:3D:4B:FD:A7:87:05:C5:22:3D:8B:DC:BF:99:2A:EE:E4:DB
                DirName:/C=US/ST=California/L=San Francisco/O=Copyleft Certificate Co/OU=My Organizational Unit/CN=ChangeMe/emailAddress=me@example.net
                serial:87:1E:1D:DC:6B:8C:66:88

            X509v3 Extended Key Usage: 
                TLS Web Client Authentication
            X509v3 Key Usage: 
                Digital Signature
    Signature Algorithm: sha256WithRSAEncryption
         d4:4c:2d:56:04:79:72:28:1f:cc:66:1a:0f:08:1d:1b:e1:c0:
         aa:bb:db:bf:24:7a:28:a1:66:db:1e:65:e3:4c:da:47:7e:a5:
         8e:8b:31:32:a3:73:0b:b5:54:5f:cb:15:f4:16:d3:fa:bb:b8:
         60:48:09:a2:20:9b:66:21:f2:92:6a:c4:60:95:29:ad:57:4b:
         19:cc:19:c0:09:23:43:b1:41:e6:8b:4a:40:f6:45:d5:f4:b1:
         dd:36:b3:3b:5d:21:0c:4b:8d:32:e4:ec:cc:22:79:4f:2e:45:
         4b:c9:85:b4:d6:9e:23:f9:d5:ca:99:09:14:6e:10:f7:cc:93:
         09:5e:0f:70:b4:11:84:02:15:93:b2:39:22:4a:00:11:e3:e4:
         56:66:f4:6e:b1:b4:db:02:e6:55:d5:8e:54:9e:30:8b:47:5b:
         1e:d7:29:ca:96:ac:c6:9b:99:61:6a:f2:d8:25:f2:1a:8e:e4:
         b9:fc:ff:fa:29:b3:24:6a:6e:c0:36:17:69:f7:9b:39:8c:f5:
         9a:03:19:f4:30:1b:9c:91:4a:0a:3c:21:3b:ae:4d:86:86:3e:
         7a:ab:47:8c:32:2e:82:a1:f5:fb:46:03:5b:d3:25:c3:e4:5a:
         d6:de:f7:aa:fd:b7:b5:97:e5:0d:6f:76:82:d7:5f:39:63:4f:
         34:6c:0b:e6
-----BEGIN CERTIFICATE-----
MIIFNjCCBB6gAwIBAgIQY872S9gqujV00yCAS78eDTANBgkqhkiG9w0BAQsFADCB
rzELMAkGA1UEBhMCVVMxEzARBgNVBAgMCkNhbGlmb3JuaWExFjAUBgNVBAcMDVNh
biBGcmFuY2lzY28xIDAeBgNVBAoMF0NvcHlsZWZ0IENlcnRpZmljYXRlIENvMR8w
HQYDVQQLDBZNeSBPcmdhbml6YXRpb25hbCBVbml0MREwDwYDVQQDDAhDaGFuZ2VN
ZTEdMBsGCSqGSIb3DQEJARYObWVAZXhhbXBsZS5uZXQwHhcNMjEwMTIzMTgzMDMw
WhcNMjIwMTIzMTgzMDMwWjCBwjELMAkGA1UEBhMCVVMxCzAJBgNVBAgMAk9IMRMw
EQYDVQQHDApDaW5jaW5uYXRpMSEwHwYDVQQKDBhVbml2ZXJzaXR5IG9mIENpbmNp
bm5hdGkxMDAuBgNVBAsMJ0RlcHQuIEVsZWN0cmljYWwgRW5nLiBhbmQgQ29tcHV0
ZXIgU2NpLjESMBAGA1UEAwwJY2xpZW50MTM4MSgwJgYJKoZIhvcNAQkBFhlmcmFu
Y29AZ2F1c3MuZWNlY3MudWMuZWR1MIIBIjANBgkqhkiG9w0BAQEFAAOCAQ8AMIIB
CgKCAQEA8NxYCdRu2ua0aZh9ktp5wBMbUlTTtfiRDHclSVDW0ygA4eaBDfu0qNmK
QOW501g0JAQ6J+qdcNo1Yn6prwiP4SMRpkUS08eM9WaedwhQ1ZtKPaxlz8xwt+aq
n8+GJuzR6zIjxITT3wbg33dkmwtESXKzzPD+m1uGOuHd+g2INjDBDN2zNh9DIoxE
xKOqz1FxO51bKae1IQ72Ms0gVON33FaguWKL1RKelnW01QLGm/ykOT1bfHCmCf7t
Yk6mPMkfLGpGo9dnn2rIOcB/iUU9NEcmvPDv/I2k6fezSyX/3MsEamTBrKtQLei2
7BcC1zbMpMxrr0CtSDW92CkXYiaHOQIDAQABo4IBNzCCATMwCQYDVR0TBAIwADAd
BgNVHQ4EFgQU1pBbkCoF9J4aJY+d+KAsJ5oMUmcwgeQGA1UdIwSB3DCB2YAU79y2
PUv9p4cFxSI9i9y/mSru5NuhgbWkgbIwga8xCzAJBgNVBAYTAlVTMRMwEQYDVQQI
DApDYWxpZm9ybmlhMRYwFAYDVQQHDA1TYW4gRnJhbmNpc2NvMSAwHgYDVQQKDBdD
b3B5bGVmdCBDZXJ0aWZpY2F0ZSBDbzEfMB0GA1UECwwWTXkgT3JnYW5pemF0aW9u
YWwgVW5pdDERMA8GA1UEAwwIQ2hhbmdlTWUxHTAbBgkqhkiG9w0BCQEWDm1lQGV4
YW1wbGUubmV0ggkAhx4d3GuMZogwEwYDVR0lBAwwCgYIKwYBBQUHAwIwCwYDVR0P
BAQDAgeAMA0GCSqGSIb3DQEBCwUAA4IBAQDUTC1WBHlyKB/MZhoPCB0b4cCqu9u/
JHoooWbbHmXjTNpHfqWOizEyo3MLtVRfyxX0FtP6u7hgSAmiIJtmIfKSasRglSmt
V0sZzBnACSNDsUHmi0pA9kXV9LHdNrM7XSEMS40y5OzMInlPLkVLyYW01p4j+dXK
mQkUbhD3zJMJXg9wtBGEAhWTsjkiSgAR4+RWZvRusbTbAuZV1Y5UnjCLR1se1ynK
lqzGm5lhavLYJfIajuS5/P/6KbMkam7ANhdp95s5jPWaAxn0MBuckUoKPCE7rk2G
hj56q0eMMi6CofX7RgNb0yXD5FrW3veq/be1l+UNb3aC1185Y080bAvm
-----END CERTIFICATE-----
