Certificate:
    Data:
        Version: 3 (0x2)
        Serial Number:
            ce:56:c1:00:ba:cf:ea:af:f8:83:4f:ee:24:08:9f:9e
    Signature Algorithm: sha256WithRSAEncryption
        Issuer: C=US, ST=California, L=San Francisco, O=Copyleft Certificate Co, OU=My Organizational Unit, CN=ChangeMe/emailAddress=me@example.net
        Validity
            Not Before: Nov 10 17:44:18 2023 GMT
            Not After : Nov  9 17:44:18 2024 GMT
        Subject: C=US, ST=OH, L=Cincinnati, O=University of Cincinnati, OU=Dept_Elec_Com_ Eng_Com_Sci., CN=client88/emailAddress=franco@gauss.ececs.uc.edu
        Subject Public Key Info:
            Public Key Algorithm: rsaEncryption
                Public-Key: (2048 bit)
                Modulus:
                    00:c9:7a:0c:d1:dd:08:e2:a3:d2:29:d6:43:69:24:
                    69:82:13:8c:3e:eb:36:fa:76:79:f0:1f:bf:76:98:
                    15:ac:fe:bf:53:99:a3:c3:e6:7a:9f:5a:9a:f2:d2:
                    70:65:fb:0d:68:e1:41:78:44:29:e3:75:a8:66:a8:
                    d4:d2:0a:5c:cc:42:85:e5:19:05:8c:4f:0c:38:81:
                    af:39:f7:6f:fd:0c:fe:40:3f:c6:d8:0b:17:b2:81:
                    17:c9:59:86:17:43:a3:28:ae:10:56:43:57:ab:d6:
                    73:31:96:d3:93:9c:b6:f1:09:00:44:79:45:d5:a1:
                    d8:e7:23:72:74:05:f7:89:1f:61:4b:c1:6b:3f:56:
                    d6:88:1d:12:80:c4:2a:25:c0:41:70:cb:92:a7:0c:
                    e0:2c:f5:da:5e:24:6d:93:1a:1f:23:19:5b:60:12:
                    08:6f:33:3e:83:87:be:70:00:93:22:e3:52:e9:e6:
                    9f:e9:ea:02:2b:0d:67:dd:c1:5d:14:9b:f7:56:8b:
                    4d:24:47:05:c1:63:be:70:c0:f2:38:e0:bd:c0:72:
                    cb:61:37:a6:e2:56:f1:4b:49:3d:6b:b7:e7:9b:4a:
                    c8:bc:f3:34:5b:a1:cd:a6:39:b5:52:71:b0:1d:a4:
                    cd:52:f4:58:00:d6:50:f7:f1:0b:13:c1:2b:25:8c:
                    47:fb
                Exponent: 65537 (0x10001)
        X509v3 extensions:
            X509v3 Basic Constraints: 
                CA:FALSE
            X509v3 Subject Key Identifier: 
                60:6A:87:AB:76:EC:00:E3:8E:3D:27:BC:17:20:BE:6C:D3:88:28:86
            X509v3 Authority Key Identifier: 
                keyid:C8:27:DA:64:30:08:40:08:4A:25:CC:DC:43:99:DE:77:A1:FE:77:BD
                DirName:/C=US/ST=California/L=San Francisco/O=Copyleft Certificate Co/OU=My Organizational Unit/CN=ChangeMe/emailAddress=me@example.net
                serial:A9:48:C3:7E:FC:1B:B0:A1

            X509v3 Extended Key Usage: 
                TLS Web Client Authentication
            X509v3 Key Usage: 
                Digital Signature
    Signature Algorithm: sha256WithRSAEncryption
         29:37:76:f1:c8:6b:3e:b0:ae:39:bd:33:8d:22:2e:12:c7:92:
         07:44:62:68:95:64:53:eb:5e:33:80:fe:1a:17:38:94:32:e5:
         64:a1:4f:68:fb:5f:77:89:a9:64:44:a0:84:d3:62:df:87:5d:
         22:e0:28:72:60:66:50:3a:59:ba:68:85:37:5f:a5:06:aa:b4:
         aa:fd:53:61:d2:3d:92:c0:55:98:94:29:4c:95:7f:ce:13:42:
         a1:da:b3:83:57:90:59:68:c5:db:96:21:5e:ba:5a:2c:f8:0c:
         5b:f9:80:0a:81:4d:10:84:f2:06:c0:66:91:e9:6a:34:56:4b:
         a7:5f:e2:73:95:c4:63:c6:b3:c0:fa:04:33:00:08:de:73:8c:
         25:36:be:80:2d:3f:6f:9f:a9:90:8a:54:8b:64:26:e9:ad:a0:
         c9:f1:1f:6b:6b:80:58:14:03:ab:f5:49:36:ec:c1:4d:a1:9f:
         95:fa:de:50:ea:88:ea:cf:d4:71:9f:15:36:c5:d2:94:09:60:
         59:8d:36:06:cc:3d:aa:28:ff:c6:cd:31:c5:ad:04:05:09:f4:
         10:79:0b:6c:f5:dd:39:8a:bf:d9:72:ac:4d:2d:de:df:87:76:
         a3:5b:f3:38:a3:67:13:46:cf:29:e4:ab:72:54:3b:9f:44:50:
         46:38:eb:89
-----BEGIN CERTIFICATE-----
MIIFKjCCBBKgAwIBAgIRAM5WwQC6z+qv+INP7iQIn54wDQYJKoZIhvcNAQELBQAw
ga8xCzAJBgNVBAYTAlVTMRMwEQYDVQQIDApDYWxpZm9ybmlhMRYwFAYDVQQHDA1T
YW4gRnJhbmNpc2NvMSAwHgYDVQQKDBdDb3B5bGVmdCBDZXJ0aWZpY2F0ZSBDbzEf
MB0GA1UECwwWTXkgT3JnYW5pemF0aW9uYWwgVW5pdDERMA8GA1UEAwwIQ2hhbmdl
TWUxHTAbBgkqhkiG9w0BCQEWDm1lQGV4YW1wbGUubmV0MB4XDTIzMTExMDE3NDQx
OFoXDTI0MTEwOTE3NDQxOFowgbUxCzAJBgNVBAYTAlVTMQswCQYDVQQIDAJPSDET
MBEGA1UEBwwKQ2luY2lubmF0aTEhMB8GA1UECgwYVW5pdmVyc2l0eSBvZiBDaW5j
aW5uYXRpMSQwIgYDVQQLDBtEZXB0X0VsZWNfQ29tXyBFbmdfQ29tX1NjaS4xETAP
BgNVBAMMCGNsaWVudDg4MSgwJgYJKoZIhvcNAQkBFhlmcmFuY29AZ2F1c3MuZWNl
Y3MudWMuZWR1MIIBIjANBgkqhkiG9w0BAQEFAAOCAQ8AMIIBCgKCAQEAyXoM0d0I
4qPSKdZDaSRpghOMPus2+nZ58B+/dpgVrP6/U5mjw+Z6n1qa8tJwZfsNaOFBeEQp
43WoZqjU0gpczEKF5RkFjE8MOIGvOfdv/Qz+QD/G2AsXsoEXyVmGF0OjKK4QVkNX
q9ZzMZbTk5y28QkARHlF1aHY5yNydAX3iR9hS8FrP1bWiB0SgMQqJcBBcMuSpwzg
LPXaXiRtkxofIxlbYBIIbzM+g4e+cACTIuNS6eaf6eoCKw1n3cFdFJv3VotNJEcF
wWO+cMDyOOC9wHLLYTem4lbxS0k9a7fnm0rIvPM0W6HNpjm1UnGwHaTNUvRYANZQ
9/ELE8ErJYxH+wIDAQABo4IBNzCCATMwCQYDVR0TBAIwADAdBgNVHQ4EFgQUYGqH
q3bsAOOOPSe8FyC+bNOIKIYwgeQGA1UdIwSB3DCB2YAUyCfaZDAIQAhKJczcQ5ne
d6H+d72hgbWkgbIwga8xCzAJBgNVBAYTAlVTMRMwEQYDVQQIDApDYWxpZm9ybmlh
MRYwFAYDVQQHDA1TYW4gRnJhbmNpc2NvMSAwHgYDVQQKDBdDb3B5bGVmdCBDZXJ0
aWZpY2F0ZSBDbzEfMB0GA1UECwwWTXkgT3JnYW5pemF0aW9uYWwgVW5pdDERMA8G
A1UEAwwIQ2hhbmdlTWUxHTAbBgkqhkiG9w0BCQEWDm1lQGV4YW1wbGUubmV0ggkA
qUjDfvwbsKEwEwYDVR0lBAwwCgYIKwYBBQUHAwIwCwYDVR0PBAQDAgeAMA0GCSqG
SIb3DQEBCwUAA4IBAQApN3bxyGs+sK45vTONIi4Sx5IHRGJolWRT614zgP4aFziU
MuVkoU9o+193ialkRKCE02Lfh10i4ChyYGZQOlm6aIU3X6UGqrSq/VNh0j2SwFWY
lClMlX/OE0Kh2rODV5BZaMXbliFeulos+Axb+YAKgU0QhPIGwGaR6Wo0VkunX+Jz
lcRjxrPA+gQzAAjec4wlNr6ALT9vn6mQilSLZCbpraDJ8R9ra4BYFAOr9Uk27MFN
oZ+V+t5Q6ojqz9RxnxU2xdKUCWBZjTYGzD2qKP/GzTHFrQQFCfQQeQts9d05ir/Z
cqxNLd7fh3ajW/M4o2cTRs8p5KtyVDufRFBGOOuJ
-----END CERTIFICATE-----
