Certificate:
    Data:
        Version: 3 (0x2)
        Serial Number:
            61:63:e8:e7:ee:ef:c8:5b:bb:ec:5e:db:b3:56:ec
    Signature Algorithm: sha256WithRSAEncryption
        Issuer: C=US, ST=California, L=San Francisco, O=Copyleft Certificate Co, OU=My Organizational Unit, CN=ChangeMe/emailAddress=me@example.net
        Validity
            Not Before: Nov 11 01:46:22 2023 GMT
            Not After : Nov 10 01:46:22 2024 GMT
        Subject: C=US, ST=OH, L=Cincinnati, O=University of Cincinnati, OU=Dept. Elec. Comp. Eng. Comp. Sci., CN=client100/emailAddress=franco@gauss.ececs.uc.edu
        Subject Public Key Info:
            Public Key Algorithm: rsaEncryption
                Public-Key: (2048 bit)
                Modulus:
                    00:bb:f1:da:26:83:d5:fd:d3:f4:d7:60:71:cb:f2:
                    cd:d7:53:59:8a:07:81:18:eb:53:0c:dd:dd:f1:75:
                    0e:16:81:91:d9:b1:a7:32:70:a1:2c:b0:8d:d6:7c:
                    06:5b:56:6f:5a:eb:95:33:f0:03:14:df:18:21:9a:
                    73:b8:d6:c8:af:92:cd:16:72:96:78:3d:19:a6:39:
                    5c:eb:2f:f8:28:e3:e0:df:a4:c4:b1:b9:f1:d7:4c:
                    c8:bd:e9:37:04:47:ef:63:e6:0d:7d:04:e4:bc:b5:
                    14:f1:0e:d8:26:d5:c6:55:ac:3f:14:51:d5:71:51:
                    b4:16:fd:f9:fb:dc:2e:3c:5b:7f:46:63:98:52:3f:
                    5b:fd:cf:6b:5d:87:c4:10:2d:00:29:5b:65:be:8b:
                    08:56:69:38:76:b6:db:85:62:0e:55:1f:53:c7:2f:
                    5c:52:e7:3d:83:ee:bd:0c:a9:28:04:db:fb:31:f1:
                    26:db:e7:b7:38:66:53:76:5c:85:48:c7:a8:79:b7:
                    8b:84:4e:2c:79:0b:5b:e7:31:ac:1f:13:39:5e:2b:
                    e4:25:26:dc:63:b6:02:64:ce:56:ca:15:18:d1:20:
                    4e:54:42:1b:01:dd:fa:8f:67:c6:91:bf:3d:a8:2b:
                    8d:dc:4b:be:d4:46:91:0a:db:93:27:02:e0:7f:8a:
                    93:c5
                Exponent: 65537 (0x10001)
        X509v3 extensions:
            X509v3 Basic Constraints: 
                CA:FALSE
            X509v3 Subject Key Identifier: 
                76:23:25:81:0F:76:DA:C8:8C:53:E8:6C:25:BE:1D:C9:BD:80:BA:DD
            X509v3 Authority Key Identifier: 
                keyid:73:DE:A0:43:0F:AE:B1:9E:E8:59:69:18:50:A1:1A:1F:D4:A1:E3:F0
                DirName:/C=US/ST=California/L=San Francisco/O=Copyleft Certificate Co/OU=My Organizational Unit/CN=ChangeMe/emailAddress=me@example.net
                serial:E9:BB:CB:16:C5:32:BE:3B

            X509v3 Extended Key Usage: 
                TLS Web Client Authentication
            X509v3 Key Usage: 
                Digital Signature
    Signature Algorithm: sha256WithRSAEncryption
         c5:5d:56:a5:9f:0e:83:c4:b5:41:96:f5:7e:f6:5f:be:4e:2b:
         52:8a:a9:c1:22:f5:9f:d4:b1:29:69:eb:77:b9:80:99:bb:47:
         23:c6:f3:cc:47:9a:a8:5d:06:31:26:61:c4:9a:35:e0:92:78:
         29:44:df:5a:45:a5:20:e7:5e:9d:6e:ca:66:f4:f5:05:83:0c:
         6f:a7:d5:da:9f:81:8e:7f:2e:ea:d3:5d:54:0f:85:b0:d1:bc:
         01:d0:13:ca:5a:83:67:33:58:6a:63:c6:87:84:81:7f:31:31:
         46:62:d2:9e:bd:c1:69:21:15:f1:0d:ef:1f:52:a4:7c:73:09:
         db:be:ed:ba:b0:84:ca:af:be:85:27:aa:c9:ee:62:8f:f3:96:
         9f:6f:7a:d5:f1:05:75:c5:49:c0:76:12:e4:50:0e:34:90:b0:
         5e:0b:06:24:97:c2:20:18:97:33:31:f8:00:7c:fc:14:33:fb:
         1c:d2:52:a0:b0:b5:08:42:e4:f6:cf:06:90:49:22:7e:57:c1:
         21:49:f8:e8:a5:73:10:c8:58:27:d6:ec:cb:25:c4:f6:03:68:
         4b:a2:2d:da:aa:f1:95:40:46:72:fd:29:85:e6:53:5e:b4:45:
         42:5f:db:1e:e9:2f:fc:de:75:cb:76:aa:76:04:97:b3:3d:4d:
         f0:e7:c7:84
-----BEGIN CERTIFICATE-----
MIIFLzCCBBegAwIBAgIPYWPo5+7vyFu77F7bs1bsMA0GCSqGSIb3DQEBCwUAMIGv
MQswCQYDVQQGEwJVUzETMBEGA1UECAwKQ2FsaWZvcm5pYTEWMBQGA1UEBwwNU2Fu
IEZyYW5jaXNjbzEgMB4GA1UECgwXQ29weWxlZnQgQ2VydGlmaWNhdGUgQ28xHzAd
BgNVBAsMFk15IE9yZ2FuaXphdGlvbmFsIFVuaXQxETAPBgNVBAMMCENoYW5nZU1l
MR0wGwYJKoZIhvcNAQkBFg5tZUBleGFtcGxlLm5ldDAeFw0yMzExMTEwMTQ2MjJa
Fw0yNDExMTAwMTQ2MjJaMIG8MQswCQYDVQQGEwJVUzELMAkGA1UECAwCT0gxEzAR
BgNVBAcMCkNpbmNpbm5hdGkxITAfBgNVBAoMGFVuaXZlcnNpdHkgb2YgQ2luY2lu
bmF0aTEqMCgGA1UECwwhRGVwdC4gRWxlYy4gQ29tcC4gRW5nLiBDb21wLiBTY2ku
MRIwEAYDVQQDDAljbGllbnQxMDAxKDAmBgkqhkiG9w0BCQEWGWZyYW5jb0BnYXVz
cy5lY2Vjcy51Yy5lZHUwggEiMA0GCSqGSIb3DQEBAQUAA4IBDwAwggEKAoIBAQC7
8domg9X90/TXYHHL8s3XU1mKB4EY61MM3d3xdQ4WgZHZsacycKEssI3WfAZbVm9a
65Uz8AMU3xghmnO41sivks0WcpZ4PRmmOVzrL/go4+DfpMSxufHXTMi96TcER+9j
5g19BOS8tRTxDtgm1cZVrD8UUdVxUbQW/fn73C48W39GY5hSP1v9z2tdh8QQLQAp
W2W+iwhWaTh2ttuFYg5VH1PHL1xS5z2D7r0MqSgE2/sx8Sbb57c4ZlN2XIVIx6h5
t4uETix5C1vnMawfEzleK+QlJtxjtgJkzlbKFRjRIE5UQhsB3fqPZ8aRvz2oK43c
S77URpEK25MnAuB/ipPFAgMBAAGjggE3MIIBMzAJBgNVHRMEAjAAMB0GA1UdDgQW
BBR2IyWBD3bayIxT6Gwlvh3JvYC63TCB5AYDVR0jBIHcMIHZgBRz3qBDD66xnuhZ
aRhQoRof1KHj8KGBtaSBsjCBrzELMAkGA1UEBhMCVVMxEzARBgNVBAgMCkNhbGlm
b3JuaWExFjAUBgNVBAcMDVNhbiBGcmFuY2lzY28xIDAeBgNVBAoMF0NvcHlsZWZ0
IENlcnRpZmljYXRlIENvMR8wHQYDVQQLDBZNeSBPcmdhbml6YXRpb25hbCBVbml0
MREwDwYDVQQDDAhDaGFuZ2VNZTEdMBsGCSqGSIb3DQEJARYObWVAZXhhbXBsZS5u
ZXSCCQDpu8sWxTK+OzATBgNVHSUEDDAKBggrBgEFBQcDAjALBgNVHQ8EBAMCB4Aw
DQYJKoZIhvcNAQELBQADggEBAMVdVqWfDoPEtUGW9X72X75OK1KKqcEi9Z/UsSlp
63e5gJm7RyPG88xHmqhdBjEmYcSaNeCSeClE31pFpSDnXp1uymb09QWDDG+n1dqf
gY5/LurTXVQPhbDRvAHQE8pag2czWGpjxoeEgX8xMUZi0p69wWkhFfEN7x9SpHxz
Cdu+7bqwhMqvvoUnqsnuYo/zlp9vetXxBXXFScB2EuRQDjSQsF4LBiSXwiAYlzMx
+AB8/BQz+xzSUqCwtQhC5PbPBpBJIn5XwSFJ+OilcxDIWCfW7MslxPYDaEuiLdqq
8ZVARnL9KYXmU160RUJf2x7pL/zedct2qnYEl7M9TfDnx4Q=
-----END CERTIFICATE-----
