Certificate:
    Data:
        Version: 3 (0x2)
        Serial Number:
            7c:30:f3:a9:e0:b3:82:dc:85:95:11:7e:6c:22:1f:78
    Signature Algorithm: sha256WithRSAEncryption
        Issuer: C=US, ST=California, L=San Francisco, O=Copyleft Certificate Co, OU=My Organizational Unit, CN=ChangeMe/emailAddress=me@example.net
        Validity
            Not Before: Nov 11 01:48:38 2023 GMT
            Not After : Nov 10 01:48:38 2024 GMT
        Subject: C=US, ST=OH, L=Cincinnati, O=University of Cincinnati, OU=Dept. Elec. Comp. Eng. Comp. Sci., CN=client134/emailAddress=franco@gauss.ececs.uc.edu
        Subject Public Key Info:
            Public Key Algorithm: rsaEncryption
                Public-Key: (2048 bit)
                Modulus:
                    00:cc:12:bc:a2:2c:9e:3e:69:15:ef:c2:d4:f0:ef:
                    c8:71:2f:05:32:7a:d7:e0:12:ff:ea:80:e0:ef:37:
                    82:f4:65:8d:20:de:df:e9:7a:46:30:8a:2f:37:99:
                    22:39:e3:30:b5:33:3a:6f:b2:0f:5f:db:ab:a5:0d:
                    b7:39:d1:01:f7:6f:94:5c:7b:bc:5c:e3:99:9c:ad:
                    71:4a:e7:67:12:5c:e0:78:45:14:fc:b7:90:1e:62:
                    e2:e5:6d:e0:8a:4d:18:19:51:76:84:84:14:ba:d6:
                    ef:e4:52:07:c8:4c:0b:5a:8d:b4:0f:49:e3:49:fe:
                    92:14:4b:75:c8:c4:20:51:02:0c:28:94:60:c3:17:
                    19:c8:e1:89:51:c3:77:ac:4e:a9:21:64:6a:24:e9:
                    bb:68:fc:c0:e6:13:ff:7e:5c:d8:2a:a3:4f:6c:48:
                    fa:78:65:56:63:25:49:78:f5:e1:ae:6e:fe:3f:79:
                    3c:64:ed:c2:48:80:c1:4b:42:5d:7b:be:b6:0c:c0:
                    9e:e7:96:f5:85:84:56:86:7e:f8:53:b6:ad:c3:36:
                    24:59:a0:f6:14:0a:04:4c:6e:a3:8e:bb:0c:40:c6:
                    9c:e2:5c:99:76:c3:04:3f:a8:cd:18:4a:1d:ad:ed:
                    86:cc:20:5a:dd:8b:cb:62:83:17:11:a9:1b:2c:8a:
                    a1:b7
                Exponent: 65537 (0x10001)
        X509v3 extensions:
            X509v3 Basic Constraints: 
                CA:FALSE
            X509v3 Subject Key Identifier: 
                65:42:BE:16:C6:58:44:D1:90:98:D6:7A:82:6F:B9:50:07:91:6F:D2
            X509v3 Authority Key Identifier: 
                keyid:73:DE:A0:43:0F:AE:B1:9E:E8:59:69:18:50:A1:1A:1F:D4:A1:E3:F0
                DirName:/C=US/ST=California/L=San Francisco/O=Copyleft Certificate Co/OU=My Organizational Unit/CN=ChangeMe/emailAddress=me@example.net
                serial:E9:BB:CB:16:C5:32:BE:3B

            X509v3 Extended Key Usage: 
                TLS Web Client Authentication
            X509v3 Key Usage: 
                Digital Signature
    Signature Algorithm: sha256WithRSAEncryption
         99:80:ad:3e:6c:22:34:eb:3e:2a:a1:25:65:e4:c0:1b:c1:91:
         4f:98:10:b2:99:e1:ca:df:fd:2a:a7:4a:be:b8:15:e1:c5:28:
         e1:33:38:0f:a8:9d:4d:a4:70:11:61:76:12:fe:8a:60:33:21:
         db:71:2b:be:cd:3b:95:a1:1e:79:50:3c:8b:06:40:d3:c3:97:
         19:f3:35:e6:0d:4e:d3:53:0f:e0:b1:7f:c0:3d:2f:7d:00:41:
         6c:76:99:61:2d:7f:9d:c4:c9:94:96:99:09:b4:69:33:8e:c7:
         06:b2:3e:c7:b2:ff:dc:f4:1e:60:6a:bb:eb:92:06:2a:7a:bf:
         d5:2a:e4:0d:54:1f:f9:9b:7d:bf:98:f6:6c:52:38:75:82:ca:
         51:0a:9c:f3:1b:78:78:38:42:91:dc:8f:3c:53:2c:53:a4:4a:
         50:f5:32:b2:2c:65:08:b9:36:a4:c4:05:a8:21:35:23:fe:72:
         51:9b:21:e8:46:e7:1a:07:c8:4f:c9:d6:88:0a:a4:9c:4f:8e:
         7a:cb:de:54:d0:39:e5:e8:5b:b4:b2:77:43:c3:64:e1:ea:87:
         80:ff:a9:85:f9:71:93:10:53:7b:da:6d:af:7e:a4:ec:9a:65:
         f6:30:40:4d:a7:11:c5:2d:c2:95:95:7a:3e:f4:7c:6a:43:fc:
         39:92:11:98
-----BEGIN CERTIFICATE-----
MIIFMDCCBBigAwIBAgIQfDDzqeCzgtyFlRF+bCIfeDANBgkqhkiG9w0BAQsFADCB
rzELMAkGA1UEBhMCVVMxEzARBgNVBAgMCkNhbGlmb3JuaWExFjAUBgNVBAcMDVNh
biBGcmFuY2lzY28xIDAeBgNVBAoMF0NvcHlsZWZ0IENlcnRpZmljYXRlIENvMR8w
HQYDVQQLDBZNeSBPcmdhbml6YXRpb25hbCBVbml0MREwDwYDVQQDDAhDaGFuZ2VN
ZTEdMBsGCSqGSIb3DQEJARYObWVAZXhhbXBsZS5uZXQwHhcNMjMxMTExMDE0ODM4
WhcNMjQxMTEwMDE0ODM4WjCBvDELMAkGA1UEBhMCVVMxCzAJBgNVBAgMAk9IMRMw
EQYDVQQHDApDaW5jaW5uYXRpMSEwHwYDVQQKDBhVbml2ZXJzaXR5IG9mIENpbmNp
bm5hdGkxKjAoBgNVBAsMIURlcHQuIEVsZWMuIENvbXAuIEVuZy4gQ29tcC4gU2Np
LjESMBAGA1UEAwwJY2xpZW50MTM0MSgwJgYJKoZIhvcNAQkBFhlmcmFuY29AZ2F1
c3MuZWNlY3MudWMuZWR1MIIBIjANBgkqhkiG9w0BAQEFAAOCAQ8AMIIBCgKCAQEA
zBK8oiyePmkV78LU8O/IcS8FMnrX4BL/6oDg7zeC9GWNIN7f6XpGMIovN5kiOeMw
tTM6b7IPX9urpQ23OdEB92+UXHu8XOOZnK1xSudnElzgeEUU/LeQHmLi5W3gik0Y
GVF2hIQUutbv5FIHyEwLWo20D0njSf6SFEt1yMQgUQIMKJRgwxcZyOGJUcN3rE6p
IWRqJOm7aPzA5hP/flzYKqNPbEj6eGVWYyVJePXhrm7+P3k8ZO3CSIDBS0Jde762
DMCe55b1hYRWhn74U7atwzYkWaD2FAoETG6jjrsMQMac4lyZdsMEP6jNGEodre2G
zCBa3YvLYoMXEakbLIqhtwIDAQABo4IBNzCCATMwCQYDVR0TBAIwADAdBgNVHQ4E
FgQUZUK+FsZYRNGQmNZ6gm+5UAeRb9IwgeQGA1UdIwSB3DCB2YAUc96gQw+usZ7o
WWkYUKEaH9Sh4/ChgbWkgbIwga8xCzAJBgNVBAYTAlVTMRMwEQYDVQQIDApDYWxp
Zm9ybmlhMRYwFAYDVQQHDA1TYW4gRnJhbmNpc2NvMSAwHgYDVQQKDBdDb3B5bGVm
dCBDZXJ0aWZpY2F0ZSBDbzEfMB0GA1UECwwWTXkgT3JnYW5pemF0aW9uYWwgVW5p
dDERMA8GA1UEAwwIQ2hhbmdlTWUxHTAbBgkqhkiG9w0BCQEWDm1lQGV4YW1wbGUu
bmV0ggkA6bvLFsUyvjswEwYDVR0lBAwwCgYIKwYBBQUHAwIwCwYDVR0PBAQDAgeA
MA0GCSqGSIb3DQEBCwUAA4IBAQCZgK0+bCI06z4qoSVl5MAbwZFPmBCymeHK3/0q
p0q+uBXhxSjhMzgPqJ1NpHARYXYS/opgMyHbcSu+zTuVoR55UDyLBkDTw5cZ8zXm
DU7TUw/gsX/APS99AEFsdplhLX+dxMmUlpkJtGkzjscGsj7Hsv/c9B5garvrkgYq
er/VKuQNVB/5m32/mPZsUjh1gspRCpzzG3h4OEKR3I88UyxTpEpQ9TKyLGUIuTak
xAWoITUj/nJRmyHoRucaB8hPydaICqScT456y95U0Dnl6Fu0sndDw2Th6oeA/6mF
+XGTEFN72m2vfqTsmmX2MEBNpxHFLcKVlXo+9HxqQ/w5khGY
-----END CERTIFICATE-----
