Certificate:
    Data:
        Version: 3 (0x2)
        Serial Number:
            f2:b1:a9:89:d1:85:b0:90:60:55:e3:b9:59:29:2b:88
    Signature Algorithm: sha256WithRSAEncryption
        Issuer: C=US, ST=California, L=San Francisco, O=Copyleft Certificate Co, OU=My Organizational Unit, CN=ChangeMe/emailAddress=me@example.net
        Validity
            Not Before: Nov 11 01:43:50 2023 GMT
            Not After : Nov 10 01:43:50 2024 GMT
        Subject: C=US, ST=OH, L=Cincinnati, O=University of Cincinnati, OU=Dept. Elec. Comp. Eng. Comp. Sci., CN=client62/emailAddress=franco@gauss.ececs.uc.edu
        Subject Public Key Info:
            Public Key Algorithm: rsaEncryption
                Public-Key: (2048 bit)
                Modulus:
                    00:bb:7b:1e:e4:9d:36:bb:92:cc:60:f0:94:6d:74:
                    c0:b1:98:86:fc:06:65:a7:ff:fc:aa:1c:ed:18:80:
                    03:1a:83:23:25:30:72:83:68:35:f0:9b:c6:1c:d9:
                    5d:ba:a4:19:9f:92:fb:2b:62:93:f1:59:a2:07:3b:
                    2d:77:71:c2:7e:d7:89:d8:f8:c3:6a:45:13:f7:c2:
                    f3:87:e6:72:cc:7e:f9:16:25:44:4e:59:94:ab:c0:
                    c3:96:08:de:c4:1d:30:52:ee:f5:b6:15:21:ed:cb:
                    af:2d:60:39:b5:f7:45:e1:a5:7e:32:ad:7b:e4:a0:
                    ba:df:88:d8:b6:93:8c:47:c3:28:da:74:6d:32:00:
                    5a:79:8d:64:4e:f2:42:91:b7:96:8b:b9:0a:20:aa:
                    c9:c2:36:7f:c8:d6:cf:6e:4a:51:57:31:94:c6:c5:
                    71:2e:e7:27:00:1b:6a:00:d0:bd:f1:dd:06:ac:ea:
                    e6:19:02:d2:6d:f2:95:90:5c:03:e6:76:04:88:b2:
                    3d:0d:0e:92:7c:14:a4:f7:b5:bd:86:b4:49:db:eb:
                    7e:3d:da:6a:0f:9a:83:21:92:8c:a3:47:1e:d0:4c:
                    ee:01:9c:1c:df:6b:7a:cd:95:10:9a:d9:9e:8c:49:
                    39:12:d5:ea:f7:c5:d2:da:3f:ff:8c:44:96:f7:1a:
                    c3:05
                Exponent: 65537 (0x10001)
        X509v3 extensions:
            X509v3 Basic Constraints: 
                CA:FALSE
            X509v3 Subject Key Identifier: 
                8B:C4:73:D1:8C:0D:CE:B7:D4:32:3F:B4:FE:EC:E1:5A:DB:28:F6:F6
            X509v3 Authority Key Identifier: 
                keyid:73:DE:A0:43:0F:AE:B1:9E:E8:59:69:18:50:A1:1A:1F:D4:A1:E3:F0
                DirName:/C=US/ST=California/L=San Francisco/O=Copyleft Certificate Co/OU=My Organizational Unit/CN=ChangeMe/emailAddress=me@example.net
                serial:E9:BB:CB:16:C5:32:BE:3B

            X509v3 Extended Key Usage: 
                TLS Web Client Authentication
            X509v3 Key Usage: 
                Digital Signature
    Signature Algorithm: sha256WithRSAEncryption
         2b:20:7e:3f:8f:49:7b:05:9a:f2:2a:bf:a5:c9:58:ce:64:ee:
         51:c3:98:c2:05:df:a8:42:a0:9f:8c:c6:6b:35:a6:71:09:6c:
         cd:d0:2a:8a:b4:4a:c3:71:ce:51:c1:09:a9:52:0f:f7:02:01:
         47:11:de:80:c7:be:fe:14:f6:22:80:69:04:11:0e:a9:a8:02:
         8e:25:51:13:6c:5a:f5:c4:f5:1e:c2:fa:a0:dd:4b:14:9b:9c:
         d5:aa:4a:fc:53:66:07:d1:38:f3:ba:6d:61:68:55:f2:10:d8:
         45:c9:af:a5:6c:6a:7e:56:50:20:b8:40:ed:eb:ac:d2:be:2d:
         73:7a:69:fa:36:d4:18:dc:d7:45:55:c3:8d:a8:33:99:65:30:
         14:d0:8b:d7:6b:58:3f:05:d8:b5:23:59:2d:05:1f:53:7d:37:
         6a:78:eb:cd:d0:0b:4c:70:19:72:f7:f9:3b:aa:4c:0c:24:93:
         0a:aa:c1:fb:77:07:e6:1d:cc:95:89:5d:7d:c8:2b:c9:8e:62:
         63:cc:8a:e5:2f:e4:48:28:fa:24:29:01:12:fc:1a:84:d2:1f:
         38:8b:bb:55:a9:34:4a:10:33:2c:e9:35:71:3c:0b:aa:38:42:
         d0:a8:44:35:1b:31:3c:bc:84:db:07:60:f6:be:54:e6:27:3b:
         0b:11:f8:5d
-----BEGIN CERTIFICATE-----
MIIFMDCCBBigAwIBAgIRAPKxqYnRhbCQYFXjuVkpK4gwDQYJKoZIhvcNAQELBQAw
ga8xCzAJBgNVBAYTAlVTMRMwEQYDVQQIDApDYWxpZm9ybmlhMRYwFAYDVQQHDA1T
YW4gRnJhbmNpc2NvMSAwHgYDVQQKDBdDb3B5bGVmdCBDZXJ0aWZpY2F0ZSBDbzEf
MB0GA1UECwwWTXkgT3JnYW5pemF0aW9uYWwgVW5pdDERMA8GA1UEAwwIQ2hhbmdl
TWUxHTAbBgkqhkiG9w0BCQEWDm1lQGV4YW1wbGUubmV0MB4XDTIzMTExMTAxNDM1
MFoXDTI0MTExMDAxNDM1MFowgbsxCzAJBgNVBAYTAlVTMQswCQYDVQQIDAJPSDET
MBEGA1UEBwwKQ2luY2lubmF0aTEhMB8GA1UECgwYVW5pdmVyc2l0eSBvZiBDaW5j
aW5uYXRpMSowKAYDVQQLDCFEZXB0LiBFbGVjLiBDb21wLiBFbmcuIENvbXAuIFNj
aS4xETAPBgNVBAMMCGNsaWVudDYyMSgwJgYJKoZIhvcNAQkBFhlmcmFuY29AZ2F1
c3MuZWNlY3MudWMuZWR1MIIBIjANBgkqhkiG9w0BAQEFAAOCAQ8AMIIBCgKCAQEA
u3se5J02u5LMYPCUbXTAsZiG/AZlp//8qhztGIADGoMjJTByg2g18JvGHNlduqQZ
n5L7K2KT8VmiBzstd3HCfteJ2PjDakUT98Lzh+ZyzH75FiVETlmUq8DDlgjexB0w
Uu71thUh7cuvLWA5tfdF4aV+Mq175KC634jYtpOMR8Mo2nRtMgBaeY1kTvJCkbeW
i7kKIKrJwjZ/yNbPbkpRVzGUxsVxLucnABtqANC98d0GrOrmGQLSbfKVkFwD5nYE
iLI9DQ6SfBSk97W9hrRJ2+t+PdpqD5qDIZKMo0ce0EzuAZwc32t6zZUQmtmejEk5
EtXq98XS2j//jESW9xrDBQIDAQABo4IBNzCCATMwCQYDVR0TBAIwADAdBgNVHQ4E
FgQUi8Rz0YwNzrfUMj+0/uzhWtso9vYwgeQGA1UdIwSB3DCB2YAUc96gQw+usZ7o
WWkYUKEaH9Sh4/ChgbWkgbIwga8xCzAJBgNVBAYTAlVTMRMwEQYDVQQIDApDYWxp
Zm9ybmlhMRYwFAYDVQQHDA1TYW4gRnJhbmNpc2NvMSAwHgYDVQQKDBdDb3B5bGVm
dCBDZXJ0aWZpY2F0ZSBDbzEfMB0GA1UECwwWTXkgT3JnYW5pemF0aW9uYWwgVW5p
dDERMA8GA1UEAwwIQ2hhbmdlTWUxHTAbBgkqhkiG9w0BCQEWDm1lQGV4YW1wbGUu
bmV0ggkA6bvLFsUyvjswEwYDVR0lBAwwCgYIKwYBBQUHAwIwCwYDVR0PBAQDAgeA
MA0GCSqGSIb3DQEBCwUAA4IBAQArIH4/j0l7BZryKr+lyVjOZO5Rw5jCBd+oQqCf
jMZrNaZxCWzN0CqKtErDcc5RwQmpUg/3AgFHEd6Ax77+FPYigGkEEQ6pqAKOJVET
bFr1xPUewvqg3UsUm5zVqkr8U2YH0Tjzum1haFXyENhFya+lbGp+VlAguEDt66zS
vi1zemn6NtQY3NdFVcONqDOZZTAU0IvXa1g/Bdi1I1ktBR9TfTdqeOvN0AtMcBly
9/k7qkwMJJMKqsH7dwfmHcyViV19yCvJjmJjzIrlL+RIKPokKQES/BqE0h84i7tV
qTRKEDMs6TVxPAuqOELQqEQ1GzE8vITbB2D2vlTmJzsLEfhd
-----END CERTIFICATE-----
