Certificate:
    Data:
        Version: 3 (0x2)
        Serial Number:
            ef:3c:9c:9f:6d:a5:de:7f:32:dc:52:18:c2:c9:28:0f
    Signature Algorithm: sha256WithRSAEncryption
        Issuer: C=US, ST=California, L=San Francisco, O=Copyleft Certificate Co, OU=My Organizational Unit, CN=ChangeMe/emailAddress=me@example.net
        Validity
            Not Before: Nov 10 17:44:02 2023 GMT
            Not After : Nov  9 17:44:02 2024 GMT
        Subject: C=US, ST=OH, L=Cincinnati, O=University of Cincinnati, OU=Dept_Elec_Com_ Eng_Com_Sci., CN=client84/emailAddress=franco@gauss.ececs.uc.edu
        Subject Public Key Info:
            Public Key Algorithm: rsaEncryption
                Public-Key: (2048 bit)
                Modulus:
                    00:b9:3a:15:55:8b:b3:9d:d5:5a:8c:39:ac:d7:42:
                    7a:8e:c9:fc:1a:33:4a:3a:24:f9:4e:1e:8b:d6:77:
                    43:0c:21:df:f4:19:f9:be:8a:58:45:13:29:57:53:
                    7d:ac:47:0e:aa:89:39:a9:44:50:f9:db:8c:e4:db:
                    0c:f3:d5:a8:36:f0:6c:09:ad:8b:10:ce:cb:af:0b:
                    c5:18:68:42:2e:27:54:21:f3:0d:ae:5c:85:f2:9b:
                    9c:04:41:70:e5:34:80:cf:a3:40:0c:d6:be:8a:5a:
                    53:af:21:b3:23:7b:5d:b8:c0:e8:b3:00:5e:44:f9:
                    43:58:a8:1c:2d:6a:fa:7d:06:d3:90:46:21:b0:f7:
                    0c:e9:78:dd:3c:12:c1:e6:77:55:73:84:01:d1:70:
                    58:06:57:67:7f:d6:1d:89:05:bd:32:a9:4f:ed:ea:
                    a3:38:92:ab:ff:cc:cd:9e:3d:2d:9d:b6:3e:16:0a:
                    8f:d7:36:fc:a4:c4:5c:56:47:ea:05:d9:e4:22:6f:
                    d8:ef:2d:dd:ac:76:94:73:0e:2e:e7:e7:16:9a:a3:
                    1e:9a:2f:8b:9a:5e:31:b3:62:25:0c:f8:15:ca:62:
                    db:97:55:25:7a:a4:dd:a2:59:5f:3c:a1:73:64:d2:
                    70:30:c1:88:be:92:29:2c:5e:e0:11:2c:f5:cc:f1:
                    1e:af
                Exponent: 65537 (0x10001)
        X509v3 extensions:
            X509v3 Basic Constraints: 
                CA:FALSE
            X509v3 Subject Key Identifier: 
                0E:8D:6D:D9:43:40:DD:33:A9:3B:36:38:31:EF:66:26:14:DE:D5:C3
            X509v3 Authority Key Identifier: 
                keyid:C8:27:DA:64:30:08:40:08:4A:25:CC:DC:43:99:DE:77:A1:FE:77:BD
                DirName:/C=US/ST=California/L=San Francisco/O=Copyleft Certificate Co/OU=My Organizational Unit/CN=ChangeMe/emailAddress=me@example.net
                serial:A9:48:C3:7E:FC:1B:B0:A1

            X509v3 Extended Key Usage: 
                TLS Web Client Authentication
            X509v3 Key Usage: 
                Digital Signature
    Signature Algorithm: sha256WithRSAEncryption
         89:14:48:fb:69:0c:8b:36:89:70:68:2b:8a:90:34:2c:e6:37:
         63:93:a7:66:2c:15:a4:be:ab:07:55:18:33:86:5a:0c:2f:83:
         b5:93:0f:80:0d:ba:18:fa:b2:ce:c4:41:1c:04:01:31:a5:b7:
         80:18:eb:b0:dc:8f:ae:0e:ff:67:80:e2:af:6a:49:3e:d0:3a:
         9a:f9:44:d2:cc:4a:48:7b:be:fa:64:ec:b7:fe:91:75:38:e8:
         ec:f5:71:f9:aa:3c:68:50:17:76:d4:d2:ea:fa:cf:86:3a:ba:
         62:54:de:e9:0d:60:eb:d1:1c:d1:e5:02:d3:0e:5c:d7:0c:a5:
         8a:b6:fd:38:fe:fc:08:a3:c7:68:24:ee:f8:d7:ee:12:15:28:
         eb:90:94:f7:83:a7:66:35:9b:4b:b4:76:e2:64:24:2f:d1:2b:
         4e:09:4d:2f:c5:02:28:00:25:7e:d4:c0:6a:d4:85:d8:a1:dc:
         e5:f6:3d:be:67:3c:2b:1f:d4:9f:d2:b9:71:63:fd:85:47:aa:
         d8:a2:92:71:28:a4:96:22:6d:79:bd:2b:3c:c2:0c:f4:72:c4:
         2f:28:17:08:4b:81:03:50:19:eb:39:b2:72:ee:51:d5:52:be:
         d3:5b:85:68:6d:3a:5e:00:e0:6d:16:92:4d:4f:ba:e9:6d:b9:
         1e:9b:2a:d0
-----BEGIN CERTIFICATE-----
MIIFKjCCBBKgAwIBAgIRAO88nJ9tpd5/MtxSGMLJKA8wDQYJKoZIhvcNAQELBQAw
ga8xCzAJBgNVBAYTAlVTMRMwEQYDVQQIDApDYWxpZm9ybmlhMRYwFAYDVQQHDA1T
YW4gRnJhbmNpc2NvMSAwHgYDVQQKDBdDb3B5bGVmdCBDZXJ0aWZpY2F0ZSBDbzEf
MB0GA1UECwwWTXkgT3JnYW5pemF0aW9uYWwgVW5pdDERMA8GA1UEAwwIQ2hhbmdl
TWUxHTAbBgkqhkiG9w0BCQEWDm1lQGV4YW1wbGUubmV0MB4XDTIzMTExMDE3NDQw
MloXDTI0MTEwOTE3NDQwMlowgbUxCzAJBgNVBAYTAlVTMQswCQYDVQQIDAJPSDET
MBEGA1UEBwwKQ2luY2lubmF0aTEhMB8GA1UECgwYVW5pdmVyc2l0eSBvZiBDaW5j
aW5uYXRpMSQwIgYDVQQLDBtEZXB0X0VsZWNfQ29tXyBFbmdfQ29tX1NjaS4xETAP
BgNVBAMMCGNsaWVudDg0MSgwJgYJKoZIhvcNAQkBFhlmcmFuY29AZ2F1c3MuZWNl
Y3MudWMuZWR1MIIBIjANBgkqhkiG9w0BAQEFAAOCAQ8AMIIBCgKCAQEAuToVVYuz
ndVajDms10J6jsn8GjNKOiT5Th6L1ndDDCHf9Bn5vopYRRMpV1N9rEcOqok5qURQ
+duM5NsM89WoNvBsCa2LEM7LrwvFGGhCLidUIfMNrlyF8pucBEFw5TSAz6NADNa+
ilpTryGzI3tduMDoswBeRPlDWKgcLWr6fQbTkEYhsPcM6XjdPBLB5ndVc4QB0XBY
Bldnf9YdiQW9MqlP7eqjOJKr/8zNnj0tnbY+FgqP1zb8pMRcVkfqBdnkIm/Y7y3d
rHaUcw4u5+cWmqMemi+Lml4xs2IlDPgVymLbl1UleqTdollfPKFzZNJwMMGIvpIp
LF7gESz1zPEerwIDAQABo4IBNzCCATMwCQYDVR0TBAIwADAdBgNVHQ4EFgQUDo1t
2UNA3TOpOzY4Me9mJhTe1cMwgeQGA1UdIwSB3DCB2YAUyCfaZDAIQAhKJczcQ5ne
d6H+d72hgbWkgbIwga8xCzAJBgNVBAYTAlVTMRMwEQYDVQQIDApDYWxpZm9ybmlh
MRYwFAYDVQQHDA1TYW4gRnJhbmNpc2NvMSAwHgYDVQQKDBdDb3B5bGVmdCBDZXJ0
aWZpY2F0ZSBDbzEfMB0GA1UECwwWTXkgT3JnYW5pemF0aW9uYWwgVW5pdDERMA8G
A1UEAwwIQ2hhbmdlTWUxHTAbBgkqhkiG9w0BCQEWDm1lQGV4YW1wbGUubmV0ggkA
qUjDfvwbsKEwEwYDVR0lBAwwCgYIKwYBBQUHAwIwCwYDVR0PBAQDAgeAMA0GCSqG
SIb3DQEBCwUAA4IBAQCJFEj7aQyLNolwaCuKkDQs5jdjk6dmLBWkvqsHVRgzhloM
L4O1kw+ADboY+rLOxEEcBAExpbeAGOuw3I+uDv9ngOKvakk+0Dqa+UTSzEpIe776
ZOy3/pF1OOjs9XH5qjxoUBd21NLq+s+GOrpiVN7pDWDr0RzR5QLTDlzXDKWKtv04
/vwIo8doJO741+4SFSjrkJT3g6dmNZtLtHbiZCQv0StOCU0vxQIoACV+1MBq1IXY
odzl9j2+ZzwrH9Sf0rlxY/2FR6rYopJxKKSWIm15vSs8wgz0csQvKBcIS4EDUBnr
ObJy7lHVUr7TW4VobTpeAOBtFpJNT7rpbbkemyrQ
-----END CERTIFICATE-----
