Certificate:
    Data:
        Version: 3 (0x2)
        Serial Number:
            20:18:eb:3b:b5:09:72:c4:75:13:09:88:f9:26:81:14
    Signature Algorithm: sha256WithRSAEncryption
        Issuer: C=US, ST=California, L=San Francisco, O=Copyleft Certificate Co, OU=My Organizational Unit, CN=ChangeMe/emailAddress=me@example.net
        Validity
            Not Before: Nov 11 01:45:06 2023 GMT
            Not After : Nov 10 01:45:06 2024 GMT
        Subject: C=US, ST=OH, L=Cincinnati, O=University of Cincinnati, OU=Dept. Elec. Comp. Eng. Comp. Sci., CN=client81/emailAddress=franco@gauss.ececs.uc.edu
        Subject Public Key Info:
            Public Key Algorithm: rsaEncryption
                Public-Key: (2048 bit)
                Modulus:
                    00:c9:5f:35:52:43:52:5a:09:c2:12:c9:47:40:75:
                    df:19:e0:52:e9:63:16:56:64:71:60:cb:ac:0d:56:
                    b7:06:c0:58:02:e9:37:ba:98:c1:3a:23:0a:20:2c:
                    98:cf:52:9a:fd:49:e6:20:d0:8d:d7:35:89:7d:a9:
                    4a:d9:1b:a7:69:f5:a2:eb:1b:b3:b5:94:c4:d0:b6:
                    e5:5b:f0:6b:0d:93:3e:08:8d:ec:0d:ce:3d:9c:23:
                    c4:3c:f4:8f:c1:44:d6:85:86:48:d2:7f:a4:eb:1a:
                    9a:de:97:72:99:f3:54:00:e4:e9:46:e6:76:36:c5:
                    c2:54:da:5e:52:72:a0:31:9d:20:b8:47:13:35:0e:
                    1a:a6:cb:2f:d7:41:e4:eb:97:86:95:12:d1:7b:56:
                    67:a8:b1:d0:8b:ff:6d:aa:a0:ad:79:88:36:66:4d:
                    96:b4:c2:5f:8f:7d:f7:06:82:6f:b5:2a:b4:f3:a2:
                    ea:1d:de:07:81:24:97:bc:d1:cd:f1:79:01:95:a6:
                    17:d4:4a:2d:82:0f:7d:4d:77:a4:d0:4c:0b:f4:7c:
                    2c:c4:01:8c:82:9e:9c:a4:db:84:a4:16:9d:9d:84:
                    61:7a:e6:f2:39:e7:6f:06:56:96:7c:86:af:c9:18:
                    54:64:a7:05:cb:d6:a6:e5:07:47:f9:4f:6e:f5:52:
                    2e:cf
                Exponent: 65537 (0x10001)
        X509v3 extensions:
            X509v3 Basic Constraints: 
                CA:FALSE
            X509v3 Subject Key Identifier: 
                12:1E:0D:0D:E0:C5:C0:9E:B0:D6:C7:ED:F7:57:89:75:AA:98:18:D0
            X509v3 Authority Key Identifier: 
                keyid:73:DE:A0:43:0F:AE:B1:9E:E8:59:69:18:50:A1:1A:1F:D4:A1:E3:F0
                DirName:/C=US/ST=California/L=San Francisco/O=Copyleft Certificate Co/OU=My Organizational Unit/CN=ChangeMe/emailAddress=me@example.net
                serial:E9:BB:CB:16:C5:32:BE:3B

            X509v3 Extended Key Usage: 
                TLS Web Client Authentication
            X509v3 Key Usage: 
                Digital Signature
    Signature Algorithm: sha256WithRSAEncryption
         41:11:7c:e6:57:48:e5:52:93:88:7f:eb:3b:a7:f1:8c:f8:67:
         f0:07:c6:83:44:0e:c0:70:1d:c2:7f:37:63:39:3c:49:b7:c5:
         f2:04:f2:7c:2b:e7:5a:57:85:7a:b3:14:92:d7:4c:d0:2f:19:
         70:7c:59:27:f2:94:a8:20:22:8f:1c:9e:72:78:bf:b7:b9:21:
         f6:d6:1c:4c:a8:3f:fa:bf:d8:92:9f:78:91:d1:22:aa:3f:0a:
         4d:39:50:58:fd:f9:85:6d:a9:44:ee:c7:22:46:97:e1:25:fa:
         2f:02:09:58:b6:0a:b1:4f:c3:85:e2:c1:4d:37:f0:be:3a:fd:
         6a:21:b6:5f:61:06:0b:1e:34:74:65:24:94:76:c2:0e:56:44:
         04:8c:90:34:db:56:5e:de:68:a3:0d:32:13:45:15:e0:22:f7:
         d2:e9:65:0c:dd:84:fa:c4:8a:bc:c1:1d:2d:15:58:d0:71:0a:
         8d:99:e0:4a:1e:1f:40:94:99:79:f9:52:26:f3:22:ba:ee:74:
         68:f0:f9:14:83:39:1a:3d:8b:60:23:fb:ed:10:b8:be:b9:38:
         4b:4e:ce:9f:a1:8c:6b:55:bd:87:44:9a:6e:2a:b7:5e:85:35:
         88:a4:37:6a:0a:1b:50:23:86:c9:ce:bd:77:a2:05:cb:a2:46:
         89:42:a3:f1
-----BEGIN CERTIFICATE-----
MIIFLzCCBBegAwIBAgIQIBjrO7UJcsR1EwmI+SaBFDANBgkqhkiG9w0BAQsFADCB
rzELMAkGA1UEBhMCVVMxEzARBgNVBAgMCkNhbGlmb3JuaWExFjAUBgNVBAcMDVNh
biBGcmFuY2lzY28xIDAeBgNVBAoMF0NvcHlsZWZ0IENlcnRpZmljYXRlIENvMR8w
HQYDVQQLDBZNeSBPcmdhbml6YXRpb25hbCBVbml0MREwDwYDVQQDDAhDaGFuZ2VN
ZTEdMBsGCSqGSIb3DQEJARYObWVAZXhhbXBsZS5uZXQwHhcNMjMxMTExMDE0NTA2
WhcNMjQxMTEwMDE0NTA2WjCBuzELMAkGA1UEBhMCVVMxCzAJBgNVBAgMAk9IMRMw
EQYDVQQHDApDaW5jaW5uYXRpMSEwHwYDVQQKDBhVbml2ZXJzaXR5IG9mIENpbmNp
bm5hdGkxKjAoBgNVBAsMIURlcHQuIEVsZWMuIENvbXAuIEVuZy4gQ29tcC4gU2Np
LjERMA8GA1UEAwwIY2xpZW50ODExKDAmBgkqhkiG9w0BCQEWGWZyYW5jb0BnYXVz
cy5lY2Vjcy51Yy5lZHUwggEiMA0GCSqGSIb3DQEBAQUAA4IBDwAwggEKAoIBAQDJ
XzVSQ1JaCcISyUdAdd8Z4FLpYxZWZHFgy6wNVrcGwFgC6Te6mME6IwogLJjPUpr9
SeYg0I3XNYl9qUrZG6dp9aLrG7O1lMTQtuVb8GsNkz4IjewNzj2cI8Q89I/BRNaF
hkjSf6TrGprel3KZ81QA5OlG5nY2xcJU2l5ScqAxnSC4RxM1Dhqmyy/XQeTrl4aV
EtF7VmeosdCL/22qoK15iDZmTZa0wl+PffcGgm+1KrTzouod3geBJJe80c3xeQGV
phfUSi2CD31Nd6TQTAv0fCzEAYyCnpyk24SkFp2dhGF65vI5528GVpZ8hq/JGFRk
pwXL1qblB0f5T271Ui7PAgMBAAGjggE3MIIBMzAJBgNVHRMEAjAAMB0GA1UdDgQW
BBQSHg0N4MXAnrDWx+33V4l1qpgY0DCB5AYDVR0jBIHcMIHZgBRz3qBDD66xnuhZ
aRhQoRof1KHj8KGBtaSBsjCBrzELMAkGA1UEBhMCVVMxEzARBgNVBAgMCkNhbGlm
b3JuaWExFjAUBgNVBAcMDVNhbiBGcmFuY2lzY28xIDAeBgNVBAoMF0NvcHlsZWZ0
IENlcnRpZmljYXRlIENvMR8wHQYDVQQLDBZNeSBPcmdhbml6YXRpb25hbCBVbml0
MREwDwYDVQQDDAhDaGFuZ2VNZTEdMBsGCSqGSIb3DQEJARYObWVAZXhhbXBsZS5u
ZXSCCQDpu8sWxTK+OzATBgNVHSUEDDAKBggrBgEFBQcDAjALBgNVHQ8EBAMCB4Aw
DQYJKoZIhvcNAQELBQADggEBAEERfOZXSOVSk4h/6zun8Yz4Z/AHxoNEDsBwHcJ/
N2M5PEm3xfIE8nwr51pXhXqzFJLXTNAvGXB8WSfylKggIo8cnnJ4v7e5IfbWHEyo
P/q/2JKfeJHRIqo/Ck05UFj9+YVtqUTuxyJGl+El+i8CCVi2CrFPw4XiwU038L46
/Wohtl9hBgseNHRlJJR2wg5WRASMkDTbVl7eaKMNMhNFFeAi99LpZQzdhPrEirzB
HS0VWNBxCo2Z4EoeH0CUmXn5UibzIrrudGjw+RSDORo9i2Aj++0QuL65OEtOzp+h
jGtVvYdEmm4qt16FNYikN2oKG1AjhsnOvXeiBcuiRolCo/E=
-----END CERTIFICATE-----
