Certificate:
    Data:
        Version: 3 (0x2)
        Serial Number:
            71:d5:fa:45:92:46:f1:69:b0:52:1b:e7:62:26:ca:ca
    Signature Algorithm: sha256WithRSAEncryption
        Issuer: C=US, ST=California, L=San Francisco, O=Copyleft Certificate Co, OU=My Organizational Unit, CN=ChangeMe/emailAddress=me@example.net
        Validity
            Not Before: Nov 10 17:47:42 2023 GMT
            Not After : Nov  9 17:47:42 2024 GMT
        Subject: C=US, ST=OH, L=Cincinnati, O=University of Cincinnati, OU=Dept_Elec_Com_ Eng_Com_Sci., CN=client139/emailAddress=franco@gauss.ececs.uc.edu
        Subject Public Key Info:
            Public Key Algorithm: rsaEncryption
                Public-Key: (2048 bit)
                Modulus:
                    00:f2:4c:18:2b:d6:0f:e1:7a:d4:d7:77:cf:64:ba:
                    df:47:a5:37:9b:00:35:f7:69:e6:ad:52:57:d8:32:
                    6b:0f:ae:a6:65:72:16:11:8c:d9:1f:90:4d:d9:09:
                    1a:83:11:77:d0:08:7f:8d:57:f6:f8:12:fa:42:65:
                    87:02:76:67:02:64:d5:5a:a1:2e:8a:37:c1:84:13:
                    e8:28:1c:a1:e4:98:c1:33:42:4f:2d:ef:6c:d0:ba:
                    1c:03:e4:1f:bb:8f:45:27:f4:01:43:3a:20:fa:82:
                    56:28:bd:87:07:0f:02:6f:dd:bf:c9:30:be:b9:66:
                    1b:c2:9e:82:6c:97:a5:71:a1:2e:a7:c9:ef:2e:2a:
                    0b:8a:5a:39:24:34:e5:1e:a3:4a:30:0d:42:34:50:
                    b7:e3:43:99:0a:56:b1:7d:d2:60:6e:7c:6c:d8:02:
                    44:37:11:e4:19:2a:3a:65:97:57:c6:6f:37:0d:9e:
                    df:8c:26:5d:bb:59:58:f5:69:38:22:7f:19:d6:cf:
                    c6:10:d8:2c:16:dd:16:31:48:1b:b7:26:38:8c:8a:
                    e0:24:5d:a3:a1:7f:3f:fe:4e:c9:c4:65:e7:26:c2:
                    9b:74:c0:5b:01:43:c3:f9:2e:0a:f6:58:cc:57:56:
                    4b:b1:84:47:13:5b:1b:eb:8c:53:e5:47:6d:0a:63:
                    30:a7
                Exponent: 65537 (0x10001)
        X509v3 extensions:
            X509v3 Basic Constraints: 
                CA:FALSE
            X509v3 Subject Key Identifier: 
                C9:0D:99:2D:42:F4:1C:64:B9:2B:F5:E6:B5:35:9F:E6:A4:AE:75:A5
            X509v3 Authority Key Identifier: 
                keyid:C8:27:DA:64:30:08:40:08:4A:25:CC:DC:43:99:DE:77:A1:FE:77:BD
                DirName:/C=US/ST=California/L=San Francisco/O=Copyleft Certificate Co/OU=My Organizational Unit/CN=ChangeMe/emailAddress=me@example.net
                serial:A9:48:C3:7E:FC:1B:B0:A1

            X509v3 Extended Key Usage: 
                TLS Web Client Authentication
            X509v3 Key Usage: 
                Digital Signature
    Signature Algorithm: sha256WithRSAEncryption
         af:15:80:07:a2:47:62:8e:64:03:1e:79:da:2b:69:63:5f:69:
         7e:a8:2c:30:8f:db:d0:1b:26:50:7c:89:12:27:7d:cb:c7:79:
         b4:74:3d:8c:0e:ce:1c:58:fd:19:59:f6:4d:19:9e:eb:cf:db:
         ea:2b:a7:5c:b0:3d:22:aa:61:c9:e0:b6:4a:07:ab:eb:d5:f3:
         d0:26:38:1b:58:d7:89:9e:81:8d:7f:a6:06:77:a1:ee:30:e0:
         e4:c0:bd:38:a7:37:49:ff:a4:c1:5e:42:b7:10:97:99:3b:85:
         e9:b4:34:2b:c0:06:c8:15:31:84:66:25:30:f8:3b:73:03:3f:
         c3:f7:6b:b9:00:ed:f3:5c:21:22:3d:c5:b8:0e:c0:b6:86:d5:
         cf:5e:72:08:25:7f:f2:10:0d:07:00:80:01:a1:c7:dd:82:1c:
         df:cc:34:ca:de:c8:74:60:ef:83:85:30:55:2b:87:01:3e:36:
         89:1e:f5:31:09:9f:56:f0:4d:b9:b9:47:5a:36:47:69:c4:46:
         f1:00:c7:2d:00:7c:7d:58:f3:69:99:67:65:3b:fa:38:85:45:
         1c:00:73:56:59:39:09:9c:e5:f3:79:6e:bb:51:fc:15:67:48:
         bb:c5:00:15:ae:8d:c2:2b:06:32:18:01:29:65:91:f1:4d:4f:
         4f:43:d7:df
-----BEGIN CERTIFICATE-----
MIIFKjCCBBKgAwIBAgIQcdX6RZJG8WmwUhvnYibKyjANBgkqhkiG9w0BAQsFADCB
rzELMAkGA1UEBhMCVVMxEzARBgNVBAgMCkNhbGlmb3JuaWExFjAUBgNVBAcMDVNh
biBGcmFuY2lzY28xIDAeBgNVBAoMF0NvcHlsZWZ0IENlcnRpZmljYXRlIENvMR8w
HQYDVQQLDBZNeSBPcmdhbml6YXRpb25hbCBVbml0MREwDwYDVQQDDAhDaGFuZ2VN
ZTEdMBsGCSqGSIb3DQEJARYObWVAZXhhbXBsZS5uZXQwHhcNMjMxMTEwMTc0NzQy
WhcNMjQxMTA5MTc0NzQyWjCBtjELMAkGA1UEBhMCVVMxCzAJBgNVBAgMAk9IMRMw
EQYDVQQHDApDaW5jaW5uYXRpMSEwHwYDVQQKDBhVbml2ZXJzaXR5IG9mIENpbmNp
bm5hdGkxJDAiBgNVBAsMG0RlcHRfRWxlY19Db21fIEVuZ19Db21fU2NpLjESMBAG
A1UEAwwJY2xpZW50MTM5MSgwJgYJKoZIhvcNAQkBFhlmcmFuY29AZ2F1c3MuZWNl
Y3MudWMuZWR1MIIBIjANBgkqhkiG9w0BAQEFAAOCAQ8AMIIBCgKCAQEA8kwYK9YP
4XrU13fPZLrfR6U3mwA192nmrVJX2DJrD66mZXIWEYzZH5BN2QkagxF30Ah/jVf2
+BL6QmWHAnZnAmTVWqEuijfBhBPoKByh5JjBM0JPLe9s0LocA+Qfu49FJ/QBQzog
+oJWKL2HBw8Cb92/yTC+uWYbwp6CbJelcaEup8nvLioLilo5JDTlHqNKMA1CNFC3
40OZClaxfdJgbnxs2AJENxHkGSo6ZZdXxm83DZ7fjCZdu1lY9Wk4In8Z1s/GENgs
Ft0WMUgbtyY4jIrgJF2joX8//k7JxGXnJsKbdMBbAUPD+S4K9ljMV1ZLsYRHE1sb
64xT5UdtCmMwpwIDAQABo4IBNzCCATMwCQYDVR0TBAIwADAdBgNVHQ4EFgQUyQ2Z
LUL0HGS5K/XmtTWf5qSudaUwgeQGA1UdIwSB3DCB2YAUyCfaZDAIQAhKJczcQ5ne
d6H+d72hgbWkgbIwga8xCzAJBgNVBAYTAlVTMRMwEQYDVQQIDApDYWxpZm9ybmlh
MRYwFAYDVQQHDA1TYW4gRnJhbmNpc2NvMSAwHgYDVQQKDBdDb3B5bGVmdCBDZXJ0
aWZpY2F0ZSBDbzEfMB0GA1UECwwWTXkgT3JnYW5pemF0aW9uYWwgVW5pdDERMA8G
A1UEAwwIQ2hhbmdlTWUxHTAbBgkqhkiG9w0BCQEWDm1lQGV4YW1wbGUubmV0ggkA
qUjDfvwbsKEwEwYDVR0lBAwwCgYIKwYBBQUHAwIwCwYDVR0PBAQDAgeAMA0GCSqG
SIb3DQEBCwUAA4IBAQCvFYAHokdijmQDHnnaK2ljX2l+qCwwj9vQGyZQfIkSJ33L
x3m0dD2MDs4cWP0ZWfZNGZ7rz9vqK6dcsD0iqmHJ4LZKB6vr1fPQJjgbWNeJnoGN
f6YGd6HuMODkwL04pzdJ/6TBXkK3EJeZO4XptDQrwAbIFTGEZiUw+DtzAz/D92u5
AO3zXCEiPcW4DsC2htXPXnIIJX/yEA0HAIABocfdghzfzDTK3sh0YO+DhTBVK4cB
PjaJHvUxCZ9W8E25uUdaNkdpxEbxAMctAHx9WPNpmWdlO/o4hUUcAHNWWTkJnOXz
eW67UfwVZ0i7xQAVro3CKwYyGAEpZZHxTU9PQ9ff
-----END CERTIFICATE-----
