Certificate:
    Data:
        Version: 3 (0x2)
        Serial Number:
            08:7d:76:e2:36:8e:85:68:f4:ce:cd:c7:9a:d9:98:80
    Signature Algorithm: sha256WithRSAEncryption
        Issuer: C=US, ST=California, L=San Francisco, O=Copyleft Certificate Co, OU=My Organizational Unit, CN=ChangeMe/emailAddress=me@example.net
        Validity
            Not Before: Nov 11 01:43:58 2023 GMT
            Not After : Nov 10 01:43:58 2024 GMT
        Subject: C=US, ST=OH, L=Cincinnati, O=University of Cincinnati, OU=Dept. Elec. Comp. Eng. Comp. Sci., CN=client64/emailAddress=franco@gauss.ececs.uc.edu
        Subject Public Key Info:
            Public Key Algorithm: rsaEncryption
                Public-Key: (2048 bit)
                Modulus:
                    00:c9:13:5d:1c:8c:99:f6:13:ea:e1:22:ee:6e:3e:
                    6a:3f:be:20:69:f2:44:c3:d6:9f:6e:34:2c:37:83:
                    b2:bb:43:65:34:49:c4:8c:15:66:01:3d:5b:e6:4a:
                    e6:64:32:82:31:bc:4e:28:1a:09:94:67:3f:1b:55:
                    77:21:ef:2f:9f:cf:94:64:35:0a:1e:e0:b2:9b:37:
                    25:e5:7c:23:09:b0:7f:0a:a4:f2:44:29:67:f5:04:
                    2c:ac:da:7c:2d:0d:d3:ff:f3:2e:79:5e:1f:77:74:
                    11:f2:ad:7e:4f:0b:42:cf:37:a8:09:91:4b:54:98:
                    76:44:33:3e:40:de:a2:4b:a7:9c:59:a2:3e:5d:97:
                    7f:59:61:ff:6c:fc:5f:c2:d7:d8:b0:cf:b9:fd:1e:
                    25:cf:9c:d5:fb:f1:69:e7:bb:fa:04:d1:83:85:0a:
                    cb:40:c0:28:fa:6f:21:76:93:ac:3c:85:e7:1c:db:
                    ae:ab:50:38:1b:92:0b:a3:d1:3d:fd:68:92:f6:be:
                    83:67:18:83:1f:a6:59:14:36:3a:b2:bb:cb:0d:c1:
                    bf:87:cc:be:e2:97:e2:bd:75:2b:3e:d7:29:ba:31:
                    51:47:c7:59:61:39:65:f7:6c:86:01:fa:a0:17:a0:
                    ad:75:e7:95:7a:ba:a9:09:eb:b9:cd:36:80:bc:e3:
                    da:f5
                Exponent: 65537 (0x10001)
        X509v3 extensions:
            X509v3 Basic Constraints: 
                CA:FALSE
            X509v3 Subject Key Identifier: 
                1D:FD:59:28:39:F9:D0:75:6C:DE:D0:B1:2E:2E:CC:F3:9B:A7:C7:01
            X509v3 Authority Key Identifier: 
                keyid:73:DE:A0:43:0F:AE:B1:9E:E8:59:69:18:50:A1:1A:1F:D4:A1:E3:F0
                DirName:/C=US/ST=California/L=San Francisco/O=Copyleft Certificate Co/OU=My Organizational Unit/CN=ChangeMe/emailAddress=me@example.net
                serial:E9:BB:CB:16:C5:32:BE:3B

            X509v3 Extended Key Usage: 
                TLS Web Client Authentication
            X509v3 Key Usage: 
                Digital Signature
    Signature Algorithm: sha256WithRSAEncryption
         15:0a:29:a9:28:94:ed:28:f3:1c:83:1a:25:d6:a4:0f:d0:53:
         95:5c:06:3e:57:76:b6:a5:17:f1:03:92:d1:57:8a:08:8e:cf:
         a4:09:e8:3f:9f:42:1f:14:d1:ea:da:7c:c9:c6:72:63:42:81:
         a2:29:77:c5:2b:66:bd:c9:b8:cf:0b:92:e9:2c:c2:7f:25:01:
         a8:2b:bc:79:aa:ac:2e:98:a4:25:46:de:3b:6b:73:28:fd:19:
         86:79:f0:01:fc:61:b9:20:22:84:17:35:f9:58:f0:6a:50:a5:
         50:c6:b4:a1:ac:b3:9f:ba:06:bd:eb:09:f3:b7:18:06:54:f4:
         0f:10:ba:c3:e3:27:49:45:39:14:8f:6e:f1:3f:5a:33:14:ca:
         1c:b3:bb:70:55:89:cf:99:aa:38:f1:df:bc:b4:1a:86:e2:76:
         dd:cd:00:3e:40:e2:14:de:42:c0:15:93:66:c3:12:1f:b9:2a:
         88:24:fc:c0:e7:50:3f:4c:fe:00:61:ec:31:20:02:15:b3:bb:
         c7:d3:89:c1:3c:51:27:9c:26:0d:7c:af:1b:9d:23:c0:03:79:
         3e:e6:86:52:5a:d1:e6:91:f2:4d:c9:81:1c:4d:ab:16:8c:0b:
         ba:bf:19:8e:71:c9:e2:30:0c:35:46:f5:f2:20:a3:13:c3:bc:
         33:8b:42:24
-----BEGIN CERTIFICATE-----
MIIFLzCCBBegAwIBAgIQCH124jaOhWj0zs3HmtmYgDANBgkqhkiG9w0BAQsFADCB
rzELMAkGA1UEBhMCVVMxEzARBgNVBAgMCkNhbGlmb3JuaWExFjAUBgNVBAcMDVNh
biBGcmFuY2lzY28xIDAeBgNVBAoMF0NvcHlsZWZ0IENlcnRpZmljYXRlIENvMR8w
HQYDVQQLDBZNeSBPcmdhbml6YXRpb25hbCBVbml0MREwDwYDVQQDDAhDaGFuZ2VN
ZTEdMBsGCSqGSIb3DQEJARYObWVAZXhhbXBsZS5uZXQwHhcNMjMxMTExMDE0MzU4
WhcNMjQxMTEwMDE0MzU4WjCBuzELMAkGA1UEBhMCVVMxCzAJBgNVBAgMAk9IMRMw
EQYDVQQHDApDaW5jaW5uYXRpMSEwHwYDVQQKDBhVbml2ZXJzaXR5IG9mIENpbmNp
bm5hdGkxKjAoBgNVBAsMIURlcHQuIEVsZWMuIENvbXAuIEVuZy4gQ29tcC4gU2Np
LjERMA8GA1UEAwwIY2xpZW50NjQxKDAmBgkqhkiG9w0BCQEWGWZyYW5jb0BnYXVz
cy5lY2Vjcy51Yy5lZHUwggEiMA0GCSqGSIb3DQEBAQUAA4IBDwAwggEKAoIBAQDJ
E10cjJn2E+rhIu5uPmo/viBp8kTD1p9uNCw3g7K7Q2U0ScSMFWYBPVvmSuZkMoIx
vE4oGgmUZz8bVXch7y+fz5RkNQoe4LKbNyXlfCMJsH8KpPJEKWf1BCys2nwtDdP/
8y55Xh93dBHyrX5PC0LPN6gJkUtUmHZEMz5A3qJLp5xZoj5dl39ZYf9s/F/C19iw
z7n9HiXPnNX78Wnnu/oE0YOFCstAwCj6byF2k6w8hecc266rUDgbkguj0T39aJL2
voNnGIMfplkUNjqyu8sNwb+HzL7il+K9dSs+1ym6MVFHx1lhOWX3bIYB+qAXoK11
55V6uqkJ67nNNoC849r1AgMBAAGjggE3MIIBMzAJBgNVHRMEAjAAMB0GA1UdDgQW
BBQd/VkoOfnQdWze0LEuLszzm6fHATCB5AYDVR0jBIHcMIHZgBRz3qBDD66xnuhZ
aRhQoRof1KHj8KGBtaSBsjCBrzELMAkGA1UEBhMCVVMxEzARBgNVBAgMCkNhbGlm
b3JuaWExFjAUBgNVBAcMDVNhbiBGcmFuY2lzY28xIDAeBgNVBAoMF0NvcHlsZWZ0
IENlcnRpZmljYXRlIENvMR8wHQYDVQQLDBZNeSBPcmdhbml6YXRpb25hbCBVbml0
MREwDwYDVQQDDAhDaGFuZ2VNZTEdMBsGCSqGSIb3DQEJARYObWVAZXhhbXBsZS5u
ZXSCCQDpu8sWxTK+OzATBgNVHSUEDDAKBggrBgEFBQcDAjALBgNVHQ8EBAMCB4Aw
DQYJKoZIhvcNAQELBQADggEBABUKKakolO0o8xyDGiXWpA/QU5VcBj5XdralF/ED
ktFXigiOz6QJ6D+fQh8U0erafMnGcmNCgaIpd8UrZr3JuM8Lkukswn8lAagrvHmq
rC6YpCVG3jtrcyj9GYZ58AH8YbkgIoQXNflY8GpQpVDGtKGss5+6Br3rCfO3GAZU
9A8QusPjJ0lFORSPbvE/WjMUyhyzu3BVic+Zqjjx37y0Gobidt3NAD5A4hTeQsAV
k2bDEh+5Kogk/MDnUD9M/gBh7DEgAhWzu8fTicE8USecJg18rxudI8ADeT7mhlJa
0eaR8k3JgRxNqxaMC7q/GY5xyeIwDDVG9fIgoxPDvDOLQiQ=
-----END CERTIFICATE-----
