Certificate:
    Data:
        Version: 3 (0x2)
        Serial Number:
            0b:c2:58:3e:ae:2f:27:37:09:38:83:30:42:64:6a:70
    Signature Algorithm: sha256WithRSAEncryption
        Issuer: C=US, ST=California, L=San Francisco, O=Copyleft Certificate Co, OU=My Organizational Unit, CN=ChangeMe/emailAddress=me@example.net
        Validity
            Not Before: Jan 23 18:29:58 2021 GMT
            Not After : Jan 23 18:29:58 2022 GMT
        Subject: C=US, ST=OH, L=Cincinnati, O=University of Cincinnati, OU=Dept. Electrical Eng. and Computer Sci., CN=client114/emailAddress=franco@gauss.ececs.uc.edu
        Subject Public Key Info:
            Public Key Algorithm: rsaEncryption
                Public-Key: (2048 bit)
                Modulus:
                    00:c2:1f:70:9f:65:e0:13:f8:60:91:c2:e1:30:0c:
                    1c:ad:11:29:9c:f4:6c:c0:3a:01:a4:71:f0:c3:1e:
                    08:49:90:cf:d6:85:c1:76:11:dc:bc:43:9a:09:9f:
                    9e:95:12:d9:12:e6:44:9b:69:ba:54:6e:67:97:44:
                    59:d7:2a:74:c4:b2:2d:4e:98:6e:b9:01:81:07:3d:
                    63:39:7f:01:7c:10:ca:4e:d2:a8:56:99:b9:7e:5c:
                    bb:d7:3b:c1:c0:2b:22:6e:8f:80:02:33:04:41:93:
                    7d:a1:06:1e:e7:7d:70:48:60:cf:a7:76:e6:03:fe:
                    fc:85:be:eb:f6:8f:db:32:68:42:62:fe:fe:bf:b7:
                    94:ea:df:a1:60:aa:d9:24:30:ff:ec:29:3d:94:97:
                    97:21:79:20:01:64:df:54:ac:4e:20:c9:a7:97:bb:
                    ba:9e:65:06:a3:fd:29:64:54:98:fb:a4:17:b4:c0:
                    4f:4c:23:64:bb:96:99:c5:31:a5:0a:1c:93:bc:bd:
                    c9:fa:a5:5a:a4:b5:0b:43:b6:08:9a:a7:ea:c3:a6:
                    6f:2f:da:8b:28:58:b9:18:35:f2:89:25:6c:f6:da:
                    05:0b:87:a0:af:cc:fa:14:8a:51:14:d8:d6:6c:d1:
                    04:bb:73:5b:a3:80:48:c7:d6:f2:09:dc:58:c4:65:
                    b9:ad
                Exponent: 65537 (0x10001)
        X509v3 extensions:
            X509v3 Basic Constraints: 
                CA:FALSE
            X509v3 Subject Key Identifier: 
                82:67:3C:7F:B7:BD:BE:3B:30:37:E2:36:42:D6:84:AE:62:8C:15:6F
            X509v3 Authority Key Identifier: 
                keyid:EF:DC:B6:3D:4B:FD:A7:87:05:C5:22:3D:8B:DC:BF:99:2A:EE:E4:DB
                DirName:/C=US/ST=California/L=San Francisco/O=Copyleft Certificate Co/OU=My Organizational Unit/CN=ChangeMe/emailAddress=me@example.net
                serial:87:1E:1D:DC:6B:8C:66:88

            X509v3 Extended Key Usage: 
                TLS Web Client Authentication
            X509v3 Key Usage: 
                Digital Signature
    Signature Algorithm: sha256WithRSAEncryption
         62:3a:b1:81:37:d5:6b:85:f5:e1:a2:0c:57:4c:fd:a2:cd:0b:
         16:53:48:09:1b:1b:d7:3d:2e:9c:c9:16:14:d4:2f:59:29:2e:
         21:20:15:83:94:8e:52:55:09:c1:04:f2:15:ef:5e:ef:63:7e:
         63:38:c1:86:80:51:1c:88:18:20:78:8e:36:4c:49:f7:37:e5:
         7d:6b:85:ff:c8:0d:21:58:6e:00:83:fc:b4:69:3d:c2:4c:d8:
         2e:08:13:80:fe:b3:bc:69:92:37:9e:ac:4d:d7:db:a7:a6:22:
         5c:04:4a:81:85:ac:b9:84:5d:99:cb:a9:a9:8f:e0:f1:44:19:
         43:82:aa:d2:f3:28:ff:3a:61:ec:a4:92:21:ad:25:d4:40:3f:
         d7:a4:f0:b9:5a:c5:b5:a3:21:06:a9:51:ce:80:6a:13:bc:5a:
         eb:0f:55:e8:36:5e:e5:d1:cb:7d:76:dc:54:e2:62:94:6b:98:
         47:de:d9:cb:03:33:78:16:65:1a:e9:b1:65:56:34:e5:fd:4c:
         d3:7e:9d:00:67:ae:99:b4:f2:79:9e:1e:35:c2:df:b4:98:2a:
         86:4c:2d:c4:cd:95:2d:cf:72:19:c7:b8:b5:62:27:3b:41:b6:
         e9:8d:7a:89:b9:a8:24:42:3c:8c:14:05:2c:65:7b:b6:cd:c5:
         71:bf:4d:66
-----BEGIN CERTIFICATE-----
MIIFNjCCBB6gAwIBAgIQC8JYPq4vJzcJOIMwQmRqcDANBgkqhkiG9w0BAQsFADCB
rzELMAkGA1UEBhMCVVMxEzARBgNVBAgMCkNhbGlmb3JuaWExFjAUBgNVBAcMDVNh
biBGcmFuY2lzY28xIDAeBgNVBAoMF0NvcHlsZWZ0IENlcnRpZmljYXRlIENvMR8w
HQYDVQQLDBZNeSBPcmdhbml6YXRpb25hbCBVbml0MREwDwYDVQQDDAhDaGFuZ2VN
ZTEdMBsGCSqGSIb3DQEJARYObWVAZXhhbXBsZS5uZXQwHhcNMjEwMTIzMTgyOTU4
WhcNMjIwMTIzMTgyOTU4WjCBwjELMAkGA1UEBhMCVVMxCzAJBgNVBAgMAk9IMRMw
EQYDVQQHDApDaW5jaW5uYXRpMSEwHwYDVQQKDBhVbml2ZXJzaXR5IG9mIENpbmNp
bm5hdGkxMDAuBgNVBAsMJ0RlcHQuIEVsZWN0cmljYWwgRW5nLiBhbmQgQ29tcHV0
ZXIgU2NpLjESMBAGA1UEAwwJY2xpZW50MTE0MSgwJgYJKoZIhvcNAQkBFhlmcmFu
Y29AZ2F1c3MuZWNlY3MudWMuZWR1MIIBIjANBgkqhkiG9w0BAQEFAAOCAQ8AMIIB
CgKCAQEAwh9wn2XgE/hgkcLhMAwcrREpnPRswDoBpHHwwx4ISZDP1oXBdhHcvEOa
CZ+elRLZEuZEm2m6VG5nl0RZ1yp0xLItTphuuQGBBz1jOX8BfBDKTtKoVpm5fly7
1zvBwCsibo+AAjMEQZN9oQYe531wSGDPp3bmA/78hb7r9o/bMmhCYv7+v7eU6t+h
YKrZJDD/7Ck9lJeXIXkgAWTfVKxOIMmnl7u6nmUGo/0pZFSY+6QXtMBPTCNku5aZ
xTGlChyTvL3J+qVapLULQ7YImqfqw6ZvL9qLKFi5GDXyiSVs9toFC4egr8z6FIpR
FNjWbNEEu3Nbo4BIx9byCdxYxGW5rQIDAQABo4IBNzCCATMwCQYDVR0TBAIwADAd
BgNVHQ4EFgQUgmc8f7e9vjswN+I2QtaErmKMFW8wgeQGA1UdIwSB3DCB2YAU79y2
PUv9p4cFxSI9i9y/mSru5NuhgbWkgbIwga8xCzAJBgNVBAYTAlVTMRMwEQYDVQQI
DApDYWxpZm9ybmlhMRYwFAYDVQQHDA1TYW4gRnJhbmNpc2NvMSAwHgYDVQQKDBdD
b3B5bGVmdCBDZXJ0aWZpY2F0ZSBDbzEfMB0GA1UECwwWTXkgT3JnYW5pemF0aW9u
YWwgVW5pdDERMA8GA1UEAwwIQ2hhbmdlTWUxHTAbBgkqhkiG9w0BCQEWDm1lQGV4
YW1wbGUubmV0ggkAhx4d3GuMZogwEwYDVR0lBAwwCgYIKwYBBQUHAwIwCwYDVR0P
BAQDAgeAMA0GCSqGSIb3DQEBCwUAA4IBAQBiOrGBN9VrhfXhogxXTP2izQsWU0gJ
GxvXPS6cyRYU1C9ZKS4hIBWDlI5SVQnBBPIV717vY35jOMGGgFEciBggeI42TEn3
N+V9a4X/yA0hWG4Ag/y0aT3CTNguCBOA/rO8aZI3nqxN19unpiJcBEqBhay5hF2Z
y6mpj+DxRBlDgqrS8yj/OmHspJIhrSXUQD/XpPC5WsW1oyEGqVHOgGoTvFrrD1Xo
Nl7l0ct9dtxU4mKUa5hH3tnLAzN4FmUa6bFlVjTl/UzTfp0AZ66ZtPJ5nh41wt+0
mCqGTC3EzZUtz3IZx7i1Yic7QbbpjXqJuagkQjyMFAUsZXu2zcVxv01m
-----END CERTIFICATE-----
