Certificate:
    Data:
        Version: 3 (0x2)
        Serial Number:
            87:ab:db:d2:b4:5c:03:25:69:b7:36:9d:0c:51:3a:08
    Signature Algorithm: sha256WithRSAEncryption
        Issuer: C=US, ST=California, L=San Francisco, O=Copyleft Certificate Co, OU=My Organizational Unit, CN=ChangeMe/emailAddress=me@example.net
        Validity
            Not Before: Nov 11 02:01:11 2023 GMT
            Not After : Nov 10 02:01:11 2024 GMT
        Subject: C=US, ST=OH, L=Cincinnati, O=University of Cincinnati, OU=Dept. Elec. Comp. Eng. Comp. Sci., CN=client47/emailAddress=franco@gauss.ececs.uc.edu
        Subject Public Key Info:
            Public Key Algorithm: rsaEncryption
                Public-Key: (2048 bit)
                Modulus:
                    00:cb:f2:69:cc:6f:29:52:07:45:2e:1a:9c:b3:2d:
                    20:3c:ff:61:62:1a:50:cd:71:46:15:14:9e:dc:ac:
                    5c:94:3e:03:25:cb:28:6c:6f:52:d4:54:52:58:99:
                    0f:f4:d6:dc:f7:23:ac:2f:ca:5e:2d:4b:c8:37:f8:
                    00:44:0f:3c:b5:71:21:84:fb:8c:da:50:0a:09:30:
                    86:93:fb:bf:d4:55:b0:26:0b:ce:a5:e6:09:d5:c9:
                    78:29:74:60:9b:bf:ff:56:ed:f2:f7:f4:95:89:de:
                    0b:59:3b:9d:47:c9:02:66:81:06:6b:2e:81:d5:27:
                    31:b7:37:e1:0c:b2:1c:0b:99:93:f2:1c:7c:21:3b:
                    e0:4f:16:36:60:f1:cc:e3:fc:eb:df:f3:78:92:b9:
                    0e:aa:d0:29:08:db:aa:f1:e3:cd:49:b0:66:78:d6:
                    8e:90:75:36:33:a1:1b:3d:86:b8:1e:2d:cd:5c:ca:
                    b5:84:46:8f:34:f5:df:a1:48:36:a3:64:6c:34:09:
                    fe:52:d0:b6:17:c4:2c:45:72:5c:45:7d:89:d2:68:
                    4d:be:20:6c:28:d7:14:c6:3e:0b:c2:88:6b:51:f6:
                    3f:c3:de:02:34:75:b1:f9:39:2a:76:64:08:46:c7:
                    e1:bf:35:6f:d5:b1:3a:86:0f:11:37:db:29:79:66:
                    c9:3d
                Exponent: 65537 (0x10001)
        X509v3 extensions:
            X509v3 Basic Constraints: 
                CA:FALSE
            X509v3 Subject Key Identifier: 
                C1:8D:98:24:BD:23:13:B6:37:E4:24:B1:7E:AC:BB:35:F9:49:B6:4D
            X509v3 Authority Key Identifier: 
                keyid:7B:0F:93:16:64:9F:71:41:D3:1B:FB:ED:6A:70:9B:CA:2E:70:F0:4B
                DirName:/C=US/ST=California/L=San Francisco/O=Copyleft Certificate Co/OU=My Organizational Unit/CN=ChangeMe/emailAddress=me@example.net
                serial:B9:F2:4E:2C:79:B3:D4:6C

            X509v3 Extended Key Usage: 
                TLS Web Client Authentication
            X509v3 Key Usage: 
                Digital Signature
    Signature Algorithm: sha256WithRSAEncryption
         2f:d6:25:3c:ae:88:cb:70:c1:8f:fb:7b:d3:36:f4:e1:c8:40:
         e5:b7:cb:d0:0d:bd:4b:c4:45:65:f7:a6:f0:c1:f1:fb:70:24:
         ca:3d:ac:34:bf:73:f7:f3:7a:48:82:bb:2f:be:71:a6:0e:6b:
         01:57:11:d1:4d:45:85:a3:eb:3e:1c:b2:d5:d2:0f:db:0e:65:
         fe:6a:30:d7:74:28:fd:02:84:83:e1:1a:69:f9:ee:90:36:97:
         b8:dd:c9:90:a9:61:bd:dd:e9:de:15:27:4e:6a:58:20:da:57:
         7c:7c:e6:0e:29:65:88:70:41:61:00:dc:9e:9a:72:0c:7a:c5:
         cc:1f:15:48:d3:ef:14:69:44:3b:24:c4:a7:c0:c2:6d:94:c0:
         43:00:7a:eb:b1:b1:08:b5:29:0c:90:16:ad:7f:0b:36:78:c1:
         ae:f9:91:44:da:41:ca:f3:9d:68:cb:5e:6c:dc:04:d5:8d:01:
         80:8b:b0:50:0e:7e:02:b2:ee:c7:7c:02:3e:05:39:0d:b0:3a:
         ee:af:3b:dc:29:46:6c:eb:10:1b:d9:69:40:f5:5f:a8:59:44:
         b1:a5:e0:67:a3:2e:4c:06:00:ec:8c:cf:9f:22:3d:cb:4c:6f:
         a0:aa:cc:94:f2:b2:0f:2d:aa:1f:11:27:32:b7:24:d2:0c:50:
         b1:6a:43:03
-----BEGIN CERTIFICATE-----
MIIFMDCCBBigAwIBAgIRAIer29K0XAMlabc2nQxROggwDQYJKoZIhvcNAQELBQAw
ga8xCzAJBgNVBAYTAlVTMRMwEQYDVQQIDApDYWxpZm9ybmlhMRYwFAYDVQQHDA1T
YW4gRnJhbmNpc2NvMSAwHgYDVQQKDBdDb3B5bGVmdCBDZXJ0aWZpY2F0ZSBDbzEf
MB0GA1UECwwWTXkgT3JnYW5pemF0aW9uYWwgVW5pdDERMA8GA1UEAwwIQ2hhbmdl
TWUxHTAbBgkqhkiG9w0BCQEWDm1lQGV4YW1wbGUubmV0MB4XDTIzMTExMTAyMDEx
MVoXDTI0MTExMDAyMDExMVowgbsxCzAJBgNVBAYTAlVTMQswCQYDVQQIDAJPSDET
MBEGA1UEBwwKQ2luY2lubmF0aTEhMB8GA1UECgwYVW5pdmVyc2l0eSBvZiBDaW5j
aW5uYXRpMSowKAYDVQQLDCFEZXB0LiBFbGVjLiBDb21wLiBFbmcuIENvbXAuIFNj
aS4xETAPBgNVBAMMCGNsaWVudDQ3MSgwJgYJKoZIhvcNAQkBFhlmcmFuY29AZ2F1
c3MuZWNlY3MudWMuZWR1MIIBIjANBgkqhkiG9w0BAQEFAAOCAQ8AMIIBCgKCAQEA
y/JpzG8pUgdFLhqcsy0gPP9hYhpQzXFGFRSe3KxclD4DJcsobG9S1FRSWJkP9Nbc
9yOsL8peLUvIN/gARA88tXEhhPuM2lAKCTCGk/u/1FWwJgvOpeYJ1cl4KXRgm7//
Vu3y9/SVid4LWTudR8kCZoEGay6B1ScxtzfhDLIcC5mT8hx8ITvgTxY2YPHM4/zr
3/N4krkOqtApCNuq8ePNSbBmeNaOkHU2M6EbPYa4Hi3NXMq1hEaPNPXfoUg2o2Rs
NAn+UtC2F8QsRXJcRX2J0mhNviBsKNcUxj4LwohrUfY/w94CNHWx+TkqdmQIRsfh
vzVv1bE6hg8RN9speWbJPQIDAQABo4IBNzCCATMwCQYDVR0TBAIwADAdBgNVHQ4E
FgQUwY2YJL0jE7Y35CSxfqy7NflJtk0wgeQGA1UdIwSB3DCB2YAUew+TFmSfcUHT
G/vtanCbyi5w8EuhgbWkgbIwga8xCzAJBgNVBAYTAlVTMRMwEQYDVQQIDApDYWxp
Zm9ybmlhMRYwFAYDVQQHDA1TYW4gRnJhbmNpc2NvMSAwHgYDVQQKDBdDb3B5bGVm
dCBDZXJ0aWZpY2F0ZSBDbzEfMB0GA1UECwwWTXkgT3JnYW5pemF0aW9uYWwgVW5p
dDERMA8GA1UEAwwIQ2hhbmdlTWUxHTAbBgkqhkiG9w0BCQEWDm1lQGV4YW1wbGUu
bmV0ggkAufJOLHmz1GwwEwYDVR0lBAwwCgYIKwYBBQUHAwIwCwYDVR0PBAQDAgeA
MA0GCSqGSIb3DQEBCwUAA4IBAQAv1iU8rojLcMGP+3vTNvThyEDlt8vQDb1LxEVl
96bwwfH7cCTKPaw0v3P383pIgrsvvnGmDmsBVxHRTUWFo+s+HLLV0g/bDmX+ajDX
dCj9AoSD4Rpp+e6QNpe43cmQqWG93eneFSdOalgg2ld8fOYOKWWIcEFhANyemnIM
esXMHxVI0+8UaUQ7JMSnwMJtlMBDAHrrsbEItSkMkBatfws2eMGu+ZFE2kHK851o
y15s3ATVjQGAi7BQDn4Csu7HfAI+BTkNsDrurzvcKUZs6xAb2WlA9V+oWUSxpeBn
oy5MBgDsjM+fIj3LTG+gqsyU8rIPLaofEScytyTSDFCxakMD
-----END CERTIFICATE-----
