Certificate:
    Data:
        Version: 3 (0x2)
        Serial Number:
            03:e2:63:9d:92:75:2c:de:c4:a5:6a:8b:25:de:0f:a9
    Signature Algorithm: sha256WithRSAEncryption
        Issuer: C=US, ST=California, L=San Francisco, O=Copyleft Certificate Co, OU=My Organizational Unit, CN=ChangeMe/emailAddress=me@example.net
        Validity
            Not Before: Nov 11 01:48:42 2023 GMT
            Not After : Nov 10 01:48:42 2024 GMT
        Subject: C=US, ST=OH, L=Cincinnati, O=University of Cincinnati, OU=Dept. Elec. Comp. Eng. Comp. Sci., CN=client135/emailAddress=franco@gauss.ececs.uc.edu
        Subject Public Key Info:
            Public Key Algorithm: rsaEncryption
                Public-Key: (2048 bit)
                Modulus:
                    00:cf:2b:a5:77:c8:7f:8c:ec:27:6d:14:a8:67:b9:
                    0f:56:bf:71:a0:9d:eb:e4:67:d3:58:45:a9:66:8a:
                    0a:f9:0a:c2:72:35:f6:50:17:1f:a1:25:0d:68:c8:
                    0f:38:50:7c:11:ae:24:b6:85:c0:8e:70:28:f1:9d:
                    c8:ed:a2:24:61:08:5e:9f:5a:b1:9a:01:2f:5c:6e:
                    7d:a6:2f:f5:16:0c:b0:d1:8f:72:76:74:6c:03:8d:
                    5c:2a:48:d3:df:38:b6:98:6c:a9:e2:a9:13:25:c5:
                    92:74:fe:e1:8b:50:24:c0:34:c2:96:3f:e4:db:2b:
                    68:8e:b8:83:36:60:96:9f:ef:5b:5b:f0:fd:30:79:
                    56:89:f1:77:7c:3c:b7:9e:30:80:bb:09:74:b0:e8:
                    c1:c0:f8:f2:92:56:df:8d:be:20:71:1d:df:4b:32:
                    ea:98:24:6f:fb:10:ef:fe:95:4c:ad:01:5f:62:18:
                    de:08:11:e9:91:07:90:82:77:6a:04:4b:2c:80:bf:
                    4b:37:e5:cd:d1:0e:55:4e:ff:1d:00:ce:1f:e5:29:
                    43:0c:80:d8:a2:cd:c1:53:c1:8a:fa:32:04:ed:5d:
                    f0:2a:40:ac:59:06:a7:21:4c:59:07:2e:bd:6a:3d:
                    76:82:41:3e:22:43:3c:a2:1f:92:ea:e4:fc:23:dc:
                    e0:05
                Exponent: 65537 (0x10001)
        X509v3 extensions:
            X509v3 Basic Constraints: 
                CA:FALSE
            X509v3 Subject Key Identifier: 
                FD:A5:7E:F0:2A:04:E2:F6:95:2B:03:BA:4C:BC:F0:49:C0:12:87:00
            X509v3 Authority Key Identifier: 
                keyid:73:DE:A0:43:0F:AE:B1:9E:E8:59:69:18:50:A1:1A:1F:D4:A1:E3:F0
                DirName:/C=US/ST=California/L=San Francisco/O=Copyleft Certificate Co/OU=My Organizational Unit/CN=ChangeMe/emailAddress=me@example.net
                serial:E9:BB:CB:16:C5:32:BE:3B

            X509v3 Extended Key Usage: 
                TLS Web Client Authentication
            X509v3 Key Usage: 
                Digital Signature
    Signature Algorithm: sha256WithRSAEncryption
         21:50:f0:c0:01:99:ca:b2:7b:7a:c3:4b:ff:ea:bb:18:67:fb:
         0c:ed:6c:c4:47:d4:ae:a7:de:ab:81:d5:3e:f5:ce:e7:ca:f5:
         66:4a:59:75:6d:c2:98:00:66:ce:6c:8b:ff:c1:cf:6c:9e:d0:
         c9:14:e1:48:2c:61:5a:ec:05:4d:c0:c0:fa:6f:05:7f:f6:6c:
         e5:7f:44:e7:4b:88:d2:8c:9a:15:48:8b:56:4c:ec:b3:55:da:
         46:7a:a3:4c:e9:68:9c:e4:74:b4:26:c1:7f:aa:3a:35:6a:b6:
         a1:15:0e:5c:3f:50:f0:e3:fd:20:1e:1e:ce:ae:c3:db:26:64:
         f8:a8:47:5d:2c:0e:4c:c1:2d:b6:d1:0a:16:21:ec:9c:6a:99:
         2a:4d:dc:b6:a1:59:07:81:a1:fc:bd:6a:c3:df:8d:6b:bf:68:
         bb:ab:68:ce:c0:f5:9a:ea:b9:37:94:52:74:c3:14:65:33:98:
         8b:73:07:11:4d:0c:73:af:ef:dc:76:7f:d6:45:1e:1c:8d:3f:
         9d:5a:04:81:a3:6a:96:aa:ca:fe:fe:c9:33:e7:c5:04:99:07:
         ec:33:44:86:74:72:a3:84:7a:80:28:30:37:f3:f0:8f:a6:c3:
         5a:d3:6e:d5:1d:b5:84:e8:43:e2:fd:f7:f1:56:b0:83:52:8e:
         2c:24:c4:aa
-----BEGIN CERTIFICATE-----
MIIFMDCCBBigAwIBAgIQA+JjnZJ1LN7EpWqLJd4PqTANBgkqhkiG9w0BAQsFADCB
rzELMAkGA1UEBhMCVVMxEzARBgNVBAgMCkNhbGlmb3JuaWExFjAUBgNVBAcMDVNh
biBGcmFuY2lzY28xIDAeBgNVBAoMF0NvcHlsZWZ0IENlcnRpZmljYXRlIENvMR8w
HQYDVQQLDBZNeSBPcmdhbml6YXRpb25hbCBVbml0MREwDwYDVQQDDAhDaGFuZ2VN
ZTEdMBsGCSqGSIb3DQEJARYObWVAZXhhbXBsZS5uZXQwHhcNMjMxMTExMDE0ODQy
WhcNMjQxMTEwMDE0ODQyWjCBvDELMAkGA1UEBhMCVVMxCzAJBgNVBAgMAk9IMRMw
EQYDVQQHDApDaW5jaW5uYXRpMSEwHwYDVQQKDBhVbml2ZXJzaXR5IG9mIENpbmNp
bm5hdGkxKjAoBgNVBAsMIURlcHQuIEVsZWMuIENvbXAuIEVuZy4gQ29tcC4gU2Np
LjESMBAGA1UEAwwJY2xpZW50MTM1MSgwJgYJKoZIhvcNAQkBFhlmcmFuY29AZ2F1
c3MuZWNlY3MudWMuZWR1MIIBIjANBgkqhkiG9w0BAQEFAAOCAQ8AMIIBCgKCAQEA
zyuld8h/jOwnbRSoZ7kPVr9xoJ3r5GfTWEWpZooK+QrCcjX2UBcfoSUNaMgPOFB8
Ea4ktoXAjnAo8Z3I7aIkYQhen1qxmgEvXG59pi/1Fgyw0Y9ydnRsA41cKkjT3zi2
mGyp4qkTJcWSdP7hi1AkwDTClj/k2ytojriDNmCWn+9bW/D9MHlWifF3fDy3njCA
uwl0sOjBwPjyklbfjb4gcR3fSzLqmCRv+xDv/pVMrQFfYhjeCBHpkQeQgndqBEss
gL9LN+XN0Q5VTv8dAM4f5SlDDIDYos3BU8GK+jIE7V3wKkCsWQanIUxZBy69aj12
gkE+IkM8oh+S6uT8I9zgBQIDAQABo4IBNzCCATMwCQYDVR0TBAIwADAdBgNVHQ4E
FgQU/aV+8CoE4vaVKwO6TLzwScAShwAwgeQGA1UdIwSB3DCB2YAUc96gQw+usZ7o
WWkYUKEaH9Sh4/ChgbWkgbIwga8xCzAJBgNVBAYTAlVTMRMwEQYDVQQIDApDYWxp
Zm9ybmlhMRYwFAYDVQQHDA1TYW4gRnJhbmNpc2NvMSAwHgYDVQQKDBdDb3B5bGVm
dCBDZXJ0aWZpY2F0ZSBDbzEfMB0GA1UECwwWTXkgT3JnYW5pemF0aW9uYWwgVW5p
dDERMA8GA1UEAwwIQ2hhbmdlTWUxHTAbBgkqhkiG9w0BCQEWDm1lQGV4YW1wbGUu
bmV0ggkA6bvLFsUyvjswEwYDVR0lBAwwCgYIKwYBBQUHAwIwCwYDVR0PBAQDAgeA
MA0GCSqGSIb3DQEBCwUAA4IBAQAhUPDAAZnKsnt6w0v/6rsYZ/sM7WzER9Sup96r
gdU+9c7nyvVmSll1bcKYAGbObIv/wc9sntDJFOFILGFa7AVNwMD6bwV/9mzlf0Tn
S4jSjJoVSItWTOyzVdpGeqNM6Wic5HS0JsF/qjo1arahFQ5cP1Dw4/0gHh7OrsPb
JmT4qEddLA5MwS220QoWIeycapkqTdy2oVkHgaH8vWrD341rv2i7q2jOwPWa6rk3
lFJ0wxRlM5iLcwcRTQxzr+/cdn/WRR4cjT+dWgSBo2qWqsr+/skz58UEmQfsM0SG
dHKjhHqAKDA38/CPpsNa027VHbWE6EPi/ffxVrCDUo4sJMSq
-----END CERTIFICATE-----
