Certificate:
    Data:
        Version: 3 (0x2)
        Serial Number:
            9a:19:cb:75:07:71:75:c3:4d:44:04:3a:43:db:d6:a3
    Signature Algorithm: sha256WithRSAEncryption
        Issuer: C=US, ST=California, L=San Francisco, O=Copyleft Certificate Co, OU=My Organizational Unit, CN=ChangeMe/emailAddress=me@example.net
        Validity
            Not Before: Nov 10 17:44:10 2023 GMT
            Not After : Nov  9 17:44:10 2024 GMT
        Subject: C=US, ST=OH, L=Cincinnati, O=University of Cincinnati, OU=Dept_Elec_Com_ Eng_Com_Sci., CN=client86/emailAddress=franco@gauss.ececs.uc.edu
        Subject Public Key Info:
            Public Key Algorithm: rsaEncryption
                Public-Key: (2048 bit)
                Modulus:
                    00:a0:f3:74:ca:df:07:6c:43:00:79:19:9c:81:a4:
                    cc:55:45:e8:4f:15:7f:d4:d5:e1:9a:8b:6b:69:bb:
                    29:59:8a:89:47:cd:82:3d:05:ed:ef:10:13:f1:7e:
                    c2:36:ad:27:39:df:32:3a:40:28:06:a6:0d:08:4b:
                    47:43:4b:c0:aa:f0:04:97:ff:23:69:56:f5:24:b0:
                    e8:91:74:57:65:bd:a6:33:86:63:58:61:9a:65:57:
                    df:d4:04:4c:b9:07:9d:36:16:23:ba:b1:aa:72:b0:
                    44:9f:fe:55:10:86:bf:81:b5:8f:cc:fd:73:8a:d0:
                    b5:14:c2:25:a8:e7:6e:34:1f:55:9c:5d:15:be:c0:
                    bf:45:78:a0:10:c1:ec:bd:82:21:28:cd:77:2a:ca:
                    a5:ef:6b:57:b9:63:87:e0:0c:6d:67:61:f2:8c:cb:
                    4a:9b:cd:16:be:3c:65:94:34:a6:11:b1:74:5f:ca:
                    be:26:e3:34:7c:49:1a:f7:46:43:1b:ad:1a:91:ff:
                    b8:ad:4a:da:07:6b:10:04:67:9d:8b:b9:5a:4d:ab:
                    4b:a0:61:55:47:c9:b4:44:1f:d6:d5:73:c1:96:eb:
                    1e:aa:25:a3:f6:76:c8:af:42:2f:75:0b:35:17:1c:
                    a2:b0:ab:1b:32:47:68:73:9f:1a:4f:f6:e7:66:07:
                    d3:db
                Exponent: 65537 (0x10001)
        X509v3 extensions:
            X509v3 Basic Constraints: 
                CA:FALSE
            X509v3 Subject Key Identifier: 
                0A:46:60:1D:6D:60:ED:BF:EA:DA:66:32:46:76:F9:34:1A:27:28:69
            X509v3 Authority Key Identifier: 
                keyid:C8:27:DA:64:30:08:40:08:4A:25:CC:DC:43:99:DE:77:A1:FE:77:BD
                DirName:/C=US/ST=California/L=San Francisco/O=Copyleft Certificate Co/OU=My Organizational Unit/CN=ChangeMe/emailAddress=me@example.net
                serial:A9:48:C3:7E:FC:1B:B0:A1

            X509v3 Extended Key Usage: 
                TLS Web Client Authentication
            X509v3 Key Usage: 
                Digital Signature
    Signature Algorithm: sha256WithRSAEncryption
         5d:61:ac:10:0f:28:6a:34:a4:06:ec:1d:67:f0:bf:92:20:28:
         b4:c8:a7:66:ce:e8:83:a1:7e:49:1f:af:e9:23:25:65:6c:55:
         08:58:0c:13:98:33:b0:9d:8a:fe:63:b6:68:f4:ae:bb:35:07:
         8b:d3:3d:7f:cd:14:a2:59:e6:f3:df:b7:f9:c4:2b:19:17:07:
         24:03:93:66:a9:9b:71:2c:a3:6e:35:25:f0:78:2f:39:9a:e8:
         c4:3a:fa:54:0c:ec:e2:c1:de:ca:e8:48:ec:41:81:18:5e:34:
         9c:8c:0c:48:78:6f:4e:27:0d:98:b5:bb:35:51:6c:1d:88:cc:
         97:0b:84:25:66:47:c6:6c:d1:50:e1:98:28:ff:ce:df:12:2a:
         76:27:9a:ad:7b:ae:d4:e6:49:92:d2:38:56:58:e9:b8:df:3f:
         98:5b:db:de:08:c7:2f:9b:82:a7:77:2d:0c:6b:1a:c9:94:d8:
         f7:72:3a:42:7a:91:d7:78:e9:7a:5f:47:de:cb:6f:5d:45:4c:
         89:4a:0f:82:b6:35:5b:9d:bb:1e:34:68:19:c9:a5:49:18:aa:
         43:b7:25:cb:eb:3d:02:69:33:3c:c8:80:95:ae:bb:f9:34:d1:
         9a:24:0d:6d:01:55:d9:35:c9:1e:5d:2b:43:24:c2:7d:64:ff:
         9b:90:73:3f
-----BEGIN CERTIFICATE-----
MIIFKjCCBBKgAwIBAgIRAJoZy3UHcXXDTUQEOkPb1qMwDQYJKoZIhvcNAQELBQAw
ga8xCzAJBgNVBAYTAlVTMRMwEQYDVQQIDApDYWxpZm9ybmlhMRYwFAYDVQQHDA1T
YW4gRnJhbmNpc2NvMSAwHgYDVQQKDBdDb3B5bGVmdCBDZXJ0aWZpY2F0ZSBDbzEf
MB0GA1UECwwWTXkgT3JnYW5pemF0aW9uYWwgVW5pdDERMA8GA1UEAwwIQ2hhbmdl
TWUxHTAbBgkqhkiG9w0BCQEWDm1lQGV4YW1wbGUubmV0MB4XDTIzMTExMDE3NDQx
MFoXDTI0MTEwOTE3NDQxMFowgbUxCzAJBgNVBAYTAlVTMQswCQYDVQQIDAJPSDET
MBEGA1UEBwwKQ2luY2lubmF0aTEhMB8GA1UECgwYVW5pdmVyc2l0eSBvZiBDaW5j
aW5uYXRpMSQwIgYDVQQLDBtEZXB0X0VsZWNfQ29tXyBFbmdfQ29tX1NjaS4xETAP
BgNVBAMMCGNsaWVudDg2MSgwJgYJKoZIhvcNAQkBFhlmcmFuY29AZ2F1c3MuZWNl
Y3MudWMuZWR1MIIBIjANBgkqhkiG9w0BAQEFAAOCAQ8AMIIBCgKCAQEAoPN0yt8H
bEMAeRmcgaTMVUXoTxV/1NXhmotrabspWYqJR82CPQXt7xAT8X7CNq0nOd8yOkAo
BqYNCEtHQ0vAqvAEl/8jaVb1JLDokXRXZb2mM4ZjWGGaZVff1ARMuQedNhYjurGq
crBEn/5VEIa/gbWPzP1zitC1FMIlqOduNB9VnF0VvsC/RXigEMHsvYIhKM13Ksql
72tXuWOH4AxtZ2HyjMtKm80WvjxllDSmEbF0X8q+JuM0fEka90ZDG60akf+4rUra
B2sQBGedi7laTatLoGFVR8m0RB/W1XPBluseqiWj9nbIr0IvdQs1FxyisKsbMkdo
c58aT/bnZgfT2wIDAQABo4IBNzCCATMwCQYDVR0TBAIwADAdBgNVHQ4EFgQUCkZg
HW1g7b/q2mYyRnb5NBonKGkwgeQGA1UdIwSB3DCB2YAUyCfaZDAIQAhKJczcQ5ne
d6H+d72hgbWkgbIwga8xCzAJBgNVBAYTAlVTMRMwEQYDVQQIDApDYWxpZm9ybmlh
MRYwFAYDVQQHDA1TYW4gRnJhbmNpc2NvMSAwHgYDVQQKDBdDb3B5bGVmdCBDZXJ0
aWZpY2F0ZSBDbzEfMB0GA1UECwwWTXkgT3JnYW5pemF0aW9uYWwgVW5pdDERMA8G
A1UEAwwIQ2hhbmdlTWUxHTAbBgkqhkiG9w0BCQEWDm1lQGV4YW1wbGUubmV0ggkA
qUjDfvwbsKEwEwYDVR0lBAwwCgYIKwYBBQUHAwIwCwYDVR0PBAQDAgeAMA0GCSqG
SIb3DQEBCwUAA4IBAQBdYawQDyhqNKQG7B1n8L+SICi0yKdmzuiDoX5JH6/pIyVl
bFUIWAwTmDOwnYr+Y7Zo9K67NQeL0z1/zRSiWebz37f5xCsZFwckA5NmqZtxLKNu
NSXweC85mujEOvpUDOziwd7K6EjsQYEYXjScjAxIeG9OJw2Ytbs1UWwdiMyXC4Ql
ZkfGbNFQ4Zgo/87fEip2J5qte67U5kmS0jhWWOm43z+YW9veCMcvm4Kndy0MaxrJ
lNj3cjpCepHXeOl6X0fey29dRUyJSg+CtjVbnbseNGgZyaVJGKpDtyXL6z0CaTM8
yICVrrv5NNGaJA1tAVXZNckeXStDJMJ9ZP+bkHM/
-----END CERTIFICATE-----
