Certificate:
    Data:
        Version: 3 (0x2)
        Serial Number:
            9c:0b:0a:a4:09:f5:d1:b5:3e:b2:cd:fe:11:9e:0b:90
    Signature Algorithm: sha256WithRSAEncryption
        Issuer: C=US, ST=California, L=San Francisco, O=Copyleft Certificate Co, OU=My Organizational Unit, CN=ChangeMe/emailAddress=me@example.net
        Validity
            Not Before: Nov 10 17:47:10 2023 GMT
            Not After : Nov  9 17:47:10 2024 GMT
        Subject: C=US, ST=OH, L=Cincinnati, O=University of Cincinnati, OU=Dept_Elec_Com_ Eng_Com_Sci., CN=client131/emailAddress=franco@gauss.ececs.uc.edu
        Subject Public Key Info:
            Public Key Algorithm: rsaEncryption
                Public-Key: (2048 bit)
                Modulus:
                    00:97:d2:91:fd:d9:db:ea:ef:25:2e:5d:bd:b9:a1:
                    ac:9e:8e:1a:20:dc:3d:da:0b:6b:04:24:54:89:04:
                    fb:a8:72:f1:3d:f1:1c:1c:77:13:62:8c:c9:b7:40:
                    64:95:6c:c1:e8:1b:16:97:30:42:21:f6:51:35:3e:
                    7a:f2:61:ee:5c:b6:08:09:dd:16:a6:09:59:dd:02:
                    cd:ed:bc:8b:d9:71:c7:3c:42:35:2a:43:71:45:d8:
                    81:d2:73:25:3d:22:56:b0:44:54:5e:c5:59:d8:1a:
                    11:71:d0:20:d9:e0:64:23:38:95:cc:13:5c:4b:e3:
                    90:d8:69:15:b4:6a:86:7a:98:86:99:3f:5e:eb:c9:
                    1b:b6:60:ed:89:29:6d:ba:c1:70:ab:04:e5:26:f8:
                    a4:f9:f0:b0:e8:d0:ed:4a:6a:36:1c:c5:b1:c9:93:
                    20:ad:63:eb:6a:82:8e:3a:ca:8c:1b:25:d2:9f:01:
                    9f:7f:9d:91:0c:25:0d:0a:ff:d0:97:03:f8:72:1e:
                    4f:4c:b1:83:86:2f:48:bd:e4:42:a8:99:f3:90:a5:
                    a2:e5:03:06:03:e9:ba:e4:3e:fb:30:8b:9e:b7:bb:
                    76:d1:f9:42:09:b8:66:dc:f8:04:0b:02:e0:c7:3e:
                    5f:4e:27:32:de:8e:a8:64:ea:d3:a9:74:21:97:36:
                    c9:33
                Exponent: 65537 (0x10001)
        X509v3 extensions:
            X509v3 Basic Constraints: 
                CA:FALSE
            X509v3 Subject Key Identifier: 
                FE:D6:5D:4E:33:59:74:EE:42:F2:3F:F2:32:43:C7:E0:47:15:5F:2E
            X509v3 Authority Key Identifier: 
                keyid:C8:27:DA:64:30:08:40:08:4A:25:CC:DC:43:99:DE:77:A1:FE:77:BD
                DirName:/C=US/ST=California/L=San Francisco/O=Copyleft Certificate Co/OU=My Organizational Unit/CN=ChangeMe/emailAddress=me@example.net
                serial:A9:48:C3:7E:FC:1B:B0:A1

            X509v3 Extended Key Usage: 
                TLS Web Client Authentication
            X509v3 Key Usage: 
                Digital Signature
    Signature Algorithm: sha256WithRSAEncryption
         a5:5d:cb:6e:7e:89:5c:9f:69:39:d6:6d:77:c9:ad:e9:ac:73:
         9a:21:7b:c9:03:1a:9f:a5:e1:97:50:ff:3f:e1:66:07:9f:6b:
         ec:8f:21:73:a9:a8:64:23:8e:3e:86:c6:5f:37:a0:be:6e:3a:
         36:d4:cb:10:59:b7:cf:2b:54:e1:5b:22:50:3b:c9:26:18:2a:
         de:d1:01:f0:de:88:6f:0b:3c:a1:04:40:51:b1:37:57:df:6b:
         eb:62:ef:9a:fa:62:b3:db:d8:4c:09:24:e1:09:2e:d9:26:01:
         8a:3b:23:5f:28:9e:4b:a7:15:cc:46:ae:94:de:22:f0:dd:67:
         3b:2f:5a:58:f3:46:25:f1:90:c2:eb:ae:ab:da:1f:2e:75:aa:
         1e:48:93:cc:26:33:02:3e:a8:8e:48:43:7d:b0:b7:0e:4a:81:
         41:4c:5f:9f:58:27:6e:ac:ad:bd:a6:ec:32:53:16:bd:3a:db:
         9f:98:14:b5:4e:e0:2d:c5:66:4d:41:e9:c2:57:f2:48:dd:bb:
         fe:0c:10:cf:62:68:83:ce:76:ae:b2:e6:00:f4:4b:8e:e5:86:
         fa:de:d1:4a:f9:a0:12:9a:8d:c9:76:07:28:c9:2f:95:e4:00:
         72:93:89:58:19:bc:2b:db:57:4b:58:fc:58:f4:42:19:ff:0b:
         cc:f9:97:f9
-----BEGIN CERTIFICATE-----
MIIFKzCCBBOgAwIBAgIRAJwLCqQJ9dG1PrLN/hGeC5AwDQYJKoZIhvcNAQELBQAw
ga8xCzAJBgNVBAYTAlVTMRMwEQYDVQQIDApDYWxpZm9ybmlhMRYwFAYDVQQHDA1T
YW4gRnJhbmNpc2NvMSAwHgYDVQQKDBdDb3B5bGVmdCBDZXJ0aWZpY2F0ZSBDbzEf
MB0GA1UECwwWTXkgT3JnYW5pemF0aW9uYWwgVW5pdDERMA8GA1UEAwwIQ2hhbmdl
TWUxHTAbBgkqhkiG9w0BCQEWDm1lQGV4YW1wbGUubmV0MB4XDTIzMTExMDE3NDcx
MFoXDTI0MTEwOTE3NDcxMFowgbYxCzAJBgNVBAYTAlVTMQswCQYDVQQIDAJPSDET
MBEGA1UEBwwKQ2luY2lubmF0aTEhMB8GA1UECgwYVW5pdmVyc2l0eSBvZiBDaW5j
aW5uYXRpMSQwIgYDVQQLDBtEZXB0X0VsZWNfQ29tXyBFbmdfQ29tX1NjaS4xEjAQ
BgNVBAMMCWNsaWVudDEzMTEoMCYGCSqGSIb3DQEJARYZZnJhbmNvQGdhdXNzLmVj
ZWNzLnVjLmVkdTCCASIwDQYJKoZIhvcNAQEBBQADggEPADCCAQoCggEBAJfSkf3Z
2+rvJS5dvbmhrJ6OGiDcPdoLawQkVIkE+6hy8T3xHBx3E2KMybdAZJVswegbFpcw
QiH2UTU+evJh7ly2CAndFqYJWd0Cze28i9lxxzxCNSpDcUXYgdJzJT0iVrBEVF7F
WdgaEXHQINngZCM4lcwTXEvjkNhpFbRqhnqYhpk/XuvJG7Zg7YkpbbrBcKsE5Sb4
pPnwsOjQ7UpqNhzFscmTIK1j62qCjjrKjBsl0p8Bn3+dkQwlDQr/0JcD+HIeT0yx
g4YvSL3kQqiZ85ClouUDBgPpuuQ++zCLnre7dtH5Qgm4Ztz4BAsC4Mc+X04nMt6O
qGTq06l0IZc2yTMCAwEAAaOCATcwggEzMAkGA1UdEwQCMAAwHQYDVR0OBBYEFP7W
XU4zWXTuQvI/8jJDx+BHFV8uMIHkBgNVHSMEgdwwgdmAFMgn2mQwCEAISiXM3EOZ
3neh/ne9oYG1pIGyMIGvMQswCQYDVQQGEwJVUzETMBEGA1UECAwKQ2FsaWZvcm5p
YTEWMBQGA1UEBwwNU2FuIEZyYW5jaXNjbzEgMB4GA1UECgwXQ29weWxlZnQgQ2Vy
dGlmaWNhdGUgQ28xHzAdBgNVBAsMFk15IE9yZ2FuaXphdGlvbmFsIFVuaXQxETAP
BgNVBAMMCENoYW5nZU1lMR0wGwYJKoZIhvcNAQkBFg5tZUBleGFtcGxlLm5ldIIJ
AKlIw378G7ChMBMGA1UdJQQMMAoGCCsGAQUFBwMCMAsGA1UdDwQEAwIHgDANBgkq
hkiG9w0BAQsFAAOCAQEApV3Lbn6JXJ9pOdZtd8mt6axzmiF7yQMan6Xhl1D/P+Fm
B59r7I8hc6moZCOOPobGXzegvm46NtTLEFm3zytU4VsiUDvJJhgq3tEB8N6Ibws8
oQRAUbE3V99r62Lvmvpis9vYTAkk4Qku2SYBijsjXyieS6cVzEaulN4i8N1nOy9a
WPNGJfGQwuuuq9ofLnWqHkiTzCYzAj6ojkhDfbC3DkqBQUxfn1gnbqytvabsMlMW
vTrbn5gUtU7gLcVmTUHpwlfySN27/gwQz2Jog852rrLmAPRLjuWG+t7RSvmgEpqN
yXYHKMkvleQAcpOJWBm8K9tXS1j8WPRCGf8LzPmX+Q==
-----END CERTIFICATE-----
