Certificate:
    Data:
        Version: 3 (0x2)
        Serial Number:
            a7:6b:44:1f:6c:60:6d:07:23:68:92:95:8e:6d:28:ca
    Signature Algorithm: sha256WithRSAEncryption
        Issuer: C=US, ST=California, L=San Francisco, O=Copyleft Certificate Co, OU=My Organizational Unit, CN=ChangeMe/emailAddress=me@example.net
        Validity
            Not Before: Nov 12 11:48:35 2023 GMT
            Not After : Nov 11 11:48:35 2024 GMT
        Subject: C=US, ST=OH, L=Cincinnati, O=University of Cincinnati, OU=Dept. Elec. Comp. Eng. Comp. Sci., CN=client35/emailAddress=franco@gauss.ececs.uc.edu
        Subject Public Key Info:
            Public Key Algorithm: rsaEncryption
                Public-Key: (2048 bit)
                Modulus:
                    00:b6:24:4e:91:e9:c3:e4:30:68:44:02:ed:b3:e8:
                    6e:a5:a7:3d:ac:9c:a9:85:fd:d4:45:0d:59:d7:ed:
                    27:37:f7:c1:a3:1e:cd:ec:b0:2f:44:99:b2:5b:2f:
                    35:57:d6:c5:24:93:89:f2:5e:97:b7:6f:c5:62:26:
                    93:f1:69:3c:68:10:ff:00:bd:bb:16:00:98:68:44:
                    ef:e5:da:89:91:78:6a:5e:47:ad:e5:df:13:43:52:
                    a4:d6:88:cf:33:cf:13:ed:ac:58:5f:13:6c:8f:47:
                    c3:9f:8c:80:8f:57:8c:88:c1:e3:4b:df:ff:15:6c:
                    f0:5d:18:ff:da:89:65:9d:8e:92:ab:43:f8:b2:10:
                    73:63:40:cf:86:a9:99:23:b4:01:94:99:b0:d3:25:
                    8b:36:e8:46:00:28:98:ac:51:c3:80:f6:5f:f9:d6:
                    73:13:03:d3:e1:ac:6b:f3:8f:18:57:b2:54:10:b5:
                    73:02:d2:c0:db:24:12:35:7f:30:65:ef:2c:62:c9:
                    41:e7:fd:36:76:b2:28:13:4d:e7:ce:14:aa:39:97:
                    93:2a:a9:0c:6f:10:3d:7e:96:8f:9e:36:67:59:30:
                    a5:d4:f8:37:23:33:08:e4:04:40:53:8a:7f:3f:cc:
                    7c:f4:99:63:3c:84:dd:c8:eb:01:ba:ad:d9:41:29:
                    73:07
                Exponent: 65537 (0x10001)
        X509v3 extensions:
            X509v3 Basic Constraints: 
                CA:FALSE
            X509v3 Subject Key Identifier: 
                E3:11:C2:79:F3:28:E7:35:0D:F0:12:7B:0E:15:E8:02:EA:0F:0A:47
            X509v3 Authority Key Identifier: 
                keyid:C4:46:F2:96:38:56:02:B8:9D:09:04:52:25:91:35:97:6A:D7:B1:F0
                DirName:/C=US/ST=California/L=San Francisco/O=Copyleft Certificate Co/OU=My Organizational Unit/CN=ChangeMe/emailAddress=me@example.net
                serial:D1:5A:15:1C:F0:20:95:62

            X509v3 Extended Key Usage: 
                TLS Web Client Authentication
            X509v3 Key Usage: 
                Digital Signature
    Signature Algorithm: sha256WithRSAEncryption
         47:b5:41:5e:7a:e8:f7:34:96:59:7f:af:be:72:fb:06:6a:99:
         1f:3f:86:91:76:27:13:f8:51:4b:dc:21:b1:32:8e:74:26:ab:
         d2:2e:78:4b:d0:a7:15:f1:17:b0:88:77:5f:e5:2f:fb:13:07:
         7e:f5:58:6b:bd:71:d6:94:f8:9e:c4:66:71:8a:86:a6:ad:54:
         ff:6a:82:de:cc:f8:e4:ad:9b:97:60:09:43:1b:c2:e7:14:a0:
         ae:bf:8f:a9:c6:e2:5b:32:3c:80:33:06:48:4a:83:94:fe:67:
         99:b9:f6:b0:7b:3b:0b:7d:01:49:76:61:43:ae:71:88:02:a2:
         df:a8:de:c1:e0:4b:d6:22:89:12:ee:cd:86:77:fa:5a:7a:2a:
         24:22:f8:bd:65:43:a9:35:fd:a8:14:87:f3:12:3c:6d:3a:58:
         ee:b6:55:62:4f:8a:6e:41:eb:8e:41:69:8a:22:80:35:15:a3:
         c6:f4:d9:d1:f2:65:37:e6:18:76:a9:83:4e:87:34:fd:61:3a:
         ef:96:3b:aa:c0:90:5a:0b:91:8f:c4:e5:43:ce:42:da:ae:ae:
         4b:2f:95:67:c0:b4:88:99:4d:e7:ad:ae:9a:a8:59:ae:cb:85:
         29:44:3e:81:d4:66:25:2c:02:3e:7b:fa:df:c1:93:bf:fe:ee:
         a5:f1:c0:66
-----BEGIN CERTIFICATE-----
MIIFMDCCBBigAwIBAgIRAKdrRB9sYG0HI2iSlY5tKMowDQYJKoZIhvcNAQELBQAw
ga8xCzAJBgNVBAYTAlVTMRMwEQYDVQQIDApDYWxpZm9ybmlhMRYwFAYDVQQHDA1T
YW4gRnJhbmNpc2NvMSAwHgYDVQQKDBdDb3B5bGVmdCBDZXJ0aWZpY2F0ZSBDbzEf
MB0GA1UECwwWTXkgT3JnYW5pemF0aW9uYWwgVW5pdDERMA8GA1UEAwwIQ2hhbmdl
TWUxHTAbBgkqhkiG9w0BCQEWDm1lQGV4YW1wbGUubmV0MB4XDTIzMTExMjExNDgz
NVoXDTI0MTExMTExNDgzNVowgbsxCzAJBgNVBAYTAlVTMQswCQYDVQQIDAJPSDET
MBEGA1UEBwwKQ2luY2lubmF0aTEhMB8GA1UECgwYVW5pdmVyc2l0eSBvZiBDaW5j
aW5uYXRpMSowKAYDVQQLDCFEZXB0LiBFbGVjLiBDb21wLiBFbmcuIENvbXAuIFNj
aS4xETAPBgNVBAMMCGNsaWVudDM1MSgwJgYJKoZIhvcNAQkBFhlmcmFuY29AZ2F1
c3MuZWNlY3MudWMuZWR1MIIBIjANBgkqhkiG9w0BAQEFAAOCAQ8AMIIBCgKCAQEA
tiROkenD5DBoRALts+hupac9rJyphf3URQ1Z1+0nN/fBox7N7LAvRJmyWy81V9bF
JJOJ8l6Xt2/FYiaT8Wk8aBD/AL27FgCYaETv5dqJkXhqXket5d8TQ1Kk1ojPM88T
7axYXxNsj0fDn4yAj1eMiMHjS9//FWzwXRj/2ollnY6Sq0P4shBzY0DPhqmZI7QB
lJmw0yWLNuhGACiYrFHDgPZf+dZzEwPT4axr848YV7JUELVzAtLA2yQSNX8wZe8s
YslB5/02drIoE03nzhSqOZeTKqkMbxA9fpaPnjZnWTCl1Pg3IzMI5ARAU4p/P8x8
9JljPITdyOsBuq3ZQSlzBwIDAQABo4IBNzCCATMwCQYDVR0TBAIwADAdBgNVHQ4E
FgQU4xHCefMo5zUN8BJ7DhXoAuoPCkcwgeQGA1UdIwSB3DCB2YAUxEbyljhWArid
CQRSJZE1l2rXsfChgbWkgbIwga8xCzAJBgNVBAYTAlVTMRMwEQYDVQQIDApDYWxp
Zm9ybmlhMRYwFAYDVQQHDA1TYW4gRnJhbmNpc2NvMSAwHgYDVQQKDBdDb3B5bGVm
dCBDZXJ0aWZpY2F0ZSBDbzEfMB0GA1UECwwWTXkgT3JnYW5pemF0aW9uYWwgVW5p
dDERMA8GA1UEAwwIQ2hhbmdlTWUxHTAbBgkqhkiG9w0BCQEWDm1lQGV4YW1wbGUu
bmV0ggkA0VoVHPAglWIwEwYDVR0lBAwwCgYIKwYBBQUHAwIwCwYDVR0PBAQDAgeA
MA0GCSqGSIb3DQEBCwUAA4IBAQBHtUFeeuj3NJZZf6++cvsGapkfP4aRdicT+FFL
3CGxMo50JqvSLnhL0KcV8RewiHdf5S/7Ewd+9VhrvXHWlPiexGZxioamrVT/aoLe
zPjkrZuXYAlDG8LnFKCuv4+pxuJbMjyAMwZISoOU/meZufawezsLfQFJdmFDrnGI
AqLfqN7B4EvWIokS7s2Gd/paeiokIvi9ZUOpNf2oFIfzEjxtOljutlViT4puQeuO
QWmKIoA1FaPG9NnR8mU35hh2qYNOhzT9YTrvljuqwJBaC5GPxOVDzkLarq5LL5Vn
wLSImU3nra6aqFmuy4UpRD6B1GYlLAI+e/rfwZO//u6l8cBm
-----END CERTIFICATE-----
