Certificate:
    Data:
        Version: 3 (0x2)
        Serial Number:
            42:52:89:11:73:34:55:6c:3f:0e:04:6a:45:73:67:af
    Signature Algorithm: sha256WithRSAEncryption
        Issuer: C=US, ST=California, L=San Francisco, O=Copyleft Certificate Co, OU=My Organizational Unit, CN=ChangeMe/emailAddress=me@example.net
        Validity
            Not Before: Nov 11 10:56:12 2023 GMT
            Not After : Nov 10 10:56:12 2024 GMT
        Subject: C=US, ST=OH, L=Cincinnati, O=University of Cincinnati, OU=Dept. Elec. Comp. Eng. Comp. Sci., CN=client14/emailAddress=franco@gauss.ececs.uc.edu
        Subject Public Key Info:
            Public Key Algorithm: rsaEncryption
                Public-Key: (2048 bit)
                Modulus:
                    00:d8:50:0c:ee:21:59:11:71:07:e8:88:5d:32:e1:
                    9d:cf:10:df:07:fe:0b:88:a1:4c:21:1e:54:f2:5b:
                    bd:23:53:ef:00:65:35:ac:66:76:62:64:03:9d:7b:
                    6b:94:aa:d3:75:24:3f:ad:c8:bd:30:68:41:19:f6:
                    bb:a1:f3:0a:34:66:13:4b:29:82:05:da:9c:7b:fe:
                    03:08:39:b0:6e:cb:31:cc:13:bf:21:c4:d2:65:7a:
                    4f:c3:e0:15:7c:12:02:88:bd:67:68:32:21:5b:1a:
                    af:fe:ed:05:4b:1f:25:9b:5e:8f:c5:62:30:46:19:
                    ac:d0:55:9e:5f:aa:f7:28:b8:79:1b:5a:9e:96:72:
                    f3:50:b3:0c:df:bd:0b:65:01:d4:42:d2:82:73:20:
                    c2:63:0c:19:e5:b3:11:71:76:2f:34:5e:35:b5:e2:
                    ce:63:1d:60:35:08:27:fa:8b:18:dc:e0:22:a2:96:
                    f0:e4:32:4a:07:39:e1:c2:98:af:ed:5f:4e:b0:d2:
                    5c:c6:9e:2f:14:51:91:81:de:20:b0:69:62:15:cb:
                    66:63:f2:e1:44:33:73:45:6e:92:11:70:e6:88:05:
                    4c:2e:8c:fe:2f:8e:a0:0f:0a:d6:a2:f1:e4:d5:77:
                    20:e9:24:20:f9:77:c4:e0:a5:11:ef:9e:ff:ed:ab:
                    df:7f
                Exponent: 65537 (0x10001)
        X509v3 extensions:
            X509v3 Basic Constraints: 
                CA:FALSE
            X509v3 Subject Key Identifier: 
                7F:B1:EA:CF:4A:35:5F:60:8C:BB:6F:0A:59:B7:18:B4:F8:3C:EC:FA
            X509v3 Authority Key Identifier: 
                keyid:44:01:CC:06:0B:41:75:CB:C8:FB:C9:37:86:2D:9D:D2:D8:79:B6:8B
                DirName:/C=US/ST=California/L=San Francisco/O=Copyleft Certificate Co/OU=My Organizational Unit/CN=ChangeMe/emailAddress=me@example.net
                serial:AF:E8:E0:DD:C5:8B:0E:DD

            X509v3 Extended Key Usage: 
                TLS Web Client Authentication
            X509v3 Key Usage: 
                Digital Signature
    Signature Algorithm: sha256WithRSAEncryption
         02:9b:de:61:2e:87:c6:42:d0:8f:d0:46:21:5b:54:07:56:1d:
         2f:56:7d:1e:ed:ce:59:aa:06:ca:73:93:ff:8f:16:f6:c5:c1:
         aa:5e:3d:86:8b:8f:38:c0:fa:54:8c:0f:94:e8:a8:0e:dc:15:
         55:ce:7e:ac:85:4b:d4:6f:a7:32:39:14:c4:c8:96:d9:d7:38:
         9f:f7:6f:ea:4e:8b:f1:0c:3b:9e:47:29:f3:61:d2:54:d0:c2:
         50:43:e8:68:d7:7e:49:92:88:60:1f:aa:76:47:c4:93:f1:d6:
         1e:63:5a:f7:e1:66:d1:23:d7:ec:c6:18:e3:ea:69:04:dd:39:
         51:dd:fe:fd:80:84:e7:5c:16:1f:e8:04:3c:2c:2b:71:de:66:
         19:b1:39:ac:13:c8:a1:24:ba:61:55:8e:74:1f:5b:59:0c:95:
         d5:93:a6:f0:dd:16:f7:fd:bf:fb:59:fe:7c:9f:75:b9:81:0e:
         8d:21:cc:9a:9b:32:37:54:f3:fc:dc:fb:21:0a:74:ff:b2:9a:
         fb:58:69:01:df:26:20:f6:80:c5:51:aa:55:ec:87:28:40:d0:
         c9:69:aa:04:1e:4e:95:2f:ca:2c:cc:0d:4a:71:b0:9c:b9:89:
         5f:d1:2a:f8:b1:a6:c7:d5:eb:e7:e7:8d:32:d1:19:aa:a6:a2:
         4d:19:dc:cb
-----BEGIN CERTIFICATE-----
MIIFLzCCBBegAwIBAgIQQlKJEXM0VWw/DgRqRXNnrzANBgkqhkiG9w0BAQsFADCB
rzELMAkGA1UEBhMCVVMxEzARBgNVBAgMCkNhbGlmb3JuaWExFjAUBgNVBAcMDVNh
biBGcmFuY2lzY28xIDAeBgNVBAoMF0NvcHlsZWZ0IENlcnRpZmljYXRlIENvMR8w
HQYDVQQLDBZNeSBPcmdhbml6YXRpb25hbCBVbml0MREwDwYDVQQDDAhDaGFuZ2VN
ZTEdMBsGCSqGSIb3DQEJARYObWVAZXhhbXBsZS5uZXQwHhcNMjMxMTExMTA1NjEy
WhcNMjQxMTEwMTA1NjEyWjCBuzELMAkGA1UEBhMCVVMxCzAJBgNVBAgMAk9IMRMw
EQYDVQQHDApDaW5jaW5uYXRpMSEwHwYDVQQKDBhVbml2ZXJzaXR5IG9mIENpbmNp
bm5hdGkxKjAoBgNVBAsMIURlcHQuIEVsZWMuIENvbXAuIEVuZy4gQ29tcC4gU2Np
LjERMA8GA1UEAwwIY2xpZW50MTQxKDAmBgkqhkiG9w0BCQEWGWZyYW5jb0BnYXVz
cy5lY2Vjcy51Yy5lZHUwggEiMA0GCSqGSIb3DQEBAQUAA4IBDwAwggEKAoIBAQDY
UAzuIVkRcQfoiF0y4Z3PEN8H/guIoUwhHlTyW70jU+8AZTWsZnZiZAOde2uUqtN1
JD+tyL0waEEZ9ruh8wo0ZhNLKYIF2px7/gMIObBuyzHME78hxNJlek/D4BV8EgKI
vWdoMiFbGq/+7QVLHyWbXo/FYjBGGazQVZ5fqvcouHkbWp6WcvNQswzfvQtlAdRC
0oJzIMJjDBnlsxFxdi80XjW14s5jHWA1CCf6ixjc4CKilvDkMkoHOeHCmK/tX06w
0lzGni8UUZGB3iCwaWIVy2Zj8uFEM3NFbpIRcOaIBUwujP4vjqAPCtai8eTVdyDp
JCD5d8TgpRHvnv/tq99/AgMBAAGjggE3MIIBMzAJBgNVHRMEAjAAMB0GA1UdDgQW
BBR/serPSjVfYIy7bwpZtxi0+Dzs+jCB5AYDVR0jBIHcMIHZgBREAcwGC0F1y8j7
yTeGLZ3S2Hm2i6GBtaSBsjCBrzELMAkGA1UEBhMCVVMxEzARBgNVBAgMCkNhbGlm
b3JuaWExFjAUBgNVBAcMDVNhbiBGcmFuY2lzY28xIDAeBgNVBAoMF0NvcHlsZWZ0
IENlcnRpZmljYXRlIENvMR8wHQYDVQQLDBZNeSBPcmdhbml6YXRpb25hbCBVbml0
MREwDwYDVQQDDAhDaGFuZ2VNZTEdMBsGCSqGSIb3DQEJARYObWVAZXhhbXBsZS5u
ZXSCCQCv6ODdxYsO3TATBgNVHSUEDDAKBggrBgEFBQcDAjALBgNVHQ8EBAMCB4Aw
DQYJKoZIhvcNAQELBQADggEBAAKb3mEuh8ZC0I/QRiFbVAdWHS9WfR7tzlmqBspz
k/+PFvbFwapePYaLjzjA+lSMD5ToqA7cFVXOfqyFS9RvpzI5FMTIltnXOJ/3b+pO
i/EMO55HKfNh0lTQwlBD6GjXfkmSiGAfqnZHxJPx1h5jWvfhZtEj1+zGGOPqaQTd
OVHd/v2AhOdcFh/oBDwsK3HeZhmxOawTyKEkumFVjnQfW1kMldWTpvDdFvf9v/tZ
/nyfdbmBDo0hzJqbMjdU8/zc+yEKdP+ymvtYaQHfJiD2gMVRqlXshyhA0MlpqgQe
TpUvyizMDUpxsJy5iV/RKvixpsfV6+fnjTLRGaqmok0Z3Ms=
-----END CERTIFICATE-----
