Certificate:
    Data:
        Version: 3 (0x2)
        Serial Number:
            e0:be:00:cf:f9:69:5a:70:83:54:5d:e5:48:9b:f0:ec
    Signature Algorithm: sha256WithRSAEncryption
        Issuer: C=US, ST=California, L=San Francisco, O=Copyleft Certificate Co, OU=My Organizational Unit, CN=ChangeMe/emailAddress=me@example.net
        Validity
            Not Before: Jan 23 18:29:43 2021 GMT
            Not After : Jan 23 18:29:43 2022 GMT
        Subject: C=US, ST=OH, L=Cincinnati, O=University of Cincinnati, OU=Dept. Electrical Eng. and Computer Sci., CN=client104/emailAddress=franco@gauss.ececs.uc.edu
        Subject Public Key Info:
            Public Key Algorithm: rsaEncryption
                Public-Key: (2048 bit)
                Modulus:
                    00:c0:b1:6c:33:56:65:30:51:ef:61:68:4d:04:35:
                    f8:b3:e6:ed:b6:c2:e6:93:b6:88:23:2e:4e:02:74:
                    23:65:22:89:ea:a1:83:52:db:a4:28:99:49:5f:0c:
                    3a:55:a6:7d:db:c7:c1:cb:ad:80:5d:bf:4c:37:03:
                    d1:3c:04:a6:5d:c3:10:72:c2:2d:0e:be:61:fe:1a:
                    52:1c:0a:03:11:13:5a:d7:c1:e0:b6:58:d2:26:9d:
                    64:90:35:7f:64:51:00:be:b2:68:f1:63:a1:c9:75:
                    a8:97:5a:34:8b:8b:3e:29:3f:13:5f:36:1e:da:0c:
                    0b:a9:7d:d6:01:ca:ab:89:c5:0b:0c:ec:89:66:8f:
                    95:d6:ac:42:d4:4e:c5:b4:e9:a3:b3:3d:7a:b8:6c:
                    80:b5:22:cd:c6:30:ba:32:21:5d:7e:fe:f3:c7:3a:
                    6f:3e:da:9a:40:7f:b2:07:10:04:52:11:c0:36:25:
                    da:7a:6f:87:33:7a:78:23:4d:fc:4e:a7:39:5b:9e:
                    9b:ac:76:5a:dc:73:2d:00:2c:7c:48:6a:12:11:20:
                    4d:5a:75:9d:bc:cd:91:a4:02:82:82:23:9e:c7:44:
                    91:1c:06:41:01:8f:67:7f:19:c3:45:05:e0:ed:a9:
                    61:a9:5b:5e:29:0a:72:c8:76:09:16:48:f4:c7:ff:
                    4d:7f
                Exponent: 65537 (0x10001)
        X509v3 extensions:
            X509v3 Basic Constraints: 
                CA:FALSE
            X509v3 Subject Key Identifier: 
                62:82:34:0D:A8:76:77:49:81:3E:3A:53:1D:FB:1B:80:5D:FC:E8:F3
            X509v3 Authority Key Identifier: 
                keyid:EF:DC:B6:3D:4B:FD:A7:87:05:C5:22:3D:8B:DC:BF:99:2A:EE:E4:DB
                DirName:/C=US/ST=California/L=San Francisco/O=Copyleft Certificate Co/OU=My Organizational Unit/CN=ChangeMe/emailAddress=me@example.net
                serial:87:1E:1D:DC:6B:8C:66:88

            X509v3 Extended Key Usage: 
                TLS Web Client Authentication
            X509v3 Key Usage: 
                Digital Signature
    Signature Algorithm: sha256WithRSAEncryption
         a7:8f:4e:c4:34:4c:f8:6f:da:5e:f9:6b:a6:4c:1b:c8:1c:91:
         02:d2:90:c5:4a:0d:8e:04:80:d3:70:f0:07:9a:77:98:ee:ba:
         12:0a:97:c9:94:d7:13:f8:09:40:c0:92:f4:cf:b9:3d:d1:23:
         11:f2:98:23:50:1f:7a:03:16:c3:12:68:ae:bc:ed:c9:3b:69:
         c3:a7:bc:a2:42:2a:2d:d6:14:41:d0:76:04:80:ef:8a:6d:27:
         65:85:2c:6a:81:05:e7:ce:fd:48:8b:39:4c:b8:c8:61:cd:51:
         83:69:b9:76:be:3c:4c:b1:9b:12:a0:81:cc:37:91:d8:72:d3:
         3e:c0:64:b4:9c:8b:7f:f0:41:f3:a5:ee:ce:6b:8d:04:f9:2d:
         5f:72:4b:03:13:ae:f6:4b:19:5c:b8:d2:16:b7:1d:35:37:2b:
         e5:6d:3b:23:a4:5d:30:02:34:39:69:7a:1e:8a:85:5d:5e:65:
         90:5e:9f:e2:f7:a6:79:68:dd:75:81:84:9a:c7:7e:e0:14:27:
         24:82:86:35:16:21:d6:c0:de:e0:bb:59:16:02:2b:d8:bd:5b:
         6c:91:7e:5c:01:a1:38:99:00:4a:f2:f8:8f:59:9d:89:e4:bf:
         3a:6a:1b:00:a0:2d:67:27:1e:93:11:b9:ea:a0:c4:ea:8c:27:
         ae:15:0a:e2
-----BEGIN CERTIFICATE-----
MIIFNzCCBB+gAwIBAgIRAOC+AM/5aVpwg1Rd5Uib8OwwDQYJKoZIhvcNAQELBQAw
ga8xCzAJBgNVBAYTAlVTMRMwEQYDVQQIDApDYWxpZm9ybmlhMRYwFAYDVQQHDA1T
YW4gRnJhbmNpc2NvMSAwHgYDVQQKDBdDb3B5bGVmdCBDZXJ0aWZpY2F0ZSBDbzEf
MB0GA1UECwwWTXkgT3JnYW5pemF0aW9uYWwgVW5pdDERMA8GA1UEAwwIQ2hhbmdl
TWUxHTAbBgkqhkiG9w0BCQEWDm1lQGV4YW1wbGUubmV0MB4XDTIxMDEyMzE4Mjk0
M1oXDTIyMDEyMzE4Mjk0M1owgcIxCzAJBgNVBAYTAlVTMQswCQYDVQQIDAJPSDET
MBEGA1UEBwwKQ2luY2lubmF0aTEhMB8GA1UECgwYVW5pdmVyc2l0eSBvZiBDaW5j
aW5uYXRpMTAwLgYDVQQLDCdEZXB0LiBFbGVjdHJpY2FsIEVuZy4gYW5kIENvbXB1
dGVyIFNjaS4xEjAQBgNVBAMMCWNsaWVudDEwNDEoMCYGCSqGSIb3DQEJARYZZnJh
bmNvQGdhdXNzLmVjZWNzLnVjLmVkdTCCASIwDQYJKoZIhvcNAQEBBQADggEPADCC
AQoCggEBAMCxbDNWZTBR72FoTQQ1+LPm7bbC5pO2iCMuTgJ0I2Uiieqhg1LbpCiZ
SV8MOlWmfdvHwcutgF2/TDcD0TwEpl3DEHLCLQ6+Yf4aUhwKAxETWtfB4LZY0iad
ZJA1f2RRAL6yaPFjocl1qJdaNIuLPik/E182HtoMC6l91gHKq4nFCwzsiWaPldas
QtROxbTpo7M9erhsgLUizcYwujIhXX7+88c6bz7amkB/sgcQBFIRwDYl2npvhzN6
eCNN/E6nOVuem6x2WtxzLQAsfEhqEhEgTVp1nbzNkaQCgoIjnsdEkRwGQQGPZ38Z
w0UF4O2pYalbXikKcsh2CRZI9Mf/TX8CAwEAAaOCATcwggEzMAkGA1UdEwQCMAAw
HQYDVR0OBBYEFGKCNA2odndJgT46Ux37G4Bd/OjzMIHkBgNVHSMEgdwwgdmAFO/c
tj1L/aeHBcUiPYvcv5kq7uTboYG1pIGyMIGvMQswCQYDVQQGEwJVUzETMBEGA1UE
CAwKQ2FsaWZvcm5pYTEWMBQGA1UEBwwNU2FuIEZyYW5jaXNjbzEgMB4GA1UECgwX
Q29weWxlZnQgQ2VydGlmaWNhdGUgQ28xHzAdBgNVBAsMFk15IE9yZ2FuaXphdGlv
bmFsIFVuaXQxETAPBgNVBAMMCENoYW5nZU1lMR0wGwYJKoZIhvcNAQkBFg5tZUBl
eGFtcGxlLm5ldIIJAIceHdxrjGaIMBMGA1UdJQQMMAoGCCsGAQUFBwMCMAsGA1Ud
DwQEAwIHgDANBgkqhkiG9w0BAQsFAAOCAQEAp49OxDRM+G/aXvlrpkwbyByRAtKQ
xUoNjgSA03DwB5p3mO66EgqXyZTXE/gJQMCS9M+5PdEjEfKYI1AfegMWwxJorrzt
yTtpw6e8okIqLdYUQdB2BIDvim0nZYUsaoEF5879SIs5TLjIYc1Rg2m5dr48TLGb
EqCBzDeR2HLTPsBktJyLf/BB86XuzmuNBPktX3JLAxOu9ksZXLjSFrcdNTcr5W07
I6RdMAI0OWl6HoqFXV5lkF6f4vemeWjddYGEmsd+4BQnJIKGNRYh1sDe4LtZFgIr
2L1bbJF+XAGhOJkASvL4j1mdieS/OmobAKAtZycekxG56qDE6ownrhUK4g==
-----END CERTIFICATE-----
