Certificate:
    Data:
        Version: 3 (0x2)
        Serial Number:
            0b:91:3c:36:9e:c4:ef:98:55:a5:33:78:66:80:4f:4c
    Signature Algorithm: sha256WithRSAEncryption
        Issuer: C=US, ST=California, L=San Francisco, O=Copyleft Certificate Co, OU=My Organizational Unit, CN=ChangeMe/emailAddress=me@example.net
        Validity
            Not Before: Nov 11 01:47:18 2023 GMT
            Not After : Nov 10 01:47:18 2024 GMT
        Subject: C=US, ST=OH, L=Cincinnati, O=University of Cincinnati, OU=Dept. Elec. Comp. Eng. Comp. Sci., CN=client114/emailAddress=franco@gauss.ececs.uc.edu
        Subject Public Key Info:
            Public Key Algorithm: rsaEncryption
                Public-Key: (2048 bit)
                Modulus:
                    00:ca:62:80:ef:c5:ff:a3:c4:3f:a7:68:a4:12:15:
                    53:cc:1b:02:80:96:84:16:d6:d0:80:8c:5f:dc:b5:
                    45:dd:62:71:da:ef:3c:92:76:61:9c:11:98:00:63:
                    4c:55:b3:f3:81:5c:5e:3e:e8:05:6c:14:45:6d:db:
                    b7:b2:27:08:75:86:4a:96:a4:7b:21:93:47:2f:ed:
                    d2:c1:9f:67:44:10:6e:c0:b8:d6:de:d2:d7:ca:34:
                    a6:70:b1:17:12:49:81:1f:20:48:c9:b4:2b:b2:a6:
                    db:6c:0c:c7:cd:b0:20:fb:3d:16:64:76:29:9b:c4:
                    58:55:d4:96:be:cf:a0:3a:a0:9b:ec:2f:3d:30:23:
                    6a:6d:b8:65:ea:f7:61:56:9b:04:6e:c7:e4:2e:51:
                    e1:8e:48:92:04:d5:40:7b:f9:ed:bb:36:cf:e3:c0:
                    e9:da:bf:09:37:e3:79:16:34:1f:79:12:30:3d:bb:
                    62:88:18:5a:67:2b:d9:c2:36:9f:72:c7:91:3e:f7:
                    d5:58:c2:90:10:76:1d:0b:8c:e5:81:eb:3f:1d:25:
                    df:4d:d0:33:e0:91:1d:69:f3:25:ed:2f:87:6b:eb:
                    67:5a:89:05:4a:62:35:54:86:4e:70:6c:d3:ba:b9:
                    8e:87:79:82:45:52:cc:e0:7f:af:47:a1:eb:02:a0:
                    92:cb
                Exponent: 65537 (0x10001)
        X509v3 extensions:
            X509v3 Basic Constraints: 
                CA:FALSE
            X509v3 Subject Key Identifier: 
                55:A3:ED:0B:8C:BD:0D:4E:BB:16:54:B5:FC:6A:77:24:9C:3E:7D:DF
            X509v3 Authority Key Identifier: 
                keyid:73:DE:A0:43:0F:AE:B1:9E:E8:59:69:18:50:A1:1A:1F:D4:A1:E3:F0
                DirName:/C=US/ST=California/L=San Francisco/O=Copyleft Certificate Co/OU=My Organizational Unit/CN=ChangeMe/emailAddress=me@example.net
                serial:E9:BB:CB:16:C5:32:BE:3B

            X509v3 Extended Key Usage: 
                TLS Web Client Authentication
            X509v3 Key Usage: 
                Digital Signature
    Signature Algorithm: sha256WithRSAEncryption
         70:aa:df:bd:c9:f2:79:cc:c2:75:7a:63:6e:99:d6:a3:90:70:
         46:11:72:47:af:9c:ed:dc:81:05:a4:c0:fd:69:a4:7b:ac:84:
         6e:c5:07:20:cd:c7:7c:7a:3d:19:d9:e4:fb:72:e7:25:94:20:
         e9:f6:37:a1:9b:a0:b7:cd:b4:b8:96:a7:1a:86:e4:c3:15:58:
         9e:d4:45:65:78:1e:00:00:64:e3:27:54:2c:85:14:2f:e3:3c:
         c9:56:b2:2c:1e:e2:11:2a:96:2c:0b:aa:e3:df:a2:94:16:bc:
         52:79:d8:6a:66:8c:a3:49:8e:36:54:72:b3:8d:a3:48:6a:b3:
         db:9d:1f:e3:e8:3d:30:08:ab:31:43:d1:ce:df:db:b4:b6:ab:
         9e:7e:73:bb:19:0d:0d:fe:e4:6e:63:72:e2:54:60:f1:c4:72:
         b6:2f:1f:77:d6:d7:e8:bb:0b:fc:cd:6b:c9:69:5a:4b:17:15:
         94:6b:eb:cc:5b:42:9b:77:ad:d7:5f:05:16:f3:eb:1a:e9:87:
         fd:d3:4e:5c:41:45:47:33:06:e5:17:42:38:f5:77:24:6a:7d:
         d6:45:e3:17:b1:eb:9a:a5:fa:e7:ca:5a:ff:3a:d3:a9:9e:f6:
         cb:6c:2e:40:69:81:be:a0:4a:f7:27:51:7a:83:6d:f5:cd:01:
         fa:e1:93:43
-----BEGIN CERTIFICATE-----
MIIFMDCCBBigAwIBAgIQC5E8Np7E75hVpTN4ZoBPTDANBgkqhkiG9w0BAQsFADCB
rzELMAkGA1UEBhMCVVMxEzARBgNVBAgMCkNhbGlmb3JuaWExFjAUBgNVBAcMDVNh
biBGcmFuY2lzY28xIDAeBgNVBAoMF0NvcHlsZWZ0IENlcnRpZmljYXRlIENvMR8w
HQYDVQQLDBZNeSBPcmdhbml6YXRpb25hbCBVbml0MREwDwYDVQQDDAhDaGFuZ2VN
ZTEdMBsGCSqGSIb3DQEJARYObWVAZXhhbXBsZS5uZXQwHhcNMjMxMTExMDE0NzE4
WhcNMjQxMTEwMDE0NzE4WjCBvDELMAkGA1UEBhMCVVMxCzAJBgNVBAgMAk9IMRMw
EQYDVQQHDApDaW5jaW5uYXRpMSEwHwYDVQQKDBhVbml2ZXJzaXR5IG9mIENpbmNp
bm5hdGkxKjAoBgNVBAsMIURlcHQuIEVsZWMuIENvbXAuIEVuZy4gQ29tcC4gU2Np
LjESMBAGA1UEAwwJY2xpZW50MTE0MSgwJgYJKoZIhvcNAQkBFhlmcmFuY29AZ2F1
c3MuZWNlY3MudWMuZWR1MIIBIjANBgkqhkiG9w0BAQEFAAOCAQ8AMIIBCgKCAQEA
ymKA78X/o8Q/p2ikEhVTzBsCgJaEFtbQgIxf3LVF3WJx2u88knZhnBGYAGNMVbPz
gVxePugFbBRFbdu3sicIdYZKlqR7IZNHL+3SwZ9nRBBuwLjW3tLXyjSmcLEXEkmB
HyBIybQrsqbbbAzHzbAg+z0WZHYpm8RYVdSWvs+gOqCb7C89MCNqbbhl6vdhVpsE
bsfkLlHhjkiSBNVAe/ntuzbP48Dp2r8JN+N5FjQfeRIwPbtiiBhaZyvZwjafcseR
PvfVWMKQEHYdC4zlges/HSXfTdAz4JEdafMl7S+Ha+tnWokFSmI1VIZOcGzTurmO
h3mCRVLM4H+vR6HrAqCSywIDAQABo4IBNzCCATMwCQYDVR0TBAIwADAdBgNVHQ4E
FgQUVaPtC4y9DU67FlS1/Gp3JJw+fd8wgeQGA1UdIwSB3DCB2YAUc96gQw+usZ7o
WWkYUKEaH9Sh4/ChgbWkgbIwga8xCzAJBgNVBAYTAlVTMRMwEQYDVQQIDApDYWxp
Zm9ybmlhMRYwFAYDVQQHDA1TYW4gRnJhbmNpc2NvMSAwHgYDVQQKDBdDb3B5bGVm
dCBDZXJ0aWZpY2F0ZSBDbzEfMB0GA1UECwwWTXkgT3JnYW5pemF0aW9uYWwgVW5p
dDERMA8GA1UEAwwIQ2hhbmdlTWUxHTAbBgkqhkiG9w0BCQEWDm1lQGV4YW1wbGUu
bmV0ggkA6bvLFsUyvjswEwYDVR0lBAwwCgYIKwYBBQUHAwIwCwYDVR0PBAQDAgeA
MA0GCSqGSIb3DQEBCwUAA4IBAQBwqt+9yfJ5zMJ1emNumdajkHBGEXJHr5zt3IEF
pMD9aaR7rIRuxQcgzcd8ej0Z2eT7cucllCDp9jehm6C3zbS4lqcahuTDFVie1EVl
eB4AAGTjJ1QshRQv4zzJVrIsHuIRKpYsC6rj36KUFrxSedhqZoyjSY42VHKzjaNI
arPbnR/j6D0wCKsxQ9HO39u0tquefnO7GQ0N/uRuY3LiVGDxxHK2Lx931tfouwv8
zWvJaVpLFxWUa+vMW0Kbd63XXwUW8+sa6Yf9005cQUVHMwblF0I49Xckan3WReMX
seuapfrnylr/OtOpnvbLbC5AaYG+oEr3J1F6g231zQH64ZND
-----END CERTIFICATE-----
