Certificate:
    Data:
        Version: 3 (0x2)
        Serial Number:
            1b:fb:ef:ba:90:67:d4:7e:83:26:7d:df:c6:6c:4f:d6
    Signature Algorithm: sha256WithRSAEncryption
        Issuer: C=US, ST=California, L=San Francisco, O=Copyleft Certificate Co, OU=My Organizational Unit, CN=ChangeMe/emailAddress=me@example.net
        Validity
            Not Before: Jan 23 18:30:23 2021 GMT
            Not After : Jan 23 18:30:23 2022 GMT
        Subject: C=US, ST=OH, L=Cincinnati, O=University of Cincinnati, OU=Dept. Electrical Eng. and Computer Sci., CN=client133/emailAddress=franco@gauss.ececs.uc.edu
        Subject Public Key Info:
            Public Key Algorithm: rsaEncryption
                Public-Key: (2048 bit)
                Modulus:
                    00:d1:52:2b:af:60:a9:8d:90:b8:03:c3:6f:b0:7c:
                    5b:b9:85:99:61:4f:8a:4d:dc:13:1b:9b:4d:ec:dc:
                    34:4b:0f:ba:d4:ec:c6:0d:57:55:60:55:73:8b:38:
                    27:4f:14:41:30:90:0b:a9:08:e3:a8:5b:71:b9:fa:
                    b4:5d:c7:54:76:98:43:73:71:ef:e0:88:71:1b:b2:
                    a0:ff:b3:08:67:9f:08:11:8e:a5:76:47:ae:1a:28:
                    b0:c7:ce:35:24:1a:68:9d:d9:18:7e:1a:23:f3:30:
                    60:fc:5c:79:ab:ec:f5:17:da:ee:ec:09:d3:a2:3b:
                    1a:be:8f:1d:8e:82:c5:25:cd:17:29:5b:5d:8f:bf:
                    4a:de:82:af:22:7a:24:05:fc:c8:9a:f9:07:d7:28:
                    ef:0d:30:9f:f7:d9:e3:d8:16:3f:1c:2d:2b:60:e6:
                    86:b9:ac:10:b5:2b:89:39:48:d0:d5:f4:22:e5:98:
                    54:62:bc:14:a9:8a:93:3c:8e:6a:55:00:cf:a0:47:
                    c2:82:ec:f3:99:fc:5b:54:f9:02:a1:06:b9:c8:e6:
                    44:5d:20:5c:89:e1:cf:47:a8:10:71:a6:3d:1f:cf:
                    da:ac:6f:bf:8b:6c:32:6a:82:af:5d:d1:af:6e:2e:
                    e0:72:28:06:3c:42:98:a1:34:36:e7:fb:35:7d:85:
                    78:f1
                Exponent: 65537 (0x10001)
        X509v3 extensions:
            X509v3 Basic Constraints: 
                CA:FALSE
            X509v3 Subject Key Identifier: 
                C6:31:BE:AA:71:58:6A:DC:63:37:06:69:A1:C0:BF:1F:DB:C4:75:63
            X509v3 Authority Key Identifier: 
                keyid:EF:DC:B6:3D:4B:FD:A7:87:05:C5:22:3D:8B:DC:BF:99:2A:EE:E4:DB
                DirName:/C=US/ST=California/L=San Francisco/O=Copyleft Certificate Co/OU=My Organizational Unit/CN=ChangeMe/emailAddress=me@example.net
                serial:87:1E:1D:DC:6B:8C:66:88

            X509v3 Extended Key Usage: 
                TLS Web Client Authentication
            X509v3 Key Usage: 
                Digital Signature
    Signature Algorithm: sha256WithRSAEncryption
         97:de:a3:b7:33:e3:03:be:8c:45:81:55:3c:37:3c:ec:64:fb:
         3a:54:9a:aa:98:8d:98:9b:53:44:c2:1f:55:3e:42:a2:90:46:
         1b:13:b6:8f:89:90:25:6c:d4:99:8d:60:34:d7:01:c6:64:43:
         0f:7e:94:87:14:47:fa:70:48:9c:06:21:fc:b8:6b:22:ad:d7:
         f9:b2:5f:bd:31:b0:05:58:bc:7d:cc:a5:cc:3b:09:c9:a6:e0:
         2a:2a:c1:5c:bf:3b:7d:f4:ab:2a:e2:d2:f0:a0:4b:7c:4e:34:
         71:d5:45:4d:d7:bd:a8:d8:f6:b4:14:fc:a3:c3:73:d5:41:75:
         c2:79:f6:36:80:68:5a:41:a1:f9:40:77:b4:b8:f5:a6:f8:56:
         bd:53:6b:b6:8f:a7:a9:b6:e9:f0:b1:67:ad:af:dc:8f:ea:5e:
         1d:3c:9d:1f:79:26:74:98:e9:36:91:4d:ee:d7:e5:38:9c:eb:
         53:a3:37:83:67:4e:a8:38:e6:99:1f:3d:6c:04:3f:be:72:9b:
         42:2e:ce:53:d3:c9:00:1e:8f:95:39:77:64:58:50:01:6e:a2:
         42:12:2c:d5:5d:de:62:a8:83:0c:15:95:aa:24:13:48:8c:41:
         f8:e1:2b:ea:de:a7:3a:d4:67:88:74:66:e8:03:7d:c9:85:ef:
         2c:b4:5b:be
-----BEGIN CERTIFICATE-----
MIIFNjCCBB6gAwIBAgIQG/vvupBn1H6DJn3fxmxP1jANBgkqhkiG9w0BAQsFADCB
rzELMAkGA1UEBhMCVVMxEzARBgNVBAgMCkNhbGlmb3JuaWExFjAUBgNVBAcMDVNh
biBGcmFuY2lzY28xIDAeBgNVBAoMF0NvcHlsZWZ0IENlcnRpZmljYXRlIENvMR8w
HQYDVQQLDBZNeSBPcmdhbml6YXRpb25hbCBVbml0MREwDwYDVQQDDAhDaGFuZ2VN
ZTEdMBsGCSqGSIb3DQEJARYObWVAZXhhbXBsZS5uZXQwHhcNMjEwMTIzMTgzMDIz
WhcNMjIwMTIzMTgzMDIzWjCBwjELMAkGA1UEBhMCVVMxCzAJBgNVBAgMAk9IMRMw
EQYDVQQHDApDaW5jaW5uYXRpMSEwHwYDVQQKDBhVbml2ZXJzaXR5IG9mIENpbmNp
bm5hdGkxMDAuBgNVBAsMJ0RlcHQuIEVsZWN0cmljYWwgRW5nLiBhbmQgQ29tcHV0
ZXIgU2NpLjESMBAGA1UEAwwJY2xpZW50MTMzMSgwJgYJKoZIhvcNAQkBFhlmcmFu
Y29AZ2F1c3MuZWNlY3MudWMuZWR1MIIBIjANBgkqhkiG9w0BAQEFAAOCAQ8AMIIB
CgKCAQEA0VIrr2CpjZC4A8NvsHxbuYWZYU+KTdwTG5tN7Nw0Sw+61OzGDVdVYFVz
izgnTxRBMJALqQjjqFtxufq0XcdUdphDc3Hv4IhxG7Kg/7MIZ58IEY6ldkeuGiiw
x841JBpondkYfhoj8zBg/Fx5q+z1F9ru7AnTojsavo8djoLFJc0XKVtdj79K3oKv
InokBfzImvkH1yjvDTCf99nj2BY/HC0rYOaGuawQtSuJOUjQ1fQi5ZhUYrwUqYqT
PI5qVQDPoEfCguzzmfxbVPkCoQa5yOZEXSBcieHPR6gQcaY9H8/arG+/i2wyaoKv
XdGvbi7gcigGPEKYoTQ25/s1fYV48QIDAQABo4IBNzCCATMwCQYDVR0TBAIwADAd
BgNVHQ4EFgQUxjG+qnFYatxjNwZpocC/H9vEdWMwgeQGA1UdIwSB3DCB2YAU79y2
PUv9p4cFxSI9i9y/mSru5NuhgbWkgbIwga8xCzAJBgNVBAYTAlVTMRMwEQYDVQQI
DApDYWxpZm9ybmlhMRYwFAYDVQQHDA1TYW4gRnJhbmNpc2NvMSAwHgYDVQQKDBdD
b3B5bGVmdCBDZXJ0aWZpY2F0ZSBDbzEfMB0GA1UECwwWTXkgT3JnYW5pemF0aW9u
YWwgVW5pdDERMA8GA1UEAwwIQ2hhbmdlTWUxHTAbBgkqhkiG9w0BCQEWDm1lQGV4
YW1wbGUubmV0ggkAhx4d3GuMZogwEwYDVR0lBAwwCgYIKwYBBQUHAwIwCwYDVR0P
BAQDAgeAMA0GCSqGSIb3DQEBCwUAA4IBAQCX3qO3M+MDvoxFgVU8NzzsZPs6VJqq
mI2Ym1NEwh9VPkKikEYbE7aPiZAlbNSZjWA01wHGZEMPfpSHFEf6cEicBiH8uGsi
rdf5sl+9MbAFWLx9zKXMOwnJpuAqKsFcvzt99Ksq4tLwoEt8TjRx1UVN172o2Pa0
FPyjw3PVQXXCefY2gGhaQaH5QHe0uPWm+Fa9U2u2j6eptunwsWetr9yP6l4dPJ0f
eSZ0mOk2kU3u1+U4nOtTozeDZ06oOOaZHz1sBD++cptCLs5T08kAHo+VOXdkWFAB
bqJCEizVXd5iqIMMFZWqJBNIjEH44Svq3qc61GeIdGboA33Jhe8stFu+
-----END CERTIFICATE-----
