Certificate:
    Data:
        Version: 3 (0x2)
        Serial Number:
            84:20:8b:4a:6a:e2:16:d4:e2:9c:c2:e2:8b:b0:b6:41
    Signature Algorithm: sha256WithRSAEncryption
        Issuer: C=US, ST=California, L=San Francisco, O=Copyleft Certificate Co, OU=My Organizational Unit, CN=ChangeMe/emailAddress=me@example.net
        Validity
            Not Before: Nov 10 17:42:05 2023 GMT
            Not After : Nov  9 17:42:05 2024 GMT
        Subject: C=US, ST=OH, L=Cincinnati, O=University of Cincinnati, OU=Dept_Elec_Com_ Eng_Com_Sci., CN=client55/emailAddress=franco@gauss.ececs.uc.edu
        Subject Public Key Info:
            Public Key Algorithm: rsaEncryption
                Public-Key: (2048 bit)
                Modulus:
                    00:c2:7d:71:4a:c2:dc:42:d0:67:19:bb:8c:40:00:
                    94:dc:86:bd:05:ae:9f:8c:e0:34:e9:52:90:ca:75:
                    e0:96:d5:29:66:c2:11:13:61:0b:be:c7:bb:74:cb:
                    72:a3:6c:d9:fe:d5:56:e0:6d:c7:21:db:50:2a:38:
                    66:18:cf:39:f9:3f:9e:34:c0:12:b4:e7:b4:0d:78:
                    b1:45:14:2b:a6:a6:4a:4c:ff:aa:45:59:c5:2b:fb:
                    df:3a:7d:d0:31:4b:e8:0b:3f:19:13:f1:9a:98:5f:
                    42:fb:10:23:5e:9a:fc:43:8f:d5:04:0a:98:7c:dc:
                    36:f6:8c:96:26:6c:83:45:69:5a:52:1e:d1:c6:24:
                    9f:42:85:81:1f:98:4e:66:57:17:28:a8:a9:5b:e1:
                    0c:75:df:7b:45:b9:a6:e7:5a:0f:a5:79:1f:74:d7:
                    1a:c5:29:89:d6:7f:d1:d8:88:97:77:d1:2d:f4:40:
                    8d:59:9a:53:aa:e0:fb:8d:6b:83:49:9a:63:88:f2:
                    29:d1:9c:1c:40:d1:db:06:54:7a:f3:dd:6d:cc:fe:
                    67:6e:21:33:7f:31:98:f8:71:37:5c:a7:69:7c:ff:
                    94:d5:71:74:6e:e6:c5:4c:06:3d:15:b1:a7:6a:32:
                    db:17:03:65:f6:e9:46:36:4f:97:2d:ac:5b:bf:58:
                    a0:33
                Exponent: 65537 (0x10001)
        X509v3 extensions:
            X509v3 Basic Constraints: 
                CA:FALSE
            X509v3 Subject Key Identifier: 
                3B:D0:12:1B:BB:E0:47:C6:90:AF:62:46:B2:E0:C5:F3:2B:F5:12:2E
            X509v3 Authority Key Identifier: 
                keyid:C8:27:DA:64:30:08:40:08:4A:25:CC:DC:43:99:DE:77:A1:FE:77:BD
                DirName:/C=US/ST=California/L=San Francisco/O=Copyleft Certificate Co/OU=My Organizational Unit/CN=ChangeMe/emailAddress=me@example.net
                serial:A9:48:C3:7E:FC:1B:B0:A1

            X509v3 Extended Key Usage: 
                TLS Web Client Authentication
            X509v3 Key Usage: 
                Digital Signature
    Signature Algorithm: sha256WithRSAEncryption
         85:b0:a8:2f:6c:fa:5c:b2:d6:3a:25:a7:f1:ba:76:08:8f:22:
         6c:31:0f:b4:ef:6e:67:67:9f:87:e0:bf:2e:c5:68:68:9b:36:
         7a:ae:4a:36:0a:60:f1:15:a2:49:7d:0d:4a:e0:36:5e:81:1f:
         1f:02:32:f9:42:85:22:c4:ee:6a:87:45:91:c0:6e:62:6b:62:
         07:45:43:69:71:13:d7:16:d0:98:2f:5f:33:c7:71:92:9d:b9:
         c1:2c:27:44:66:3e:69:ba:2c:55:30:7b:94:c2:ef:97:5b:9c:
         2a:2a:39:6f:02:f2:d8:e2:ea:c1:34:53:37:80:69:29:54:9d:
         2f:6c:fd:09:e3:77:3d:b2:99:ab:2f:af:27:bf:df:db:6b:f2:
         a1:1e:54:49:26:17:2f:d6:08:f2:6f:14:ac:9a:75:0f:34:db:
         8d:e6:84:96:53:b4:ca:11:1d:45:0c:d8:07:77:26:b5:0c:7e:
         16:45:9f:c9:53:c5:46:2d:14:ca:d8:cd:ff:ca:2a:f9:f0:b0:
         70:3d:f6:21:25:63:32:8d:96:64:f8:a6:1f:bd:69:07:60:e4:
         5d:9d:9e:ed:82:2b:80:bb:4a:6b:37:e9:34:ef:1b:0f:d5:37:
         ac:e5:9c:0a:55:b0:e3:b5:b6:87:ec:68:d9:14:6f:81:e0:a1:
         05:c1:53:17
-----BEGIN CERTIFICATE-----
MIIFKjCCBBKgAwIBAgIRAIQgi0pq4hbU4pzC4ouwtkEwDQYJKoZIhvcNAQELBQAw
ga8xCzAJBgNVBAYTAlVTMRMwEQYDVQQIDApDYWxpZm9ybmlhMRYwFAYDVQQHDA1T
YW4gRnJhbmNpc2NvMSAwHgYDVQQKDBdDb3B5bGVmdCBDZXJ0aWZpY2F0ZSBDbzEf
MB0GA1UECwwWTXkgT3JnYW5pemF0aW9uYWwgVW5pdDERMA8GA1UEAwwIQ2hhbmdl
TWUxHTAbBgkqhkiG9w0BCQEWDm1lQGV4YW1wbGUubmV0MB4XDTIzMTExMDE3NDIw
NVoXDTI0MTEwOTE3NDIwNVowgbUxCzAJBgNVBAYTAlVTMQswCQYDVQQIDAJPSDET
MBEGA1UEBwwKQ2luY2lubmF0aTEhMB8GA1UECgwYVW5pdmVyc2l0eSBvZiBDaW5j
aW5uYXRpMSQwIgYDVQQLDBtEZXB0X0VsZWNfQ29tXyBFbmdfQ29tX1NjaS4xETAP
BgNVBAMMCGNsaWVudDU1MSgwJgYJKoZIhvcNAQkBFhlmcmFuY29AZ2F1c3MuZWNl
Y3MudWMuZWR1MIIBIjANBgkqhkiG9w0BAQEFAAOCAQ8AMIIBCgKCAQEAwn1xSsLc
QtBnGbuMQACU3Ia9Ba6fjOA06VKQynXgltUpZsIRE2ELvse7dMtyo2zZ/tVW4G3H
IdtQKjhmGM85+T+eNMAStOe0DXixRRQrpqZKTP+qRVnFK/vfOn3QMUvoCz8ZE/Ga
mF9C+xAjXpr8Q4/VBAqYfNw29oyWJmyDRWlaUh7RxiSfQoWBH5hOZlcXKKipW+EM
dd97Rbmm51oPpXkfdNcaxSmJ1n/R2IiXd9Et9ECNWZpTquD7jWuDSZpjiPIp0Zwc
QNHbBlR6891tzP5nbiEzfzGY+HE3XKdpfP+U1XF0bubFTAY9FbGnajLbFwNl9ulG
Nk+XLaxbv1igMwIDAQABo4IBNzCCATMwCQYDVR0TBAIwADAdBgNVHQ4EFgQUO9AS
G7vgR8aQr2JGsuDF8yv1Ei4wgeQGA1UdIwSB3DCB2YAUyCfaZDAIQAhKJczcQ5ne
d6H+d72hgbWkgbIwga8xCzAJBgNVBAYTAlVTMRMwEQYDVQQIDApDYWxpZm9ybmlh
MRYwFAYDVQQHDA1TYW4gRnJhbmNpc2NvMSAwHgYDVQQKDBdDb3B5bGVmdCBDZXJ0
aWZpY2F0ZSBDbzEfMB0GA1UECwwWTXkgT3JnYW5pemF0aW9uYWwgVW5pdDERMA8G
A1UEAwwIQ2hhbmdlTWUxHTAbBgkqhkiG9w0BCQEWDm1lQGV4YW1wbGUubmV0ggkA
qUjDfvwbsKEwEwYDVR0lBAwwCgYIKwYBBQUHAwIwCwYDVR0PBAQDAgeAMA0GCSqG
SIb3DQEBCwUAA4IBAQCFsKgvbPpcstY6JafxunYIjyJsMQ+0725nZ5+H4L8uxWho
mzZ6rko2CmDxFaJJfQ1K4DZegR8fAjL5QoUixO5qh0WRwG5ia2IHRUNpcRPXFtCY
L18zx3GSnbnBLCdEZj5puixVMHuUwu+XW5wqKjlvAvLY4urBNFM3gGkpVJ0vbP0J
43c9spmrL68nv9/ba/KhHlRJJhcv1gjybxSsmnUPNNuN5oSWU7TKER1FDNgHdya1
DH4WRZ/JU8VGLRTK2M3/yir58LBwPfYhJWMyjZZk+KYfvWkHYORdnZ7tgiuAu0pr
N+k07xsP1Tes5ZwKVbDjtbaH7GjZFG+B4KEFwVMX
-----END CERTIFICATE-----
