Certificate:
    Data:
        Version: 3 (0x2)
        Serial Number:
            50:0f:d9:f5:14:28:07:b2:e2:44:23:5f:9f:41:56:16
    Signature Algorithm: sha256WithRSAEncryption
        Issuer: C=US, ST=California, L=San Francisco, O=Copyleft Certificate Co, OU=My Organizational Unit, CN=ChangeMe/emailAddress=me@example.net
        Validity
            Not Before: Nov 13 11:49:42 2023 GMT
            Not After : Nov 12 11:49:42 2024 GMT
        Subject: C=US, ST=OH, L=Cincinnati, O=University of Cincinnati, OU=Dept. Elec. Comp. Eng. Comp. Sci., CN=client49/emailAddress=franco@gauss.ececs.uc.edu
        Subject Public Key Info:
            Public Key Algorithm: rsaEncryption
                Public-Key: (2048 bit)
                Modulus:
                    00:9b:29:eb:b5:9d:a6:a6:74:41:14:23:bb:6c:f0:
                    57:7d:fa:59:8c:d6:d3:9a:2f:17:af:e8:0c:1a:bb:
                    8e:f6:61:c7:14:2d:3a:7b:f8:06:53:3f:70:e7:2c:
                    94:a2:33:ce:21:36:e1:b8:66:ee:61:d4:c9:98:a4:
                    52:89:4a:ef:ef:6c:95:26:9e:f4:d7:82:62:2a:45:
                    b7:60:1d:01:f7:c1:67:3d:07:df:5b:a6:fd:5d:f7:
                    8a:0c:90:31:eb:06:69:52:28:20:3d:b1:ba:8f:dc:
                    32:c8:19:33:54:38:b9:7d:bb:ac:c2:65:19:b6:52:
                    1a:79:64:4f:d5:6b:68:91:a3:f2:83:9c:61:40:22:
                    2e:a2:01:d8:7c:ce:c6:1b:1e:ee:96:ab:d4:ff:c6:
                    cd:50:7d:80:ef:98:ee:60:54:45:0f:9f:a6:c3:24:
                    82:56:b6:28:cb:34:cf:6d:ff:45:c8:a4:7a:3a:53:
                    2a:f0:75:80:78:c0:b4:00:1d:46:13:cc:a5:1f:39:
                    f1:96:b4:dc:2f:5f:cd:d1:55:33:3f:2f:71:96:c7:
                    24:1f:c7:2d:3f:e4:8e:43:94:59:51:7d:b3:60:1f:
                    02:c4:37:9a:36:b7:be:6e:ba:33:7c:86:af:01:90:
                    fc:1f:ed:a3:78:da:9b:c6:97:26:87:1f:82:46:32:
                    f5:b3
                Exponent: 65537 (0x10001)
        X509v3 extensions:
            X509v3 Basic Constraints: 
                CA:FALSE
            X509v3 Subject Key Identifier: 
                3A:EF:14:0D:CD:3A:9E:9D:65:1E:C1:84:06:29:D8:77:8A:27:0D:92
            X509v3 Authority Key Identifier: 
                keyid:B4:AE:AB:ED:FC:ED:84:AA:AD:77:5D:7C:84:28:1C:CA:CE:AE:2A:44
                DirName:/C=US/ST=California/L=San Francisco/O=Copyleft Certificate Co/OU=My Organizational Unit/CN=ChangeMe/emailAddress=me@example.net
                serial:BD:6C:3B:F4:D3:07:C9:D1

            X509v3 Extended Key Usage: 
                TLS Web Client Authentication
            X509v3 Key Usage: 
                Digital Signature
    Signature Algorithm: sha256WithRSAEncryption
         c4:07:4f:74:b0:e7:77:ef:cd:04:d7:85:13:ac:a8:f2:99:2e:
         f0:9a:53:19:59:d7:6f:97:24:d3:2e:e4:3e:cd:75:04:65:e1:
         a7:34:f6:a0:2b:fd:e7:2e:56:67:67:7e:4b:a8:82:55:93:4e:
         91:55:0f:f2:02:0c:21:3f:43:c5:54:0b:d9:72:8a:f8:8f:f5:
         c2:d2:b6:e9:8b:10:2d:2d:10:b0:42:51:68:36:dd:23:84:7d:
         41:e9:bf:83:73:78:a3:8f:72:68:48:a0:67:19:48:94:3f:30:
         7e:f1:6a:07:ca:1b:88:cf:2f:99:00:b1:e7:85:20:2f:4b:9c:
         0b:f2:fc:ab:f1:5d:2c:9f:f1:67:b6:c7:c0:ed:81:d0:ed:6f:
         24:25:08:91:21:4f:89:ca:2a:81:6e:79:ad:ae:d9:bf:c7:d7:
         ec:9d:5b:cd:88:99:2d:ee:44:fb:0d:34:da:26:46:0a:31:ee:
         13:f3:a9:39:5f:8b:27:13:3e:30:38:5f:29:c2:a7:da:33:c5:
         60:18:be:3a:2d:08:49:ac:f4:56:d8:02:1c:bd:a9:03:21:ec:
         f9:20:b2:74:f7:f0:ba:7a:0f:70:7e:93:a1:6d:17:f9:2b:e0:
         39:c8:d1:07:73:56:fa:06:24:c9:b7:05:d5:e3:1c:cf:7b:ac:
         e3:df:b0:4d
-----BEGIN CERTIFICATE-----
MIIFLzCCBBegAwIBAgIQUA/Z9RQoB7LiRCNfn0FWFjANBgkqhkiG9w0BAQsFADCB
rzELMAkGA1UEBhMCVVMxEzARBgNVBAgMCkNhbGlmb3JuaWExFjAUBgNVBAcMDVNh
biBGcmFuY2lzY28xIDAeBgNVBAoMF0NvcHlsZWZ0IENlcnRpZmljYXRlIENvMR8w
HQYDVQQLDBZNeSBPcmdhbml6YXRpb25hbCBVbml0MREwDwYDVQQDDAhDaGFuZ2VN
ZTEdMBsGCSqGSIb3DQEJARYObWVAZXhhbXBsZS5uZXQwHhcNMjMxMTEzMTE0OTQy
WhcNMjQxMTEyMTE0OTQyWjCBuzELMAkGA1UEBhMCVVMxCzAJBgNVBAgMAk9IMRMw
EQYDVQQHDApDaW5jaW5uYXRpMSEwHwYDVQQKDBhVbml2ZXJzaXR5IG9mIENpbmNp
bm5hdGkxKjAoBgNVBAsMIURlcHQuIEVsZWMuIENvbXAuIEVuZy4gQ29tcC4gU2Np
LjERMA8GA1UEAwwIY2xpZW50NDkxKDAmBgkqhkiG9w0BCQEWGWZyYW5jb0BnYXVz
cy5lY2Vjcy51Yy5lZHUwggEiMA0GCSqGSIb3DQEBAQUAA4IBDwAwggEKAoIBAQCb
Keu1naamdEEUI7ts8Fd9+lmM1tOaLxev6Awau472YccULTp7+AZTP3DnLJSiM84h
NuG4Zu5h1MmYpFKJSu/vbJUmnvTXgmIqRbdgHQH3wWc9B99bpv1d94oMkDHrBmlS
KCA9sbqP3DLIGTNUOLl9u6zCZRm2Uhp5ZE/Va2iRo/KDnGFAIi6iAdh8zsYbHu6W
q9T/xs1QfYDvmO5gVEUPn6bDJIJWtijLNM9t/0XIpHo6UyrwdYB4wLQAHUYTzKUf
OfGWtNwvX83RVTM/L3GWxyQfxy0/5I5DlFlRfbNgHwLEN5o2t75uujN8hq8BkPwf
7aN42pvGlyaHH4JGMvWzAgMBAAGjggE3MIIBMzAJBgNVHRMEAjAAMB0GA1UdDgQW
BBQ67xQNzTqenWUewYQGKdh3iicNkjCB5AYDVR0jBIHcMIHZgBS0rqvt/O2Eqq13
XXyEKBzKzq4qRKGBtaSBsjCBrzELMAkGA1UEBhMCVVMxEzARBgNVBAgMCkNhbGlm
b3JuaWExFjAUBgNVBAcMDVNhbiBGcmFuY2lzY28xIDAeBgNVBAoMF0NvcHlsZWZ0
IENlcnRpZmljYXRlIENvMR8wHQYDVQQLDBZNeSBPcmdhbml6YXRpb25hbCBVbml0
MREwDwYDVQQDDAhDaGFuZ2VNZTEdMBsGCSqGSIb3DQEJARYObWVAZXhhbXBsZS5u
ZXSCCQC9bDv00wfJ0TATBgNVHSUEDDAKBggrBgEFBQcDAjALBgNVHQ8EBAMCB4Aw
DQYJKoZIhvcNAQELBQADggEBAMQHT3Sw53fvzQTXhROsqPKZLvCaUxlZ12+XJNMu
5D7NdQRl4ac09qAr/ecuVmdnfkuoglWTTpFVD/ICDCE/Q8VUC9lyiviP9cLStumL
EC0tELBCUWg23SOEfUHpv4NzeKOPcmhIoGcZSJQ/MH7xagfKG4jPL5kAseeFIC9L
nAvy/KvxXSyf8We2x8DtgdDtbyQlCJEhT4nKKoFuea2u2b/H1+ydW82ImS3uRPsN
NNomRgox7hPzqTlfiycTPjA4XynCp9ozxWAYvjotCEms9FbYAhy9qQMh7PkgsnT3
8Lp6D3B+k6FtF/kr4DnI0QdzVvoGJMm3BdXjHM97rOPfsE0=
-----END CERTIFICATE-----
