Certificate:
    Data:
        Version: 3 (0x2)
        Serial Number:
            fa:4c:e7:e2:8a:bb:36:b5:0e:5c:38:2f:34:ac:98:6a
    Signature Algorithm: sha256WithRSAEncryption
        Issuer: C=US, ST=California, L=San Francisco, O=Copyleft Certificate Co, OU=My Organizational Unit, CN=ChangeMe/emailAddress=me@example.net
        Validity
            Not Before: Nov 10 17:42:17 2023 GMT
            Not After : Nov  9 17:42:17 2024 GMT
        Subject: C=US, ST=OH, L=Cincinnati, O=University of Cincinnati, OU=Dept_Elec_Com_ Eng_Com_Sci., CN=client58/emailAddress=franco@gauss.ececs.uc.edu
        Subject Public Key Info:
            Public Key Algorithm: rsaEncryption
                Public-Key: (2048 bit)
                Modulus:
                    00:c6:16:cb:40:68:12:74:ac:fe:cc:2a:0c:92:a4:
                    df:8b:d6:ed:76:0f:9b:e0:36:56:29:a0:59:e1:20:
                    35:6f:e6:2f:14:9f:19:66:47:52:58:8f:fb:9a:3a:
                    5d:7b:7a:25:02:c4:83:11:b4:5d:fb:0a:33:b9:b0:
                    c0:92:7e:57:7a:74:e8:dd:18:b6:f8:e1:37:a6:95:
                    fe:3a:b8:86:6f:e9:59:c0:7b:3b:9f:64:db:41:78:
                    1e:42:a0:08:e4:d7:ce:bc:ef:2c:bd:55:37:3a:ad:
                    ea:16:f7:a3:53:98:34:ed:35:fa:ea:4e:ef:de:96:
                    83:d8:e3:1b:62:89:1e:d4:fe:e1:1d:f0:bc:81:95:
                    3e:62:8b:aa:9b:e2:59:d6:dd:e5:88:5b:91:47:37:
                    73:e8:22:f0:54:2d:f0:c9:c1:5b:03:97:1d:60:92:
                    9c:d2:ca:67:17:48:7b:6c:2a:45:8a:f7:e1:18:f3:
                    75:af:5c:93:da:28:ab:80:cf:0e:1b:3f:d4:8a:6c:
                    ca:07:2b:07:af:e5:5e:99:a6:85:1e:0a:33:4d:78:
                    41:9a:2c:03:f0:36:57:65:0e:04:6f:9a:f6:62:61:
                    cc:07:bd:59:f5:ec:4e:76:45:1d:07:5c:23:02:cb:
                    14:7c:da:b2:ea:6f:2f:df:db:74:ae:e7:f4:cc:14:
                    95:bd
                Exponent: 65537 (0x10001)
        X509v3 extensions:
            X509v3 Basic Constraints: 
                CA:FALSE
            X509v3 Subject Key Identifier: 
                5E:9E:C1:83:41:52:CE:05:13:2F:AE:1A:DE:FC:F0:C9:B3:33:65:C2
            X509v3 Authority Key Identifier: 
                keyid:C8:27:DA:64:30:08:40:08:4A:25:CC:DC:43:99:DE:77:A1:FE:77:BD
                DirName:/C=US/ST=California/L=San Francisco/O=Copyleft Certificate Co/OU=My Organizational Unit/CN=ChangeMe/emailAddress=me@example.net
                serial:A9:48:C3:7E:FC:1B:B0:A1

            X509v3 Extended Key Usage: 
                TLS Web Client Authentication
            X509v3 Key Usage: 
                Digital Signature
    Signature Algorithm: sha256WithRSAEncryption
         04:3a:0b:04:ae:b8:80:67:4c:a3:ef:aa:81:0c:d0:01:bf:ca:
         73:a6:01:cb:77:17:f1:3b:2d:8f:5e:99:08:f3:b7:1e:a5:51:
         f5:1b:52:8a:f2:4e:70:c4:16:da:e0:e3:a1:2c:ba:62:fc:a1:
         dd:7c:2d:87:c5:e2:a7:dd:40:9e:7f:da:fc:c4:8e:61:bb:09:
         7f:e2:08:a3:7f:12:35:58:b6:8c:78:ce:5f:6c:e0:ab:bf:4c:
         b8:00:8c:d6:e4:33:e5:02:06:2d:6c:50:57:c2:8e:7d:53:ce:
         4e:0e:b5:5c:b4:0b:94:de:65:b6:73:89:b5:8c:eb:92:87:44:
         8a:ae:44:8d:27:9d:c3:ac:5e:71:6b:48:5e:e8:2e:a8:d1:9e:
         bf:fa:bb:9e:f4:a8:db:26:44:64:c0:a9:d7:a8:ca:9a:e6:d1:
         0c:f2:df:1c:ad:0c:be:58:ae:53:f5:50:29:fe:31:a4:c3:84:
         57:fc:2a:43:73:c1:eb:96:ec:6f:fd:90:6b:52:48:22:be:42:
         7b:84:eb:69:d2:67:cf:41:77:94:20:3f:5c:fa:d2:d1:31:49:
         9e:ef:da:6d:99:50:35:78:fb:f0:aa:dc:53:51:4a:da:43:6a:
         c1:1f:f5:1a:22:40:6f:3a:0e:e1:18:1d:75:61:51:9f:5a:65:
         c5:99:97:09
-----BEGIN CERTIFICATE-----
MIIFKjCCBBKgAwIBAgIRAPpM5+KKuza1Dlw4LzSsmGowDQYJKoZIhvcNAQELBQAw
ga8xCzAJBgNVBAYTAlVTMRMwEQYDVQQIDApDYWxpZm9ybmlhMRYwFAYDVQQHDA1T
YW4gRnJhbmNpc2NvMSAwHgYDVQQKDBdDb3B5bGVmdCBDZXJ0aWZpY2F0ZSBDbzEf
MB0GA1UECwwWTXkgT3JnYW5pemF0aW9uYWwgVW5pdDERMA8GA1UEAwwIQ2hhbmdl
TWUxHTAbBgkqhkiG9w0BCQEWDm1lQGV4YW1wbGUubmV0MB4XDTIzMTExMDE3NDIx
N1oXDTI0MTEwOTE3NDIxN1owgbUxCzAJBgNVBAYTAlVTMQswCQYDVQQIDAJPSDET
MBEGA1UEBwwKQ2luY2lubmF0aTEhMB8GA1UECgwYVW5pdmVyc2l0eSBvZiBDaW5j
aW5uYXRpMSQwIgYDVQQLDBtEZXB0X0VsZWNfQ29tXyBFbmdfQ29tX1NjaS4xETAP
BgNVBAMMCGNsaWVudDU4MSgwJgYJKoZIhvcNAQkBFhlmcmFuY29AZ2F1c3MuZWNl
Y3MudWMuZWR1MIIBIjANBgkqhkiG9w0BAQEFAAOCAQ8AMIIBCgKCAQEAxhbLQGgS
dKz+zCoMkqTfi9btdg+b4DZWKaBZ4SA1b+YvFJ8ZZkdSWI/7mjpde3olAsSDEbRd
+wozubDAkn5XenTo3Ri2+OE3ppX+OriGb+lZwHs7n2TbQXgeQqAI5NfOvO8svVU3
Oq3qFvejU5g07TX66k7v3paD2OMbYoke1P7hHfC8gZU+Youqm+JZ1t3liFuRRzdz
6CLwVC3wycFbA5cdYJKc0spnF0h7bCpFivfhGPN1r1yT2iirgM8OGz/UimzKBysH
r+VemaaFHgozTXhBmiwD8DZXZQ4Eb5r2YmHMB71Z9exOdkUdB1wjAssUfNqy6m8v
39t0ruf0zBSVvQIDAQABo4IBNzCCATMwCQYDVR0TBAIwADAdBgNVHQ4EFgQUXp7B
g0FSzgUTL64a3vzwybMzZcIwgeQGA1UdIwSB3DCB2YAUyCfaZDAIQAhKJczcQ5ne
d6H+d72hgbWkgbIwga8xCzAJBgNVBAYTAlVTMRMwEQYDVQQIDApDYWxpZm9ybmlh
MRYwFAYDVQQHDA1TYW4gRnJhbmNpc2NvMSAwHgYDVQQKDBdDb3B5bGVmdCBDZXJ0
aWZpY2F0ZSBDbzEfMB0GA1UECwwWTXkgT3JnYW5pemF0aW9uYWwgVW5pdDERMA8G
A1UEAwwIQ2hhbmdlTWUxHTAbBgkqhkiG9w0BCQEWDm1lQGV4YW1wbGUubmV0ggkA
qUjDfvwbsKEwEwYDVR0lBAwwCgYIKwYBBQUHAwIwCwYDVR0PBAQDAgeAMA0GCSqG
SIb3DQEBCwUAA4IBAQAEOgsErriAZ0yj76qBDNABv8pzpgHLdxfxOy2PXpkI87ce
pVH1G1KK8k5wxBba4OOhLLpi/KHdfC2HxeKn3UCef9r8xI5huwl/4gijfxI1WLaM
eM5fbOCrv0y4AIzW5DPlAgYtbFBXwo59U85ODrVctAuU3mW2c4m1jOuSh0SKrkSN
J53DrF5xa0he6C6o0Z6/+rue9KjbJkRkwKnXqMqa5tEM8t8crQy+WK5T9VAp/jGk
w4RX/CpDc8Hrluxv/ZBrUkgivkJ7hOtp0mfPQXeUID9c+tLRMUme79ptmVA1ePvw
qtxTUUraQ2rBH/UaIkBvOg7hGB11YVGfWmXFmZcJ
-----END CERTIFICATE-----
