Certificate:
    Data:
        Version: 3 (0x2)
        Serial Number:
            9a:90:b4:32:47:c1:15:6d:e2:b2:ad:0c:f2:5a:62:57
    Signature Algorithm: sha256WithRSAEncryption
        Issuer: C=US, ST=California, L=San Francisco, O=Copyleft Certificate Co, OU=My Organizational Unit, CN=ChangeMe/emailAddress=me@example.net
        Validity
            Not Before: Nov 11 10:58:28 2023 GMT
            Not After : Nov 10 10:58:28 2024 GMT
        Subject: C=US, ST=OH, L=Cincinnati, O=University of Cincinnati, OU=Dept. Elec. Comp. Eng. Comp. Sci., CN=client48/emailAddress=franco@gauss.ececs.uc.edu
        Subject Public Key Info:
            Public Key Algorithm: rsaEncryption
                Public-Key: (2048 bit)
                Modulus:
                    00:ca:29:ae:5f:7c:4d:b0:5e:01:36:a4:bd:7a:29:
                    ac:40:e0:62:dc:a8:07:98:d2:4f:46:ab:b2:c2:7e:
                    09:8d:24:bc:32:24:02:44:25:ee:4e:e7:e9:33:b6:
                    92:ec:a3:a3:35:be:2d:2f:74:de:b9:01:00:c0:21:
                    61:12:f3:c0:fe:f4:16:90:9f:b0:f9:20:bd:e7:3f:
                    46:9b:83:9b:09:99:a6:64:2b:c2:47:b9:e0:17:e3:
                    78:80:c1:86:33:1c:3c:5d:46:d8:0b:49:a9:11:6e:
                    bc:16:4e:d6:4c:b8:bd:9b:92:22:d3:a4:c4:e1:d4:
                    ee:a6:5f:c4:be:a3:36:a0:2b:a7:cc:99:f7:77:f3:
                    cf:7f:c0:5b:ff:e0:d8:4f:58:80:ba:53:f5:f9:3f:
                    a9:c0:b4:21:91:4a:62:b1:8b:b3:3a:c7:92:18:85:
                    02:1d:65:3c:39:ff:b6:73:63:f7:38:34:ed:ff:8e:
                    f8:ab:70:9e:42:96:46:94:5c:20:07:7d:fe:5a:9e:
                    31:d7:a4:2b:ad:c2:b8:74:4f:e1:b9:1d:86:c5:76:
                    57:49:65:46:e5:b4:4a:a1:69:ff:1c:ec:24:27:91:
                    fa:6b:09:d6:73:ed:3f:0d:22:ed:4e:ee:ac:48:25:
                    dd:d2:4f:27:bc:82:d6:ea:a7:d8:3d:01:82:30:07:
                    c7:0d
                Exponent: 65537 (0x10001)
        X509v3 extensions:
            X509v3 Basic Constraints: 
                CA:FALSE
            X509v3 Subject Key Identifier: 
                2D:F7:2D:51:22:E9:24:DE:4C:4E:A3:10:5C:9F:57:A3:AE:F0:36:45
            X509v3 Authority Key Identifier: 
                keyid:44:01:CC:06:0B:41:75:CB:C8:FB:C9:37:86:2D:9D:D2:D8:79:B6:8B
                DirName:/C=US/ST=California/L=San Francisco/O=Copyleft Certificate Co/OU=My Organizational Unit/CN=ChangeMe/emailAddress=me@example.net
                serial:AF:E8:E0:DD:C5:8B:0E:DD

            X509v3 Extended Key Usage: 
                TLS Web Client Authentication
            X509v3 Key Usage: 
                Digital Signature
    Signature Algorithm: sha256WithRSAEncryption
         07:2e:23:c5:61:e1:dc:ed:ee:ef:e7:49:9a:38:6d:10:e4:d4:
         df:50:14:26:2c:42:93:82:70:0d:26:ca:c0:85:53:0d:fc:e6:
         8f:d5:12:f8:eb:7c:01:d6:5f:ef:8f:31:94:05:1d:51:c6:9a:
         a8:af:11:5c:71:a0:d4:69:77:c2:43:a1:27:22:b2:48:82:f3:
         93:a7:f5:b1:51:ac:db:d0:f2:89:5f:1e:4b:0c:cf:d1:b6:18:
         9f:f9:e9:e8:3d:6c:f3:8c:b4:1a:9a:30:be:a2:37:d2:df:2b:
         fa:b5:5c:f4:81:b1:18:b8:e2:c5:d2:1d:e9:5a:87:f6:64:f0:
         8f:39:2d:50:82:26:f6:12:88:f9:85:72:12:ee:bd:a8:2e:a3:
         bc:f2:87:ef:f8:8b:b1:36:93:2f:9d:e6:d6:8d:10:cd:be:3b:
         9a:d2:cd:1d:31:27:b3:cf:1b:9a:7d:21:d8:ba:47:f0:95:10:
         08:cf:56:78:89:85:38:92:52:df:75:15:42:b1:98:4d:a6:a0:
         7f:cd:d4:71:f3:4a:c6:21:71:27:88:56:ec:16:16:fd:8c:52:
         02:db:77:f9:f2:a3:21:31:62:86:11:9b:d6:5d:0f:8b:28:cc:
         81:a8:10:91:f9:04:aa:5e:d4:55:a1:43:b1:2d:e8:06:53:34:
         f2:f1:ba:7e
-----BEGIN CERTIFICATE-----
MIIFMDCCBBigAwIBAgIRAJqQtDJHwRVt4rKtDPJaYlcwDQYJKoZIhvcNAQELBQAw
ga8xCzAJBgNVBAYTAlVTMRMwEQYDVQQIDApDYWxpZm9ybmlhMRYwFAYDVQQHDA1T
YW4gRnJhbmNpc2NvMSAwHgYDVQQKDBdDb3B5bGVmdCBDZXJ0aWZpY2F0ZSBDbzEf
MB0GA1UECwwWTXkgT3JnYW5pemF0aW9uYWwgVW5pdDERMA8GA1UEAwwIQ2hhbmdl
TWUxHTAbBgkqhkiG9w0BCQEWDm1lQGV4YW1wbGUubmV0MB4XDTIzMTExMTEwNTgy
OFoXDTI0MTExMDEwNTgyOFowgbsxCzAJBgNVBAYTAlVTMQswCQYDVQQIDAJPSDET
MBEGA1UEBwwKQ2luY2lubmF0aTEhMB8GA1UECgwYVW5pdmVyc2l0eSBvZiBDaW5j
aW5uYXRpMSowKAYDVQQLDCFEZXB0LiBFbGVjLiBDb21wLiBFbmcuIENvbXAuIFNj
aS4xETAPBgNVBAMMCGNsaWVudDQ4MSgwJgYJKoZIhvcNAQkBFhlmcmFuY29AZ2F1
c3MuZWNlY3MudWMuZWR1MIIBIjANBgkqhkiG9w0BAQEFAAOCAQ8AMIIBCgKCAQEA
yimuX3xNsF4BNqS9eimsQOBi3KgHmNJPRquywn4JjSS8MiQCRCXuTufpM7aS7KOj
Nb4tL3TeuQEAwCFhEvPA/vQWkJ+w+SC95z9Gm4ObCZmmZCvCR7ngF+N4gMGGMxw8
XUbYC0mpEW68Fk7WTLi9m5Ii06TE4dTupl/EvqM2oCunzJn3d/PPf8Bb/+DYT1iA
ulP1+T+pwLQhkUpisYuzOseSGIUCHWU8Of+2c2P3ODTt/474q3CeQpZGlFwgB33+
Wp4x16QrrcK4dE/huR2GxXZXSWVG5bRKoWn/HOwkJ5H6awnWc+0/DSLtTu6sSCXd
0k8nvILW6qfYPQGCMAfHDQIDAQABo4IBNzCCATMwCQYDVR0TBAIwADAdBgNVHQ4E
FgQULfctUSLpJN5MTqMQXJ9Xo67wNkUwgeQGA1UdIwSB3DCB2YAURAHMBgtBdcvI
+8k3hi2d0th5touhgbWkgbIwga8xCzAJBgNVBAYTAlVTMRMwEQYDVQQIDApDYWxp
Zm9ybmlhMRYwFAYDVQQHDA1TYW4gRnJhbmNpc2NvMSAwHgYDVQQKDBdDb3B5bGVm
dCBDZXJ0aWZpY2F0ZSBDbzEfMB0GA1UECwwWTXkgT3JnYW5pemF0aW9uYWwgVW5p
dDERMA8GA1UEAwwIQ2hhbmdlTWUxHTAbBgkqhkiG9w0BCQEWDm1lQGV4YW1wbGUu
bmV0ggkAr+jg3cWLDt0wEwYDVR0lBAwwCgYIKwYBBQUHAwIwCwYDVR0PBAQDAgeA
MA0GCSqGSIb3DQEBCwUAA4IBAQAHLiPFYeHc7e7v50maOG0Q5NTfUBQmLEKTgnAN
JsrAhVMN/OaP1RL463wB1l/vjzGUBR1RxpqorxFccaDUaXfCQ6EnIrJIgvOTp/Wx
Uazb0PKJXx5LDM/Rthif+enoPWzzjLQamjC+ojfS3yv6tVz0gbEYuOLF0h3pWof2
ZPCPOS1Qgib2Eoj5hXIS7r2oLqO88ofv+IuxNpMvnebWjRDNvjua0s0dMSezzxua
fSHYukfwlRAIz1Z4iYU4klLfdRVCsZhNpqB/zdRx80rGIXEniFbsFhb9jFIC23f5
8qMhMWKGEZvWXQ+LKMyBqBCR+QSqXtRVoUOxLegGUzTy8bp+
-----END CERTIFICATE-----
