Certificate:
    Data:
        Version: 3 (0x2)
        Serial Number:
            32:62:60:ee:c5:0c:35:94:4c:e8:32:a7:35:f4:a2:e7
    Signature Algorithm: sha256WithRSAEncryption
        Issuer: C=US, ST=California, L=San Francisco, O=Copyleft Certificate Co, OU=My Organizational Unit, CN=ChangeMe/emailAddress=me@example.net
        Validity
            Not Before: Nov 11 02:01:19 2023 GMT
            Not After : Nov 10 02:01:19 2024 GMT
        Subject: C=US, ST=OH, L=Cincinnati, O=University of Cincinnati, OU=Dept. Elec. Comp. Eng. Comp. Sci., CN=client49/emailAddress=franco@gauss.ececs.uc.edu
        Subject Public Key Info:
            Public Key Algorithm: rsaEncryption
                Public-Key: (2048 bit)
                Modulus:
                    00:ef:4d:b0:c4:71:b7:fd:0e:dd:5c:d1:4d:d5:41:
                    05:62:21:f3:13:f5:c7:5f:07:b1:d0:40:a0:fd:65:
                    f8:b6:0c:48:bd:88:62:50:7a:cb:ca:e5:a7:fc:16:
                    23:56:c4:fb:f3:d1:9c:5c:b4:12:fb:df:a9:26:8f:
                    70:f9:3a:a4:13:03:76:0a:3c:a5:29:bd:62:44:86:
                    40:8f:db:bc:eb:87:46:33:6b:a7:7d:6d:5d:9b:0a:
                    7a:c2:79:0a:f7:d5:a3:34:22:bf:41:6f:85:13:e8:
                    1e:8e:d7:5d:85:a0:f5:3f:96:8b:9e:86:8e:8f:dc:
                    8b:3e:25:6b:0c:be:3a:dd:de:09:1c:67:c6:9a:8d:
                    61:62:19:ff:cc:1a:91:e5:09:7d:ef:46:68:b4:1b:
                    9b:2d:9c:82:46:de:92:59:31:01:10:db:47:b5:59:
                    26:7a:59:c6:e1:3d:ef:6f:0b:7c:f9:5a:ce:c0:20:
                    23:16:48:8d:a9:4b:17:9f:03:b1:fc:b9:7f:7c:9d:
                    a9:e3:c9:4b:66:b4:84:38:70:30:df:81:ae:22:7e:
                    c0:19:08:1b:11:31:71:6e:f7:f8:2c:8c:08:2b:20:
                    21:0d:87:5b:6c:4d:a9:a9:4a:d3:6e:f6:68:98:29:
                    d4:04:18:41:1d:94:ab:12:34:88:51:cf:b2:0b:8e:
                    ee:8d
                Exponent: 65537 (0x10001)
        X509v3 extensions:
            X509v3 Basic Constraints: 
                CA:FALSE
            X509v3 Subject Key Identifier: 
                E1:25:37:F4:17:C0:3F:C7:A7:5F:A4:83:2F:8E:07:24:1D:D5:62:C2
            X509v3 Authority Key Identifier: 
                keyid:7B:0F:93:16:64:9F:71:41:D3:1B:FB:ED:6A:70:9B:CA:2E:70:F0:4B
                DirName:/C=US/ST=California/L=San Francisco/O=Copyleft Certificate Co/OU=My Organizational Unit/CN=ChangeMe/emailAddress=me@example.net
                serial:B9:F2:4E:2C:79:B3:D4:6C

            X509v3 Extended Key Usage: 
                TLS Web Client Authentication
            X509v3 Key Usage: 
                Digital Signature
    Signature Algorithm: sha256WithRSAEncryption
         66:f0:8c:73:33:4c:6b:86:d4:d0:1d:82:11:33:a0:96:1b:ff:
         a3:25:a0:9f:cf:da:fe:ce:2b:63:72:cc:d4:73:05:be:f6:88:
         b9:ae:31:97:1c:aa:77:3d:31:06:95:ba:4b:92:79:52:50:a3:
         fa:d2:65:b1:e2:f7:ab:cb:30:9b:89:bc:d3:d5:b7:f1:bf:f8:
         ee:c8:ee:e1:36:3a:f9:f7:e7:1f:8e:47:df:e3:86:92:fb:09:
         7a:cf:54:f5:ac:3e:c0:a3:c9:ae:30:8c:c7:92:b0:36:5e:be:
         f6:8a:cc:9a:94:5a:69:ea:5c:70:61:93:ca:db:a6:1b:cc:b1:
         95:ad:8a:cf:45:26:7a:dc:d3:31:6c:42:9b:bb:40:b9:9c:5e:
         e5:0b:9c:9e:b2:f0:54:8d:0a:56:05:ef:07:e3:27:2b:1c:1f:
         17:e2:1f:ff:02:cd:71:22:e1:06:94:33:7c:16:6b:b2:d9:cd:
         57:2b:bd:2e:ba:a1:8a:3b:3a:8d:22:37:e4:96:37:ec:a4:df:
         e4:41:94:8d:b2:88:dc:0e:b4:29:a5:df:da:e2:44:5d:fc:d9:
         54:13:22:23:cd:86:d3:39:19:e2:66:26:1e:98:fe:69:46:ce:
         fc:db:da:cc:e5:66:d8:3b:ab:cb:d9:60:cc:1e:25:ff:fe:95:
         6e:44:73:26
-----BEGIN CERTIFICATE-----
MIIFLzCCBBegAwIBAgIQMmJg7sUMNZRM6DKnNfSi5zANBgkqhkiG9w0BAQsFADCB
rzELMAkGA1UEBhMCVVMxEzARBgNVBAgMCkNhbGlmb3JuaWExFjAUBgNVBAcMDVNh
biBGcmFuY2lzY28xIDAeBgNVBAoMF0NvcHlsZWZ0IENlcnRpZmljYXRlIENvMR8w
HQYDVQQLDBZNeSBPcmdhbml6YXRpb25hbCBVbml0MREwDwYDVQQDDAhDaGFuZ2VN
ZTEdMBsGCSqGSIb3DQEJARYObWVAZXhhbXBsZS5uZXQwHhcNMjMxMTExMDIwMTE5
WhcNMjQxMTEwMDIwMTE5WjCBuzELMAkGA1UEBhMCVVMxCzAJBgNVBAgMAk9IMRMw
EQYDVQQHDApDaW5jaW5uYXRpMSEwHwYDVQQKDBhVbml2ZXJzaXR5IG9mIENpbmNp
bm5hdGkxKjAoBgNVBAsMIURlcHQuIEVsZWMuIENvbXAuIEVuZy4gQ29tcC4gU2Np
LjERMA8GA1UEAwwIY2xpZW50NDkxKDAmBgkqhkiG9w0BCQEWGWZyYW5jb0BnYXVz
cy5lY2Vjcy51Yy5lZHUwggEiMA0GCSqGSIb3DQEBAQUAA4IBDwAwggEKAoIBAQDv
TbDEcbf9Dt1c0U3VQQViIfMT9cdfB7HQQKD9Zfi2DEi9iGJQesvK5af8FiNWxPvz
0ZxctBL736kmj3D5OqQTA3YKPKUpvWJEhkCP27zrh0Yza6d9bV2bCnrCeQr31aM0
Ir9Bb4UT6B6O112FoPU/loueho6P3Is+JWsMvjrd3gkcZ8aajWFiGf/MGpHlCX3v
Rmi0G5stnIJG3pJZMQEQ20e1WSZ6WcbhPe9vC3z5Ws7AICMWSI2pSxefA7H8uX98
nanjyUtmtIQ4cDDfga4ifsAZCBsRMXFu9/gsjAgrICENh1tsTampStNu9miYKdQE
GEEdlKsSNIhRz7ILju6NAgMBAAGjggE3MIIBMzAJBgNVHRMEAjAAMB0GA1UdDgQW
BBThJTf0F8A/x6dfpIMvjgckHdViwjCB5AYDVR0jBIHcMIHZgBR7D5MWZJ9xQdMb
++1qcJvKLnDwS6GBtaSBsjCBrzELMAkGA1UEBhMCVVMxEzARBgNVBAgMCkNhbGlm
b3JuaWExFjAUBgNVBAcMDVNhbiBGcmFuY2lzY28xIDAeBgNVBAoMF0NvcHlsZWZ0
IENlcnRpZmljYXRlIENvMR8wHQYDVQQLDBZNeSBPcmdhbml6YXRpb25hbCBVbml0
MREwDwYDVQQDDAhDaGFuZ2VNZTEdMBsGCSqGSIb3DQEJARYObWVAZXhhbXBsZS5u
ZXSCCQC58k4sebPUbDATBgNVHSUEDDAKBggrBgEFBQcDAjALBgNVHQ8EBAMCB4Aw
DQYJKoZIhvcNAQELBQADggEBAGbwjHMzTGuG1NAdghEzoJYb/6MloJ/P2v7OK2Ny
zNRzBb72iLmuMZccqnc9MQaVukuSeVJQo/rSZbHi96vLMJuJvNPVt/G/+O7I7uE2
Ovn35x+OR9/jhpL7CXrPVPWsPsCjya4wjMeSsDZevvaKzJqUWmnqXHBhk8rbphvM
sZWtis9FJnrc0zFsQpu7QLmcXuULnJ6y8FSNClYF7wfjJyscHxfiH/8CzXEi4QaU
M3wWa7LZzVcrvS66oYo7Oo0iN+SWN+yk3+RBlI2yiNwOtCml39riRF382VQTIiPN
htM5GeJmJh6Y/mlGzvzb2szlZtg7q8vZYMweJf/+lW5EcyY=
-----END CERTIFICATE-----
