Certificate:
    Data:
        Version: 3 (0x2)
        Serial Number:
            9a:7b:e6:c2:ba:bb:29:63:c3:1d:70:f2:05:68:e2:89
    Signature Algorithm: sha256WithRSAEncryption
        Issuer: C=US, ST=California, L=San Francisco, O=Copyleft Certificate Co, OU=My Organizational Unit, CN=ChangeMe/emailAddress=me@example.net
        Validity
            Not Before: Nov 10 17:45:30 2023 GMT
            Not After : Nov  9 17:45:30 2024 GMT
        Subject: C=US, ST=OH, L=Cincinnati, O=University of Cincinnati, OU=Dept_Elec_Com_ Eng_Com_Sci., CN=client106/emailAddress=franco@gauss.ececs.uc.edu
        Subject Public Key Info:
            Public Key Algorithm: rsaEncryption
                Public-Key: (2048 bit)
                Modulus:
                    00:be:83:8c:23:9b:07:3c:f1:5d:f7:41:ef:dc:a8:
                    eb:8e:86:03:b5:86:85:68:dc:56:33:f6:68:ef:d4:
                    24:9d:d1:6d:e1:68:8b:f3:3a:b5:75:c5:08:32:81:
                    7c:4d:f7:a7:fc:87:11:51:62:5a:64:57:78:d1:3c:
                    af:09:5f:e4:a9:f2:10:a2:87:9a:61:0b:5a:d9:a1:
                    a4:97:1d:2b:44:9c:f9:0f:b4:d0:14:cd:14:32:38:
                    44:94:0e:42:cb:d7:1a:42:f8:18:b6:05:fd:42:2b:
                    bf:81:d9:1a:3f:b3:17:fb:8c:dd:89:11:c9:60:a2:
                    58:23:1b:41:71:67:c3:3a:ad:b9:ba:72:9e:24:3e:
                    69:8b:a2:48:35:fb:35:b7:19:1b:aa:66:ca:82:a1:
                    63:7b:82:e8:f8:8c:c5:6e:d3:a0:d6:83:be:eb:a9:
                    6a:ea:b2:4a:3c:85:56:0c:fd:74:e8:dc:29:a1:0c:
                    1d:70:77:77:37:49:22:e7:dd:76:0e:ab:68:4a:25:
                    c5:a1:65:e5:8d:9b:d7:3f:d9:b7:2d:f2:b9:31:ff:
                    d3:d0:7a:a1:ff:e4:31:68:86:bb:9f:c9:c0:7f:15:
                    ec:af:a1:71:16:88:de:7e:66:cc:45:bb:ec:24:16:
                    ef:f5:1e:71:46:ff:29:f4:94:15:75:4e:a7:4d:02:
                    59:89
                Exponent: 65537 (0x10001)
        X509v3 extensions:
            X509v3 Basic Constraints: 
                CA:FALSE
            X509v3 Subject Key Identifier: 
                4B:D1:AE:9E:DC:A4:BE:08:F3:AE:B0:23:BC:E4:78:C4:CF:45:1F:37
            X509v3 Authority Key Identifier: 
                keyid:C8:27:DA:64:30:08:40:08:4A:25:CC:DC:43:99:DE:77:A1:FE:77:BD
                DirName:/C=US/ST=California/L=San Francisco/O=Copyleft Certificate Co/OU=My Organizational Unit/CN=ChangeMe/emailAddress=me@example.net
                serial:A9:48:C3:7E:FC:1B:B0:A1

            X509v3 Extended Key Usage: 
                TLS Web Client Authentication
            X509v3 Key Usage: 
                Digital Signature
    Signature Algorithm: sha256WithRSAEncryption
         a8:9d:17:49:ce:7e:54:b5:f5:61:ef:25:72:d8:8c:fa:0f:76:
         1b:6c:6e:7a:db:6e:e9:d7:89:4d:6f:0d:f9:3b:df:f4:ea:83:
         3d:59:40:79:0e:b8:a4:1e:87:17:eb:41:5e:f3:0e:a8:94:73:
         7e:36:99:ea:2f:51:30:9d:db:e1:4c:8e:60:11:50:a3:06:f4:
         da:2a:01:19:09:c3:b6:a0:3e:d6:96:79:59:be:c1:74:42:9c:
         cc:ef:db:1e:d3:be:40:ca:c5:0e:3c:21:df:1d:df:c5:5c:9c:
         99:dd:b1:80:7a:2e:1f:d4:b5:78:3f:20:ec:f7:f4:30:19:cd:
         dc:27:0e:8a:4b:9b:f8:1b:0e:d8:ca:6b:c6:19:da:11:32:95:
         f9:d8:a0:ef:3b:4b:c5:e0:fa:c8:5b:e4:d1:1d:84:4b:8c:3d:
         11:41:4c:df:af:62:18:fb:6d:17:49:83:94:26:1e:b0:c6:b9:
         bb:4b:51:20:4d:5c:ef:2e:42:24:b6:c5:de:b4:51:d3:97:82:
         0e:7e:f1:a3:54:06:8a:70:4b:a4:f1:eb:9b:a6:7d:07:4d:fe:
         9e:64:23:6d:cc:f5:81:84:e1:06:43:bc:2b:c6:3f:6d:88:60:
         25:ac:25:42:b9:17:0e:3b:07:e3:bf:7c:b4:17:3d:8a:2a:4c:
         06:93:ae:9e
-----BEGIN CERTIFICATE-----
MIIFKzCCBBOgAwIBAgIRAJp75sK6uyljwx1w8gVo4okwDQYJKoZIhvcNAQELBQAw
ga8xCzAJBgNVBAYTAlVTMRMwEQYDVQQIDApDYWxpZm9ybmlhMRYwFAYDVQQHDA1T
YW4gRnJhbmNpc2NvMSAwHgYDVQQKDBdDb3B5bGVmdCBDZXJ0aWZpY2F0ZSBDbzEf
MB0GA1UECwwWTXkgT3JnYW5pemF0aW9uYWwgVW5pdDERMA8GA1UEAwwIQ2hhbmdl
TWUxHTAbBgkqhkiG9w0BCQEWDm1lQGV4YW1wbGUubmV0MB4XDTIzMTExMDE3NDUz
MFoXDTI0MTEwOTE3NDUzMFowgbYxCzAJBgNVBAYTAlVTMQswCQYDVQQIDAJPSDET
MBEGA1UEBwwKQ2luY2lubmF0aTEhMB8GA1UECgwYVW5pdmVyc2l0eSBvZiBDaW5j
aW5uYXRpMSQwIgYDVQQLDBtEZXB0X0VsZWNfQ29tXyBFbmdfQ29tX1NjaS4xEjAQ
BgNVBAMMCWNsaWVudDEwNjEoMCYGCSqGSIb3DQEJARYZZnJhbmNvQGdhdXNzLmVj
ZWNzLnVjLmVkdTCCASIwDQYJKoZIhvcNAQEBBQADggEPADCCAQoCggEBAL6DjCOb
BzzxXfdB79yo646GA7WGhWjcVjP2aO/UJJ3RbeFoi/M6tXXFCDKBfE33p/yHEVFi
WmRXeNE8rwlf5KnyEKKHmmELWtmhpJcdK0Sc+Q+00BTNFDI4RJQOQsvXGkL4GLYF
/UIrv4HZGj+zF/uM3YkRyWCiWCMbQXFnwzqtubpyniQ+aYuiSDX7NbcZG6pmyoKh
Y3uC6PiMxW7ToNaDvuupauqySjyFVgz9dOjcKaEMHXB3dzdJIufddg6raEolxaFl
5Y2b1z/Zty3yuTH/09B6of/kMWiGu5/JwH8V7K+hcRaI3n5mzEW77CQW7/UecUb/
KfSUFXVOp00CWYkCAwEAAaOCATcwggEzMAkGA1UdEwQCMAAwHQYDVR0OBBYEFEvR
rp7cpL4I866wI7zkeMTPRR83MIHkBgNVHSMEgdwwgdmAFMgn2mQwCEAISiXM3EOZ
3neh/ne9oYG1pIGyMIGvMQswCQYDVQQGEwJVUzETMBEGA1UECAwKQ2FsaWZvcm5p
YTEWMBQGA1UEBwwNU2FuIEZyYW5jaXNjbzEgMB4GA1UECgwXQ29weWxlZnQgQ2Vy
dGlmaWNhdGUgQ28xHzAdBgNVBAsMFk15IE9yZ2FuaXphdGlvbmFsIFVuaXQxETAP
BgNVBAMMCENoYW5nZU1lMR0wGwYJKoZIhvcNAQkBFg5tZUBleGFtcGxlLm5ldIIJ
AKlIw378G7ChMBMGA1UdJQQMMAoGCCsGAQUFBwMCMAsGA1UdDwQEAwIHgDANBgkq
hkiG9w0BAQsFAAOCAQEAqJ0XSc5+VLX1Ye8lctiM+g92G2xuettu6deJTW8N+Tvf
9OqDPVlAeQ64pB6HF+tBXvMOqJRzfjaZ6i9RMJ3b4UyOYBFQowb02ioBGQnDtqA+
1pZ5Wb7BdEKczO/bHtO+QMrFDjwh3x3fxVycmd2xgHouH9S1eD8g7Pf0MBnN3CcO
ikub+BsO2MprxhnaETKV+dig7ztLxeD6yFvk0R2ES4w9EUFM369iGPttF0mDlCYe
sMa5u0tRIE1c7y5CJLbF3rRR05eCDn7xo1QGinBLpPHrm6Z9B03+nmQjbcz1gYTh
BkO8K8Y/bYhgJawlQrkXDjsH4798tBc9iipMBpOung==
-----END CERTIFICATE-----
