Certificate:
    Data:
        Version: 3 (0x2)
        Serial Number:
            01:78:d8:93:af:b9:0d:8a:8c:ff:20:25:21:7a:1c:53
    Signature Algorithm: sha256WithRSAEncryption
        Issuer: C=US, ST=California, L=San Francisco, O=Copyleft Certificate Co, OU=My Organizational Unit, CN=ChangeMe/emailAddress=me@example.net
        Validity
            Not Before: Nov 10 17:42:41 2023 GMT
            Not After : Nov  9 17:42:41 2024 GMT
        Subject: C=US, ST=OH, L=Cincinnati, O=University of Cincinnati, OU=Dept_Elec_Com_ Eng_Com_Sci., CN=client64/emailAddress=franco@gauss.ececs.uc.edu
        Subject Public Key Info:
            Public Key Algorithm: rsaEncryption
                Public-Key: (2048 bit)
                Modulus:
                    00:c8:34:ae:39:72:59:79:48:97:6c:98:73:84:99:
                    86:f1:c6:ec:08:40:26:bd:2e:c1:7f:84:c4:09:3f:
                    10:a5:ef:82:1f:8d:e8:28:0c:69:8b:d6:10:85:51:
                    7f:5c:e0:e9:48:c7:2f:79:63:b2:91:ef:9a:1d:3e:
                    df:69:09:3f:1f:ed:3d:0c:fd:fe:3b:31:03:7b:07:
                    a1:62:52:e1:d8:08:58:22:d5:1e:71:4a:87:27:88:
                    a2:0f:ea:3f:ab:88:da:87:4b:2a:4c:25:a8:9a:53:
                    dc:d3:ab:1f:d4:e1:fe:62:a7:25:4e:fe:41:48:86:
                    20:0b:bc:45:70:8e:8e:4b:78:b4:3e:b7:8b:ee:e5:
                    d2:73:6e:62:c4:f3:a5:84:81:e1:36:24:5e:0c:55:
                    61:7b:99:1a:9b:57:1c:27:99:16:7d:ed:b2:3b:38:
                    4f:71:7f:b9:5c:54:c3:22:67:48:36:51:27:a9:6e:
                    66:d6:cc:7b:c5:d0:cd:dd:b9:ea:83:93:3d:2a:d3:
                    f4:60:f9:74:0c:8e:82:3e:11:ec:f9:bf:be:12:9e:
                    3a:78:36:c8:e8:e0:c6:e9:c4:49:01:80:e8:ca:40:
                    5e:a4:61:6b:da:78:8e:d1:56:37:8e:4c:33:d5:bd:
                    ae:8a:de:22:56:87:94:13:f1:cc:a6:dd:73:82:ae:
                    2b:3b
                Exponent: 65537 (0x10001)
        X509v3 extensions:
            X509v3 Basic Constraints: 
                CA:FALSE
            X509v3 Subject Key Identifier: 
                FB:8A:98:C0:B8:F3:2A:7A:9D:42:2E:68:1D:12:4F:FA:1B:97:EA:5E
            X509v3 Authority Key Identifier: 
                keyid:C8:27:DA:64:30:08:40:08:4A:25:CC:DC:43:99:DE:77:A1:FE:77:BD
                DirName:/C=US/ST=California/L=San Francisco/O=Copyleft Certificate Co/OU=My Organizational Unit/CN=ChangeMe/emailAddress=me@example.net
                serial:A9:48:C3:7E:FC:1B:B0:A1

            X509v3 Extended Key Usage: 
                TLS Web Client Authentication
            X509v3 Key Usage: 
                Digital Signature
    Signature Algorithm: sha256WithRSAEncryption
         32:2f:c4:0f:5e:0d:cd:e0:d9:04:4a:d8:fb:f1:0a:7d:e8:7e:
         1b:d6:88:98:8a:a7:60:c1:75:75:17:b8:07:44:1e:58:bc:c1:
         ed:c8:37:e9:01:62:00:fa:7e:46:de:95:1f:0d:71:42:5f:01:
         b3:36:38:6e:48:51:35:79:e1:bb:f1:5c:73:8d:04:2f:f3:df:
         a5:fe:d9:c9:06:d1:5e:29:f4:b4:49:35:ff:ce:ed:dd:6d:4c:
         42:ac:99:3b:dd:0f:fa:72:ec:24:07:c8:d2:03:ac:48:ad:d1:
         d7:b6:c5:f7:f3:38:52:f9:03:32:a8:80:cf:c8:e2:01:70:66:
         f9:ea:02:0e:a3:c6:07:fd:57:f4:cb:b8:20:ee:36:8f:1e:71:
         2f:a3:a1:35:6b:56:56:48:79:f1:61:22:5f:6f:84:aa:0d:d8:
         b8:a0:65:67:5e:4b:a1:28:aa:0a:7d:08:ed:c2:40:a3:a5:a2:
         24:b2:4b:ad:42:1c:bd:6f:46:f0:29:d8:42:76:7d:7a:85:64:
         86:34:67:97:e4:0c:7d:c6:0a:b8:47:14:8f:a8:94:1c:0e:6b:
         3a:5e:ac:35:70:fe:2c:79:e4:c9:4d:01:79:ac:19:a7:f1:2a:
         cb:5d:0e:04:b9:6a:c0:87:32:43:61:b3:08:73:b6:c0:99:3e:
         00:97:f8:df
-----BEGIN CERTIFICATE-----
MIIFKTCCBBGgAwIBAgIQAXjYk6+5DYqM/yAlIXocUzANBgkqhkiG9w0BAQsFADCB
rzELMAkGA1UEBhMCVVMxEzARBgNVBAgMCkNhbGlmb3JuaWExFjAUBgNVBAcMDVNh
biBGcmFuY2lzY28xIDAeBgNVBAoMF0NvcHlsZWZ0IENlcnRpZmljYXRlIENvMR8w
HQYDVQQLDBZNeSBPcmdhbml6YXRpb25hbCBVbml0MREwDwYDVQQDDAhDaGFuZ2VN
ZTEdMBsGCSqGSIb3DQEJARYObWVAZXhhbXBsZS5uZXQwHhcNMjMxMTEwMTc0MjQx
WhcNMjQxMTA5MTc0MjQxWjCBtTELMAkGA1UEBhMCVVMxCzAJBgNVBAgMAk9IMRMw
EQYDVQQHDApDaW5jaW5uYXRpMSEwHwYDVQQKDBhVbml2ZXJzaXR5IG9mIENpbmNp
bm5hdGkxJDAiBgNVBAsMG0RlcHRfRWxlY19Db21fIEVuZ19Db21fU2NpLjERMA8G
A1UEAwwIY2xpZW50NjQxKDAmBgkqhkiG9w0BCQEWGWZyYW5jb0BnYXVzcy5lY2Vj
cy51Yy5lZHUwggEiMA0GCSqGSIb3DQEBAQUAA4IBDwAwggEKAoIBAQDINK45cll5
SJdsmHOEmYbxxuwIQCa9LsF/hMQJPxCl74IfjegoDGmL1hCFUX9c4OlIxy95Y7KR
75odPt9pCT8f7T0M/f47MQN7B6FiUuHYCFgi1R5xSocniKIP6j+riNqHSypMJaia
U9zTqx/U4f5ipyVO/kFIhiALvEVwjo5LeLQ+t4vu5dJzbmLE86WEgeE2JF4MVWF7
mRqbVxwnmRZ97bI7OE9xf7lcVMMiZ0g2USepbmbWzHvF0M3dueqDkz0q0/Rg+XQM
joI+Eez5v74Snjp4Nsjo4MbpxEkBgOjKQF6kYWvaeI7RVjeOTDPVva6K3iJWh5QT
8cym3XOCris7AgMBAAGjggE3MIIBMzAJBgNVHRMEAjAAMB0GA1UdDgQWBBT7ipjA
uPMqep1CLmgdEk/6G5fqXjCB5AYDVR0jBIHcMIHZgBTIJ9pkMAhACEolzNxDmd53
of53vaGBtaSBsjCBrzELMAkGA1UEBhMCVVMxEzARBgNVBAgMCkNhbGlmb3JuaWEx
FjAUBgNVBAcMDVNhbiBGcmFuY2lzY28xIDAeBgNVBAoMF0NvcHlsZWZ0IENlcnRp
ZmljYXRlIENvMR8wHQYDVQQLDBZNeSBPcmdhbml6YXRpb25hbCBVbml0MREwDwYD
VQQDDAhDaGFuZ2VNZTEdMBsGCSqGSIb3DQEJARYObWVAZXhhbXBsZS5uZXSCCQCp
SMN+/BuwoTATBgNVHSUEDDAKBggrBgEFBQcDAjALBgNVHQ8EBAMCB4AwDQYJKoZI
hvcNAQELBQADggEBADIvxA9eDc3g2QRK2PvxCn3ofhvWiJiKp2DBdXUXuAdEHli8
we3IN+kBYgD6fkbelR8NcUJfAbM2OG5IUTV54bvxXHONBC/z36X+2ckG0V4p9LRJ
Nf/O7d1tTEKsmTvdD/py7CQHyNIDrEit0de2xffzOFL5AzKogM/I4gFwZvnqAg6j
xgf9V/TLuCDuNo8ecS+joTVrVlZIefFhIl9vhKoN2LigZWdeS6Eoqgp9CO3CQKOl
oiSyS61CHL1vRvAp2EJ2fXqFZIY0Z5fkDH3GCrhHFI+olBwOazperDVw/ix55MlN
AXmsGafxKstdDgS5asCHMkNhswhztsCZPgCX+N8=
-----END CERTIFICATE-----
