Certificate:
    Data:
        Version: 3 (0x2)
        Serial Number:
            3e:bb:3b:5b:5d:b4:bb:f4:cb:eb:7f:59:49:a9:9f:f9
    Signature Algorithm: sha256WithRSAEncryption
        Issuer: C=US, ST=California, L=San Francisco, O=Copyleft Certificate Co, OU=My Organizational Unit, CN=ChangeMe/emailAddress=me@example.net
        Validity
            Not Before: Nov 11 02:00:15 2023 GMT
            Not After : Nov 10 02:00:15 2024 GMT
        Subject: C=US, ST=OH, L=Cincinnati, O=University of Cincinnati, OU=Dept. Elec. Comp. Eng. Comp. Sci., CN=client33/emailAddress=franco@gauss.ececs.uc.edu
        Subject Public Key Info:
            Public Key Algorithm: rsaEncryption
                Public-Key: (2048 bit)
                Modulus:
                    00:c9:d1:a0:83:2d:d4:97:a9:e9:aa:1f:32:89:ab:
                    d0:fa:30:5e:91:a9:bb:f4:85:88:60:82:12:48:54:
                    a4:57:54:f8:b3:a5:d9:04:4f:ae:0a:c5:66:a9:d9:
                    ad:21:5d:a9:34:80:0f:67:08:0d:ae:b1:db:bd:c4:
                    c2:66:36:8f:94:fc:63:88:68:9e:5e:f9:5d:c4:c0:
                    cc:d0:98:7d:85:71:04:55:10:d4:4b:69:f2:3c:e0:
                    6d:cf:74:21:c8:23:b7:ae:96:c5:67:27:55:1b:24:
                    31:0e:03:b0:23:07:20:76:db:84:59:4e:04:86:dd:
                    8d:38:aa:f0:ba:1b:0a:1c:df:db:f1:d9:1a:f5:0f:
                    1f:84:78:30:5c:41:20:fa:c2:7b:be:82:b6:40:2e:
                    20:92:ab:6e:2a:35:91:4d:2a:a2:00:04:eb:be:88:
                    8e:72:61:e2:83:c4:4b:a8:43:47:ac:85:7c:6a:90:
                    7f:c6:a2:12:2a:4d:1f:8b:eb:85:68:11:ea:7c:2c:
                    11:ad:22:86:bd:19:b4:52:d4:40:ae:ec:18:22:ac:
                    0e:b9:2b:23:89:39:c0:fc:52:41:97:44:4b:eb:e6:
                    93:af:0d:aa:2a:3c:b5:c6:b8:50:1e:0a:1f:a6:99:
                    3b:aa:b1:37:22:fe:40:90:b4:a9:cd:58:16:46:27:
                    c8:d9
                Exponent: 65537 (0x10001)
        X509v3 extensions:
            X509v3 Basic Constraints: 
                CA:FALSE
            X509v3 Subject Key Identifier: 
                58:EF:75:C0:5C:95:6A:61:35:39:90:33:85:03:F9:9E:15:AC:C8:EC
            X509v3 Authority Key Identifier: 
                keyid:7B:0F:93:16:64:9F:71:41:D3:1B:FB:ED:6A:70:9B:CA:2E:70:F0:4B
                DirName:/C=US/ST=California/L=San Francisco/O=Copyleft Certificate Co/OU=My Organizational Unit/CN=ChangeMe/emailAddress=me@example.net
                serial:B9:F2:4E:2C:79:B3:D4:6C

            X509v3 Extended Key Usage: 
                TLS Web Client Authentication
            X509v3 Key Usage: 
                Digital Signature
    Signature Algorithm: sha256WithRSAEncryption
         34:03:c9:9e:23:4c:80:cb:ab:d3:c3:a9:6d:43:44:8f:4c:92:
         bf:8c:41:fe:ef:95:13:eb:bb:90:b4:2d:1f:6a:99:a0:ee:c5:
         cb:80:85:dd:49:63:62:27:3d:62:49:7c:dc:10:72:7b:c9:3c:
         37:59:60:f8:3d:35:66:ec:b1:4e:4e:f7:a6:a6:50:8f:57:02:
         4d:06:9c:4d:ce:e9:7f:74:46:94:ef:ed:f3:5c:b9:54:81:62:
         94:92:6b:16:56:00:0d:b9:1f:30:a9:8c:40:c1:b7:00:c2:cf:
         13:f1:8f:03:b8:74:16:e0:62:45:7a:ec:50:e1:10:2b:83:4a:
         eb:a3:1a:68:b9:11:89:f6:f9:d9:1a:a4:f0:e7:20:20:b6:eb:
         ad:76:52:43:fe:08:29:be:8a:28:0c:38:81:84:22:65:a2:a1:
         9c:46:b9:d9:e3:44:10:61:a5:b5:cb:54:ee:1b:a3:77:8d:ac:
         65:81:ce:09:52:0e:24:36:3d:d2:21:48:69:d6:83:ae:1a:4f:
         98:2e:37:ea:4b:35:99:79:26:94:c1:31:c9:bf:f2:bb:04:06:
         5a:c7:2f:e0:ec:d4:62:a7:e7:e6:8a:4e:f3:dd:1a:84:2c:77:
         4f:15:d9:3e:c2:89:da:5b:ff:27:93:82:9a:23:3e:79:cb:a7:
         a7:47:23:72
-----BEGIN CERTIFICATE-----
MIIFLzCCBBegAwIBAgIQPrs7W120u/TL639ZSamf+TANBgkqhkiG9w0BAQsFADCB
rzELMAkGA1UEBhMCVVMxEzARBgNVBAgMCkNhbGlmb3JuaWExFjAUBgNVBAcMDVNh
biBGcmFuY2lzY28xIDAeBgNVBAoMF0NvcHlsZWZ0IENlcnRpZmljYXRlIENvMR8w
HQYDVQQLDBZNeSBPcmdhbml6YXRpb25hbCBVbml0MREwDwYDVQQDDAhDaGFuZ2VN
ZTEdMBsGCSqGSIb3DQEJARYObWVAZXhhbXBsZS5uZXQwHhcNMjMxMTExMDIwMDE1
WhcNMjQxMTEwMDIwMDE1WjCBuzELMAkGA1UEBhMCVVMxCzAJBgNVBAgMAk9IMRMw
EQYDVQQHDApDaW5jaW5uYXRpMSEwHwYDVQQKDBhVbml2ZXJzaXR5IG9mIENpbmNp
bm5hdGkxKjAoBgNVBAsMIURlcHQuIEVsZWMuIENvbXAuIEVuZy4gQ29tcC4gU2Np
LjERMA8GA1UEAwwIY2xpZW50MzMxKDAmBgkqhkiG9w0BCQEWGWZyYW5jb0BnYXVz
cy5lY2Vjcy51Yy5lZHUwggEiMA0GCSqGSIb3DQEBAQUAA4IBDwAwggEKAoIBAQDJ
0aCDLdSXqemqHzKJq9D6MF6Rqbv0hYhgghJIVKRXVPizpdkET64KxWap2a0hXak0
gA9nCA2usdu9xMJmNo+U/GOIaJ5e+V3EwMzQmH2FcQRVENRLafI84G3PdCHII7eu
lsVnJ1UbJDEOA7AjByB224RZTgSG3Y04qvC6Gwoc39vx2Rr1Dx+EeDBcQSD6wnu+
grZALiCSq24qNZFNKqIABOu+iI5yYeKDxEuoQ0eshXxqkH/GohIqTR+L64VoEep8
LBGtIoa9GbRS1ECu7BgirA65KyOJOcD8UkGXREvr5pOvDaoqPLXGuFAeCh+mmTuq
sTci/kCQtKnNWBZGJ8jZAgMBAAGjggE3MIIBMzAJBgNVHRMEAjAAMB0GA1UdDgQW
BBRY73XAXJVqYTU5kDOFA/meFazI7DCB5AYDVR0jBIHcMIHZgBR7D5MWZJ9xQdMb
++1qcJvKLnDwS6GBtaSBsjCBrzELMAkGA1UEBhMCVVMxEzARBgNVBAgMCkNhbGlm
b3JuaWExFjAUBgNVBAcMDVNhbiBGcmFuY2lzY28xIDAeBgNVBAoMF0NvcHlsZWZ0
IENlcnRpZmljYXRlIENvMR8wHQYDVQQLDBZNeSBPcmdhbml6YXRpb25hbCBVbml0
MREwDwYDVQQDDAhDaGFuZ2VNZTEdMBsGCSqGSIb3DQEJARYObWVAZXhhbXBsZS5u
ZXSCCQC58k4sebPUbDATBgNVHSUEDDAKBggrBgEFBQcDAjALBgNVHQ8EBAMCB4Aw
DQYJKoZIhvcNAQELBQADggEBADQDyZ4jTIDLq9PDqW1DRI9Mkr+MQf7vlRPru5C0
LR9qmaDuxcuAhd1JY2InPWJJfNwQcnvJPDdZYPg9NWbssU5O96amUI9XAk0GnE3O
6X90RpTv7fNcuVSBYpSSaxZWAA25HzCpjEDBtwDCzxPxjwO4dBbgYkV67FDhECuD
SuujGmi5EYn2+dkapPDnICC26612UkP+CCm+iigMOIGEImWioZxGudnjRBBhpbXL
VO4bo3eNrGWBzglSDiQ2PdIhSGnWg64aT5guN+pLNZl5JpTBMcm/8rsEBlrHL+Ds
1GKn5+aKTvPdGoQsd08V2T7Cidpb/yeTgpojPnnLp6dHI3I=
-----END CERTIFICATE-----
