Certificate:
    Data:
        Version: 3 (0x2)
        Serial Number:
            d2:79:6a:e6:52:40:58:60:fa:0b:98:e4:f8:d0:5e:a3
    Signature Algorithm: sha256WithRSAEncryption
        Issuer: C=US, ST=California, L=San Francisco, O=Copyleft Certificate Co, OU=My Organizational Unit, CN=ChangeMe/emailAddress=me@example.net
        Validity
            Not Before: Nov 10 17:43:54 2023 GMT
            Not After : Nov  9 17:43:54 2024 GMT
        Subject: C=US, ST=OH, L=Cincinnati, O=University of Cincinnati, OU=Dept_Elec_Com_ Eng_Com_Sci., CN=client82/emailAddress=franco@gauss.ececs.uc.edu
        Subject Public Key Info:
            Public Key Algorithm: rsaEncryption
                Public-Key: (2048 bit)
                Modulus:
                    00:b1:ce:b5:d6:83:94:28:0c:31:f7:93:c3:59:f9:
                    64:cc:08:7f:ac:f3:16:ad:c9:41:00:15:2c:34:12:
                    37:5a:0e:b0:fa:6d:bd:ab:37:7c:79:b2:b9:cd:21:
                    0e:0c:b3:5f:c1:7a:bb:14:91:a7:53:78:05:e6:8a:
                    50:d1:ec:a3:ff:b5:7c:a2:ed:77:bc:5e:7f:44:23:
                    0d:ca:68:d8:d3:5c:b2:06:d6:6b:dd:2e:28:77:39:
                    85:bc:59:69:a9:49:01:d4:e9:1f:ea:f1:c7:5e:39:
                    1a:d5:b1:df:ab:00:42:ed:a9:ba:89:05:28:77:8e:
                    a3:c5:dc:e1:99:30:09:e5:e0:bb:58:ea:4f:f1:b0:
                    a5:7e:3e:22:8e:2e:f1:20:92:ba:4d:bc:92:b9:1f:
                    9a:5b:07:d2:7a:68:f0:94:3a:7b:04:af:4e:ec:49:
                    a6:bf:13:d2:69:d3:5e:66:ee:d4:4b:36:70:d5:3d:
                    86:7d:1e:05:ec:0a:9e:b3:92:f9:ba:1c:00:57:91:
                    4a:5d:e3:91:17:36:52:e6:6e:1a:bc:8c:37:09:37:
                    d4:b4:b4:83:84:aa:12:ee:98:58:d9:e5:d1:de:86:
                    f8:23:c3:78:57:38:0c:44:3d:91:db:52:f0:f7:cc:
                    57:ef:e8:0c:8f:e5:d5:94:7b:26:27:73:ac:a8:15:
                    9a:79
                Exponent: 65537 (0x10001)
        X509v3 extensions:
            X509v3 Basic Constraints: 
                CA:FALSE
            X509v3 Subject Key Identifier: 
                E4:B7:A0:5B:13:8A:6C:B9:FF:CF:D8:D1:A1:FC:F1:79:1B:55:5C:4A
            X509v3 Authority Key Identifier: 
                keyid:C8:27:DA:64:30:08:40:08:4A:25:CC:DC:43:99:DE:77:A1:FE:77:BD
                DirName:/C=US/ST=California/L=San Francisco/O=Copyleft Certificate Co/OU=My Organizational Unit/CN=ChangeMe/emailAddress=me@example.net
                serial:A9:48:C3:7E:FC:1B:B0:A1

            X509v3 Extended Key Usage: 
                TLS Web Client Authentication
            X509v3 Key Usage: 
                Digital Signature
    Signature Algorithm: sha256WithRSAEncryption
         79:f5:09:d0:a3:02:87:f4:78:41:29:ae:61:e3:36:83:41:9c:
         f4:02:12:fa:17:32:43:e0:48:46:9f:b3:69:41:f1:a8:7e:d7:
         d3:79:fc:a4:d8:ce:83:5a:79:ef:1d:7a:b6:66:bb:42:d2:37:
         24:24:8b:69:1d:c7:fe:24:24:3d:48:d5:07:57:41:04:c0:ce:
         6f:bd:2a:32:40:18:c9:f0:bb:ec:fa:4b:cb:06:47:96:47:ee:
         1f:53:06:60:93:32:f3:b9:87:0d:fc:37:d3:aa:4e:12:19:b9:
         68:13:59:6f:c8:f5:ea:54:2b:c0:18:a2:4b:27:cc:d9:fe:4a:
         54:22:74:14:68:9c:bd:94:be:1a:75:c1:eb:47:cf:91:7e:c2:
         76:55:fa:63:61:18:d8:42:cd:c5:db:03:be:fe:e6:4f:40:57:
         b1:6f:5d:d2:3a:e8:2d:b0:19:39:d7:d8:b6:76:6b:11:aa:d1:
         be:4a:39:98:2c:e9:46:07:cc:f1:5a:d9:6e:5e:80:f0:2d:3e:
         02:fc:21:62:8c:02:50:a2:75:f4:b2:4b:a2:44:42:13:1b:61:
         2c:18:4e:63:8a:9f:01:1d:20:f4:40:f5:23:12:5c:22:27:1d:
         5f:f8:6c:79:da:b0:5c:84:43:08:a4:83:d9:a9:ef:09:0a:13:
         ab:5f:6d:54
-----BEGIN CERTIFICATE-----
MIIFKjCCBBKgAwIBAgIRANJ5auZSQFhg+guY5PjQXqMwDQYJKoZIhvcNAQELBQAw
ga8xCzAJBgNVBAYTAlVTMRMwEQYDVQQIDApDYWxpZm9ybmlhMRYwFAYDVQQHDA1T
YW4gRnJhbmNpc2NvMSAwHgYDVQQKDBdDb3B5bGVmdCBDZXJ0aWZpY2F0ZSBDbzEf
MB0GA1UECwwWTXkgT3JnYW5pemF0aW9uYWwgVW5pdDERMA8GA1UEAwwIQ2hhbmdl
TWUxHTAbBgkqhkiG9w0BCQEWDm1lQGV4YW1wbGUubmV0MB4XDTIzMTExMDE3NDM1
NFoXDTI0MTEwOTE3NDM1NFowgbUxCzAJBgNVBAYTAlVTMQswCQYDVQQIDAJPSDET
MBEGA1UEBwwKQ2luY2lubmF0aTEhMB8GA1UECgwYVW5pdmVyc2l0eSBvZiBDaW5j
aW5uYXRpMSQwIgYDVQQLDBtEZXB0X0VsZWNfQ29tXyBFbmdfQ29tX1NjaS4xETAP
BgNVBAMMCGNsaWVudDgyMSgwJgYJKoZIhvcNAQkBFhlmcmFuY29AZ2F1c3MuZWNl
Y3MudWMuZWR1MIIBIjANBgkqhkiG9w0BAQEFAAOCAQ8AMIIBCgKCAQEAsc611oOU
KAwx95PDWflkzAh/rPMWrclBABUsNBI3Wg6w+m29qzd8ebK5zSEODLNfwXq7FJGn
U3gF5opQ0eyj/7V8ou13vF5/RCMNymjY01yyBtZr3S4odzmFvFlpqUkB1Okf6vHH
Xjka1bHfqwBC7am6iQUod46jxdzhmTAJ5eC7WOpP8bClfj4iji7xIJK6TbySuR+a
WwfSemjwlDp7BK9O7EmmvxPSadNeZu7USzZw1T2GfR4F7Aqes5L5uhwAV5FKXeOR
FzZS5m4avIw3CTfUtLSDhKoS7phY2eXR3ob4I8N4VzgMRD2R21Lw98xX7+gMj+XV
lHsmJ3OsqBWaeQIDAQABo4IBNzCCATMwCQYDVR0TBAIwADAdBgNVHQ4EFgQU5Leg
WxOKbLn/z9jRofzxeRtVXEowgeQGA1UdIwSB3DCB2YAUyCfaZDAIQAhKJczcQ5ne
d6H+d72hgbWkgbIwga8xCzAJBgNVBAYTAlVTMRMwEQYDVQQIDApDYWxpZm9ybmlh
MRYwFAYDVQQHDA1TYW4gRnJhbmNpc2NvMSAwHgYDVQQKDBdDb3B5bGVmdCBDZXJ0
aWZpY2F0ZSBDbzEfMB0GA1UECwwWTXkgT3JnYW5pemF0aW9uYWwgVW5pdDERMA8G
A1UEAwwIQ2hhbmdlTWUxHTAbBgkqhkiG9w0BCQEWDm1lQGV4YW1wbGUubmV0ggkA
qUjDfvwbsKEwEwYDVR0lBAwwCgYIKwYBBQUHAwIwCwYDVR0PBAQDAgeAMA0GCSqG
SIb3DQEBCwUAA4IBAQB59QnQowKH9HhBKa5h4zaDQZz0AhL6FzJD4EhGn7NpQfGo
ftfTefyk2M6DWnnvHXq2ZrtC0jckJItpHcf+JCQ9SNUHV0EEwM5vvSoyQBjJ8Lvs
+kvLBkeWR+4fUwZgkzLzuYcN/DfTqk4SGbloE1lvyPXqVCvAGKJLJ8zZ/kpUInQU
aJy9lL4adcHrR8+RfsJ2VfpjYRjYQs3F2wO+/uZPQFexb13SOugtsBk519i2dmsR
qtG+SjmYLOlGB8zxWtluXoDwLT4C/CFijAJQonX0skuiREITG2EsGE5jip8BHSD0
QPUjElwiJx1f+Gx52rBchEMIpIPZqe8JChOrX21U
-----END CERTIFICATE-----
