Certificate:
    Data:
        Version: 3 (0x2)
        Serial Number:
            3c:17:aa:54:a2:7a:ad:1b:ba:53:0b:4a:58:02:85:22
    Signature Algorithm: sha256WithRSAEncryption
        Issuer: C=US, ST=California, L=San Francisco, O=Copyleft Certificate Co, OU=My Organizational Unit, CN=ChangeMe/emailAddress=me@example.net
        Validity
            Not Before: Nov 11 01:47:54 2023 GMT
            Not After : Nov 10 01:47:54 2024 GMT
        Subject: C=US, ST=OH, L=Cincinnati, O=University of Cincinnati, OU=Dept. Elec. Comp. Eng. Comp. Sci., CN=client123/emailAddress=franco@gauss.ececs.uc.edu
        Subject Public Key Info:
            Public Key Algorithm: rsaEncryption
                Public-Key: (2048 bit)
                Modulus:
                    00:c7:61:e9:21:77:5e:57:2a:b6:eb:58:72:37:2f:
                    c3:40:da:b4:81:cc:e4:74:a7:b6:44:0b:f6:45:54:
                    4e:68:66:ee:27:d9:22:42:cc:19:a4:36:5e:b0:a5:
                    51:25:9b:9e:a6:41:59:3e:24:0c:c7:8d:4e:57:ab:
                    7c:03:73:3b:3a:e9:3c:e6:f9:80:f8:b4:18:a1:b9:
                    57:0a:1e:34:ff:cd:04:d7:2d:7c:67:5c:f5:4c:d8:
                    b2:4d:9c:ad:74:a1:78:9a:b5:6b:26:bf:72:f4:5f:
                    29:35:9e:c0:40:e2:27:e9:3c:80:86:f9:16:8f:b4:
                    ff:b0:de:da:90:a9:d9:df:8f:6d:21:49:c1:93:ed:
                    8a:fa:b6:6f:03:cf:9d:46:cb:59:bd:5f:54:4a:e3:
                    78:30:2e:0c:12:66:c9:f4:0f:58:17:ac:13:38:e9:
                    bc:31:bc:cb:9d:c8:0e:18:7a:24:ca:24:8c:5a:ed:
                    bf:42:db:7d:9a:6e:98:28:87:9d:bd:ba:08:c1:30:
                    c6:6a:d0:22:e4:21:7e:ac:06:df:d8:f4:5d:b3:51:
                    d4:fa:68:61:ac:f9:a1:31:8e:16:a9:73:8c:f9:3f:
                    8f:80:ca:2f:c2:97:8f:8f:bb:5c:df:e7:7a:8a:ae:
                    61:0d:72:5f:46:0d:83:66:eb:96:d1:f5:f6:03:49:
                    cd:a9
                Exponent: 65537 (0x10001)
        X509v3 extensions:
            X509v3 Basic Constraints: 
                CA:FALSE
            X509v3 Subject Key Identifier: 
                C5:13:36:51:ED:AD:18:FB:2F:AC:BB:73:A5:96:73:7A:63:59:97:32
            X509v3 Authority Key Identifier: 
                keyid:73:DE:A0:43:0F:AE:B1:9E:E8:59:69:18:50:A1:1A:1F:D4:A1:E3:F0
                DirName:/C=US/ST=California/L=San Francisco/O=Copyleft Certificate Co/OU=My Organizational Unit/CN=ChangeMe/emailAddress=me@example.net
                serial:E9:BB:CB:16:C5:32:BE:3B

            X509v3 Extended Key Usage: 
                TLS Web Client Authentication
            X509v3 Key Usage: 
                Digital Signature
    Signature Algorithm: sha256WithRSAEncryption
         02:81:4d:5b:38:01:8c:38:7f:82:5b:13:84:34:79:af:98:f7:
         d9:f5:5e:3f:d6:78:77:e7:b3:44:b5:1d:21:aa:fc:66:66:05:
         2f:44:eb:c9:24:f0:64:77:bb:4c:1f:cf:de:d4:46:aa:01:0f:
         63:62:e9:13:f2:fa:0f:df:be:92:81:2e:5d:ef:6f:e6:d2:4d:
         7f:9d:f0:c1:8c:03:b8:3c:4b:90:07:2b:22:33:ab:2d:8d:87:
         b9:85:9c:9a:6e:d4:8a:0a:21:bc:cc:d8:d8:2d:3c:cd:3d:76:
         24:71:50:e0:e6:e7:b7:36:aa:6e:93:b6:32:5f:79:76:78:cf:
         cd:5e:53:6e:3f:51:54:95:e9:e0:2b:cf:d5:11:b8:3d:e1:46:
         9b:1b:47:7d:22:27:6d:85:82:e3:77:27:35:73:54:f7:5e:99:
         eb:6c:70:59:c5:98:45:0f:c9:5d:86:1d:07:7e:7c:77:37:d0:
         a6:db:11:f9:5a:30:69:75:6c:7d:d5:f2:59:3e:19:66:3c:64:
         6b:47:96:eb:98:ba:c7:97:89:8d:5e:f8:a6:5b:8c:4d:2d:b3:
         1f:32:f8:13:b0:39:d5:b2:84:cf:2e:90:29:b7:ad:7e:d6:b3:
         02:f7:9e:f5:e9:22:c0:4b:c4:d7:92:f7:e4:91:c9:9b:fd:a2:
         85:78:6f:e4
-----BEGIN CERTIFICATE-----
MIIFMDCCBBigAwIBAgIQPBeqVKJ6rRu6UwtKWAKFIjANBgkqhkiG9w0BAQsFADCB
rzELMAkGA1UEBhMCVVMxEzARBgNVBAgMCkNhbGlmb3JuaWExFjAUBgNVBAcMDVNh
biBGcmFuY2lzY28xIDAeBgNVBAoMF0NvcHlsZWZ0IENlcnRpZmljYXRlIENvMR8w
HQYDVQQLDBZNeSBPcmdhbml6YXRpb25hbCBVbml0MREwDwYDVQQDDAhDaGFuZ2VN
ZTEdMBsGCSqGSIb3DQEJARYObWVAZXhhbXBsZS5uZXQwHhcNMjMxMTExMDE0NzU0
WhcNMjQxMTEwMDE0NzU0WjCBvDELMAkGA1UEBhMCVVMxCzAJBgNVBAgMAk9IMRMw
EQYDVQQHDApDaW5jaW5uYXRpMSEwHwYDVQQKDBhVbml2ZXJzaXR5IG9mIENpbmNp
bm5hdGkxKjAoBgNVBAsMIURlcHQuIEVsZWMuIENvbXAuIEVuZy4gQ29tcC4gU2Np
LjESMBAGA1UEAwwJY2xpZW50MTIzMSgwJgYJKoZIhvcNAQkBFhlmcmFuY29AZ2F1
c3MuZWNlY3MudWMuZWR1MIIBIjANBgkqhkiG9w0BAQEFAAOCAQ8AMIIBCgKCAQEA
x2HpIXdeVyq261hyNy/DQNq0gczkdKe2RAv2RVROaGbuJ9kiQswZpDZesKVRJZue
pkFZPiQMx41OV6t8A3M7Ouk85vmA+LQYoblXCh40/80E1y18Z1z1TNiyTZytdKF4
mrVrJr9y9F8pNZ7AQOIn6TyAhvkWj7T/sN7akKnZ349tIUnBk+2K+rZvA8+dRstZ
vV9USuN4MC4MEmbJ9A9YF6wTOOm8MbzLncgOGHokyiSMWu2/Qtt9mm6YKIedvboI
wTDGatAi5CF+rAbf2PRds1HU+mhhrPmhMY4WqXOM+T+PgMovwpePj7tc3+d6iq5h
DXJfRg2DZuuW0fX2A0nNqQIDAQABo4IBNzCCATMwCQYDVR0TBAIwADAdBgNVHQ4E
FgQUxRM2Ue2tGPsvrLtzpZZzemNZlzIwgeQGA1UdIwSB3DCB2YAUc96gQw+usZ7o
WWkYUKEaH9Sh4/ChgbWkgbIwga8xCzAJBgNVBAYTAlVTMRMwEQYDVQQIDApDYWxp
Zm9ybmlhMRYwFAYDVQQHDA1TYW4gRnJhbmNpc2NvMSAwHgYDVQQKDBdDb3B5bGVm
dCBDZXJ0aWZpY2F0ZSBDbzEfMB0GA1UECwwWTXkgT3JnYW5pemF0aW9uYWwgVW5p
dDERMA8GA1UEAwwIQ2hhbmdlTWUxHTAbBgkqhkiG9w0BCQEWDm1lQGV4YW1wbGUu
bmV0ggkA6bvLFsUyvjswEwYDVR0lBAwwCgYIKwYBBQUHAwIwCwYDVR0PBAQDAgeA
MA0GCSqGSIb3DQEBCwUAA4IBAQACgU1bOAGMOH+CWxOENHmvmPfZ9V4/1nh357NE
tR0hqvxmZgUvROvJJPBkd7tMH8/e1EaqAQ9jYukT8voP376SgS5d72/m0k1/nfDB
jAO4PEuQBysiM6stjYe5hZyabtSKCiG8zNjYLTzNPXYkcVDg5ue3Nqpuk7YyX3l2
eM/NXlNuP1FUlengK8/VEbg94UabG0d9IidthYLjdyc1c1T3XpnrbHBZxZhFD8ld
hh0Hfnx3N9Cm2xH5WjBpdWx91fJZPhlmPGRrR5brmLrHl4mNXvimW4xNLbMfMvgT
sDnVsoTPLpApt61+1rMC95716SLAS8TXkvfkkcmb/aKFeG/k
-----END CERTIFICATE-----
