Certificate:
    Data:
        Version: 3 (0x2)
        Serial Number:
            ce:28:df:3c:67:d2:a8:3c:e3:f2:dc:8a:4e:68:bb:46
    Signature Algorithm: sha256WithRSAEncryption
        Issuer: C=US, ST=California, L=San Francisco, O=Copyleft Certificate Co, OU=My Organizational Unit, CN=ChangeMe/emailAddress=me@example.net
        Validity
            Not Before: Nov 11 01:44:46 2023 GMT
            Not After : Nov 10 01:44:46 2024 GMT
        Subject: C=US, ST=OH, L=Cincinnati, O=University of Cincinnati, OU=Dept. Elec. Comp. Eng. Comp. Sci., CN=client76/emailAddress=franco@gauss.ececs.uc.edu
        Subject Public Key Info:
            Public Key Algorithm: rsaEncryption
                Public-Key: (2048 bit)
                Modulus:
                    00:ae:a8:98:b4:97:8b:a3:5c:21:bb:34:e1:9c:44:
                    97:55:0d:d5:47:25:7b:67:b3:79:45:88:b6:45:5c:
                    28:f4:09:3f:eb:5c:76:78:b6:d9:ab:64:ee:db:0f:
                    f6:fb:e4:fa:2b:fd:41:1e:ea:23:aa:e0:4a:7b:3d:
                    16:f7:ce:36:15:d6:3c:cf:65:b7:f8:a8:a6:ee:92:
                    94:78:a5:7e:24:bf:c6:b4:8e:c0:bc:72:1d:3a:49:
                    d5:10:a0:84:e3:18:35:4f:b7:02:f7:0e:5d:d5:45:
                    dd:77:be:e3:25:c8:e0:3f:97:c3:dd:c4:02:5f:08:
                    16:e3:18:39:7f:63:c3:25:9b:65:88:64:ca:16:8f:
                    d0:c3:48:61:87:25:fb:63:de:9e:44:70:a2:9e:66:
                    ef:71:e1:7a:9f:b5:bd:c0:34:9f:d8:63:de:8b:68:
                    39:b1:23:15:80:19:08:bc:75:c0:f4:3b:73:1e:a9:
                    b9:f4:c4:4f:7e:2d:0f:30:55:91:04:16:be:af:0d:
                    61:2f:53:45:a1:0e:b4:e7:17:40:e8:c9:6c:c3:86:
                    4a:58:eb:8b:fb:42:a8:0a:b9:90:5f:a0:5b:37:82:
                    62:8e:df:d8:20:4a:a4:e0:7c:8a:a0:c9:c6:5b:0b:
                    04:93:7d:75:d9:de:07:ad:7e:82:cd:72:7b:b2:d3:
                    52:19
                Exponent: 65537 (0x10001)
        X509v3 extensions:
            X509v3 Basic Constraints: 
                CA:FALSE
            X509v3 Subject Key Identifier: 
                C8:BE:68:5F:D9:62:C2:31:7E:FC:B2:23:DC:99:9D:B0:74:DD:93:D6
            X509v3 Authority Key Identifier: 
                keyid:73:DE:A0:43:0F:AE:B1:9E:E8:59:69:18:50:A1:1A:1F:D4:A1:E3:F0
                DirName:/C=US/ST=California/L=San Francisco/O=Copyleft Certificate Co/OU=My Organizational Unit/CN=ChangeMe/emailAddress=me@example.net
                serial:E9:BB:CB:16:C5:32:BE:3B

            X509v3 Extended Key Usage: 
                TLS Web Client Authentication
            X509v3 Key Usage: 
                Digital Signature
    Signature Algorithm: sha256WithRSAEncryption
         4f:86:19:1d:68:41:59:30:41:2f:b3:c9:64:4d:f3:94:9a:2b:
         16:0d:21:fc:3f:b1:83:e4:a8:e9:53:a5:f2:02:fb:11:68:ce:
         eb:fe:1c:2e:3e:0e:dc:b9:95:ff:ee:0d:08:5d:01:62:03:fd:
         d6:57:35:9f:05:ac:c3:9b:da:1a:ea:ce:53:c1:28:87:62:97:
         ec:43:9c:95:8e:a0:6f:cf:1a:83:22:df:51:c0:ec:d5:d7:ad:
         57:6c:9c:91:a4:83:1e:67:c5:75:a5:83:59:a5:af:59:ac:67:
         13:10:c6:39:bd:28:cd:fb:b5:45:7c:8a:88:0c:3f:c2:8a:18:
         3a:61:2c:2e:6e:0a:26:69:43:25:d0:ef:0d:29:82:81:2c:4e:
         44:56:01:e5:33:4c:de:d1:7d:2b:ac:32:e8:5f:e6:34:6c:a1:
         d0:47:02:71:41:4e:67:74:38:65:87:9e:a3:a0:22:66:c3:0a:
         bb:50:bf:12:31:ec:b1:57:0c:85:33:31:85:d5:8d:d8:75:b3:
         44:92:00:1f:21:fc:75:77:93:4b:81:f3:0d:f8:e7:52:91:96:
         06:b4:42:5a:5b:c9:ca:63:8d:02:34:73:8c:35:29:ee:26:97:
         b8:2a:bd:94:5c:bb:01:1b:78:43:06:38:db:9f:c3:66:2b:2c:
         ac:d4:4d:c4
-----BEGIN CERTIFICATE-----
MIIFMDCCBBigAwIBAgIRAM4o3zxn0qg84/Lcik5ou0YwDQYJKoZIhvcNAQELBQAw
ga8xCzAJBgNVBAYTAlVTMRMwEQYDVQQIDApDYWxpZm9ybmlhMRYwFAYDVQQHDA1T
YW4gRnJhbmNpc2NvMSAwHgYDVQQKDBdDb3B5bGVmdCBDZXJ0aWZpY2F0ZSBDbzEf
MB0GA1UECwwWTXkgT3JnYW5pemF0aW9uYWwgVW5pdDERMA8GA1UEAwwIQ2hhbmdl
TWUxHTAbBgkqhkiG9w0BCQEWDm1lQGV4YW1wbGUubmV0MB4XDTIzMTExMTAxNDQ0
NloXDTI0MTExMDAxNDQ0NlowgbsxCzAJBgNVBAYTAlVTMQswCQYDVQQIDAJPSDET
MBEGA1UEBwwKQ2luY2lubmF0aTEhMB8GA1UECgwYVW5pdmVyc2l0eSBvZiBDaW5j
aW5uYXRpMSowKAYDVQQLDCFEZXB0LiBFbGVjLiBDb21wLiBFbmcuIENvbXAuIFNj
aS4xETAPBgNVBAMMCGNsaWVudDc2MSgwJgYJKoZIhvcNAQkBFhlmcmFuY29AZ2F1
c3MuZWNlY3MudWMuZWR1MIIBIjANBgkqhkiG9w0BAQEFAAOCAQ8AMIIBCgKCAQEA
rqiYtJeLo1whuzThnESXVQ3VRyV7Z7N5RYi2RVwo9Ak/61x2eLbZq2Tu2w/2++T6
K/1BHuojquBKez0W9842FdY8z2W3+Kim7pKUeKV+JL/GtI7AvHIdOknVEKCE4xg1
T7cC9w5d1UXdd77jJcjgP5fD3cQCXwgW4xg5f2PDJZtliGTKFo/Qw0hhhyX7Y96e
RHCinmbvceF6n7W9wDSf2GPei2g5sSMVgBkIvHXA9DtzHqm59MRPfi0PMFWRBBa+
rw1hL1NFoQ605xdA6Mlsw4ZKWOuL+0KoCrmQX6BbN4Jijt/YIEqk4HyKoMnGWwsE
k3112d4HrX6CzXJ7stNSGQIDAQABo4IBNzCCATMwCQYDVR0TBAIwADAdBgNVHQ4E
FgQUyL5oX9liwjF+/LIj3JmdsHTdk9YwgeQGA1UdIwSB3DCB2YAUc96gQw+usZ7o
WWkYUKEaH9Sh4/ChgbWkgbIwga8xCzAJBgNVBAYTAlVTMRMwEQYDVQQIDApDYWxp
Zm9ybmlhMRYwFAYDVQQHDA1TYW4gRnJhbmNpc2NvMSAwHgYDVQQKDBdDb3B5bGVm
dCBDZXJ0aWZpY2F0ZSBDbzEfMB0GA1UECwwWTXkgT3JnYW5pemF0aW9uYWwgVW5p
dDERMA8GA1UEAwwIQ2hhbmdlTWUxHTAbBgkqhkiG9w0BCQEWDm1lQGV4YW1wbGUu
bmV0ggkA6bvLFsUyvjswEwYDVR0lBAwwCgYIKwYBBQUHAwIwCwYDVR0PBAQDAgeA
MA0GCSqGSIb3DQEBCwUAA4IBAQBPhhkdaEFZMEEvs8lkTfOUmisWDSH8P7GD5Kjp
U6XyAvsRaM7r/hwuPg7cuZX/7g0IXQFiA/3WVzWfBazDm9oa6s5TwSiHYpfsQ5yV
jqBvzxqDIt9RwOzV161XbJyRpIMeZ8V1pYNZpa9ZrGcTEMY5vSjN+7VFfIqIDD/C
ihg6YSwubgomaUMl0O8NKYKBLE5EVgHlM0ze0X0rrDLoX+Y0bKHQRwJxQU5ndDhl
h56joCJmwwq7UL8SMeyxVwyFMzGF1Y3YdbNEkgAfIfx1d5NLgfMN+OdSkZYGtEJa
W8nKY40CNHOMNSnuJpe4Kr2UXLsBG3hDBjjbn8NmKyys1E3E
-----END CERTIFICATE-----
