Certificate:
    Data:
        Version: 3 (0x2)
        Serial Number:
            dd:67:56:54:9a:6e:20:22:ac:fc:c2:d0:cb:11:be:c5
    Signature Algorithm: sha256WithRSAEncryption
        Issuer: C=US, ST=California, L=San Francisco, O=Copyleft Certificate Co, OU=My Organizational Unit, CN=ChangeMe/emailAddress=me@example.net
        Validity
            Not Before: Nov 10 17:46:34 2023 GMT
            Not After : Nov  9 17:46:34 2024 GMT
        Subject: C=US, ST=OH, L=Cincinnati, O=University of Cincinnati, OU=Dept_Elec_Com_ Eng_Com_Sci., CN=client122/emailAddress=franco@gauss.ececs.uc.edu
        Subject Public Key Info:
            Public Key Algorithm: rsaEncryption
                Public-Key: (2048 bit)
                Modulus:
                    00:d2:d1:d2:b3:d8:ef:76:73:db:a3:a6:b1:5a:2a:
                    4a:3c:fe:e0:53:6b:c6:28:3c:95:ba:f7:31:0c:7d:
                    61:a4:6e:3d:26:e3:60:6d:69:1c:05:b9:d8:f6:41:
                    aa:cd:58:51:fe:8f:08:8c:4c:3a:6b:8e:4d:f5:52:
                    fa:70:b2:07:10:ce:da:1c:8b:cc:fb:89:88:c9:f4:
                    a0:98:12:47:31:b8:56:65:e2:6c:4e:ed:f2:f5:30:
                    dd:1f:39:6f:bf:f7:cc:e2:c8:04:17:c5:5a:5f:f7:
                    0b:f8:eb:2f:7f:d9:78:35:ff:2a:cf:d9:c4:27:c4:
                    b9:40:e0:6c:09:6d:e3:cd:c3:0a:42:e1:cf:5f:81:
                    88:2e:65:3c:f4:13:14:bb:65:18:26:9d:6d:82:71:
                    5d:23:fc:a0:24:62:66:17:5f:55:24:7d:0f:c4:d6:
                    64:81:60:00:98:f1:cb:2c:a7:98:01:26:aa:4e:5e:
                    ae:d8:70:37:48:86:a0:5f:48:d9:91:6f:f4:f1:a8:
                    bc:6b:c5:11:25:88:c7:10:50:c5:12:b7:2d:fa:93:
                    bd:f6:5e:73:28:c2:90:66:87:29:c2:0e:a3:68:a3:
                    9c:08:57:9a:0e:9e:24:e9:0d:c5:eb:bb:b4:18:4d:
                    82:6f:76:05:dd:8b:df:ba:ac:6d:a4:a4:28:6c:2a:
                    6f:0d
                Exponent: 65537 (0x10001)
        X509v3 extensions:
            X509v3 Basic Constraints: 
                CA:FALSE
            X509v3 Subject Key Identifier: 
                7D:EB:20:0B:D2:91:4A:D4:5A:A3:E4:DE:4E:2B:20:EF:6A:8B:07:88
            X509v3 Authority Key Identifier: 
                keyid:C8:27:DA:64:30:08:40:08:4A:25:CC:DC:43:99:DE:77:A1:FE:77:BD
                DirName:/C=US/ST=California/L=San Francisco/O=Copyleft Certificate Co/OU=My Organizational Unit/CN=ChangeMe/emailAddress=me@example.net
                serial:A9:48:C3:7E:FC:1B:B0:A1

            X509v3 Extended Key Usage: 
                TLS Web Client Authentication
            X509v3 Key Usage: 
                Digital Signature
    Signature Algorithm: sha256WithRSAEncryption
         82:8b:89:a2:3f:e3:01:d0:9d:ae:0c:af:0a:5c:60:be:78:f1:
         eb:10:72:1e:8b:78:37:d0:0d:12:3a:38:a4:23:77:6c:78:06:
         8d:40:f5:ee:bd:93:f0:cd:4a:4f:2a:65:bc:44:76:db:a7:15:
         1f:0e:bd:1b:f6:d5:45:6b:21:34:9e:98:55:ba:de:d9:c3:b5:
         ca:80:26:74:6c:21:04:97:b5:fc:d4:e8:90:56:07:c5:99:62:
         b5:4a:0d:35:e9:f4:38:9c:b8:59:4b:23:3b:19:d2:0d:2c:8b:
         e7:59:6c:cd:58:52:c0:49:b7:14:44:95:fe:b2:ae:3f:27:03:
         47:e3:87:fb:2f:03:1c:83:ac:05:d9:bf:94:4d:cf:99:8c:c6:
         b0:27:28:74:0a:03:8f:ee:c3:b9:3b:67:8d:08:16:39:01:d8:
         e4:47:73:c8:0d:f8:27:e3:90:b3:2f:9f:4c:f4:a6:33:df:39:
         da:7b:ab:bb:c3:b0:3a:e5:c8:df:a0:e7:92:96:45:4b:cd:79:
         dd:09:de:e3:bc:c3:f1:09:fa:dc:0c:09:fe:9f:64:a5:e0:8f:
         cb:c1:7f:cb:b6:2a:a8:9d:f6:d1:14:d3:cc:df:b7:a1:c2:fa:
         ac:2c:9f:14:33:06:22:d8:94:8e:e8:6c:bb:cf:a5:36:f2:c5:
         ca:a3:d7:4b
-----BEGIN CERTIFICATE-----
MIIFKzCCBBOgAwIBAgIRAN1nVlSabiAirPzC0MsRvsUwDQYJKoZIhvcNAQELBQAw
ga8xCzAJBgNVBAYTAlVTMRMwEQYDVQQIDApDYWxpZm9ybmlhMRYwFAYDVQQHDA1T
YW4gRnJhbmNpc2NvMSAwHgYDVQQKDBdDb3B5bGVmdCBDZXJ0aWZpY2F0ZSBDbzEf
MB0GA1UECwwWTXkgT3JnYW5pemF0aW9uYWwgVW5pdDERMA8GA1UEAwwIQ2hhbmdl
TWUxHTAbBgkqhkiG9w0BCQEWDm1lQGV4YW1wbGUubmV0MB4XDTIzMTExMDE3NDYz
NFoXDTI0MTEwOTE3NDYzNFowgbYxCzAJBgNVBAYTAlVTMQswCQYDVQQIDAJPSDET
MBEGA1UEBwwKQ2luY2lubmF0aTEhMB8GA1UECgwYVW5pdmVyc2l0eSBvZiBDaW5j
aW5uYXRpMSQwIgYDVQQLDBtEZXB0X0VsZWNfQ29tXyBFbmdfQ29tX1NjaS4xEjAQ
BgNVBAMMCWNsaWVudDEyMjEoMCYGCSqGSIb3DQEJARYZZnJhbmNvQGdhdXNzLmVj
ZWNzLnVjLmVkdTCCASIwDQYJKoZIhvcNAQEBBQADggEPADCCAQoCggEBANLR0rPY
73Zz26OmsVoqSjz+4FNrxig8lbr3MQx9YaRuPSbjYG1pHAW52PZBqs1YUf6PCIxM
OmuOTfVS+nCyBxDO2hyLzPuJiMn0oJgSRzG4VmXibE7t8vUw3R85b7/3zOLIBBfF
Wl/3C/jrL3/ZeDX/Ks/ZxCfEuUDgbAlt483DCkLhz1+BiC5lPPQTFLtlGCadbYJx
XSP8oCRiZhdfVSR9D8TWZIFgAJjxyyynmAEmqk5erthwN0iGoF9I2ZFv9PGovGvF
ESWIxxBQxRK3LfqTvfZecyjCkGaHKcIOo2ijnAhXmg6eJOkNxeu7tBhNgm92Bd2L
37qsbaSkKGwqbw0CAwEAAaOCATcwggEzMAkGA1UdEwQCMAAwHQYDVR0OBBYEFH3r
IAvSkUrUWqPk3k4rIO9qiweIMIHkBgNVHSMEgdwwgdmAFMgn2mQwCEAISiXM3EOZ
3neh/ne9oYG1pIGyMIGvMQswCQYDVQQGEwJVUzETMBEGA1UECAwKQ2FsaWZvcm5p
YTEWMBQGA1UEBwwNU2FuIEZyYW5jaXNjbzEgMB4GA1UECgwXQ29weWxlZnQgQ2Vy
dGlmaWNhdGUgQ28xHzAdBgNVBAsMFk15IE9yZ2FuaXphdGlvbmFsIFVuaXQxETAP
BgNVBAMMCENoYW5nZU1lMR0wGwYJKoZIhvcNAQkBFg5tZUBleGFtcGxlLm5ldIIJ
AKlIw378G7ChMBMGA1UdJQQMMAoGCCsGAQUFBwMCMAsGA1UdDwQEAwIHgDANBgkq
hkiG9w0BAQsFAAOCAQEAgouJoj/jAdCdrgyvClxgvnjx6xByHot4N9ANEjo4pCN3
bHgGjUD17r2T8M1KTyplvER226cVHw69G/bVRWshNJ6YVbre2cO1yoAmdGwhBJe1
/NTokFYHxZlitUoNNen0OJy4WUsjOxnSDSyL51lszVhSwEm3FESV/rKuPycDR+OH
+y8DHIOsBdm/lE3PmYzGsCcodAoDj+7DuTtnjQgWOQHY5EdzyA34J+OQsy+fTPSm
M9852nuru8OwOuXI36DnkpZFS8153Qne47zD8Qn63AwJ/p9kpeCPy8F/y7YqqJ32
0RTTzN+3ocL6rCyfFDMGItiUjuhsu8+lNvLFyqPXSw==
-----END CERTIFICATE-----
