Certificate:
    Data:
        Version: 3 (0x2)
        Serial Number:
            37:ad:14:ac:d1:96:27:a6:95:28:ed:7d:57:41:b0:71
    Signature Algorithm: sha256WithRSAEncryption
        Issuer: C=US, ST=California, L=San Francisco, O=Copyleft Certificate Co, OU=My Organizational Unit, CN=ChangeMe/emailAddress=me@example.net
        Validity
            Not Before: Nov 11 01:49:26 2023 GMT
            Not After : Nov 10 01:49:26 2024 GMT
        Subject: C=US, ST=OH, L=Cincinnati, O=University of Cincinnati, OU=Dept. Elec. Comp. Eng. Comp. Sci., CN=client146/emailAddress=franco@gauss.ececs.uc.edu
        Subject Public Key Info:
            Public Key Algorithm: rsaEncryption
                Public-Key: (2048 bit)
                Modulus:
                    00:f2:18:fc:6f:ac:74:38:7c:e6:54:81:6a:d3:f4:
                    c3:ba:54:d7:7a:18:26:f6:91:23:59:2c:c8:db:e6:
                    ff:36:86:c7:1f:62:c1:4e:17:5d:bd:9a:96:17:56:
                    6b:d5:2d:cc:9b:a4:df:8d:05:6c:12:69:44:52:29:
                    ee:43:74:05:13:de:f7:0e:38:29:09:ea:aa:0a:4a:
                    db:5c:b1:7f:b8:22:26:0f:22:3a:b5:cf:f6:eb:63:
                    63:8c:fd:a5:34:bf:be:78:1b:29:fa:f0:1e:cf:9b:
                    a7:d5:62:44:27:34:7d:e4:20:68:b0:a6:dc:aa:8a:
                    cc:96:0f:04:8d:14:89:ee:9a:b4:e9:89:b1:63:d6:
                    7a:7f:88:4d:a3:1a:f1:3c:8c:25:f8:ac:d4:1c:0e:
                    3e:5c:64:7b:9e:21:53:3b:86:fe:93:4b:f6:3b:a0:
                    ce:56:d2:7d:13:17:c1:0c:91:c4:a8:b7:3d:7a:a8:
                    ef:78:aa:1e:25:be:e4:1d:9a:d8:e8:97:61:c4:a8:
                    62:b5:a4:4b:0c:86:ad:f4:7f:83:21:60:b4:b8:e6:
                    49:6c:81:31:ce:89:8c:6b:ce:49:9c:ce:13:ac:72:
                    d7:cc:57:43:4d:c7:ce:53:67:5b:91:a8:c1:6a:d4:
                    69:be:f9:63:a3:96:cb:50:83:a5:46:02:3c:99:4d:
                    6c:eb
                Exponent: 65537 (0x10001)
        X509v3 extensions:
            X509v3 Basic Constraints: 
                CA:FALSE
            X509v3 Subject Key Identifier: 
                62:70:96:34:EE:70:C9:81:D3:F1:D4:E1:16:10:6A:C9:89:E2:A4:30
            X509v3 Authority Key Identifier: 
                keyid:73:DE:A0:43:0F:AE:B1:9E:E8:59:69:18:50:A1:1A:1F:D4:A1:E3:F0
                DirName:/C=US/ST=California/L=San Francisco/O=Copyleft Certificate Co/OU=My Organizational Unit/CN=ChangeMe/emailAddress=me@example.net
                serial:E9:BB:CB:16:C5:32:BE:3B

            X509v3 Extended Key Usage: 
                TLS Web Client Authentication
            X509v3 Key Usage: 
                Digital Signature
    Signature Algorithm: sha256WithRSAEncryption
         29:d7:22:7c:ca:dd:cd:50:97:14:09:17:6d:c7:73:e6:98:4b:
         33:c0:8f:f2:fd:63:55:85:81:25:cf:34:05:e7:51:1a:0b:af:
         3e:e7:c4:18:ef:ff:c1:10:6e:68:ac:71:46:ae:3b:36:6c:93:
         f7:c4:0f:41:50:c2:34:09:dd:df:db:0d:58:2d:7b:e4:26:63:
         01:92:f4:41:da:70:23:91:ee:47:f0:d0:52:b0:5a:7a:b8:fd:
         56:d1:9a:04:72:9a:4e:ec:41:9b:f6:b6:dd:5b:f6:ac:82:b6:
         3e:50:46:5d:3a:c5:6d:de:51:19:57:3c:54:64:e3:39:c5:03:
         f0:b8:62:32:da:42:5f:7b:a8:67:ea:b5:94:14:ab:30:64:d8:
         6d:5f:51:1b:78:2b:47:c1:f5:44:47:9e:8a:59:26:19:c1:de:
         50:5c:7d:b9:23:0d:ad:1c:b6:2b:71:d2:f4:2f:db:24:2c:3f:
         ab:c8:d6:4d:a7:89:cd:7a:0c:1f:02:0d:ce:1a:d6:e9:3d:5f:
         97:8e:b8:36:6f:41:35:43:bb:8f:f7:fd:71:bd:a1:4d:12:47:
         2f:e0:a9:94:be:30:8f:90:21:9f:44:1b:c1:a2:f8:61:76:c3:
         9f:9c:d5:7c:68:8a:ac:26:56:3f:06:1e:c1:6e:d4:53:a7:98:
         2d:c4:36:69
-----BEGIN CERTIFICATE-----
MIIFMDCCBBigAwIBAgIQN60UrNGWJ6aVKO19V0GwcTANBgkqhkiG9w0BAQsFADCB
rzELMAkGA1UEBhMCVVMxEzARBgNVBAgMCkNhbGlmb3JuaWExFjAUBgNVBAcMDVNh
biBGcmFuY2lzY28xIDAeBgNVBAoMF0NvcHlsZWZ0IENlcnRpZmljYXRlIENvMR8w
HQYDVQQLDBZNeSBPcmdhbml6YXRpb25hbCBVbml0MREwDwYDVQQDDAhDaGFuZ2VN
ZTEdMBsGCSqGSIb3DQEJARYObWVAZXhhbXBsZS5uZXQwHhcNMjMxMTExMDE0OTI2
WhcNMjQxMTEwMDE0OTI2WjCBvDELMAkGA1UEBhMCVVMxCzAJBgNVBAgMAk9IMRMw
EQYDVQQHDApDaW5jaW5uYXRpMSEwHwYDVQQKDBhVbml2ZXJzaXR5IG9mIENpbmNp
bm5hdGkxKjAoBgNVBAsMIURlcHQuIEVsZWMuIENvbXAuIEVuZy4gQ29tcC4gU2Np
LjESMBAGA1UEAwwJY2xpZW50MTQ2MSgwJgYJKoZIhvcNAQkBFhlmcmFuY29AZ2F1
c3MuZWNlY3MudWMuZWR1MIIBIjANBgkqhkiG9w0BAQEFAAOCAQ8AMIIBCgKCAQEA
8hj8b6x0OHzmVIFq0/TDulTXehgm9pEjWSzI2+b/NobHH2LBThddvZqWF1Zr1S3M
m6TfjQVsEmlEUinuQ3QFE973DjgpCeqqCkrbXLF/uCImDyI6tc/262NjjP2lNL++
eBsp+vAez5un1WJEJzR95CBosKbcqorMlg8EjRSJ7pq06YmxY9Z6f4hNoxrxPIwl
+KzUHA4+XGR7niFTO4b+k0v2O6DOVtJ9ExfBDJHEqLc9eqjveKoeJb7kHZrY6Jdh
xKhitaRLDIat9H+DIWC0uOZJbIExzomMa85JnM4TrHLXzFdDTcfOU2dbkajBatRp
vvljo5bLUIOlRgI8mU1s6wIDAQABo4IBNzCCATMwCQYDVR0TBAIwADAdBgNVHQ4E
FgQUYnCWNO5wyYHT8dThFhBqyYnipDAwgeQGA1UdIwSB3DCB2YAUc96gQw+usZ7o
WWkYUKEaH9Sh4/ChgbWkgbIwga8xCzAJBgNVBAYTAlVTMRMwEQYDVQQIDApDYWxp
Zm9ybmlhMRYwFAYDVQQHDA1TYW4gRnJhbmNpc2NvMSAwHgYDVQQKDBdDb3B5bGVm
dCBDZXJ0aWZpY2F0ZSBDbzEfMB0GA1UECwwWTXkgT3JnYW5pemF0aW9uYWwgVW5p
dDERMA8GA1UEAwwIQ2hhbmdlTWUxHTAbBgkqhkiG9w0BCQEWDm1lQGV4YW1wbGUu
bmV0ggkA6bvLFsUyvjswEwYDVR0lBAwwCgYIKwYBBQUHAwIwCwYDVR0PBAQDAgeA
MA0GCSqGSIb3DQEBCwUAA4IBAQAp1yJ8yt3NUJcUCRdtx3PmmEszwI/y/WNVhYEl
zzQF51EaC68+58QY7//BEG5orHFGrjs2bJP3xA9BUMI0Cd3f2w1YLXvkJmMBkvRB
2nAjke5H8NBSsFp6uP1W0ZoEcppO7EGb9rbdW/asgrY+UEZdOsVt3lEZVzxUZOM5
xQPwuGIy2kJfe6hn6rWUFKswZNhtX1EbeCtHwfVER56KWSYZwd5QXH25Iw2tHLYr
cdL0L9skLD+ryNZNp4nNegwfAg3OGtbpPV+Xjrg2b0E1Q7uP9/1xvaFNEkcv4KmU
vjCPkCGfRBvBovhhdsOfnNV8aIqsJlY/Bh7BbtRTp5gtxDZp
-----END CERTIFICATE-----
