Certificate:
    Data:
        Version: 3 (0x2)
        Serial Number:
            10:fd:39:ff:62:30:84:c7:4d:f0:fc:d6:4f:be:98:53
    Signature Algorithm: sha256WithRSAEncryption
        Issuer: C=US, ST=California, L=San Francisco, O=Copyleft Certificate Co, OU=My Organizational Unit, CN=ChangeMe/emailAddress=me@example.net
        Validity
            Not Before: Nov 10 17:47:18 2023 GMT
            Not After : Nov  9 17:47:18 2024 GMT
        Subject: C=US, ST=OH, L=Cincinnati, O=University of Cincinnati, OU=Dept_Elec_Com_ Eng_Com_Sci., CN=client133/emailAddress=franco@gauss.ececs.uc.edu
        Subject Public Key Info:
            Public Key Algorithm: rsaEncryption
                Public-Key: (2048 bit)
                Modulus:
                    00:bf:66:35:6a:59:5f:b8:e5:9c:0b:cf:74:59:36:
                    0b:d9:b5:40:b9:f6:15:49:76:84:9f:cc:59:c7:2f:
                    19:ee:c6:12:03:7b:95:e0:96:86:ac:96:55:53:5d:
                    d4:ba:91:5b:5d:a3:16:ee:1e:d1:f5:c0:9c:53:20:
                    1d:c6:a3:f9:8d:9e:21:f8:65:fb:bb:2d:9a:e5:af:
                    4e:79:83:3d:33:1f:2d:56:00:b0:87:32:b6:6d:fc:
                    ba:3f:94:07:76:37:8c:1e:34:7a:d7:17:1b:45:21:
                    30:e5:3e:2c:55:e3:5e:e5:b0:e8:00:ed:ce:fa:bf:
                    35:37:f5:61:36:1c:cf:5f:6c:0e:a1:d4:48:7f:c6:
                    fc:18:4a:14:cd:8e:ea:78:36:e8:42:1e:4a:52:08:
                    c2:7d:02:83:e0:5f:7b:60:c1:32:f9:e3:c2:e8:b4:
                    4b:1a:16:6d:af:9a:4e:21:32:c1:25:46:93:d7:83:
                    51:41:2e:75:f7:b9:24:0f:db:b1:0c:6d:c2:84:00:
                    20:c4:1e:8e:90:c7:b9:c9:93:ec:91:78:34:43:2e:
                    18:9f:d6:31:71:46:1b:ee:a9:7f:79:46:73:5f:b4:
                    97:66:9b:5d:5c:ae:2e:be:66:94:19:c3:37:15:ec:
                    cf:be:5a:92:2e:84:85:1a:50:6d:14:cf:52:b9:a8:
                    f8:b3
                Exponent: 65537 (0x10001)
        X509v3 extensions:
            X509v3 Basic Constraints: 
                CA:FALSE
            X509v3 Subject Key Identifier: 
                5E:1D:89:DA:92:A4:B7:4A:01:76:B6:B7:89:90:EC:42:0D:B6:0C:4B
            X509v3 Authority Key Identifier: 
                keyid:C8:27:DA:64:30:08:40:08:4A:25:CC:DC:43:99:DE:77:A1:FE:77:BD
                DirName:/C=US/ST=California/L=San Francisco/O=Copyleft Certificate Co/OU=My Organizational Unit/CN=ChangeMe/emailAddress=me@example.net
                serial:A9:48:C3:7E:FC:1B:B0:A1

            X509v3 Extended Key Usage: 
                TLS Web Client Authentication
            X509v3 Key Usage: 
                Digital Signature
    Signature Algorithm: sha256WithRSAEncryption
         6d:23:14:0a:31:34:12:1e:0d:13:df:c1:7c:77:3f:41:eb:da:
         7c:ce:c5:52:74:6a:54:3f:e8:19:54:4f:fa:53:e5:60:90:6f:
         a2:ef:d5:13:b4:91:34:28:e6:07:8f:ac:87:f5:27:7e:b8:44:
         a5:bd:dc:ff:52:90:e8:b7:87:ae:fb:38:e5:8b:c3:ad:bc:09:
         a1:84:a6:81:0f:94:9a:a5:ca:5f:c5:5c:0e:ea:d3:b6:a4:6b:
         91:78:81:22:28:43:da:a5:02:91:76:2e:97:8a:f2:ce:7c:a4:
         66:d4:9f:09:6f:27:9f:c1:40:ac:50:1e:93:60:eb:5b:6b:1a:
         15:39:a8:54:bd:b9:b0:6a:38:30:10:89:38:6b:b7:6e:f2:7d:
         ac:af:1a:ab:74:b2:64:fa:9c:68:b8:fc:58:3c:16:62:ba:6c:
         d4:82:73:02:15:b7:57:b5:f9:35:9e:c7:97:e8:04:c0:68:c6:
         22:02:05:b7:c1:5c:a1:eb:73:51:ba:99:d6:92:e1:d1:b5:89:
         29:48:13:96:f6:53:ed:2e:ab:2d:77:4a:76:34:6e:51:8b:7f:
         c1:9f:c6:89:95:cf:8a:9c:f6:59:b5:18:25:dc:c3:f6:71:f9:
         07:42:a6:9b:0a:06:48:b5:86:04:ac:f7:b6:7f:67:df:96:e3:
         e6:41:61:f6
-----BEGIN CERTIFICATE-----
MIIFKjCCBBKgAwIBAgIQEP05/2IwhMdN8PzWT76YUzANBgkqhkiG9w0BAQsFADCB
rzELMAkGA1UEBhMCVVMxEzARBgNVBAgMCkNhbGlmb3JuaWExFjAUBgNVBAcMDVNh
biBGcmFuY2lzY28xIDAeBgNVBAoMF0NvcHlsZWZ0IENlcnRpZmljYXRlIENvMR8w
HQYDVQQLDBZNeSBPcmdhbml6YXRpb25hbCBVbml0MREwDwYDVQQDDAhDaGFuZ2VN
ZTEdMBsGCSqGSIb3DQEJARYObWVAZXhhbXBsZS5uZXQwHhcNMjMxMTEwMTc0NzE4
WhcNMjQxMTA5MTc0NzE4WjCBtjELMAkGA1UEBhMCVVMxCzAJBgNVBAgMAk9IMRMw
EQYDVQQHDApDaW5jaW5uYXRpMSEwHwYDVQQKDBhVbml2ZXJzaXR5IG9mIENpbmNp
bm5hdGkxJDAiBgNVBAsMG0RlcHRfRWxlY19Db21fIEVuZ19Db21fU2NpLjESMBAG
A1UEAwwJY2xpZW50MTMzMSgwJgYJKoZIhvcNAQkBFhlmcmFuY29AZ2F1c3MuZWNl
Y3MudWMuZWR1MIIBIjANBgkqhkiG9w0BAQEFAAOCAQ8AMIIBCgKCAQEAv2Y1allf
uOWcC890WTYL2bVAufYVSXaEn8xZxy8Z7sYSA3uV4JaGrJZVU13UupFbXaMW7h7R
9cCcUyAdxqP5jZ4h+GX7uy2a5a9OeYM9Mx8tVgCwhzK2bfy6P5QHdjeMHjR61xcb
RSEw5T4sVeNe5bDoAO3O+r81N/VhNhzPX2wOodRIf8b8GEoUzY7qeDboQh5KUgjC
fQKD4F97YMEy+ePC6LRLGhZtr5pOITLBJUaT14NRQS5197kkD9uxDG3ChAAgxB6O
kMe5yZPskXg0Qy4Yn9YxcUYb7ql/eUZzX7SXZptdXK4uvmaUGcM3FezPvlqSLoSF
GlBtFM9Suaj4swIDAQABo4IBNzCCATMwCQYDVR0TBAIwADAdBgNVHQ4EFgQUXh2J
2pKkt0oBdra3iZDsQg22DEswgeQGA1UdIwSB3DCB2YAUyCfaZDAIQAhKJczcQ5ne
d6H+d72hgbWkgbIwga8xCzAJBgNVBAYTAlVTMRMwEQYDVQQIDApDYWxpZm9ybmlh
MRYwFAYDVQQHDA1TYW4gRnJhbmNpc2NvMSAwHgYDVQQKDBdDb3B5bGVmdCBDZXJ0
aWZpY2F0ZSBDbzEfMB0GA1UECwwWTXkgT3JnYW5pemF0aW9uYWwgVW5pdDERMA8G
A1UEAwwIQ2hhbmdlTWUxHTAbBgkqhkiG9w0BCQEWDm1lQGV4YW1wbGUubmV0ggkA
qUjDfvwbsKEwEwYDVR0lBAwwCgYIKwYBBQUHAwIwCwYDVR0PBAQDAgeAMA0GCSqG
SIb3DQEBCwUAA4IBAQBtIxQKMTQSHg0T38F8dz9B69p8zsVSdGpUP+gZVE/6U+Vg
kG+i79UTtJE0KOYHj6yH9Sd+uESlvdz/UpDot4eu+zjli8OtvAmhhKaBD5Sapcpf
xVwO6tO2pGuReIEiKEPapQKRdi6XivLOfKRm1J8JbyefwUCsUB6TYOtbaxoVOahU
vbmwajgwEIk4a7du8n2srxqrdLJk+pxouPxYPBZiumzUgnMCFbdXtfk1nseX6ATA
aMYiAgW3wVyh63NRupnWkuHRtYkpSBOW9lPtLqstd0p2NG5Ri3/Bn8aJlc+KnPZZ
tRgl3MP2cfkHQqabCgZItYYErPe2f2ffluPmQWH2
-----END CERTIFICATE-----
