Certificate:
    Data:
        Version: 3 (0x2)
        Serial Number:
            c9:a5:c4:55:ba:ef:ba:8e:10:fd:70:62:b5:ae:91:c5
    Signature Algorithm: sha256WithRSAEncryption
        Issuer: C=US, ST=California, L=San Francisco, O=Copyleft Certificate Co, OU=My Organizational Unit, CN=ChangeMe/emailAddress=me@example.net
        Validity
            Not Before: Nov 11 01:45:34 2023 GMT
            Not After : Nov 10 01:45:34 2024 GMT
        Subject: C=US, ST=OH, L=Cincinnati, O=University of Cincinnati, OU=Dept. Elec. Comp. Eng. Comp. Sci., CN=client88/emailAddress=franco@gauss.ececs.uc.edu
        Subject Public Key Info:
            Public Key Algorithm: rsaEncryption
                Public-Key: (2048 bit)
                Modulus:
                    00:c2:fd:38:74:f6:24:6d:77:33:7a:a1:88:8b:d0:
                    0b:08:94:a9:ed:4f:6e:8d:79:b1:03:be:17:16:f4:
                    e6:3a:0a:9b:b3:a1:6f:c4:96:e3:b2:f4:40:54:7f:
                    4f:0d:6a:d6:34:ba:33:4c:1b:41:05:42:22:f7:63:
                    92:c5:20:03:51:19:b0:38:82:6d:60:27:79:23:dc:
                    38:d9:a4:7b:ae:25:f1:5c:ae:d9:31:68:50:b9:3f:
                    bc:11:09:34:1e:8f:07:56:34:c2:c0:42:65:ef:0f:
                    87:38:d3:94:7d:95:55:07:fc:08:2a:2b:2d:6c:65:
                    06:57:f4:ed:d7:60:82:f6:e3:ef:11:ba:38:48:2e:
                    48:57:fe:83:8b:f1:b9:1c:10:e5:a2:c0:55:82:45:
                    84:71:c6:2f:cd:b2:61:af:7c:ac:2d:e2:ea:06:65:
                    56:9e:09:fc:72:bc:03:6b:9f:08:20:41:38:48:67:
                    e0:25:9a:ef:8c:b8:c9:c3:6e:8b:fe:a1:c0:6e:32:
                    75:9c:c2:7a:d9:02:4b:15:85:b0:15:f9:a5:a9:33:
                    b0:a9:93:de:00:e6:25:4b:5f:1a:be:53:95:da:d9:
                    0f:71:01:6c:63:8a:33:99:b0:54:c6:7c:2e:1d:a3:
                    a3:bd:af:3f:11:36:1e:37:88:88:63:ab:d8:1b:f6:
                    c5:e3
                Exponent: 65537 (0x10001)
        X509v3 extensions:
            X509v3 Basic Constraints: 
                CA:FALSE
            X509v3 Subject Key Identifier: 
                32:7C:0D:B6:8B:67:B5:46:A9:32:41:5C:CD:8F:27:E7:90:B7:8D:13
            X509v3 Authority Key Identifier: 
                keyid:73:DE:A0:43:0F:AE:B1:9E:E8:59:69:18:50:A1:1A:1F:D4:A1:E3:F0
                DirName:/C=US/ST=California/L=San Francisco/O=Copyleft Certificate Co/OU=My Organizational Unit/CN=ChangeMe/emailAddress=me@example.net
                serial:E9:BB:CB:16:C5:32:BE:3B

            X509v3 Extended Key Usage: 
                TLS Web Client Authentication
            X509v3 Key Usage: 
                Digital Signature
    Signature Algorithm: sha256WithRSAEncryption
         0c:23:ae:aa:3d:56:c4:65:ed:03:ef:f0:b4:fb:7d:cc:6b:22:
         cf:a1:cd:3b:b3:32:fa:2c:47:f5:fa:25:1d:16:02:fa:b3:23:
         1d:ab:4e:37:f2:1f:f6:e2:69:cd:7a:0a:28:ff:f7:e9:77:0b:
         76:43:37:7f:4d:22:9c:2e:c4:22:9f:ed:7a:3e:27:52:74:f0:
         54:d2:93:d0:4a:6a:b2:9e:5b:2f:58:87:41:0f:28:8b:e2:1e:
         f0:0c:72:6b:f6:4d:7c:b7:7e:1a:7f:2e:0f:31:f5:44:ac:d3:
         8b:fc:e7:f3:81:67:e8:09:26:77:c3:c4:58:c8:21:82:92:c0:
         4e:78:f4:bd:ca:ca:68:9a:63:de:38:2c:7b:06:c4:1d:ce:37:
         59:3b:29:3a:c9:48:ce:23:45:91:95:81:c9:3a:c0:e6:7b:0e:
         97:04:ce:04:e9:23:90:1e:ab:76:c2:7f:98:e7:2d:f4:e5:87:
         3b:89:d0:55:72:41:25:81:e2:8f:12:76:3a:62:86:1f:c4:6c:
         3f:ca:ee:10:eb:6b:ac:90:a1:7c:c6:1c:e4:cd:4d:2f:fe:18:
         70:70:87:c2:52:f5:df:8b:a2:58:be:ef:11:db:71:4b:fe:fa:
         6e:58:ee:36:99:19:7c:2d:d6:73:15:5c:f3:a4:a8:d3:1d:31:
         35:f3:b1:7c
-----BEGIN CERTIFICATE-----
MIIFMDCCBBigAwIBAgIRAMmlxFW677qOEP1wYrWukcUwDQYJKoZIhvcNAQELBQAw
ga8xCzAJBgNVBAYTAlVTMRMwEQYDVQQIDApDYWxpZm9ybmlhMRYwFAYDVQQHDA1T
YW4gRnJhbmNpc2NvMSAwHgYDVQQKDBdDb3B5bGVmdCBDZXJ0aWZpY2F0ZSBDbzEf
MB0GA1UECwwWTXkgT3JnYW5pemF0aW9uYWwgVW5pdDERMA8GA1UEAwwIQ2hhbmdl
TWUxHTAbBgkqhkiG9w0BCQEWDm1lQGV4YW1wbGUubmV0MB4XDTIzMTExMTAxNDUz
NFoXDTI0MTExMDAxNDUzNFowgbsxCzAJBgNVBAYTAlVTMQswCQYDVQQIDAJPSDET
MBEGA1UEBwwKQ2luY2lubmF0aTEhMB8GA1UECgwYVW5pdmVyc2l0eSBvZiBDaW5j
aW5uYXRpMSowKAYDVQQLDCFEZXB0LiBFbGVjLiBDb21wLiBFbmcuIENvbXAuIFNj
aS4xETAPBgNVBAMMCGNsaWVudDg4MSgwJgYJKoZIhvcNAQkBFhlmcmFuY29AZ2F1
c3MuZWNlY3MudWMuZWR1MIIBIjANBgkqhkiG9w0BAQEFAAOCAQ8AMIIBCgKCAQEA
wv04dPYkbXczeqGIi9ALCJSp7U9ujXmxA74XFvTmOgqbs6FvxJbjsvRAVH9PDWrW
NLozTBtBBUIi92OSxSADURmwOIJtYCd5I9w42aR7riXxXK7ZMWhQuT+8EQk0Ho8H
VjTCwEJl7w+HONOUfZVVB/wIKistbGUGV/Tt12CC9uPvEbo4SC5IV/6Di/G5HBDl
osBVgkWEccYvzbJhr3ysLeLqBmVWngn8crwDa58IIEE4SGfgJZrvjLjJw26L/qHA
bjJ1nMJ62QJLFYWwFfmlqTOwqZPeAOYlS18avlOV2tkPcQFsY4ozmbBUxnwuHaOj
va8/ETYeN4iIY6vYG/bF4wIDAQABo4IBNzCCATMwCQYDVR0TBAIwADAdBgNVHQ4E
FgQUMnwNtotntUapMkFczY8n55C3jRMwgeQGA1UdIwSB3DCB2YAUc96gQw+usZ7o
WWkYUKEaH9Sh4/ChgbWkgbIwga8xCzAJBgNVBAYTAlVTMRMwEQYDVQQIDApDYWxp
Zm9ybmlhMRYwFAYDVQQHDA1TYW4gRnJhbmNpc2NvMSAwHgYDVQQKDBdDb3B5bGVm
dCBDZXJ0aWZpY2F0ZSBDbzEfMB0GA1UECwwWTXkgT3JnYW5pemF0aW9uYWwgVW5p
dDERMA8GA1UEAwwIQ2hhbmdlTWUxHTAbBgkqhkiG9w0BCQEWDm1lQGV4YW1wbGUu
bmV0ggkA6bvLFsUyvjswEwYDVR0lBAwwCgYIKwYBBQUHAwIwCwYDVR0PBAQDAgeA
MA0GCSqGSIb3DQEBCwUAA4IBAQAMI66qPVbEZe0D7/C0+33MayLPoc07szL6LEf1
+iUdFgL6syMdq0438h/24mnNegoo//fpdwt2Qzd/TSKcLsQin+16PidSdPBU0pPQ
SmqynlsvWIdBDyiL4h7wDHJr9k18t34afy4PMfVErNOL/OfzgWfoCSZ3w8RYyCGC
ksBOePS9yspommPeOCx7BsQdzjdZOyk6yUjOI0WRlYHJOsDmew6XBM4E6SOQHqt2
wn+Y5y305Yc7idBVckElgeKPEnY6YoYfxGw/yu4Q62uskKF8xhzkzU0v/hhwcIfC
UvXfi6JYvu8R23FL/vpuWO42mRl8LdZzFVzzpKjTHTE187F8
-----END CERTIFICATE-----
