Certificate:
    Data:
        Version: 3 (0x2)
        Serial Number:
            7a:0a:45:de:eb:cb:2b:6a:84:8f:63:97:99:de:4f:04
    Signature Algorithm: sha256WithRSAEncryption
        Issuer: C=US, ST=California, L=San Francisco, O=Copyleft Certificate Co, OU=My Organizational Unit, CN=ChangeMe/emailAddress=me@example.net
        Validity
            Not Before: Nov 13 11:46:21 2023 GMT
            Not After : Nov 12 11:46:21 2024 GMT
        Subject: C=US, ST=California, L=San Francisco, O=Copyleft Certificate Co, OU=My Organizational Unit, CN=ChangeMe/emailAddress=me@example.net
        Subject Public Key Info:
            Public Key Algorithm: rsaEncryption
                Public-Key: (2048 bit)
                Modulus:
                    00:e9:c0:f3:c1:8a:a6:9f:71:f6:27:89:01:47:5d:
                    ac:eb:2e:68:27:d7:10:67:c7:fb:8b:ad:e4:3f:26:
                    1b:ea:28:f9:6f:d7:f4:17:b4:44:15:2a:df:10:d9:
                    1b:6f:73:18:c9:51:14:aa:5f:31:5d:db:ef:d5:25:
                    98:de:52:fa:ee:28:59:e7:ff:03:c6:13:b4:32:24:
                    93:ba:44:fd:84:2f:7c:aa:cc:77:4d:d6:fd:c9:b7:
                    fd:6d:d5:0f:49:50:89:55:fa:82:80:12:cf:38:30:
                    86:ce:1a:7b:42:01:e7:c8:b7:33:e2:8f:34:28:47:
                    78:e9:18:0a:77:dd:0e:48:c9:af:a6:f7:fe:d9:71:
                    76:2a:d1:08:96:d0:ea:59:3a:18:f2:f2:f7:59:c3:
                    4b:35:17:40:65:a8:ad:b7:ef:43:8d:4a:7d:ad:4c:
                    4c:21:ca:c9:8b:70:91:ef:a5:1d:df:c0:5b:83:da:
                    fd:0f:e8:8e:bd:ca:4d:6a:ed:7b:08:d2:08:b0:9f:
                    26:39:88:97:de:75:2c:68:ab:28:44:59:23:15:11:
                    59:1d:ac:35:6b:eb:bd:81:e5:1f:56:21:c7:c6:05:
                    5e:41:d6:fc:28:c5:42:db:46:bb:b7:5c:3a:4f:d2:
                    53:00:f2:65:9f:bc:e2:2f:8b:d5:d3:57:d6:ac:17:
                    80:2f
                Exponent: 65537 (0x10001)
        X509v3 extensions:
            X509v3 Basic Constraints: 
                CA:FALSE
            X509v3 Subject Key Identifier: 
                81:52:DC:44:91:79:55:05:4D:4A:51:AC:CD:47:63:38:4E:AE:06:0F
            X509v3 Authority Key Identifier: 
                keyid:B4:AE:AB:ED:FC:ED:84:AA:AD:77:5D:7C:84:28:1C:CA:CE:AE:2A:44
                DirName:/C=US/ST=California/L=San Francisco/O=Copyleft Certificate Co/OU=My Organizational Unit/CN=ChangeMe/emailAddress=me@example.net
                serial:BD:6C:3B:F4:D3:07:C9:D1

            X509v3 Extended Key Usage: 
                TLS Web Server Authentication
            X509v3 Key Usage: 
                Digital Signature, Key Encipherment
            X509v3 Subject Alternative Name: 
                DNS:ChangeMe
    Signature Algorithm: sha256WithRSAEncryption
         69:82:40:ff:87:74:1f:b7:4c:86:f4:38:1f:3a:2a:9e:ee:97:
         1b:44:0e:d9:f1:e5:33:70:46:56:c6:99:6e:9c:ee:c9:64:5d:
         74:61:1d:69:64:6d:c5:11:35:23:18:62:0d:8f:6d:cc:f6:ea:
         64:18:a2:18:33:6e:7b:01:6f:b4:17:18:da:6c:69:79:b2:7a:
         f8:a7:5e:1d:dc:3e:fa:e7:74:df:cd:33:67:6b:6c:ea:c3:1b:
         65:d3:a4:62:c0:cd:23:79:a2:a5:2b:14:e4:9c:33:bb:5b:74:
         10:15:b8:21:39:3b:a1:85:1b:22:2a:cf:68:98:d5:cc:d7:8e:
         f1:55:62:15:c7:c8:cc:a7:13:92:bf:9f:22:0d:1f:e3:26:63:
         53:be:fc:a9:4f:9d:e8:41:4a:a9:47:25:6f:19:b3:16:f1:c0:
         13:8b:91:f8:cf:a4:05:40:d3:e2:ae:93:a0:c0:38:d6:e4:27:
         ce:e2:0b:01:c6:5f:2a:a1:ef:5c:8f:ac:d7:7e:2d:35:ec:9d:
         a1:a8:3b:ee:71:e9:f0:30:b7:0a:88:23:b9:6d:b2:95:10:e9:
         52:0e:fb:7f:3c:58:8e:a1:e8:f9:ec:5a:31:a9:ce:81:ba:e2:
         0a:8e:e7:54:e6:5a:72:c9:66:27:5f:25:b8:de:95:84:de:c6:
         6a:2b:58:8c
-----BEGIN CERTIFICATE-----
MIIFODCCBCCgAwIBAgIQegpF3uvLK2qEj2OXmd5PBDANBgkqhkiG9w0BAQsFADCB
rzELMAkGA1UEBhMCVVMxEzARBgNVBAgMCkNhbGlmb3JuaWExFjAUBgNVBAcMDVNh
biBGcmFuY2lzY28xIDAeBgNVBAoMF0NvcHlsZWZ0IENlcnRpZmljYXRlIENvMR8w
HQYDVQQLDBZNeSBPcmdhbml6YXRpb25hbCBVbml0MREwDwYDVQQDDAhDaGFuZ2VN
ZTEdMBsGCSqGSIb3DQEJARYObWVAZXhhbXBsZS5uZXQwHhcNMjMxMTEzMTE0NjIx
WhcNMjQxMTEyMTE0NjIxWjCBrzELMAkGA1UEBhMCVVMxEzARBgNVBAgMCkNhbGlm
b3JuaWExFjAUBgNVBAcMDVNhbiBGcmFuY2lzY28xIDAeBgNVBAoMF0NvcHlsZWZ0
IENlcnRpZmljYXRlIENvMR8wHQYDVQQLDBZNeSBPcmdhbml6YXRpb25hbCBVbml0
MREwDwYDVQQDDAhDaGFuZ2VNZTEdMBsGCSqGSIb3DQEJARYObWVAZXhhbXBsZS5u
ZXQwggEiMA0GCSqGSIb3DQEBAQUAA4IBDwAwggEKAoIBAQDpwPPBiqafcfYniQFH
XazrLmgn1xBnx/uLreQ/JhvqKPlv1/QXtEQVKt8Q2RtvcxjJURSqXzFd2+/VJZje
UvruKFnn/wPGE7QyJJO6RP2EL3yqzHdN1v3Jt/1t1Q9JUIlV+oKAEs84MIbOGntC
AefItzPijzQoR3jpGAp33Q5Iya+m9/7ZcXYq0QiW0OpZOhjy8vdZw0s1F0BlqK23
70ONSn2tTEwhysmLcJHvpR3fwFuD2v0P6I69yk1q7XsI0giwnyY5iJfedSxoqyhE
WSMVEVkdrDVr672B5R9WIcfGBV5B1vwoxULbRru3XDpP0lMA8mWfvOIvi9XTV9as
F4AvAgMBAAGjggFMMIIBSDAJBgNVHRMEAjAAMB0GA1UdDgQWBBSBUtxEkXlVBU1K
UazNR2M4Tq4GDzCB5AYDVR0jBIHcMIHZgBS0rqvt/O2Eqq13XXyEKBzKzq4qRKGB
taSBsjCBrzELMAkGA1UEBhMCVVMxEzARBgNVBAgMCkNhbGlmb3JuaWExFjAUBgNV
BAcMDVNhbiBGcmFuY2lzY28xIDAeBgNVBAoMF0NvcHlsZWZ0IENlcnRpZmljYXRl
IENvMR8wHQYDVQQLDBZNeSBPcmdhbml6YXRpb25hbCBVbml0MREwDwYDVQQDDAhD
aGFuZ2VNZTEdMBsGCSqGSIb3DQEJARYObWVAZXhhbXBsZS5uZXSCCQC9bDv00wfJ
0TATBgNVHSUEDDAKBggrBgEFBQcDATALBgNVHQ8EBAMCBaAwEwYDVR0RBAwwCoII
Q2hhbmdlTWUwDQYJKoZIhvcNAQELBQADggEBAGmCQP+HdB+3TIb0OB86Kp7ulxtE
Dtnx5TNwRlbGmW6c7slkXXRhHWlkbcURNSMYYg2Pbcz26mQYohgzbnsBb7QXGNps
aXmyevinXh3cPvrndN/NM2drbOrDG2XTpGLAzSN5oqUrFOScM7tbdBAVuCE5O6GF
GyIqz2iY1czXjvFVYhXHyMynE5K/nyINH+MmY1O+/KlPnehBSqlHJW8ZsxbxwBOL
kfjPpAVA0+Kuk6DAONbkJ87iCwHGXyqh71yPrNd+LTXsnaGoO+5x6fAwtwqII7lt
spUQ6VIO+388WI6h6PnsWjGpzoG64gqO51TmWnLJZidfJbjelYTexmorWIw=
-----END CERTIFICATE-----
