Certificate:
    Data:
        Version: 3 (0x2)
        Serial Number:
            05:81:3d:e7:d5:0f:85:be:d4:fa:8b:39:37:cc:9a:0b
    Signature Algorithm: sha256WithRSAEncryption
        Issuer: C=US, ST=California, L=San Francisco, O=Copyleft Certificate Co, OU=My Organizational Unit, CN=ChangeMe/emailAddress=me@example.net
        Validity
            Not Before: Nov 11 01:57:58 2023 GMT
            Not After : Nov 10 01:57:58 2024 GMT
        Subject: C=US, ST=California, L=San Francisco, O=Copyleft Certificate Co, OU=My Organizational Unit, CN=ChangeMe/emailAddress=me@example.net
        Subject Public Key Info:
            Public Key Algorithm: rsaEncryption
                Public-Key: (2048 bit)
                Modulus:
                    00:af:0e:94:57:01:83:89:09:91:a5:9e:cb:10:ff:
                    2f:41:fd:61:11:b8:3e:f0:f4:57:ac:2e:ce:f2:61:
                    28:0b:77:bd:12:8e:dd:1f:a6:58:ff:21:e3:40:e5:
                    df:40:15:24:fe:36:30:5f:0a:1a:0a:a1:67:9d:4b:
                    e7:3b:45:06:1b:21:cc:a5:b1:af:1b:2b:7c:b3:92:
                    7d:8d:55:96:4a:10:6e:28:7d:0f:b5:e6:0e:90:4c:
                    d4:80:e5:dd:87:80:ae:29:c0:b2:01:b9:75:e5:ce:
                    7d:a0:ab:52:6f:fb:67:22:42:5d:1a:34:00:8d:a2:
                    42:7c:fa:46:98:4e:9d:11:6f:86:21:68:31:15:24:
                    42:8c:e9:e8:e3:d5:ff:21:5e:e7:94:c6:00:74:fc:
                    6a:6a:7b:69:6d:ca:12:f9:6b:52:7e:5e:34:9a:ff:
                    d6:2c:ba:3d:dc:b0:a1:fb:1f:90:79:13:17:2f:2d:
                    03:e2:87:60:08:0a:0b:d2:6a:b0:fb:29:78:f5:9d:
                    a2:c9:a3:74:d2:64:2d:c5:94:d2:70:c8:60:da:3b:
                    e9:bb:b5:37:c6:f3:9e:36:5c:51:2d:36:e1:b3:c6:
                    cf:26:7e:81:d6:45:54:34:51:cb:8a:56:a6:59:99:
                    ed:91:08:3d:1b:22:31:44:89:a6:8f:75:a1:31:d5:
                    38:bb
                Exponent: 65537 (0x10001)
        X509v3 extensions:
            X509v3 Basic Constraints: 
                CA:FALSE
            X509v3 Subject Key Identifier: 
                90:6B:DD:05:FC:F5:0A:47:19:67:7F:7F:09:61:C5:8C:4F:EE:98:E2
            X509v3 Authority Key Identifier: 
                keyid:7B:0F:93:16:64:9F:71:41:D3:1B:FB:ED:6A:70:9B:CA:2E:70:F0:4B
                DirName:/C=US/ST=California/L=San Francisco/O=Copyleft Certificate Co/OU=My Organizational Unit/CN=ChangeMe/emailAddress=me@example.net
                serial:B9:F2:4E:2C:79:B3:D4:6C

            X509v3 Extended Key Usage: 
                TLS Web Server Authentication
            X509v3 Key Usage: 
                Digital Signature, Key Encipherment
            X509v3 Subject Alternative Name: 
                DNS:ChangeMe
    Signature Algorithm: sha256WithRSAEncryption
         92:69:8d:7b:63:ff:d8:af:f0:6c:e0:3d:03:61:95:14:ec:4e:
         61:e1:7d:ab:53:8f:05:92:b5:5d:96:df:b9:57:c7:90:73:04:
         61:b0:3e:22:c4:00:b3:fb:22:6c:a4:62:9e:d5:9a:7f:54:98:
         9c:ad:4b:03:57:2e:b0:52:36:e4:ab:95:ce:ae:d7:ed:6f:ae:
         61:a8:05:1a:5e:89:d1:93:ea:89:85:ad:20:81:cc:85:6e:39:
         21:4b:23:f1:a8:5b:34:cb:af:8b:e7:61:49:ca:cc:ff:14:57:
         00:13:5c:9e:c9:ec:21:71:ea:2b:e2:4b:cb:a9:9c:38:78:22:
         76:56:0b:d3:bb:97:2e:77:28:3d:2e:19:1a:fe:3e:24:26:e2:
         7a:91:3e:2e:7e:72:27:af:5f:79:ca:08:26:c3:b8:ba:a2:52:
         9c:8a:94:e0:e5:64:8b:41:d4:30:2e:79:23:82:2a:8a:61:61:
         01:96:10:78:0e:ed:3a:2f:c9:da:7b:45:59:62:4d:2e:b6:28:
         b0:74:30:bc:7f:5d:b0:7a:1e:2c:71:44:e9:51:b9:f7:e1:97:
         df:dc:0d:86:12:be:18:4a:eb:f3:58:5c:9d:dd:d3:bc:4c:ba:
         2e:af:11:ab:94:c2:29:b5:49:7c:3b:7a:fc:a1:77:4a:87:73:
         0a:4d:3c:0f
-----BEGIN CERTIFICATE-----
MIIFODCCBCCgAwIBAgIQBYE959UPhb7U+os5N8yaCzANBgkqhkiG9w0BAQsFADCB
rzELMAkGA1UEBhMCVVMxEzARBgNVBAgMCkNhbGlmb3JuaWExFjAUBgNVBAcMDVNh
biBGcmFuY2lzY28xIDAeBgNVBAoMF0NvcHlsZWZ0IENlcnRpZmljYXRlIENvMR8w
HQYDVQQLDBZNeSBPcmdhbml6YXRpb25hbCBVbml0MREwDwYDVQQDDAhDaGFuZ2VN
ZTEdMBsGCSqGSIb3DQEJARYObWVAZXhhbXBsZS5uZXQwHhcNMjMxMTExMDE1NzU4
WhcNMjQxMTEwMDE1NzU4WjCBrzELMAkGA1UEBhMCVVMxEzARBgNVBAgMCkNhbGlm
b3JuaWExFjAUBgNVBAcMDVNhbiBGcmFuY2lzY28xIDAeBgNVBAoMF0NvcHlsZWZ0
IENlcnRpZmljYXRlIENvMR8wHQYDVQQLDBZNeSBPcmdhbml6YXRpb25hbCBVbml0
MREwDwYDVQQDDAhDaGFuZ2VNZTEdMBsGCSqGSIb3DQEJARYObWVAZXhhbXBsZS5u
ZXQwggEiMA0GCSqGSIb3DQEBAQUAA4IBDwAwggEKAoIBAQCvDpRXAYOJCZGlnssQ
/y9B/WERuD7w9FesLs7yYSgLd70Sjt0fplj/IeNA5d9AFST+NjBfChoKoWedS+c7
RQYbIcylsa8bK3yzkn2NVZZKEG4ofQ+15g6QTNSA5d2HgK4pwLIBuXXlzn2gq1Jv
+2ciQl0aNACNokJ8+kaYTp0Rb4YhaDEVJEKM6ejj1f8hXueUxgB0/Gpqe2ltyhL5
a1J+XjSa/9Ysuj3csKH7H5B5ExcvLQPih2AICgvSarD7KXj1naLJo3TSZC3FlNJw
yGDaO+m7tTfG8542XFEtNuGzxs8mfoHWRVQ0UcuKVqZZme2RCD0bIjFEiaaPdaEx
1Ti7AgMBAAGjggFMMIIBSDAJBgNVHRMEAjAAMB0GA1UdDgQWBBSQa90F/PUKRxln
f38JYcWMT+6Y4jCB5AYDVR0jBIHcMIHZgBR7D5MWZJ9xQdMb++1qcJvKLnDwS6GB
taSBsjCBrzELMAkGA1UEBhMCVVMxEzARBgNVBAgMCkNhbGlmb3JuaWExFjAUBgNV
BAcMDVNhbiBGcmFuY2lzY28xIDAeBgNVBAoMF0NvcHlsZWZ0IENlcnRpZmljYXRl
IENvMR8wHQYDVQQLDBZNeSBPcmdhbml6YXRpb25hbCBVbml0MREwDwYDVQQDDAhD
aGFuZ2VNZTEdMBsGCSqGSIb3DQEJARYObWVAZXhhbXBsZS5uZXSCCQC58k4sebPU
bDATBgNVHSUEDDAKBggrBgEFBQcDATALBgNVHQ8EBAMCBaAwEwYDVR0RBAwwCoII
Q2hhbmdlTWUwDQYJKoZIhvcNAQELBQADggEBAJJpjXtj/9iv8GzgPQNhlRTsTmHh
fatTjwWStV2W37lXx5BzBGGwPiLEALP7ImykYp7Vmn9UmJytSwNXLrBSNuSrlc6u
1+1vrmGoBRpeidGT6omFrSCBzIVuOSFLI/GoWzTLr4vnYUnKzP8UVwATXJ7J7CFx
6iviS8upnDh4InZWC9O7ly53KD0uGRr+PiQm4nqRPi5+cievX3nKCCbDuLqiUpyK
lODlZItB1DAueSOCKophYQGWEHgO7Tovydp7RVliTS62KLB0MLx/XbB6HixxROlR
uffhl9/cDYYSvhhK6/NYXJ3d07xMui6vEauUwim1SXw7evyhd0qHcwpNPA8=
-----END CERTIFICATE-----
