Certificate:
    Data:
        Version: 3 (0x2)
        Serial Number:
            a8:a4:0f:b3:0e:cf:91:fc:54:bc:fc:8a:ac:0d:83:d0
    Signature Algorithm: sha256WithRSAEncryption
        Issuer: C=US, ST=California, L=San Francisco, O=Copyleft Certificate Co, OU=My Organizational Unit, CN=ChangeMe/emailAddress=me@example.net
        Validity
            Not Before: Nov 11 01:58:35 2023 GMT
            Not After : Nov 10 01:58:35 2024 GMT
        Subject: C=US, ST=OH, L=Cincinnati, O=University of Cincinnati, OU=Dept. Elec. Comp. Eng. Comp. Sci., CN=client8/emailAddress=franco@gauss.ececs.uc.edu
        Subject Public Key Info:
            Public Key Algorithm: rsaEncryption
                Public-Key: (2048 bit)
                Modulus:
                    00:d2:36:3f:dc:cb:5b:2b:3a:d1:f9:15:f4:7b:9d:
                    05:92:0b:16:61:c1:cc:6c:5a:25:21:b5:86:67:54:
                    6a:50:aa:35:17:20:8c:6e:e5:12:29:c4:00:c1:67:
                    f2:40:17:27:fd:19:1b:67:8c:1b:c7:2f:3c:cd:b4:
                    f4:73:93:b4:90:0e:af:88:41:89:64:dc:bb:9f:e7:
                    80:84:12:d2:63:e2:ba:45:c2:07:28:e1:93:ee:17:
                    02:fe:0f:5a:9e:80:eb:ab:54:d0:66:4d:84:61:b6:
                    62:52:91:3e:be:62:08:b8:60:05:82:ec:73:36:24:
                    9c:b6:c3:ad:72:bc:71:4d:ac:39:53:9a:a3:7f:28:
                    1d:23:e7:02:b6:34:5b:ff:37:b5:22:38:49:d6:d1:
                    9e:8f:e5:fa:e7:17:fb:ec:cb:b2:e4:dc:11:b8:1e:
                    63:1b:35:57:3c:5d:44:39:7b:cc:ae:29:56:c1:09:
                    22:6c:c1:4f:3a:60:d2:5b:d6:66:d4:df:6e:8a:76:
                    68:54:e1:96:73:22:56:03:e9:b5:e2:c4:dc:c3:6d:
                    4f:4b:17:56:01:9f:73:d9:d8:0c:00:8f:e1:a3:f9:
                    d5:f9:16:57:f6:7a:f5:2b:36:7c:8e:f8:83:5c:f4:
                    39:93:77:88:83:ac:80:8b:90:14:f0:65:99:d4:91:
                    73:75
                Exponent: 65537 (0x10001)
        X509v3 extensions:
            X509v3 Basic Constraints: 
                CA:FALSE
            X509v3 Subject Key Identifier: 
                24:D1:47:41:D7:16:FC:91:97:8F:5E:33:F0:F2:E6:FA:65:23:B6:2A
            X509v3 Authority Key Identifier: 
                keyid:7B:0F:93:16:64:9F:71:41:D3:1B:FB:ED:6A:70:9B:CA:2E:70:F0:4B
                DirName:/C=US/ST=California/L=San Francisco/O=Copyleft Certificate Co/OU=My Organizational Unit/CN=ChangeMe/emailAddress=me@example.net
                serial:B9:F2:4E:2C:79:B3:D4:6C

            X509v3 Extended Key Usage: 
                TLS Web Client Authentication
            X509v3 Key Usage: 
                Digital Signature
    Signature Algorithm: sha256WithRSAEncryption
         96:91:a4:52:18:d0:25:13:c5:75:a2:bf:49:47:7a:29:db:0e:
         80:40:06:95:12:d7:da:07:8a:04:44:bd:b0:18:ed:c3:96:a2:
         e2:e0:cd:36:09:8d:f2:65:75:be:ba:98:bf:ab:52:a5:ab:e2:
         08:01:53:85:25:35:6c:8b:14:2d:97:a8:af:5d:19:1f:21:74:
         11:fb:6c:f4:41:a8:31:cc:c5:bc:07:a2:52:26:89:66:4d:0d:
         4c:9b:c6:df:3d:22:f0:9f:26:ce:f4:a9:bf:5c:0d:f3:ac:4f:
         a1:dd:f7:4e:60:5e:fe:d4:7c:a1:e3:83:75:7a:bb:42:29:ac:
         f0:48:7b:f5:1c:81:20:29:d8:16:57:31:d9:c3:34:bd:14:b2:
         9d:59:15:dd:06:fe:c1:39:5e:7f:d4:de:7c:2e:ac:45:9c:eb:
         47:f9:b0:6a:b6:57:50:75:84:bf:a6:36:25:60:d0:a3:3c:57:
         e0:ff:b4:14:ef:63:01:92:eb:1d:80:17:0a:18:a7:d0:77:20:
         6c:3f:ec:be:63:ed:68:86:2e:32:7e:c1:29:3b:80:21:3a:22:
         ad:55:4f:93:f1:14:2e:08:80:9a:e1:30:ed:bd:c9:14:99:57:
         36:64:cb:12:d2:45:e7:2a:1c:01:20:b8:c4:cf:3e:25:c8:33:
         2a:ab:7b:36
-----BEGIN CERTIFICATE-----
MIIFLzCCBBegAwIBAgIRAKikD7MOz5H8VLz8iqwNg9AwDQYJKoZIhvcNAQELBQAw
ga8xCzAJBgNVBAYTAlVTMRMwEQYDVQQIDApDYWxpZm9ybmlhMRYwFAYDVQQHDA1T
YW4gRnJhbmNpc2NvMSAwHgYDVQQKDBdDb3B5bGVmdCBDZXJ0aWZpY2F0ZSBDbzEf
MB0GA1UECwwWTXkgT3JnYW5pemF0aW9uYWwgVW5pdDERMA8GA1UEAwwIQ2hhbmdl
TWUxHTAbBgkqhkiG9w0BCQEWDm1lQGV4YW1wbGUubmV0MB4XDTIzMTExMTAxNTgz
NVoXDTI0MTExMDAxNTgzNVowgboxCzAJBgNVBAYTAlVTMQswCQYDVQQIDAJPSDET
MBEGA1UEBwwKQ2luY2lubmF0aTEhMB8GA1UECgwYVW5pdmVyc2l0eSBvZiBDaW5j
aW5uYXRpMSowKAYDVQQLDCFEZXB0LiBFbGVjLiBDb21wLiBFbmcuIENvbXAuIFNj
aS4xEDAOBgNVBAMMB2NsaWVudDgxKDAmBgkqhkiG9w0BCQEWGWZyYW5jb0BnYXVz
cy5lY2Vjcy51Yy5lZHUwggEiMA0GCSqGSIb3DQEBAQUAA4IBDwAwggEKAoIBAQDS
Nj/cy1srOtH5FfR7nQWSCxZhwcxsWiUhtYZnVGpQqjUXIIxu5RIpxADBZ/JAFyf9
GRtnjBvHLzzNtPRzk7SQDq+IQYlk3Luf54CEEtJj4rpFwgco4ZPuFwL+D1qegOur
VNBmTYRhtmJSkT6+Ygi4YAWC7HM2JJy2w61yvHFNrDlTmqN/KB0j5wK2NFv/N7Ui
OEnW0Z6P5frnF/vsy7Lk3BG4HmMbNVc8XUQ5e8yuKVbBCSJswU86YNJb1mbU326K
dmhU4ZZzIlYD6bXixNzDbU9LF1YBn3PZ2AwAj+Gj+dX5Flf2evUrNnyO+INc9DmT
d4iDrICLkBTwZZnUkXN1AgMBAAGjggE3MIIBMzAJBgNVHRMEAjAAMB0GA1UdDgQW
BBQk0UdB1xb8kZePXjPw8ub6ZSO2KjCB5AYDVR0jBIHcMIHZgBR7D5MWZJ9xQdMb
++1qcJvKLnDwS6GBtaSBsjCBrzELMAkGA1UEBhMCVVMxEzARBgNVBAgMCkNhbGlm
b3JuaWExFjAUBgNVBAcMDVNhbiBGcmFuY2lzY28xIDAeBgNVBAoMF0NvcHlsZWZ0
IENlcnRpZmljYXRlIENvMR8wHQYDVQQLDBZNeSBPcmdhbml6YXRpb25hbCBVbml0
MREwDwYDVQQDDAhDaGFuZ2VNZTEdMBsGCSqGSIb3DQEJARYObWVAZXhhbXBsZS5u
ZXSCCQC58k4sebPUbDATBgNVHSUEDDAKBggrBgEFBQcDAjALBgNVHQ8EBAMCB4Aw
DQYJKoZIhvcNAQELBQADggEBAJaRpFIY0CUTxXWiv0lHeinbDoBABpUS19oHigRE
vbAY7cOWouLgzTYJjfJldb66mL+rUqWr4ggBU4UlNWyLFC2XqK9dGR8hdBH7bPRB
qDHMxbwHolImiWZNDUybxt89IvCfJs70qb9cDfOsT6Hd905gXv7UfKHjg3V6u0Ip
rPBIe/UcgSAp2BZXMdnDNL0Usp1ZFd0G/sE5Xn/U3nwurEWc60f5sGq2V1B1hL+m
NiVg0KM8V+D/tBTvYwGS6x2AFwoYp9B3IGw/7L5j7WiGLjJ+wSk7gCE6Iq1VT5Px
FC4IgJrhMO29yRSZVzZkyxLSRecqHAEguMTPPiXIMyqrezY=
-----END CERTIFICATE-----
