Certificate:
    Data:
        Version: 3 (0x2)
        Serial Number:
            57:62:88:ea:9a:eb:72:56:c4:fb:a0:a1:11:87:59:0a
    Signature Algorithm: sha256WithRSAEncryption
        Issuer: C=US, ST=California, L=San Francisco, O=Copyleft Certificate Co, OU=My Organizational Unit, CN=ChangeMe/emailAddress=me@example.net
        Validity
            Not Before: Nov 11 01:58:11 2023 GMT
            Not After : Nov 10 01:58:11 2024 GMT
        Subject: C=US, ST=OH, L=Cincinnati, O=University of Cincinnati, OU=Dept. Elec. Comp. Eng. Comp. Sci., CN=client2/emailAddress=franco@gauss.ececs.uc.edu
        Subject Public Key Info:
            Public Key Algorithm: rsaEncryption
                Public-Key: (2048 bit)
                Modulus:
                    00:b6:c6:a6:32:b1:9b:c7:63:e7:af:2d:43:66:38:
                    2c:ef:d6:71:3f:52:55:d7:c8:2e:ec:a0:c2:f5:bb:
                    77:78:ed:d0:d0:ca:ed:f4:3e:60:98:cb:02:99:1a:
                    94:9e:1c:fe:70:9b:1b:4b:83:bf:f8:78:fd:ee:8e:
                    27:0f:d6:28:9f:9e:47:0c:e6:7c:3d:dc:c9:9c:3a:
                    5f:6f:e5:83:ef:cd:1b:5b:eb:25:c4:43:04:9d:1f:
                    ac:1d:9d:bb:b3:17:5f:d8:b0:e0:3a:df:4c:36:ec:
                    d6:2d:21:95:76:a1:f5:a8:3a:17:7d:7a:50:4e:e2:
                    7d:8e:97:93:72:7a:46:7c:da:2c:30:5b:2a:25:7e:
                    0b:9f:b2:e3:dd:bb:99:45:02:73:fa:49:ca:12:bf:
                    1e:cb:c6:c2:02:e6:97:36:cb:ae:d6:da:07:58:32:
                    7a:ee:ac:21:0b:19:7d:c4:e8:20:a6:e4:8e:82:0c:
                    2e:91:bd:0d:ad:34:2c:27:57:4f:aa:c5:3b:46:de:
                    4a:8c:bf:06:71:a3:51:21:f1:db:58:ba:6c:e4:7d:
                    8e:a8:15:d3:06:ea:3c:f2:1d:b1:fb:06:a8:59:d1:
                    fa:6b:aa:14:05:1f:3f:23:80:3b:ba:c3:89:95:06:
                    d4:4a:07:e3:13:34:df:97:db:81:43:e2:d1:67:48:
                    85:f1
                Exponent: 65537 (0x10001)
        X509v3 extensions:
            X509v3 Basic Constraints: 
                CA:FALSE
            X509v3 Subject Key Identifier: 
                FA:55:C1:EF:E8:29:98:0A:CE:A7:6D:48:B4:A1:43:B5:E4:24:24:39
            X509v3 Authority Key Identifier: 
                keyid:7B:0F:93:16:64:9F:71:41:D3:1B:FB:ED:6A:70:9B:CA:2E:70:F0:4B
                DirName:/C=US/ST=California/L=San Francisco/O=Copyleft Certificate Co/OU=My Organizational Unit/CN=ChangeMe/emailAddress=me@example.net
                serial:B9:F2:4E:2C:79:B3:D4:6C

            X509v3 Extended Key Usage: 
                TLS Web Client Authentication
            X509v3 Key Usage: 
                Digital Signature
    Signature Algorithm: sha256WithRSAEncryption
         2a:e4:8e:a6:cc:ef:9b:59:9d:71:99:f2:f2:05:d5:f5:9d:1c:
         4e:44:86:da:15:22:25:6d:54:53:8b:7b:bb:0c:8d:69:3a:47:
         ba:ea:a3:b3:44:70:4d:08:e0:94:7e:b8:46:88:59:2e:fe:ab:
         c4:8b:b5:56:b0:04:7c:8a:09:46:07:d8:b5:8a:de:a5:b1:7d:
         7c:27:4b:02:17:b9:12:59:09:0c:5f:81:e0:71:b8:10:8d:e5:
         11:f8:12:ca:7e:31:79:72:49:a0:5e:dc:20:91:ef:8d:fa:71:
         52:fb:b0:dc:da:84:f0:c5:57:3b:b7:07:d1:bd:ad:75:eb:4b:
         21:fc:a8:30:dd:6d:0e:a6:64:a3:d9:1a:9d:b1:29:18:4b:a2:
         40:7b:5a:92:91:77:26:02:68:fb:f5:33:21:ac:26:90:0a:8c:
         ad:da:24:71:c4:32:fe:68:f2:c5:1a:09:38:57:79:d2:95:af:
         46:ff:ec:ff:51:33:ab:0e:e8:ac:26:fa:15:eb:86:3d:a6:28:
         7c:d3:e4:6b:09:9d:94:67:f2:10:bd:ca:a9:b4:de:4d:26:ef:
         a7:06:f1:46:05:d3:72:e7:69:4e:b1:7e:f0:89:6b:a0:d4:b0:
         ed:2d:1a:48:4a:c0:86:c1:40:30:c6:02:ff:81:56:bb:e1:39:
         d2:7d:49:19
-----BEGIN CERTIFICATE-----
MIIFLjCCBBagAwIBAgIQV2KI6prrclbE+6ChEYdZCjANBgkqhkiG9w0BAQsFADCB
rzELMAkGA1UEBhMCVVMxEzARBgNVBAgMCkNhbGlmb3JuaWExFjAUBgNVBAcMDVNh
biBGcmFuY2lzY28xIDAeBgNVBAoMF0NvcHlsZWZ0IENlcnRpZmljYXRlIENvMR8w
HQYDVQQLDBZNeSBPcmdhbml6YXRpb25hbCBVbml0MREwDwYDVQQDDAhDaGFuZ2VN
ZTEdMBsGCSqGSIb3DQEJARYObWVAZXhhbXBsZS5uZXQwHhcNMjMxMTExMDE1ODEx
WhcNMjQxMTEwMDE1ODExWjCBujELMAkGA1UEBhMCVVMxCzAJBgNVBAgMAk9IMRMw
EQYDVQQHDApDaW5jaW5uYXRpMSEwHwYDVQQKDBhVbml2ZXJzaXR5IG9mIENpbmNp
bm5hdGkxKjAoBgNVBAsMIURlcHQuIEVsZWMuIENvbXAuIEVuZy4gQ29tcC4gU2Np
LjEQMA4GA1UEAwwHY2xpZW50MjEoMCYGCSqGSIb3DQEJARYZZnJhbmNvQGdhdXNz
LmVjZWNzLnVjLmVkdTCCASIwDQYJKoZIhvcNAQEBBQADggEPADCCAQoCggEBALbG
pjKxm8dj568tQ2Y4LO/WcT9SVdfILuygwvW7d3jt0NDK7fQ+YJjLApkalJ4c/nCb
G0uDv/h4/e6OJw/WKJ+eRwzmfD3cyZw6X2/lg+/NG1vrJcRDBJ0frB2du7MXX9iw
4DrfTDbs1i0hlXah9ag6F316UE7ifY6Xk3J6RnzaLDBbKiV+C5+y4927mUUCc/pJ
yhK/HsvGwgLmlzbLrtbaB1gyeu6sIQsZfcToIKbkjoIMLpG9Da00LCdXT6rFO0be
Soy/BnGjUSHx21i6bOR9jqgV0wbqPPIdsfsGqFnR+muqFAUfPyOAO7rDiZUG1EoH
4xM035fbgUPi0WdIhfECAwEAAaOCATcwggEzMAkGA1UdEwQCMAAwHQYDVR0OBBYE
FPpVwe/oKZgKzqdtSLShQ7XkJCQ5MIHkBgNVHSMEgdwwgdmAFHsPkxZkn3FB0xv7
7Wpwm8oucPBLoYG1pIGyMIGvMQswCQYDVQQGEwJVUzETMBEGA1UECAwKQ2FsaWZv
cm5pYTEWMBQGA1UEBwwNU2FuIEZyYW5jaXNjbzEgMB4GA1UECgwXQ29weWxlZnQg
Q2VydGlmaWNhdGUgQ28xHzAdBgNVBAsMFk15IE9yZ2FuaXphdGlvbmFsIFVuaXQx
ETAPBgNVBAMMCENoYW5nZU1lMR0wGwYJKoZIhvcNAQkBFg5tZUBleGFtcGxlLm5l
dIIJALnyTix5s9RsMBMGA1UdJQQMMAoGCCsGAQUFBwMCMAsGA1UdDwQEAwIHgDAN
BgkqhkiG9w0BAQsFAAOCAQEAKuSOpszvm1mdcZny8gXV9Z0cTkSG2hUiJW1UU4t7
uwyNaTpHuuqjs0RwTQjglH64RohZLv6rxIu1VrAEfIoJRgfYtYrepbF9fCdLAhe5
ElkJDF+B4HG4EI3lEfgSyn4xeXJJoF7cIJHvjfpxUvuw3NqE8MVXO7cH0b2tdetL
IfyoMN1tDqZko9kanbEpGEuiQHtakpF3JgJo+/UzIawmkAqMrdokccQy/mjyxRoJ
OFd50pWvRv/s/1Ezqw7orCb6FeuGPaYofNPkawmdlGfyEL3KqbTeTSbvpwbxRgXT
cudpTrF+8IlroNSw7S0aSErAhsFAMMYC/4FWu+E50n1JGQ==
-----END CERTIFICATE-----
