Certificate:
    Data:
        Version: 3 (0x2)
        Serial Number:
            06:8f:7a:74:96:6d:24:bf:d8:c4:de:9f:a6:77:aa:4e
    Signature Algorithm: sha256WithRSAEncryption
        Issuer: C=US, ST=California, L=San Francisco, O=Copyleft Certificate Co, OU=My Organizational Unit, CN=ChangeMe/emailAddress=me@example.net
        Validity
            Not Before: Jan 23 18:27:35 2021 GMT
            Not After : Jan 23 18:27:35 2022 GMT
        Subject: C=US, ST=OH, L=Cincinnati, O=University of Cincinnati, OU=Dept. Electrical Eng. and Computer Sci., CN=client13/emailAddress=franco@gauss.ececs.uc.edu
        Subject Public Key Info:
            Public Key Algorithm: rsaEncryption
                Public-Key: (2048 bit)
                Modulus:
                    00:c0:a5:0d:a7:cc:aa:f2:da:35:98:82:bf:f0:7f:
                    85:a3:4d:17:ab:6b:e1:7a:ec:66:e2:73:e1:42:61:
                    6a:57:fe:de:8d:3c:03:8a:8f:4b:03:87:1c:39:c5:
                    0a:9e:60:77:6f:44:3c:e9:f9:8d:ff:84:58:b8:0e:
                    43:57:16:bd:9a:5a:4b:35:f7:44:04:d1:d5:9e:53:
                    07:44:86:02:d3:f1:9d:19:6d:0d:9e:6d:c0:04:71:
                    e3:54:29:6c:9c:7c:b7:94:dc:7c:85:b6:6f:47:89:
                    17:0c:08:72:96:d9:f9:c8:22:45:96:36:84:2f:7a:
                    71:4a:ef:b7:c6:13:a8:a6:21:15:37:3c:22:56:80:
                    94:79:ce:2b:4e:e3:6b:4d:60:fd:4a:61:de:f2:2d:
                    d4:76:85:d1:9f:7c:95:e6:8d:e3:c2:a1:82:93:dd:
                    5d:07:51:bc:6e:c6:2f:f6:e3:af:ea:19:69:b1:07:
                    d2:b0:0d:f6:f1:1b:47:a0:96:8b:ec:4e:46:94:b4:
                    72:84:4b:9e:c4:12:7e:c2:74:09:eb:5d:c4:30:b3:
                    4d:c5:78:11:1d:16:1a:99:c6:22:14:a3:7f:dd:be:
                    0d:a2:ed:86:9c:d1:b9:eb:f4:f1:71:bc:74:42:23:
                    bd:35:26:ac:1a:6c:e3:c5:a6:88:fb:23:d1:e3:2f:
                    b3:b1
                Exponent: 65537 (0x10001)
        X509v3 extensions:
            X509v3 Basic Constraints: 
                CA:FALSE
            X509v3 Subject Key Identifier: 
                B4:4B:A3:DE:68:DA:A4:2C:CC:73:21:5D:8A:C3:1A:4C:33:46:6A:21
            X509v3 Authority Key Identifier: 
                keyid:EF:DC:B6:3D:4B:FD:A7:87:05:C5:22:3D:8B:DC:BF:99:2A:EE:E4:DB
                DirName:/C=US/ST=California/L=San Francisco/O=Copyleft Certificate Co/OU=My Organizational Unit/CN=ChangeMe/emailAddress=me@example.net
                serial:87:1E:1D:DC:6B:8C:66:88

            X509v3 Extended Key Usage: 
                TLS Web Client Authentication
            X509v3 Key Usage: 
                Digital Signature
    Signature Algorithm: sha256WithRSAEncryption
         27:1c:ec:aa:ce:2c:ea:13:78:a0:a4:82:67:b1:9d:6d:f8:b8:
         a4:1a:a5:c7:76:34:92:7e:7e:8d:52:42:5d:9f:55:c6:45:78:
         5e:f7:09:33:b2:7a:54:ef:0b:70:ab:e4:6c:ae:24:47:1a:85:
         af:58:a0:7b:7f:5b:be:eb:43:4d:95:fa:30:0a:c8:17:85:c2:
         48:6d:6d:e9:11:77:38:1e:21:7c:60:7f:6b:c4:40:4a:65:eb:
         3d:e1:3c:c3:8a:8d:3f:d9:4e:85:7b:b2:36:97:e6:21:1d:6c:
         8d:13:15:9e:68:6e:23:69:4a:33:39:0c:4e:88:8d:45:18:7d:
         08:87:f0:cd:30:a4:d7:68:46:1c:36:ee:56:86:13:8f:ed:84:
         c9:c7:a1:19:87:e1:73:13:a9:55:8f:f6:b8:4f:26:1b:81:bb:
         3c:13:42:62:9e:ec:3d:a7:6e:9e:76:8a:07:d3:66:e0:1f:28:
         cb:74:d1:dc:85:2b:a2:92:82:2b:8f:cf:97:a1:31:04:35:bb:
         44:60:4e:f4:5e:f1:92:17:db:fc:9f:43:58:57:2c:a9:24:13:
         87:81:db:16:6b:7f:28:39:1c:dc:43:d5:79:6f:7e:87:b3:fc:
         50:fd:3d:93:78:85:64:64:ba:fb:0a:76:0f:f6:b9:a7:52:25:
         57:92:74:e8
-----BEGIN CERTIFICATE-----
MIIFNTCCBB2gAwIBAgIQBo96dJZtJL/YxN6fpneqTjANBgkqhkiG9w0BAQsFADCB
rzELMAkGA1UEBhMCVVMxEzARBgNVBAgMCkNhbGlmb3JuaWExFjAUBgNVBAcMDVNh
biBGcmFuY2lzY28xIDAeBgNVBAoMF0NvcHlsZWZ0IENlcnRpZmljYXRlIENvMR8w
HQYDVQQLDBZNeSBPcmdhbml6YXRpb25hbCBVbml0MREwDwYDVQQDDAhDaGFuZ2VN
ZTEdMBsGCSqGSIb3DQEJARYObWVAZXhhbXBsZS5uZXQwHhcNMjEwMTIzMTgyNzM1
WhcNMjIwMTIzMTgyNzM1WjCBwTELMAkGA1UEBhMCVVMxCzAJBgNVBAgMAk9IMRMw
EQYDVQQHDApDaW5jaW5uYXRpMSEwHwYDVQQKDBhVbml2ZXJzaXR5IG9mIENpbmNp
bm5hdGkxMDAuBgNVBAsMJ0RlcHQuIEVsZWN0cmljYWwgRW5nLiBhbmQgQ29tcHV0
ZXIgU2NpLjERMA8GA1UEAwwIY2xpZW50MTMxKDAmBgkqhkiG9w0BCQEWGWZyYW5j
b0BnYXVzcy5lY2Vjcy51Yy5lZHUwggEiMA0GCSqGSIb3DQEBAQUAA4IBDwAwggEK
AoIBAQDApQ2nzKry2jWYgr/wf4WjTRera+F67Gbic+FCYWpX/t6NPAOKj0sDhxw5
xQqeYHdvRDzp+Y3/hFi4DkNXFr2aWks190QE0dWeUwdEhgLT8Z0ZbQ2ebcAEceNU
KWycfLeU3HyFtm9HiRcMCHKW2fnIIkWWNoQvenFK77fGE6imIRU3PCJWgJR5zitO
42tNYP1KYd7yLdR2hdGffJXmjePCoYKT3V0HUbxuxi/246/qGWmxB9KwDfbxG0eg
lovsTkaUtHKES57EEn7CdAnrXcQws03FeBEdFhqZxiIUo3/dvg2i7Yac0bnr9PFx
vHRCI701JqwabOPFpoj7I9HjL7OxAgMBAAGjggE3MIIBMzAJBgNVHRMEAjAAMB0G
A1UdDgQWBBS0S6PeaNqkLMxzIV2KwxpMM0ZqITCB5AYDVR0jBIHcMIHZgBTv3LY9
S/2nhwXFIj2L3L+ZKu7k26GBtaSBsjCBrzELMAkGA1UEBhMCVVMxEzARBgNVBAgM
CkNhbGlmb3JuaWExFjAUBgNVBAcMDVNhbiBGcmFuY2lzY28xIDAeBgNVBAoMF0Nv
cHlsZWZ0IENlcnRpZmljYXRlIENvMR8wHQYDVQQLDBZNeSBPcmdhbml6YXRpb25h
bCBVbml0MREwDwYDVQQDDAhDaGFuZ2VNZTEdMBsGCSqGSIb3DQEJARYObWVAZXhh
bXBsZS5uZXSCCQCHHh3ca4xmiDATBgNVHSUEDDAKBggrBgEFBQcDAjALBgNVHQ8E
BAMCB4AwDQYJKoZIhvcNAQELBQADggEBACcc7KrOLOoTeKCkgmexnW34uKQapcd2
NJJ+fo1SQl2fVcZFeF73CTOyelTvC3Cr5GyuJEcaha9YoHt/W77rQ02V+jAKyBeF
wkhtbekRdzgeIXxgf2vEQEpl6z3hPMOKjT/ZToV7sjaX5iEdbI0TFZ5obiNpSjM5
DE6IjUUYfQiH8M0wpNdoRhw27laGE4/thMnHoRmH4XMTqVWP9rhPJhuBuzwTQmKe
7D2nbp52igfTZuAfKMt00dyFK6KSgiuPz5ehMQQ1u0RgTvRe8ZIX2/yfQ1hXLKkk
E4eB2xZrfyg5HNxD1Xlvfoez/FD9PZN4hWRkuvsKdg/2uadSJVeSdOg=
-----END CERTIFICATE-----
