Certificate:
    Data:
        Version: 3 (0x2)
        Serial Number:
            0c:a3:26:ca:87:69:f0:21:7e:ed:be:7b:8d:28:7f:ad
    Signature Algorithm: sha256WithRSAEncryption
        Issuer: C=US, ST=California, L=San Francisco, O=Copyleft Certificate Co, OU=My Organizational Unit, CN=ChangeMe/emailAddress=me@example.net
        Validity
            Not Before: Nov 11 18:50:16 2023 GMT
            Not After : Nov 10 18:50:16 2024 GMT
        Subject: C=US, ST=OH, L=Cincinnati, O=University of Cincinnati ., OU=Dept. Elec. Comp. . Eng. Comp. Sci., CN=client5/emailAddress=franco@gauss.ececs.uc.edu
        Subject Public Key Info:
            Public Key Algorithm: rsaEncryption
                Public-Key: (2048 bit)
                Modulus:
                    00:aa:c0:55:c7:8d:30:b5:1c:94:52:5f:f4:63:30:
                    ec:ce:c2:30:d3:9c:cc:a7:b5:a2:a8:6e:e4:58:61:
                    34:85:06:17:9a:c3:46:86:e8:86:b4:d9:19:c6:7f:
                    ef:59:58:91:4d:a3:9d:9c:5c:d2:32:21:b7:b9:6f:
                    e6:f7:85:b1:5c:37:c8:c9:16:b9:36:f4:72:36:85:
                    45:4d:d8:ca:f2:8c:a0:ac:eb:87:4f:c8:42:fe:17:
                    c6:76:6e:11:1a:40:da:9f:08:d6:f3:08:80:dd:7a:
                    27:ec:72:b6:60:1f:22:41:f9:a0:e7:7e:95:a8:90:
                    98:28:05:ce:15:5e:7b:b1:df:16:7e:9e:ba:1b:02:
                    c7:7f:f0:71:83:85:b1:27:9f:13:a2:41:08:5b:9e:
                    98:eb:81:d0:a5:00:88:48:fd:15:dc:cc:9c:7d:54:
                    54:6d:20:c0:ee:09:0c:e5:d1:bd:d0:48:db:92:88:
                    6b:51:1a:89:65:ca:1d:1a:8c:14:c9:53:26:9c:f7:
                    36:94:46:ec:2f:8a:7d:bb:17:33:67:72:bc:92:c6:
                    33:9c:29:2e:e7:36:76:d7:13:2b:6a:21:22:96:cc:
                    52:33:7a:af:24:73:51:d4:81:46:33:77:91:03:0e:
                    2c:ab:67:2b:60:b1:7c:ec:1d:66:6e:d3:de:c0:d4:
                    d2:95
                Exponent: 65537 (0x10001)
        X509v3 extensions:
            X509v3 Basic Constraints: 
                CA:FALSE
            X509v3 Subject Key Identifier: 
                6F:0D:05:05:71:8F:DA:20:1D:6F:52:A2:D9:AB:AF:BB:4D:AA:E6:67
            X509v3 Authority Key Identifier: 
                keyid:9C:0E:D5:A3:16:6F:C8:23:88:D1:12:C9:63:5D:18:D9:C9:FC:5B:E9
                DirName:/C=US/ST=California/L=San Francisco/O=Copyleft Certificate Co/OU=My Organizational Unit/CN=ChangeMe/emailAddress=me@example.net
                serial:A3:08:26:80:D2:47:98:75

            X509v3 Extended Key Usage: 
                TLS Web Client Authentication
            X509v3 Key Usage: 
                Digital Signature
    Signature Algorithm: sha256WithRSAEncryption
         2a:8b:f4:e0:12:72:f4:76:b3:55:4a:45:c7:09:05:34:09:2a:
         04:1f:8b:30:7d:09:8f:44:1c:42:fd:ac:a0:5c:bd:7c:a4:88:
         c4:08:05:7d:05:12:ab:79:02:6a:17:90:c7:75:53:04:13:f5:
         39:c5:31:a4:4d:71:46:e0:74:8f:ef:bd:4e:6d:18:df:d6:e7:
         06:3d:3a:71:b0:c6:7e:60:ac:f9:b7:1f:84:5f:1a:34:43:09:
         2a:b2:28:7e:5d:f5:f3:4d:f1:35:aa:c8:a9:22:be:74:ac:53:
         5c:76:17:1a:e9:06:eb:a9:80:fd:b4:ee:02:90:bd:3e:7a:0d:
         23:20:c9:2c:fe:90:62:1b:63:e9:37:31:4c:5d:41:14:02:48:
         8f:5d:8c:78:09:f2:b5:95:8c:97:be:97:3f:cb:67:10:92:2c:
         ab:01:da:91:24:bc:d5:92:79:db:f5:ff:b1:28:b3:3c:fd:61:
         bc:db:d7:c3:6d:c9:dc:9a:10:97:a5:3e:b3:66:1d:f6:5e:19:
         f4:4d:e0:3b:bd:c5:8a:d6:19:d0:a5:52:b8:6c:e2:4f:d2:4d:
         90:ec:38:42:96:36:6f:7d:3b:82:26:38:07:be:7c:80:3a:98:
         88:1e:4d:40:46:2f:6e:87:74:27:43:e4:a9:25:99:d8:f9:43:
         4c:46:b0:c3
-----BEGIN CERTIFICATE-----
MIIFMjCCBBqgAwIBAgIQDKMmyodp8CF+7b57jSh/rTANBgkqhkiG9w0BAQsFADCB
rzELMAkGA1UEBhMCVVMxEzARBgNVBAgMCkNhbGlmb3JuaWExFjAUBgNVBAcMDVNh
biBGcmFuY2lzY28xIDAeBgNVBAoMF0NvcHlsZWZ0IENlcnRpZmljYXRlIENvMR8w
HQYDVQQLDBZNeSBPcmdhbml6YXRpb25hbCBVbml0MREwDwYDVQQDDAhDaGFuZ2VN
ZTEdMBsGCSqGSIb3DQEJARYObWVAZXhhbXBsZS5uZXQwHhcNMjMxMTExMTg1MDE2
WhcNMjQxMTEwMTg1MDE2WjCBvjELMAkGA1UEBhMCVVMxCzAJBgNVBAgMAk9IMRMw
EQYDVQQHDApDaW5jaW5uYXRpMSMwIQYDVQQKDBpVbml2ZXJzaXR5IG9mIENpbmNp
bm5hdGkgLjEsMCoGA1UECwwjRGVwdC4gRWxlYy4gQ29tcC4gLiBFbmcuIENvbXAu
IFNjaS4xEDAOBgNVBAMMB2NsaWVudDUxKDAmBgkqhkiG9w0BCQEWGWZyYW5jb0Bn
YXVzcy5lY2Vjcy51Yy5lZHUwggEiMA0GCSqGSIb3DQEBAQUAA4IBDwAwggEKAoIB
AQCqwFXHjTC1HJRSX/RjMOzOwjDTnMyntaKobuRYYTSFBheaw0aG6Ia02RnGf+9Z
WJFNo52cXNIyIbe5b+b3hbFcN8jJFrk29HI2hUVN2MryjKCs64dPyEL+F8Z2bhEa
QNqfCNbzCIDdeifscrZgHyJB+aDnfpWokJgoBc4VXnux3xZ+nrobAsd/8HGDhbEn
nxOiQQhbnpjrgdClAIhI/RXczJx9VFRtIMDuCQzl0b3QSNuSiGtRGollyh0ajBTJ
Uyac9zaURuwvin27FzNncrySxjOcKS7nNnbXEytqISKWzFIzeq8kc1HUgUYzd5ED
DiyrZytgsXzsHWZu097A1NKVAgMBAAGjggE3MIIBMzAJBgNVHRMEAjAAMB0GA1Ud
DgQWBBRvDQUFcY/aIB1vUqLZq6+7TarmZzCB5AYDVR0jBIHcMIHZgBScDtWjFm/I
I4jREsljXRjZyfxb6aGBtaSBsjCBrzELMAkGA1UEBhMCVVMxEzARBgNVBAgMCkNh
bGlmb3JuaWExFjAUBgNVBAcMDVNhbiBGcmFuY2lzY28xIDAeBgNVBAoMF0NvcHls
ZWZ0IENlcnRpZmljYXRlIENvMR8wHQYDVQQLDBZNeSBPcmdhbml6YXRpb25hbCBV
bml0MREwDwYDVQQDDAhDaGFuZ2VNZTEdMBsGCSqGSIb3DQEJARYObWVAZXhhbXBs
ZS5uZXSCCQCjCCaA0keYdTATBgNVHSUEDDAKBggrBgEFBQcDAjALBgNVHQ8EBAMC
B4AwDQYJKoZIhvcNAQELBQADggEBACqL9OAScvR2s1VKRccJBTQJKgQfizB9CY9E
HEL9rKBcvXykiMQIBX0FEqt5AmoXkMd1UwQT9TnFMaRNcUbgdI/vvU5tGN/W5wY9
OnGwxn5grPm3H4RfGjRDCSqyKH5d9fNN8TWqyKkivnSsU1x2FxrpBuupgP207gKQ
vT56DSMgySz+kGIbY+k3MUxdQRQCSI9djHgJ8rWVjJe+lz/LZxCSLKsB2pEkvNWS
edv1/7Eoszz9Ybzb18NtydyaEJelPrNmHfZeGfRN4Du9xYrWGdClUrhs4k/STZDs
OEKWNm99O4ImOAe+fIA6mIgeTUBGL26HdCdD5Kklmdj5Q0xGsMM=
-----END CERTIFICATE-----
