Certificate:
    Data:
        Version: 3 (0x2)
        Serial Number:
            0e:06:4f:54:51:77:1b:f7:2d:83:47:0b:4b:7f:db:3b
    Signature Algorithm: sha256WithRSAEncryption
        Issuer: C=US, ST=California, L=San Francisco, O=Copyleft Certificate Co, OU=My Organizational Unit, CN=ChangeMe/emailAddress=me@example.net
        Validity
            Not Before: Nov 11 18:50:32 2023 GMT
            Not After : Nov 10 18:50:32 2024 GMT
        Subject: C=US, ST=OH, L=Cincinnati, O=University of Cincinnati ., OU=Dept. Elec. Comp. . Eng. Comp. Sci., CN=client9/emailAddress=franco@gauss.ececs.uc.edu
        Subject Public Key Info:
            Public Key Algorithm: rsaEncryption
                Public-Key: (2048 bit)
                Modulus:
                    00:c1:3a:90:09:7d:18:87:72:ec:f1:ae:d8:cd:9b:
                    d7:31:d9:e0:d9:9c:cc:50:2c:cd:9f:0e:04:2b:f7:
                    70:cd:d7:b5:e4:ff:cf:cc:c0:04:e7:b8:55:37:61:
                    62:77:3d:45:b1:c5:4d:ba:11:41:98:3a:d9:1f:fe:
                    bb:4f:c3:ee:e8:6d:1b:10:4d:d2:f9:9f:b8:49:6d:
                    f6:56:a1:4b:bc:0f:6f:31:fe:26:2c:54:31:9c:22:
                    f2:99:5d:d7:43:6e:72:09:28:af:2c:fa:f4:42:6d:
                    e3:45:1f:e7:1e:08:6d:36:3e:96:9c:d3:7a:27:5f:
                    c0:e4:a3:fb:fc:e6:ef:6c:72:55:02:6b:38:66:5e:
                    81:a5:d2:c6:4d:79:34:b4:5b:39:dc:f2:e1:bc:05:
                    d0:39:c7:f9:15:c8:7c:4a:b8:d3:4e:18:8f:93:00:
                    3e:8e:57:ba:bc:08:ff:d5:c7:27:83:91:47:b9:94:
                    a8:2b:9e:42:8d:6a:68:4a:d8:3b:c2:15:10:20:03:
                    7d:8a:7c:85:36:a0:97:f3:64:d3:d0:3c:38:c4:9e:
                    a3:9b:31:f8:b1:b2:3d:ce:2e:9d:20:e4:90:cb:3c:
                    82:c3:88:a0:69:99:14:30:5a:ee:eb:c4:20:9f:5f:
                    12:e8:24:fd:44:48:2f:f6:df:d3:2f:54:f1:3b:fa:
                    61:41
                Exponent: 65537 (0x10001)
        X509v3 extensions:
            X509v3 Basic Constraints: 
                CA:FALSE
            X509v3 Subject Key Identifier: 
                50:82:D5:34:63:91:99:96:F0:25:CE:49:56:19:F2:BC:D1:47:5A:E9
            X509v3 Authority Key Identifier: 
                keyid:9C:0E:D5:A3:16:6F:C8:23:88:D1:12:C9:63:5D:18:D9:C9:FC:5B:E9
                DirName:/C=US/ST=California/L=San Francisco/O=Copyleft Certificate Co/OU=My Organizational Unit/CN=ChangeMe/emailAddress=me@example.net
                serial:A3:08:26:80:D2:47:98:75

            X509v3 Extended Key Usage: 
                TLS Web Client Authentication
            X509v3 Key Usage: 
                Digital Signature
    Signature Algorithm: sha256WithRSAEncryption
         9b:5f:90:e7:53:7e:55:a8:83:d4:a7:df:f5:a6:60:ad:d7:04:
         e3:a3:34:03:ed:37:5d:81:a1:8b:eb:7b:72:80:87:77:14:89:
         b5:a6:e8:0a:b0:12:4a:da:ea:6e:bb:ea:3e:d0:ea:9f:e5:fc:
         41:c1:41:a1:93:33:b8:e7:ce:49:35:7b:e1:94:81:2b:a9:09:
         69:24:f8:28:31:5a:fd:14:16:af:86:25:df:87:8a:8d:22:3b:
         4d:5b:80:ce:7b:63:32:91:00:26:ac:30:1e:1d:fd:91:1e:ac:
         e2:d8:ae:ed:15:a9:14:30:1c:be:7d:16:50:f8:ac:de:e4:f2:
         2a:ac:82:c6:f8:5d:24:9b:1e:20:59:b6:f3:af:21:d5:01:39:
         bd:28:33:76:64:a5:cd:f4:ea:b7:af:cb:68:3b:b1:be:b5:50:
         27:36:56:79:2b:70:65:ea:a1:18:40:ea:47:e6:4e:bf:15:84:
         55:d9:ef:7c:62:12:a5:6e:59:fa:3f:9a:b6:4c:c4:7e:b7:49:
         1a:0b:b2:21:ca:60:94:9a:8b:4b:91:fd:04:7e:fa:d0:93:83:
         15:75:b4:70:96:80:aa:71:a0:27:61:41:15:44:2e:1c:4f:71:
         5f:8a:f3:dd:be:27:02:39:94:06:90:1b:63:66:60:28:e9:81:
         1a:5c:fd:f9
-----BEGIN CERTIFICATE-----
MIIFMjCCBBqgAwIBAgIQDgZPVFF3G/ctg0cLS3/bOzANBgkqhkiG9w0BAQsFADCB
rzELMAkGA1UEBhMCVVMxEzARBgNVBAgMCkNhbGlmb3JuaWExFjAUBgNVBAcMDVNh
biBGcmFuY2lzY28xIDAeBgNVBAoMF0NvcHlsZWZ0IENlcnRpZmljYXRlIENvMR8w
HQYDVQQLDBZNeSBPcmdhbml6YXRpb25hbCBVbml0MREwDwYDVQQDDAhDaGFuZ2VN
ZTEdMBsGCSqGSIb3DQEJARYObWVAZXhhbXBsZS5uZXQwHhcNMjMxMTExMTg1MDMy
WhcNMjQxMTEwMTg1MDMyWjCBvjELMAkGA1UEBhMCVVMxCzAJBgNVBAgMAk9IMRMw
EQYDVQQHDApDaW5jaW5uYXRpMSMwIQYDVQQKDBpVbml2ZXJzaXR5IG9mIENpbmNp
bm5hdGkgLjEsMCoGA1UECwwjRGVwdC4gRWxlYy4gQ29tcC4gLiBFbmcuIENvbXAu
IFNjaS4xEDAOBgNVBAMMB2NsaWVudDkxKDAmBgkqhkiG9w0BCQEWGWZyYW5jb0Bn
YXVzcy5lY2Vjcy51Yy5lZHUwggEiMA0GCSqGSIb3DQEBAQUAA4IBDwAwggEKAoIB
AQDBOpAJfRiHcuzxrtjNm9cx2eDZnMxQLM2fDgQr93DN17Xk/8/MwATnuFU3YWJ3
PUWxxU26EUGYOtkf/rtPw+7obRsQTdL5n7hJbfZWoUu8D28x/iYsVDGcIvKZXddD
bnIJKK8s+vRCbeNFH+ceCG02Ppac03onX8Dko/v85u9sclUCazhmXoGl0sZNeTS0
Wznc8uG8BdA5x/kVyHxKuNNOGI+TAD6OV7q8CP/VxyeDkUe5lKgrnkKNamhK2DvC
FRAgA32KfIU2oJfzZNPQPDjEnqObMfixsj3OLp0g5JDLPILDiKBpmRQwWu7rxCCf
XxLoJP1ESC/239MvVPE7+mFBAgMBAAGjggE3MIIBMzAJBgNVHRMEAjAAMB0GA1Ud
DgQWBBRQgtU0Y5GZlvAlzklWGfK80Uda6TCB5AYDVR0jBIHcMIHZgBScDtWjFm/I
I4jREsljXRjZyfxb6aGBtaSBsjCBrzELMAkGA1UEBhMCVVMxEzARBgNVBAgMCkNh
bGlmb3JuaWExFjAUBgNVBAcMDVNhbiBGcmFuY2lzY28xIDAeBgNVBAoMF0NvcHls
ZWZ0IENlcnRpZmljYXRlIENvMR8wHQYDVQQLDBZNeSBPcmdhbml6YXRpb25hbCBV
bml0MREwDwYDVQQDDAhDaGFuZ2VNZTEdMBsGCSqGSIb3DQEJARYObWVAZXhhbXBs
ZS5uZXSCCQCjCCaA0keYdTATBgNVHSUEDDAKBggrBgEFBQcDAjALBgNVHQ8EBAMC
B4AwDQYJKoZIhvcNAQELBQADggEBAJtfkOdTflWog9Sn3/WmYK3XBOOjNAPtN12B
oYvre3KAh3cUibWm6AqwEkra6m676j7Q6p/l/EHBQaGTM7jnzkk1e+GUgSupCWkk
+CgxWv0UFq+GJd+Hio0iO01bgM57YzKRACasMB4d/ZEerOLYru0VqRQwHL59FlD4
rN7k8iqsgsb4XSSbHiBZtvOvIdUBOb0oM3Zkpc306revy2g7sb61UCc2VnkrcGXq
oRhA6kfmTr8VhFXZ73xiEqVuWfo/mrZMxH63SRoLsiHKYJSai0uR/QR++tCTgxV1
tHCWgKpxoCdhQRVELhxPcV+K892+JwI5lAaQG2NmYCjpgRpc/fk=
-----END CERTIFICATE-----
