Certificate:
    Data:
        Version: 3 (0x2)
        Serial Number:
            0f:92:26:62:a2:05:db:15:9c:27:cd:d9:81:34:1a:5c
    Signature Algorithm: sha256WithRSAEncryption
        Issuer: C=US, ST=California, L=San Francisco, O=Copyleft Certificate Co, OU=My Organizational Unit, CN=ChangeMe/emailAddress=me@example.net
        Validity
            Not Before: Nov 11 18:51:16 2023 GMT
            Not After : Nov 10 18:51:16 2024 GMT
        Subject: C=US, ST=OH, L=Cincinnati, O=University of Cincinnati ., OU=Dept. Elec. Comp. . Eng. Comp. Sci., CN=client20/emailAddress=franco@gauss.ececs.uc.edu
        Subject Public Key Info:
            Public Key Algorithm: rsaEncryption
                Public-Key: (2048 bit)
                Modulus:
                    00:c4:0b:e7:64:92:26:c5:d8:a9:f2:ce:fd:9d:c4:
                    ca:bf:0c:1d:55:09:c4:75:b5:41:5f:48:90:38:55:
                    18:3a:81:a7:3c:a6:ae:57:31:9c:7b:d6:1d:7b:8b:
                    5b:52:23:8c:97:07:df:b2:2e:fd:92:ab:1a:20:44:
                    2f:71:4f:d0:49:b8:2d:5c:6e:7d:35:33:e1:10:b8:
                    ea:f6:52:cb:d0:30:99:6b:4d:63:9c:50:8e:d6:c6:
                    e8:1b:59:f4:7d:a1:54:ac:3e:43:d3:be:f1:f1:cb:
                    f6:54:48:43:b5:c6:f4:73:8c:ba:8f:ee:ba:ac:d1:
                    b4:cb:ea:93:85:98:91:3d:64:57:a2:c9:80:eb:8e:
                    a8:d1:68:1f:b3:62:e8:46:a8:a3:ff:fb:5e:01:db:
                    99:16:7e:1c:b6:eb:e5:81:81:e0:77:89:3c:0e:bf:
                    5d:4a:fd:c2:75:e4:19:6b:ba:9f:b2:54:ad:02:8a:
                    54:84:88:ab:30:41:39:6f:c4:63:c9:e7:d8:1e:4b:
                    34:cf:21:74:fa:8e:2c:69:89:ac:c4:a2:85:ad:81:
                    4a:77:22:4f:72:0d:80:4c:30:3a:8f:ef:05:b1:82:
                    bd:f4:04:31:78:3a:94:28:60:98:81:6a:b0:0e:87:
                    ef:18:1d:ce:d8:91:f0:1c:21:b2:f4:36:e8:d0:a2:
                    ef:2f
                Exponent: 65537 (0x10001)
        X509v3 extensions:
            X509v3 Basic Constraints: 
                CA:FALSE
            X509v3 Subject Key Identifier: 
                C7:9A:5A:97:D1:74:35:A5:0C:F5:AB:30:06:21:B2:D0:C2:50:83:40
            X509v3 Authority Key Identifier: 
                keyid:9C:0E:D5:A3:16:6F:C8:23:88:D1:12:C9:63:5D:18:D9:C9:FC:5B:E9
                DirName:/C=US/ST=California/L=San Francisco/O=Copyleft Certificate Co/OU=My Organizational Unit/CN=ChangeMe/emailAddress=me@example.net
                serial:A3:08:26:80:D2:47:98:75

            X509v3 Extended Key Usage: 
                TLS Web Client Authentication
            X509v3 Key Usage: 
                Digital Signature
    Signature Algorithm: sha256WithRSAEncryption
         77:d1:d5:1e:b8:6e:d6:7a:3b:6c:a7:de:79:6b:81:77:95:2c:
         9f:9f:e8:bd:e3:78:d5:23:6e:ac:08:29:89:30:7d:79:e9:f0:
         9a:59:a1:8b:62:ee:74:ef:7b:8d:54:6a:4c:fa:07:f5:3c:f2:
         0a:28:99:13:4c:5d:f1:34:6b:81:24:29:48:35:81:a2:27:b9:
         aa:2b:cd:f5:9f:18:e3:0d:d5:ca:4c:5b:11:26:4d:04:b6:d0:
         dd:fd:7c:4b:6f:b5:c3:5e:57:65:c8:f9:59:a6:41:a9:b7:27:
         4c:2e:a0:a9:a6:f1:29:b1:b3:30:82:8d:46:40:88:85:ab:a6:
         59:0d:21:38:bb:a3:11:73:b3:00:dd:d6:c2:d7:2a:f0:03:be:
         ba:98:72:8d:cc:fc:28:01:6b:59:a5:92:e1:6c:64:ea:2b:50:
         f1:e1:32:02:2b:48:2a:02:07:fa:09:6b:3d:24:11:1e:83:61:
         ae:0c:97:26:27:2f:91:49:7a:19:9f:e9:a1:f7:55:79:0f:54:
         10:11:d9:fa:ad:b0:49:08:87:56:40:91:65:ce:8a:2c:b5:11:
         f9:72:b6:11:54:5b:05:c2:93:9f:b0:05:6f:cd:3c:3a:9e:5d:
         54:71:08:40:88:65:e3:4f:97:c0:a7:b7:5a:9c:1b:86:82:0a:
         dd:ec:b4:46
-----BEGIN CERTIFICATE-----
MIIFMzCCBBugAwIBAgIQD5ImYqIF2xWcJ83ZgTQaXDANBgkqhkiG9w0BAQsFADCB
rzELMAkGA1UEBhMCVVMxEzARBgNVBAgMCkNhbGlmb3JuaWExFjAUBgNVBAcMDVNh
biBGcmFuY2lzY28xIDAeBgNVBAoMF0NvcHlsZWZ0IENlcnRpZmljYXRlIENvMR8w
HQYDVQQLDBZNeSBPcmdhbml6YXRpb25hbCBVbml0MREwDwYDVQQDDAhDaGFuZ2VN
ZTEdMBsGCSqGSIb3DQEJARYObWVAZXhhbXBsZS5uZXQwHhcNMjMxMTExMTg1MTE2
WhcNMjQxMTEwMTg1MTE2WjCBvzELMAkGA1UEBhMCVVMxCzAJBgNVBAgMAk9IMRMw
EQYDVQQHDApDaW5jaW5uYXRpMSMwIQYDVQQKDBpVbml2ZXJzaXR5IG9mIENpbmNp
bm5hdGkgLjEsMCoGA1UECwwjRGVwdC4gRWxlYy4gQ29tcC4gLiBFbmcuIENvbXAu
IFNjaS4xETAPBgNVBAMMCGNsaWVudDIwMSgwJgYJKoZIhvcNAQkBFhlmcmFuY29A
Z2F1c3MuZWNlY3MudWMuZWR1MIIBIjANBgkqhkiG9w0BAQEFAAOCAQ8AMIIBCgKC
AQEAxAvnZJImxdip8s79ncTKvwwdVQnEdbVBX0iQOFUYOoGnPKauVzGce9Yde4tb
UiOMlwffsi79kqsaIEQvcU/QSbgtXG59NTPhELjq9lLL0DCZa01jnFCO1sboG1n0
faFUrD5D077x8cv2VEhDtcb0c4y6j+66rNG0y+qThZiRPWRXosmA646o0Wgfs2Lo
Rqij//teAduZFn4ctuvlgYHgd4k8Dr9dSv3CdeQZa7qfslStAopUhIirMEE5b8Rj
yefYHks0zyF0+o4saYmsxKKFrYFKdyJPcg2ATDA6j+8FsYK99AQxeDqUKGCYgWqw
DofvGB3O2JHwHCGy9Dbo0KLvLwIDAQABo4IBNzCCATMwCQYDVR0TBAIwADAdBgNV
HQ4EFgQUx5pal9F0NaUM9aswBiGy0MJQg0AwgeQGA1UdIwSB3DCB2YAUnA7VoxZv
yCOI0RLJY10Y2cn8W+mhgbWkgbIwga8xCzAJBgNVBAYTAlVTMRMwEQYDVQQIDApD
YWxpZm9ybmlhMRYwFAYDVQQHDA1TYW4gRnJhbmNpc2NvMSAwHgYDVQQKDBdDb3B5
bGVmdCBDZXJ0aWZpY2F0ZSBDbzEfMB0GA1UECwwWTXkgT3JnYW5pemF0aW9uYWwg
VW5pdDERMA8GA1UEAwwIQ2hhbmdlTWUxHTAbBgkqhkiG9w0BCQEWDm1lQGV4YW1w
bGUubmV0ggkAowgmgNJHmHUwEwYDVR0lBAwwCgYIKwYBBQUHAwIwCwYDVR0PBAQD
AgeAMA0GCSqGSIb3DQEBCwUAA4IBAQB30dUeuG7Wejtsp955a4F3lSyfn+i943jV
I26sCCmJMH156fCaWaGLYu5073uNVGpM+gf1PPIKKJkTTF3xNGuBJClINYGiJ7mq
K831nxjjDdXKTFsRJk0EttDd/XxLb7XDXldlyPlZpkGptydMLqCppvEpsbMwgo1G
QIiFq6ZZDSE4u6MRc7MA3dbC1yrwA766mHKNzPwoAWtZpZLhbGTqK1Dx4TICK0gq
Agf6CWs9JBEeg2GuDJcmJy+RSXoZn+mh91V5D1QQEdn6rbBJCIdWQJFlzoostRH5
crYRVFsFwpOfsAVvzTw6nl1UcQhAiGXjT5fAp7danBuGggrd7LRG
-----END CERTIFICATE-----
