Certificate:
    Data:
        Version: 3 (0x2)
        Serial Number:
            11:43:73:5b:0c:22:c0:39:72:9f:99:26:68:db:91:18
    Signature Algorithm: sha256WithRSAEncryption
        Issuer: C=US, ST=California, L=San Francisco, O=Copyleft Certificate Co, OU=My Organizational Unit, CN=ChangeMe/emailAddress=me@example.net
        Validity
            Not Before: Nov 11 18:51:00 2023 GMT
            Not After : Nov 10 18:51:00 2024 GMT
        Subject: C=US, ST=OH, L=Cincinnati, O=University of Cincinnati ., OU=Dept. Elec. Comp. . Eng. Comp. Sci., CN=client16/emailAddress=franco@gauss.ececs.uc.edu
        Subject Public Key Info:
            Public Key Algorithm: rsaEncryption
                Public-Key: (2048 bit)
                Modulus:
                    00:ac:89:f6:83:e6:ef:a8:86:41:5f:14:ae:d4:35:
                    62:62:13:5b:ad:0a:80:b9:24:2d:9b:a7:d2:46:ed:
                    22:94:b7:9d:7a:0e:6e:e6:0c:2a:9a:4c:70:8f:80:
                    81:8c:fa:bc:5e:87:a3:64:c6:88:fd:b4:4d:fb:a2:
                    de:ee:18:af:86:8a:b8:ec:f1:71:fd:25:16:25:87:
                    d3:1a:cf:4d:d9:e1:bb:75:1c:f9:6d:e6:9d:f7:d7:
                    2d:66:88:0c:b8:3d:03:3b:c5:c9:a3:23:2a:00:b7:
                    39:27:8b:4c:91:a8:89:3d:7f:5c:3f:06:ed:fa:e6:
                    dd:e5:e2:27:5b:89:68:66:71:57:e7:a3:a7:95:ef:
                    80:4e:18:3c:f4:96:b1:47:fa:76:7d:b8:75:cd:84:
                    43:6e:dd:00:d9:a1:50:30:ae:3e:e1:28:36:74:23:
                    b4:1a:c2:8c:53:70:b7:5f:33:12:ea:6d:96:b0:66:
                    39:d7:31:01:63:92:92:84:5a:4d:de:14:d6:92:83:
                    68:d1:7e:3c:34:46:f1:41:75:2a:e3:1e:aa:90:9f:
                    0a:7b:ea:79:75:8b:b1:a5:51:ab:e3:48:80:f4:8e:
                    d9:29:22:d9:c0:61:7c:c5:d6:fe:b6:89:ad:5a:59:
                    76:2f:73:39:82:87:c0:4f:79:a0:82:e2:13:bc:91:
                    54:31
                Exponent: 65537 (0x10001)
        X509v3 extensions:
            X509v3 Basic Constraints: 
                CA:FALSE
            X509v3 Subject Key Identifier: 
                51:09:9F:81:95:F0:23:25:B8:C2:A1:09:73:D1:FB:FD:2C:0D:BD:5A
            X509v3 Authority Key Identifier: 
                keyid:9C:0E:D5:A3:16:6F:C8:23:88:D1:12:C9:63:5D:18:D9:C9:FC:5B:E9
                DirName:/C=US/ST=California/L=San Francisco/O=Copyleft Certificate Co/OU=My Organizational Unit/CN=ChangeMe/emailAddress=me@example.net
                serial:A3:08:26:80:D2:47:98:75

            X509v3 Extended Key Usage: 
                TLS Web Client Authentication
            X509v3 Key Usage: 
                Digital Signature
    Signature Algorithm: sha256WithRSAEncryption
         7d:4d:f1:0c:3a:63:bc:04:9a:97:f7:77:12:7d:b2:4c:46:a2:
         f6:03:92:1c:97:e9:73:3b:40:af:64:38:52:51:f6:81:d6:0f:
         07:5f:a5:e9:d3:6c:b6:0e:c0:51:c8:c0:48:5b:37:e1:f8:86:
         1b:2c:b5:fd:1b:1e:d3:5b:66:cf:d6:d8:12:72:69:1a:d6:da:
         b8:0f:59:f7:f9:2c:2b:e7:70:af:f3:64:56:4c:de:cc:b0:07:
         a3:80:3e:b1:b2:f2:03:8c:72:07:8d:84:1b:8a:76:25:2b:da:
         d5:ce:f5:6b:4c:58:f7:3e:79:9d:8e:5a:8e:0a:98:64:5e:e2:
         db:3f:1f:4c:8a:40:f0:ba:76:74:8b:e0:5b:38:bf:0d:bd:8e:
         e2:67:a8:3e:9c:db:12:58:00:8a:d3:a5:d6:65:2a:2a:69:1d:
         d1:83:8d:49:d0:61:de:17:ac:64:81:11:56:62:88:dc:5a:b1:
         5c:d7:56:b2:99:9f:a5:c1:d9:5a:be:04:55:cc:9c:5f:87:42:
         91:2d:e6:02:a7:24:2c:80:c3:0c:00:83:a0:9c:47:74:1f:24:
         f0:0a:97:c3:14:ce:43:50:72:61:bc:d2:af:d0:30:6d:f1:d6:
         84:01:92:87:40:49:1f:ca:be:68:d8:95:3a:0b:8b:ed:b6:9a:
         9b:ae:95:9b
-----BEGIN CERTIFICATE-----
MIIFMzCCBBugAwIBAgIQEUNzWwwiwDlyn5kmaNuRGDANBgkqhkiG9w0BAQsFADCB
rzELMAkGA1UEBhMCVVMxEzARBgNVBAgMCkNhbGlmb3JuaWExFjAUBgNVBAcMDVNh
biBGcmFuY2lzY28xIDAeBgNVBAoMF0NvcHlsZWZ0IENlcnRpZmljYXRlIENvMR8w
HQYDVQQLDBZNeSBPcmdhbml6YXRpb25hbCBVbml0MREwDwYDVQQDDAhDaGFuZ2VN
ZTEdMBsGCSqGSIb3DQEJARYObWVAZXhhbXBsZS5uZXQwHhcNMjMxMTExMTg1MTAw
WhcNMjQxMTEwMTg1MTAwWjCBvzELMAkGA1UEBhMCVVMxCzAJBgNVBAgMAk9IMRMw
EQYDVQQHDApDaW5jaW5uYXRpMSMwIQYDVQQKDBpVbml2ZXJzaXR5IG9mIENpbmNp
bm5hdGkgLjEsMCoGA1UECwwjRGVwdC4gRWxlYy4gQ29tcC4gLiBFbmcuIENvbXAu
IFNjaS4xETAPBgNVBAMMCGNsaWVudDE2MSgwJgYJKoZIhvcNAQkBFhlmcmFuY29A
Z2F1c3MuZWNlY3MudWMuZWR1MIIBIjANBgkqhkiG9w0BAQEFAAOCAQ8AMIIBCgKC
AQEArIn2g+bvqIZBXxSu1DViYhNbrQqAuSQtm6fSRu0ilLedeg5u5gwqmkxwj4CB
jPq8XoejZMaI/bRN+6Le7hivhoq47PFx/SUWJYfTGs9N2eG7dRz5bead99ctZogM
uD0DO8XJoyMqALc5J4tMkaiJPX9cPwbt+ubd5eInW4loZnFX56Onle+AThg89Jax
R/p2fbh1zYRDbt0A2aFQMK4+4Sg2dCO0GsKMU3C3XzMS6m2WsGY51zEBY5KShFpN
3hTWkoNo0X48NEbxQXUq4x6qkJ8Ke+p5dYuxpVGr40iA9I7ZKSLZwGF8xdb+tomt
Wll2L3M5gofAT3mgguITvJFUMQIDAQABo4IBNzCCATMwCQYDVR0TBAIwADAdBgNV
HQ4EFgQUUQmfgZXwIyW4wqEJc9H7/SwNvVowgeQGA1UdIwSB3DCB2YAUnA7VoxZv
yCOI0RLJY10Y2cn8W+mhgbWkgbIwga8xCzAJBgNVBAYTAlVTMRMwEQYDVQQIDApD
YWxpZm9ybmlhMRYwFAYDVQQHDA1TYW4gRnJhbmNpc2NvMSAwHgYDVQQKDBdDb3B5
bGVmdCBDZXJ0aWZpY2F0ZSBDbzEfMB0GA1UECwwWTXkgT3JnYW5pemF0aW9uYWwg
VW5pdDERMA8GA1UEAwwIQ2hhbmdlTWUxHTAbBgkqhkiG9w0BCQEWDm1lQGV4YW1w
bGUubmV0ggkAowgmgNJHmHUwEwYDVR0lBAwwCgYIKwYBBQUHAwIwCwYDVR0PBAQD
AgeAMA0GCSqGSIb3DQEBCwUAA4IBAQB9TfEMOmO8BJqX93cSfbJMRqL2A5Icl+lz
O0CvZDhSUfaB1g8HX6Xp02y2DsBRyMBIWzfh+IYbLLX9Gx7TW2bP1tgScmka1tq4
D1n3+Swr53Cv82RWTN7MsAejgD6xsvIDjHIHjYQbinYlK9rVzvVrTFj3PnmdjlqO
CphkXuLbPx9MikDwunZ0i+BbOL8NvY7iZ6g+nNsSWACK06XWZSoqaR3Rg41J0GHe
F6xkgRFWYojcWrFc11aymZ+lwdlavgRVzJxfh0KRLeYCpyQsgMMMAIOgnEd0HyTw
CpfDFM5DUHJhvNKv0DBt8daEAZKHQEkfyr5o2JU6C4vttpqbrpWb
-----END CERTIFICATE-----
