Certificate:
    Data:
        Version: 3 (0x2)
        Serial Number:
            12:33:62:a7:69:41:8c:bd:6e:f2:9a:46:91:ee:8a:a7
    Signature Algorithm: sha256WithRSAEncryption
        Issuer: C=US, ST=California, L=San Francisco, O=Copyleft Certificate Co, OU=My Organizational Unit, CN=ChangeMe/emailAddress=me@example.net
        Validity
            Not Before: Nov 11 18:52:04 2023 GMT
            Not After : Nov 10 18:52:04 2024 GMT
        Subject: C=US, ST=OH, L=Cincinnati, O=University of Cincinnati ., OU=Dept. Elec. Comp. . Eng. Comp. Sci., CN=client32/emailAddress=franco@gauss.ececs.uc.edu
        Subject Public Key Info:
            Public Key Algorithm: rsaEncryption
                Public-Key: (2048 bit)
                Modulus:
                    00:c8:92:ea:14:79:5f:49:de:c5:29:5b:5e:43:9b:
                    55:32:da:2e:20:3d:ca:64:f3:04:e1:ee:ea:c2:4f:
                    fc:03:21:62:db:65:d7:3f:07:97:ef:17:1c:66:93:
                    9f:a5:11:cb:2f:ea:ae:52:50:7a:2b:6d:26:19:00:
                    16:fb:80:23:f9:c3:76:19:ce:40:a2:3a:af:46:c7:
                    28:eb:b3:ac:1b:61:74:e1:71:f4:71:7d:d7:ed:27:
                    31:b5:f4:19:4d:22:59:5f:fc:d2:cd:67:66:dd:69:
                    0a:4f:d7:aa:5f:bf:90:f2:1f:a3:c4:2b:e3:5a:10:
                    81:53:41:cb:5f:91:12:bd:6d:71:96:07:01:05:ee:
                    02:30:51:1e:44:a5:ae:81:ef:00:75:bf:77:c0:7b:
                    d1:c3:b1:09:a2:f6:ec:bf:2e:a7:11:9e:66:ac:24:
                    90:84:4a:4c:4f:e3:0c:9c:d8:92:5e:69:c7:8a:ad:
                    d2:a8:fa:25:16:21:44:75:73:9e:87:67:28:f2:13:
                    e5:79:c7:be:41:27:65:29:a5:5c:44:9e:e8:9b:74:
                    07:d1:5f:38:88:fa:d3:b5:2c:23:bf:66:17:2a:ce:
                    18:c3:27:7e:60:4f:2e:27:c9:15:a4:9b:08:05:99:
                    09:a0:fa:3a:7c:6a:8f:63:7f:81:40:9f:a9:99:f6:
                    be:9b
                Exponent: 65537 (0x10001)
        X509v3 extensions:
            X509v3 Basic Constraints: 
                CA:FALSE
            X509v3 Subject Key Identifier: 
                45:2F:E7:5A:07:E6:90:C9:A0:5B:A0:2C:12:04:AD:E2:32:E9:B2:FD
            X509v3 Authority Key Identifier: 
                keyid:9C:0E:D5:A3:16:6F:C8:23:88:D1:12:C9:63:5D:18:D9:C9:FC:5B:E9
                DirName:/C=US/ST=California/L=San Francisco/O=Copyleft Certificate Co/OU=My Organizational Unit/CN=ChangeMe/emailAddress=me@example.net
                serial:A3:08:26:80:D2:47:98:75

            X509v3 Extended Key Usage: 
                TLS Web Client Authentication
            X509v3 Key Usage: 
                Digital Signature
    Signature Algorithm: sha256WithRSAEncryption
         26:24:50:51:55:6f:91:15:da:da:1f:b1:41:12:6d:51:9d:89:
         67:79:52:5a:9a:85:4b:e4:4b:32:47:f8:34:37:22:a9:a4:ef:
         bb:64:e0:5d:c0:d0:33:d3:75:bf:db:9c:80:d8:62:35:36:fc:
         0b:0a:b0:02:8a:7f:b8:28:71:07:b5:19:a7:17:7c:47:16:6a:
         85:91:77:94:e9:0a:f1:93:71:82:91:93:91:01:8e:c2:31:b1:
         69:3b:08:9d:c3:58:4d:e8:b3:4c:05:3c:27:f5:48:e2:04:1f:
         37:46:22:54:21:0c:28:9f:9f:a5:f8:6f:8a:a8:8a:63:5b:e1:
         65:4c:2d:70:ed:9a:e6:80:da:91:5d:52:f4:02:bc:0e:20:2f:
         9e:e5:81:d1:65:a0:22:e4:88:8a:8f:dc:62:16:a6:b6:e9:5d:
         7a:78:96:c0:3e:97:17:2c:ce:4c:a0:30:7b:bf:dc:82:e9:00:
         42:95:bb:7a:5d:08:4a:41:e2:22:33:63:02:ce:8f:e6:18:b7:
         5f:51:6d:64:d9:de:3c:86:a7:6d:2f:48:f2:40:78:02:5f:03:
         4a:12:a5:8a:58:1d:b4:89:b6:24:e2:40:a6:a1:f3:55:f6:9e:
         e7:ac:5a:21:b6:b4:af:96:8c:ab:31:4b:c8:fc:e6:c7:3f:76:
         27:d6:2c:27
-----BEGIN CERTIFICATE-----
MIIFMzCCBBugAwIBAgIQEjNip2lBjL1u8ppGke6KpzANBgkqhkiG9w0BAQsFADCB
rzELMAkGA1UEBhMCVVMxEzARBgNVBAgMCkNhbGlmb3JuaWExFjAUBgNVBAcMDVNh
biBGcmFuY2lzY28xIDAeBgNVBAoMF0NvcHlsZWZ0IENlcnRpZmljYXRlIENvMR8w
HQYDVQQLDBZNeSBPcmdhbml6YXRpb25hbCBVbml0MREwDwYDVQQDDAhDaGFuZ2VN
ZTEdMBsGCSqGSIb3DQEJARYObWVAZXhhbXBsZS5uZXQwHhcNMjMxMTExMTg1MjA0
WhcNMjQxMTEwMTg1MjA0WjCBvzELMAkGA1UEBhMCVVMxCzAJBgNVBAgMAk9IMRMw
EQYDVQQHDApDaW5jaW5uYXRpMSMwIQYDVQQKDBpVbml2ZXJzaXR5IG9mIENpbmNp
bm5hdGkgLjEsMCoGA1UECwwjRGVwdC4gRWxlYy4gQ29tcC4gLiBFbmcuIENvbXAu
IFNjaS4xETAPBgNVBAMMCGNsaWVudDMyMSgwJgYJKoZIhvcNAQkBFhlmcmFuY29A
Z2F1c3MuZWNlY3MudWMuZWR1MIIBIjANBgkqhkiG9w0BAQEFAAOCAQ8AMIIBCgKC
AQEAyJLqFHlfSd7FKVteQ5tVMtouID3KZPME4e7qwk/8AyFi22XXPweX7xccZpOf
pRHLL+quUlB6K20mGQAW+4Aj+cN2Gc5AojqvRsco67OsG2F04XH0cX3X7ScxtfQZ
TSJZX/zSzWdm3WkKT9eqX7+Q8h+jxCvjWhCBU0HLX5ESvW1xlgcBBe4CMFEeRKWu
ge8Adb93wHvRw7EJovbsvy6nEZ5mrCSQhEpMT+MMnNiSXmnHiq3SqPolFiFEdXOe
h2co8hPlece+QSdlKaVcRJ7om3QH0V84iPrTtSwjv2YXKs4Ywyd+YE8uJ8kVpJsI
BZkJoPo6fGqPY3+BQJ+pmfa+mwIDAQABo4IBNzCCATMwCQYDVR0TBAIwADAdBgNV
HQ4EFgQURS/nWgfmkMmgW6AsEgSt4jLpsv0wgeQGA1UdIwSB3DCB2YAUnA7VoxZv
yCOI0RLJY10Y2cn8W+mhgbWkgbIwga8xCzAJBgNVBAYTAlVTMRMwEQYDVQQIDApD
YWxpZm9ybmlhMRYwFAYDVQQHDA1TYW4gRnJhbmNpc2NvMSAwHgYDVQQKDBdDb3B5
bGVmdCBDZXJ0aWZpY2F0ZSBDbzEfMB0GA1UECwwWTXkgT3JnYW5pemF0aW9uYWwg
VW5pdDERMA8GA1UEAwwIQ2hhbmdlTWUxHTAbBgkqhkiG9w0BCQEWDm1lQGV4YW1w
bGUubmV0ggkAowgmgNJHmHUwEwYDVR0lBAwwCgYIKwYBBQUHAwIwCwYDVR0PBAQD
AgeAMA0GCSqGSIb3DQEBCwUAA4IBAQAmJFBRVW+RFdraH7FBEm1RnYlneVJamoVL
5EsyR/g0NyKppO+7ZOBdwNAz03W/25yA2GI1NvwLCrACin+4KHEHtRmnF3xHFmqF
kXeU6Qrxk3GCkZORAY7CMbFpOwidw1hN6LNMBTwn9UjiBB83RiJUIQwon5+l+G+K
qIpjW+FlTC1w7ZrmgNqRXVL0ArwOIC+e5YHRZaAi5IiKj9xiFqa26V16eJbAPpcX
LM5MoDB7v9yC6QBClbt6XQhKQeIiM2MCzo/mGLdfUW1k2d48hqdtL0jyQHgCXwNK
EqWKWB20ibYk4kCmofNV9p7nrFohtrSvloyrMUvI/ObHP3Yn1iwn
-----END CERTIFICATE-----
