Certificate:
    Data:
        Version: 3 (0x2)
        Serial Number:
            13:1c:57:9b:7e:25:0e:ea:db:56:9f:d5:f1:ee:4f:14
    Signature Algorithm: sha256WithRSAEncryption
        Issuer: C=US, ST=California, L=San Francisco, O=Copyleft Certificate Co, OU=My Organizational Unit, CN=ChangeMe/emailAddress=me@example.net
        Validity
            Not Before: Nov 11 18:53:12 2023 GMT
            Not After : Nov 10 18:53:12 2024 GMT
        Subject: C=US, ST=OH, L=Cincinnati, O=University of Cincinnati ., OU=Dept. Elec. Comp. . Eng. Comp. Sci., CN=client49/emailAddress=franco@gauss.ececs.uc.edu
        Subject Public Key Info:
            Public Key Algorithm: rsaEncryption
                Public-Key: (2048 bit)
                Modulus:
                    00:a4:f8:5e:52:be:c9:b5:a1:90:db:b7:42:c7:ce:
                    02:d5:19:38:06:1d:d4:7f:96:b9:b7:1e:09:19:a4:
                    fe:62:70:70:11:32:c3:94:6e:6d:c3:8f:72:26:2a:
                    cd:58:d8:e8:73:fa:8b:83:65:b7:c6:f7:09:fd:44:
                    dd:ff:6e:f0:7a:d4:23:4b:4d:4c:b9:f2:d3:6d:cb:
                    2a:d3:b8:48:a7:a0:3f:69:cf:1b:af:b9:f2:c5:36:
                    57:79:95:49:85:79:91:b5:ff:a4:f6:d4:ab:fd:6c:
                    aa:98:a0:58:1e:ac:14:35:66:b5:a0:c2:46:4f:fe:
                    08:f0:37:90:3f:eb:06:76:06:bc:53:6d:86:e8:68:
                    40:2d:ef:bc:91:72:66:81:e7:d8:2a:6a:0c:64:56:
                    e2:07:76:a8:0e:f1:c4:3e:8e:c9:ce:d5:56:33:36:
                    5c:c3:95:51:f3:3d:3a:51:83:14:7d:73:06:8e:a4:
                    72:9a:0f:4a:d3:66:a3:74:7d:d0:99:ec:5a:4f:f9:
                    7f:07:cd:b6:d9:f6:65:c8:d5:3c:fd:5c:84:2d:6b:
                    7a:66:46:4e:e1:a4:cf:20:14:0c:23:c8:bf:b6:f3:
                    88:9b:84:1e:11:1e:b8:24:8c:07:32:6e:5f:de:44:
                    5d:ac:84:cf:b6:68:04:37:0b:97:7f:a2:a3:54:49:
                    03:1f
                Exponent: 65537 (0x10001)
        X509v3 extensions:
            X509v3 Basic Constraints: 
                CA:FALSE
            X509v3 Subject Key Identifier: 
                94:F9:0B:50:82:32:40:5C:75:B7:50:67:29:C7:D5:A1:4D:48:1B:FC
            X509v3 Authority Key Identifier: 
                keyid:9C:0E:D5:A3:16:6F:C8:23:88:D1:12:C9:63:5D:18:D9:C9:FC:5B:E9
                DirName:/C=US/ST=California/L=San Francisco/O=Copyleft Certificate Co/OU=My Organizational Unit/CN=ChangeMe/emailAddress=me@example.net
                serial:A3:08:26:80:D2:47:98:75

            X509v3 Extended Key Usage: 
                TLS Web Client Authentication
            X509v3 Key Usage: 
                Digital Signature
    Signature Algorithm: sha256WithRSAEncryption
         44:99:2f:b2:7a:c1:8d:fe:a7:5a:86:8c:05:09:cf:7f:a4:41:
         70:82:a8:9a:7a:7f:55:a1:1f:60:6b:99:94:b8:ef:02:54:f2:
         29:f5:3e:66:8c:a9:2f:00:8a:f4:41:70:40:71:c1:fd:55:67:
         25:b1:a4:46:9a:14:03:4c:01:d6:a5:75:31:1f:42:f3:ea:21:
         76:5a:c8:39:3a:c6:6d:0e:9e:9a:c7:68:29:2f:f7:85:38:0f:
         79:34:08:a9:9b:5f:ab:86:32:2a:0a:97:bc:2a:b0:0c:46:c6:
         c6:67:37:cd:03:57:3d:b8:ef:36:c8:51:da:fc:37:a6:d5:c4:
         33:7c:d9:4b:ac:fa:d2:50:36:6e:8a:67:1e:3c:b4:31:0c:78:
         26:ff:7e:17:4a:03:b8:63:0e:91:88:63:74:a3:d4:42:7c:89:
         3c:37:c4:ba:d8:9a:bf:c2:ee:1e:70:dd:f7:47:75:59:22:35:
         4b:90:8a:50:82:7d:76:a4:56:62:53:5c:7f:3d:8b:d2:0c:89:
         e4:aa:15:95:54:c7:34:78:31:25:69:9a:24:ec:84:5b:e8:27:
         ea:8a:ce:20:a2:11:f9:c4:fa:1d:4b:11:42:22:4a:79:01:c7:
         3b:e4:83:f0:1c:2e:9e:d8:d1:6b:7b:b9:6f:8d:2c:cc:32:5a:
         e3:9e:62:50
-----BEGIN CERTIFICATE-----
MIIFMzCCBBugAwIBAgIQExxXm34lDurbVp/V8e5PFDANBgkqhkiG9w0BAQsFADCB
rzELMAkGA1UEBhMCVVMxEzARBgNVBAgMCkNhbGlmb3JuaWExFjAUBgNVBAcMDVNh
biBGcmFuY2lzY28xIDAeBgNVBAoMF0NvcHlsZWZ0IENlcnRpZmljYXRlIENvMR8w
HQYDVQQLDBZNeSBPcmdhbml6YXRpb25hbCBVbml0MREwDwYDVQQDDAhDaGFuZ2VN
ZTEdMBsGCSqGSIb3DQEJARYObWVAZXhhbXBsZS5uZXQwHhcNMjMxMTExMTg1MzEy
WhcNMjQxMTEwMTg1MzEyWjCBvzELMAkGA1UEBhMCVVMxCzAJBgNVBAgMAk9IMRMw
EQYDVQQHDApDaW5jaW5uYXRpMSMwIQYDVQQKDBpVbml2ZXJzaXR5IG9mIENpbmNp
bm5hdGkgLjEsMCoGA1UECwwjRGVwdC4gRWxlYy4gQ29tcC4gLiBFbmcuIENvbXAu
IFNjaS4xETAPBgNVBAMMCGNsaWVudDQ5MSgwJgYJKoZIhvcNAQkBFhlmcmFuY29A
Z2F1c3MuZWNlY3MudWMuZWR1MIIBIjANBgkqhkiG9w0BAQEFAAOCAQ8AMIIBCgKC
AQEApPheUr7JtaGQ27dCx84C1Rk4Bh3Uf5a5tx4JGaT+YnBwETLDlG5tw49yJirN
WNjoc/qLg2W3xvcJ/UTd/27wetQjS01MufLTbcsq07hIp6A/ac8br7nyxTZXeZVJ
hXmRtf+k9tSr/WyqmKBYHqwUNWa1oMJGT/4I8DeQP+sGdga8U22G6GhALe+8kXJm
gefYKmoMZFbiB3aoDvHEPo7JztVWMzZcw5VR8z06UYMUfXMGjqRymg9K02ajdH3Q
mexaT/l/B8222fZlyNU8/VyELWt6ZkZO4aTPIBQMI8i/tvOIm4QeER64JIwHMm5f
3kRdrITPtmgENwuXf6KjVEkDHwIDAQABo4IBNzCCATMwCQYDVR0TBAIwADAdBgNV
HQ4EFgQUlPkLUIIyQFx1t1BnKcfVoU1IG/wwgeQGA1UdIwSB3DCB2YAUnA7VoxZv
yCOI0RLJY10Y2cn8W+mhgbWkgbIwga8xCzAJBgNVBAYTAlVTMRMwEQYDVQQIDApD
YWxpZm9ybmlhMRYwFAYDVQQHDA1TYW4gRnJhbmNpc2NvMSAwHgYDVQQKDBdDb3B5
bGVmdCBDZXJ0aWZpY2F0ZSBDbzEfMB0GA1UECwwWTXkgT3JnYW5pemF0aW9uYWwg
VW5pdDERMA8GA1UEAwwIQ2hhbmdlTWUxHTAbBgkqhkiG9w0BCQEWDm1lQGV4YW1w
bGUubmV0ggkAowgmgNJHmHUwEwYDVR0lBAwwCgYIKwYBBQUHAwIwCwYDVR0PBAQD
AgeAMA0GCSqGSIb3DQEBCwUAA4IBAQBEmS+yesGN/qdahowFCc9/pEFwgqiaen9V
oR9ga5mUuO8CVPIp9T5mjKkvAIr0QXBAccH9VWclsaRGmhQDTAHWpXUxH0Lz6iF2
Wsg5OsZtDp6ax2gpL/eFOA95NAipm1+rhjIqCpe8KrAMRsbGZzfNA1c9uO82yFHa
/Dem1cQzfNlLrPrSUDZuimcePLQxDHgm/34XSgO4Yw6RiGN0o9RCfIk8N8S62Jq/
wu4ecN33R3VZIjVLkIpQgn12pFZiU1x/PYvSDInkqhWVVMc0eDElaZok7IRb6Cfq
is4gohH5xPodSxFCIkp5Acc75IPwHC6e2NFre7lvjSzMMlrjnmJQ
-----END CERTIFICATE-----
