Certificate:
    Data:
        Version: 3 (0x2)
        Serial Number:
            13:94:f4:e0:d4:5c:4c:82:dd:82:ba:6d:21:7f:eb:02
    Signature Algorithm: sha256WithRSAEncryption
        Issuer: C=US, ST=California, L=San Francisco, O=Copyleft Certificate Co, OU=My Organizational Unit, CN=ChangeMe/emailAddress=me@example.net
        Validity
            Not Before: Nov 11 18:51:56 2023 GMT
            Not After : Nov 10 18:51:56 2024 GMT
        Subject: C=US, ST=OH, L=Cincinnati, O=University of Cincinnati ., OU=Dept. Elec. Comp. . Eng. Comp. Sci., CN=client30/emailAddress=franco@gauss.ececs.uc.edu
        Subject Public Key Info:
            Public Key Algorithm: rsaEncryption
                Public-Key: (2048 bit)
                Modulus:
                    00:b9:dd:9e:ff:e8:b4:34:51:75:28:c4:2b:1b:08:
                    6e:f5:25:fd:87:26:76:a8:7a:af:fe:b9:d6:4d:6d:
                    14:a4:ae:9c:37:b1:0e:87:61:41:77:0c:95:b3:ef:
                    60:d7:c0:13:5d:2a:05:aa:c1:c0:f3:be:fd:08:53:
                    76:34:a0:9e:a1:6f:a0:a7:90:9f:7f:f6:12:5e:9c:
                    19:ec:7e:38:bc:e5:5f:a0:b1:b1:94:88:59:a4:24:
                    5e:83:27:96:dd:86:bf:16:c4:d6:31:e8:cf:6c:04:
                    89:b1:f5:f5:d3:b2:57:c6:80:38:3a:25:ac:5c:4a:
                    6f:d4:77:27:c4:5b:35:b2:ca:b0:6b:2e:ad:3b:4b:
                    2d:fd:bb:c8:00:40:d7:35:dc:a4:5d:03:a6:5a:5b:
                    19:ed:35:6a:39:c6:cd:39:49:59:1a:f8:a1:4a:ba:
                    ea:47:ca:0c:de:b3:70:53:fc:d9:a2:a8:a5:f4:25:
                    ad:dc:70:b1:d6:b5:d1:69:0b:7a:1f:48:70:a8:4f:
                    47:b6:fb:e1:8f:0a:f1:19:4b:5b:6c:03:25:61:95:
                    bd:1f:bb:c7:16:fd:5b:e9:83:97:72:49:6a:d4:a1:
                    e5:9d:cc:13:fb:8b:ec:54:e2:37:8a:e9:3e:e0:4a:
                    37:39:da:d8:6f:bc:c2:dd:d5:21:0c:fe:f2:14:52:
                    d5:61
                Exponent: 65537 (0x10001)
        X509v3 extensions:
            X509v3 Basic Constraints: 
                CA:FALSE
            X509v3 Subject Key Identifier: 
                7B:F9:68:53:7E:21:54:B7:30:A6:9D:63:ED:46:1B:B9:C7:BA:13:55
            X509v3 Authority Key Identifier: 
                keyid:9C:0E:D5:A3:16:6F:C8:23:88:D1:12:C9:63:5D:18:D9:C9:FC:5B:E9
                DirName:/C=US/ST=California/L=San Francisco/O=Copyleft Certificate Co/OU=My Organizational Unit/CN=ChangeMe/emailAddress=me@example.net
                serial:A3:08:26:80:D2:47:98:75

            X509v3 Extended Key Usage: 
                TLS Web Client Authentication
            X509v3 Key Usage: 
                Digital Signature
    Signature Algorithm: sha256WithRSAEncryption
         88:fa:0a:87:5f:8f:c7:33:74:95:7a:5b:3b:23:62:a1:e2:30:
         0d:a6:c7:8c:b5:a6:d4:04:8d:ff:e0:09:7f:f0:a1:9b:29:19:
         4d:d3:a4:cb:72:56:8f:dd:6e:5f:ec:73:b2:62:9d:3c:7c:da:
         31:13:77:e9:1f:e9:05:af:1e:6f:7e:c7:20:2e:60:fb:c5:3e:
         2c:86:64:2a:f0:8f:56:44:a1:b0:cd:18:27:fa:94:b1:20:04:
         fa:3e:19:94:fc:c1:a3:6b:19:50:41:47:f6:5e:57:86:92:73:
         cb:c4:d8:19:fa:b1:dd:8d:b0:ce:a8:aa:06:60:d0:a0:2c:16:
         29:39:42:dd:96:7b:23:cb:3a:87:14:a9:58:77:ad:c3:ff:93:
         4c:64:20:b5:22:b1:ab:19:ce:5e:00:23:87:6b:c6:f9:53:76:
         8e:fb:ce:4b:0a:69:cf:2a:c9:e2:5c:40:d6:d7:8a:a0:c8:df:
         e5:03:88:b5:4e:50:8d:0d:27:57:b7:34:1c:11:c6:bd:05:df:
         14:30:84:5e:e8:fd:2d:cf:52:2b:c2:92:49:c6:88:bf:3a:2a:
         d9:b3:55:a8:7b:5b:51:19:47:e4:d8:a7:14:57:f6:32:b6:05:
         03:21:6a:35:99:38:84:c8:98:62:01:8a:12:62:37:77:6d:23:
         3f:7e:b6:7d
-----BEGIN CERTIFICATE-----
MIIFMzCCBBugAwIBAgIQE5T04NRcTILdgrptIX/rAjANBgkqhkiG9w0BAQsFADCB
rzELMAkGA1UEBhMCVVMxEzARBgNVBAgMCkNhbGlmb3JuaWExFjAUBgNVBAcMDVNh
biBGcmFuY2lzY28xIDAeBgNVBAoMF0NvcHlsZWZ0IENlcnRpZmljYXRlIENvMR8w
HQYDVQQLDBZNeSBPcmdhbml6YXRpb25hbCBVbml0MREwDwYDVQQDDAhDaGFuZ2VN
ZTEdMBsGCSqGSIb3DQEJARYObWVAZXhhbXBsZS5uZXQwHhcNMjMxMTExMTg1MTU2
WhcNMjQxMTEwMTg1MTU2WjCBvzELMAkGA1UEBhMCVVMxCzAJBgNVBAgMAk9IMRMw
EQYDVQQHDApDaW5jaW5uYXRpMSMwIQYDVQQKDBpVbml2ZXJzaXR5IG9mIENpbmNp
bm5hdGkgLjEsMCoGA1UECwwjRGVwdC4gRWxlYy4gQ29tcC4gLiBFbmcuIENvbXAu
IFNjaS4xETAPBgNVBAMMCGNsaWVudDMwMSgwJgYJKoZIhvcNAQkBFhlmcmFuY29A
Z2F1c3MuZWNlY3MudWMuZWR1MIIBIjANBgkqhkiG9w0BAQEFAAOCAQ8AMIIBCgKC
AQEAud2e/+i0NFF1KMQrGwhu9SX9hyZ2qHqv/rnWTW0UpK6cN7EOh2FBdwyVs+9g
18ATXSoFqsHA8779CFN2NKCeoW+gp5Cff/YSXpwZ7H44vOVfoLGxlIhZpCRegyeW
3Ya/FsTWMejPbASJsfX107JXxoA4OiWsXEpv1HcnxFs1ssqway6tO0st/bvIAEDX
NdykXQOmWlsZ7TVqOcbNOUlZGvihSrrqR8oM3rNwU/zZoqil9CWt3HCx1rXRaQt6
H0hwqE9HtvvhjwrxGUtbbAMlYZW9H7vHFv1b6YOXcklq1KHlncwT+4vsVOI3iuk+
4Eo3OdrYb7zC3dUhDP7yFFLVYQIDAQABo4IBNzCCATMwCQYDVR0TBAIwADAdBgNV
HQ4EFgQUe/loU34hVLcwpp1j7UYbuce6E1UwgeQGA1UdIwSB3DCB2YAUnA7VoxZv
yCOI0RLJY10Y2cn8W+mhgbWkgbIwga8xCzAJBgNVBAYTAlVTMRMwEQYDVQQIDApD
YWxpZm9ybmlhMRYwFAYDVQQHDA1TYW4gRnJhbmNpc2NvMSAwHgYDVQQKDBdDb3B5
bGVmdCBDZXJ0aWZpY2F0ZSBDbzEfMB0GA1UECwwWTXkgT3JnYW5pemF0aW9uYWwg
VW5pdDERMA8GA1UEAwwIQ2hhbmdlTWUxHTAbBgkqhkiG9w0BCQEWDm1lQGV4YW1w
bGUubmV0ggkAowgmgNJHmHUwEwYDVR0lBAwwCgYIKwYBBQUHAwIwCwYDVR0PBAQD
AgeAMA0GCSqGSIb3DQEBCwUAA4IBAQCI+gqHX4/HM3SVels7I2Kh4jANpseMtabU
BI3/4Al/8KGbKRlN06TLclaP3W5f7HOyYp08fNoxE3fpH+kFrx5vfscgLmD7xT4s
hmQq8I9WRKGwzRgn+pSxIAT6PhmU/MGjaxlQQUf2XleGknPLxNgZ+rHdjbDOqKoG
YNCgLBYpOULdlnsjyzqHFKlYd63D/5NMZCC1IrGrGc5eACOHa8b5U3aO+85LCmnP
KsniXEDW14qgyN/lA4i1TlCNDSdXtzQcEca9Bd8UMIRe6P0tz1IrwpJJxoi/OirZ
s1Woe1tRGUfk2KcUV/YytgUDIWo1mTiEyJhiAYoSYjd3bSM/frZ9
-----END CERTIFICATE-----
