Certificate:
    Data:
        Version: 3 (0x2)
        Serial Number:
            16:7e:d5:ab:bd:10:dc:52:88:61:16:eb:8b:78:39:bc
    Signature Algorithm: sha256WithRSAEncryption
        Issuer: C=US, ST=California, L=San Francisco, O=Copyleft Certificate Co, OU=My Organizational Unit, CN=ChangeMe/emailAddress=me@example.net
        Validity
            Not Before: Nov 13 11:47:50 2023 GMT
            Not After : Nov 12 11:47:50 2024 GMT
        Subject: C=US, ST=OH, L=Cincinnati, O=University of Cincinnati, OU=Dept. Elec. Comp. Eng. Comp. Sci., CN=client21/emailAddress=franco@gauss.ececs.uc.edu
        Subject Public Key Info:
            Public Key Algorithm: rsaEncryption
                Public-Key: (2048 bit)
                Modulus:
                    00:c0:8e:6a:91:e9:39:57:c0:46:de:4a:29:ad:17:
                    e7:a8:20:b4:48:e3:de:3e:25:e0:85:18:8f:8e:95:
                    86:bb:fe:5f:d2:2f:98:cb:fb:0f:ff:5e:ce:76:84:
                    3d:b4:a2:d3:af:c5:f8:52:c4:1e:67:ef:f9:b1:f4:
                    cd:48:dc:b5:d7:6b:fa:68:cd:a4:2e:7f:2a:0b:c8:
                    60:fe:f0:ac:e8:01:aa:1c:1f:e0:a5:42:ea:07:b6:
                    ef:ef:fd:83:c0:e0:1e:93:41:ae:8c:46:65:3e:bf:
                    69:84:dc:0b:a6:59:97:a0:47:64:42:fa:9c:62:17:
                    81:ce:c9:3c:21:1d:14:8f:e5:1a:35:b4:d0:84:6e:
                    be:c9:3c:6a:93:0f:e6:48:f3:e0:96:cd:2d:86:e8:
                    83:6f:3d:55:97:75:9c:a7:f3:a8:30:e4:fb:c0:a5:
                    0d:0c:be:e5:6d:ec:08:38:ab:21:23:10:73:15:50:
                    f3:d9:db:2b:5d:20:df:15:11:91:d1:36:b1:da:31:
                    59:cb:22:2d:13:83:27:bc:56:32:18:70:e8:59:68:
                    a4:96:13:c7:e8:f4:a1:5c:47:72:13:fa:f2:2f:a2:
                    5c:82:5e:69:c0:3b:74:ed:6a:d9:1b:9f:e4:eb:2c:
                    61:57:9e:0f:95:bd:20:13:6f:db:03:0c:ad:2c:36:
                    ce:e7
                Exponent: 65537 (0x10001)
        X509v3 extensions:
            X509v3 Basic Constraints: 
                CA:FALSE
            X509v3 Subject Key Identifier: 
                17:B1:1B:78:A6:B5:6B:67:9A:02:C0:B2:F6:36:BA:AA:F3:D4:63:C2
            X509v3 Authority Key Identifier: 
                keyid:B4:AE:AB:ED:FC:ED:84:AA:AD:77:5D:7C:84:28:1C:CA:CE:AE:2A:44
                DirName:/C=US/ST=California/L=San Francisco/O=Copyleft Certificate Co/OU=My Organizational Unit/CN=ChangeMe/emailAddress=me@example.net
                serial:BD:6C:3B:F4:D3:07:C9:D1

            X509v3 Extended Key Usage: 
                TLS Web Client Authentication
            X509v3 Key Usage: 
                Digital Signature
    Signature Algorithm: sha256WithRSAEncryption
         b0:3a:c3:22:8d:17:c2:1e:9a:35:d9:db:bd:40:38:e3:9f:24:
         d3:3a:95:43:4a:2d:71:cf:85:9c:43:87:7c:73:f2:6b:8d:e0:
         c3:0d:07:70:23:b8:dd:8b:52:c8:77:ff:70:03:46:e8:82:73:
         2b:87:19:a7:2f:98:3d:3d:be:84:de:fd:ed:a8:34:2d:bc:c2:
         99:33:2f:c1:2d:40:95:ee:35:c1:65:ed:3c:d7:cb:fb:78:61:
         17:42:bb:27:6f:17:88:6a:2b:08:7b:e4:e3:5d:11:2c:ac:04:
         37:c1:39:a0:a4:03:6f:4d:63:59:28:9d:e7:b3:37:72:ce:f9:
         9f:62:11:68:36:40:df:48:e5:df:8d:2a:e5:61:1f:80:41:25:
         be:3e:ed:0d:b7:84:3b:77:39:f5:95:1d:87:74:42:3b:18:32:
         b8:0f:b3:09:3e:cc:04:71:48:e5:3e:1c:af:f0:88:81:47:28:
         ea:e1:d4:3d:ac:eb:6e:01:a9:18:dd:a3:f6:51:c3:b1:2d:dc:
         5a:e3:47:2c:46:56:3c:88:39:8f:92:25:78:7b:e8:ff:d2:c9:
         52:f1:6b:8b:e7:2b:96:a1:e5:2b:d0:ea:63:ca:20:14:fe:5e:
         de:b3:17:cb:b3:f9:8c:4d:62:ae:ea:3f:da:c3:a9:67:78:e5:
         99:40:67:1c
-----BEGIN CERTIFICATE-----
MIIFLzCCBBegAwIBAgIQFn7Vq70Q3FKIYRbri3g5vDANBgkqhkiG9w0BAQsFADCB
rzELMAkGA1UEBhMCVVMxEzARBgNVBAgMCkNhbGlmb3JuaWExFjAUBgNVBAcMDVNh
biBGcmFuY2lzY28xIDAeBgNVBAoMF0NvcHlsZWZ0IENlcnRpZmljYXRlIENvMR8w
HQYDVQQLDBZNeSBPcmdhbml6YXRpb25hbCBVbml0MREwDwYDVQQDDAhDaGFuZ2VN
ZTEdMBsGCSqGSIb3DQEJARYObWVAZXhhbXBsZS5uZXQwHhcNMjMxMTEzMTE0NzUw
WhcNMjQxMTEyMTE0NzUwWjCBuzELMAkGA1UEBhMCVVMxCzAJBgNVBAgMAk9IMRMw
EQYDVQQHDApDaW5jaW5uYXRpMSEwHwYDVQQKDBhVbml2ZXJzaXR5IG9mIENpbmNp
bm5hdGkxKjAoBgNVBAsMIURlcHQuIEVsZWMuIENvbXAuIEVuZy4gQ29tcC4gU2Np
LjERMA8GA1UEAwwIY2xpZW50MjExKDAmBgkqhkiG9w0BCQEWGWZyYW5jb0BnYXVz
cy5lY2Vjcy51Yy5lZHUwggEiMA0GCSqGSIb3DQEBAQUAA4IBDwAwggEKAoIBAQDA
jmqR6TlXwEbeSimtF+eoILRI494+JeCFGI+OlYa7/l/SL5jL+w//Xs52hD20otOv
xfhSxB5n7/mx9M1I3LXXa/pozaQufyoLyGD+8KzoAaocH+ClQuoHtu/v/YPA4B6T
Qa6MRmU+v2mE3AumWZegR2RC+pxiF4HOyTwhHRSP5Ro1tNCEbr7JPGqTD+ZI8+CW
zS2G6INvPVWXdZyn86gw5PvApQ0MvuVt7Ag4qyEjEHMVUPPZ2ytdIN8VEZHRNrHa
MVnLIi0Tgye8VjIYcOhZaKSWE8fo9KFcR3IT+vIvolyCXmnAO3Ttatkbn+TrLGFX
ng+VvSATb9sDDK0sNs7nAgMBAAGjggE3MIIBMzAJBgNVHRMEAjAAMB0GA1UdDgQW
BBQXsRt4prVrZ5oCwLL2Nrqq89RjwjCB5AYDVR0jBIHcMIHZgBS0rqvt/O2Eqq13
XXyEKBzKzq4qRKGBtaSBsjCBrzELMAkGA1UEBhMCVVMxEzARBgNVBAgMCkNhbGlm
b3JuaWExFjAUBgNVBAcMDVNhbiBGcmFuY2lzY28xIDAeBgNVBAoMF0NvcHlsZWZ0
IENlcnRpZmljYXRlIENvMR8wHQYDVQQLDBZNeSBPcmdhbml6YXRpb25hbCBVbml0
MREwDwYDVQQDDAhDaGFuZ2VNZTEdMBsGCSqGSIb3DQEJARYObWVAZXhhbXBsZS5u
ZXSCCQC9bDv00wfJ0TATBgNVHSUEDDAKBggrBgEFBQcDAjALBgNVHQ8EBAMCB4Aw
DQYJKoZIhvcNAQELBQADggEBALA6wyKNF8IemjXZ271AOOOfJNM6lUNKLXHPhZxD
h3xz8muN4MMNB3AjuN2LUsh3/3ADRuiCcyuHGacvmD09voTe/e2oNC28wpkzL8Et
QJXuNcFl7TzXy/t4YRdCuydvF4hqKwh75ONdESysBDfBOaCkA29NY1koneezN3LO
+Z9iEWg2QN9I5d+NKuVhH4BBJb4+7Q23hDt3OfWVHYd0QjsYMrgPswk+zARxSOU+
HK/wiIFHKOrh1D2s624BqRjdo/ZRw7Et3FrjRyxGVjyIOY+SJXh76P/SyVLxa4vn
K5ah5SvQ6mPKIBT+Xt6zF8uz+YxNYq7qP9rDqWd45ZlAZxw=
-----END CERTIFICATE-----
