Certificate:
    Data:
        Version: 3 (0x2)
        Serial Number:
            18:8a:7d:5f:71:83:a3:1b:d5:cd:7f:fb:f0:a7:a5:1c
    Signature Algorithm: sha256WithRSAEncryption
        Issuer: C=US, ST=California, L=San Francisco, O=Copyleft Certificate Co, OU=My Organizational Unit, CN=ChangeMe/emailAddress=me@example.net
        Validity
            Not Before: Nov 11 18:50:00 2023 GMT
            Not After : Nov 10 18:50:00 2024 GMT
        Subject: C=US, ST=OH, L=Cincinnati, O=University of Cincinnati ., OU=Dept. Elec. Comp. . Eng. Comp. Sci., CN=client1/emailAddress=franco@gauss.ececs.uc.edu
        Subject Public Key Info:
            Public Key Algorithm: rsaEncryption
                Public-Key: (2048 bit)
                Modulus:
                    00:ca:18:f3:e3:86:60:6a:66:39:1a:5c:8f:14:be:
                    30:75:fc:80:34:e7:98:95:99:ae:af:d1:0a:43:f5:
                    a4:61:49:fd:4b:11:1b:86:f4:28:9d:84:73:6c:8c:
                    3e:12:5d:c5:4b:ef:13:cc:79:4b:95:92:94:f8:a3:
                    5c:e4:11:5b:be:95:cd:a3:9e:0f:2d:1c:f6:64:9d:
                    a5:86:09:93:25:b5:60:08:d6:aa:1f:5a:3d:b0:b1:
                    b0:d0:4e:df:72:4b:13:39:d5:6b:eb:d1:94:74:64:
                    aa:79:08:72:f3:eb:da:a7:1b:70:82:d7:14:34:bc:
                    49:23:73:6f:59:17:3c:2d:d1:d1:9d:2c:2b:8b:24:
                    2e:d9:20:d5:32:91:ba:7f:af:f0:93:2c:a5:9a:25:
                    81:51:c0:e7:2b:98:54:65:2f:22:14:d5:89:70:89:
                    09:61:c7:9a:90:f1:f7:27:19:be:cf:d6:6e:fe:b3:
                    1c:2d:5a:61:ac:66:37:2d:c3:3a:7c:c8:64:35:75:
                    a3:dc:04:c2:bf:7f:9a:16:ed:9a:da:89:18:26:00:
                    b3:fd:73:d3:35:69:5f:2b:1b:62:7b:38:03:81:ae:
                    0b:46:92:7a:ba:1a:11:03:ce:ec:0a:a3:e1:9f:09:
                    5b:c6:d5:84:16:2c:3c:41:a9:04:2c:c6:1b:c3:b3:
                    21:c5
                Exponent: 65537 (0x10001)
        X509v3 extensions:
            X509v3 Basic Constraints: 
                CA:FALSE
            X509v3 Subject Key Identifier: 
                4F:3A:F2:FF:DF:38:A2:DB:85:53:11:D2:40:D2:99:9E:B6:8C:3D:B7
            X509v3 Authority Key Identifier: 
                keyid:9C:0E:D5:A3:16:6F:C8:23:88:D1:12:C9:63:5D:18:D9:C9:FC:5B:E9
                DirName:/C=US/ST=California/L=San Francisco/O=Copyleft Certificate Co/OU=My Organizational Unit/CN=ChangeMe/emailAddress=me@example.net
                serial:A3:08:26:80:D2:47:98:75

            X509v3 Extended Key Usage: 
                TLS Web Client Authentication
            X509v3 Key Usage: 
                Digital Signature
    Signature Algorithm: sha256WithRSAEncryption
         a4:c5:d7:41:0e:23:69:8d:fb:14:5d:3b:38:87:c3:3f:8f:62:
         10:61:27:f9:23:ea:6f:52:5b:57:d5:02:5d:5c:2d:9b:30:e0:
         9b:25:54:6d:1a:86:d1:19:6a:8c:49:30:a9:50:96:06:46:90:
         a6:65:43:f9:d5:05:41:e6:e6:62:58:88:16:e1:bc:95:c4:6e:
         73:c0:d3:e1:13:eb:cd:5a:ea:be:90:20:71:5b:2b:01:ee:af:
         f1:09:69:a5:6f:3d:b4:b4:76:0d:1c:0a:48:93:67:f0:1f:04:
         b4:16:27:8d:85:fa:11:92:be:ef:2d:47:8e:94:0d:dd:ae:84:
         02:a9:7e:04:1c:9c:61:ed:09:9d:38:e8:b0:fe:3c:49:f8:f4:
         9c:7c:a8:8c:b5:77:95:e6:d2:34:79:be:48:1d:d6:58:3d:0a:
         d8:78:3d:5f:66:5b:cd:66:fa:c9:33:ec:62:42:06:2b:20:52:
         eb:f0:9f:4a:b9:76:f9:44:cb:bf:01:71:a8:40:b6:02:a2:96:
         35:37:6a:aa:55:7f:2a:da:fa:e8:59:13:8e:3c:55:45:56:a3:
         b3:e2:e3:b9:33:6f:13:c2:87:66:6e:f6:b4:f0:a5:66:90:99:
         0b:a1:16:c9:ac:a9:ca:4b:44:c5:89:0c:d7:7a:c4:78:5e:53:
         c0:4d:27:01
-----BEGIN CERTIFICATE-----
MIIFMjCCBBqgAwIBAgIQGIp9X3GDoxvVzX/78KelHDANBgkqhkiG9w0BAQsFADCB
rzELMAkGA1UEBhMCVVMxEzARBgNVBAgMCkNhbGlmb3JuaWExFjAUBgNVBAcMDVNh
biBGcmFuY2lzY28xIDAeBgNVBAoMF0NvcHlsZWZ0IENlcnRpZmljYXRlIENvMR8w
HQYDVQQLDBZNeSBPcmdhbml6YXRpb25hbCBVbml0MREwDwYDVQQDDAhDaGFuZ2VN
ZTEdMBsGCSqGSIb3DQEJARYObWVAZXhhbXBsZS5uZXQwHhcNMjMxMTExMTg1MDAw
WhcNMjQxMTEwMTg1MDAwWjCBvjELMAkGA1UEBhMCVVMxCzAJBgNVBAgMAk9IMRMw
EQYDVQQHDApDaW5jaW5uYXRpMSMwIQYDVQQKDBpVbml2ZXJzaXR5IG9mIENpbmNp
bm5hdGkgLjEsMCoGA1UECwwjRGVwdC4gRWxlYy4gQ29tcC4gLiBFbmcuIENvbXAu
IFNjaS4xEDAOBgNVBAMMB2NsaWVudDExKDAmBgkqhkiG9w0BCQEWGWZyYW5jb0Bn
YXVzcy5lY2Vjcy51Yy5lZHUwggEiMA0GCSqGSIb3DQEBAQUAA4IBDwAwggEKAoIB
AQDKGPPjhmBqZjkaXI8UvjB1/IA055iVma6v0QpD9aRhSf1LERuG9CidhHNsjD4S
XcVL7xPMeUuVkpT4o1zkEVu+lc2jng8tHPZknaWGCZMltWAI1qofWj2wsbDQTt9y
SxM51Wvr0ZR0ZKp5CHLz69qnG3CC1xQ0vEkjc29ZFzwt0dGdLCuLJC7ZINUykbp/
r/CTLKWaJYFRwOcrmFRlLyIU1YlwiQlhx5qQ8fcnGb7P1m7+sxwtWmGsZjctwzp8
yGQ1daPcBMK/f5oW7ZraiRgmALP9c9M1aV8rG2J7OAOBrgtGknq6GhEDzuwKo+Gf
CVvG1YQWLDxBqQQsxhvDsyHFAgMBAAGjggE3MIIBMzAJBgNVHRMEAjAAMB0GA1Ud
DgQWBBRPOvL/3zii24VTEdJA0pmetow9tzCB5AYDVR0jBIHcMIHZgBScDtWjFm/I
I4jREsljXRjZyfxb6aGBtaSBsjCBrzELMAkGA1UEBhMCVVMxEzARBgNVBAgMCkNh
bGlmb3JuaWExFjAUBgNVBAcMDVNhbiBGcmFuY2lzY28xIDAeBgNVBAoMF0NvcHls
ZWZ0IENlcnRpZmljYXRlIENvMR8wHQYDVQQLDBZNeSBPcmdhbml6YXRpb25hbCBV
bml0MREwDwYDVQQDDAhDaGFuZ2VNZTEdMBsGCSqGSIb3DQEJARYObWVAZXhhbXBs
ZS5uZXSCCQCjCCaA0keYdTATBgNVHSUEDDAKBggrBgEFBQcDAjALBgNVHQ8EBAMC
B4AwDQYJKoZIhvcNAQELBQADggEBAKTF10EOI2mN+xRdOziHwz+PYhBhJ/kj6m9S
W1fVAl1cLZsw4JslVG0ahtEZaoxJMKlQlgZGkKZlQ/nVBUHm5mJYiBbhvJXEbnPA
0+ET681a6r6QIHFbKwHur/EJaaVvPbS0dg0cCkiTZ/AfBLQWJ42F+hGSvu8tR46U
Dd2uhAKpfgQcnGHtCZ046LD+PEn49Jx8qIy1d5Xm0jR5vkgd1lg9Cth4PV9mW81m
+skz7GJCBisgUuvwn0q5dvlEy78BcahAtgKiljU3aqpVfyra+uhZE448VUVWo7Pi
47kzbxPCh2Zu9rTwpWaQmQuhFsmsqcpLRMWJDNd6xHheU8BNJwE=
-----END CERTIFICATE-----
