Certificate:
    Data:
        Version: 3 (0x2)
        Serial Number:
            18:c2:21:ae:4d:08:8b:a1:48:86:25:11:c8:6f:88:c5
    Signature Algorithm: sha256WithRSAEncryption
        Issuer: C=US, ST=California, L=San Francisco, O=Copyleft Certificate Co, OU=My Organizational Unit, CN=ChangeMe/emailAddress=me@example.net
        Validity
            Not Before: Nov 11 18:53:04 2023 GMT
            Not After : Nov 10 18:53:04 2024 GMT
        Subject: C=US, ST=OH, L=Cincinnati, O=University of Cincinnati ., OU=Dept. Elec. Comp. . Eng. Comp. Sci., CN=client47/emailAddress=franco@gauss.ececs.uc.edu
        Subject Public Key Info:
            Public Key Algorithm: rsaEncryption
                Public-Key: (2048 bit)
                Modulus:
                    00:bf:2b:57:d1:fb:6f:69:a8:8d:43:12:16:25:ba:
                    f4:93:df:98:a4:d0:56:d8:1d:a0:45:7c:f1:22:eb:
                    6d:38:35:07:4b:57:24:88:36:f9:76:1e:cc:e9:17:
                    63:53:23:cd:fe:fd:27:8b:71:0c:2d:56:33:38:42:
                    94:7d:1f:90:9e:ba:66:b0:0f:82:64:7f:d9:89:e5:
                    54:9c:5f:36:40:7c:06:fc:79:0f:60:16:a7:39:ae:
                    8d:57:95:59:74:f6:be:f9:c4:a2:5f:37:fb:49:21:
                    9a:08:15:5c:b6:b6:61:08:5f:5d:cc:a7:ef:f5:68:
                    1b:91:1e:a9:41:ed:a6:ad:8d:42:c7:da:60:05:06:
                    eb:59:7b:7a:21:d8:da:5a:64:7f:2e:c3:3e:ee:9f:
                    be:d0:c1:ba:e6:8a:e5:81:b9:81:4d:b1:9a:95:be:
                    c3:d0:98:c3:71:9c:6b:8a:79:27:64:33:b3:61:c1:
                    9d:ef:9f:44:aa:ce:b3:2c:ea:0b:fe:24:6a:55:81:
                    e5:b3:99:b9:8d:b0:5d:ef:cd:25:69:2f:8f:0a:69:
                    fd:a9:3b:82:ff:9b:c2:8f:e1:83:14:62:29:bb:e4:
                    92:21:c5:90:7b:a0:b6:b3:9e:69:17:ee:9e:26:34:
                    c5:bd:52:b0:36:71:f1:7f:51:26:0f:13:9e:df:ec:
                    6c:73
                Exponent: 65537 (0x10001)
        X509v3 extensions:
            X509v3 Basic Constraints: 
                CA:FALSE
            X509v3 Subject Key Identifier: 
                98:D0:78:BA:84:4A:F5:C3:A4:B2:5D:EF:53:1F:85:07:AE:CC:4D:9A
            X509v3 Authority Key Identifier: 
                keyid:9C:0E:D5:A3:16:6F:C8:23:88:D1:12:C9:63:5D:18:D9:C9:FC:5B:E9
                DirName:/C=US/ST=California/L=San Francisco/O=Copyleft Certificate Co/OU=My Organizational Unit/CN=ChangeMe/emailAddress=me@example.net
                serial:A3:08:26:80:D2:47:98:75

            X509v3 Extended Key Usage: 
                TLS Web Client Authentication
            X509v3 Key Usage: 
                Digital Signature
    Signature Algorithm: sha256WithRSAEncryption
         b1:9f:5b:35:96:75:ac:88:dc:e9:75:44:3c:66:95:fd:e3:44:
         73:45:1c:18:94:f6:8d:ce:94:9c:87:19:3a:1f:78:5c:6c:f4:
         7f:8c:4b:a3:97:20:9b:05:eb:5d:b7:ac:49:17:b8:a3:2f:38:
         96:13:cf:57:0c:6d:92:79:65:41:a3:fe:57:4d:a8:99:b6:73:
         d9:98:b0:36:84:46:6b:d0:5b:02:8f:ad:e3:e7:44:95:2d:8e:
         b1:76:f5:a7:bc:c8:2f:a1:ee:ea:9c:fa:e4:da:0f:31:13:66:
         03:6b:ca:6c:09:4a:23:c1:d9:96:14:fd:2c:c0:a3:58:ba:81:
         fc:bd:e8:18:76:66:ab:9c:1c:eb:19:4b:fa:66:7b:a8:9c:72:
         38:8d:b5:96:19:28:98:40:0c:94:6c:41:92:3c:f0:d7:29:d2:
         88:5e:f6:47:b6:da:43:cf:f0:31:d6:ab:6b:5e:3e:dd:44:8f:
         97:0f:1e:f7:41:29:c3:7e:50:23:cd:cb:a5:1f:43:60:1f:8c:
         50:9f:ac:ec:32:12:b4:48:2f:1c:6e:97:84:52:0d:34:05:bb:
         76:38:aa:ba:b1:f8:50:46:5d:83:b5:32:5a:0c:fb:0e:f7:95:
         c5:1b:a5:1c:04:28:0a:88:69:54:7c:ef:4b:ce:fa:b6:d8:d4:
         01:68:8d:51
-----BEGIN CERTIFICATE-----
MIIFMzCCBBugAwIBAgIQGMIhrk0Ii6FIhiURyG+IxTANBgkqhkiG9w0BAQsFADCB
rzELMAkGA1UEBhMCVVMxEzARBgNVBAgMCkNhbGlmb3JuaWExFjAUBgNVBAcMDVNh
biBGcmFuY2lzY28xIDAeBgNVBAoMF0NvcHlsZWZ0IENlcnRpZmljYXRlIENvMR8w
HQYDVQQLDBZNeSBPcmdhbml6YXRpb25hbCBVbml0MREwDwYDVQQDDAhDaGFuZ2VN
ZTEdMBsGCSqGSIb3DQEJARYObWVAZXhhbXBsZS5uZXQwHhcNMjMxMTExMTg1MzA0
WhcNMjQxMTEwMTg1MzA0WjCBvzELMAkGA1UEBhMCVVMxCzAJBgNVBAgMAk9IMRMw
EQYDVQQHDApDaW5jaW5uYXRpMSMwIQYDVQQKDBpVbml2ZXJzaXR5IG9mIENpbmNp
bm5hdGkgLjEsMCoGA1UECwwjRGVwdC4gRWxlYy4gQ29tcC4gLiBFbmcuIENvbXAu
IFNjaS4xETAPBgNVBAMMCGNsaWVudDQ3MSgwJgYJKoZIhvcNAQkBFhlmcmFuY29A
Z2F1c3MuZWNlY3MudWMuZWR1MIIBIjANBgkqhkiG9w0BAQEFAAOCAQ8AMIIBCgKC
AQEAvytX0ftvaaiNQxIWJbr0k9+YpNBW2B2gRXzxIuttODUHS1ckiDb5dh7M6Rdj
UyPN/v0ni3EMLVYzOEKUfR+QnrpmsA+CZH/ZieVUnF82QHwG/HkPYBanOa6NV5VZ
dPa++cSiXzf7SSGaCBVctrZhCF9dzKfv9WgbkR6pQe2mrY1Cx9pgBQbrWXt6Idja
WmR/LsM+7p++0MG65orlgbmBTbGalb7D0JjDcZxrinknZDOzYcGd759Eqs6zLOoL
/iRqVYHls5m5jbBd780laS+PCmn9qTuC/5vCj+GDFGIpu+SSIcWQe6C2s55pF+6e
JjTFvVKwNnHxf1EmDxOe3+xscwIDAQABo4IBNzCCATMwCQYDVR0TBAIwADAdBgNV
HQ4EFgQUmNB4uoRK9cOksl3vUx+FB67MTZowgeQGA1UdIwSB3DCB2YAUnA7VoxZv
yCOI0RLJY10Y2cn8W+mhgbWkgbIwga8xCzAJBgNVBAYTAlVTMRMwEQYDVQQIDApD
YWxpZm9ybmlhMRYwFAYDVQQHDA1TYW4gRnJhbmNpc2NvMSAwHgYDVQQKDBdDb3B5
bGVmdCBDZXJ0aWZpY2F0ZSBDbzEfMB0GA1UECwwWTXkgT3JnYW5pemF0aW9uYWwg
VW5pdDERMA8GA1UEAwwIQ2hhbmdlTWUxHTAbBgkqhkiG9w0BCQEWDm1lQGV4YW1w
bGUubmV0ggkAowgmgNJHmHUwEwYDVR0lBAwwCgYIKwYBBQUHAwIwCwYDVR0PBAQD
AgeAMA0GCSqGSIb3DQEBCwUAA4IBAQCxn1s1lnWsiNzpdUQ8ZpX940RzRRwYlPaN
zpSchxk6H3hcbPR/jEujlyCbBetdt6xJF7ijLziWE89XDG2SeWVBo/5XTaiZtnPZ
mLA2hEZr0FsCj63j50SVLY6xdvWnvMgvoe7qnPrk2g8xE2YDa8psCUojwdmWFP0s
wKNYuoH8vegYdmarnBzrGUv6ZnuonHI4jbWWGSiYQAyUbEGSPPDXKdKIXvZHttpD
z/Ax1qtrXj7dRI+XDx73QSnDflAjzculH0NgH4xQn6zsMhK0SC8cbpeEUg00Bbt2
OKq6sfhQRl2DtTJaDPsO95XFG6UcBCgKiGlUfO9Lzvq22NQBaI1R
-----END CERTIFICATE-----
