Certificate:
    Data:
        Version: 3 (0x2)
        Serial Number:
            19:07:c0:b3:77:f4:09:ea:05:a1:e2:45:b3:e3:d3:71
    Signature Algorithm: sha256WithRSAEncryption
        Issuer: C=US, ST=California, L=San Francisco, O=Copyleft Certificate Co, OU=My Organizational Unit, CN=ChangeMe/emailAddress=me@example.net
        Validity
            Not Before: Nov 13 11:47:38 2023 GMT
            Not After : Nov 12 11:47:38 2024 GMT
        Subject: C=US, ST=OH, L=Cincinnati, O=University of Cincinnati, OU=Dept. Elec. Comp. Eng. Comp. Sci., CN=client18/emailAddress=franco@gauss.ececs.uc.edu
        Subject Public Key Info:
            Public Key Algorithm: rsaEncryption
                Public-Key: (2048 bit)
                Modulus:
                    00:d5:24:0b:b2:9c:53:0b:dd:38:4f:85:16:b6:0a:
                    27:2a:3a:2b:01:b0:76:e9:fa:f5:6c:d4:8a:b4:8b:
                    f5:fd:ce:3f:4b:4f:5b:a1:ae:e6:fa:32:cb:8f:59:
                    77:9b:03:3b:a9:04:a4:40:2a:cc:f4:a3:12:bb:0e:
                    ab:77:7a:68:62:b3:3e:1e:db:1a:6e:70:66:b7:16:
                    f7:73:1d:6d:76:7a:ba:f6:79:9e:33:c4:33:2f:0d:
                    bc:78:21:68:5e:a9:b0:69:5c:88:b7:09:92:72:45:
                    92:51:5d:ad:bb:76:55:b3:ab:d8:51:07:61:12:c1:
                    16:81:54:ab:2c:8a:31:d3:a2:42:63:a4:6a:0c:76:
                    28:24:2a:40:92:f1:67:f9:2b:6e:89:86:c8:10:b0:
                    33:9c:ec:34:74:82:bd:1f:62:a3:a3:ea:4f:1c:3a:
                    4c:ee:55:38:bf:b9:af:85:61:ac:dc:cf:06:07:0b:
                    72:95:cc:bc:99:b0:1e:31:c7:45:c6:76:a9:89:a4:
                    d8:9d:0b:71:fc:b2:db:24:a7:33:cd:14:6e:31:aa:
                    74:cb:cb:f5:e1:60:7c:f1:9e:2b:77:1f:5a:6d:d0:
                    63:63:55:0b:95:55:2a:d2:08:c2:31:68:eb:c0:0f:
                    3c:e6:98:ff:91:26:e0:86:03:fd:ba:47:7c:b8:4f:
                    a4:79
                Exponent: 65537 (0x10001)
        X509v3 extensions:
            X509v3 Basic Constraints: 
                CA:FALSE
            X509v3 Subject Key Identifier: 
                91:8B:51:EF:DD:5D:A0:39:07:39:D9:52:FD:E3:23:39:72:F5:77:C1
            X509v3 Authority Key Identifier: 
                keyid:B4:AE:AB:ED:FC:ED:84:AA:AD:77:5D:7C:84:28:1C:CA:CE:AE:2A:44
                DirName:/C=US/ST=California/L=San Francisco/O=Copyleft Certificate Co/OU=My Organizational Unit/CN=ChangeMe/emailAddress=me@example.net
                serial:BD:6C:3B:F4:D3:07:C9:D1

            X509v3 Extended Key Usage: 
                TLS Web Client Authentication
            X509v3 Key Usage: 
                Digital Signature
    Signature Algorithm: sha256WithRSAEncryption
         13:41:b5:8b:1c:80:d8:20:f5:a9:9f:d8:67:1a:d2:18:39:7e:
         90:d5:17:99:f2:0b:c7:30:25:04:77:b1:ec:34:3c:e8:ba:86:
         3e:3f:1b:ec:6f:01:d8:62:21:b3:8b:9c:5b:72:e2:48:2f:5b:
         09:59:d8:06:ce:04:cf:57:e9:77:34:46:fc:f4:2c:8d:41:7f:
         c9:b0:ad:cf:b6:4d:8a:d6:92:2f:e8:2f:25:9d:45:e1:6d:69:
         18:3a:a4:6b:d0:39:27:6f:a7:9d:e6:0d:03:5f:f1:c2:57:e6:
         46:60:a1:1b:ea:e1:9c:ed:d6:16:19:fe:fc:dd:10:be:45:cf:
         6b:c1:aa:d0:2c:99:2a:80:2d:b5:05:7c:72:6b:29:f9:30:84:
         46:ef:32:f9:f2:41:81:20:9c:84:f3:bf:ad:27:f4:da:ab:de:
         f7:dc:5b:28:20:82:c7:2d:8f:32:c7:2f:d0:0c:e1:f0:8e:ca:
         9b:09:d9:bf:bd:4d:84:fb:e0:6c:aa:f3:fe:27:d5:98:ba:c9:
         35:9b:b9:d8:52:c1:ff:48:e9:92:2c:f9:53:a3:84:72:b3:62:
         af:f8:62:ff:f1:ff:07:c8:b3:1f:f8:7d:47:47:8d:d7:b7:d6:
         5a:e0:9b:95:d4:61:d9:5c:30:a9:03:58:93:4e:c0:75:15:33:
         ac:64:14:78
-----BEGIN CERTIFICATE-----
MIIFLzCCBBegAwIBAgIQGQfAs3f0CeoFoeJFs+PTcTANBgkqhkiG9w0BAQsFADCB
rzELMAkGA1UEBhMCVVMxEzARBgNVBAgMCkNhbGlmb3JuaWExFjAUBgNVBAcMDVNh
biBGcmFuY2lzY28xIDAeBgNVBAoMF0NvcHlsZWZ0IENlcnRpZmljYXRlIENvMR8w
HQYDVQQLDBZNeSBPcmdhbml6YXRpb25hbCBVbml0MREwDwYDVQQDDAhDaGFuZ2VN
ZTEdMBsGCSqGSIb3DQEJARYObWVAZXhhbXBsZS5uZXQwHhcNMjMxMTEzMTE0NzM4
WhcNMjQxMTEyMTE0NzM4WjCBuzELMAkGA1UEBhMCVVMxCzAJBgNVBAgMAk9IMRMw
EQYDVQQHDApDaW5jaW5uYXRpMSEwHwYDVQQKDBhVbml2ZXJzaXR5IG9mIENpbmNp
bm5hdGkxKjAoBgNVBAsMIURlcHQuIEVsZWMuIENvbXAuIEVuZy4gQ29tcC4gU2Np
LjERMA8GA1UEAwwIY2xpZW50MTgxKDAmBgkqhkiG9w0BCQEWGWZyYW5jb0BnYXVz
cy5lY2Vjcy51Yy5lZHUwggEiMA0GCSqGSIb3DQEBAQUAA4IBDwAwggEKAoIBAQDV
JAuynFML3ThPhRa2CicqOisBsHbp+vVs1Iq0i/X9zj9LT1uhrub6MsuPWXebAzup
BKRAKsz0oxK7Dqt3emhisz4e2xpucGa3FvdzHW12err2eZ4zxDMvDbx4IWheqbBp
XIi3CZJyRZJRXa27dlWzq9hRB2ESwRaBVKssijHTokJjpGoMdigkKkCS8Wf5K26J
hsgQsDOc7DR0gr0fYqOj6k8cOkzuVTi/ua+FYazczwYHC3KVzLyZsB4xx0XGdqmJ
pNidC3H8stskpzPNFG4xqnTLy/XhYHzxnit3H1pt0GNjVQuVVSrSCMIxaOvADzzm
mP+RJuCGA/26R3y4T6R5AgMBAAGjggE3MIIBMzAJBgNVHRMEAjAAMB0GA1UdDgQW
BBSRi1Hv3V2gOQc52VL94yM5cvV3wTCB5AYDVR0jBIHcMIHZgBS0rqvt/O2Eqq13
XXyEKBzKzq4qRKGBtaSBsjCBrzELMAkGA1UEBhMCVVMxEzARBgNVBAgMCkNhbGlm
b3JuaWExFjAUBgNVBAcMDVNhbiBGcmFuY2lzY28xIDAeBgNVBAoMF0NvcHlsZWZ0
IENlcnRpZmljYXRlIENvMR8wHQYDVQQLDBZNeSBPcmdhbml6YXRpb25hbCBVbml0
MREwDwYDVQQDDAhDaGFuZ2VNZTEdMBsGCSqGSIb3DQEJARYObWVAZXhhbXBsZS5u
ZXSCCQC9bDv00wfJ0TATBgNVHSUEDDAKBggrBgEFBQcDAjALBgNVHQ8EBAMCB4Aw
DQYJKoZIhvcNAQELBQADggEBABNBtYscgNgg9amf2Gca0hg5fpDVF5nyC8cwJQR3
sew0POi6hj4/G+xvAdhiIbOLnFty4kgvWwlZ2AbOBM9X6Xc0Rvz0LI1Bf8mwrc+2
TYrWki/oLyWdReFtaRg6pGvQOSdvp53mDQNf8cJX5kZgoRvq4Zzt1hYZ/vzdEL5F
z2vBqtAsmSqALbUFfHJrKfkwhEbvMvnyQYEgnITzv60n9Nqr3vfcWygggsctjzLH
L9AM4fCOypsJ2b+9TYT74Gyq8/4n1Zi6yTWbudhSwf9I6ZIs+VOjhHKzYq/4Yv/x
/wfIsx/4fUdHjde31lrgm5XUYdlcMKkDWJNOwHUVM6xkFHg=
-----END CERTIFICATE-----
