Certificate:
    Data:
        Version: 3 (0x2)
        Serial Number:
            19:3f:fc:fa:5a:31:f3:30:d3:11:c2:6a:5f:bc:78:c8
    Signature Algorithm: sha256WithRSAEncryption
        Issuer: C=US, ST=California, L=San Francisco, O=Copyleft Certificate Co, OU=My Organizational Unit, CN=ChangeMe/emailAddress=me@example.net
        Validity
            Not Before: Nov 11 18:50:52 2023 GMT
            Not After : Nov 10 18:50:52 2024 GMT
        Subject: C=US, ST=OH, L=Cincinnati, O=University of Cincinnati ., OU=Dept. Elec. Comp. . Eng. Comp. Sci., CN=client14/emailAddress=franco@gauss.ececs.uc.edu
        Subject Public Key Info:
            Public Key Algorithm: rsaEncryption
                Public-Key: (2048 bit)
                Modulus:
                    00:b0:6d:9f:9c:c2:e5:c9:b2:1b:9e:ce:fc:c0:78:
                    fe:30:35:cb:af:a6:d4:0b:b1:25:44:91:ef:1d:af:
                    df:0e:73:8f:cc:d2:56:fb:59:e2:2e:5e:d5:6d:d1:
                    b3:79:b8:99:21:40:15:0c:2f:fe:14:85:41:4c:37:
                    89:75:7f:91:09:cd:5f:5e:b2:41:74:70:ba:a4:47:
                    b6:e5:fd:a0:81:82:e8:65:08:2e:73:98:25:35:91:
                    10:88:e1:ce:ff:4d:35:00:0d:09:38:66:17:8f:a1:
                    8a:03:7f:1c:e2:50:10:97:93:74:37:c7:25:c0:3d:
                    c3:9e:a5:0c:f7:7c:73:b0:73:7b:bf:8f:32:6a:a6:
                    6e:95:25:f4:6f:08:3d:fc:c6:a3:fc:9a:8c:82:64:
                    14:72:a5:9c:f0:91:6d:0d:ce:f1:2d:78:70:d2:b1:
                    b6:1b:17:06:55:d7:f6:ad:e4:cf:7b:de:44:58:e3:
                    e4:d2:c8:87:a2:84:9c:d6:18:29:b9:c4:bf:3e:44:
                    74:a9:c4:1c:69:ad:b6:0c:7e:c3:96:70:fc:1b:8c:
                    d2:57:ac:c5:f0:78:a2:52:86:d2:2d:f4:76:ee:11:
                    d1:53:ba:48:47:e5:ff:92:b2:99:1e:bd:bc:66:24:
                    b4:01:f2:06:bd:85:3e:f1:ae:de:61:c9:e4:db:1b:
                    f5:91
                Exponent: 65537 (0x10001)
        X509v3 extensions:
            X509v3 Basic Constraints: 
                CA:FALSE
            X509v3 Subject Key Identifier: 
                28:ED:04:45:CE:96:D5:2F:CD:61:AF:69:BA:44:17:C7:DB:5E:B0:3A
            X509v3 Authority Key Identifier: 
                keyid:9C:0E:D5:A3:16:6F:C8:23:88:D1:12:C9:63:5D:18:D9:C9:FC:5B:E9
                DirName:/C=US/ST=California/L=San Francisco/O=Copyleft Certificate Co/OU=My Organizational Unit/CN=ChangeMe/emailAddress=me@example.net
                serial:A3:08:26:80:D2:47:98:75

            X509v3 Extended Key Usage: 
                TLS Web Client Authentication
            X509v3 Key Usage: 
                Digital Signature
    Signature Algorithm: sha256WithRSAEncryption
         28:0c:16:c4:fa:b9:12:3d:b7:df:ec:5b:80:78:73:ec:8c:bd:
         e2:a3:70:1d:d5:e7:67:22:d5:c4:5d:a9:3f:be:9a:8a:4e:01:
         c8:95:2e:66:60:74:c4:92:13:fd:72:98:19:70:6f:d6:96:bf:
         eb:b5:a0:c3:48:bf:ac:19:cc:19:d4:5d:96:ca:be:d8:17:6b:
         9b:56:db:7e:a8:ad:1d:3a:4b:96:e9:cf:07:fb:9b:d3:5e:f8:
         e1:8d:df:c8:c8:e6:e2:79:9c:81:d8:01:2e:0b:91:71:d0:df:
         d1:02:8b:c5:39:d7:90:a7:ba:35:a6:50:e8:55:f1:6a:59:7f:
         ad:09:ab:02:ec:aa:ac:75:50:d6:5e:ff:7f:86:27:2d:be:9f:
         68:83:fe:8d:d8:5a:c9:f3:cd:4f:d6:0c:3f:1f:53:42:da:5f:
         98:d5:27:10:9b:9b:76:c0:38:6a:7e:78:1e:0d:1d:d0:55:af:
         48:ba:c7:32:87:0b:a0:e3:c1:bb:8d:6f:67:cd:7b:a1:83:47:
         d0:4b:3f:62:52:25:a4:2e:33:6d:92:f7:b3:57:3f:e5:ee:61:
         d4:17:d4:68:23:83:8d:61:72:02:6a:6e:1e:f4:89:1d:46:35:
         74:bd:bc:35:ac:3d:69:56:94:76:fe:83:4e:24:b9:24:40:92:
         a5:a6:85:f4
-----BEGIN CERTIFICATE-----
MIIFMzCCBBugAwIBAgIQGT/8+lox8zDTEcJqX7x4yDANBgkqhkiG9w0BAQsFADCB
rzELMAkGA1UEBhMCVVMxEzARBgNVBAgMCkNhbGlmb3JuaWExFjAUBgNVBAcMDVNh
biBGcmFuY2lzY28xIDAeBgNVBAoMF0NvcHlsZWZ0IENlcnRpZmljYXRlIENvMR8w
HQYDVQQLDBZNeSBPcmdhbml6YXRpb25hbCBVbml0MREwDwYDVQQDDAhDaGFuZ2VN
ZTEdMBsGCSqGSIb3DQEJARYObWVAZXhhbXBsZS5uZXQwHhcNMjMxMTExMTg1MDUy
WhcNMjQxMTEwMTg1MDUyWjCBvzELMAkGA1UEBhMCVVMxCzAJBgNVBAgMAk9IMRMw
EQYDVQQHDApDaW5jaW5uYXRpMSMwIQYDVQQKDBpVbml2ZXJzaXR5IG9mIENpbmNp
bm5hdGkgLjEsMCoGA1UECwwjRGVwdC4gRWxlYy4gQ29tcC4gLiBFbmcuIENvbXAu
IFNjaS4xETAPBgNVBAMMCGNsaWVudDE0MSgwJgYJKoZIhvcNAQkBFhlmcmFuY29A
Z2F1c3MuZWNlY3MudWMuZWR1MIIBIjANBgkqhkiG9w0BAQEFAAOCAQ8AMIIBCgKC
AQEAsG2fnMLlybIbns78wHj+MDXLr6bUC7ElRJHvHa/fDnOPzNJW+1niLl7VbdGz
ebiZIUAVDC/+FIVBTDeJdX+RCc1fXrJBdHC6pEe25f2ggYLoZQguc5glNZEQiOHO
/001AA0JOGYXj6GKA38c4lAQl5N0N8clwD3DnqUM93xzsHN7v48yaqZulSX0bwg9
/Maj/JqMgmQUcqWc8JFtDc7xLXhw0rG2GxcGVdf2reTPe95EWOPk0siHooSc1hgp
ucS/PkR0qcQcaa22DH7DlnD8G4zSV6zF8HiiUobSLfR27hHRU7pIR+X/krKZHr28
ZiS0AfIGvYU+8a7eYcnk2xv1kQIDAQABo4IBNzCCATMwCQYDVR0TBAIwADAdBgNV
HQ4EFgQUKO0ERc6W1S/NYa9pukQXx9tesDowgeQGA1UdIwSB3DCB2YAUnA7VoxZv
yCOI0RLJY10Y2cn8W+mhgbWkgbIwga8xCzAJBgNVBAYTAlVTMRMwEQYDVQQIDApD
YWxpZm9ybmlhMRYwFAYDVQQHDA1TYW4gRnJhbmNpc2NvMSAwHgYDVQQKDBdDb3B5
bGVmdCBDZXJ0aWZpY2F0ZSBDbzEfMB0GA1UECwwWTXkgT3JnYW5pemF0aW9uYWwg
VW5pdDERMA8GA1UEAwwIQ2hhbmdlTWUxHTAbBgkqhkiG9w0BCQEWDm1lQGV4YW1w
bGUubmV0ggkAowgmgNJHmHUwEwYDVR0lBAwwCgYIKwYBBQUHAwIwCwYDVR0PBAQD
AgeAMA0GCSqGSIb3DQEBCwUAA4IBAQAoDBbE+rkSPbff7FuAeHPsjL3io3Ad1edn
ItXEXak/vpqKTgHIlS5mYHTEkhP9cpgZcG/Wlr/rtaDDSL+sGcwZ1F2Wyr7YF2ub
Vtt+qK0dOkuW6c8H+5vTXvjhjd/IyObieZyB2AEuC5Fx0N/RAovFOdeQp7o1plDo
VfFqWX+tCasC7KqsdVDWXv9/hictvp9og/6N2FrJ881P1gw/H1NC2l+Y1ScQm5t2
wDhqfngeDR3QVa9Iuscyhwug48G7jW9nzXuhg0fQSz9iUiWkLjNtkvezVz/l7mHU
F9RoI4ONYXICam4e9IkdRjV0vbw1rD1pVpR2/oNOJLkkQJKlpoX0
-----END CERTIFICATE-----
