Certificate:
    Data:
        Version: 3 (0x2)
        Serial Number:
            1a:4b:0a:40:44:39:ec:0b:ac:78:6a:6b:15:09:d3:15
    Signature Algorithm: sha256WithRSAEncryption
        Issuer: C=US, ST=California, L=San Francisco, O=Copyleft Certificate Co, OU=My Organizational Unit, CN=ChangeMe/emailAddress=me@example.net
        Validity
            Not Before: Nov 12 11:47:19 2023 GMT
            Not After : Nov 11 11:47:19 2024 GMT
        Subject: C=US, ST=OH, L=Cincinnati, O=University of Cincinnati, OU=Dept. Elec. Comp. Eng. Comp. Sci., CN=client16/emailAddress=franco@gauss.ececs.uc.edu
        Subject Public Key Info:
            Public Key Algorithm: rsaEncryption
                Public-Key: (2048 bit)
                Modulus:
                    00:ce:35:c8:8b:91:01:3d:52:19:4e:65:99:83:08:
                    69:6d:5d:93:4b:a6:9a:27:e1:7f:6a:f6:0e:d1:5a:
                    b6:97:99:bc:bb:7f:55:82:3e:bc:ef:75:f3:47:32:
                    17:cb:94:26:7e:9e:b8:e4:1e:62:e5:be:24:88:61:
                    84:cc:88:06:37:73:25:86:28:2c:c3:d6:8d:8a:b6:
                    51:0d:4d:b3:47:d4:62:d9:bb:16:4b:94:62:72:6b:
                    c4:e6:66:99:65:c3:5f:76:0f:51:e8:4b:75:7e:d1:
                    ab:be:51:65:85:2e:19:78:16:f5:f9:c7:89:02:3d:
                    82:18:88:d3:75:51:38:21:1f:62:c8:88:46:37:18:
                    01:4a:81:63:70:60:ca:09:d4:e6:e8:7c:8a:11:b4:
                    a6:14:2d:8a:dd:14:c0:70:13:2d:01:ca:3e:de:bc:
                    e0:4f:9f:53:a7:37:df:0f:e2:c1:b7:fe:36:38:d2:
                    bd:c5:4a:a3:d4:81:f1:7c:1f:d6:3a:b9:0c:f9:6d:
                    ba:2b:51:15:ee:94:30:3e:47:54:2c:4d:05:21:8a:
                    67:88:4b:c2:4b:03:c9:3c:ef:40:d9:a0:68:5b:a6:
                    4c:88:f6:e0:a8:28:85:9c:58:d6:ea:ec:e9:60:e4:
                    d7:b2:16:2f:2d:18:04:32:fc:ad:56:04:6e:8f:80:
                    39:29
                Exponent: 65537 (0x10001)
        X509v3 extensions:
            X509v3 Basic Constraints: 
                CA:FALSE
            X509v3 Subject Key Identifier: 
                92:3E:0E:72:86:F3:EF:D3:81:D3:5C:11:3A:7B:1D:A2:8B:5F:F2:9F
            X509v3 Authority Key Identifier: 
                keyid:C4:46:F2:96:38:56:02:B8:9D:09:04:52:25:91:35:97:6A:D7:B1:F0
                DirName:/C=US/ST=California/L=San Francisco/O=Copyleft Certificate Co/OU=My Organizational Unit/CN=ChangeMe/emailAddress=me@example.net
                serial:D1:5A:15:1C:F0:20:95:62

            X509v3 Extended Key Usage: 
                TLS Web Client Authentication
            X509v3 Key Usage: 
                Digital Signature
    Signature Algorithm: sha256WithRSAEncryption
         3a:b5:1c:32:09:c7:8e:87:94:69:10:7a:0c:c1:ea:be:56:7b:
         ff:2b:9a:c4:8d:19:ab:1b:eb:50:bb:29:e5:0d:c3:20:33:d4:
         06:db:ef:38:b8:a1:7f:f2:0a:d6:f7:f5:2f:16:8c:cb:4a:82:
         75:b6:f0:96:80:f9:05:81:44:28:e9:89:f5:1d:e7:61:42:77:
         c1:9a:88:d2:44:bf:be:ff:78:f7:6e:07:f3:32:68:57:82:7e:
         e2:ca:f8:f6:d0:9e:c6:f5:b1:fc:c6:ec:c3:4d:57:5c:67:12:
         5a:5b:45:f8:ac:71:c4:c4:cd:1a:d3:ed:22:ef:67:17:73:09:
         2e:61:6f:a6:44:da:8b:0e:89:7d:f6:e0:09:6d:61:99:dd:9f:
         a0:b9:e5:dc:e2:fc:d1:c6:6e:1e:9c:51:e8:b5:29:cd:89:de:
         fa:94:6d:42:10:d0:46:88:6c:b6:07:38:7b:14:d6:b3:ad:d9:
         4c:c9:f9:29:d7:69:3d:a9:33:3d:28:5b:6d:8a:5d:f3:f6:e7:
         b0:80:bc:fe:55:00:59:fe:f5:d9:6e:f4:b9:7f:c2:df:5c:7d:
         85:92:0d:f6:23:2f:8c:f3:6a:04:6d:72:4b:33:f9:68:b0:c8:
         6d:95:bb:6d:c7:02:2e:62:a8:a2:c6:28:58:d7:e6:c2:ea:5d:
         11:90:ad:77
-----BEGIN CERTIFICATE-----
MIIFLzCCBBegAwIBAgIQGksKQEQ57AuseGprFQnTFTANBgkqhkiG9w0BAQsFADCB
rzELMAkGA1UEBhMCVVMxEzARBgNVBAgMCkNhbGlmb3JuaWExFjAUBgNVBAcMDVNh
biBGcmFuY2lzY28xIDAeBgNVBAoMF0NvcHlsZWZ0IENlcnRpZmljYXRlIENvMR8w
HQYDVQQLDBZNeSBPcmdhbml6YXRpb25hbCBVbml0MREwDwYDVQQDDAhDaGFuZ2VN
ZTEdMBsGCSqGSIb3DQEJARYObWVAZXhhbXBsZS5uZXQwHhcNMjMxMTEyMTE0NzE5
WhcNMjQxMTExMTE0NzE5WjCBuzELMAkGA1UEBhMCVVMxCzAJBgNVBAgMAk9IMRMw
EQYDVQQHDApDaW5jaW5uYXRpMSEwHwYDVQQKDBhVbml2ZXJzaXR5IG9mIENpbmNp
bm5hdGkxKjAoBgNVBAsMIURlcHQuIEVsZWMuIENvbXAuIEVuZy4gQ29tcC4gU2Np
LjERMA8GA1UEAwwIY2xpZW50MTYxKDAmBgkqhkiG9w0BCQEWGWZyYW5jb0BnYXVz
cy5lY2Vjcy51Yy5lZHUwggEiMA0GCSqGSIb3DQEBAQUAA4IBDwAwggEKAoIBAQDO
NciLkQE9UhlOZZmDCGltXZNLppon4X9q9g7RWraXmby7f1WCPrzvdfNHMhfLlCZ+
nrjkHmLlviSIYYTMiAY3cyWGKCzD1o2KtlENTbNH1GLZuxZLlGJya8TmZpllw192
D1HoS3V+0au+UWWFLhl4FvX5x4kCPYIYiNN1UTghH2LIiEY3GAFKgWNwYMoJ1Obo
fIoRtKYULYrdFMBwEy0Byj7evOBPn1OnN98P4sG3/jY40r3FSqPUgfF8H9Y6uQz5
bborURXulDA+R1QsTQUhimeIS8JLA8k870DZoGhbpkyI9uCoKIWcWNbq7Olg5Ney
Fi8tGAQy/K1WBG6PgDkpAgMBAAGjggE3MIIBMzAJBgNVHRMEAjAAMB0GA1UdDgQW
BBSSPg5yhvPv04HTXBE6ex2ii1/ynzCB5AYDVR0jBIHcMIHZgBTERvKWOFYCuJ0J
BFIlkTWXatex8KGBtaSBsjCBrzELMAkGA1UEBhMCVVMxEzARBgNVBAgMCkNhbGlm
b3JuaWExFjAUBgNVBAcMDVNhbiBGcmFuY2lzY28xIDAeBgNVBAoMF0NvcHlsZWZ0
IENlcnRpZmljYXRlIENvMR8wHQYDVQQLDBZNeSBPcmdhbml6YXRpb25hbCBVbml0
MREwDwYDVQQDDAhDaGFuZ2VNZTEdMBsGCSqGSIb3DQEJARYObWVAZXhhbXBsZS5u
ZXSCCQDRWhUc8CCVYjATBgNVHSUEDDAKBggrBgEFBQcDAjALBgNVHQ8EBAMCB4Aw
DQYJKoZIhvcNAQELBQADggEBADq1HDIJx46HlGkQegzB6r5We/8rmsSNGasb61C7
KeUNwyAz1Abb7zi4oX/yCtb39S8WjMtKgnW28JaA+QWBRCjpifUd52FCd8GaiNJE
v77/ePduB/MyaFeCfuLK+PbQnsb1sfzG7MNNV1xnElpbRfisccTEzRrT7SLvZxdz
CS5hb6ZE2osOiX324AltYZndn6C55dzi/NHGbh6cUei1Kc2J3vqUbUIQ0EaIbLYH
OHsU1rOt2UzJ+SnXaT2pMz0oW22KXfP257CAvP5VAFn+9dlu9Ll/wt9cfYWSDfYj
L4zzagRtcksz+WiwyG2Vu23HAi5iqKLGKFjX5sLqXRGQrXc=
-----END CERTIFICATE-----
