Certificate:
    Data:
        Version: 3 (0x2)
        Serial Number:
            1a:67:13:fd:6e:72:1d:c6:ab:3b:91:ec:c4:ee:ed:1b
    Signature Algorithm: sha256WithRSAEncryption
        Issuer: C=US, ST=California, L=San Francisco, O=Copyleft Certificate Co, OU=My Organizational Unit, CN=ChangeMe/emailAddress=me@example.net
        Validity
            Not Before: Jan 23 18:29:20 2021 GMT
            Not After : Jan 23 18:29:20 2022 GMT
        Subject: C=US, ST=OH, L=Cincinnati, O=University of Cincinnati, OU=Dept. Electrical Eng. and Computer Sci., CN=client89/emailAddress=franco@gauss.ececs.uc.edu
        Subject Public Key Info:
            Public Key Algorithm: rsaEncryption
                Public-Key: (2048 bit)
                Modulus:
                    00:c8:36:d7:24:53:d8:b1:29:57:bc:2d:f2:5d:55:
                    ad:52:34:8d:71:34:01:7a:3d:d1:c2:00:5b:f4:be:
                    80:9c:6d:25:b6:03:a9:d6:ed:b6:fa:7f:83:04:0a:
                    03:5c:39:66:df:cf:e8:f5:1a:03:6c:54:7b:86:97:
                    3f:c8:22:0f:6f:50:b3:4c:80:8f:77:9d:c3:88:f6:
                    98:c6:8a:ab:ea:d8:83:52:bd:d0:0a:23:e0:5f:41:
                    0c:f5:33:7d:26:82:e5:c6:28:f4:fa:29:d2:ae:d5:
                    d3:51:3f:99:05:66:66:df:43:2b:a3:cc:b8:8e:14:
                    a1:62:1d:9c:b8:8c:56:70:aa:e7:a7:66:2d:54:65:
                    8c:26:63:28:93:b2:48:c9:18:85:35:57:5f:f8:2a:
                    07:35:e4:34:3a:5f:89:ab:e2:ff:8e:ce:15:e5:5e:
                    e2:6e:e4:af:80:da:06:90:b2:37:5e:7b:50:30:03:
                    3b:51:fe:de:08:61:ea:5e:e6:b1:a4:d5:9a:b9:fa:
                    dd:d4:f6:6d:0c:4f:31:82:8a:ac:dd:c6:1a:56:05:
                    e9:87:b1:7c:6c:47:73:57:85:a2:50:6f:de:84:6c:
                    4b:6a:ea:45:63:14:d2:3c:ad:d8:a4:fe:2a:52:1d:
                    74:c9:27:67:ec:e3:0a:66:9e:8d:9b:64:45:9d:f0:
                    46:69
                Exponent: 65537 (0x10001)
        X509v3 extensions:
            X509v3 Basic Constraints: 
                CA:FALSE
            X509v3 Subject Key Identifier: 
                A4:0C:C8:BD:54:D2:5E:91:02:28:2F:CD:F5:76:CB:C2:DA:7C:E3:3C
            X509v3 Authority Key Identifier: 
                keyid:EF:DC:B6:3D:4B:FD:A7:87:05:C5:22:3D:8B:DC:BF:99:2A:EE:E4:DB
                DirName:/C=US/ST=California/L=San Francisco/O=Copyleft Certificate Co/OU=My Organizational Unit/CN=ChangeMe/emailAddress=me@example.net
                serial:87:1E:1D:DC:6B:8C:66:88

            X509v3 Extended Key Usage: 
                TLS Web Client Authentication
            X509v3 Key Usage: 
                Digital Signature
    Signature Algorithm: sha256WithRSAEncryption
         7b:f3:3d:f4:31:bc:88:4a:0a:67:30:4c:b3:68:c7:b9:b6:a6:
         1d:18:7b:48:ee:70:dd:2a:b0:f3:39:4d:c2:9f:85:70:a7:fc:
         69:7b:fc:b6:79:f9:ad:ca:7d:30:2a:17:90:6c:53:a6:e3:29:
         c1:2a:1e:a9:9e:53:ae:27:34:1d:97:f7:f2:37:05:66:6d:f5:
         c1:6d:65:b4:f9:3f:50:9a:47:59:36:8a:ff:8c:d3:80:58:23:
         95:9d:dc:5c:b2:03:90:62:46:0e:5d:40:3f:6e:93:9d:0c:da:
         16:cb:2b:a1:a6:db:eb:55:a5:57:b1:ae:dd:cd:d4:8f:e5:ce:
         8a:8e:2c:f4:46:0e:a5:27:36:cc:43:84:12:44:11:c5:05:2d:
         05:bd:de:9d:50:7a:e0:c8:d5:a2:da:d0:e9:0c:5d:57:62:91:
         8f:27:5e:05:42:31:61:c4:05:ae:3e:b2:18:4f:b8:bb:d1:62:
         40:85:d6:a6:0f:b8:2e:07:fc:da:c4:ea:fc:c6:55:14:2c:b9:
         03:74:3b:d4:0d:3b:64:40:91:87:70:0a:95:31:4c:1d:78:3d:
         f2:eb:a0:88:4f:c3:c6:92:c1:29:07:e3:1e:4b:e7:cf:f3:6b:
         1e:4a:66:19:e6:21:0c:3d:d1:71:24:59:66:47:24:6b:1f:a7:
         ff:28:b9:aa
-----BEGIN CERTIFICATE-----
MIIFNTCCBB2gAwIBAgIQGmcT/W5yHcarO5HsxO7tGzANBgkqhkiG9w0BAQsFADCB
rzELMAkGA1UEBhMCVVMxEzARBgNVBAgMCkNhbGlmb3JuaWExFjAUBgNVBAcMDVNh
biBGcmFuY2lzY28xIDAeBgNVBAoMF0NvcHlsZWZ0IENlcnRpZmljYXRlIENvMR8w
HQYDVQQLDBZNeSBPcmdhbml6YXRpb25hbCBVbml0MREwDwYDVQQDDAhDaGFuZ2VN
ZTEdMBsGCSqGSIb3DQEJARYObWVAZXhhbXBsZS5uZXQwHhcNMjEwMTIzMTgyOTIw
WhcNMjIwMTIzMTgyOTIwWjCBwTELMAkGA1UEBhMCVVMxCzAJBgNVBAgMAk9IMRMw
EQYDVQQHDApDaW5jaW5uYXRpMSEwHwYDVQQKDBhVbml2ZXJzaXR5IG9mIENpbmNp
bm5hdGkxMDAuBgNVBAsMJ0RlcHQuIEVsZWN0cmljYWwgRW5nLiBhbmQgQ29tcHV0
ZXIgU2NpLjERMA8GA1UEAwwIY2xpZW50ODkxKDAmBgkqhkiG9w0BCQEWGWZyYW5j
b0BnYXVzcy5lY2Vjcy51Yy5lZHUwggEiMA0GCSqGSIb3DQEBAQUAA4IBDwAwggEK
AoIBAQDINtckU9ixKVe8LfJdVa1SNI1xNAF6PdHCAFv0voCcbSW2A6nW7bb6f4ME
CgNcOWbfz+j1GgNsVHuGlz/IIg9vULNMgI93ncOI9pjGiqvq2INSvdAKI+BfQQz1
M30mguXGKPT6KdKu1dNRP5kFZmbfQyujzLiOFKFiHZy4jFZwquenZi1UZYwmYyiT
skjJGIU1V1/4Kgc15DQ6X4mr4v+OzhXlXuJu5K+A2gaQsjdee1AwAztR/t4IYepe
5rGk1Zq5+t3U9m0MTzGCiqzdxhpWBemHsXxsR3NXhaJQb96EbEtq6kVjFNI8rdik
/ipSHXTJJ2fs4wpmno2bZEWd8EZpAgMBAAGjggE3MIIBMzAJBgNVHRMEAjAAMB0G
A1UdDgQWBBSkDMi9VNJekQIoL831dsvC2nzjPDCB5AYDVR0jBIHcMIHZgBTv3LY9
S/2nhwXFIj2L3L+ZKu7k26GBtaSBsjCBrzELMAkGA1UEBhMCVVMxEzARBgNVBAgM
CkNhbGlmb3JuaWExFjAUBgNVBAcMDVNhbiBGcmFuY2lzY28xIDAeBgNVBAoMF0Nv
cHlsZWZ0IENlcnRpZmljYXRlIENvMR8wHQYDVQQLDBZNeSBPcmdhbml6YXRpb25h
bCBVbml0MREwDwYDVQQDDAhDaGFuZ2VNZTEdMBsGCSqGSIb3DQEJARYObWVAZXhh
bXBsZS5uZXSCCQCHHh3ca4xmiDATBgNVHSUEDDAKBggrBgEFBQcDAjALBgNVHQ8E
BAMCB4AwDQYJKoZIhvcNAQELBQADggEBAHvzPfQxvIhKCmcwTLNox7m2ph0Ye0ju
cN0qsPM5TcKfhXCn/Gl7/LZ5+a3KfTAqF5BsU6bjKcEqHqmeU64nNB2X9/I3BWZt
9cFtZbT5P1CaR1k2iv+M04BYI5Wd3FyyA5BiRg5dQD9uk50M2hbLK6Gm2+tVpVex
rt3N1I/lzoqOLPRGDqUnNsxDhBJEEcUFLQW93p1QeuDI1aLa0OkMXVdikY8nXgVC
MWHEBa4+shhPuLvRYkCF1qYPuC4H/NrE6vzGVRQsuQN0O9QNO2RAkYdwCpUxTB14
PfLroIhPw8aSwSkH4x5L58/zax5KZhnmIQw90XEkWWZHJGsfp/8ouao=
-----END CERTIFICATE-----
