Certificate:
    Data:
        Version: 3 (0x2)
        Serial Number:
            1b:c5:5f:bb:79:e9:62:6c:a8:f9:32:47:cf:18:ca:a7
    Signature Algorithm: sha256WithRSAEncryption
        Issuer: C=US, ST=California, L=San Francisco, O=Copyleft Certificate Co, OU=My Organizational Unit, CN=ChangeMe/emailAddress=me@example.net
        Validity
            Not Before: Jan 23 18:29:56 2021 GMT
            Not After : Jan 23 18:29:56 2022 GMT
        Subject: C=US, ST=OH, L=Cincinnati, O=University of Cincinnati, OU=Dept. Electrical Eng. and Computer Sci., CN=client113/emailAddress=franco@gauss.ececs.uc.edu
        Subject Public Key Info:
            Public Key Algorithm: rsaEncryption
                Public-Key: (2048 bit)
                Modulus:
                    00:d1:ff:dc:52:61:d0:f5:e9:c4:96:39:23:14:83:
                    03:dc:60:6a:e4:93:93:8d:39:0b:c3:42:ed:66:66:
                    4a:91:4a:35:5e:bd:53:91:44:a2:cf:5a:e8:14:a9:
                    be:bf:31:12:82:f4:66:f0:60:2b:18:d8:c3:80:82:
                    1f:a7:99:72:0b:45:d7:47:00:7a:ad:91:6d:2e:5e:
                    d0:fb:d5:e6:73:59:cb:3d:78:95:6d:ba:01:c1:09:
                    a5:c7:45:09:76:c2:63:0f:99:fe:52:f9:c4:9d:7e:
                    34:28:3b:b4:7c:c8:88:ef:bc:21:13:cf:bf:e5:d2:
                    88:e6:84:39:d4:97:f4:50:89:4c:14:88:61:ec:9d:
                    60:5f:de:4b:ec:7e:91:8a:32:3e:4a:41:d2:a2:03:
                    c3:cd:58:d8:19:91:76:63:a9:93:ef:27:e7:61:4d:
                    13:ac:0d:b0:c9:82:98:00:c6:92:0f:e1:90:6d:a8:
                    5d:5f:11:47:82:50:f2:84:47:7a:07:bd:74:46:2a:
                    55:17:eb:e2:1d:b4:36:91:3c:9b:d8:8c:4e:95:4e:
                    be:31:69:84:27:80:cd:b4:db:30:6b:3b:41:e9:72:
                    7d:30:4e:9d:31:24:c6:6b:8f:a7:c5:ee:84:43:bb:
                    05:34:9e:ee:72:b0:a4:1a:a7:ac:b1:06:a7:b2:fd:
                    f5:ad
                Exponent: 65537 (0x10001)
        X509v3 extensions:
            X509v3 Basic Constraints: 
                CA:FALSE
            X509v3 Subject Key Identifier: 
                D9:58:68:25:0E:40:32:AA:6D:0F:09:B5:5C:4D:91:28:E9:67:E2:50
            X509v3 Authority Key Identifier: 
                keyid:EF:DC:B6:3D:4B:FD:A7:87:05:C5:22:3D:8B:DC:BF:99:2A:EE:E4:DB
                DirName:/C=US/ST=California/L=San Francisco/O=Copyleft Certificate Co/OU=My Organizational Unit/CN=ChangeMe/emailAddress=me@example.net
                serial:87:1E:1D:DC:6B:8C:66:88

            X509v3 Extended Key Usage: 
                TLS Web Client Authentication
            X509v3 Key Usage: 
                Digital Signature
    Signature Algorithm: sha256WithRSAEncryption
         df:d8:2c:fd:70:af:78:49:3e:b6:41:3b:9f:74:bd:90:49:fa:
         e1:f8:bd:86:89:22:28:07:6a:fc:18:8f:9e:d1:4f:b5:60:3b:
         60:5c:6a:48:c3:d1:5e:8c:d4:88:9f:51:5f:88:31:59:54:0e:
         c9:8a:83:8b:1c:11:00:5a:eb:34:05:93:8c:d8:47:e6:ad:f3:
         c8:93:59:fd:83:4e:73:c5:c6:5d:e1:b4:4d:83:cf:7e:70:53:
         17:f2:8f:54:42:36:f2:9d:01:ed:38:57:d8:70:6e:dc:e0:a9:
         8a:d2:e4:b3:41:4e:c4:84:46:82:e2:1d:ec:a8:2c:38:00:83:
         24:d0:63:01:97:4b:a7:b7:c9:4d:a3:53:f8:06:a9:49:61:17:
         70:0c:5f:78:b5:7c:48:61:94:ec:b9:e4:b4:a9:47:9d:e8:bd:
         ad:1f:3b:80:7f:7b:27:f7:20:00:88:de:6b:ec:65:57:94:a8:
         45:7b:a8:90:c6:89:95:5c:9b:d0:02:64:dd:65:43:9f:10:98:
         f1:69:3b:db:29:72:41:9c:8b:e2:fb:b2:11:7e:51:03:a6:d2:
         b7:e3:93:f1:59:94:5d:2f:9a:8f:b8:6d:ab:99:53:9e:f4:0f:
         ec:b5:34:f5:35:b1:fd:2f:d3:4e:08:ab:88:b2:90:f0:81:92:
         96:f9:fa:da
-----BEGIN CERTIFICATE-----
MIIFNjCCBB6gAwIBAgIQG8Vfu3npYmyo+TJHzxjKpzANBgkqhkiG9w0BAQsFADCB
rzELMAkGA1UEBhMCVVMxEzARBgNVBAgMCkNhbGlmb3JuaWExFjAUBgNVBAcMDVNh
biBGcmFuY2lzY28xIDAeBgNVBAoMF0NvcHlsZWZ0IENlcnRpZmljYXRlIENvMR8w
HQYDVQQLDBZNeSBPcmdhbml6YXRpb25hbCBVbml0MREwDwYDVQQDDAhDaGFuZ2VN
ZTEdMBsGCSqGSIb3DQEJARYObWVAZXhhbXBsZS5uZXQwHhcNMjEwMTIzMTgyOTU2
WhcNMjIwMTIzMTgyOTU2WjCBwjELMAkGA1UEBhMCVVMxCzAJBgNVBAgMAk9IMRMw
EQYDVQQHDApDaW5jaW5uYXRpMSEwHwYDVQQKDBhVbml2ZXJzaXR5IG9mIENpbmNp
bm5hdGkxMDAuBgNVBAsMJ0RlcHQuIEVsZWN0cmljYWwgRW5nLiBhbmQgQ29tcHV0
ZXIgU2NpLjESMBAGA1UEAwwJY2xpZW50MTEzMSgwJgYJKoZIhvcNAQkBFhlmcmFu
Y29AZ2F1c3MuZWNlY3MudWMuZWR1MIIBIjANBgkqhkiG9w0BAQEFAAOCAQ8AMIIB
CgKCAQEA0f/cUmHQ9enEljkjFIMD3GBq5JOTjTkLw0LtZmZKkUo1Xr1TkUSiz1ro
FKm+vzESgvRm8GArGNjDgIIfp5lyC0XXRwB6rZFtLl7Q+9Xmc1nLPXiVbboBwQml
x0UJdsJjD5n+UvnEnX40KDu0fMiI77whE8+/5dKI5oQ51Jf0UIlMFIhh7J1gX95L
7H6RijI+SkHSogPDzVjYGZF2Y6mT7yfnYU0TrA2wyYKYAMaSD+GQbahdXxFHglDy
hEd6B710RipVF+viHbQ2kTyb2IxOlU6+MWmEJ4DNtNswaztB6XJ9ME6dMSTGa4+n
xe6EQ7sFNJ7ucrCkGqessQansv31rQIDAQABo4IBNzCCATMwCQYDVR0TBAIwADAd
BgNVHQ4EFgQU2VhoJQ5AMqptDwm1XE2RKOln4lAwgeQGA1UdIwSB3DCB2YAU79y2
PUv9p4cFxSI9i9y/mSru5NuhgbWkgbIwga8xCzAJBgNVBAYTAlVTMRMwEQYDVQQI
DApDYWxpZm9ybmlhMRYwFAYDVQQHDA1TYW4gRnJhbmNpc2NvMSAwHgYDVQQKDBdD
b3B5bGVmdCBDZXJ0aWZpY2F0ZSBDbzEfMB0GA1UECwwWTXkgT3JnYW5pemF0aW9u
YWwgVW5pdDERMA8GA1UEAwwIQ2hhbmdlTWUxHTAbBgkqhkiG9w0BCQEWDm1lQGV4
YW1wbGUubmV0ggkAhx4d3GuMZogwEwYDVR0lBAwwCgYIKwYBBQUHAwIwCwYDVR0P
BAQDAgeAMA0GCSqGSIb3DQEBCwUAA4IBAQDf2Cz9cK94ST62QTufdL2QSfrh+L2G
iSIoB2r8GI+e0U+1YDtgXGpIw9FejNSIn1FfiDFZVA7JioOLHBEAWus0BZOM2Efm
rfPIk1n9g05zxcZd4bRNg89+cFMX8o9UQjbynQHtOFfYcG7c4KmK0uSzQU7EhEaC
4h3sqCw4AIMk0GMBl0unt8lNo1P4BqlJYRdwDF94tXxIYZTsueS0qUed6L2tHzuA
f3sn9yAAiN5r7GVXlKhFe6iQxomVXJvQAmTdZUOfEJjxaTvbKXJBnIvi+7IRflED
ptK345PxWZRdL5qPuG2rmVOe9A/stTT1NbH9L9NOCKuIspDwgZKW+fra
-----END CERTIFICATE-----
