Certificate:
    Data:
        Version: 3 (0x2)
        Serial Number:
            1e:48:aa:b0:dc:1b:fd:97:22:7a:96:b7:d0:48:2a:d0
    Signature Algorithm: sha256WithRSAEncryption
        Issuer: C=US, ST=California, L=San Francisco, O=Copyleft Certificate Co, OU=My Organizational Unit, CN=ChangeMe/emailAddress=me@example.net
        Validity
            Not Before: Nov 11 01:59:43 2023 GMT
            Not After : Nov 10 01:59:43 2024 GMT
        Subject: C=US, ST=OH, L=Cincinnati, O=University of Cincinnati, OU=Dept. Elec. Comp. Eng. Comp. Sci., CN=client25/emailAddress=franco@gauss.ececs.uc.edu
        Subject Public Key Info:
            Public Key Algorithm: rsaEncryption
                Public-Key: (2048 bit)
                Modulus:
                    00:ba:ac:6a:d6:82:77:90:82:c4:2b:de:bb:c8:3f:
                    55:a2:94:39:c8:57:69:39:fa:fc:39:cc:55:cc:c8:
                    71:e2:13:f3:83:d4:65:5e:ad:e2:9b:23:18:33:cc:
                    2a:e6:fb:75:0d:26:68:1f:ca:5d:41:c7:57:69:87:
                    e2:c2:1a:b3:ff:26:28:ed:ea:b0:ae:15:3e:2d:39:
                    8b:03:88:a0:f6:0f:f4:ed:09:57:cd:1d:95:07:73:
                    62:3e:c2:4a:9c:a7:1a:1a:9e:6d:2c:32:43:c1:d5:
                    32:1c:e5:a6:bc:e5:71:3b:c4:de:d9:b4:2b:5a:74:
                    73:fc:49:63:b5:16:5d:46:94:a6:79:f6:2d:f1:78:
                    ac:4f:5d:96:f2:6c:fa:53:b1:8d:2c:fa:d1:ee:3d:
                    20:0f:b2:82:29:6e:48:2d:5b:d1:8f:85:63:d1:5a:
                    95:9a:c2:af:e2:0c:06:b9:53:64:06:3a:7d:1a:e3:
                    1b:28:e6:51:b7:16:88:4f:55:8a:d3:8d:47:42:f5:
                    13:c8:47:44:4d:4d:34:8a:d2:82:02:d0:1c:23:20:
                    05:95:f0:0f:75:5b:ec:2f:b1:5a:fd:68:96:2e:27:
                    24:22:e9:c7:ec:7a:73:c8:62:59:38:4e:57:72:d4:
                    7c:dd:95:2d:8a:92:3e:74:43:14:10:89:ad:fe:aa:
                    24:9b
                Exponent: 65537 (0x10001)
        X509v3 extensions:
            X509v3 Basic Constraints: 
                CA:FALSE
            X509v3 Subject Key Identifier: 
                61:01:08:11:EB:6E:BF:96:C3:8D:67:59:BD:DB:12:24:19:37:2A:C4
            X509v3 Authority Key Identifier: 
                keyid:7B:0F:93:16:64:9F:71:41:D3:1B:FB:ED:6A:70:9B:CA:2E:70:F0:4B
                DirName:/C=US/ST=California/L=San Francisco/O=Copyleft Certificate Co/OU=My Organizational Unit/CN=ChangeMe/emailAddress=me@example.net
                serial:B9:F2:4E:2C:79:B3:D4:6C

            X509v3 Extended Key Usage: 
                TLS Web Client Authentication
            X509v3 Key Usage: 
                Digital Signature
    Signature Algorithm: sha256WithRSAEncryption
         6e:79:32:b0:b6:db:73:3e:b0:67:f7:c4:3a:c5:ed:e9:d0:6c:
         8e:e5:c3:ae:1d:69:1d:08:da:e6:c9:a1:4c:4c:ca:6c:e0:a1:
         77:67:da:ca:39:73:1f:0b:1a:eb:31:bc:63:9c:10:b8:ef:76:
         e8:96:95:c0:6a:8a:f4:9f:35:a7:2c:4a:f8:0e:1a:59:33:dd:
         1d:30:6e:ef:ce:9b:4f:6b:50:d0:c2:a5:ff:0d:04:db:1c:55:
         86:5b:00:45:25:b7:d2:5c:8b:4a:44:72:46:f6:43:2a:22:82:
         df:51:b9:a7:eb:a6:cf:0e:3d:07:f3:51:ed:75:a2:5f:63:1b:
         50:b4:0d:d3:6d:92:3c:02:17:af:31:c8:f0:64:5c:f1:c9:d9:
         17:2c:f1:d6:41:19:e1:51:73:4f:c8:19:f7:49:7a:93:f8:a6:
         0b:16:2a:9b:87:94:35:c0:62:ff:6a:0c:c4:a7:68:91:d5:32:
         75:c3:55:6f:e2:b8:1e:db:06:4c:94:fe:61:dd:35:19:6e:66:
         ae:db:0b:f8:5e:1e:68:ed:65:64:e8:f4:d6:80:59:f2:d7:1a:
         23:98:31:1e:fb:4e:d6:cd:60:2d:f3:b0:71:61:0f:14:85:f9:
         54:ad:03:a2:0a:23:f0:cf:28:f5:a0:6a:83:d8:54:0f:6b:85:
         58:7f:00:db
-----BEGIN CERTIFICATE-----
MIIFLzCCBBegAwIBAgIQHkiqsNwb/Zciepa30Egq0DANBgkqhkiG9w0BAQsFADCB
rzELMAkGA1UEBhMCVVMxEzARBgNVBAgMCkNhbGlmb3JuaWExFjAUBgNVBAcMDVNh
biBGcmFuY2lzY28xIDAeBgNVBAoMF0NvcHlsZWZ0IENlcnRpZmljYXRlIENvMR8w
HQYDVQQLDBZNeSBPcmdhbml6YXRpb25hbCBVbml0MREwDwYDVQQDDAhDaGFuZ2VN
ZTEdMBsGCSqGSIb3DQEJARYObWVAZXhhbXBsZS5uZXQwHhcNMjMxMTExMDE1OTQz
WhcNMjQxMTEwMDE1OTQzWjCBuzELMAkGA1UEBhMCVVMxCzAJBgNVBAgMAk9IMRMw
EQYDVQQHDApDaW5jaW5uYXRpMSEwHwYDVQQKDBhVbml2ZXJzaXR5IG9mIENpbmNp
bm5hdGkxKjAoBgNVBAsMIURlcHQuIEVsZWMuIENvbXAuIEVuZy4gQ29tcC4gU2Np
LjERMA8GA1UEAwwIY2xpZW50MjUxKDAmBgkqhkiG9w0BCQEWGWZyYW5jb0BnYXVz
cy5lY2Vjcy51Yy5lZHUwggEiMA0GCSqGSIb3DQEBAQUAA4IBDwAwggEKAoIBAQC6
rGrWgneQgsQr3rvIP1WilDnIV2k5+vw5zFXMyHHiE/OD1GVereKbIxgzzCrm+3UN
Jmgfyl1Bx1dph+LCGrP/Jijt6rCuFT4tOYsDiKD2D/TtCVfNHZUHc2I+wkqcpxoa
nm0sMkPB1TIc5aa85XE7xN7ZtCtadHP8SWO1Fl1GlKZ59i3xeKxPXZbybPpTsY0s
+tHuPSAPsoIpbkgtW9GPhWPRWpWawq/iDAa5U2QGOn0a4xso5lG3FohPVYrTjUdC
9RPIR0RNTTSK0oIC0BwjIAWV8A91W+wvsVr9aJYuJyQi6cfsenPIYlk4Tldy1Hzd
lS2Kkj50QxQQia3+qiSbAgMBAAGjggE3MIIBMzAJBgNVHRMEAjAAMB0GA1UdDgQW
BBRhAQgR626/lsONZ1m92xIkGTcqxDCB5AYDVR0jBIHcMIHZgBR7D5MWZJ9xQdMb
++1qcJvKLnDwS6GBtaSBsjCBrzELMAkGA1UEBhMCVVMxEzARBgNVBAgMCkNhbGlm
b3JuaWExFjAUBgNVBAcMDVNhbiBGcmFuY2lzY28xIDAeBgNVBAoMF0NvcHlsZWZ0
IENlcnRpZmljYXRlIENvMR8wHQYDVQQLDBZNeSBPcmdhbml6YXRpb25hbCBVbml0
MREwDwYDVQQDDAhDaGFuZ2VNZTEdMBsGCSqGSIb3DQEJARYObWVAZXhhbXBsZS5u
ZXSCCQC58k4sebPUbDATBgNVHSUEDDAKBggrBgEFBQcDAjALBgNVHQ8EBAMCB4Aw
DQYJKoZIhvcNAQELBQADggEBAG55MrC223M+sGf3xDrF7enQbI7lw64daR0I2ubJ
oUxMymzgoXdn2so5cx8LGusxvGOcELjvduiWlcBqivSfNacsSvgOGlkz3R0wbu/O
m09rUNDCpf8NBNscVYZbAEUlt9Jci0pEckb2Qyoigt9Ruafrps8OPQfzUe11ol9j
G1C0DdNtkjwCF68xyPBkXPHJ2Rcs8dZBGeFRc0/IGfdJepP4pgsWKpuHlDXAYv9q
DMSnaJHVMnXDVW/iuB7bBkyU/mHdNRluZq7bC/heHmjtZWTo9NaAWfLXGiOYMR77
TtbNYC3zsHFhDxSF+VStA6IKI/DPKPWgaoPYVA9rhVh/ANs=
-----END CERTIFICATE-----
