Certificate:
    Data:
        Version: 3 (0x2)
        Serial Number:
            1e:ca:66:79:65:85:96:1a:dc:44:94:80:c8:c6:17:26
    Signature Algorithm: sha256WithRSAEncryption
        Issuer: C=US, ST=California, L=San Francisco, O=Copyleft Certificate Co, OU=My Organizational Unit, CN=ChangeMe/emailAddress=me@example.net
        Validity
            Not Before: Jan 23 18:28:13 2021 GMT
            Not After : Jan 23 18:28:13 2022 GMT
        Subject: C=US, ST=OH, L=Cincinnati, O=University of Cincinnati, OU=Dept. Electrical Eng. and Computer Sci., CN=client40/emailAddress=franco@gauss.ececs.uc.edu
        Subject Public Key Info:
            Public Key Algorithm: rsaEncryption
                Public-Key: (2048 bit)
                Modulus:
                    00:c2:9f:32:38:37:50:2b:34:bd:78:6c:55:0f:02:
                    d1:72:b9:7d:ca:6f:1c:e0:26:cb:de:7e:ba:2d:9b:
                    70:9c:72:ec:41:34:ae:6e:dd:39:9a:d9:9b:a6:e5:
                    4e:b9:8e:bd:6c:dc:d6:8a:66:70:f3:27:df:91:d4:
                    56:54:aa:c6:15:17:8e:98:63:dc:e4:fc:dd:68:ed:
                    83:a0:bd:96:6d:50:10:ff:38:a4:1e:89:4a:ad:3d:
                    de:83:9d:ea:aa:2e:40:6c:06:4b:c6:e5:ec:77:cc:
                    fe:c9:aa:75:14:98:94:65:52:33:88:e6:1e:41:c2:
                    96:eb:e2:2d:79:c0:66:ed:cb:01:ba:83:97:1b:12:
                    19:fa:7d:b0:72:ab:f6:3f:18:73:a6:94:30:c4:9b:
                    6e:5f:00:28:5e:71:c6:dc:5a:ee:16:cf:77:21:8a:
                    49:71:1c:09:f3:b7:af:c0:67:22:69:c4:de:b4:8e:
                    a4:62:42:e9:85:19:0b:49:18:f7:fb:c7:7c:8f:85:
                    18:7b:18:0e:85:5f:70:af:5d:34:7b:1b:75:0f:b7:
                    54:df:80:ec:94:3f:91:64:f3:6e:34:ee:d8:4e:90:
                    7a:68:b8:80:cb:af:f5:f7:40:bc:8d:5d:90:de:7d:
                    b3:70:84:69:0a:1d:fa:37:56:81:bb:a8:b0:13:55:
                    6f:0d
                Exponent: 65537 (0x10001)
        X509v3 extensions:
            X509v3 Basic Constraints: 
                CA:FALSE
            X509v3 Subject Key Identifier: 
                DE:61:36:83:59:AF:D8:35:82:38:9D:21:EA:F0:72:13:82:22:51:12
            X509v3 Authority Key Identifier: 
                keyid:EF:DC:B6:3D:4B:FD:A7:87:05:C5:22:3D:8B:DC:BF:99:2A:EE:E4:DB
                DirName:/C=US/ST=California/L=San Francisco/O=Copyleft Certificate Co/OU=My Organizational Unit/CN=ChangeMe/emailAddress=me@example.net
                serial:87:1E:1D:DC:6B:8C:66:88

            X509v3 Extended Key Usage: 
                TLS Web Client Authentication
            X509v3 Key Usage: 
                Digital Signature
    Signature Algorithm: sha256WithRSAEncryption
         c8:99:fe:04:3b:31:92:e9:98:84:16:18:4b:f6:c7:a1:13:ea:
         d0:83:19:0c:45:47:41:e3:ca:7b:0e:7e:24:50:9b:42:8d:f3:
         43:e8:05:5e:9d:45:9c:95:c6:67:ad:c6:9c:ee:90:d6:69:a6:
         6a:32:08:f3:55:80:16:8a:5f:aa:b6:6c:d7:a1:2a:b1:ab:e4:
         d0:17:76:10:2a:99:c8:a4:01:16:3c:58:0e:d8:40:ce:d6:7f:
         b8:49:45:c0:9a:ca:48:88:73:b0:5d:7f:18:fe:22:d0:6f:00:
         f9:23:23:0b:47:05:b6:30:f8:fd:36:27:04:67:50:3e:d7:d3:
         b9:19:f8:ac:fe:c9:b2:b7:64:34:93:ed:61:d7:15:ce:a4:fc:
         c7:d2:1b:34:ab:cc:75:88:c8:0b:6f:25:85:11:b7:63:da:76:
         c9:59:7d:bb:5d:6d:a9:d1:bf:83:64:2c:f4:05:97:37:be:0a:
         4a:81:b5:08:d6:46:63:87:25:2e:4a:b7:55:e1:81:df:da:98:
         7a:2b:1a:d6:33:a5:32:c8:f3:2d:0b:b5:90:2f:05:7c:76:16:
         23:ba:b7:8b:d2:09:3f:25:23:11:68:86:12:51:ad:aa:46:b7:
         bf:1d:05:a9:10:2d:42:fe:b7:eb:02:ed:0e:bf:cf:6a:8e:45:
         74:3a:17:09
-----BEGIN CERTIFICATE-----
MIIFNTCCBB2gAwIBAgIQHspmeWWFlhrcRJSAyMYXJjANBgkqhkiG9w0BAQsFADCB
rzELMAkGA1UEBhMCVVMxEzARBgNVBAgMCkNhbGlmb3JuaWExFjAUBgNVBAcMDVNh
biBGcmFuY2lzY28xIDAeBgNVBAoMF0NvcHlsZWZ0IENlcnRpZmljYXRlIENvMR8w
HQYDVQQLDBZNeSBPcmdhbml6YXRpb25hbCBVbml0MREwDwYDVQQDDAhDaGFuZ2VN
ZTEdMBsGCSqGSIb3DQEJARYObWVAZXhhbXBsZS5uZXQwHhcNMjEwMTIzMTgyODEz
WhcNMjIwMTIzMTgyODEzWjCBwTELMAkGA1UEBhMCVVMxCzAJBgNVBAgMAk9IMRMw
EQYDVQQHDApDaW5jaW5uYXRpMSEwHwYDVQQKDBhVbml2ZXJzaXR5IG9mIENpbmNp
bm5hdGkxMDAuBgNVBAsMJ0RlcHQuIEVsZWN0cmljYWwgRW5nLiBhbmQgQ29tcHV0
ZXIgU2NpLjERMA8GA1UEAwwIY2xpZW50NDAxKDAmBgkqhkiG9w0BCQEWGWZyYW5j
b0BnYXVzcy5lY2Vjcy51Yy5lZHUwggEiMA0GCSqGSIb3DQEBAQUAA4IBDwAwggEK
AoIBAQDCnzI4N1ArNL14bFUPAtFyuX3KbxzgJsvefrotm3CccuxBNK5u3Tma2Zum
5U65jr1s3NaKZnDzJ9+R1FZUqsYVF46YY9zk/N1o7YOgvZZtUBD/OKQeiUqtPd6D
neqqLkBsBkvG5ex3zP7JqnUUmJRlUjOI5h5Bwpbr4i15wGbtywG6g5cbEhn6fbBy
q/Y/GHOmlDDEm25fACheccbcWu4Wz3chiklxHAnzt6/AZyJpxN60jqRiQumFGQtJ
GPf7x3yPhRh7GA6FX3CvXTR7G3UPt1TfgOyUP5Fk82407thOkHpouIDLr/X3QLyN
XZDefbNwhGkKHfo3VoG7qLATVW8NAgMBAAGjggE3MIIBMzAJBgNVHRMEAjAAMB0G
A1UdDgQWBBTeYTaDWa/YNYI4nSHq8HITgiJREjCB5AYDVR0jBIHcMIHZgBTv3LY9
S/2nhwXFIj2L3L+ZKu7k26GBtaSBsjCBrzELMAkGA1UEBhMCVVMxEzARBgNVBAgM
CkNhbGlmb3JuaWExFjAUBgNVBAcMDVNhbiBGcmFuY2lzY28xIDAeBgNVBAoMF0Nv
cHlsZWZ0IENlcnRpZmljYXRlIENvMR8wHQYDVQQLDBZNeSBPcmdhbml6YXRpb25h
bCBVbml0MREwDwYDVQQDDAhDaGFuZ2VNZTEdMBsGCSqGSIb3DQEJARYObWVAZXhh
bXBsZS5uZXSCCQCHHh3ca4xmiDATBgNVHSUEDDAKBggrBgEFBQcDAjALBgNVHQ8E
BAMCB4AwDQYJKoZIhvcNAQELBQADggEBAMiZ/gQ7MZLpmIQWGEv2x6ET6tCDGQxF
R0HjynsOfiRQm0KN80PoBV6dRZyVxmetxpzukNZppmoyCPNVgBaKX6q2bNehKrGr
5NAXdhAqmcikARY8WA7YQM7Wf7hJRcCaykiIc7Bdfxj+ItBvAPkjIwtHBbYw+P02
JwRnUD7X07kZ+Kz+ybK3ZDST7WHXFc6k/MfSGzSrzHWIyAtvJYURt2PadslZfbtd
banRv4NkLPQFlze+CkqBtQjWRmOHJS5Kt1Xhgd/amHorGtYzpTLI8y0LtZAvBXx2
FiO6t4vSCT8lIxFohhJRrapGt78dBakQLUL+t+sC7Q6/z2qORXQ6Fwk=
-----END CERTIFICATE-----
