Certificate:
    Data:
        Version: 3 (0x2)
        Serial Number:
            20:38:f7:a4:b3:a2:61:9a:ec:d2:99:00:dc:24:87:10
    Signature Algorithm: sha256WithRSAEncryption
        Issuer: C=US, ST=California, L=San Francisco, O=Copyleft Certificate Co, OU=My Organizational Unit, CN=ChangeMe/emailAddress=me@example.net
        Validity
            Not Before: Nov 11 01:58:31 2023 GMT
            Not After : Nov 10 01:58:31 2024 GMT
        Subject: C=US, ST=OH, L=Cincinnati, O=University of Cincinnati, OU=Dept. Elec. Comp. Eng. Comp. Sci., CN=client7/emailAddress=franco@gauss.ececs.uc.edu
        Subject Public Key Info:
            Public Key Algorithm: rsaEncryption
                Public-Key: (2048 bit)
                Modulus:
                    00:f9:6e:40:aa:42:08:a0:b1:7e:ef:39:0b:79:90:
                    6f:1d:92:91:a3:a2:a7:78:99:e5:9c:6b:cc:4e:7e:
                    11:4c:bc:92:72:e4:d3:d7:d6:e9:a4:53:55:06:1c:
                    83:d0:0b:25:7c:ae:b6:ab:68:50:9d:0e:bf:c8:d8:
                    b4:31:e8:c3:93:a6:5f:7c:16:03:56:79:e0:93:9a:
                    10:0f:7c:10:ab:eb:95:4f:16:bc:4b:f5:ae:d4:07:
                    0e:7b:b6:3c:a3:66:9b:b7:42:57:5d:8a:6b:a1:d7:
                    24:82:ad:6b:76:13:49:9c:f9:7d:69:20:59:8a:16:
                    61:c7:64:b8:b8:f7:91:e3:2f:f3:8e:73:58:0f:06:
                    a9:86:00:ec:37:e3:c7:d9:f4:fc:90:3a:91:da:7a:
                    87:f2:44:6f:61:5e:31:39:1c:aa:fa:e4:16:f6:e1:
                    d1:0b:51:4d:08:a2:0f:1e:4b:20:e5:55:c3:00:1a:
                    3d:71:fd:80:92:f5:1d:3e:d9:f8:60:07:e9:df:c7:
                    b0:b6:5e:6a:ed:21:a5:ca:42:41:b3:81:7f:a6:78:
                    6c:ea:6b:c0:26:09:0a:57:fb:58:6e:47:e7:33:24:
                    7a:c7:2f:21:7a:e2:04:36:5b:a7:94:07:a4:5c:76:
                    a1:ce:49:83:33:89:86:c4:e1:40:fb:fe:41:11:d3:
                    14:89
                Exponent: 65537 (0x10001)
        X509v3 extensions:
            X509v3 Basic Constraints: 
                CA:FALSE
            X509v3 Subject Key Identifier: 
                93:7E:C7:EB:E8:A0:D2:21:8E:B9:E8:0C:71:47:02:FE:25:8E:AE:EF
            X509v3 Authority Key Identifier: 
                keyid:7B:0F:93:16:64:9F:71:41:D3:1B:FB:ED:6A:70:9B:CA:2E:70:F0:4B
                DirName:/C=US/ST=California/L=San Francisco/O=Copyleft Certificate Co/OU=My Organizational Unit/CN=ChangeMe/emailAddress=me@example.net
                serial:B9:F2:4E:2C:79:B3:D4:6C

            X509v3 Extended Key Usage: 
                TLS Web Client Authentication
            X509v3 Key Usage: 
                Digital Signature
    Signature Algorithm: sha256WithRSAEncryption
         41:df:ce:3e:8a:32:20:ee:7b:4b:46:ab:6e:01:e9:d0:49:c9:
         d9:c6:a4:10:71:34:88:b5:a3:ab:d4:52:6d:bf:a6:26:11:ee:
         27:7c:1f:a1:96:d9:5e:ce:89:7f:69:94:67:0d:ef:46:f7:1e:
         15:63:87:76:72:bf:00:a1:8a:b3:24:e3:92:33:10:fa:48:2d:
         65:73:77:0e:d4:05:88:15:c2:db:1b:8f:d8:d6:33:28:4b:a3:
         e5:2e:98:ec:0c:f9:3e:d2:64:0c:07:e5:c9:a5:08:ad:69:ea:
         5d:cf:47:ee:d0:dc:a6:81:d5:4b:c8:16:ed:82:c3:bb:df:5c:
         b7:2a:d3:ff:a9:ac:88:8b:4c:6f:16:6b:67:ad:af:64:16:2c:
         0c:ba:f3:74:67:f5:86:29:b0:0a:8f:02:cb:4f:a7:49:aa:cd:
         52:bf:d7:22:12:62:c0:52:93:9b:fa:66:fd:de:62:79:2c:67:
         ba:b2:2b:97:04:96:74:54:1c:7f:01:c8:5d:e4:62:5b:a2:bc:
         d6:16:26:d0:80:6a:ee:b5:e0:c0:4c:e3:41:48:6e:d4:6d:14:
         d6:3c:5a:23:f2:44:e6:8c:0b:69:e1:83:83:06:8f:53:cd:2b:
         bf:82:19:41:19:0a:da:ec:f4:ac:57:54:d4:41:bc:90:2c:4c:
         36:f7:48:19
-----BEGIN CERTIFICATE-----
MIIFLjCCBBagAwIBAgIQIDj3pLOiYZrs0pkA3CSHEDANBgkqhkiG9w0BAQsFADCB
rzELMAkGA1UEBhMCVVMxEzARBgNVBAgMCkNhbGlmb3JuaWExFjAUBgNVBAcMDVNh
biBGcmFuY2lzY28xIDAeBgNVBAoMF0NvcHlsZWZ0IENlcnRpZmljYXRlIENvMR8w
HQYDVQQLDBZNeSBPcmdhbml6YXRpb25hbCBVbml0MREwDwYDVQQDDAhDaGFuZ2VN
ZTEdMBsGCSqGSIb3DQEJARYObWVAZXhhbXBsZS5uZXQwHhcNMjMxMTExMDE1ODMx
WhcNMjQxMTEwMDE1ODMxWjCBujELMAkGA1UEBhMCVVMxCzAJBgNVBAgMAk9IMRMw
EQYDVQQHDApDaW5jaW5uYXRpMSEwHwYDVQQKDBhVbml2ZXJzaXR5IG9mIENpbmNp
bm5hdGkxKjAoBgNVBAsMIURlcHQuIEVsZWMuIENvbXAuIEVuZy4gQ29tcC4gU2Np
LjEQMA4GA1UEAwwHY2xpZW50NzEoMCYGCSqGSIb3DQEJARYZZnJhbmNvQGdhdXNz
LmVjZWNzLnVjLmVkdTCCASIwDQYJKoZIhvcNAQEBBQADggEPADCCAQoCggEBAPlu
QKpCCKCxfu85C3mQbx2SkaOip3iZ5ZxrzE5+EUy8knLk09fW6aRTVQYcg9ALJXyu
tqtoUJ0Ov8jYtDHow5OmX3wWA1Z54JOaEA98EKvrlU8WvEv1rtQHDnu2PKNmm7dC
V12Ka6HXJIKta3YTSZz5fWkgWYoWYcdkuLj3keMv845zWA8GqYYA7Dfjx9n0/JA6
kdp6h/JEb2FeMTkcqvrkFvbh0QtRTQiiDx5LIOVVwwAaPXH9gJL1HT7Z+GAH6d/H
sLZeau0hpcpCQbOBf6Z4bOprwCYJClf7WG5H5zMkescvIXriBDZbp5QHpFx2oc5J
gzOJhsThQPv+QRHTFIkCAwEAAaOCATcwggEzMAkGA1UdEwQCMAAwHQYDVR0OBBYE
FJN+x+vooNIhjrnoDHFHAv4ljq7vMIHkBgNVHSMEgdwwgdmAFHsPkxZkn3FB0xv7
7Wpwm8oucPBLoYG1pIGyMIGvMQswCQYDVQQGEwJVUzETMBEGA1UECAwKQ2FsaWZv
cm5pYTEWMBQGA1UEBwwNU2FuIEZyYW5jaXNjbzEgMB4GA1UECgwXQ29weWxlZnQg
Q2VydGlmaWNhdGUgQ28xHzAdBgNVBAsMFk15IE9yZ2FuaXphdGlvbmFsIFVuaXQx
ETAPBgNVBAMMCENoYW5nZU1lMR0wGwYJKoZIhvcNAQkBFg5tZUBleGFtcGxlLm5l
dIIJALnyTix5s9RsMBMGA1UdJQQMMAoGCCsGAQUFBwMCMAsGA1UdDwQEAwIHgDAN
BgkqhkiG9w0BAQsFAAOCAQEAQd/OPooyIO57S0arbgHp0EnJ2cakEHE0iLWjq9RS
bb+mJhHuJ3wfoZbZXs6Jf2mUZw3vRvceFWOHdnK/AKGKsyTjkjMQ+kgtZXN3DtQF
iBXC2xuP2NYzKEuj5S6Y7Az5PtJkDAflyaUIrWnqXc9H7tDcpoHVS8gW7YLDu99c
tyrT/6msiItMbxZrZ62vZBYsDLrzdGf1himwCo8Cy0+nSarNUr/XIhJiwFKTm/pm
/d5ieSxnurIrlwSWdFQcfwHIXeRiW6K81hYm0IBq7rXgwEzjQUhu1G0U1jxaI/JE
5owLaeGDgwaPU80rv4IZQRkK2uz0rFdU1EG8kCxMNvdIGQ==
-----END CERTIFICATE-----
