Certificate:
    Data:
        Version: 3 (0x2)
        Serial Number:
            20:51:87:8f:63:81:d0:3e:13:dd:47:f9:01:ba:1a:25
    Signature Algorithm: sha256WithRSAEncryption
        Issuer: C=US, ST=California, L=San Francisco, O=Copyleft Certificate Co, OU=My Organizational Unit, CN=ChangeMe/emailAddress=me@example.net
        Validity
            Not Before: Nov 11 01:58:39 2023 GMT
            Not After : Nov 10 01:58:39 2024 GMT
        Subject: C=US, ST=OH, L=Cincinnati, O=University of Cincinnati, OU=Dept. Elec. Comp. Eng. Comp. Sci., CN=client9/emailAddress=franco@gauss.ececs.uc.edu
        Subject Public Key Info:
            Public Key Algorithm: rsaEncryption
                Public-Key: (2048 bit)
                Modulus:
                    00:c4:21:14:ce:19:9a:96:60:a2:b5:fb:8b:9a:98:
                    73:5b:ac:6c:1a:61:e5:c3:d1:84:88:79:06:91:5c:
                    db:4b:8f:b3:32:39:18:53:68:55:49:45:49:b0:f0:
                    90:09:e1:83:ab:6e:d8:49:ac:e1:02:5e:84:f6:1a:
                    18:56:6e:62:61:51:53:dd:b9:cc:83:a7:15:7d:ec:
                    9c:be:18:11:eb:0e:30:43:6b:61:00:7a:c1:0b:08:
                    29:1e:ee:aa:f5:77:c7:a6:b1:87:46:9f:f8:d2:2f:
                    cc:1b:36:cd:8c:7d:9a:a7:52:1f:e1:89:03:82:6a:
                    73:db:d6:1e:31:d7:dc:61:71:1f:42:63:ac:53:2d:
                    11:6b:f1:79:c0:44:5f:cd:b0:09:91:0b:88:c9:1a:
                    25:fd:73:a4:7c:e8:84:00:2f:2d:75:76:e1:96:c9:
                    99:e0:63:ab:d7:d2:68:ac:db:08:d5:e5:99:83:c8:
                    bb:a1:5a:b9:d8:7d:37:d6:35:ae:5d:fa:09:ff:34:
                    e3:9c:7a:10:c3:a4:22:27:b6:41:da:92:b7:b6:5b:
                    5c:52:cb:5d:a5:04:56:b6:14:13:08:35:5f:b1:79:
                    b5:19:18:a8:d7:bb:39:b3:7a:d7:ab:ad:39:0a:d5:
                    b9:c9:ab:f8:63:04:c0:7e:25:d0:6a:43:03:e5:50:
                    16:b9
                Exponent: 65537 (0x10001)
        X509v3 extensions:
            X509v3 Basic Constraints: 
                CA:FALSE
            X509v3 Subject Key Identifier: 
                C7:99:C5:FA:36:55:CE:5C:DF:29:20:AE:3B:CB:CD:5A:BB:2D:FB:8E
            X509v3 Authority Key Identifier: 
                keyid:7B:0F:93:16:64:9F:71:41:D3:1B:FB:ED:6A:70:9B:CA:2E:70:F0:4B
                DirName:/C=US/ST=California/L=San Francisco/O=Copyleft Certificate Co/OU=My Organizational Unit/CN=ChangeMe/emailAddress=me@example.net
                serial:B9:F2:4E:2C:79:B3:D4:6C

            X509v3 Extended Key Usage: 
                TLS Web Client Authentication
            X509v3 Key Usage: 
                Digital Signature
    Signature Algorithm: sha256WithRSAEncryption
         27:83:a5:4c:f2:13:4e:8f:2d:0c:3e:fb:ee:16:c6:4e:12:de:
         9a:13:3e:f7:8f:d7:76:3f:2f:f6:bc:ff:7d:9d:5c:3d:d4:b0:
         69:e1:bf:1a:88:54:5f:a4:27:33:d7:94:95:75:9c:bf:8e:4c:
         87:b5:2e:5d:e2:cc:68:82:7b:28:8e:1b:3c:3c:f5:f8:4b:3d:
         e6:f9:11:0a:7a:04:90:56:05:ea:57:03:5d:13:4a:ef:a7:32:
         bc:f6:23:22:2f:42:cd:82:09:68:1b:af:9d:c1:0c:70:22:89:
         9c:c1:c9:b4:a9:3d:12:86:0c:ad:65:cc:a0:e3:bf:42:c0:6d:
         18:f3:36:00:5d:13:4b:b4:28:fb:44:83:14:54:c6:8d:31:ba:
         5c:a4:4c:27:d6:9d:43:52:1c:39:75:12:1b:d2:9d:e2:aa:30:
         f1:0a:da:51:15:08:a7:20:a9:4f:5c:59:e8:83:3c:2c:c9:88:
         ea:5f:ff:69:54:60:0a:4b:5e:bd:38:fa:f7:b8:8e:ce:04:ba:
         d9:35:26:3e:1e:f3:01:7e:42:d3:22:0d:9f:2f:42:f7:28:12:
         d1:f0:37:4c:44:d4:f4:8b:14:62:73:fd:db:f2:21:d0:aa:ba:
         51:16:61:1d:a1:14:93:7d:49:c0:a5:9c:b8:27:99:a9:99:35:
         5c:38:09:07
-----BEGIN CERTIFICATE-----
MIIFLjCCBBagAwIBAgIQIFGHj2OB0D4T3Uf5AboaJTANBgkqhkiG9w0BAQsFADCB
rzELMAkGA1UEBhMCVVMxEzARBgNVBAgMCkNhbGlmb3JuaWExFjAUBgNVBAcMDVNh
biBGcmFuY2lzY28xIDAeBgNVBAoMF0NvcHlsZWZ0IENlcnRpZmljYXRlIENvMR8w
HQYDVQQLDBZNeSBPcmdhbml6YXRpb25hbCBVbml0MREwDwYDVQQDDAhDaGFuZ2VN
ZTEdMBsGCSqGSIb3DQEJARYObWVAZXhhbXBsZS5uZXQwHhcNMjMxMTExMDE1ODM5
WhcNMjQxMTEwMDE1ODM5WjCBujELMAkGA1UEBhMCVVMxCzAJBgNVBAgMAk9IMRMw
EQYDVQQHDApDaW5jaW5uYXRpMSEwHwYDVQQKDBhVbml2ZXJzaXR5IG9mIENpbmNp
bm5hdGkxKjAoBgNVBAsMIURlcHQuIEVsZWMuIENvbXAuIEVuZy4gQ29tcC4gU2Np
LjEQMA4GA1UEAwwHY2xpZW50OTEoMCYGCSqGSIb3DQEJARYZZnJhbmNvQGdhdXNz
LmVjZWNzLnVjLmVkdTCCASIwDQYJKoZIhvcNAQEBBQADggEPADCCAQoCggEBAMQh
FM4ZmpZgorX7i5qYc1usbBph5cPRhIh5BpFc20uPszI5GFNoVUlFSbDwkAnhg6tu
2Ems4QJehPYaGFZuYmFRU925zIOnFX3snL4YEesOMENrYQB6wQsIKR7uqvV3x6ax
h0af+NIvzBs2zYx9mqdSH+GJA4Jqc9vWHjHX3GFxH0JjrFMtEWvxecBEX82wCZEL
iMkaJf1zpHzohAAvLXV24ZbJmeBjq9fSaKzbCNXlmYPIu6Faudh9N9Y1rl36Cf80
45x6EMOkIie2QdqSt7ZbXFLLXaUEVrYUEwg1X7F5tRkYqNe7ObN616utOQrVucmr
+GMEwH4l0GpDA+VQFrkCAwEAAaOCATcwggEzMAkGA1UdEwQCMAAwHQYDVR0OBBYE
FMeZxfo2Vc5c3ykgrjvLzVq7LfuOMIHkBgNVHSMEgdwwgdmAFHsPkxZkn3FB0xv7
7Wpwm8oucPBLoYG1pIGyMIGvMQswCQYDVQQGEwJVUzETMBEGA1UECAwKQ2FsaWZv
cm5pYTEWMBQGA1UEBwwNU2FuIEZyYW5jaXNjbzEgMB4GA1UECgwXQ29weWxlZnQg
Q2VydGlmaWNhdGUgQ28xHzAdBgNVBAsMFk15IE9yZ2FuaXphdGlvbmFsIFVuaXQx
ETAPBgNVBAMMCENoYW5nZU1lMR0wGwYJKoZIhvcNAQkBFg5tZUBleGFtcGxlLm5l
dIIJALnyTix5s9RsMBMGA1UdJQQMMAoGCCsGAQUFBwMCMAsGA1UdDwQEAwIHgDAN
BgkqhkiG9w0BAQsFAAOCAQEAJ4OlTPITTo8tDD777hbGThLemhM+94/Xdj8v9rz/
fZ1cPdSwaeG/GohUX6QnM9eUlXWcv45Mh7UuXeLMaIJ7KI4bPDz1+Es95vkRCnoE
kFYF6lcDXRNK76cyvPYjIi9CzYIJaBuvncEMcCKJnMHJtKk9EoYMrWXMoOO/QsBt
GPM2AF0TS7Qo+0SDFFTGjTG6XKRMJ9adQ1IcOXUSG9Kd4qow8QraURUIpyCpT1xZ
6IM8LMmI6l//aVRgCktevTj697iOzgS62TUmPh7zAX5C0yINny9C9ygS0fA3TETU
9IsUYnP92/Ih0Kq6URZhHaEUk31JwKWcuCeZqZk1XDgJBw==
-----END CERTIFICATE-----
