Certificate:
    Data:
        Version: 3 (0x2)
        Serial Number:
            20:8d:19:a4:38:2e:1e:6f:52:a2:c7:69:b8:8d:1d:2c
    Signature Algorithm: sha256WithRSAEncryption
        Issuer: C=US, ST=California, L=San Francisco, O=Copyleft Certificate Co, OU=My Organizational Unit, CN=ChangeMe/emailAddress=me@example.net
        Validity
            Not Before: Nov 11 18:50:48 2023 GMT
            Not After : Nov 10 18:50:48 2024 GMT
        Subject: C=US, ST=OH, L=Cincinnati, O=University of Cincinnati ., OU=Dept. Elec. Comp. . Eng. Comp. Sci., CN=client13/emailAddress=franco@gauss.ececs.uc.edu
        Subject Public Key Info:
            Public Key Algorithm: rsaEncryption
                Public-Key: (2048 bit)
                Modulus:
                    00:e9:74:77:59:f4:d5:64:48:00:db:8d:b8:03:ef:
                    e7:96:f1:4d:53:d7:26:4f:e8:ec:7f:cb:45:f7:cc:
                    17:e0:c4:96:07:de:f9:33:4d:ee:30:b5:af:b0:95:
                    4c:f7:6e:33:cc:64:8a:ed:66:46:10:f2:de:f2:3f:
                    c9:65:34:7a:44:90:a2:7d:e6:4d:40:b6:30:52:a8:
                    ce:f6:9f:89:e9:de:b0:30:df:a4:8f:6a:10:25:10:
                    bb:bc:80:bb:aa:fd:7a:50:73:03:a5:49:47:6f:6f:
                    31:00:7f:d3:0d:61:e9:2d:04:75:35:8c:48:8b:76:
                    72:f1:0f:f8:41:41:79:1b:2b:96:55:cf:9c:cb:d3:
                    54:fd:8f:7b:92:5d:58:ce:75:0f:18:d1:95:44:b3:
                    f2:b6:40:83:2b:d0:00:7b:0a:fb:a5:e1:99:c8:da:
                    d1:b7:99:d6:c4:0a:33:90:81:a6:81:7c:fe:8a:df:
                    ec:22:61:54:e1:26:06:ec:2d:f4:aa:13:2a:e6:ea:
                    40:92:0e:28:a5:08:6a:a8:b4:5f:a5:90:92:23:86:
                    ad:31:48:11:99:41:1e:51:65:c5:af:39:9c:87:7e:
                    e2:74:ed:78:f6:ef:a6:cc:38:a7:20:b6:64:7b:1f:
                    da:02:9d:21:12:e2:c3:70:07:39:d5:a3:51:ff:15:
                    7c:dd
                Exponent: 65537 (0x10001)
        X509v3 extensions:
            X509v3 Basic Constraints: 
                CA:FALSE
            X509v3 Subject Key Identifier: 
                F6:B4:33:52:E4:56:F0:02:6C:51:36:C3:CD:88:C0:AA:75:15:48:E1
            X509v3 Authority Key Identifier: 
                keyid:9C:0E:D5:A3:16:6F:C8:23:88:D1:12:C9:63:5D:18:D9:C9:FC:5B:E9
                DirName:/C=US/ST=California/L=San Francisco/O=Copyleft Certificate Co/OU=My Organizational Unit/CN=ChangeMe/emailAddress=me@example.net
                serial:A3:08:26:80:D2:47:98:75

            X509v3 Extended Key Usage: 
                TLS Web Client Authentication
            X509v3 Key Usage: 
                Digital Signature
    Signature Algorithm: sha256WithRSAEncryption
         1a:cd:d0:5a:a6:f0:8c:e1:85:ac:d8:e3:26:f0:ec:b8:06:17:
         3a:a1:c8:7d:24:59:28:0f:5e:c0:f8:75:f6:6a:a3:31:a7:fc:
         b7:73:b5:01:36:bc:7d:fd:d8:eb:0b:92:16:93:04:33:f0:5c:
         d4:aa:fd:4b:de:48:0e:13:a3:1c:73:54:e2:05:ba:ec:0f:4f:
         bb:fb:0b:8b:76:1f:95:74:57:99:9a:16:23:67:80:f4:8f:d5:
         bb:68:1a:58:6d:47:c8:f2:cb:9c:a5:de:cf:ee:3e:a0:64:56:
         a2:9a:17:bb:61:2a:b6:aa:1e:7c:75:c5:a1:40:b7:7f:54:82:
         92:46:43:4a:ae:42:8c:7a:59:5b:d3:7b:a7:d6:f0:24:dd:44:
         f7:f9:a4:66:da:1a:aa:bd:22:65:87:0f:59:c1:cd:c4:bf:b6:
         b2:03:1b:8e:fe:ac:4e:87:cf:59:03:94:1a:fa:a2:35:4a:6c:
         cd:05:02:40:44:d7:9e:f2:f8:bf:20:f5:c1:a6:d5:47:92:d2:
         95:81:09:5b:5b:8f:00:62:4d:96:02:36:94:8c:5d:a0:cc:af:
         30:a0:2a:f0:9d:cf:44:8a:0b:9e:3d:0e:81:e3:7b:fc:40:d4:
         9c:52:87:91:2e:7d:db:ee:60:69:93:9b:bb:5c:c5:d3:8c:08:
         e5:43:48:b0
-----BEGIN CERTIFICATE-----
MIIFMzCCBBugAwIBAgIQII0ZpDguHm9SosdpuI0dLDANBgkqhkiG9w0BAQsFADCB
rzELMAkGA1UEBhMCVVMxEzARBgNVBAgMCkNhbGlmb3JuaWExFjAUBgNVBAcMDVNh
biBGcmFuY2lzY28xIDAeBgNVBAoMF0NvcHlsZWZ0IENlcnRpZmljYXRlIENvMR8w
HQYDVQQLDBZNeSBPcmdhbml6YXRpb25hbCBVbml0MREwDwYDVQQDDAhDaGFuZ2VN
ZTEdMBsGCSqGSIb3DQEJARYObWVAZXhhbXBsZS5uZXQwHhcNMjMxMTExMTg1MDQ4
WhcNMjQxMTEwMTg1MDQ4WjCBvzELMAkGA1UEBhMCVVMxCzAJBgNVBAgMAk9IMRMw
EQYDVQQHDApDaW5jaW5uYXRpMSMwIQYDVQQKDBpVbml2ZXJzaXR5IG9mIENpbmNp
bm5hdGkgLjEsMCoGA1UECwwjRGVwdC4gRWxlYy4gQ29tcC4gLiBFbmcuIENvbXAu
IFNjaS4xETAPBgNVBAMMCGNsaWVudDEzMSgwJgYJKoZIhvcNAQkBFhlmcmFuY29A
Z2F1c3MuZWNlY3MudWMuZWR1MIIBIjANBgkqhkiG9w0BAQEFAAOCAQ8AMIIBCgKC
AQEA6XR3WfTVZEgA2424A+/nlvFNU9cmT+jsf8tF98wX4MSWB975M03uMLWvsJVM
924zzGSK7WZGEPLe8j/JZTR6RJCifeZNQLYwUqjO9p+J6d6wMN+kj2oQJRC7vIC7
qv16UHMDpUlHb28xAH/TDWHpLQR1NYxIi3Zy8Q/4QUF5GyuWVc+cy9NU/Y97kl1Y
znUPGNGVRLPytkCDK9AAewr7peGZyNrRt5nWxAozkIGmgXz+it/sImFU4SYG7C30
qhMq5upAkg4opQhqqLRfpZCSI4atMUgRmUEeUWXFrzmch37idO149u+mzDinILZk
ex/aAp0hEuLDcAc51aNR/xV83QIDAQABo4IBNzCCATMwCQYDVR0TBAIwADAdBgNV
HQ4EFgQU9rQzUuRW8AJsUTbDzYjAqnUVSOEwgeQGA1UdIwSB3DCB2YAUnA7VoxZv
yCOI0RLJY10Y2cn8W+mhgbWkgbIwga8xCzAJBgNVBAYTAlVTMRMwEQYDVQQIDApD
YWxpZm9ybmlhMRYwFAYDVQQHDA1TYW4gRnJhbmNpc2NvMSAwHgYDVQQKDBdDb3B5
bGVmdCBDZXJ0aWZpY2F0ZSBDbzEfMB0GA1UECwwWTXkgT3JnYW5pemF0aW9uYWwg
VW5pdDERMA8GA1UEAwwIQ2hhbmdlTWUxHTAbBgkqhkiG9w0BCQEWDm1lQGV4YW1w
bGUubmV0ggkAowgmgNJHmHUwEwYDVR0lBAwwCgYIKwYBBQUHAwIwCwYDVR0PBAQD
AgeAMA0GCSqGSIb3DQEBCwUAA4IBAQAazdBapvCM4YWs2OMm8Oy4Bhc6och9JFko
D17A+HX2aqMxp/y3c7UBNrx9/djrC5IWkwQz8FzUqv1L3kgOE6Mcc1TiBbrsD0+7
+wuLdh+VdFeZmhYjZ4D0j9W7aBpYbUfI8sucpd7P7j6gZFaimhe7YSq2qh58dcWh
QLd/VIKSRkNKrkKMellb03un1vAk3UT3+aRm2hqqvSJlhw9Zwc3Ev7ayAxuO/qxO
h89ZA5Qa+qI1SmzNBQJARNee8vi/IPXBptVHktKVgQlbW48AYk2WAjaUjF2gzK8w
oCrwnc9EiguePQ6B43v8QNScUoeRLn3b7mBpk5u7XMXTjAjlQ0iw
-----END CERTIFICATE-----
