Certificate:
    Data:
        Version: 3 (0x2)
        Serial Number:
            21:f6:0d:e1:36:02:fc:88:72:e0:de:42:ae:8e:95:c0
    Signature Algorithm: sha256WithRSAEncryption
        Issuer: C=US, ST=California, L=San Francisco, O=Copyleft Certificate Co, OU=My Organizational Unit, CN=ChangeMe/emailAddress=me@example.net
        Validity
            Not Before: Nov 13 11:47:14 2023 GMT
            Not After : Nov 12 11:47:14 2024 GMT
        Subject: C=US, ST=OH, L=Cincinnati, O=University of Cincinnati, OU=Dept. Elec. Comp. Eng. Comp. Sci., CN=client12/emailAddress=franco@gauss.ececs.uc.edu
        Subject Public Key Info:
            Public Key Algorithm: rsaEncryption
                Public-Key: (2048 bit)
                Modulus:
                    00:e0:a1:90:9b:19:62:2f:3f:f4:e6:ca:67:d8:63:
                    0e:0e:39:49:30:a4:e9:63:d3:08:05:cb:72:bf:3d:
                    69:34:ef:ef:11:db:67:8d:10:5d:64:80:63:33:dc:
                    d9:97:72:3f:2f:30:f4:57:da:bc:95:b1:57:99:f4:
                    75:91:27:6b:d4:98:41:d2:7f:3b:8b:71:68:7a:35:
                    9b:64:7b:b5:53:43:d3:90:01:0c:19:75:3d:15:33:
                    98:1f:82:00:14:b3:db:45:e8:b8:d6:5a:e5:58:b8:
                    55:12:00:b6:77:3a:0b:a4:c2:f8:76:ec:54:0d:a6:
                    dd:19:0c:56:59:95:b7:68:13:76:03:c0:b9:b4:89:
                    2d:5e:54:dc:01:a0:64:62:77:9a:38:e7:b3:3b:87:
                    d5:fa:b1:cb:1d:90:98:33:0b:33:84:bb:95:ba:71:
                    a1:42:e3:b7:f9:d4:dc:b7:e0:5e:fd:c1:cd:29:1f:
                    f9:bc:e3:45:d4:c9:38:56:fb:f7:f0:9b:d3:4b:16:
                    83:46:19:bc:d9:f5:d3:2f:5f:f3:3a:ce:a9:2f:9c:
                    7d:6b:e7:a7:0f:fc:86:13:25:d6:8c:8a:8f:4a:97:
                    4d:ad:12:33:b1:c7:9f:8f:27:6e:96:cb:fc:9e:3b:
                    41:47:d2:78:f0:92:00:59:23:01:f3:dc:83:15:98:
                    50:61
                Exponent: 65537 (0x10001)
        X509v3 extensions:
            X509v3 Basic Constraints: 
                CA:FALSE
            X509v3 Subject Key Identifier: 
                9B:C4:C8:AF:07:5E:EA:DE:B8:7F:32:35:E1:E8:14:26:2C:9D:1D:24
            X509v3 Authority Key Identifier: 
                keyid:B4:AE:AB:ED:FC:ED:84:AA:AD:77:5D:7C:84:28:1C:CA:CE:AE:2A:44
                DirName:/C=US/ST=California/L=San Francisco/O=Copyleft Certificate Co/OU=My Organizational Unit/CN=ChangeMe/emailAddress=me@example.net
                serial:BD:6C:3B:F4:D3:07:C9:D1

            X509v3 Extended Key Usage: 
                TLS Web Client Authentication
            X509v3 Key Usage: 
                Digital Signature
    Signature Algorithm: sha256WithRSAEncryption
         b3:46:d1:fa:af:07:68:e1:07:35:e1:78:7e:64:17:d5:e3:f7:
         59:2f:c2:54:24:54:df:c2:12:d5:8b:25:e2:bf:b8:dc:d8:25:
         43:f0:cb:9a:35:cc:df:08:21:06:d3:5b:e5:c2:a3:8b:df:ae:
         f2:eb:22:19:6f:45:65:9e:bd:a5:3f:18:1f:e8:6b:70:2a:3b:
         bc:9b:3f:0b:35:fd:1b:c4:50:78:88:ac:88:91:e6:2f:c5:8d:
         70:b3:ef:b2:be:ef:f3:cc:04:a5:b5:0a:c4:9e:7a:d0:05:ca:
         b3:79:c9:80:45:13:60:f1:2d:50:85:2e:3f:6a:a6:e0:96:e6:
         ed:91:43:d7:f7:75:30:1a:b4:34:f5:1a:d9:e1:44:74:88:65:
         60:23:cf:68:4d:61:67:b9:2f:b3:4d:8a:e8:67:6d:93:ed:c4:
         00:7c:8c:77:74:63:aa:e1:e7:ad:eb:b0:8c:64:61:cb:db:f5:
         95:db:32:63:5e:d7:1b:50:72:96:b0:4d:9f:9e:11:22:ec:30:
         1c:09:0f:bd:9d:18:f2:77:af:74:78:02:03:08:08:05:f9:b3:
         1a:02:0b:10:fd:36:e0:de:76:8f:a1:87:db:a9:50:27:c0:2d:
         86:be:6f:c5:fa:52:46:29:9e:39:63:80:20:6b:1e:21:6a:55:
         c6:50:89:72
-----BEGIN CERTIFICATE-----
MIIFLzCCBBegAwIBAgIQIfYN4TYC/Ihy4N5Cro6VwDANBgkqhkiG9w0BAQsFADCB
rzELMAkGA1UEBhMCVVMxEzARBgNVBAgMCkNhbGlmb3JuaWExFjAUBgNVBAcMDVNh
biBGcmFuY2lzY28xIDAeBgNVBAoMF0NvcHlsZWZ0IENlcnRpZmljYXRlIENvMR8w
HQYDVQQLDBZNeSBPcmdhbml6YXRpb25hbCBVbml0MREwDwYDVQQDDAhDaGFuZ2VN
ZTEdMBsGCSqGSIb3DQEJARYObWVAZXhhbXBsZS5uZXQwHhcNMjMxMTEzMTE0NzE0
WhcNMjQxMTEyMTE0NzE0WjCBuzELMAkGA1UEBhMCVVMxCzAJBgNVBAgMAk9IMRMw
EQYDVQQHDApDaW5jaW5uYXRpMSEwHwYDVQQKDBhVbml2ZXJzaXR5IG9mIENpbmNp
bm5hdGkxKjAoBgNVBAsMIURlcHQuIEVsZWMuIENvbXAuIEVuZy4gQ29tcC4gU2Np
LjERMA8GA1UEAwwIY2xpZW50MTIxKDAmBgkqhkiG9w0BCQEWGWZyYW5jb0BnYXVz
cy5lY2Vjcy51Yy5lZHUwggEiMA0GCSqGSIb3DQEBAQUAA4IBDwAwggEKAoIBAQDg
oZCbGWIvP/TmymfYYw4OOUkwpOlj0wgFy3K/PWk07+8R22eNEF1kgGMz3NmXcj8v
MPRX2ryVsVeZ9HWRJ2vUmEHSfzuLcWh6NZtke7VTQ9OQAQwZdT0VM5gfggAUs9tF
6LjWWuVYuFUSALZ3Ogukwvh27FQNpt0ZDFZZlbdoE3YDwLm0iS1eVNwBoGRid5o4
57M7h9X6scsdkJgzCzOEu5W6caFC47f51Ny34F79wc0pH/m840XUyThW+/fwm9NL
FoNGGbzZ9dMvX/M6zqkvnH1r56cP/IYTJdaMio9Kl02tEjOxx5+PJ26Wy/yeO0FH
0njwkgBZIwHz3IMVmFBhAgMBAAGjggE3MIIBMzAJBgNVHRMEAjAAMB0GA1UdDgQW
BBSbxMivB17q3rh/MjXh6BQmLJ0dJDCB5AYDVR0jBIHcMIHZgBS0rqvt/O2Eqq13
XXyEKBzKzq4qRKGBtaSBsjCBrzELMAkGA1UEBhMCVVMxEzARBgNVBAgMCkNhbGlm
b3JuaWExFjAUBgNVBAcMDVNhbiBGcmFuY2lzY28xIDAeBgNVBAoMF0NvcHlsZWZ0
IENlcnRpZmljYXRlIENvMR8wHQYDVQQLDBZNeSBPcmdhbml6YXRpb25hbCBVbml0
MREwDwYDVQQDDAhDaGFuZ2VNZTEdMBsGCSqGSIb3DQEJARYObWVAZXhhbXBsZS5u
ZXSCCQC9bDv00wfJ0TATBgNVHSUEDDAKBggrBgEFBQcDAjALBgNVHQ8EBAMCB4Aw
DQYJKoZIhvcNAQELBQADggEBALNG0fqvB2jhBzXheH5kF9Xj91kvwlQkVN/CEtWL
JeK/uNzYJUPwy5o1zN8IIQbTW+XCo4vfrvLrIhlvRWWevaU/GB/oa3AqO7ybPws1
/RvEUHiIrIiR5i/FjXCz77K+7/PMBKW1CsSeetAFyrN5yYBFE2DxLVCFLj9qpuCW
5u2RQ9f3dTAatDT1GtnhRHSIZWAjz2hNYWe5L7NNiuhnbZPtxAB8jHd0Y6rh563r
sIxkYcvb9ZXbMmNe1xtQcpawTZ+eESLsMBwJD72dGPJ3r3R4AgMICAX5sxoCCxD9
NuDedo+hh9upUCfALYa+b8X6UkYpnjljgCBrHiFqVcZQiXI=
-----END CERTIFICATE-----
