Certificate:
    Data:
        Version: 3 (0x2)
        Serial Number:
            23:10:e0:8c:c9:91:22:6a:38:bd:37:94:b7:34:2b:cb
    Signature Algorithm: sha256WithRSAEncryption
        Issuer: C=US, ST=California, L=San Francisco, O=Copyleft Certificate Co, OU=My Organizational Unit, CN=ChangeMe/emailAddress=me@example.net
        Validity
            Not Before: Nov 12 11:47:59 2023 GMT
            Not After : Nov 11 11:47:59 2024 GMT
        Subject: C=US, ST=OH, L=Cincinnati, O=University of Cincinnati, OU=Dept. Elec. Comp. Eng. Comp. Sci., CN=client26/emailAddress=franco@gauss.ececs.uc.edu
        Subject Public Key Info:
            Public Key Algorithm: rsaEncryption
                Public-Key: (2048 bit)
                Modulus:
                    00:de:63:2e:fa:f9:55:52:bd:5a:79:18:ae:a8:d3:
                    87:8b:76:a6:08:b9:e6:83:70:cb:d9:39:8d:ea:09:
                    0f:9e:6a:f6:21:e7:9d:94:f5:59:dc:a5:a2:0e:78:
                    ca:49:9e:a3:c1:0a:45:80:ff:d6:ba:30:e1:26:87:
                    a1:48:9b:72:a9:2f:82:5d:6b:10:1e:53:84:ca:63:
                    c6:b1:a5:0f:66:42:be:2d:4f:84:8c:71:3f:80:93:
                    76:1e:01:e5:e0:36:e0:7f:ef:93:be:ec:be:2b:4a:
                    32:bb:85:8d:9b:a2:17:64:7f:b5:56:23:f8:91:e2:
                    9f:33:bc:eb:29:13:1a:61:a6:07:57:ab:79:0e:87:
                    b9:73:75:19:1a:23:72:59:dc:d6:a0:67:2c:0e:13:
                    2b:9e:83:24:ec:bf:b1:f3:19:73:20:5a:88:42:c4:
                    7e:8e:34:a3:03:6a:4d:e5:c7:a8:70:3d:28:e5:0c:
                    61:3a:4c:5a:69:8f:ff:c2:43:9d:7e:50:61:50:73:
                    95:8f:37:f4:57:ed:6b:2d:33:d9:c2:76:69:16:a9:
                    af:49:55:ca:56:8c:d8:50:c6:64:1b:02:61:b6:9d:
                    16:36:c4:25:ad:35:1a:8b:23:34:29:35:70:9b:14:
                    f9:7e:8d:98:5c:1e:e3:62:84:88:60:91:f9:96:9b:
                    52:f3
                Exponent: 65537 (0x10001)
        X509v3 extensions:
            X509v3 Basic Constraints: 
                CA:FALSE
            X509v3 Subject Key Identifier: 
                71:2F:B7:5A:8C:35:8A:D3:67:43:CB:3B:EA:56:09:83:DF:A3:85:31
            X509v3 Authority Key Identifier: 
                keyid:C4:46:F2:96:38:56:02:B8:9D:09:04:52:25:91:35:97:6A:D7:B1:F0
                DirName:/C=US/ST=California/L=San Francisco/O=Copyleft Certificate Co/OU=My Organizational Unit/CN=ChangeMe/emailAddress=me@example.net
                serial:D1:5A:15:1C:F0:20:95:62

            X509v3 Extended Key Usage: 
                TLS Web Client Authentication
            X509v3 Key Usage: 
                Digital Signature
    Signature Algorithm: sha256WithRSAEncryption
         26:a7:5b:1a:59:95:5f:8a:b2:81:bd:60:d0:ab:04:e0:aa:db:
         86:e4:0a:b0:17:ad:3e:e0:a7:cd:57:28:67:70:c4:6f:76:a9:
         50:5c:f5:2e:b2:8c:09:66:ac:6c:91:0c:4a:be:cb:81:6d:a0:
         b8:26:55:a1:a6:98:86:a3:ad:b8:f7:2e:45:91:fe:8f:da:d2:
         84:ae:88:2b:9e:5b:3b:25:41:d6:4b:59:91:6a:dc:a4:d5:d9:
         c5:84:92:2f:1b:0f:d7:ef:d1:a6:27:e4:af:59:fa:f8:9e:32:
         2e:fe:91:9e:7f:82:eb:10:9d:48:db:32:c1:00:01:ef:e6:32:
         ea:28:f7:87:da:e4:62:ab:17:ae:83:34:3d:8b:0b:d6:c7:ec:
         c1:e1:88:f8:a3:0a:02:2e:d8:ba:f4:2e:d0:de:6e:91:e0:ae:
         09:3e:75:6d:94:a8:41:a6:47:0c:d9:b5:d2:6e:17:f9:0b:bf:
         03:bb:c0:78:84:4d:a4:b6:01:88:5d:d4:2d:83:8a:16:93:a2:
         6b:ae:3f:98:0e:bd:fb:1c:f8:c8:6a:45:27:c8:89:75:fc:42:
         bb:ff:25:c5:70:9c:fe:38:b3:bd:01:c4:c3:cd:ac:dd:a4:03:
         ba:d4:fb:bc:a2:5a:a9:58:4c:3b:0a:17:01:dd:89:09:ac:c6:
         f2:a5:ef:cf
-----BEGIN CERTIFICATE-----
MIIFLzCCBBegAwIBAgIQIxDgjMmRImo4vTeUtzQryzANBgkqhkiG9w0BAQsFADCB
rzELMAkGA1UEBhMCVVMxEzARBgNVBAgMCkNhbGlmb3JuaWExFjAUBgNVBAcMDVNh
biBGcmFuY2lzY28xIDAeBgNVBAoMF0NvcHlsZWZ0IENlcnRpZmljYXRlIENvMR8w
HQYDVQQLDBZNeSBPcmdhbml6YXRpb25hbCBVbml0MREwDwYDVQQDDAhDaGFuZ2VN
ZTEdMBsGCSqGSIb3DQEJARYObWVAZXhhbXBsZS5uZXQwHhcNMjMxMTEyMTE0NzU5
WhcNMjQxMTExMTE0NzU5WjCBuzELMAkGA1UEBhMCVVMxCzAJBgNVBAgMAk9IMRMw
EQYDVQQHDApDaW5jaW5uYXRpMSEwHwYDVQQKDBhVbml2ZXJzaXR5IG9mIENpbmNp
bm5hdGkxKjAoBgNVBAsMIURlcHQuIEVsZWMuIENvbXAuIEVuZy4gQ29tcC4gU2Np
LjERMA8GA1UEAwwIY2xpZW50MjYxKDAmBgkqhkiG9w0BCQEWGWZyYW5jb0BnYXVz
cy5lY2Vjcy51Yy5lZHUwggEiMA0GCSqGSIb3DQEBAQUAA4IBDwAwggEKAoIBAQDe
Yy76+VVSvVp5GK6o04eLdqYIueaDcMvZOY3qCQ+eavYh552U9VncpaIOeMpJnqPB
CkWA/9a6MOEmh6FIm3KpL4JdaxAeU4TKY8axpQ9mQr4tT4SMcT+Ak3YeAeXgNuB/
75O+7L4rSjK7hY2bohdkf7VWI/iR4p8zvOspExphpgdXq3kOh7lzdRkaI3JZ3Nag
ZywOEyuegyTsv7HzGXMgWohCxH6ONKMDak3lx6hwPSjlDGE6TFppj//CQ51+UGFQ
c5WPN/RX7WstM9nCdmkWqa9JVcpWjNhQxmQbAmG2nRY2xCWtNRqLIzQpNXCbFPl+
jZhcHuNihIhgkfmWm1LzAgMBAAGjggE3MIIBMzAJBgNVHRMEAjAAMB0GA1UdDgQW
BBRxL7dajDWK02dDyzvqVgmD36OFMTCB5AYDVR0jBIHcMIHZgBTERvKWOFYCuJ0J
BFIlkTWXatex8KGBtaSBsjCBrzELMAkGA1UEBhMCVVMxEzARBgNVBAgMCkNhbGlm
b3JuaWExFjAUBgNVBAcMDVNhbiBGcmFuY2lzY28xIDAeBgNVBAoMF0NvcHlsZWZ0
IENlcnRpZmljYXRlIENvMR8wHQYDVQQLDBZNeSBPcmdhbml6YXRpb25hbCBVbml0
MREwDwYDVQQDDAhDaGFuZ2VNZTEdMBsGCSqGSIb3DQEJARYObWVAZXhhbXBsZS5u
ZXSCCQDRWhUc8CCVYjATBgNVHSUEDDAKBggrBgEFBQcDAjALBgNVHQ8EBAMCB4Aw
DQYJKoZIhvcNAQELBQADggEBACanWxpZlV+KsoG9YNCrBOCq24bkCrAXrT7gp81X
KGdwxG92qVBc9S6yjAlmrGyRDEq+y4FtoLgmVaGmmIajrbj3LkWR/o/a0oSuiCue
WzslQdZLWZFq3KTV2cWEki8bD9fv0aYn5K9Z+vieMi7+kZ5/gusQnUjbMsEAAe/m
Muoo94fa5GKrF66DND2LC9bH7MHhiPijCgIu2Lr0LtDebpHgrgk+dW2UqEGmRwzZ
tdJuF/kLvwO7wHiETaS2AYhd1C2DihaTomuuP5gOvfsc+MhqRSfIiXX8Qrv/JcVw
nP44s70BxMPNrN2kA7rU+7yiWqlYTDsKFwHdiQmsxvKl788=
-----END CERTIFICATE-----
