Certificate:
    Data:
        Version: 3 (0x2)
        Serial Number:
            23:e6:75:03:69:30:28:cc:d4:a9:15:52:d6:4f:bc:d0
    Signature Algorithm: sha256WithRSAEncryption
        Issuer: C=US, ST=California, L=San Francisco, O=Copyleft Certificate Co, OU=My Organizational Unit, CN=ChangeMe/emailAddress=me@example.net
        Validity
            Not Before: Nov 11 18:51:04 2023 GMT
            Not After : Nov 10 18:51:04 2024 GMT
        Subject: C=US, ST=OH, L=Cincinnati, O=University of Cincinnati ., OU=Dept. Elec. Comp. . Eng. Comp. Sci., CN=client17/emailAddress=franco@gauss.ececs.uc.edu
        Subject Public Key Info:
            Public Key Algorithm: rsaEncryption
                Public-Key: (2048 bit)
                Modulus:
                    00:cb:dd:ec:ed:5d:3e:11:0e:6d:42:6a:4c:6e:10:
                    cc:d6:64:57:cf:b3:09:4d:07:71:4a:52:aa:eb:1f:
                    86:cf:c3:95:39:a5:e6:46:30:ca:43:b6:f6:ed:dd:
                    8a:cd:af:61:b0:96:ee:5b:b8:96:e9:c4:79:c3:65:
                    b7:c3:29:ef:22:95:ae:89:45:b7:42:6f:91:2d:03:
                    51:ff:f1:c9:8b:b4:f9:f7:59:d7:85:70:93:35:7a:
                    9a:9b:95:c2:a7:b2:c0:64:8f:f9:e1:f9:0c:c4:60:
                    93:2a:7f:d7:ae:22:e7:fd:57:41:00:64:b5:f0:f1:
                    09:02:ec:b9:d0:14:66:f7:2d:80:91:d4:13:bd:dc:
                    ab:e3:e3:4b:bf:74:18:4e:04:a2:9c:e4:e9:c4:a7:
                    72:d3:98:87:76:37:b7:b6:85:72:d3:bc:a2:7f:ab:
                    8d:45:ae:43:7d:48:84:6a:e4:ac:ce:54:e5:98:3a:
                    05:a8:8c:8b:9e:8c:a9:6a:0d:33:50:0a:30:19:20:
                    5b:8f:f9:d1:9b:67:0f:15:ce:6b:a5:e9:08:8e:1a:
                    64:74:73:52:d7:b8:39:e1:80:c0:c6:35:dc:57:29:
                    55:81:a7:e2:93:fe:75:47:df:eb:25:0b:61:7c:23:
                    6b:20:df:01:e1:34:a0:70:2d:9e:49:45:b6:d2:36:
                    88:4f
                Exponent: 65537 (0x10001)
        X509v3 extensions:
            X509v3 Basic Constraints: 
                CA:FALSE
            X509v3 Subject Key Identifier: 
                02:79:B0:07:EC:F6:D1:05:80:C9:7C:DE:81:1D:2F:E5:B6:CD:8C:10
            X509v3 Authority Key Identifier: 
                keyid:9C:0E:D5:A3:16:6F:C8:23:88:D1:12:C9:63:5D:18:D9:C9:FC:5B:E9
                DirName:/C=US/ST=California/L=San Francisco/O=Copyleft Certificate Co/OU=My Organizational Unit/CN=ChangeMe/emailAddress=me@example.net
                serial:A3:08:26:80:D2:47:98:75

            X509v3 Extended Key Usage: 
                TLS Web Client Authentication
            X509v3 Key Usage: 
                Digital Signature
    Signature Algorithm: sha256WithRSAEncryption
         08:69:a7:46:76:8e:bf:e6:5f:ed:bb:fe:9c:4a:17:ee:ac:3e:
         1d:12:fe:1a:cd:c2:09:d2:9e:69:5e:2f:37:e3:49:8b:cc:4f:
         60:ef:ca:6f:c4:fb:b5:fb:13:09:1f:f0:76:31:03:c8:39:f7:
         15:f9:6d:0f:53:77:37:a8:d4:b6:b1:54:a6:ab:6b:77:6b:9a:
         11:c5:10:16:da:08:8e:64:04:89:e4:5e:7b:fa:60:46:44:ba:
         5f:a4:fc:ab:c6:53:08:8e:b7:d9:f4:6b:05:66:98:06:eb:a0:
         47:ba:88:47:c1:d1:98:6d:8e:ed:66:77:0c:91:cf:76:7d:01:
         05:ab:e2:cc:94:b6:db:f4:9e:35:16:f6:6f:cb:3f:ea:48:d8:
         cc:38:c5:54:32:0a:06:65:17:d7:4d:16:8e:b7:96:66:c9:b7:
         bb:d6:68:bc:8a:cc:b6:32:af:5d:62:bb:45:42:5b:5f:29:1e:
         56:ce:bd:0b:9e:60:c7:02:c3:22:6f:38:5f:a4:04:e8:2d:ee:
         14:0e:ea:5f:0f:7c:27:af:42:e2:a2:8d:44:52:77:7a:c3:7d:
         3d:e6:82:0a:f4:29:ec:52:31:0e:c3:ce:0e:33:24:2a:f7:18:
         c5:4c:a5:07:58:e4:33:2d:3a:8c:28:db:1b:cc:e5:15:01:8c:
         8c:30:de:c0
-----BEGIN CERTIFICATE-----
MIIFMzCCBBugAwIBAgIQI+Z1A2kwKMzUqRVS1k+80DANBgkqhkiG9w0BAQsFADCB
rzELMAkGA1UEBhMCVVMxEzARBgNVBAgMCkNhbGlmb3JuaWExFjAUBgNVBAcMDVNh
biBGcmFuY2lzY28xIDAeBgNVBAoMF0NvcHlsZWZ0IENlcnRpZmljYXRlIENvMR8w
HQYDVQQLDBZNeSBPcmdhbml6YXRpb25hbCBVbml0MREwDwYDVQQDDAhDaGFuZ2VN
ZTEdMBsGCSqGSIb3DQEJARYObWVAZXhhbXBsZS5uZXQwHhcNMjMxMTExMTg1MTA0
WhcNMjQxMTEwMTg1MTA0WjCBvzELMAkGA1UEBhMCVVMxCzAJBgNVBAgMAk9IMRMw
EQYDVQQHDApDaW5jaW5uYXRpMSMwIQYDVQQKDBpVbml2ZXJzaXR5IG9mIENpbmNp
bm5hdGkgLjEsMCoGA1UECwwjRGVwdC4gRWxlYy4gQ29tcC4gLiBFbmcuIENvbXAu
IFNjaS4xETAPBgNVBAMMCGNsaWVudDE3MSgwJgYJKoZIhvcNAQkBFhlmcmFuY29A
Z2F1c3MuZWNlY3MudWMuZWR1MIIBIjANBgkqhkiG9w0BAQEFAAOCAQ8AMIIBCgKC
AQEAy93s7V0+EQ5tQmpMbhDM1mRXz7MJTQdxSlKq6x+Gz8OVOaXmRjDKQ7b27d2K
za9hsJbuW7iW6cR5w2W3wynvIpWuiUW3Qm+RLQNR//HJi7T591nXhXCTNXqam5XC
p7LAZI/54fkMxGCTKn/XriLn/VdBAGS18PEJAuy50BRm9y2AkdQTvdyr4+NLv3QY
TgSinOTpxKdy05iHdje3toVy07yif6uNRa5DfUiEauSszlTlmDoFqIyLnoypag0z
UAowGSBbj/nRm2cPFc5rpekIjhpkdHNS17g54YDAxjXcVylVgafik/51R9/rJQth
fCNrIN8B4TSgcC2eSUW20jaITwIDAQABo4IBNzCCATMwCQYDVR0TBAIwADAdBgNV
HQ4EFgQUAnmwB+z20QWAyXzegR0v5bbNjBAwgeQGA1UdIwSB3DCB2YAUnA7VoxZv
yCOI0RLJY10Y2cn8W+mhgbWkgbIwga8xCzAJBgNVBAYTAlVTMRMwEQYDVQQIDApD
YWxpZm9ybmlhMRYwFAYDVQQHDA1TYW4gRnJhbmNpc2NvMSAwHgYDVQQKDBdDb3B5
bGVmdCBDZXJ0aWZpY2F0ZSBDbzEfMB0GA1UECwwWTXkgT3JnYW5pemF0aW9uYWwg
VW5pdDERMA8GA1UEAwwIQ2hhbmdlTWUxHTAbBgkqhkiG9w0BCQEWDm1lQGV4YW1w
bGUubmV0ggkAowgmgNJHmHUwEwYDVR0lBAwwCgYIKwYBBQUHAwIwCwYDVR0PBAQD
AgeAMA0GCSqGSIb3DQEBCwUAA4IBAQAIaadGdo6/5l/tu/6cShfurD4dEv4azcIJ
0p5pXi8340mLzE9g78pvxPu1+xMJH/B2MQPIOfcV+W0PU3c3qNS2sVSmq2t3a5oR
xRAW2giOZASJ5F57+mBGRLpfpPyrxlMIjrfZ9GsFZpgG66BHuohHwdGYbY7tZncM
kc92fQEFq+LMlLbb9J41FvZvyz/qSNjMOMVUMgoGZRfXTRaOt5Zmybe71mi8isy2
Mq9dYrtFQltfKR5Wzr0LnmDHAsMibzhfpAToLe4UDupfD3wnr0Lioo1EUnd6w309
5oIK9CnsUjEOw84OMyQq9xjFTKUHWOQzLTqMKNsbzOUVAYyMMN7A
-----END CERTIFICATE-----
