Certificate:
    Data:
        Version: 3 (0x2)
        Serial Number:
            25:a1:b6:f3:a4:f8:62:92:a8:80:1f:da:fe:fd:d8:15
    Signature Algorithm: sha256WithRSAEncryption
        Issuer: C=US, ST=California, L=San Francisco, O=Copyleft Certificate Co, OU=My Organizational Unit, CN=ChangeMe/emailAddress=me@example.net
        Validity
            Not Before: Nov 11 02:00:35 2023 GMT
            Not After : Nov 10 02:00:35 2024 GMT
        Subject: C=US, ST=OH, L=Cincinnati, O=University of Cincinnati, OU=Dept. Elec. Comp. Eng. Comp. Sci., CN=client38/emailAddress=franco@gauss.ececs.uc.edu
        Subject Public Key Info:
            Public Key Algorithm: rsaEncryption
                Public-Key: (2048 bit)
                Modulus:
                    00:da:d9:6c:96:53:4e:d6:cd:36:5c:06:98:b5:90:
                    fe:9d:4d:1b:28:d5:3e:cc:59:23:56:9b:3b:40:11:
                    8b:99:73:aa:55:2a:07:e0:de:65:e6:38:10:fd:c7:
                    9b:18:b2:15:09:fe:d3:50:de:39:cf:e2:e8:70:89:
                    d8:bb:a7:9e:6e:ae:ef:34:b4:ee:2e:ec:f8:fb:50:
                    37:74:e7:09:3b:98:35:98:b0:b4:ea:19:45:43:3e:
                    45:40:3a:b2:fa:79:71:3f:6e:a3:65:0f:d5:4d:7c:
                    aa:79:2a:dc:4f:5d:a0:88:14:33:f1:33:8a:31:0a:
                    c8:7e:19:ba:23:aa:6e:bf:d2:26:97:e0:c7:47:9f:
                    3b:8b:24:2c:d8:09:f2:29:f5:eb:e0:6f:0e:b0:ee:
                    7a:11:eb:70:ab:92:c7:c6:10:43:c0:cd:9c:bd:13:
                    3c:6a:09:9b:7b:9d:ec:b7:af:a0:dd:7e:f5:a9:cb:
                    74:eb:4b:a0:47:11:72:ba:65:a4:69:b9:fc:bf:58:
                    1b:a3:e9:f2:43:4d:0a:9f:4b:69:a3:27:47:c4:c2:
                    34:d3:55:b8:b7:7b:65:13:93:1d:de:07:19:9a:e1:
                    7f:c3:4d:27:31:23:e4:71:2d:5e:0c:be:cf:ea:8e:
                    fe:2f:8b:95:09:5a:1e:d4:b3:fa:6b:7f:18:2d:03:
                    0f:7d
                Exponent: 65537 (0x10001)
        X509v3 extensions:
            X509v3 Basic Constraints: 
                CA:FALSE
            X509v3 Subject Key Identifier: 
                69:5E:47:71:B5:18:D7:9B:F3:61:28:86:1C:46:17:35:1A:2A:34:08
            X509v3 Authority Key Identifier: 
                keyid:7B:0F:93:16:64:9F:71:41:D3:1B:FB:ED:6A:70:9B:CA:2E:70:F0:4B
                DirName:/C=US/ST=California/L=San Francisco/O=Copyleft Certificate Co/OU=My Organizational Unit/CN=ChangeMe/emailAddress=me@example.net
                serial:B9:F2:4E:2C:79:B3:D4:6C

            X509v3 Extended Key Usage: 
                TLS Web Client Authentication
            X509v3 Key Usage: 
                Digital Signature
    Signature Algorithm: sha256WithRSAEncryption
         0e:10:ba:81:26:45:c9:be:e2:ab:ef:22:94:7e:32:77:db:0d:
         89:58:3a:c5:58:1a:3f:55:55:41:e9:2c:f3:56:30:6a:b0:5d:
         89:25:80:29:4f:17:14:12:19:bd:93:29:e8:c7:fc:0e:07:54:
         f2:b1:3b:63:2f:96:ce:e1:28:cc:3d:1f:8c:95:5d:00:22:d6:
         6a:89:68:c3:86:9a:97:38:ac:c4:d7:c6:87:32:09:b7:41:4d:
         e4:fc:7e:25:fb:69:3e:09:93:c1:ab:32:06:fb:20:6f:3f:d1:
         d3:c3:81:2c:cc:85:04:cf:03:b9:37:27:03:12:09:e7:ca:d6:
         85:ee:f4:09:e0:db:b4:55:45:4d:fd:41:3f:8a:f8:ac:3e:2d:
         a6:3f:38:cc:cf:de:30:94:d9:09:7d:90:1b:02:66:9d:ce:5c:
         1c:c2:45:a2:17:dd:d6:60:b5:ed:8c:73:99:94:bd:bd:fe:d7:
         6b:b6:33:61:8e:f3:5e:a4:7b:d1:f3:75:a9:b4:72:77:09:a9:
         ac:96:d6:e5:e8:72:88:26:b1:67:68:ba:a4:2e:17:d5:f7:29:
         9d:eb:27:00:56:c6:a2:15:62:53:37:ca:45:d5:ba:92:2f:ad:
         e0:71:41:01:8a:c1:9e:45:23:fe:f5:8f:e0:82:c7:84:e0:86:
         0d:cd:9f:c7
-----BEGIN CERTIFICATE-----
MIIFLzCCBBegAwIBAgIQJaG286T4YpKogB/a/v3YFTANBgkqhkiG9w0BAQsFADCB
rzELMAkGA1UEBhMCVVMxEzARBgNVBAgMCkNhbGlmb3JuaWExFjAUBgNVBAcMDVNh
biBGcmFuY2lzY28xIDAeBgNVBAoMF0NvcHlsZWZ0IENlcnRpZmljYXRlIENvMR8w
HQYDVQQLDBZNeSBPcmdhbml6YXRpb25hbCBVbml0MREwDwYDVQQDDAhDaGFuZ2VN
ZTEdMBsGCSqGSIb3DQEJARYObWVAZXhhbXBsZS5uZXQwHhcNMjMxMTExMDIwMDM1
WhcNMjQxMTEwMDIwMDM1WjCBuzELMAkGA1UEBhMCVVMxCzAJBgNVBAgMAk9IMRMw
EQYDVQQHDApDaW5jaW5uYXRpMSEwHwYDVQQKDBhVbml2ZXJzaXR5IG9mIENpbmNp
bm5hdGkxKjAoBgNVBAsMIURlcHQuIEVsZWMuIENvbXAuIEVuZy4gQ29tcC4gU2Np
LjERMA8GA1UEAwwIY2xpZW50MzgxKDAmBgkqhkiG9w0BCQEWGWZyYW5jb0BnYXVz
cy5lY2Vjcy51Yy5lZHUwggEiMA0GCSqGSIb3DQEBAQUAA4IBDwAwggEKAoIBAQDa
2WyWU07WzTZcBpi1kP6dTRso1T7MWSNWmztAEYuZc6pVKgfg3mXmOBD9x5sYshUJ
/tNQ3jnP4uhwidi7p55uru80tO4u7Pj7UDd05wk7mDWYsLTqGUVDPkVAOrL6eXE/
bqNlD9VNfKp5KtxPXaCIFDPxM4oxCsh+Gbojqm6/0iaX4MdHnzuLJCzYCfIp9evg
bw6w7noR63CrksfGEEPAzZy9EzxqCZt7ney3r6DdfvWpy3TrS6BHEXK6ZaRpufy/
WBuj6fJDTQqfS2mjJ0fEwjTTVbi3e2UTkx3eBxma4X/DTScxI+RxLV4Mvs/qjv4v
i5UJWh7Us/prfxgtAw99AgMBAAGjggE3MIIBMzAJBgNVHRMEAjAAMB0GA1UdDgQW
BBRpXkdxtRjXm/NhKIYcRhc1Gio0CDCB5AYDVR0jBIHcMIHZgBR7D5MWZJ9xQdMb
++1qcJvKLnDwS6GBtaSBsjCBrzELMAkGA1UEBhMCVVMxEzARBgNVBAgMCkNhbGlm
b3JuaWExFjAUBgNVBAcMDVNhbiBGcmFuY2lzY28xIDAeBgNVBAoMF0NvcHlsZWZ0
IENlcnRpZmljYXRlIENvMR8wHQYDVQQLDBZNeSBPcmdhbml6YXRpb25hbCBVbml0
MREwDwYDVQQDDAhDaGFuZ2VNZTEdMBsGCSqGSIb3DQEJARYObWVAZXhhbXBsZS5u
ZXSCCQC58k4sebPUbDATBgNVHSUEDDAKBggrBgEFBQcDAjALBgNVHQ8EBAMCB4Aw
DQYJKoZIhvcNAQELBQADggEBAA4QuoEmRcm+4qvvIpR+MnfbDYlYOsVYGj9VVUHp
LPNWMGqwXYklgClPFxQSGb2TKejH/A4HVPKxO2Mvls7hKMw9H4yVXQAi1mqJaMOG
mpc4rMTXxocyCbdBTeT8fiX7aT4Jk8GrMgb7IG8/0dPDgSzMhQTPA7k3JwMSCefK
1oXu9Ang27RVRU39QT+K+Kw+LaY/OMzP3jCU2Ql9kBsCZp3OXBzCRaIX3dZgte2M
c5mUvb3+12u2M2GO816ke9Hzdam0cncJqayW1uXocogmsWdouqQuF9X3KZ3rJwBW
xqIVYlM3ykXVupIvreBxQQGKwZ5FI/71j+CCx4Tghg3Nn8c=
-----END CERTIFICATE-----
