Certificate:
    Data:
        Version: 3 (0x2)
        Serial Number:
            26:91:a2:06:94:ce:70:0f:d8:7b:2b:61:06:0a:9a:ad
    Signature Algorithm: sha256WithRSAEncryption
        Issuer: C=US, ST=California, L=San Francisco, O=Copyleft Certificate Co, OU=My Organizational Unit, CN=ChangeMe/emailAddress=me@example.net
        Validity
            Not Before: Nov 12 11:47:07 2023 GMT
            Not After : Nov 11 11:47:07 2024 GMT
        Subject: C=US, ST=OH, L=Cincinnati, O=University of Cincinnati, OU=Dept. Elec. Comp. Eng. Comp. Sci., CN=client13/emailAddress=franco@gauss.ececs.uc.edu
        Subject Public Key Info:
            Public Key Algorithm: rsaEncryption
                Public-Key: (2048 bit)
                Modulus:
                    00:96:36:7e:fc:c7:e5:c8:ed:df:52:8a:49:51:b0:
                    68:d8:ce:cf:ab:8e:b8:5c:ce:c1:86:b6:2d:b6:a9:
                    d7:31:c5:50:9b:ad:1a:62:51:47:33:dd:91:10:1a:
                    37:34:9c:3f:50:48:e5:c8:71:e6:11:cf:d6:da:91:
                    00:c0:fb:20:62:2d:ee:4b:7c:4a:d8:74:95:3e:68:
                    1a:0c:50:a9:a0:09:49:a6:c0:ef:9b:16:61:60:a1:
                    64:4c:cf:9f:1a:8f:6e:1c:b2:cf:fc:b3:46:95:73:
                    dd:f9:fa:13:99:50:b1:13:2e:16:46:5d:ec:29:43:
                    09:37:96:e5:fe:80:e4:99:fc:2c:22:44:d9:b1:42:
                    6e:2f:2c:9c:de:a6:17:74:0a:b1:ff:e3:16:ee:94:
                    31:c9:21:0d:0f:6c:ee:be:7e:e0:b8:23:42:99:1d:
                    8a:a0:b3:57:d6:ad:06:80:b9:a7:bd:c8:43:8f:46:
                    7c:8f:71:33:79:ef:21:32:3e:fa:f2:75:ed:37:0a:
                    c2:8f:df:75:6d:44:48:00:3b:ce:e0:88:cd:11:46:
                    be:95:78:92:24:5b:06:f5:6c:1e:3f:6d:03:af:fc:
                    5c:5d:9f:fd:c7:70:7f:12:d7:0f:22:bc:65:1b:ee:
                    55:62:c3:f9:c7:d0:e8:18:06:75:f8:e0:16:df:10:
                    de:0b
                Exponent: 65537 (0x10001)
        X509v3 extensions:
            X509v3 Basic Constraints: 
                CA:FALSE
            X509v3 Subject Key Identifier: 
                E5:A4:BF:62:8C:B2:F0:57:55:45:2E:CD:F3:76:9C:2F:3E:A9:B1:17
            X509v3 Authority Key Identifier: 
                keyid:C4:46:F2:96:38:56:02:B8:9D:09:04:52:25:91:35:97:6A:D7:B1:F0
                DirName:/C=US/ST=California/L=San Francisco/O=Copyleft Certificate Co/OU=My Organizational Unit/CN=ChangeMe/emailAddress=me@example.net
                serial:D1:5A:15:1C:F0:20:95:62

            X509v3 Extended Key Usage: 
                TLS Web Client Authentication
            X509v3 Key Usage: 
                Digital Signature
    Signature Algorithm: sha256WithRSAEncryption
         62:79:a2:f8:b6:1a:27:1b:b3:e2:6e:9e:35:c6:96:c4:bf:83:
         5b:cb:00:9c:51:7a:d1:8c:6d:10:08:9c:44:19:8b:5c:5f:40:
         a5:1a:0d:71:ec:03:d3:21:b2:f8:f8:c5:da:95:14:b1:b4:e5:
         fb:b4:a3:86:54:97:87:14:59:ba:a4:7d:7c:a0:d6:5c:1b:ad:
         2f:7f:8f:35:f7:cf:c4:db:49:fd:e1:d2:84:ba:71:e5:6e:e6:
         9d:3b:19:12:33:30:a5:45:ee:6b:a5:14:2b:45:e5:b1:60:f6:
         f1:67:5d:7e:56:25:c8:ed:ac:02:f6:d7:b7:d0:39:ce:2f:f3:
         99:72:1a:33:bd:d3:13:ee:7b:a2:ed:11:f0:c3:37:a1:20:c4:
         70:9a:05:0a:e4:1f:57:50:c5:f6:12:86:79:fc:7a:f2:10:f5:
         e6:d8:92:9d:06:6c:b4:c7:0b:68:6c:31:35:8d:62:e7:86:87:
         1c:6c:81:8c:14:20:3a:66:7a:5e:3a:3f:9e:67:8a:c0:aa:00:
         af:13:7a:43:4b:7f:21:e1:f4:12:37:6a:f6:56:b4:f9:29:87:
         0a:b8:c4:18:b4:fb:f0:e0:d6:0c:33:30:7d:dd:64:03:98:33:
         df:d3:cf:7d:c9:65:ef:e4:96:f4:ed:43:5f:50:5f:a1:10:b5:
         d8:ea:2f:d2
-----BEGIN CERTIFICATE-----
MIIFLzCCBBegAwIBAgIQJpGiBpTOcA/YeythBgqarTANBgkqhkiG9w0BAQsFADCB
rzELMAkGA1UEBhMCVVMxEzARBgNVBAgMCkNhbGlmb3JuaWExFjAUBgNVBAcMDVNh
biBGcmFuY2lzY28xIDAeBgNVBAoMF0NvcHlsZWZ0IENlcnRpZmljYXRlIENvMR8w
HQYDVQQLDBZNeSBPcmdhbml6YXRpb25hbCBVbml0MREwDwYDVQQDDAhDaGFuZ2VN
ZTEdMBsGCSqGSIb3DQEJARYObWVAZXhhbXBsZS5uZXQwHhcNMjMxMTEyMTE0NzA3
WhcNMjQxMTExMTE0NzA3WjCBuzELMAkGA1UEBhMCVVMxCzAJBgNVBAgMAk9IMRMw
EQYDVQQHDApDaW5jaW5uYXRpMSEwHwYDVQQKDBhVbml2ZXJzaXR5IG9mIENpbmNp
bm5hdGkxKjAoBgNVBAsMIURlcHQuIEVsZWMuIENvbXAuIEVuZy4gQ29tcC4gU2Np
LjERMA8GA1UEAwwIY2xpZW50MTMxKDAmBgkqhkiG9w0BCQEWGWZyYW5jb0BnYXVz
cy5lY2Vjcy51Yy5lZHUwggEiMA0GCSqGSIb3DQEBAQUAA4IBDwAwggEKAoIBAQCW
Nn78x+XI7d9SiklRsGjYzs+rjrhczsGGti22qdcxxVCbrRpiUUcz3ZEQGjc0nD9Q
SOXIceYRz9bakQDA+yBiLe5LfErYdJU+aBoMUKmgCUmmwO+bFmFgoWRMz58aj24c
ss/8s0aVc935+hOZULETLhZGXewpQwk3luX+gOSZ/CwiRNmxQm4vLJzephd0CrH/
4xbulDHJIQ0PbO6+fuC4I0KZHYqgs1fWrQaAuae9yEOPRnyPcTN57yEyPvryde03
CsKP33VtREgAO87giM0RRr6VeJIkWwb1bB4/bQOv/Fxdn/3HcH8S1w8ivGUb7lVi
w/nH0OgYBnX44BbfEN4LAgMBAAGjggE3MIIBMzAJBgNVHRMEAjAAMB0GA1UdDgQW
BBTlpL9ijLLwV1VFLs3zdpwvPqmxFzCB5AYDVR0jBIHcMIHZgBTERvKWOFYCuJ0J
BFIlkTWXatex8KGBtaSBsjCBrzELMAkGA1UEBhMCVVMxEzARBgNVBAgMCkNhbGlm
b3JuaWExFjAUBgNVBAcMDVNhbiBGcmFuY2lzY28xIDAeBgNVBAoMF0NvcHlsZWZ0
IENlcnRpZmljYXRlIENvMR8wHQYDVQQLDBZNeSBPcmdhbml6YXRpb25hbCBVbml0
MREwDwYDVQQDDAhDaGFuZ2VNZTEdMBsGCSqGSIb3DQEJARYObWVAZXhhbXBsZS5u
ZXSCCQDRWhUc8CCVYjATBgNVHSUEDDAKBggrBgEFBQcDAjALBgNVHQ8EBAMCB4Aw
DQYJKoZIhvcNAQELBQADggEBAGJ5ovi2Gicbs+JunjXGlsS/g1vLAJxRetGMbRAI
nEQZi1xfQKUaDXHsA9Mhsvj4xdqVFLG05fu0o4ZUl4cUWbqkfXyg1lwbrS9/jzX3
z8TbSf3h0oS6ceVu5p07GRIzMKVF7mulFCtF5bFg9vFnXX5WJcjtrAL217fQOc4v
85lyGjO90xPue6LtEfDDN6EgxHCaBQrkH1dQxfYShnn8evIQ9ebYkp0GbLTHC2hs
MTWNYueGhxxsgYwUIDpmel46P55nisCqAK8TekNLfyHh9BI3avZWtPkphwq4xBi0
+/Dg1gwzMH3dZAOYM9/Tz33JZe/klvTtQ19QX6EQtdjqL9I=
-----END CERTIFICATE-----
