Certificate:
    Data:
        Version: 3 (0x2)
        Serial Number:
            27:21:74:87:b7:85:9f:c1:57:39:fc:6a:3f:6c:39:61
    Signature Algorithm: sha256WithRSAEncryption
        Issuer: C=US, ST=California, L=San Francisco, O=Copyleft Certificate Co, OU=My Organizational Unit, CN=ChangeMe/emailAddress=me@example.net
        Validity
            Not Before: Jan 23 18:28:35 2021 GMT
            Not After : Jan 23 18:28:35 2022 GMT
        Subject: C=US, ST=OH, L=Cincinnati, O=University of Cincinnati, OU=Dept. Electrical Eng. and Computer Sci., CN=client56/emailAddress=franco@gauss.ececs.uc.edu
        Subject Public Key Info:
            Public Key Algorithm: rsaEncryption
                Public-Key: (2048 bit)
                Modulus:
                    00:da:ce:32:02:27:42:09:c0:89:2a:06:78:2f:dd:
                    20:7b:f3:8b:9d:9b:9c:cc:59:78:c5:16:ef:f2:c6:
                    f8:31:02:22:82:f4:d5:e8:e1:25:8f:60:83:e6:ab:
                    aa:c5:5d:fa:b5:37:c0:d3:8c:5e:4f:95:61:57:3b:
                    f4:55:6e:05:6c:6b:c1:6f:ee:f6:7a:e8:eb:8e:40:
                    56:03:84:e6:38:53:c1:2e:52:fd:bf:75:03:f4:2b:
                    9e:42:8d:49:20:bb:f6:c8:52:2c:74:54:c7:19:95:
                    a0:b3:6f:e0:06:2f:af:eb:f0:01:61:fa:69:b8:09:
                    b9:b4:2b:f6:6e:2f:68:72:82:94:f2:59:d2:ab:dc:
                    e7:ff:28:0a:74:44:21:0f:ad:bc:9d:72:78:78:33:
                    94:7c:63:f8:56:7b:b7:db:20:3a:14:d4:fc:64:3a:
                    06:eb:2d:c1:38:0f:5d:36:76:8f:12:dd:65:fd:01:
                    4a:ba:08:84:2c:ad:17:4d:28:ee:6e:be:f2:1c:5e:
                    21:d4:82:45:20:ae:fa:4e:b1:d2:eb:18:70:ae:33:
                    bc:58:0f:59:90:f0:3b:88:34:d0:66:31:f5:31:b1:
                    d2:70:55:26:03:25:35:ce:8f:97:71:d7:48:a2:dd:
                    6d:69:a6:92:cb:84:06:71:fd:f8:9b:13:77:4b:93:
                    a6:05
                Exponent: 65537 (0x10001)
        X509v3 extensions:
            X509v3 Basic Constraints: 
                CA:FALSE
            X509v3 Subject Key Identifier: 
                F3:26:7E:5D:1E:9B:50:EB:D3:FB:68:03:96:33:EB:F3:4A:62:70:C4
            X509v3 Authority Key Identifier: 
                keyid:EF:DC:B6:3D:4B:FD:A7:87:05:C5:22:3D:8B:DC:BF:99:2A:EE:E4:DB
                DirName:/C=US/ST=California/L=San Francisco/O=Copyleft Certificate Co/OU=My Organizational Unit/CN=ChangeMe/emailAddress=me@example.net
                serial:87:1E:1D:DC:6B:8C:66:88

            X509v3 Extended Key Usage: 
                TLS Web Client Authentication
            X509v3 Key Usage: 
                Digital Signature
    Signature Algorithm: sha256WithRSAEncryption
         4f:e1:e5:00:fd:c0:9c:29:c0:72:29:86:0e:02:6a:04:76:f2:
         18:13:7c:bb:3f:76:7d:b3:26:6a:b3:d7:f0:ed:5e:97:dd:52:
         2b:ba:bc:a3:a6:28:11:78:93:56:a6:22:92:2d:23:8d:0e:73:
         8a:00:00:93:1f:e9:ca:bf:88:27:b8:59:aa:a3:b3:a5:96:29:
         a9:e0:5b:7c:9c:cb:f0:36:d1:cf:3f:47:dc:8c:d0:9f:fb:d5:
         14:80:2f:d0:60:b0:77:99:8c:04:6c:d5:6e:a6:6f:ae:48:09:
         b6:50:d0:01:54:b3:2a:38:df:64:fe:86:09:77:a6:5c:98:4a:
         20:dc:e6:50:f6:64:b5:ee:53:0c:88:f9:c8:9e:7f:7c:a5:10:
         d5:83:64:00:84:7d:c8:99:4e:6f:cf:7e:c2:04:6e:3d:3b:a3:
         6c:ee:2a:12:e7:12:f1:61:25:b6:2d:b1:b8:8c:ab:7e:6e:88:
         31:e0:03:d8:f4:4a:20:cf:2d:93:58:5a:21:ce:89:4b:a4:d0:
         50:45:19:ac:0c:24:71:44:7f:6b:39:71:bd:cc:79:2a:f3:b5:
         b0:02:57:96:e4:00:b6:a9:15:ac:62:cd:c8:a2:ce:3b:d3:f2:
         fc:8a:c5:3e:72:51:6b:e2:06:41:59:1e:5e:c0:61:0f:24:87:
         a3:46:04:af
-----BEGIN CERTIFICATE-----
MIIFNTCCBB2gAwIBAgIQJyF0h7eFn8FXOfxqP2w5YTANBgkqhkiG9w0BAQsFADCB
rzELMAkGA1UEBhMCVVMxEzARBgNVBAgMCkNhbGlmb3JuaWExFjAUBgNVBAcMDVNh
biBGcmFuY2lzY28xIDAeBgNVBAoMF0NvcHlsZWZ0IENlcnRpZmljYXRlIENvMR8w
HQYDVQQLDBZNeSBPcmdhbml6YXRpb25hbCBVbml0MREwDwYDVQQDDAhDaGFuZ2VN
ZTEdMBsGCSqGSIb3DQEJARYObWVAZXhhbXBsZS5uZXQwHhcNMjEwMTIzMTgyODM1
WhcNMjIwMTIzMTgyODM1WjCBwTELMAkGA1UEBhMCVVMxCzAJBgNVBAgMAk9IMRMw
EQYDVQQHDApDaW5jaW5uYXRpMSEwHwYDVQQKDBhVbml2ZXJzaXR5IG9mIENpbmNp
bm5hdGkxMDAuBgNVBAsMJ0RlcHQuIEVsZWN0cmljYWwgRW5nLiBhbmQgQ29tcHV0
ZXIgU2NpLjERMA8GA1UEAwwIY2xpZW50NTYxKDAmBgkqhkiG9w0BCQEWGWZyYW5j
b0BnYXVzcy5lY2Vjcy51Yy5lZHUwggEiMA0GCSqGSIb3DQEBAQUAA4IBDwAwggEK
AoIBAQDazjICJ0IJwIkqBngv3SB784udm5zMWXjFFu/yxvgxAiKC9NXo4SWPYIPm
q6rFXfq1N8DTjF5PlWFXO/RVbgVsa8Fv7vZ66OuOQFYDhOY4U8EuUv2/dQP0K55C
jUkgu/bIUix0VMcZlaCzb+AGL6/r8AFh+mm4Cbm0K/ZuL2hygpTyWdKr3Of/KAp0
RCEPrbydcnh4M5R8Y/hWe7fbIDoU1PxkOgbrLcE4D102do8S3WX9AUq6CIQsrRdN
KO5uvvIcXiHUgkUgrvpOsdLrGHCuM7xYD1mQ8DuINNBmMfUxsdJwVSYDJTXOj5dx
10ii3W1pppLLhAZx/fibE3dLk6YFAgMBAAGjggE3MIIBMzAJBgNVHRMEAjAAMB0G
A1UdDgQWBBTzJn5dHptQ69P7aAOWM+vzSmJwxDCB5AYDVR0jBIHcMIHZgBTv3LY9
S/2nhwXFIj2L3L+ZKu7k26GBtaSBsjCBrzELMAkGA1UEBhMCVVMxEzARBgNVBAgM
CkNhbGlmb3JuaWExFjAUBgNVBAcMDVNhbiBGcmFuY2lzY28xIDAeBgNVBAoMF0Nv
cHlsZWZ0IENlcnRpZmljYXRlIENvMR8wHQYDVQQLDBZNeSBPcmdhbml6YXRpb25h
bCBVbml0MREwDwYDVQQDDAhDaGFuZ2VNZTEdMBsGCSqGSIb3DQEJARYObWVAZXhh
bXBsZS5uZXSCCQCHHh3ca4xmiDATBgNVHSUEDDAKBggrBgEFBQcDAjALBgNVHQ8E
BAMCB4AwDQYJKoZIhvcNAQELBQADggEBAE/h5QD9wJwpwHIphg4CagR28hgTfLs/
dn2zJmqz1/DtXpfdUiu6vKOmKBF4k1amIpItI40Oc4oAAJMf6cq/iCe4Waqjs6WW
KangW3ycy/A20c8/R9yM0J/71RSAL9BgsHeZjARs1W6mb65ICbZQ0AFUsyo432T+
hgl3plyYSiDc5lD2ZLXuUwyI+cief3ylENWDZACEfciZTm/PfsIEbj07o2zuKhLn
EvFhJbYtsbiMq35uiDHgA9j0SiDPLZNYWiHOiUuk0FBFGawMJHFEf2s5cb3MeSrz
tbACV5bkALapFaxizciizjvT8vyKxT5yUWviBkFZHl7AYQ8kh6NGBK8=
-----END CERTIFICATE-----
