Certificate:
    Data:
        Version: 3 (0x2)
        Serial Number:
            27:b5:e7:ad:fa:2e:f0:c0:b8:65:e0:73:11:95:b5:cc
    Signature Algorithm: sha256WithRSAEncryption
        Issuer: C=US, ST=California, L=San Francisco, O=Copyleft Certificate Co, OU=My Organizational Unit, CN=ChangeMe/emailAddress=me@example.net
        Validity
            Not Before: Nov 11 18:50:08 2023 GMT
            Not After : Nov 10 18:50:08 2024 GMT
        Subject: C=US, ST=OH, L=Cincinnati, O=University of Cincinnati ., OU=Dept. Elec. Comp. . Eng. Comp. Sci., CN=client3/emailAddress=franco@gauss.ececs.uc.edu
        Subject Public Key Info:
            Public Key Algorithm: rsaEncryption
                Public-Key: (2048 bit)
                Modulus:
                    00:bf:5d:65:58:c5:1c:06:3a:83:15:f0:67:52:23:
                    1b:3f:b9:9a:05:98:cb:0d:4b:3f:2b:da:a6:c0:c4:
                    1c:80:7e:18:8d:a1:1d:08:73:6f:16:1f:b5:45:6e:
                    6b:8b:d2:10:53:28:18:c1:dc:18:29:94:8c:15:44:
                    c2:d8:46:e2:6f:76:9e:e9:a6:a3:8a:01:a0:e4:a6:
                    93:3a:bd:24:cb:30:02:e4:4b:c3:61:c5:d3:c1:de:
                    18:63:8f:92:f2:0c:f0:81:f1:0b:13:e3:7c:bd:74:
                    13:68:09:e7:ac:c9:2d:d6:87:bb:3a:bb:56:1c:38:
                    1e:60:05:f6:9b:b7:76:49:d6:df:78:34:78:f5:a5:
                    98:3c:75:51:31:1c:a4:80:99:be:b1:9f:01:9d:ba:
                    44:80:87:44:9c:30:38:b6:8f:2a:a0:ac:c9:9c:d6:
                    9e:36:86:34:51:89:1a:d1:13:05:9b:f7:e8:56:e2:
                    68:9c:f8:07:bb:a8:a1:69:d8:1d:c8:88:68:a1:86:
                    dd:53:cf:21:c2:ae:22:41:5c:b0:9a:fa:df:54:a8:
                    ce:a5:e4:2c:c6:98:0d:f7:fd:4f:91:10:b6:e6:90:
                    a0:a0:57:56:c4:ec:8f:0d:cb:77:5c:90:0e:bd:64:
                    3b:00:44:e9:52:d3:3d:ab:3b:99:50:50:29:13:70:
                    28:07
                Exponent: 65537 (0x10001)
        X509v3 extensions:
            X509v3 Basic Constraints: 
                CA:FALSE
            X509v3 Subject Key Identifier: 
                93:4E:8F:DE:F6:3A:BF:D3:86:78:D0:4C:40:08:87:26:52:12:25:EC
            X509v3 Authority Key Identifier: 
                keyid:9C:0E:D5:A3:16:6F:C8:23:88:D1:12:C9:63:5D:18:D9:C9:FC:5B:E9
                DirName:/C=US/ST=California/L=San Francisco/O=Copyleft Certificate Co/OU=My Organizational Unit/CN=ChangeMe/emailAddress=me@example.net
                serial:A3:08:26:80:D2:47:98:75

            X509v3 Extended Key Usage: 
                TLS Web Client Authentication
            X509v3 Key Usage: 
                Digital Signature
    Signature Algorithm: sha256WithRSAEncryption
         28:1e:2a:8f:cb:ab:0e:51:85:98:b1:08:7e:90:74:9f:78:78:
         38:e9:d4:3e:ae:69:1f:56:62:3f:31:7a:1c:75:07:79:51:15:
         0f:55:c6:65:66:58:62:a0:7d:ea:c9:c8:27:c4:58:07:dd:10:
         2a:65:dc:e4:dd:12:cf:b4:94:7b:3e:06:51:2d:a0:78:aa:8d:
         9f:8d:85:c0:da:fa:0f:14:ec:53:08:8e:b9:2a:d3:ae:3d:a2:
         a1:97:7d:4e:90:e2:30:87:f3:c6:62:36:f9:d2:5e:79:09:9b:
         63:85:d0:0a:05:10:3f:86:5d:62:9c:29:73:84:02:5a:bd:33:
         75:73:8b:80:fb:9f:2c:7d:98:8d:8a:6f:a5:8c:ef:bf:e3:f9:
         5c:33:56:2e:ae:d5:2e:e9:08:fb:d3:52:40:c4:75:42:7e:6c:
         e5:55:66:2f:85:62:d6:e7:15:3b:42:f0:98:b3:12:ff:6e:8e:
         35:67:c9:7e:8f:0b:0e:57:21:5e:d4:c5:95:a6:a6:83:d7:0e:
         97:8f:e6:61:09:a7:46:dd:d2:c4:cc:85:61:07:c8:23:a0:cb:
         d7:1d:e2:88:c8:e9:34:4d:72:8e:bd:63:4f:f1:54:b1:2b:58:
         88:72:60:3d:d6:85:9d:8b:34:d1:a2:cb:87:73:53:d0:a0:93:
         3a:4a:54:b0
-----BEGIN CERTIFICATE-----
MIIFMjCCBBqgAwIBAgIQJ7Xnrfou8MC4ZeBzEZW1zDANBgkqhkiG9w0BAQsFADCB
rzELMAkGA1UEBhMCVVMxEzARBgNVBAgMCkNhbGlmb3JuaWExFjAUBgNVBAcMDVNh
biBGcmFuY2lzY28xIDAeBgNVBAoMF0NvcHlsZWZ0IENlcnRpZmljYXRlIENvMR8w
HQYDVQQLDBZNeSBPcmdhbml6YXRpb25hbCBVbml0MREwDwYDVQQDDAhDaGFuZ2VN
ZTEdMBsGCSqGSIb3DQEJARYObWVAZXhhbXBsZS5uZXQwHhcNMjMxMTExMTg1MDA4
WhcNMjQxMTEwMTg1MDA4WjCBvjELMAkGA1UEBhMCVVMxCzAJBgNVBAgMAk9IMRMw
EQYDVQQHDApDaW5jaW5uYXRpMSMwIQYDVQQKDBpVbml2ZXJzaXR5IG9mIENpbmNp
bm5hdGkgLjEsMCoGA1UECwwjRGVwdC4gRWxlYy4gQ29tcC4gLiBFbmcuIENvbXAu
IFNjaS4xEDAOBgNVBAMMB2NsaWVudDMxKDAmBgkqhkiG9w0BCQEWGWZyYW5jb0Bn
YXVzcy5lY2Vjcy51Yy5lZHUwggEiMA0GCSqGSIb3DQEBAQUAA4IBDwAwggEKAoIB
AQC/XWVYxRwGOoMV8GdSIxs/uZoFmMsNSz8r2qbAxByAfhiNoR0Ic28WH7VFbmuL
0hBTKBjB3BgplIwVRMLYRuJvdp7ppqOKAaDkppM6vSTLMALkS8NhxdPB3hhjj5Ly
DPCB8QsT43y9dBNoCeesyS3Wh7s6u1YcOB5gBfabt3ZJ1t94NHj1pZg8dVExHKSA
mb6xnwGdukSAh0ScMDi2jyqgrMmc1p42hjRRiRrREwWb9+hW4mic+Ae7qKFp2B3I
iGihht1TzyHCriJBXLCa+t9UqM6l5CzGmA33/U+RELbmkKCgV1bE7I8Ny3dckA69
ZDsAROlS0z2rO5lQUCkTcCgHAgMBAAGjggE3MIIBMzAJBgNVHRMEAjAAMB0GA1Ud
DgQWBBSTTo/e9jq/04Z40ExACIcmUhIl7DCB5AYDVR0jBIHcMIHZgBScDtWjFm/I
I4jREsljXRjZyfxb6aGBtaSBsjCBrzELMAkGA1UEBhMCVVMxEzARBgNVBAgMCkNh
bGlmb3JuaWExFjAUBgNVBAcMDVNhbiBGcmFuY2lzY28xIDAeBgNVBAoMF0NvcHls
ZWZ0IENlcnRpZmljYXRlIENvMR8wHQYDVQQLDBZNeSBPcmdhbml6YXRpb25hbCBV
bml0MREwDwYDVQQDDAhDaGFuZ2VNZTEdMBsGCSqGSIb3DQEJARYObWVAZXhhbXBs
ZS5uZXSCCQCjCCaA0keYdTATBgNVHSUEDDAKBggrBgEFBQcDAjALBgNVHQ8EBAMC
B4AwDQYJKoZIhvcNAQELBQADggEBACgeKo/Lqw5RhZixCH6QdJ94eDjp1D6uaR9W
Yj8xehx1B3lRFQ9VxmVmWGKgferJyCfEWAfdECpl3OTdEs+0lHs+BlEtoHiqjZ+N
hcDa+g8U7FMIjrkq0649oqGXfU6Q4jCH88ZiNvnSXnkJm2OF0AoFED+GXWKcKXOE
Alq9M3Vzi4D7nyx9mI2Kb6WM77/j+VwzVi6u1S7pCPvTUkDEdUJ+bOVVZi+FYtbn
FTtC8JizEv9ujjVnyX6PCw5XIV7UxZWmpoPXDpeP5mEJp0bd0sTMhWEHyCOgy9cd
4ojI6TRNco69Y0/xVLErWIhyYD3WhZ2LNNGiy4dzU9CgkzpKVLA=
-----END CERTIFICATE-----
