Certificate:
    Data:
        Version: 3 (0x2)
        Serial Number:
            28:c3:6c:59:5e:0e:6e:39:fb:47:3a:19:bb:5a:44:d8
    Signature Algorithm: sha256WithRSAEncryption
        Issuer: C=US, ST=California, L=San Francisco, O=Copyleft Certificate Co, OU=My Organizational Unit, CN=ChangeMe/emailAddress=me@example.net
        Validity
            Not Before: Nov 12 11:47:27 2023 GMT
            Not After : Nov 11 11:47:27 2024 GMT
        Subject: C=US, ST=OH, L=Cincinnati, O=University of Cincinnati, OU=Dept. Elec. Comp. Eng. Comp. Sci., CN=client18/emailAddress=franco@gauss.ececs.uc.edu
        Subject Public Key Info:
            Public Key Algorithm: rsaEncryption
                Public-Key: (2048 bit)
                Modulus:
                    00:ab:16:4c:89:64:3f:b8:70:88:e8:c8:c8:67:e4:
                    5f:9d:3b:a9:ce:19:98:33:04:41:97:06:e8:6c:19:
                    ef:06:b9:21:7a:9f:11:61:83:28:5c:91:f1:88:cf:
                    ed:d3:2d:33:92:bd:d1:cc:f0:a9:27:59:75:8d:9e:
                    2c:2a:58:af:c1:14:0c:d9:b4:37:d1:a7:9e:5d:fc:
                    fa:da:68:f9:02:7c:79:ee:47:48:27:1c:2f:1a:17:
                    f8:15:f7:60:ce:98:c6:28:ca:2c:15:0e:58:6e:e8:
                    fd:d5:dc:03:cb:48:27:84:6c:de:9b:0e:d9:e8:fe:
                    4f:e8:f2:c9:76:ab:64:44:e8:d7:ec:97:a5:be:5f:
                    fe:d6:03:09:a6:0f:48:21:80:fb:b2:85:79:8c:31:
                    7d:d6:51:dc:53:17:ca:4e:d9:de:98:c5:3f:8b:24:
                    1b:a0:ad:76:50:4f:39:2b:87:de:dd:22:47:35:c1:
                    d2:8a:3d:1d:59:c7:38:f9:4a:7e:b1:48:71:05:9b:
                    1b:2f:1b:17:55:5a:b5:49:0d:56:b5:fa:9d:34:84:
                    c2:18:3c:cf:15:d0:fb:cf:a3:ad:3f:17:3c:22:0e:
                    14:de:c0:ad:37:5c:b5:11:c4:e3:0c:ed:43:8f:be:
                    70:d1:90:5b:e8:74:27:d2:72:2b:07:48:f3:6b:35:
                    1b:69
                Exponent: 65537 (0x10001)
        X509v3 extensions:
            X509v3 Basic Constraints: 
                CA:FALSE
            X509v3 Subject Key Identifier: 
                C1:2B:47:9B:A0:B5:B0:58:EA:27:5E:15:DE:29:BE:7F:9C:B6:83:23
            X509v3 Authority Key Identifier: 
                keyid:C4:46:F2:96:38:56:02:B8:9D:09:04:52:25:91:35:97:6A:D7:B1:F0
                DirName:/C=US/ST=California/L=San Francisco/O=Copyleft Certificate Co/OU=My Organizational Unit/CN=ChangeMe/emailAddress=me@example.net
                serial:D1:5A:15:1C:F0:20:95:62

            X509v3 Extended Key Usage: 
                TLS Web Client Authentication
            X509v3 Key Usage: 
                Digital Signature
    Signature Algorithm: sha256WithRSAEncryption
         04:22:8c:26:cd:c4:1d:e7:af:76:cc:ad:58:a3:d0:d5:d1:5d:
         fd:fe:7d:d1:e2:67:91:8b:8f:e8:6d:5b:70:3f:7b:ff:a4:94:
         5a:de:a0:02:d1:f6:b3:2a:00:25:7d:29:e8:e0:f4:cf:04:51:
         9d:eb:22:45:ac:c3:6a:9f:66:2a:0f:d0:df:a9:b3:e5:8a:2a:
         2c:9c:fa:d4:d2:c5:33:a2:98:aa:ac:f0:4f:3f:79:c2:7d:9d:
         92:66:3a:b0:7e:d9:51:b6:28:f7:be:aa:d3:35:3c:af:f1:ee:
         ee:71:b9:24:49:04:ef:d7:ba:a5:63:bc:d9:b3:de:fa:46:22:
         1a:b6:23:88:11:b1:8c:0d:0c:67:74:39:62:37:94:03:7d:e2:
         ef:eb:25:ac:cb:07:14:71:dc:4c:15:59:ce:20:40:de:0a:9c:
         61:45:58:81:31:2c:46:ca:c7:58:1f:11:27:5f:ea:68:e9:f4:
         ea:07:1f:ec:c8:71:7e:a1:cf:d7:14:d9:d7:cc:4e:0b:ea:de:
         de:35:b6:fc:ce:e3:5c:a3:59:d7:f5:0e:8f:8a:1a:23:99:dc:
         f7:09:28:f6:b2:e3:f0:16:a3:81:4a:e1:66:88:ba:98:32:87:
         f5:b3:7d:19:31:5b:50:08:cd:c3:e1:eb:bd:4b:7a:f9:fd:c3:
         59:8f:f0:49
-----BEGIN CERTIFICATE-----
MIIFLzCCBBegAwIBAgIQKMNsWV4Objn7RzoZu1pE2DANBgkqhkiG9w0BAQsFADCB
rzELMAkGA1UEBhMCVVMxEzARBgNVBAgMCkNhbGlmb3JuaWExFjAUBgNVBAcMDVNh
biBGcmFuY2lzY28xIDAeBgNVBAoMF0NvcHlsZWZ0IENlcnRpZmljYXRlIENvMR8w
HQYDVQQLDBZNeSBPcmdhbml6YXRpb25hbCBVbml0MREwDwYDVQQDDAhDaGFuZ2VN
ZTEdMBsGCSqGSIb3DQEJARYObWVAZXhhbXBsZS5uZXQwHhcNMjMxMTEyMTE0NzI3
WhcNMjQxMTExMTE0NzI3WjCBuzELMAkGA1UEBhMCVVMxCzAJBgNVBAgMAk9IMRMw
EQYDVQQHDApDaW5jaW5uYXRpMSEwHwYDVQQKDBhVbml2ZXJzaXR5IG9mIENpbmNp
bm5hdGkxKjAoBgNVBAsMIURlcHQuIEVsZWMuIENvbXAuIEVuZy4gQ29tcC4gU2Np
LjERMA8GA1UEAwwIY2xpZW50MTgxKDAmBgkqhkiG9w0BCQEWGWZyYW5jb0BnYXVz
cy5lY2Vjcy51Yy5lZHUwggEiMA0GCSqGSIb3DQEBAQUAA4IBDwAwggEKAoIBAQCr
FkyJZD+4cIjoyMhn5F+dO6nOGZgzBEGXBuhsGe8GuSF6nxFhgyhckfGIz+3TLTOS
vdHM8KknWXWNniwqWK/BFAzZtDfRp55d/PraaPkCfHnuR0gnHC8aF/gV92DOmMYo
yiwVDlhu6P3V3APLSCeEbN6bDtno/k/o8sl2q2RE6Nfsl6W+X/7WAwmmD0ghgPuy
hXmMMX3WUdxTF8pO2d6YxT+LJBugrXZQTzkrh97dIkc1wdKKPR1Zxzj5Sn6xSHEF
mxsvGxdVWrVJDVa1+p00hMIYPM8V0PvPo60/FzwiDhTewK03XLURxOMM7UOPvnDR
kFvodCfScisHSPNrNRtpAgMBAAGjggE3MIIBMzAJBgNVHRMEAjAAMB0GA1UdDgQW
BBTBK0eboLWwWOonXhXeKb5/nLaDIzCB5AYDVR0jBIHcMIHZgBTERvKWOFYCuJ0J
BFIlkTWXatex8KGBtaSBsjCBrzELMAkGA1UEBhMCVVMxEzARBgNVBAgMCkNhbGlm
b3JuaWExFjAUBgNVBAcMDVNhbiBGcmFuY2lzY28xIDAeBgNVBAoMF0NvcHlsZWZ0
IENlcnRpZmljYXRlIENvMR8wHQYDVQQLDBZNeSBPcmdhbml6YXRpb25hbCBVbml0
MREwDwYDVQQDDAhDaGFuZ2VNZTEdMBsGCSqGSIb3DQEJARYObWVAZXhhbXBsZS5u
ZXSCCQDRWhUc8CCVYjATBgNVHSUEDDAKBggrBgEFBQcDAjALBgNVHQ8EBAMCB4Aw
DQYJKoZIhvcNAQELBQADggEBAAQijCbNxB3nr3bMrVij0NXRXf3+fdHiZ5GLj+ht
W3A/e/+klFreoALR9rMqACV9Kejg9M8EUZ3rIkWsw2qfZioP0N+ps+WKKiyc+tTS
xTOimKqs8E8/ecJ9nZJmOrB+2VG2KPe+qtM1PK/x7u5xuSRJBO/XuqVjvNmz3vpG
Ihq2I4gRsYwNDGd0OWI3lAN94u/rJazLBxRx3EwVWc4gQN4KnGFFWIExLEbKx1gf
ESdf6mjp9OoHH+zIcX6hz9cU2dfMTgvq3t41tvzO41yjWdf1Do+KGiOZ3PcJKPay
4/AWo4FK4WaIupgyh/WzfRkxW1AIzcPh671Levn9w1mP8Ek=
-----END CERTIFICATE-----
