Certificate:
    Data:
        Version: 3 (0x2)
        Serial Number:
            29:26:a3:0c:37:46:9a:24:38:9a:21:4e:ad:80:66:ca
    Signature Algorithm: sha256WithRSAEncryption
        Issuer: C=US, ST=California, L=San Francisco, O=Copyleft Certificate Co, OU=My Organizational Unit, CN=ChangeMe/emailAddress=me@example.net
        Validity
            Not Before: Jan 23 18:28:23 2021 GMT
            Not After : Jan 23 18:28:23 2022 GMT
        Subject: C=US, ST=OH, L=Cincinnati, O=University of Cincinnati, OU=Dept. Electrical Eng. and Computer Sci., CN=client47/emailAddress=franco@gauss.ececs.uc.edu
        Subject Public Key Info:
            Public Key Algorithm: rsaEncryption
                Public-Key: (2048 bit)
                Modulus:
                    00:bb:33:1e:e4:a8:f8:8e:93:46:95:fe:81:4b:6c:
                    8c:ac:71:2f:46:a0:f0:ee:7c:ba:fa:f8:1b:0d:29:
                    84:88:b8:f2:0e:f6:de:fb:69:7c:04:82:d2:85:e2:
                    c7:45:71:e7:0a:9c:9c:95:ae:e3:c1:35:d1:ad:12:
                    df:04:27:00:f3:e7:eb:c3:d6:81:2f:c6:d9:fa:44:
                    17:9b:f2:97:51:d9:16:02:35:fd:7f:28:12:1b:28:
                    6b:29:2a:f2:68:1e:25:0f:6f:62:32:e4:e8:7a:3b:
                    a6:e0:95:95:ef:d5:53:a1:7f:e3:e5:57:f4:1c:65:
                    91:5c:11:32:a8:93:d7:f6:e7:e9:bc:b0:82:15:44:
                    bb:be:22:1d:52:75:31:27:01:c8:fc:6d:ae:02:05:
                    3f:11:6e:82:30:f2:3f:bc:62:ed:ed:79:fc:e5:62:
                    4c:84:37:b1:93:fd:ca:27:54:d9:e1:fd:43:fa:f8:
                    a6:cf:d2:81:6b:1f:b2:18:84:dd:5b:e9:44:ee:67:
                    c5:57:40:81:6c:ab:97:1e:9b:3b:20:af:6b:f1:75:
                    5f:29:8d:c5:82:40:91:af:2e:6c:4b:72:c4:14:4a:
                    00:09:36:0a:7a:6d:2c:ae:5d:c4:07:07:9d:53:1d:
                    c4:c8:fc:79:08:d4:0b:dc:ce:54:1d:7c:0d:54:89:
                    e0:a7
                Exponent: 65537 (0x10001)
        X509v3 extensions:
            X509v3 Basic Constraints: 
                CA:FALSE
            X509v3 Subject Key Identifier: 
                EE:8E:41:0F:30:2B:A9:86:49:7B:AE:EE:62:F0:93:31:6B:C9:09:13
            X509v3 Authority Key Identifier: 
                keyid:EF:DC:B6:3D:4B:FD:A7:87:05:C5:22:3D:8B:DC:BF:99:2A:EE:E4:DB
                DirName:/C=US/ST=California/L=San Francisco/O=Copyleft Certificate Co/OU=My Organizational Unit/CN=ChangeMe/emailAddress=me@example.net
                serial:87:1E:1D:DC:6B:8C:66:88

            X509v3 Extended Key Usage: 
                TLS Web Client Authentication
            X509v3 Key Usage: 
                Digital Signature
    Signature Algorithm: sha256WithRSAEncryption
         04:6d:6f:b0:89:35:45:79:7f:02:b4:d5:82:54:52:ec:e3:4f:
         60:6b:ea:cc:7f:4d:49:32:ed:ed:88:c2:03:b8:24:53:48:b5:
         76:09:d1:eb:85:3f:c2:79:56:7f:4a:c1:aa:11:cd:4b:57:65:
         75:d0:da:84:2b:d0:dc:8e:19:b3:44:b2:fe:c8:98:a8:6a:6b:
         12:bb:86:87:26:a8:e5:49:4f:7d:a0:f8:6d:45:d8:2e:ba:e9:
         6f:b9:4f:a3:2b:f1:2c:f3:75:cb:91:5f:d6:de:98:f7:29:f7:
         f7:51:cb:e6:23:af:a4:83:83:66:aa:73:ca:9e:ee:bb:cc:48:
         50:fa:34:06:46:59:02:7b:24:c9:4a:2d:bc:38:c1:0b:00:af:
         25:07:df:f7:3a:a9:e5:83:e5:b1:84:0e:41:f6:f7:c5:9c:b1:
         f9:6d:33:d0:5d:bf:50:0f:4c:31:02:0c:3c:a8:66:89:52:50:
         08:a3:14:ed:37:83:80:29:24:d8:78:99:f7:41:dd:b1:a6:2b:
         77:02:a5:b6:5e:f7:40:0d:28:eb:8a:be:03:23:28:9b:b0:69:
         3d:04:85:1c:97:55:5c:de:16:46:56:ae:ab:b5:c5:16:9a:53:
         c1:4f:58:42:87:13:8f:0a:cf:58:35:58:8d:54:9c:be:6a:4e:
         f3:a8:ad:ca
-----BEGIN CERTIFICATE-----
MIIFNTCCBB2gAwIBAgIQKSajDDdGmiQ4miFOrYBmyjANBgkqhkiG9w0BAQsFADCB
rzELMAkGA1UEBhMCVVMxEzARBgNVBAgMCkNhbGlmb3JuaWExFjAUBgNVBAcMDVNh
biBGcmFuY2lzY28xIDAeBgNVBAoMF0NvcHlsZWZ0IENlcnRpZmljYXRlIENvMR8w
HQYDVQQLDBZNeSBPcmdhbml6YXRpb25hbCBVbml0MREwDwYDVQQDDAhDaGFuZ2VN
ZTEdMBsGCSqGSIb3DQEJARYObWVAZXhhbXBsZS5uZXQwHhcNMjEwMTIzMTgyODIz
WhcNMjIwMTIzMTgyODIzWjCBwTELMAkGA1UEBhMCVVMxCzAJBgNVBAgMAk9IMRMw
EQYDVQQHDApDaW5jaW5uYXRpMSEwHwYDVQQKDBhVbml2ZXJzaXR5IG9mIENpbmNp
bm5hdGkxMDAuBgNVBAsMJ0RlcHQuIEVsZWN0cmljYWwgRW5nLiBhbmQgQ29tcHV0
ZXIgU2NpLjERMA8GA1UEAwwIY2xpZW50NDcxKDAmBgkqhkiG9w0BCQEWGWZyYW5j
b0BnYXVzcy5lY2Vjcy51Yy5lZHUwggEiMA0GCSqGSIb3DQEBAQUAA4IBDwAwggEK
AoIBAQC7Mx7kqPiOk0aV/oFLbIyscS9GoPDufLr6+BsNKYSIuPIO9t77aXwEgtKF
4sdFcecKnJyVruPBNdGtEt8EJwDz5+vD1oEvxtn6RBeb8pdR2RYCNf1/KBIbKGsp
KvJoHiUPb2Iy5Oh6O6bglZXv1VOhf+PlV/QcZZFcETKok9f25+m8sIIVRLu+Ih1S
dTEnAcj8ba4CBT8RboIw8j+8Yu3tefzlYkyEN7GT/conVNnh/UP6+KbP0oFrH7IY
hN1b6UTuZ8VXQIFsq5cemzsgr2vxdV8pjcWCQJGvLmxLcsQUSgAJNgp6bSyuXcQH
B51THcTI/HkI1AvczlQdfA1UieCnAgMBAAGjggE3MIIBMzAJBgNVHRMEAjAAMB0G
A1UdDgQWBBTujkEPMCuphkl7ru5i8JMxa8kJEzCB5AYDVR0jBIHcMIHZgBTv3LY9
S/2nhwXFIj2L3L+ZKu7k26GBtaSBsjCBrzELMAkGA1UEBhMCVVMxEzARBgNVBAgM
CkNhbGlmb3JuaWExFjAUBgNVBAcMDVNhbiBGcmFuY2lzY28xIDAeBgNVBAoMF0Nv
cHlsZWZ0IENlcnRpZmljYXRlIENvMR8wHQYDVQQLDBZNeSBPcmdhbml6YXRpb25h
bCBVbml0MREwDwYDVQQDDAhDaGFuZ2VNZTEdMBsGCSqGSIb3DQEJARYObWVAZXhh
bXBsZS5uZXSCCQCHHh3ca4xmiDATBgNVHSUEDDAKBggrBgEFBQcDAjALBgNVHQ8E
BAMCB4AwDQYJKoZIhvcNAQELBQADggEBAARtb7CJNUV5fwK01YJUUuzjT2Br6sx/
TUky7e2IwgO4JFNItXYJ0euFP8J5Vn9KwaoRzUtXZXXQ2oQr0NyOGbNEsv7ImKhq
axK7hocmqOVJT32g+G1F2C666W+5T6Mr8SzzdcuRX9bemPcp9/dRy+Yjr6SDg2aq
c8qe7rvMSFD6NAZGWQJ7JMlKLbw4wQsAryUH3/c6qeWD5bGEDkH298WcsfltM9Bd
v1APTDECDDyoZolSUAijFO03g4ApJNh4mfdB3bGmK3cCpbZe90ANKOuKvgMjKJuw
aT0EhRyXVVzeFkZWrqu1xRaaU8FPWEKHE48Kz1g1WI1UnL5qTvOorco=
-----END CERTIFICATE-----
