Certificate:
    Data:
        Version: 3 (0x2)
        Serial Number:
            29:83:0c:54:26:39:42:24:42:39:fa:ab:80:9f:ed:a9
    Signature Algorithm: sha256WithRSAEncryption
        Issuer: C=US, ST=California, L=San Francisco, O=Copyleft Certificate Co, OU=My Organizational Unit, CN=ChangeMe/emailAddress=me@example.net
        Validity
            Not Before: Nov 11 18:51:28 2023 GMT
            Not After : Nov 10 18:51:28 2024 GMT
        Subject: C=US, ST=OH, L=Cincinnati, O=University of Cincinnati ., OU=Dept. Elec. Comp. . Eng. Comp. Sci., CN=client23/emailAddress=franco@gauss.ececs.uc.edu
        Subject Public Key Info:
            Public Key Algorithm: rsaEncryption
                Public-Key: (2048 bit)
                Modulus:
                    00:db:24:55:45:82:3c:17:3e:ee:f7:3c:11:d8:ca:
                    19:4c:3d:05:46:9f:bf:61:71:f8:0c:36:d6:15:94:
                    9b:5a:e8:7d:4a:fc:a8:15:98:d7:62:96:4e:e1:da:
                    2a:ea:84:b2:7f:25:b2:06:6a:7f:cc:49:36:a5:f3:
                    d2:d7:f4:0d:5b:fb:ed:c7:32:2c:92:31:be:c6:14:
                    4e:16:a4:e3:eb:10:43:f0:0d:cd:94:1a:66:02:ed:
                    88:a9:9f:4f:6f:c4:0a:6e:6f:15:63:74:a2:d3:31:
                    50:4a:e8:35:1e:d4:83:e0:4c:12:04:50:b7:2d:2c:
                    db:88:75:1f:04:c2:a0:f8:97:05:00:12:fa:1b:f0:
                    c3:b0:f5:40:a7:05:21:9b:43:e2:c6:a6:c6:e8:bc:
                    9a:35:7a:8a:0e:ae:45:e8:9e:d4:bf:08:e5:cb:47:
                    03:5a:5f:f6:7c:92:98:cd:ac:87:1f:af:1a:63:c3:
                    c7:f7:c1:c1:9e:68:12:ec:a4:69:e6:5d:21:18:5c:
                    95:c0:fc:79:b8:28:0d:f2:2a:c2:3e:0b:42:88:69:
                    8e:6b:77:fd:fb:51:69:7f:48:72:6c:6f:70:b7:5b:
                    79:cb:76:f7:1c:f1:74:2d:89:b3:ac:d1:3d:fb:5f:
                    53:ed:8c:10:46:99:8a:61:d4:aa:ab:0d:39:04:dc:
                    f0:5f
                Exponent: 65537 (0x10001)
        X509v3 extensions:
            X509v3 Basic Constraints: 
                CA:FALSE
            X509v3 Subject Key Identifier: 
                FF:C4:A8:7E:DF:04:BB:35:3D:BC:40:73:67:8A:2E:46:51:2B:D1:45
            X509v3 Authority Key Identifier: 
                keyid:9C:0E:D5:A3:16:6F:C8:23:88:D1:12:C9:63:5D:18:D9:C9:FC:5B:E9
                DirName:/C=US/ST=California/L=San Francisco/O=Copyleft Certificate Co/OU=My Organizational Unit/CN=ChangeMe/emailAddress=me@example.net
                serial:A3:08:26:80:D2:47:98:75

            X509v3 Extended Key Usage: 
                TLS Web Client Authentication
            X509v3 Key Usage: 
                Digital Signature
    Signature Algorithm: sha256WithRSAEncryption
         ab:b1:b4:90:0e:97:74:68:d5:69:6b:9e:70:28:2c:43:9c:14:
         ee:e4:2b:7a:21:18:6f:b1:69:4a:9c:93:99:61:ab:ab:7d:4a:
         23:fe:3f:dc:cc:37:42:9a:2f:dd:d9:24:4d:a0:bb:90:5b:3c:
         09:79:93:e4:5a:c5:13:bd:50:1c:7c:73:b0:15:a7:a4:ec:94:
         85:7c:07:26:b7:d2:5d:23:b5:d6:f2:ae:d1:f3:55:0b:54:e5:
         2f:69:ba:a5:25:5f:fd:fa:15:a5:cd:a7:5d:32:7b:2e:9b:7e:
         06:c2:70:29:ec:78:05:ef:f9:97:70:80:c2:7e:57:11:ca:b3:
         38:69:42:7e:00:03:46:0d:f2:a2:dd:45:02:03:1e:37:9e:04:
         32:fc:8c:5b:76:db:3d:62:68:e0:96:41:da:80:78:2e:92:30:
         71:d5:be:64:ae:85:f7:58:a1:32:7e:b9:01:42:50:a2:76:af:
         21:74:f8:76:3b:c3:c0:ca:df:3d:e6:c3:cf:e8:14:cb:44:64:
         86:b0:5a:5d:60:1b:8d:a3:48:8e:98:52:89:5e:95:f4:d8:f5:
         68:7b:17:d9:57:8b:a2:13:e8:48:f2:df:db:de:95:9b:df:21:
         6d:c1:67:06:6b:ce:8f:67:f4:ba:3a:2d:25:fb:45:46:d6:54:
         ba:4e:e7:9b
-----BEGIN CERTIFICATE-----
MIIFMzCCBBugAwIBAgIQKYMMVCY5QiRCOfqrgJ/tqTANBgkqhkiG9w0BAQsFADCB
rzELMAkGA1UEBhMCVVMxEzARBgNVBAgMCkNhbGlmb3JuaWExFjAUBgNVBAcMDVNh
biBGcmFuY2lzY28xIDAeBgNVBAoMF0NvcHlsZWZ0IENlcnRpZmljYXRlIENvMR8w
HQYDVQQLDBZNeSBPcmdhbml6YXRpb25hbCBVbml0MREwDwYDVQQDDAhDaGFuZ2VN
ZTEdMBsGCSqGSIb3DQEJARYObWVAZXhhbXBsZS5uZXQwHhcNMjMxMTExMTg1MTI4
WhcNMjQxMTEwMTg1MTI4WjCBvzELMAkGA1UEBhMCVVMxCzAJBgNVBAgMAk9IMRMw
EQYDVQQHDApDaW5jaW5uYXRpMSMwIQYDVQQKDBpVbml2ZXJzaXR5IG9mIENpbmNp
bm5hdGkgLjEsMCoGA1UECwwjRGVwdC4gRWxlYy4gQ29tcC4gLiBFbmcuIENvbXAu
IFNjaS4xETAPBgNVBAMMCGNsaWVudDIzMSgwJgYJKoZIhvcNAQkBFhlmcmFuY29A
Z2F1c3MuZWNlY3MudWMuZWR1MIIBIjANBgkqhkiG9w0BAQEFAAOCAQ8AMIIBCgKC
AQEA2yRVRYI8Fz7u9zwR2MoZTD0FRp+/YXH4DDbWFZSbWuh9SvyoFZjXYpZO4doq
6oSyfyWyBmp/zEk2pfPS1/QNW/vtxzIskjG+xhROFqTj6xBD8A3NlBpmAu2IqZ9P
b8QKbm8VY3Si0zFQSug1HtSD4EwSBFC3LSzbiHUfBMKg+JcFABL6G/DDsPVApwUh
m0PixqbG6LyaNXqKDq5F6J7Uvwjly0cDWl/2fJKYzayHH68aY8PH98HBnmgS7KRp
5l0hGFyVwPx5uCgN8irCPgtCiGmOa3f9+1Fpf0hybG9wt1t5y3b3HPF0LYmzrNE9
+19T7YwQRpmKYdSqqw05BNzwXwIDAQABo4IBNzCCATMwCQYDVR0TBAIwADAdBgNV
HQ4EFgQU/8Soft8EuzU9vEBzZ4ouRlEr0UUwgeQGA1UdIwSB3DCB2YAUnA7VoxZv
yCOI0RLJY10Y2cn8W+mhgbWkgbIwga8xCzAJBgNVBAYTAlVTMRMwEQYDVQQIDApD
YWxpZm9ybmlhMRYwFAYDVQQHDA1TYW4gRnJhbmNpc2NvMSAwHgYDVQQKDBdDb3B5
bGVmdCBDZXJ0aWZpY2F0ZSBDbzEfMB0GA1UECwwWTXkgT3JnYW5pemF0aW9uYWwg
VW5pdDERMA8GA1UEAwwIQ2hhbmdlTWUxHTAbBgkqhkiG9w0BCQEWDm1lQGV4YW1w
bGUubmV0ggkAowgmgNJHmHUwEwYDVR0lBAwwCgYIKwYBBQUHAwIwCwYDVR0PBAQD
AgeAMA0GCSqGSIb3DQEBCwUAA4IBAQCrsbSQDpd0aNVpa55wKCxDnBTu5Ct6IRhv
sWlKnJOZYaurfUoj/j/czDdCmi/d2SRNoLuQWzwJeZPkWsUTvVAcfHOwFaek7JSF
fAcmt9JdI7XW8q7R81ULVOUvabqlJV/9+hWlzaddMnsum34GwnAp7HgF7/mXcIDC
flcRyrM4aUJ+AANGDfKi3UUCAx43ngQy/Ixbdts9YmjglkHagHgukjBx1b5kroX3
WKEyfrkBQlCidq8hdPh2O8PAyt895sPP6BTLRGSGsFpdYBuNo0iOmFKJXpX02PVo
exfZV4uiE+hI8t/b3pWb3yFtwWcGa86PZ/S6Oi0l+0VG1lS6Tueb
-----END CERTIFICATE-----
