Certificate:
    Data:
        Version: 3 (0x2)
        Serial Number:
            2a:7d:07:20:ed:4e:d5:93:f7:9c:5b:a3:1f:2b:af:09
    Signature Algorithm: sha256WithRSAEncryption
        Issuer: C=US, ST=California, L=San Francisco, O=Copyleft Certificate Co, OU=My Organizational Unit, CN=ChangeMe/emailAddress=me@example.net
        Validity
            Not Before: Nov 11 18:52:32 2023 GMT
            Not After : Nov 10 18:52:32 2024 GMT
        Subject: C=US, ST=OH, L=Cincinnati, O=University of Cincinnati ., OU=Dept. Elec. Comp. . Eng. Comp. Sci., CN=client39/emailAddress=franco@gauss.ececs.uc.edu
        Subject Public Key Info:
            Public Key Algorithm: rsaEncryption
                Public-Key: (2048 bit)
                Modulus:
                    00:b2:a5:37:a1:2b:30:84:b1:bf:d0:eb:4e:93:76:
                    f3:b0:2e:56:ef:e7:d6:a2:bb:82:bc:13:04:8a:0c:
                    a8:96:c6:05:8c:00:95:d6:ac:10:ab:f9:20:95:85:
                    e2:b8:7a:30:df:79:b6:ae:99:73:bc:c3:9a:b4:a3:
                    76:af:1b:77:67:9b:fc:f8:6b:d9:9a:12:25:5e:9b:
                    fb:db:60:56:2e:61:f4:3a:a2:39:94:ec:75:aa:07:
                    de:e8:06:fd:fc:c2:ff:1b:72:ca:0a:4d:b5:27:c0:
                    12:4f:d4:fb:b3:15:f8:93:85:ec:0e:d3:3b:81:27:
                    02:24:ac:32:b0:4e:b2:10:5e:d1:cb:6f:59:d0:29:
                    6b:4d:e5:b9:11:49:2f:e2:97:c6:5a:08:57:47:13:
                    5e:82:6c:41:bc:ce:82:4a:59:0c:59:7a:f7:42:a7:
                    3f:48:ef:c1:94:48:e8:c4:3b:aa:3c:3c:3d:91:34:
                    89:fe:82:62:54:4e:06:e9:2b:e8:24:a1:aa:bd:8c:
                    d2:05:c5:55:e6:ad:30:68:6a:30:fe:6a:0a:20:2e:
                    0e:3a:03:93:83:b3:ef:3e:74:e6:4e:59:e8:8b:54:
                    66:40:49:91:eb:2b:ce:d0:20:6a:68:71:86:31:54:
                    d1:d3:51:7b:ac:ab:2a:88:4f:62:75:4a:b1:0c:26:
                    a2:1f
                Exponent: 65537 (0x10001)
        X509v3 extensions:
            X509v3 Basic Constraints: 
                CA:FALSE
            X509v3 Subject Key Identifier: 
                6A:74:16:84:58:42:BC:88:E5:08:2F:71:02:E5:F5:13:DF:70:51:53
            X509v3 Authority Key Identifier: 
                keyid:9C:0E:D5:A3:16:6F:C8:23:88:D1:12:C9:63:5D:18:D9:C9:FC:5B:E9
                DirName:/C=US/ST=California/L=San Francisco/O=Copyleft Certificate Co/OU=My Organizational Unit/CN=ChangeMe/emailAddress=me@example.net
                serial:A3:08:26:80:D2:47:98:75

            X509v3 Extended Key Usage: 
                TLS Web Client Authentication
            X509v3 Key Usage: 
                Digital Signature
    Signature Algorithm: sha256WithRSAEncryption
         40:c3:6f:c0:56:5f:ad:f5:df:51:e8:0c:1e:14:94:ef:86:b8:
         68:67:56:66:1c:75:de:55:98:da:91:aa:d6:55:6d:2a:a7:0b:
         a1:c8:fb:17:d4:69:67:fa:17:55:14:96:63:d3:16:3d:7d:04:
         0e:92:83:4c:61:02:7f:5d:26:62:70:23:06:bc:9e:de:35:20:
         08:c7:3f:8f:7e:db:d7:ff:4d:09:44:13:f2:a6:39:42:bc:53:
         b4:28:29:31:c0:7a:ab:96:ae:6e:2d:90:aa:35:ba:c9:ff:fc:
         45:15:aa:af:73:4b:0b:99:b1:d5:9a:d8:01:5d:eb:06:bc:ea:
         24:8b:7d:ff:4a:78:f9:a8:eb:69:53:60:47:13:5c:1d:2d:04:
         b9:1b:a0:33:31:02:ae:88:b3:93:6d:e7:dc:78:13:9f:f5:71:
         15:f9:f6:10:79:be:ef:47:38:c5:ac:f5:cb:39:3d:be:ef:29:
         48:ed:86:ad:eb:12:3b:f7:71:86:83:ca:f4:a5:db:94:1b:3d:
         58:eb:61:bf:39:61:cb:a6:cc:37:24:67:62:3f:56:b3:33:dd:
         51:53:f2:ec:2f:88:49:00:ca:82:f5:72:19:e7:09:7a:09:75:
         cc:74:3e:fa:2a:38:3d:48:8e:8b:c6:12:77:7f:1f:cd:d5:03:
         b2:4f:36:1e
-----BEGIN CERTIFICATE-----
MIIFMzCCBBugAwIBAgIQKn0HIO1O1ZP3nFujHyuvCTANBgkqhkiG9w0BAQsFADCB
rzELMAkGA1UEBhMCVVMxEzARBgNVBAgMCkNhbGlmb3JuaWExFjAUBgNVBAcMDVNh
biBGcmFuY2lzY28xIDAeBgNVBAoMF0NvcHlsZWZ0IENlcnRpZmljYXRlIENvMR8w
HQYDVQQLDBZNeSBPcmdhbml6YXRpb25hbCBVbml0MREwDwYDVQQDDAhDaGFuZ2VN
ZTEdMBsGCSqGSIb3DQEJARYObWVAZXhhbXBsZS5uZXQwHhcNMjMxMTExMTg1MjMy
WhcNMjQxMTEwMTg1MjMyWjCBvzELMAkGA1UEBhMCVVMxCzAJBgNVBAgMAk9IMRMw
EQYDVQQHDApDaW5jaW5uYXRpMSMwIQYDVQQKDBpVbml2ZXJzaXR5IG9mIENpbmNp
bm5hdGkgLjEsMCoGA1UECwwjRGVwdC4gRWxlYy4gQ29tcC4gLiBFbmcuIENvbXAu
IFNjaS4xETAPBgNVBAMMCGNsaWVudDM5MSgwJgYJKoZIhvcNAQkBFhlmcmFuY29A
Z2F1c3MuZWNlY3MudWMuZWR1MIIBIjANBgkqhkiG9w0BAQEFAAOCAQ8AMIIBCgKC
AQEAsqU3oSswhLG/0OtOk3bzsC5W7+fWoruCvBMEigyolsYFjACV1qwQq/kglYXi
uHow33m2rplzvMOatKN2rxt3Z5v8+GvZmhIlXpv722BWLmH0OqI5lOx1qgfe6Ab9
/ML/G3LKCk21J8AST9T7sxX4k4XsDtM7gScCJKwysE6yEF7Ry29Z0ClrTeW5EUkv
4pfGWghXRxNegmxBvM6CSlkMWXr3Qqc/SO/BlEjoxDuqPDw9kTSJ/oJiVE4G6Svo
JKGqvYzSBcVV5q0waGow/moKIC4OOgOTg7PvPnTmTlnoi1RmQEmR6yvO0CBqaHGG
MVTR01F7rKsqiE9idUqxDCaiHwIDAQABo4IBNzCCATMwCQYDVR0TBAIwADAdBgNV
HQ4EFgQUanQWhFhCvIjlCC9xAuX1E99wUVMwgeQGA1UdIwSB3DCB2YAUnA7VoxZv
yCOI0RLJY10Y2cn8W+mhgbWkgbIwga8xCzAJBgNVBAYTAlVTMRMwEQYDVQQIDApD
YWxpZm9ybmlhMRYwFAYDVQQHDA1TYW4gRnJhbmNpc2NvMSAwHgYDVQQKDBdDb3B5
bGVmdCBDZXJ0aWZpY2F0ZSBDbzEfMB0GA1UECwwWTXkgT3JnYW5pemF0aW9uYWwg
VW5pdDERMA8GA1UEAwwIQ2hhbmdlTWUxHTAbBgkqhkiG9w0BCQEWDm1lQGV4YW1w
bGUubmV0ggkAowgmgNJHmHUwEwYDVR0lBAwwCgYIKwYBBQUHAwIwCwYDVR0PBAQD
AgeAMA0GCSqGSIb3DQEBCwUAA4IBAQBAw2/AVl+t9d9R6AweFJTvhrhoZ1ZmHHXe
VZjakarWVW0qpwuhyPsX1Gln+hdVFJZj0xY9fQQOkoNMYQJ/XSZicCMGvJ7eNSAI
xz+PftvX/00JRBPypjlCvFO0KCkxwHqrlq5uLZCqNbrJ//xFFaqvc0sLmbHVmtgB
XesGvOoki33/Snj5qOtpU2BHE1wdLQS5G6AzMQKuiLOTbefceBOf9XEV+fYQeb7v
RzjFrPXLOT2+7ylI7Yat6xI793GGg8r0pduUGz1Y62G/OWHLpsw3JGdiP1azM91R
U/LsL4hJAMqC9XIZ5wl6CXXMdD76Kjg9SI6LxhJ3fx/N1QOyTzYe
-----END CERTIFICATE-----
