Certificate:
    Data:
        Version: 3 (0x2)
        Serial Number:
            2b:dd:4f:85:0b:1a:62:c8:da:ad:ca:d5:5e:11:a4:98
    Signature Algorithm: sha256WithRSAEncryption
        Issuer: C=US, ST=California, L=San Francisco, O=Copyleft Certificate Co, OU=My Organizational Unit, CN=ChangeMe/emailAddress=me@example.net
        Validity
            Not Before: Nov 12 11:47:11 2023 GMT
            Not After : Nov 11 11:47:11 2024 GMT
        Subject: C=US, ST=OH, L=Cincinnati, O=University of Cincinnati, OU=Dept. Elec. Comp. Eng. Comp. Sci., CN=client14/emailAddress=franco@gauss.ececs.uc.edu
        Subject Public Key Info:
            Public Key Algorithm: rsaEncryption
                Public-Key: (2048 bit)
                Modulus:
                    00:f0:dd:2c:9a:1a:c9:47:3e:2a:b9:9b:31:e4:36:
                    30:b2:c8:a6:b9:b4:68:61:67:5a:d7:5d:4b:ac:c3:
                    b2:14:96:61:94:47:8e:cd:bd:a6:3a:ef:65:5a:b4:
                    dd:0e:89:5f:d8:12:58:ab:3e:f8:ba:e1:4b:b5:e0:
                    04:c1:ee:04:e6:02:fb:02:6a:db:e9:b4:1f:5f:11:
                    f8:67:e1:9f:cf:2b:de:22:bf:47:12:aa:1a:96:c7:
                    cb:d4:ab:fb:cb:f5:23:4c:3e:f6:76:4e:22:d8:c6:
                    0a:65:e3:55:3e:7d:8f:d2:95:2a:bd:9f:9f:17:3a:
                    8b:4a:be:8a:03:71:67:5c:19:a2:ea:35:2d:97:f4:
                    8d:d4:ad:aa:4d:43:b3:fc:2f:1b:d4:29:cd:79:18:
                    5d:28:49:5d:a0:94:93:a6:51:cd:48:d2:44:0d:bc:
                    12:fb:8d:96:1d:d9:eb:71:f5:10:af:3e:9b:c4:49:
                    ae:11:60:a4:ad:a4:9f:0d:34:76:ad:69:c9:99:cb:
                    19:fd:b5:c0:1a:13:2f:9e:c3:57:78:56:ed:08:d4:
                    7b:b5:cd:c4:47:4b:05:1f:c0:b5:fb:73:8d:7c:ae:
                    06:53:43:6f:3b:e1:4e:ea:d2:f7:59:6e:1a:28:11:
                    69:ca:bd:fb:7c:09:f8:67:7a:d3:9b:4e:5d:ac:cd:
                    b0:81
                Exponent: 65537 (0x10001)
        X509v3 extensions:
            X509v3 Basic Constraints: 
                CA:FALSE
            X509v3 Subject Key Identifier: 
                CF:CC:56:D9:80:C9:4F:42:F3:77:B3:F8:83:D6:C7:B4:B6:EA:6D:15
            X509v3 Authority Key Identifier: 
                keyid:C4:46:F2:96:38:56:02:B8:9D:09:04:52:25:91:35:97:6A:D7:B1:F0
                DirName:/C=US/ST=California/L=San Francisco/O=Copyleft Certificate Co/OU=My Organizational Unit/CN=ChangeMe/emailAddress=me@example.net
                serial:D1:5A:15:1C:F0:20:95:62

            X509v3 Extended Key Usage: 
                TLS Web Client Authentication
            X509v3 Key Usage: 
                Digital Signature
    Signature Algorithm: sha256WithRSAEncryption
         ba:9d:7b:df:9f:d7:4c:81:e4:f0:ea:55:30:3d:77:5b:c2:c0:
         81:e0:b0:10:a3:b8:36:cc:16:7a:19:8c:aa:d8:6c:85:0a:77:
         b8:27:c7:c0:5c:38:75:9e:c1:1c:b5:a1:9e:49:d1:7d:59:63:
         b8:d8:24:ed:e0:5b:44:ac:79:09:08:62:b4:78:0c:78:d9:77:
         2b:4c:8d:26:de:e0:0d:bd:91:83:57:8b:76:92:c3:4a:70:77:
         3f:1e:a4:56:94:16:51:1e:da:a0:65:df:b9:e8:a2:1f:d6:3c:
         26:1f:dc:68:64:35:d4:84:ec:e0:93:cc:f7:f5:1c:70:19:82:
         6c:99:8b:e5:a2:92:2e:99:7b:0e:f8:77:01:92:99:5d:2f:e8:
         25:59:c3:36:28:f2:90:f8:34:89:1f:21:64:df:77:23:6a:9a:
         89:05:ab:25:7b:a5:3b:fd:bb:f0:30:41:f4:85:a6:80:24:fe:
         d9:22:05:3d:08:eb:80:b8:e6:4e:85:78:78:f4:da:e4:8c:57:
         fc:b0:b2:d4:9b:26:6c:3b:1b:02:6c:43:a1:82:ce:3b:78:81:
         1a:80:7c:45:5f:17:b9:a9:cb:e4:7b:0a:ec:2c:d8:d7:6e:3e:
         6c:05:a7:11:33:74:bc:cd:9c:14:f0:86:e8:83:da:91:66:70:
         ef:aa:64:03
-----BEGIN CERTIFICATE-----
MIIFLzCCBBegAwIBAgIQK91PhQsaYsjarcrVXhGkmDANBgkqhkiG9w0BAQsFADCB
rzELMAkGA1UEBhMCVVMxEzARBgNVBAgMCkNhbGlmb3JuaWExFjAUBgNVBAcMDVNh
biBGcmFuY2lzY28xIDAeBgNVBAoMF0NvcHlsZWZ0IENlcnRpZmljYXRlIENvMR8w
HQYDVQQLDBZNeSBPcmdhbml6YXRpb25hbCBVbml0MREwDwYDVQQDDAhDaGFuZ2VN
ZTEdMBsGCSqGSIb3DQEJARYObWVAZXhhbXBsZS5uZXQwHhcNMjMxMTEyMTE0NzEx
WhcNMjQxMTExMTE0NzExWjCBuzELMAkGA1UEBhMCVVMxCzAJBgNVBAgMAk9IMRMw
EQYDVQQHDApDaW5jaW5uYXRpMSEwHwYDVQQKDBhVbml2ZXJzaXR5IG9mIENpbmNp
bm5hdGkxKjAoBgNVBAsMIURlcHQuIEVsZWMuIENvbXAuIEVuZy4gQ29tcC4gU2Np
LjERMA8GA1UEAwwIY2xpZW50MTQxKDAmBgkqhkiG9w0BCQEWGWZyYW5jb0BnYXVz
cy5lY2Vjcy51Yy5lZHUwggEiMA0GCSqGSIb3DQEBAQUAA4IBDwAwggEKAoIBAQDw
3SyaGslHPiq5mzHkNjCyyKa5tGhhZ1rXXUusw7IUlmGUR47NvaY672VatN0OiV/Y
ElirPvi64Uu14ATB7gTmAvsCatvptB9fEfhn4Z/PK94iv0cSqhqWx8vUq/vL9SNM
PvZ2TiLYxgpl41U+fY/SlSq9n58XOotKvooDcWdcGaLqNS2X9I3UrapNQ7P8LxvU
Kc15GF0oSV2glJOmUc1I0kQNvBL7jZYd2etx9RCvPpvESa4RYKStpJ8NNHatacmZ
yxn9tcAaEy+ew1d4Vu0I1Hu1zcRHSwUfwLX7c418rgZTQ2874U7q0vdZbhooEWnK
vft8CfhnetObTl2szbCBAgMBAAGjggE3MIIBMzAJBgNVHRMEAjAAMB0GA1UdDgQW
BBTPzFbZgMlPQvN3s/iD1se0tuptFTCB5AYDVR0jBIHcMIHZgBTERvKWOFYCuJ0J
BFIlkTWXatex8KGBtaSBsjCBrzELMAkGA1UEBhMCVVMxEzARBgNVBAgMCkNhbGlm
b3JuaWExFjAUBgNVBAcMDVNhbiBGcmFuY2lzY28xIDAeBgNVBAoMF0NvcHlsZWZ0
IENlcnRpZmljYXRlIENvMR8wHQYDVQQLDBZNeSBPcmdhbml6YXRpb25hbCBVbml0
MREwDwYDVQQDDAhDaGFuZ2VNZTEdMBsGCSqGSIb3DQEJARYObWVAZXhhbXBsZS5u
ZXSCCQDRWhUc8CCVYjATBgNVHSUEDDAKBggrBgEFBQcDAjALBgNVHQ8EBAMCB4Aw
DQYJKoZIhvcNAQELBQADggEBALqde9+f10yB5PDqVTA9d1vCwIHgsBCjuDbMFnoZ
jKrYbIUKd7gnx8BcOHWewRy1oZ5J0X1ZY7jYJO3gW0SseQkIYrR4DHjZdytMjSbe
4A29kYNXi3aSw0pwdz8epFaUFlEe2qBl37nooh/WPCYf3GhkNdSE7OCTzPf1HHAZ
gmyZi+Wiki6Zew74dwGSmV0v6CVZwzYo8pD4NIkfIWTfdyNqmokFqyV7pTv9u/Aw
QfSFpoAk/tkiBT0I64C45k6FeHj02uSMV/ywstSbJmw7GwJsQ6GCzjt4gRqAfEVf
F7mpy+R7Cuws2NduPmwFpxEzdLzNnBTwhuiD2pFmcO+qZAM=
-----END CERTIFICATE-----
