Certificate:
    Data:
        Version: 3 (0x2)
        Serial Number:
            2f:59:85:fb:60:71:a3:7a:65:5b:92:3f:46:8e:4b:20
    Signature Algorithm: sha256WithRSAEncryption
        Issuer: C=US, ST=California, L=San Francisco, O=Copyleft Certificate Co, OU=My Organizational Unit, CN=ChangeMe/emailAddress=me@example.net
        Validity
            Not Before: Jan 23 18:29:07 2021 GMT
            Not After : Jan 23 18:29:07 2022 GMT
        Subject: C=US, ST=OH, L=Cincinnati, O=University of Cincinnati, OU=Dept. Electrical Eng. and Computer Sci., CN=client80/emailAddress=franco@gauss.ececs.uc.edu
        Subject Public Key Info:
            Public Key Algorithm: rsaEncryption
                Public-Key: (2048 bit)
                Modulus:
                    00:c3:cc:7b:49:98:80:cf:3f:08:3e:22:8c:38:a5:
                    7b:c1:46:46:d4:4d:41:5f:d7:3d:f1:bd:8d:c5:a5:
                    35:93:41:cd:d7:11:d5:43:e6:47:b2:2a:3f:7a:fe:
                    a9:e4:b7:79:c0:16:24:62:87:53:51:2d:78:04:9b:
                    09:f4:df:2e:2d:4a:b8:d0:c2:72:77:d7:62:e2:da:
                    f7:69:62:f5:39:01:0e:d3:90:b6:ed:90:46:44:b8:
                    0c:02:13:07:de:e6:e3:c0:13:22:18:0a:1b:46:91:
                    23:42:3e:69:59:2b:fe:03:e5:a0:36:fb:4d:c4:27:
                    e9:b9:98:40:aa:09:5e:2c:53:e1:8a:41:a4:c8:61:
                    e1:79:f6:4d:a1:0a:47:43:9b:a7:67:a5:76:6e:cd:
                    62:51:18:78:dc:53:62:6c:a0:dd:3b:93:15:84:60:
                    f7:5f:13:dd:0b:bb:14:19:c0:e2:e3:15:78:68:e4:
                    0e:e4:4a:aa:e4:a6:e7:5b:b6:3f:c9:e4:e8:4d:2b:
                    9f:d9:03:00:61:d4:12:d3:01:55:db:06:78:5b:e3:
                    08:4f:ac:3b:ba:c9:92:b2:07:ad:17:dd:1a:e5:7c:
                    0e:d6:1a:f1:a5:f9:8d:21:00:1e:c4:2c:f5:c8:a4:
                    3b:d2:58:4b:6b:91:a2:3f:a3:6c:59:15:05:92:34:
                    bb:01
                Exponent: 65537 (0x10001)
        X509v3 extensions:
            X509v3 Basic Constraints: 
                CA:FALSE
            X509v3 Subject Key Identifier: 
                11:34:71:5A:95:87:9F:7F:42:67:91:68:D9:19:BA:21:F1:DB:73:48
            X509v3 Authority Key Identifier: 
                keyid:EF:DC:B6:3D:4B:FD:A7:87:05:C5:22:3D:8B:DC:BF:99:2A:EE:E4:DB
                DirName:/C=US/ST=California/L=San Francisco/O=Copyleft Certificate Co/OU=My Organizational Unit/CN=ChangeMe/emailAddress=me@example.net
                serial:87:1E:1D:DC:6B:8C:66:88

            X509v3 Extended Key Usage: 
                TLS Web Client Authentication
            X509v3 Key Usage: 
                Digital Signature
    Signature Algorithm: sha256WithRSAEncryption
         54:4b:d8:9e:21:e3:d4:c4:86:03:1c:ed:a0:4a:ac:3c:3b:8d:
         7f:55:67:50:8a:fc:9e:c4:42:61:48:98:f3:10:7d:ec:40:57:
         36:83:d1:c1:1f:db:93:89:71:76:e4:47:99:ce:9f:17:f6:b9:
         7a:20:66:02:01:a5:4d:1d:94:df:b2:2e:d2:7c:d2:c6:5f:52:
         a0:d6:ad:12:f9:65:8a:65:e9:49:4e:47:01:2a:e6:39:89:f5:
         be:24:9a:7c:3a:12:fc:e2:cd:2a:7b:00:df:37:25:6b:53:3d:
         38:bc:b7:32:3e:2d:c0:00:22:b9:ef:f1:64:f5:db:ca:c7:cb:
         3d:fd:d7:ee:41:f1:bc:ac:6e:cc:ea:c3:24:7e:f6:01:9e:0b:
         70:24:02:37:71:b1:17:57:d7:b2:7c:0f:00:9b:ed:31:d1:20:
         9e:49:9c:28:bd:f4:82:97:74:f2:33:74:e6:a5:dc:37:38:e3:
         bb:39:80:6a:21:f0:f2:16:ed:aa:e6:85:72:21:67:01:13:dd:
         36:b4:ef:84:2c:0c:c9:bf:82:49:07:fb:1e:15:b9:28:c1:c3:
         db:58:74:b8:29:75:c3:83:f0:45:34:01:36:1d:77:7e:02:bb:
         85:e9:4f:37:a9:1f:1e:9c:44:b1:09:86:37:8d:e7:78:9a:f8:
         f4:ff:3f:cc
-----BEGIN CERTIFICATE-----
MIIFNTCCBB2gAwIBAgIQL1mF+2Bxo3plW5I/Ro5LIDANBgkqhkiG9w0BAQsFADCB
rzELMAkGA1UEBhMCVVMxEzARBgNVBAgMCkNhbGlmb3JuaWExFjAUBgNVBAcMDVNh
biBGcmFuY2lzY28xIDAeBgNVBAoMF0NvcHlsZWZ0IENlcnRpZmljYXRlIENvMR8w
HQYDVQQLDBZNeSBPcmdhbml6YXRpb25hbCBVbml0MREwDwYDVQQDDAhDaGFuZ2VN
ZTEdMBsGCSqGSIb3DQEJARYObWVAZXhhbXBsZS5uZXQwHhcNMjEwMTIzMTgyOTA3
WhcNMjIwMTIzMTgyOTA3WjCBwTELMAkGA1UEBhMCVVMxCzAJBgNVBAgMAk9IMRMw
EQYDVQQHDApDaW5jaW5uYXRpMSEwHwYDVQQKDBhVbml2ZXJzaXR5IG9mIENpbmNp
bm5hdGkxMDAuBgNVBAsMJ0RlcHQuIEVsZWN0cmljYWwgRW5nLiBhbmQgQ29tcHV0
ZXIgU2NpLjERMA8GA1UEAwwIY2xpZW50ODAxKDAmBgkqhkiG9w0BCQEWGWZyYW5j
b0BnYXVzcy5lY2Vjcy51Yy5lZHUwggEiMA0GCSqGSIb3DQEBAQUAA4IBDwAwggEK
AoIBAQDDzHtJmIDPPwg+Iow4pXvBRkbUTUFf1z3xvY3FpTWTQc3XEdVD5keyKj96
/qnkt3nAFiRih1NRLXgEmwn03y4tSrjQwnJ312Li2vdpYvU5AQ7TkLbtkEZEuAwC
Ewfe5uPAEyIYChtGkSNCPmlZK/4D5aA2+03EJ+m5mECqCV4sU+GKQaTIYeF59k2h
CkdDm6dnpXZuzWJRGHjcU2JsoN07kxWEYPdfE90LuxQZwOLjFXho5A7kSqrkpudb
tj/J5OhNK5/ZAwBh1BLTAVXbBnhb4whPrDu6yZKyB60X3RrlfA7WGvGl+Y0hAB7E
LPXIpDvSWEtrkaI/o2xZFQWSNLsBAgMBAAGjggE3MIIBMzAJBgNVHRMEAjAAMB0G
A1UdDgQWBBQRNHFalYeff0JnkWjZGboh8dtzSDCB5AYDVR0jBIHcMIHZgBTv3LY9
S/2nhwXFIj2L3L+ZKu7k26GBtaSBsjCBrzELMAkGA1UEBhMCVVMxEzARBgNVBAgM
CkNhbGlmb3JuaWExFjAUBgNVBAcMDVNhbiBGcmFuY2lzY28xIDAeBgNVBAoMF0Nv
cHlsZWZ0IENlcnRpZmljYXRlIENvMR8wHQYDVQQLDBZNeSBPcmdhbml6YXRpb25h
bCBVbml0MREwDwYDVQQDDAhDaGFuZ2VNZTEdMBsGCSqGSIb3DQEJARYObWVAZXhh
bXBsZS5uZXSCCQCHHh3ca4xmiDATBgNVHSUEDDAKBggrBgEFBQcDAjALBgNVHQ8E
BAMCB4AwDQYJKoZIhvcNAQELBQADggEBAFRL2J4h49TEhgMc7aBKrDw7jX9VZ1CK
/J7EQmFImPMQfexAVzaD0cEf25OJcXbkR5nOnxf2uXogZgIBpU0dlN+yLtJ80sZf
UqDWrRL5ZYpl6UlORwEq5jmJ9b4kmnw6EvzizSp7AN83JWtTPTi8tzI+LcAAIrnv
8WT128rHyz391+5B8bysbszqwyR+9gGeC3AkAjdxsRdX17J8DwCb7THRIJ5JnCi9
9IKXdPIzdOal3Dc447s5gGoh8PIW7armhXIhZwET3Ta074QsDMm/gkkH+x4VuSjB
w9tYdLgpdcOD8EU0ATYdd34Cu4XpTzepHx6cRLEJhjeN53ia+PT/P8w=
-----END CERTIFICATE-----
