Certificate:
    Data:
        Version: 3 (0x2)
        Serial Number:
            31:4b:ff:90:e3:80:8a:94:b7:e8:e9:3b:09:b0:32:60
    Signature Algorithm: sha256WithRSAEncryption
        Issuer: C=US, ST=California, L=San Francisco, O=Copyleft Certificate Co, OU=My Organizational Unit, CN=ChangeMe/emailAddress=me@example.net
        Validity
            Not Before: Jan 23 18:29:52 2021 GMT
            Not After : Jan 23 18:29:52 2022 GMT
        Subject: C=US, ST=OH, L=Cincinnati, O=University of Cincinnati, OU=Dept. Electrical Eng. and Computer Sci., CN=client110/emailAddress=franco@gauss.ececs.uc.edu
        Subject Public Key Info:
            Public Key Algorithm: rsaEncryption
                Public-Key: (2048 bit)
                Modulus:
                    00:ad:0c:27:84:c8:0a:61:66:d8:09:91:11:51:99:
                    f5:cb:47:dd:54:59:6c:de:aa:ab:3e:35:61:92:df:
                    39:a4:8a:75:17:fb:99:9e:7b:50:fb:45:5d:5f:9a:
                    64:87:7a:85:81:3f:6a:eb:ed:30:f4:78:02:94:09:
                    f1:1d:33:a0:fd:65:c7:f1:37:62:e6:36:ea:c5:65:
                    df:ed:df:22:3f:4a:a5:29:cc:5c:99:8f:42:5c:22:
                    78:e4:af:4a:15:f5:aa:07:bd:95:4d:d4:fc:f0:26:
                    33:c0:03:4c:7a:18:5f:8b:e7:ff:e3:cc:59:21:24:
                    0c:4b:98:12:c1:c6:23:31:0c:99:31:30:6c:ce:58:
                    84:64:a5:b4:25:02:2a:ba:f2:c4:5d:6a:8b:5e:f9:
                    8a:a2:10:18:9f:17:dc:ff:9b:02:38:c3:87:fb:14:
                    e4:78:8e:8c:f9:4b:a0:a0:da:c5:2c:39:1c:81:86:
                    54:71:2f:96:56:04:a3:d8:a1:65:d7:b5:ac:d5:d4:
                    8d:88:2b:7d:0b:7e:37:d6:85:15:40:e1:80:9a:ff:
                    39:9a:4c:10:56:98:fb:21:fc:c6:cf:bf:26:6d:9e:
                    81:79:c5:e5:fb:4e:38:fb:9d:02:25:c6:9d:63:c8:
                    ac:56:cf:42:32:3a:65:eb:a9:31:b1:cb:2e:de:18:
                    c7:23
                Exponent: 65537 (0x10001)
        X509v3 extensions:
            X509v3 Basic Constraints: 
                CA:FALSE
            X509v3 Subject Key Identifier: 
                4C:FC:88:B8:6B:BE:33:76:58:77:FE:26:8A:E6:97:0E:78:A3:CB:76
            X509v3 Authority Key Identifier: 
                keyid:EF:DC:B6:3D:4B:FD:A7:87:05:C5:22:3D:8B:DC:BF:99:2A:EE:E4:DB
                DirName:/C=US/ST=California/L=San Francisco/O=Copyleft Certificate Co/OU=My Organizational Unit/CN=ChangeMe/emailAddress=me@example.net
                serial:87:1E:1D:DC:6B:8C:66:88

            X509v3 Extended Key Usage: 
                TLS Web Client Authentication
            X509v3 Key Usage: 
                Digital Signature
    Signature Algorithm: sha256WithRSAEncryption
         2f:e0:be:d0:eb:85:8b:02:49:11:92:f2:21:81:46:1a:e1:d1:
         7d:f0:88:d3:6e:4e:a7:4a:ac:9d:b7:ec:38:8f:08:d3:c6:a3:
         52:ca:65:c8:f5:25:96:a4:9c:dc:3e:c5:ba:a7:a3:29:d5:32:
         11:7d:48:dc:7e:c7:87:04:4f:2d:b3:91:06:75:d2:05:db:dc:
         37:56:d7:87:56:4b:25:0b:7a:1b:ac:f8:ed:70:ce:d3:6d:27:
         e4:c5:f3:4e:6b:a8:22:c3:27:81:0f:5b:bb:59:5d:40:a7:0f:
         40:be:3f:67:64:e2:33:7c:2f:ec:fa:9a:37:44:d3:41:54:44:
         85:fc:1c:af:a5:e2:d6:9b:b8:d6:1d:53:3f:cc:ae:b1:7d:83:
         37:5b:4e:67:69:17:e4:18:f5:84:ad:1e:8b:06:6c:0f:12:8a:
         18:3e:04:49:11:c5:0a:e2:99:38:f0:3f:ac:8e:a3:91:e9:47:
         1c:12:ea:89:bd:14:fe:e8:7e:e3:21:2a:03:5d:a2:73:f3:de:
         a3:da:7e:3f:cb:e8:81:92:59:51:b3:aa:e8:bb:f6:23:4d:de:
         ad:f9:17:40:88:ec:cf:86:f4:f5:14:ee:70:81:e8:68:21:f1:
         76:60:04:be:13:ff:b5:83:18:7a:ec:d5:f5:22:89:83:2a:84:
         e4:21:57:ea
-----BEGIN CERTIFICATE-----
MIIFNjCCBB6gAwIBAgIQMUv/kOOAipS36Ok7CbAyYDANBgkqhkiG9w0BAQsFADCB
rzELMAkGA1UEBhMCVVMxEzARBgNVBAgMCkNhbGlmb3JuaWExFjAUBgNVBAcMDVNh
biBGcmFuY2lzY28xIDAeBgNVBAoMF0NvcHlsZWZ0IENlcnRpZmljYXRlIENvMR8w
HQYDVQQLDBZNeSBPcmdhbml6YXRpb25hbCBVbml0MREwDwYDVQQDDAhDaGFuZ2VN
ZTEdMBsGCSqGSIb3DQEJARYObWVAZXhhbXBsZS5uZXQwHhcNMjEwMTIzMTgyOTUy
WhcNMjIwMTIzMTgyOTUyWjCBwjELMAkGA1UEBhMCVVMxCzAJBgNVBAgMAk9IMRMw
EQYDVQQHDApDaW5jaW5uYXRpMSEwHwYDVQQKDBhVbml2ZXJzaXR5IG9mIENpbmNp
bm5hdGkxMDAuBgNVBAsMJ0RlcHQuIEVsZWN0cmljYWwgRW5nLiBhbmQgQ29tcHV0
ZXIgU2NpLjESMBAGA1UEAwwJY2xpZW50MTEwMSgwJgYJKoZIhvcNAQkBFhlmcmFu
Y29AZ2F1c3MuZWNlY3MudWMuZWR1MIIBIjANBgkqhkiG9w0BAQEFAAOCAQ8AMIIB
CgKCAQEArQwnhMgKYWbYCZERUZn1y0fdVFls3qqrPjVhkt85pIp1F/uZnntQ+0Vd
X5pkh3qFgT9q6+0w9HgClAnxHTOg/WXH8Tdi5jbqxWXf7d8iP0qlKcxcmY9CXCJ4
5K9KFfWqB72VTdT88CYzwANMehhfi+f/48xZISQMS5gSwcYjMQyZMTBszliEZKW0
JQIquvLEXWqLXvmKohAYnxfc/5sCOMOH+xTkeI6M+UugoNrFLDkcgYZUcS+WVgSj
2KFl17Ws1dSNiCt9C3431oUVQOGAmv85mkwQVpj7IfzGz78mbZ6BecXl+044+50C
JcadY8isVs9CMjpl66kxscsu3hjHIwIDAQABo4IBNzCCATMwCQYDVR0TBAIwADAd
BgNVHQ4EFgQUTPyIuGu+M3ZYd/4miuaXDnijy3YwgeQGA1UdIwSB3DCB2YAU79y2
PUv9p4cFxSI9i9y/mSru5NuhgbWkgbIwga8xCzAJBgNVBAYTAlVTMRMwEQYDVQQI
DApDYWxpZm9ybmlhMRYwFAYDVQQHDA1TYW4gRnJhbmNpc2NvMSAwHgYDVQQKDBdD
b3B5bGVmdCBDZXJ0aWZpY2F0ZSBDbzEfMB0GA1UECwwWTXkgT3JnYW5pemF0aW9u
YWwgVW5pdDERMA8GA1UEAwwIQ2hhbmdlTWUxHTAbBgkqhkiG9w0BCQEWDm1lQGV4
YW1wbGUubmV0ggkAhx4d3GuMZogwEwYDVR0lBAwwCgYIKwYBBQUHAwIwCwYDVR0P
BAQDAgeAMA0GCSqGSIb3DQEBCwUAA4IBAQAv4L7Q64WLAkkRkvIhgUYa4dF98IjT
bk6nSqydt+w4jwjTxqNSymXI9SWWpJzcPsW6p6Mp1TIRfUjcfseHBE8ts5EGddIF
29w3VteHVkslC3obrPjtcM7TbSfkxfNOa6giwyeBD1u7WV1Apw9Avj9nZOIzfC/s
+po3RNNBVESF/ByvpeLWm7jWHVM/zK6xfYM3W05naRfkGPWErR6LBmwPEooYPgRJ
EcUK4pk48D+sjqOR6UccEuqJvRT+6H7jISoDXaJz896j2n4/y+iBkllRs6rou/Yj
Td6t+RdAiOzPhvT1FO5wgehoIfF2YAS+E/+1gxh67NX1IomDKoTkIVfq
-----END CERTIFICATE-----
