Certificate:
    Data:
        Version: 3 (0x2)
        Serial Number:
            32:af:74:5d:b8:b8:ec:ea:ae:9f:92:dd:4d:66:b7:c3
    Signature Algorithm: sha256WithRSAEncryption
        Issuer: C=US, ST=California, L=San Francisco, O=Copyleft Certificate Co, OU=My Organizational Unit, CN=ChangeMe/emailAddress=me@example.net
        Validity
            Not Before: Nov 12 11:49:35 2023 GMT
            Not After : Nov 11 11:49:35 2024 GMT
        Subject: C=US, ST=OH, L=Cincinnati, O=University of Cincinnati, OU=Dept. Elec. Comp. Eng. Comp. Sci., CN=client50/emailAddress=franco@gauss.ececs.uc.edu
        Subject Public Key Info:
            Public Key Algorithm: rsaEncryption
                Public-Key: (2048 bit)
                Modulus:
                    00:ca:f3:c6:db:96:75:db:6a:27:9c:36:b3:4e:4b:
                    e4:2d:63:ce:cf:ab:7b:5a:2e:6d:07:e0:0e:d8:a9:
                    f8:3f:b7:f3:db:05:a5:e0:c9:2f:26:65:f1:88:e7:
                    0b:58:d0:66:fc:03:3c:47:6a:e5:db:33:06:b0:7a:
                    be:3f:2d:4a:16:5a:c2:39:4c:d0:ae:b6:2f:15:27:
                    4d:88:25:30:6a:b4:98:25:8e:46:a5:bc:6e:f2:09:
                    a3:68:f3:67:73:a0:65:29:99:a4:a2:59:9e:c1:f7:
                    23:12:93:a0:68:c8:94:83:5c:45:b1:81:20:53:30:
                    f6:bc:8f:92:1c:bb:c3:8c:cc:f9:b1:99:92:ec:a7:
                    d8:1e:1a:87:34:1e:ed:ff:e1:7b:12:37:f8:1a:e8:
                    44:88:6f:f1:bf:03:f0:fd:eb:98:03:8f:0d:9d:7b:
                    ac:aa:cf:f3:b0:6b:2a:33:92:33:b4:49:3e:c6:3d:
                    67:a7:b7:5a:97:19:17:59:75:ff:f2:e5:01:14:08:
                    fa:c5:8f:29:bb:fa:5c:a5:4f:d7:6f:ca:bf:38:6e:
                    0b:e8:fb:db:66:03:f6:e6:e7:71:14:c5:2e:85:cd:
                    e4:d1:77:78:23:08:38:8a:36:e8:b1:76:03:51:6d:
                    79:66:ad:9e:46:fb:b7:7a:d8:a0:08:f2:8b:a1:71:
                    16:41
                Exponent: 65537 (0x10001)
        X509v3 extensions:
            X509v3 Basic Constraints: 
                CA:FALSE
            X509v3 Subject Key Identifier: 
                7E:34:63:D2:01:FE:28:11:89:65:E0:73:A6:B4:38:1E:A2:B6:99:97
            X509v3 Authority Key Identifier: 
                keyid:C4:46:F2:96:38:56:02:B8:9D:09:04:52:25:91:35:97:6A:D7:B1:F0
                DirName:/C=US/ST=California/L=San Francisco/O=Copyleft Certificate Co/OU=My Organizational Unit/CN=ChangeMe/emailAddress=me@example.net
                serial:D1:5A:15:1C:F0:20:95:62

            X509v3 Extended Key Usage: 
                TLS Web Client Authentication
            X509v3 Key Usage: 
                Digital Signature
    Signature Algorithm: sha256WithRSAEncryption
         9b:bf:e7:20:5f:00:7c:51:64:f7:67:43:69:5d:d9:26:b1:59:
         62:69:c9:fd:48:db:9a:77:a8:ba:4f:2a:71:21:f5:0f:dc:c7:
         2e:d3:88:c0:c6:e4:bd:5d:2e:c3:f0:7f:63:5d:1a:3b:0c:52:
         68:ae:3b:45:80:3f:43:35:2a:b5:82:f0:c5:a2:82:11:d1:d5:
         df:16:e0:b1:2d:cd:7c:52:ae:ad:72:71:46:d7:5b:54:3c:c2:
         66:bd:8f:b0:8f:8c:a1:95:7a:5e:78:21:c1:de:a3:21:b5:f2:
         2e:0a:d1:4c:0c:71:22:02:7b:c5:cf:34:28:8b:8f:82:01:26:
         41:97:a4:63:3f:69:ea:15:0d:41:99:c3:5d:9b:49:d0:00:b1:
         6e:5d:e0:a6:7f:94:3d:62:3e:76:e4:f1:14:39:88:23:04:6b:
         2a:8d:43:1a:cd:db:ff:8b:8f:5d:8d:a2:30:b5:27:a3:a7:10:
         9f:b1:b6:44:9c:11:8c:6b:1f:52:4f:e4:36:ce:a4:70:bf:e1:
         d6:94:c0:dd:2b:ce:49:e3:95:b2:f9:8e:5e:6d:09:8e:0d:e2:
         7d:fc:d6:82:df:2c:15:49:85:7b:2d:52:2b:23:c7:a0:97:56:
         6b:bd:b2:db:d3:25:62:b8:9e:3d:07:14:de:e6:db:ef:00:11:
         f5:5f:d9:fc
-----BEGIN CERTIFICATE-----
MIIFLzCCBBegAwIBAgIQMq90Xbi47Oqun5LdTWa3wzANBgkqhkiG9w0BAQsFADCB
rzELMAkGA1UEBhMCVVMxEzARBgNVBAgMCkNhbGlmb3JuaWExFjAUBgNVBAcMDVNh
biBGcmFuY2lzY28xIDAeBgNVBAoMF0NvcHlsZWZ0IENlcnRpZmljYXRlIENvMR8w
HQYDVQQLDBZNeSBPcmdhbml6YXRpb25hbCBVbml0MREwDwYDVQQDDAhDaGFuZ2VN
ZTEdMBsGCSqGSIb3DQEJARYObWVAZXhhbXBsZS5uZXQwHhcNMjMxMTEyMTE0OTM1
WhcNMjQxMTExMTE0OTM1WjCBuzELMAkGA1UEBhMCVVMxCzAJBgNVBAgMAk9IMRMw
EQYDVQQHDApDaW5jaW5uYXRpMSEwHwYDVQQKDBhVbml2ZXJzaXR5IG9mIENpbmNp
bm5hdGkxKjAoBgNVBAsMIURlcHQuIEVsZWMuIENvbXAuIEVuZy4gQ29tcC4gU2Np
LjERMA8GA1UEAwwIY2xpZW50NTAxKDAmBgkqhkiG9w0BCQEWGWZyYW5jb0BnYXVz
cy5lY2Vjcy51Yy5lZHUwggEiMA0GCSqGSIb3DQEBAQUAA4IBDwAwggEKAoIBAQDK
88bblnXbaiecNrNOS+QtY87Pq3taLm0H4A7Yqfg/t/PbBaXgyS8mZfGI5wtY0Gb8
AzxHauXbMwawer4/LUoWWsI5TNCuti8VJ02IJTBqtJgljkalvG7yCaNo82dzoGUp
maSiWZ7B9yMSk6BoyJSDXEWxgSBTMPa8j5Icu8OMzPmxmZLsp9geGoc0Hu3/4XsS
N/ga6ESIb/G/A/D965gDjw2de6yqz/OwayozkjO0ST7GPWent1qXGRdZdf/y5QEU
CPrFjym7+lylT9dvyr84bgvo+9tmA/bm53EUxS6FzeTRd3gjCDiKNuixdgNRbXlm
rZ5G+7d62KAI8ouhcRZBAgMBAAGjggE3MIIBMzAJBgNVHRMEAjAAMB0GA1UdDgQW
BBR+NGPSAf4oEYll4HOmtDgeoraZlzCB5AYDVR0jBIHcMIHZgBTERvKWOFYCuJ0J
BFIlkTWXatex8KGBtaSBsjCBrzELMAkGA1UEBhMCVVMxEzARBgNVBAgMCkNhbGlm
b3JuaWExFjAUBgNVBAcMDVNhbiBGcmFuY2lzY28xIDAeBgNVBAoMF0NvcHlsZWZ0
IENlcnRpZmljYXRlIENvMR8wHQYDVQQLDBZNeSBPcmdhbml6YXRpb25hbCBVbml0
MREwDwYDVQQDDAhDaGFuZ2VNZTEdMBsGCSqGSIb3DQEJARYObWVAZXhhbXBsZS5u
ZXSCCQDRWhUc8CCVYjATBgNVHSUEDDAKBggrBgEFBQcDAjALBgNVHQ8EBAMCB4Aw
DQYJKoZIhvcNAQELBQADggEBAJu/5yBfAHxRZPdnQ2ld2SaxWWJpyf1I25p3qLpP
KnEh9Q/cxy7TiMDG5L1dLsPwf2NdGjsMUmiuO0WAP0M1KrWC8MWighHR1d8W4LEt
zXxSrq1ycUbXW1Q8wma9j7CPjKGVel54IcHeoyG18i4K0UwMcSICe8XPNCiLj4IB
JkGXpGM/aeoVDUGZw12bSdAAsW5d4KZ/lD1iPnbk8RQ5iCMEayqNQxrN2/+Lj12N
ojC1J6OnEJ+xtkScEYxrH1JP5DbOpHC/4daUwN0rzknjlbL5jl5tCY4N4n381oLf
LBVJhXstUisjx6CXVmu9stvTJWK4nj0HFN7m2+8AEfVf2fw=
-----END CERTIFICATE-----
