Certificate:
    Data:
        Version: 3 (0x2)
        Serial Number:
            36:66:44:c9:a9:af:00:24:4e:e7:41:d0:c8:09:64:2b
    Signature Algorithm: sha256WithRSAEncryption
        Issuer: C=US, ST=California, L=San Francisco, O=Copyleft Certificate Co, OU=My Organizational Unit, CN=ChangeMe/emailAddress=me@example.net
        Validity
            Not Before: Nov 13 11:47:26 2023 GMT
            Not After : Nov 12 11:47:26 2024 GMT
        Subject: C=US, ST=OH, L=Cincinnati, O=University of Cincinnati, OU=Dept. Elec. Comp. Eng. Comp. Sci., CN=client15/emailAddress=franco@gauss.ececs.uc.edu
        Subject Public Key Info:
            Public Key Algorithm: rsaEncryption
                Public-Key: (2048 bit)
                Modulus:
                    00:a2:a2:23:2f:52:6a:6d:6d:96:b7:52:6c:dd:07:
                    8c:4d:48:52:20:fc:40:08:5a:f2:d0:6b:7b:f4:1a:
                    92:69:64:d0:bc:30:1a:c7:b5:ea:f6:25:fb:6b:f7:
                    fb:8b:bc:ec:e7:7b:8f:6c:3f:b4:74:9b:fb:25:c7:
                    19:6d:64:20:7a:91:0c:ae:bd:dd:a1:a1:2b:c0:b4:
                    6e:4c:04:c1:04:71:54:d1:8a:21:af:e9:d5:57:f5:
                    62:af:e6:fb:dd:74:6e:80:2c:5a:77:70:ee:6d:ca:
                    52:50:2b:af:7b:c8:4b:14:4f:83:64:7e:c0:66:41:
                    9e:c4:f0:4c:93:92:57:f8:ed:cb:ef:86:6e:ce:c1:
                    ce:b1:b3:4f:5e:69:b4:3e:87:13:2c:4f:ad:58:aa:
                    c9:2d:86:62:59:c9:6d:fa:68:51:32:40:4e:c6:2c:
                    a3:0d:85:ea:03:bc:fb:ca:2c:1b:dd:1b:05:29:20:
                    bc:22:e5:33:cd:0a:b6:d2:e9:18:36:f4:4b:9e:a8:
                    86:e0:be:77:e2:6e:5f:2e:c6:5c:6c:c2:43:6c:d8:
                    30:2a:12:69:e9:5e:55:47:e3:8f:45:44:b0:53:32:
                    c3:70:2c:4d:44:f6:3d:18:b4:3f:df:4e:f5:5a:fd:
                    6b:be:91:2b:91:d4:41:ef:5e:27:52:bf:60:75:bb:
                    80:1b
                Exponent: 65537 (0x10001)
        X509v3 extensions:
            X509v3 Basic Constraints: 
                CA:FALSE
            X509v3 Subject Key Identifier: 
                4A:6C:04:8F:A3:4F:5E:17:B6:F7:07:A1:49:BD:70:BD:C5:B5:9C:12
            X509v3 Authority Key Identifier: 
                keyid:B4:AE:AB:ED:FC:ED:84:AA:AD:77:5D:7C:84:28:1C:CA:CE:AE:2A:44
                DirName:/C=US/ST=California/L=San Francisco/O=Copyleft Certificate Co/OU=My Organizational Unit/CN=ChangeMe/emailAddress=me@example.net
                serial:BD:6C:3B:F4:D3:07:C9:D1

            X509v3 Extended Key Usage: 
                TLS Web Client Authentication
            X509v3 Key Usage: 
                Digital Signature
    Signature Algorithm: sha256WithRSAEncryption
         6a:87:02:04:83:e5:f3:69:e9:d6:53:3c:db:e8:24:ef:42:c9:
         c0:07:66:b3:e4:dd:72:08:83:f8:cd:1d:ae:5a:53:97:8c:c9:
         63:29:7b:50:f0:72:4e:2c:a5:e5:a2:b0:6d:e2:bf:80:52:2c:
         1a:10:74:ad:46:ab:b2:1a:30:7e:8b:89:28:81:df:b8:e8:7f:
         77:be:55:67:30:9a:65:63:62:74:98:b4:f3:9b:6b:1c:97:4a:
         f4:d7:d6:a9:b0:22:0c:67:5b:73:69:d0:ca:50:c6:42:3b:32:
         6d:9b:53:d9:a0:82:1a:18:4f:f5:2a:26:ac:a7:9a:78:1b:19:
         2f:3e:ed:9b:e2:8c:c3:58:3d:cb:11:97:c1:b2:e4:8a:bb:b9:
         58:97:8e:16:b5:37:30:b9:db:df:b7:44:2d:d5:20:6f:43:4e:
         c8:a8:3c:bb:ad:f7:19:0e:15:7c:7f:cc:73:fc:1b:a4:a7:34:
         13:ed:55:e7:58:01:13:82:c0:c7:7e:7d:a4:33:39:c4:46:b8:
         c6:2b:8f:47:ca:af:31:f0:80:74:86:2b:54:24:a0:b1:7a:5e:
         88:fb:30:20:d3:28:91:99:8f:c7:c4:a7:90:67:11:44:7c:81:
         e8:7b:0d:64:3c:a6:3a:16:d2:3b:9d:23:3e:c7:c5:d5:72:40:
         95:9f:b2:a3
-----BEGIN CERTIFICATE-----
MIIFLzCCBBegAwIBAgIQNmZEyamvACRO50HQyAlkKzANBgkqhkiG9w0BAQsFADCB
rzELMAkGA1UEBhMCVVMxEzARBgNVBAgMCkNhbGlmb3JuaWExFjAUBgNVBAcMDVNh
biBGcmFuY2lzY28xIDAeBgNVBAoMF0NvcHlsZWZ0IENlcnRpZmljYXRlIENvMR8w
HQYDVQQLDBZNeSBPcmdhbml6YXRpb25hbCBVbml0MREwDwYDVQQDDAhDaGFuZ2VN
ZTEdMBsGCSqGSIb3DQEJARYObWVAZXhhbXBsZS5uZXQwHhcNMjMxMTEzMTE0NzI2
WhcNMjQxMTEyMTE0NzI2WjCBuzELMAkGA1UEBhMCVVMxCzAJBgNVBAgMAk9IMRMw
EQYDVQQHDApDaW5jaW5uYXRpMSEwHwYDVQQKDBhVbml2ZXJzaXR5IG9mIENpbmNp
bm5hdGkxKjAoBgNVBAsMIURlcHQuIEVsZWMuIENvbXAuIEVuZy4gQ29tcC4gU2Np
LjERMA8GA1UEAwwIY2xpZW50MTUxKDAmBgkqhkiG9w0BCQEWGWZyYW5jb0BnYXVz
cy5lY2Vjcy51Yy5lZHUwggEiMA0GCSqGSIb3DQEBAQUAA4IBDwAwggEKAoIBAQCi
oiMvUmptbZa3UmzdB4xNSFIg/EAIWvLQa3v0GpJpZNC8MBrHter2Jftr9/uLvOzn
e49sP7R0m/slxxltZCB6kQyuvd2hoSvAtG5MBMEEcVTRiiGv6dVX9WKv5vvddG6A
LFp3cO5tylJQK697yEsUT4NkfsBmQZ7E8EyTklf47cvvhm7Owc6xs09eabQ+hxMs
T61YqskthmJZyW36aFEyQE7GLKMNheoDvPvKLBvdGwUpILwi5TPNCrbS6Rg29Eue
qIbgvnfibl8uxlxswkNs2DAqEmnpXlVH449FRLBTMsNwLE1E9j0YtD/fTvVa/Wu+
kSuR1EHvXidSv2B1u4AbAgMBAAGjggE3MIIBMzAJBgNVHRMEAjAAMB0GA1UdDgQW
BBRKbASPo09eF7b3B6FJvXC9xbWcEjCB5AYDVR0jBIHcMIHZgBS0rqvt/O2Eqq13
XXyEKBzKzq4qRKGBtaSBsjCBrzELMAkGA1UEBhMCVVMxEzARBgNVBAgMCkNhbGlm
b3JuaWExFjAUBgNVBAcMDVNhbiBGcmFuY2lzY28xIDAeBgNVBAoMF0NvcHlsZWZ0
IENlcnRpZmljYXRlIENvMR8wHQYDVQQLDBZNeSBPcmdhbml6YXRpb25hbCBVbml0
MREwDwYDVQQDDAhDaGFuZ2VNZTEdMBsGCSqGSIb3DQEJARYObWVAZXhhbXBsZS5u
ZXSCCQC9bDv00wfJ0TATBgNVHSUEDDAKBggrBgEFBQcDAjALBgNVHQ8EBAMCB4Aw
DQYJKoZIhvcNAQELBQADggEBAGqHAgSD5fNp6dZTPNvoJO9CycAHZrPk3XIIg/jN
Ha5aU5eMyWMpe1Dwck4speWisG3iv4BSLBoQdK1Gq7IaMH6LiSiB37jof3e+VWcw
mmVjYnSYtPObaxyXSvTX1qmwIgxnW3Np0MpQxkI7Mm2bU9mgghoYT/UqJqynmngb
GS8+7ZvijMNYPcsRl8Gy5Iq7uViXjha1NzC529+3RC3VIG9DTsioPLut9xkOFXx/
zHP8G6SnNBPtVedYAROCwMd+faQzOcRGuMYrj0fKrzHwgHSGK1QkoLF6Xoj7MCDT
KJGZj8fEp5BnEUR8geh7DWQ8pjoW0judIz7HxdVyQJWfsqM=
-----END CERTIFICATE-----
