Certificate:
    Data:
        Version: 3 (0x2)
        Serial Number:
            37:22:ea:55:aa:4a:cd:fc:d0:72:a4:17:13:7e:db:9a
    Signature Algorithm: sha256WithRSAEncryption
        Issuer: C=US, ST=California, L=San Francisco, O=Copyleft Certificate Co, OU=My Organizational Unit, CN=ChangeMe/emailAddress=me@example.net
        Validity
            Not Before: Nov 11 18:51:24 2023 GMT
            Not After : Nov 10 18:51:24 2024 GMT
        Subject: C=US, ST=OH, L=Cincinnati, O=University of Cincinnati ., OU=Dept. Elec. Comp. . Eng. Comp. Sci., CN=client22/emailAddress=franco@gauss.ececs.uc.edu
        Subject Public Key Info:
            Public Key Algorithm: rsaEncryption
                Public-Key: (2048 bit)
                Modulus:
                    00:96:6b:dc:c2:6a:ef:b2:e4:14:aa:c0:0d:99:f3:
                    57:0d:62:df:e2:ea:57:23:58:be:f4:d1:a3:07:af:
                    2f:56:fe:51:84:be:64:59:09:4e:cf:1f:10:86:a5:
                    89:84:48:58:fb:b8:a0:a1:f3:25:ce:a7:97:6d:06:
                    d1:bc:8d:1b:6c:b6:5f:4c:7a:1b:e7:ca:74:a6:31:
                    82:89:ba:96:44:7d:d3:09:fe:10:60:53:43:3a:4a:
                    69:c8:d2:20:0e:75:37:ca:33:f5:b3:70:bd:27:93:
                    a1:51:99:6e:1d:81:e8:88:a8:7b:87:eb:65:27:e1:
                    b8:a5:41:f8:d2:9e:e0:48:56:fd:50:1b:d4:00:45:
                    ac:0c:58:94:f8:9c:20:55:42:e3:bd:30:42:ef:9a:
                    d6:5e:5c:f3:23:2c:12:65:ac:e1:f7:c5:2b:eb:66:
                    4d:2b:88:0c:8a:f7:a3:4f:23:20:c0:3a:fd:55:10:
                    82:b2:86:56:10:a7:07:c0:32:5a:27:8e:8d:e5:46:
                    cc:0d:0c:c2:bf:a5:bf:a6:4e:8c:2e:af:44:f0:54:
                    74:0f:62:da:90:b2:8e:70:f9:32:00:b3:c4:da:03:
                    a7:f4:2a:03:81:14:e2:90:7b:49:dc:c5:ec:9b:a6:
                    cc:38:83:cb:3f:6b:36:c4:34:e0:a2:84:5a:d2:59:
                    63:03
                Exponent: 65537 (0x10001)
        X509v3 extensions:
            X509v3 Basic Constraints: 
                CA:FALSE
            X509v3 Subject Key Identifier: 
                A7:13:2B:31:08:8A:E4:2A:44:27:CF:F9:70:84:2B:E6:57:41:15:96
            X509v3 Authority Key Identifier: 
                keyid:9C:0E:D5:A3:16:6F:C8:23:88:D1:12:C9:63:5D:18:D9:C9:FC:5B:E9
                DirName:/C=US/ST=California/L=San Francisco/O=Copyleft Certificate Co/OU=My Organizational Unit/CN=ChangeMe/emailAddress=me@example.net
                serial:A3:08:26:80:D2:47:98:75

            X509v3 Extended Key Usage: 
                TLS Web Client Authentication
            X509v3 Key Usage: 
                Digital Signature
    Signature Algorithm: sha256WithRSAEncryption
         4f:46:0c:7d:2c:4e:0c:18:fc:80:07:26:7c:3d:97:e5:0e:42:
         ce:15:1e:2e:00:09:36:91:49:56:5d:0b:9f:d8:fd:9f:65:e4:
         2d:2c:9d:db:d7:d4:bc:2b:b5:8b:93:c7:7f:47:64:59:68:5b:
         74:94:55:67:12:97:9d:94:66:be:d1:0b:fe:b9:7b:0b:ca:03:
         a8:80:9f:bb:ba:4b:f7:37:f6:08:d1:81:42:55:bf:24:77:c2:
         38:f0:bf:cf:6a:0c:e3:29:77:74:68:46:ca:94:9c:aa:77:12:
         5b:c8:47:39:6a:b8:c7:5d:ef:34:fe:96:8b:d4:e6:86:3c:d6:
         bb:33:c6:bc:a0:9d:76:74:cb:97:5f:5e:99:08:0b:a5:5a:7c:
         3d:c0:d6:3c:7f:15:18:d9:ff:7b:a9:45:aa:db:3c:45:9e:86:
         5c:f5:7b:ad:99:46:f8:09:ae:da:00:a0:38:42:68:46:ba:72:
         a8:c2:c4:4f:c5:19:65:0d:32:93:4e:45:9c:f8:1a:37:4d:93:
         29:73:d3:38:2e:a9:bb:07:db:a2:3c:43:e7:1a:7b:fd:67:4e:
         72:30:e1:75:0b:7f:b1:de:65:23:c4:19:79:c2:58:d0:26:14:
         c5:bb:4f:fd:b5:f5:05:e3:ce:c6:b6:27:24:99:71:37:fd:94:
         d2:c1:f6:5a
-----BEGIN CERTIFICATE-----
MIIFMzCCBBugAwIBAgIQNyLqVapKzfzQcqQXE37bmjANBgkqhkiG9w0BAQsFADCB
rzELMAkGA1UEBhMCVVMxEzARBgNVBAgMCkNhbGlmb3JuaWExFjAUBgNVBAcMDVNh
biBGcmFuY2lzY28xIDAeBgNVBAoMF0NvcHlsZWZ0IENlcnRpZmljYXRlIENvMR8w
HQYDVQQLDBZNeSBPcmdhbml6YXRpb25hbCBVbml0MREwDwYDVQQDDAhDaGFuZ2VN
ZTEdMBsGCSqGSIb3DQEJARYObWVAZXhhbXBsZS5uZXQwHhcNMjMxMTExMTg1MTI0
WhcNMjQxMTEwMTg1MTI0WjCBvzELMAkGA1UEBhMCVVMxCzAJBgNVBAgMAk9IMRMw
EQYDVQQHDApDaW5jaW5uYXRpMSMwIQYDVQQKDBpVbml2ZXJzaXR5IG9mIENpbmNp
bm5hdGkgLjEsMCoGA1UECwwjRGVwdC4gRWxlYy4gQ29tcC4gLiBFbmcuIENvbXAu
IFNjaS4xETAPBgNVBAMMCGNsaWVudDIyMSgwJgYJKoZIhvcNAQkBFhlmcmFuY29A
Z2F1c3MuZWNlY3MudWMuZWR1MIIBIjANBgkqhkiG9w0BAQEFAAOCAQ8AMIIBCgKC
AQEAlmvcwmrvsuQUqsANmfNXDWLf4upXI1i+9NGjB68vVv5RhL5kWQlOzx8QhqWJ
hEhY+7igofMlzqeXbQbRvI0bbLZfTHob58p0pjGCibqWRH3TCf4QYFNDOkppyNIg
DnU3yjP1s3C9J5OhUZluHYHoiKh7h+tlJ+G4pUH40p7gSFb9UBvUAEWsDFiU+Jwg
VULjvTBC75rWXlzzIywSZazh98Ur62ZNK4gMivejTyMgwDr9VRCCsoZWEKcHwDJa
J46N5UbMDQzCv6W/pk6MLq9E8FR0D2LakLKOcPkyALPE2gOn9CoDgRTikHtJ3MXs
m6bMOIPLP2s2xDTgooRa0lljAwIDAQABo4IBNzCCATMwCQYDVR0TBAIwADAdBgNV
HQ4EFgQUpxMrMQiK5CpEJ8/5cIQr5ldBFZYwgeQGA1UdIwSB3DCB2YAUnA7VoxZv
yCOI0RLJY10Y2cn8W+mhgbWkgbIwga8xCzAJBgNVBAYTAlVTMRMwEQYDVQQIDApD
YWxpZm9ybmlhMRYwFAYDVQQHDA1TYW4gRnJhbmNpc2NvMSAwHgYDVQQKDBdDb3B5
bGVmdCBDZXJ0aWZpY2F0ZSBDbzEfMB0GA1UECwwWTXkgT3JnYW5pemF0aW9uYWwg
VW5pdDERMA8GA1UEAwwIQ2hhbmdlTWUxHTAbBgkqhkiG9w0BCQEWDm1lQGV4YW1w
bGUubmV0ggkAowgmgNJHmHUwEwYDVR0lBAwwCgYIKwYBBQUHAwIwCwYDVR0PBAQD
AgeAMA0GCSqGSIb3DQEBCwUAA4IBAQBPRgx9LE4MGPyAByZ8PZflDkLOFR4uAAk2
kUlWXQuf2P2fZeQtLJ3b19S8K7WLk8d/R2RZaFt0lFVnEpedlGa+0Qv+uXsLygOo
gJ+7ukv3N/YI0YFCVb8kd8I48L/PagzjKXd0aEbKlJyqdxJbyEc5arjHXe80/paL
1OaGPNa7M8a8oJ12dMuXX16ZCAulWnw9wNY8fxUY2f97qUWq2zxFnoZc9XutmUb4
Ca7aAKA4QmhGunKowsRPxRllDTKTTkWc+Bo3TZMpc9M4Lqm7B9uiPEPnGnv9Z05y
MOF1C3+x3mUjxBl5wljQJhTFu0/9tfUF487GtickmXE3/ZTSwfZa
-----END CERTIFICATE-----
