Certificate:
    Data:
        Version: 3 (0x2)
        Serial Number:
            3a:a9:bd:70:51:24:c5:8f:57:54:03:15:8c:25:34:01
    Signature Algorithm: sha256WithRSAEncryption
        Issuer: C=US, ST=California, L=San Francisco, O=Copyleft Certificate Co, OU=My Organizational Unit, CN=ChangeMe/emailAddress=me@example.net
        Validity
            Not Before: Jan 23 18:28:38 2021 GMT
            Not After : Jan 23 18:28:38 2022 GMT
        Subject: C=US, ST=OH, L=Cincinnati, O=University of Cincinnati, OU=Dept. Electrical Eng. and Computer Sci., CN=client58/emailAddress=franco@gauss.ececs.uc.edu
        Subject Public Key Info:
            Public Key Algorithm: rsaEncryption
                Public-Key: (2048 bit)
                Modulus:
                    00:db:43:98:47:45:14:2a:20:94:cd:68:03:6f:ea:
                    f0:25:a5:a1:40:9c:59:c4:30:f3:5e:68:24:f3:c3:
                    ad:91:be:24:1e:44:be:43:03:32:a5:8b:85:e3:8b:
                    2b:af:b4:32:53:78:66:67:0c:cb:da:31:ae:1f:ec:
                    99:3c:a5:8e:90:42:52:6e:ff:a8:82:52:86:51:a4:
                    a9:11:2d:8e:15:84:3f:49:4e:64:93:99:40:5f:5d:
                    b9:29:d2:05:11:ae:ae:2e:de:25:c5:18:76:c0:90:
                    54:d7:7c:2d:86:c0:1b:60:bc:cf:fc:15:43:1f:83:
                    f1:b7:52:4a:9a:e7:1f:8f:2c:cf:5b:fc:77:98:ba:
                    06:4a:0d:d2:b2:0f:ce:f5:bf:4c:3c:43:c8:04:d9:
                    b9:51:47:67:8e:b3:39:1e:00:94:51:fc:6e:6f:7a:
                    ca:82:04:8f:64:1f:a8:32:43:d8:b3:31:97:df:1b:
                    23:f6:4a:80:67:57:1a:b7:bb:45:61:d0:bc:99:36:
                    2b:1c:26:0f:95:40:46:e5:dd:aa:d5:fe:d9:84:0e:
                    51:ce:23:b6:10:1d:49:1e:53:dd:73:3e:d4:1f:29:
                    59:33:1d:d0:97:82:da:56:cf:98:dd:ba:66:6a:5c:
                    65:01:d1:97:6c:e5:2e:82:9a:2d:3c:63:e8:fa:56:
                    fa:dd
                Exponent: 65537 (0x10001)
        X509v3 extensions:
            X509v3 Basic Constraints: 
                CA:FALSE
            X509v3 Subject Key Identifier: 
                44:95:CA:51:D4:99:1C:64:38:31:06:80:53:D3:01:AE:5E:BC:74:DF
            X509v3 Authority Key Identifier: 
                keyid:EF:DC:B6:3D:4B:FD:A7:87:05:C5:22:3D:8B:DC:BF:99:2A:EE:E4:DB
                DirName:/C=US/ST=California/L=San Francisco/O=Copyleft Certificate Co/OU=My Organizational Unit/CN=ChangeMe/emailAddress=me@example.net
                serial:87:1E:1D:DC:6B:8C:66:88

            X509v3 Extended Key Usage: 
                TLS Web Client Authentication
            X509v3 Key Usage: 
                Digital Signature
    Signature Algorithm: sha256WithRSAEncryption
         76:eb:c7:4c:53:39:43:43:6b:3a:f4:2b:2f:c8:d3:a5:60:9d:
         20:eb:2e:5d:7d:94:92:d4:9b:c2:f5:d1:a2:20:e9:d5:e8:3c:
         76:cf:77:fc:07:a6:f3:ee:bf:d1:a7:bb:15:d8:b0:4e:2b:b3:
         ef:09:79:ee:7f:f3:b0:52:0e:6a:20:6d:44:17:21:72:8b:de:
         69:da:03:c6:4a:2f:b0:d1:41:e7:b1:14:6c:d9:e0:a2:f1:4e:
         23:78:b8:7a:95:96:c7:d2:23:73:54:94:89:10:77:85:7a:13:
         32:95:cc:9d:25:81:39:6d:34:f1:a1:11:3f:59:df:43:7a:4a:
         b0:6d:31:7d:d6:57:e3:9b:9b:6f:a4:79:c8:e9:f3:1e:c3:42:
         c3:52:97:bc:0e:96:27:fa:6b:5e:57:85:0a:03:a4:f2:a8:9a:
         ce:e8:4f:ab:9f:52:c0:23:81:ce:60:34:72:28:1b:46:d9:d8:
         0a:d9:a9:78:eb:ca:dc:c9:38:68:eb:c6:be:c0:c4:ac:20:71:
         52:34:ff:b5:2f:d3:d7:80:1e:5e:ff:4b:34:96:b1:3a:72:3b:
         ab:c8:c2:2a:fc:f5:37:06:13:2b:98:40:f2:47:98:f6:e9:6a:
         8b:a2:88:b6:b0:4b:b8:2e:eb:b0:20:a7:d9:a4:2c:33:97:04:
         ed:7f:c9:8f
-----BEGIN CERTIFICATE-----
MIIFNTCCBB2gAwIBAgIQOqm9cFEkxY9XVAMVjCU0ATANBgkqhkiG9w0BAQsFADCB
rzELMAkGA1UEBhMCVVMxEzARBgNVBAgMCkNhbGlmb3JuaWExFjAUBgNVBAcMDVNh
biBGcmFuY2lzY28xIDAeBgNVBAoMF0NvcHlsZWZ0IENlcnRpZmljYXRlIENvMR8w
HQYDVQQLDBZNeSBPcmdhbml6YXRpb25hbCBVbml0MREwDwYDVQQDDAhDaGFuZ2VN
ZTEdMBsGCSqGSIb3DQEJARYObWVAZXhhbXBsZS5uZXQwHhcNMjEwMTIzMTgyODM4
WhcNMjIwMTIzMTgyODM4WjCBwTELMAkGA1UEBhMCVVMxCzAJBgNVBAgMAk9IMRMw
EQYDVQQHDApDaW5jaW5uYXRpMSEwHwYDVQQKDBhVbml2ZXJzaXR5IG9mIENpbmNp
bm5hdGkxMDAuBgNVBAsMJ0RlcHQuIEVsZWN0cmljYWwgRW5nLiBhbmQgQ29tcHV0
ZXIgU2NpLjERMA8GA1UEAwwIY2xpZW50NTgxKDAmBgkqhkiG9w0BCQEWGWZyYW5j
b0BnYXVzcy5lY2Vjcy51Yy5lZHUwggEiMA0GCSqGSIb3DQEBAQUAA4IBDwAwggEK
AoIBAQDbQ5hHRRQqIJTNaANv6vAlpaFAnFnEMPNeaCTzw62RviQeRL5DAzKli4Xj
iyuvtDJTeGZnDMvaMa4f7Jk8pY6QQlJu/6iCUoZRpKkRLY4VhD9JTmSTmUBfXbkp
0gURrq4u3iXFGHbAkFTXfC2GwBtgvM/8FUMfg/G3Ukqa5x+PLM9b/HeYugZKDdKy
D871v0w8Q8gE2blRR2eOszkeAJRR/G5vesqCBI9kH6gyQ9izMZffGyP2SoBnVxq3
u0Vh0LyZNiscJg+VQEbl3arV/tmEDlHOI7YQHUkeU91zPtQfKVkzHdCXgtpWz5jd
umZqXGUB0Zds5S6Cmi08Y+j6VvrdAgMBAAGjggE3MIIBMzAJBgNVHRMEAjAAMB0G
A1UdDgQWBBRElcpR1JkcZDgxBoBT0wGuXrx03zCB5AYDVR0jBIHcMIHZgBTv3LY9
S/2nhwXFIj2L3L+ZKu7k26GBtaSBsjCBrzELMAkGA1UEBhMCVVMxEzARBgNVBAgM
CkNhbGlmb3JuaWExFjAUBgNVBAcMDVNhbiBGcmFuY2lzY28xIDAeBgNVBAoMF0Nv
cHlsZWZ0IENlcnRpZmljYXRlIENvMR8wHQYDVQQLDBZNeSBPcmdhbml6YXRpb25h
bCBVbml0MREwDwYDVQQDDAhDaGFuZ2VNZTEdMBsGCSqGSIb3DQEJARYObWVAZXhh
bXBsZS5uZXSCCQCHHh3ca4xmiDATBgNVHSUEDDAKBggrBgEFBQcDAjALBgNVHQ8E
BAMCB4AwDQYJKoZIhvcNAQELBQADggEBAHbrx0xTOUNDazr0Ky/I06VgnSDrLl19
lJLUm8L10aIg6dXoPHbPd/wHpvPuv9GnuxXYsE4rs+8Jee5/87BSDmogbUQXIXKL
3mnaA8ZKL7DRQeexFGzZ4KLxTiN4uHqVlsfSI3NUlIkQd4V6EzKVzJ0lgTltNPGh
ET9Z30N6SrBtMX3WV+Obm2+kecjp8x7DQsNSl7wOlif6a15XhQoDpPKoms7oT6uf
UsAjgc5gNHIoG0bZ2ArZqXjrytzJOGjrxr7AxKwgcVI0/7Uv09eAHl7/SzSWsTpy
O6vIwir89TcGEyuYQPJHmPbpaouiiLawS7gu67Agp9mkLDOXBO1/yY8=
-----END CERTIFICATE-----
