Certificate:
    Data:
        Version: 3 (0x2)
        Serial Number:
            3d:71:5f:fe:0f:8b:66:4e:4c:d1:cc:ef:8d:9f:16:91
    Signature Algorithm: sha256WithRSAEncryption
        Issuer: C=US, ST=California, L=San Francisco, O=Copyleft Certificate Co, OU=My Organizational Unit, CN=ChangeMe/emailAddress=me@example.net
        Validity
            Not Before: Nov 11 01:58:27 2023 GMT
            Not After : Nov 10 01:58:27 2024 GMT
        Subject: C=US, ST=OH, L=Cincinnati, O=University of Cincinnati, OU=Dept. Elec. Comp. Eng. Comp. Sci., CN=client6/emailAddress=franco@gauss.ececs.uc.edu
        Subject Public Key Info:
            Public Key Algorithm: rsaEncryption
                Public-Key: (2048 bit)
                Modulus:
                    00:ed:32:77:77:01:df:37:8f:ad:20:61:b5:ff:2e:
                    4e:27:8f:fd:99:bc:e8:0d:73:db:c5:0b:ef:48:75:
                    6a:b9:7d:bd:81:e3:01:9b:8c:92:32:c6:66:b2:89:
                    0c:9b:26:e4:66:8c:e2:ee:e6:c2:e7:21:f0:b8:a4:
                    8f:52:fc:c2:f2:b1:2f:e3:4a:03:94:11:27:6a:4f:
                    7e:6b:c8:87:fe:74:6b:b2:06:bd:c6:3c:ce:7f:30:
                    c3:3e:1a:26:23:5e:0e:39:de:86:03:a6:d3:c5:1d:
                    12:88:7b:3e:52:68:76:5d:10:d2:11:2d:51:07:46:
                    f3:c1:da:c3:7d:df:8d:99:dd:c3:af:83:a7:06:b9:
                    ee:47:5c:49:6a:9f:e6:54:60:94:c2:c5:af:d2:26:
                    52:5a:13:80:a7:54:f0:9f:43:36:86:f4:38:14:23:
                    6b:0b:4e:e0:df:ed:a5:0c:1c:f7:41:a6:01:e4:7f:
                    c5:d0:69:4e:c9:4f:af:d6:a4:ca:7e:f2:c9:50:83:
                    d5:58:45:c5:12:68:94:cb:f3:b9:25:06:0c:f1:13:
                    55:2e:d8:a4:2d:bc:bc:40:ff:b8:ee:0a:df:3a:94:
                    65:6a:0f:85:e3:df:e8:75:0d:bb:e4:61:a1:f8:f6:
                    d7:7d:c6:10:99:20:08:d7:d2:cf:4e:9a:31:26:5a:
                    c4:03
                Exponent: 65537 (0x10001)
        X509v3 extensions:
            X509v3 Basic Constraints: 
                CA:FALSE
            X509v3 Subject Key Identifier: 
                12:6D:CB:82:A3:E4:D4:FE:27:50:9D:14:4E:11:7B:BE:38:E9:18:96
            X509v3 Authority Key Identifier: 
                keyid:7B:0F:93:16:64:9F:71:41:D3:1B:FB:ED:6A:70:9B:CA:2E:70:F0:4B
                DirName:/C=US/ST=California/L=San Francisco/O=Copyleft Certificate Co/OU=My Organizational Unit/CN=ChangeMe/emailAddress=me@example.net
                serial:B9:F2:4E:2C:79:B3:D4:6C

            X509v3 Extended Key Usage: 
                TLS Web Client Authentication
            X509v3 Key Usage: 
                Digital Signature
    Signature Algorithm: sha256WithRSAEncryption
         0d:ba:f6:63:6c:48:61:fd:14:18:3f:3f:ca:ba:98:2b:e3:51:
         c3:18:8d:6f:f1:44:db:39:63:37:35:cc:9e:fc:10:5b:f8:74:
         09:d1:e5:e0:38:e4:92:f9:6d:61:91:70:f9:ab:90:e5:74:39:
         f7:b1:5c:2c:57:92:d8:5f:20:3f:09:ab:f8:8f:fe:16:16:ee:
         30:01:de:57:f8:b6:78:53:41:6b:0f:16:f1:79:57:07:99:2d:
         6a:81:ae:36:84:dc:b5:c8:ab:1b:d6:0c:a7:42:3e:a6:08:fe:
         0e:fd:9b:96:de:60:dd:6e:bd:2e:fc:0d:5a:af:64:bf:4f:fc:
         16:f2:7e:26:32:b7:10:a4:ff:8a:ab:48:ae:32:71:59:f0:32:
         c3:b3:1b:08:6f:09:2f:0b:52:58:9e:cc:6f:d8:ab:dc:7c:f0:
         28:f5:8c:a7:0d:59:d6:be:94:17:ea:5c:93:f9:40:fc:fc:4f:
         5c:14:56:4c:48:e8:75:5d:39:fa:74:2c:c5:27:d0:55:ba:c8:
         0a:c2:4c:34:05:c6:fd:62:ad:1a:4c:e3:d6:4e:57:1b:38:80:
         4a:a9:f5:b1:92:f1:94:55:f2:cc:49:bf:25:5a:46:7e:e6:86:
         d3:26:fe:a1:92:ff:d6:88:85:fb:ed:05:c9:ba:41:61:18:7f:
         c2:07:9e:b3
-----BEGIN CERTIFICATE-----
MIIFLjCCBBagAwIBAgIQPXFf/g+LZk5M0czvjZ8WkTANBgkqhkiG9w0BAQsFADCB
rzELMAkGA1UEBhMCVVMxEzARBgNVBAgMCkNhbGlmb3JuaWExFjAUBgNVBAcMDVNh
biBGcmFuY2lzY28xIDAeBgNVBAoMF0NvcHlsZWZ0IENlcnRpZmljYXRlIENvMR8w
HQYDVQQLDBZNeSBPcmdhbml6YXRpb25hbCBVbml0MREwDwYDVQQDDAhDaGFuZ2VN
ZTEdMBsGCSqGSIb3DQEJARYObWVAZXhhbXBsZS5uZXQwHhcNMjMxMTExMDE1ODI3
WhcNMjQxMTEwMDE1ODI3WjCBujELMAkGA1UEBhMCVVMxCzAJBgNVBAgMAk9IMRMw
EQYDVQQHDApDaW5jaW5uYXRpMSEwHwYDVQQKDBhVbml2ZXJzaXR5IG9mIENpbmNp
bm5hdGkxKjAoBgNVBAsMIURlcHQuIEVsZWMuIENvbXAuIEVuZy4gQ29tcC4gU2Np
LjEQMA4GA1UEAwwHY2xpZW50NjEoMCYGCSqGSIb3DQEJARYZZnJhbmNvQGdhdXNz
LmVjZWNzLnVjLmVkdTCCASIwDQYJKoZIhvcNAQEBBQADggEPADCCAQoCggEBAO0y
d3cB3zePrSBhtf8uTieP/Zm86A1z28UL70h1arl9vYHjAZuMkjLGZrKJDJsm5GaM
4u7mwuch8Likj1L8wvKxL+NKA5QRJ2pPfmvIh/50a7IGvcY8zn8wwz4aJiNeDjne
hgOm08UdEoh7PlJodl0Q0hEtUQdG88Haw33fjZndw6+Dpwa57kdcSWqf5lRglMLF
r9ImUloTgKdU8J9DNob0OBQjawtO4N/tpQwc90GmAeR/xdBpTslPr9akyn7yyVCD
1VhFxRJolMvzuSUGDPETVS7YpC28vED/uO4K3zqUZWoPhePf6HUNu+Rhofj2133G
EJkgCNfSz06aMSZaxAMCAwEAAaOCATcwggEzMAkGA1UdEwQCMAAwHQYDVR0OBBYE
FBJty4Kj5NT+J1CdFE4Re7446RiWMIHkBgNVHSMEgdwwgdmAFHsPkxZkn3FB0xv7
7Wpwm8oucPBLoYG1pIGyMIGvMQswCQYDVQQGEwJVUzETMBEGA1UECAwKQ2FsaWZv
cm5pYTEWMBQGA1UEBwwNU2FuIEZyYW5jaXNjbzEgMB4GA1UECgwXQ29weWxlZnQg
Q2VydGlmaWNhdGUgQ28xHzAdBgNVBAsMFk15IE9yZ2FuaXphdGlvbmFsIFVuaXQx
ETAPBgNVBAMMCENoYW5nZU1lMR0wGwYJKoZIhvcNAQkBFg5tZUBleGFtcGxlLm5l
dIIJALnyTix5s9RsMBMGA1UdJQQMMAoGCCsGAQUFBwMCMAsGA1UdDwQEAwIHgDAN
BgkqhkiG9w0BAQsFAAOCAQEADbr2Y2xIYf0UGD8/yrqYK+NRwxiNb/FE2zljNzXM
nvwQW/h0CdHl4DjkkvltYZFw+auQ5XQ597FcLFeS2F8gPwmr+I/+FhbuMAHeV/i2
eFNBaw8W8XlXB5ktaoGuNoTctcirG9YMp0I+pgj+Dv2blt5g3W69LvwNWq9kv0/8
FvJ+JjK3EKT/iqtIrjJxWfAyw7MbCG8JLwtSWJ7Mb9ir3HzwKPWMpw1Z1r6UF+pc
k/lA/PxPXBRWTEjodV05+nQsxSfQVbrICsJMNAXG/WKtGkzj1k5XGziASqn1sZLx
lFXyzEm/JVpGfuaG0yb+oZL/1oiF++0FybpBYRh/wgeesw==
-----END CERTIFICATE-----
