Certificate:
    Data:
        Version: 3 (0x2)
        Serial Number:
            3d:8e:56:00:7b:ac:95:cd:b7:f8:c0:16:85:53:64:6f
    Signature Algorithm: sha256WithRSAEncryption
        Issuer: C=US, ST=California, L=San Francisco, O=Copyleft Certificate Co, OU=My Organizational Unit, CN=ChangeMe/emailAddress=me@example.net
        Validity
            Not Before: Nov 13 11:48:34 2023 GMT
            Not After : Nov 12 11:48:34 2024 GMT
        Subject: C=US, ST=OH, L=Cincinnati, O=University of Cincinnati, OU=Dept. Elec. Comp. Eng. Comp. Sci., CN=client32/emailAddress=franco@gauss.ececs.uc.edu
        Subject Public Key Info:
            Public Key Algorithm: rsaEncryption
                Public-Key: (2048 bit)
                Modulus:
                    00:b3:f8:25:41:3f:8d:56:30:69:d4:7b:91:ba:ce:
                    76:68:eb:c0:f6:5b:95:97:cc:69:a6:52:0e:bc:3b:
                    1c:c6:5d:06:20:5e:1d:89:6f:de:9b:be:7a:b9:9b:
                    ff:85:1d:af:57:d7:62:d0:64:7a:91:fa:6e:b9:37:
                    78:a2:71:6e:3e:e8:08:6b:02:b4:dc:20:43:b8:d7:
                    08:c7:28:81:8c:eb:d1:86:fd:86:54:c6:82:ca:ee:
                    a0:2c:30:de:8b:a7:53:a2:30:59:36:62:30:55:52:
                    c2:8c:e6:a0:61:3f:13:cb:a5:4d:11:8d:40:d0:4c:
                    26:38:9c:ba:90:5e:fc:3c:16:51:63:be:46:af:cf:
                    1b:7c:7b:31:2c:5e:83:0c:0f:d7:c9:ad:c0:40:ac:
                    05:9a:3c:51:22:09:b7:7d:ac:d6:10:9c:e8:b8:99:
                    8b:b9:eb:81:d7:24:0b:5c:7c:fe:26:f6:b0:67:a8:
                    08:43:0c:1b:49:19:aa:0f:7c:dc:b7:bd:79:42:fc:
                    c4:b2:48:d0:38:13:19:b8:95:2c:4e:15:ef:76:0f:
                    a0:1b:5b:4d:b3:03:ae:0b:a4:64:3e:23:51:ad:ac:
                    b9:c1:ff:c2:f8:06:ff:a2:d8:a5:cd:46:42:ab:c1:
                    4c:91:55:33:10:0c:ba:ef:1d:52:97:d8:06:f4:f7:
                    dd:45
                Exponent: 65537 (0x10001)
        X509v3 extensions:
            X509v3 Basic Constraints: 
                CA:FALSE
            X509v3 Subject Key Identifier: 
                83:D7:15:08:88:F6:72:FD:57:7B:C9:49:9E:14:18:D8:B1:AA:53:5C
            X509v3 Authority Key Identifier: 
                keyid:B4:AE:AB:ED:FC:ED:84:AA:AD:77:5D:7C:84:28:1C:CA:CE:AE:2A:44
                DirName:/C=US/ST=California/L=San Francisco/O=Copyleft Certificate Co/OU=My Organizational Unit/CN=ChangeMe/emailAddress=me@example.net
                serial:BD:6C:3B:F4:D3:07:C9:D1

            X509v3 Extended Key Usage: 
                TLS Web Client Authentication
            X509v3 Key Usage: 
                Digital Signature
    Signature Algorithm: sha256WithRSAEncryption
         33:f7:54:91:df:27:5d:0a:42:8e:41:79:23:33:2d:1c:3b:0d:
         38:69:76:62:46:b7:6c:2f:db:14:65:7b:de:24:c6:e0:20:70:
         09:4e:67:1c:24:38:05:46:89:31:48:fb:20:0f:14:c2:78:08:
         ca:af:1e:12:79:96:c7:da:4f:95:c3:00:c6:f0:ec:fc:f4:7b:
         e8:da:d2:bc:19:e3:11:a5:12:53:89:90:3b:da:0c:ce:c0:c7:
         fc:d5:8c:10:13:86:8e:86:13:ff:0a:ee:0d:cd:0b:a8:7f:dd:
         bb:96:ee:d1:6e:64:38:27:3a:01:11:93:b3:90:65:28:bb:db:
         30:63:7a:2e:b4:ee:e2:59:e4:ad:41:11:28:5b:d5:1c:7a:ad:
         81:ab:e2:71:24:af:6d:99:fb:97:f0:d4:f2:de:df:b6:56:c3:
         ce:73:c3:b3:57:f8:ec:b0:7c:25:45:6b:6d:05:0b:13:be:a8:
         0e:c6:b4:65:81:d0:5d:76:6f:26:90:61:87:da:8e:40:18:43:
         ae:95:60:1a:5d:d8:ef:97:59:42:72:f5:00:7b:eb:de:91:18:
         2a:18:78:aa:f7:8d:f5:2c:25:f9:8e:c8:e8:f2:40:9c:c7:04:
         9c:da:22:a2:99:94:ef:0c:66:b6:39:4b:9a:36:11:82:85:67:
         5e:96:02:a1
-----BEGIN CERTIFICATE-----
MIIFLzCCBBegAwIBAgIQPY5WAHuslc23+MAWhVNkbzANBgkqhkiG9w0BAQsFADCB
rzELMAkGA1UEBhMCVVMxEzARBgNVBAgMCkNhbGlmb3JuaWExFjAUBgNVBAcMDVNh
biBGcmFuY2lzY28xIDAeBgNVBAoMF0NvcHlsZWZ0IENlcnRpZmljYXRlIENvMR8w
HQYDVQQLDBZNeSBPcmdhbml6YXRpb25hbCBVbml0MREwDwYDVQQDDAhDaGFuZ2VN
ZTEdMBsGCSqGSIb3DQEJARYObWVAZXhhbXBsZS5uZXQwHhcNMjMxMTEzMTE0ODM0
WhcNMjQxMTEyMTE0ODM0WjCBuzELMAkGA1UEBhMCVVMxCzAJBgNVBAgMAk9IMRMw
EQYDVQQHDApDaW5jaW5uYXRpMSEwHwYDVQQKDBhVbml2ZXJzaXR5IG9mIENpbmNp
bm5hdGkxKjAoBgNVBAsMIURlcHQuIEVsZWMuIENvbXAuIEVuZy4gQ29tcC4gU2Np
LjERMA8GA1UEAwwIY2xpZW50MzIxKDAmBgkqhkiG9w0BCQEWGWZyYW5jb0BnYXVz
cy5lY2Vjcy51Yy5lZHUwggEiMA0GCSqGSIb3DQEBAQUAA4IBDwAwggEKAoIBAQCz
+CVBP41WMGnUe5G6znZo68D2W5WXzGmmUg68OxzGXQYgXh2Jb96bvnq5m/+FHa9X
12LQZHqR+m65N3iicW4+6AhrArTcIEO41wjHKIGM69GG/YZUxoLK7qAsMN6Lp1Oi
MFk2YjBVUsKM5qBhPxPLpU0RjUDQTCY4nLqQXvw8FlFjvkavzxt8ezEsXoMMD9fJ
rcBArAWaPFEiCbd9rNYQnOi4mYu564HXJAtcfP4m9rBnqAhDDBtJGaoPfNy3vXlC
/MSySNA4Exm4lSxOFe92D6AbW02zA64LpGQ+I1GtrLnB/8L4Bv+i2KXNRkKrwUyR
VTMQDLrvHVKX2Ab0991FAgMBAAGjggE3MIIBMzAJBgNVHRMEAjAAMB0GA1UdDgQW
BBSD1xUIiPZy/Vd7yUmeFBjYsapTXDCB5AYDVR0jBIHcMIHZgBS0rqvt/O2Eqq13
XXyEKBzKzq4qRKGBtaSBsjCBrzELMAkGA1UEBhMCVVMxEzARBgNVBAgMCkNhbGlm
b3JuaWExFjAUBgNVBAcMDVNhbiBGcmFuY2lzY28xIDAeBgNVBAoMF0NvcHlsZWZ0
IENlcnRpZmljYXRlIENvMR8wHQYDVQQLDBZNeSBPcmdhbml6YXRpb25hbCBVbml0
MREwDwYDVQQDDAhDaGFuZ2VNZTEdMBsGCSqGSIb3DQEJARYObWVAZXhhbXBsZS5u
ZXSCCQC9bDv00wfJ0TATBgNVHSUEDDAKBggrBgEFBQcDAjALBgNVHQ8EBAMCB4Aw
DQYJKoZIhvcNAQELBQADggEBADP3VJHfJ10KQo5BeSMzLRw7DThpdmJGt2wv2xRl
e94kxuAgcAlOZxwkOAVGiTFI+yAPFMJ4CMqvHhJ5lsfaT5XDAMbw7Pz0e+ja0rwZ
4xGlElOJkDvaDM7Ax/zVjBATho6GE/8K7g3NC6h/3buW7tFuZDgnOgERk7OQZSi7
2zBjei607uJZ5K1BEShb1Rx6rYGr4nEkr22Z+5fw1PLe37ZWw85zw7NX+OywfCVF
a20FCxO+qA7GtGWB0F12byaQYYfajkAYQ66VYBpd2O+XWUJy9QB7696RGCoYeKr3
jfUsJfmOyOjyQJzHBJzaIqKZlO8MZrY5S5o2EYKFZ16WAqE=
-----END CERTIFICATE-----
