Certificate:
    Data:
        Version: 3 (0x2)
        Serial Number:
            3d:ee:75:27:c8:4f:ce:91:fe:5e:98:5f:d4:f6:cb:5e
    Signature Algorithm: sha256WithRSAEncryption
        Issuer: C=US, ST=California, L=San Francisco, O=Copyleft Certificate Co, OU=My Organizational Unit, CN=ChangeMe/emailAddress=me@example.net
        Validity
            Not Before: Nov 11 18:51:08 2023 GMT
            Not After : Nov 10 18:51:08 2024 GMT
        Subject: C=US, ST=OH, L=Cincinnati, O=University of Cincinnati ., OU=Dept. Elec. Comp. . Eng. Comp. Sci., CN=client18/emailAddress=franco@gauss.ececs.uc.edu
        Subject Public Key Info:
            Public Key Algorithm: rsaEncryption
                Public-Key: (2048 bit)
                Modulus:
                    00:d0:7e:70:9e:28:a2:a6:96:f5:ba:66:23:21:b9:
                    5c:d7:41:d2:c9:6a:e7:19:92:28:a8:9e:12:38:c6:
                    3d:44:e8:4d:fe:cd:d4:5e:3d:36:dc:02:4e:2c:81:
                    2c:76:f7:f8:5e:c8:80:48:ae:e5:aa:77:3f:ba:d3:
                    24:9d:5d:9b:d0:4e:84:ed:37:7d:f9:b0:e3:28:59:
                    a9:d1:af:74:9c:cf:d4:2c:0e:b9:c9:e9:20:79:a8:
                    75:51:31:ef:a1:16:da:4e:74:c7:b3:b7:c0:df:36:
                    8a:15:12:a3:5b:fe:a8:78:be:12:4e:93:f4:eb:29:
                    4f:dc:52:24:56:72:1d:21:73:88:16:55:9f:5a:00:
                    12:34:3b:4b:23:5c:62:71:f4:04:42:60:68:4a:64:
                    0c:5e:1c:b7:61:d3:79:1c:50:b9:64:29:81:aa:21:
                    49:cc:44:d2:d9:b1:3f:f0:8c:47:fb:98:57:5d:7b:
                    9e:7a:ca:72:91:24:e3:16:8e:6d:68:6c:80:17:09:
                    1b:22:13:3e:6a:c3:7d:7b:83:cd:c6:7b:79:ef:21:
                    83:3f:7b:74:3a:c3:62:8c:9f:96:3f:e0:5d:7e:cd:
                    4e:20:30:aa:6d:40:bb:af:79:70:da:84:84:e8:df:
                    3f:bd:2f:3b:ea:6d:80:45:27:c1:22:da:11:ff:e4:
                    a1:ad
                Exponent: 65537 (0x10001)
        X509v3 extensions:
            X509v3 Basic Constraints: 
                CA:FALSE
            X509v3 Subject Key Identifier: 
                C3:21:D0:FA:DC:4E:EC:19:F2:38:69:A1:A4:C9:45:FA:73:EF:EC:56
            X509v3 Authority Key Identifier: 
                keyid:9C:0E:D5:A3:16:6F:C8:23:88:D1:12:C9:63:5D:18:D9:C9:FC:5B:E9
                DirName:/C=US/ST=California/L=San Francisco/O=Copyleft Certificate Co/OU=My Organizational Unit/CN=ChangeMe/emailAddress=me@example.net
                serial:A3:08:26:80:D2:47:98:75

            X509v3 Extended Key Usage: 
                TLS Web Client Authentication
            X509v3 Key Usage: 
                Digital Signature
    Signature Algorithm: sha256WithRSAEncryption
         13:99:75:c3:56:e5:98:df:03:07:02:e1:22:82:9f:99:f1:bd:
         4e:43:10:30:36:de:3a:b9:18:d0:4d:26:5d:5c:a1:77:1c:c3:
         0d:bc:33:b2:88:03:ae:d0:ac:a0:9d:f4:87:f2:b9:3c:39:3f:
         28:9c:98:f2:03:4e:e3:7d:ae:0a:3e:dd:0b:e8:4b:b5:1a:9e:
         e8:97:3c:c7:95:0d:49:34:03:2c:db:d7:d2:55:e5:82:6d:bf:
         0e:d6:1a:b7:c9:07:6f:45:31:b5:b0:fc:1f:a2:c2:d4:e0:48:
         a6:6b:4a:6e:ed:6a:a9:79:a0:a3:72:0a:c5:f3:b9:ad:90:73:
         a6:48:a0:4b:64:ad:ca:d7:85:55:53:04:36:4f:44:50:eb:48:
         b3:bd:33:8a:ac:f9:11:b3:af:be:94:7f:9d:d3:d9:3d:15:d6:
         f2:02:8c:cf:00:13:f9:82:6f:2e:47:56:d4:67:ee:c0:35:f6:
         b2:2a:f2:9a:8e:ff:20:50:39:37:7f:37:97:cc:38:10:ce:dd:
         4a:d4:80:64:c0:f8:d1:8f:40:a6:96:29:11:fd:39:1d:ce:62:
         53:69:02:c2:6b:fe:9c:78:9e:40:5e:2e:d7:e6:4b:37:0e:c5:
         53:ab:de:ad:61:52:fe:a2:bb:cb:96:29:7b:72:c8:6c:e0:95:
         9f:9a:d7:3b
-----BEGIN CERTIFICATE-----
MIIFMzCCBBugAwIBAgIQPe51J8hPzpH+Xphf1PbLXjANBgkqhkiG9w0BAQsFADCB
rzELMAkGA1UEBhMCVVMxEzARBgNVBAgMCkNhbGlmb3JuaWExFjAUBgNVBAcMDVNh
biBGcmFuY2lzY28xIDAeBgNVBAoMF0NvcHlsZWZ0IENlcnRpZmljYXRlIENvMR8w
HQYDVQQLDBZNeSBPcmdhbml6YXRpb25hbCBVbml0MREwDwYDVQQDDAhDaGFuZ2VN
ZTEdMBsGCSqGSIb3DQEJARYObWVAZXhhbXBsZS5uZXQwHhcNMjMxMTExMTg1MTA4
WhcNMjQxMTEwMTg1MTA4WjCBvzELMAkGA1UEBhMCVVMxCzAJBgNVBAgMAk9IMRMw
EQYDVQQHDApDaW5jaW5uYXRpMSMwIQYDVQQKDBpVbml2ZXJzaXR5IG9mIENpbmNp
bm5hdGkgLjEsMCoGA1UECwwjRGVwdC4gRWxlYy4gQ29tcC4gLiBFbmcuIENvbXAu
IFNjaS4xETAPBgNVBAMMCGNsaWVudDE4MSgwJgYJKoZIhvcNAQkBFhlmcmFuY29A
Z2F1c3MuZWNlY3MudWMuZWR1MIIBIjANBgkqhkiG9w0BAQEFAAOCAQ8AMIIBCgKC
AQEA0H5wniiippb1umYjIblc10HSyWrnGZIoqJ4SOMY9ROhN/s3UXj023AJOLIEs
dvf4XsiASK7lqnc/utMknV2b0E6E7Td9+bDjKFmp0a90nM/ULA65yekgeah1UTHv
oRbaTnTHs7fA3zaKFRKjW/6oeL4STpP06ylP3FIkVnIdIXOIFlWfWgASNDtLI1xi
cfQEQmBoSmQMXhy3YdN5HFC5ZCmBqiFJzETS2bE/8IxH+5hXXXueespykSTjFo5t
aGyAFwkbIhM+asN9e4PNxnt57yGDP3t0OsNijJ+WP+Bdfs1OIDCqbUC7r3lw2oSE
6N8/vS876m2ARSfBItoR/+ShrQIDAQABo4IBNzCCATMwCQYDVR0TBAIwADAdBgNV
HQ4EFgQUwyHQ+txO7BnyOGmhpMlF+nPv7FYwgeQGA1UdIwSB3DCB2YAUnA7VoxZv
yCOI0RLJY10Y2cn8W+mhgbWkgbIwga8xCzAJBgNVBAYTAlVTMRMwEQYDVQQIDApD
YWxpZm9ybmlhMRYwFAYDVQQHDA1TYW4gRnJhbmNpc2NvMSAwHgYDVQQKDBdDb3B5
bGVmdCBDZXJ0aWZpY2F0ZSBDbzEfMB0GA1UECwwWTXkgT3JnYW5pemF0aW9uYWwg
VW5pdDERMA8GA1UEAwwIQ2hhbmdlTWUxHTAbBgkqhkiG9w0BCQEWDm1lQGV4YW1w
bGUubmV0ggkAowgmgNJHmHUwEwYDVR0lBAwwCgYIKwYBBQUHAwIwCwYDVR0PBAQD
AgeAMA0GCSqGSIb3DQEBCwUAA4IBAQATmXXDVuWY3wMHAuEigp+Z8b1OQxAwNt46
uRjQTSZdXKF3HMMNvDOyiAOu0KygnfSH8rk8OT8onJjyA07jfa4KPt0L6Eu1Gp7o
lzzHlQ1JNAMs29fSVeWCbb8O1hq3yQdvRTG1sPwfosLU4Eima0pu7WqpeaCjcgrF
87mtkHOmSKBLZK3K14VVUwQ2T0RQ60izvTOKrPkRs6++lH+d09k9FdbyAozPABP5
gm8uR1bUZ+7ANfayKvKajv8gUDk3fzeXzDgQzt1K1IBkwPjRj0CmlikR/TkdzmJT
aQLCa/6ceJ5AXi7X5ks3DsVTq96tYVL+orvLlil7cshs4JWfmtc7
-----END CERTIFICATE-----
