Certificate:
    Data:
        Version: 3 (0x2)
        Serial Number:
            42:5e:33:ce:7b:a9:8e:0c:a5:cc:2c:24:e1:64:ce:6f
    Signature Algorithm: sha256WithRSAEncryption
        Issuer: C=US, ST=California, L=San Francisco, O=Copyleft Certificate Co, OU=My Organizational Unit, CN=ChangeMe/emailAddress=me@example.net
        Validity
            Not Before: Nov 11 14:49:50 2023 GMT
            Not After : Nov 10 14:49:50 2024 GMT
        Subject: C=US, ST=OH, L=Cincinnati, O=University of Cincinnati ., OU=Dept. Elec. Comp. . Eng. Comp. Sci., CN=client2/emailAddress=franco@gauss.ececs.uc.edu
        Subject Public Key Info:
            Public Key Algorithm: rsaEncryption
                Public-Key: (2048 bit)
                Modulus:
                    00:da:78:f5:30:94:be:65:2e:66:88:73:dd:51:93:
                    ae:32:fc:96:6f:d2:e3:1a:8f:21:ab:eb:6b:31:fe:
                    89:bc:e2:55:49:86:dd:e2:59:9d:8f:bf:a1:d5:0e:
                    2c:9b:0b:56:5a:b7:91:94:f3:23:fd:d5:29:08:6a:
                    97:8d:82:12:b0:52:1b:e2:27:7b:15:e4:a8:3d:ea:
                    3b:42:a2:ae:84:06:90:9b:9e:b0:d9:50:0b:8c:4e:
                    12:a1:25:51:26:85:c8:f3:4a:53:f0:0d:4a:94:b7:
                    87:8b:1f:37:2a:a0:6f:13:84:b4:70:58:b6:b7:38:
                    db:54:31:da:c2:be:60:b0:32:4b:f6:43:c5:a9:b9:
                    af:f7:3c:65:f4:38:54:74:b1:32:ab:c7:c1:4d:2f:
                    ac:eb:31:38:48:07:02:52:c7:9c:cf:c2:d5:01:44:
                    f2:a1:05:b6:ad:65:1f:e5:00:74:50:11:b5:ac:04:
                    26:c9:c1:51:05:e6:eb:da:ac:0a:dd:f4:5a:34:73:
                    80:90:af:5c:bf:67:0b:42:3e:34:7c:83:5b:4e:70:
                    45:24:18:74:2f:1c:c7:5e:b7:10:f0:33:95:c0:6c:
                    90:a5:e0:5c:dd:b3:59:1e:01:ff:73:87:d0:a5:17:
                    a0:4a:d2:68:2a:23:b1:73:f3:13:73:6c:0c:0c:33:
                    8d:a9
                Exponent: 65537 (0x10001)
        X509v3 extensions:
            X509v3 Basic Constraints: 
                CA:FALSE
            X509v3 Subject Key Identifier: 
                DE:97:1A:D9:89:EC:C1:D9:C7:04:F8:EE:25:D4:CB:47:DD:45:A0:27
            X509v3 Authority Key Identifier: 
                keyid:37:77:FF:9E:80:0A:A0:2D:03:2E:41:2E:A7:9F:2C:08:1D:27:A7:1F
                DirName:/C=US/ST=California/L=San Francisco/O=Copyleft Certificate Co/OU=My Organizational Unit/CN=ChangeMe/emailAddress=me@example.net
                serial:8E:F4:CE:BF:34:CB:64:72

            X509v3 Extended Key Usage: 
                TLS Web Client Authentication
            X509v3 Key Usage: 
                Digital Signature
    Signature Algorithm: sha256WithRSAEncryption
         ad:d6:2a:c3:ea:bd:02:b6:fc:01:2d:fc:bf:f2:91:39:50:44:
         30:3a:e0:5a:ec:b6:a8:e1:c3:c3:86:c3:70:3a:f3:4d:f4:40:
         94:86:41:27:6e:bf:06:9c:aa:48:c5:53:e2:5f:3a:4f:fa:77:
         33:89:98:f1:36:de:a7:4b:10:20:87:d0:86:04:6b:18:10:75:
         33:d0:b7:27:6c:05:81:c7:b0:1a:8a:3c:29:74:2c:d9:f6:17:
         68:c8:e3:89:c9:f7:a7:54:51:92:dd:9e:85:f6:95:33:35:c4:
         0d:d6:9e:88:c7:68:4e:b7:fe:fc:dd:66:9e:88:b8:51:d0:8d:
         31:63:8e:e0:e9:ad:15:e8:55:b7:b7:42:ca:77:08:3b:07:fe:
         23:77:b1:6a:3b:3a:e0:24:58:d5:d4:dc:fd:24:83:ca:7e:d7:
         f0:9b:eb:43:6b:4f:f3:c3:0a:58:fd:6a:75:9c:b3:19:7d:bf:
         8d:43:13:81:4b:4d:00:24:e1:f4:d3:42:f0:f3:8b:dc:ab:cd:
         16:a2:09:f5:6d:66:72:bd:57:c4:2b:19:ca:f4:e3:1b:41:13:
         32:c4:7a:6c:ce:72:07:e6:c0:4c:68:aa:9a:c7:26:4d:51:b6:
         85:25:11:6f:bd:64:95:83:92:75:f6:2e:f2:ca:33:0d:00:5f:
         79:10:cd:8b
-----BEGIN CERTIFICATE-----
MIIFMjCCBBqgAwIBAgIQQl4zznupjgylzCwk4WTObzANBgkqhkiG9w0BAQsFADCB
rzELMAkGA1UEBhMCVVMxEzARBgNVBAgMCkNhbGlmb3JuaWExFjAUBgNVBAcMDVNh
biBGcmFuY2lzY28xIDAeBgNVBAoMF0NvcHlsZWZ0IENlcnRpZmljYXRlIENvMR8w
HQYDVQQLDBZNeSBPcmdhbml6YXRpb25hbCBVbml0MREwDwYDVQQDDAhDaGFuZ2VN
ZTEdMBsGCSqGSIb3DQEJARYObWVAZXhhbXBsZS5uZXQwHhcNMjMxMTExMTQ0OTUw
WhcNMjQxMTEwMTQ0OTUwWjCBvjELMAkGA1UEBhMCVVMxCzAJBgNVBAgMAk9IMRMw
EQYDVQQHDApDaW5jaW5uYXRpMSMwIQYDVQQKDBpVbml2ZXJzaXR5IG9mIENpbmNp
bm5hdGkgLjEsMCoGA1UECwwjRGVwdC4gRWxlYy4gQ29tcC4gLiBFbmcuIENvbXAu
IFNjaS4xEDAOBgNVBAMMB2NsaWVudDIxKDAmBgkqhkiG9w0BCQEWGWZyYW5jb0Bn
YXVzcy5lY2Vjcy51Yy5lZHUwggEiMA0GCSqGSIb3DQEBAQUAA4IBDwAwggEKAoIB
AQDaePUwlL5lLmaIc91Rk64y/JZv0uMajyGr62sx/om84lVJht3iWZ2Pv6HVDiyb
C1Zat5GU8yP91SkIapeNghKwUhviJ3sV5Kg96jtCoq6EBpCbnrDZUAuMThKhJVEm
hcjzSlPwDUqUt4eLHzcqoG8ThLRwWLa3ONtUMdrCvmCwMkv2Q8Wpua/3PGX0OFR0
sTKrx8FNL6zrMThIBwJSx5zPwtUBRPKhBbatZR/lAHRQEbWsBCbJwVEF5uvarArd
9Fo0c4CQr1y/ZwtCPjR8g1tOcEUkGHQvHMdetxDwM5XAbJCl4Fzds1keAf9zh9Cl
F6BK0mgqI7Fz8xNzbAwMM42pAgMBAAGjggE3MIIBMzAJBgNVHRMEAjAAMB0GA1Ud
DgQWBBTelxrZiezB2ccE+O4l1MtH3UWgJzCB5AYDVR0jBIHcMIHZgBQ3d/+egAqg
LQMuQS6nnywIHSenH6GBtaSBsjCBrzELMAkGA1UEBhMCVVMxEzARBgNVBAgMCkNh
bGlmb3JuaWExFjAUBgNVBAcMDVNhbiBGcmFuY2lzY28xIDAeBgNVBAoMF0NvcHls
ZWZ0IENlcnRpZmljYXRlIENvMR8wHQYDVQQLDBZNeSBPcmdhbml6YXRpb25hbCBV
bml0MREwDwYDVQQDDAhDaGFuZ2VNZTEdMBsGCSqGSIb3DQEJARYObWVAZXhhbXBs
ZS5uZXSCCQCO9M6/NMtkcjATBgNVHSUEDDAKBggrBgEFBQcDAjALBgNVHQ8EBAMC
B4AwDQYJKoZIhvcNAQELBQADggEBAK3WKsPqvQK2/AEt/L/ykTlQRDA64Frstqjh
w8OGw3A68030QJSGQSduvwacqkjFU+JfOk/6dzOJmPE23qdLECCH0IYEaxgQdTPQ
tydsBYHHsBqKPCl0LNn2F2jI44nJ96dUUZLdnoX2lTM1xA3WnojHaE63/vzdZp6I
uFHQjTFjjuDprRXoVbe3Qsp3CDsH/iN3sWo7OuAkWNXU3P0kg8p+1/Cb60NrT/PD
Clj9anWcsxl9v41DE4FLTQAk4fTTQvDzi9yrzRaiCfVtZnK9V8QrGcr04xtBEzLE
emzOcgfmwExoqprHJk1RtoUlEW+9ZJWDknX2LvLKMw0AX3kQzYs=
-----END CERTIFICATE-----
