Certificate:
    Data:
        Version: 3 (0x2)
        Serial Number:
            42:90:d3:b6:11:03:bd:60:d4:ee:c6:ab:19:9c:cd:ad
    Signature Algorithm: sha256WithRSAEncryption
        Issuer: C=US, ST=California, L=San Francisco, O=Copyleft Certificate Co, OU=My Organizational Unit, CN=ChangeMe/emailAddress=me@example.net
        Validity
            Not Before: Nov 11 18:50:04 2023 GMT
            Not After : Nov 10 18:50:04 2024 GMT
        Subject: C=US, ST=OH, L=Cincinnati, O=University of Cincinnati ., OU=Dept. Elec. Comp. . Eng. Comp. Sci., CN=client2/emailAddress=franco@gauss.ececs.uc.edu
        Subject Public Key Info:
            Public Key Algorithm: rsaEncryption
                Public-Key: (2048 bit)
                Modulus:
                    00:aa:fc:d0:aa:2f:ec:4c:98:f1:57:a5:2f:70:ab:
                    4f:68:8b:c2:c1:94:55:ef:03:e3:3f:ac:04:49:c3:
                    78:6f:a2:98:b3:0e:e3:c1:00:98:4f:3f:23:ae:5a:
                    db:01:c5:27:92:5f:93:41:2d:4f:49:c6:f7:87:48:
                    27:37:67:a8:51:eb:51:a9:2e:a1:28:d5:03:08:67:
                    93:13:5e:6a:d5:c3:f6:db:97:d1:ea:8d:e7:f7:f2:
                    aa:8a:47:2d:84:52:d3:2f:06:b0:6d:01:2c:f7:c3:
                    b4:30:a7:db:87:52:ce:ab:5e:89:71:ec:c0:0f:d2:
                    f6:2e:ce:e0:c3:56:43:49:77:18:79:e1:51:5a:a6:
                    72:c3:14:e2:ba:f1:ec:8b:2b:4e:41:b0:5c:2a:71:
                    21:0d:33:2c:db:57:03:3b:36:a1:b8:cd:ab:99:5e:
                    c8:09:3a:b1:9b:9b:d4:9d:57:aa:93:18:76:b8:db:
                    d0:7d:ad:ff:5c:43:58:ee:ed:40:55:ab:2f:9d:da:
                    e4:0c:cf:59:2e:cc:8d:cd:27:77:e7:20:bc:31:60:
                    1d:d3:57:2a:24:b3:d4:fd:8d:e2:d5:72:47:52:d8:
                    8c:bf:61:f2:26:11:4c:a4:b7:2d:d4:08:e1:25:ed:
                    90:ff:c0:57:ab:bc:c3:13:93:03:cb:13:ce:b6:a5:
                    95:57
                Exponent: 65537 (0x10001)
        X509v3 extensions:
            X509v3 Basic Constraints: 
                CA:FALSE
            X509v3 Subject Key Identifier: 
                A4:CD:7E:B7:DE:07:30:8C:CC:DB:A0:94:E6:7F:E9:D0:27:F2:19:50
            X509v3 Authority Key Identifier: 
                keyid:9C:0E:D5:A3:16:6F:C8:23:88:D1:12:C9:63:5D:18:D9:C9:FC:5B:E9
                DirName:/C=US/ST=California/L=San Francisco/O=Copyleft Certificate Co/OU=My Organizational Unit/CN=ChangeMe/emailAddress=me@example.net
                serial:A3:08:26:80:D2:47:98:75

            X509v3 Extended Key Usage: 
                TLS Web Client Authentication
            X509v3 Key Usage: 
                Digital Signature
    Signature Algorithm: sha256WithRSAEncryption
         14:3f:fc:17:5c:02:f4:b0:ab:be:46:b3:cc:6d:08:97:d5:0c:
         f0:b5:cf:e1:4a:74:af:02:ee:f6:59:5a:96:ea:05:73:1f:62:
         22:8c:dd:19:85:72:f7:94:4a:8c:f9:90:2e:4b:7f:d3:8f:2a:
         08:34:e3:36:55:62:35:bb:cf:36:3b:0d:a9:7c:92:0b:1c:6b:
         85:6a:c4:9e:89:92:d6:fb:29:ca:52:0f:a3:4d:37:b4:21:04:
         56:b5:d7:2d:48:50:eb:ab:86:fc:f6:fb:22:ff:d3:de:56:bb:
         ec:42:9a:42:d9:e3:5a:cd:ec:7c:88:39:b0:db:80:ef:7f:12:
         d3:bd:b2:c5:c5:a6:ef:1a:98:de:86:6a:1d:56:a6:cc:8c:66:
         8d:72:11:14:a6:9f:3c:c8:54:9d:15:a2:37:d0:e8:43:01:a9:
         ed:c7:da:4b:03:f4:62:fe:bd:2d:c2:bc:38:85:c4:bf:20:62:
         fa:ba:ab:8e:6f:4a:5c:bc:60:74:15:1d:10:bd:42:f0:14:5f:
         bf:9b:67:63:45:88:5d:6d:7f:cc:b5:bd:7c:94:4d:c1:bb:2d:
         0e:89:17:ee:af:6b:f4:e7:ad:c6:07:25:e1:6f:39:7d:da:11:
         17:6d:cd:6c:9e:52:c8:a1:a4:40:0f:a8:6a:34:de:1e:b2:c0:
         1a:9b:f7:71
-----BEGIN CERTIFICATE-----
MIIFMjCCBBqgAwIBAgIQQpDTthEDvWDU7sarGZzNrTANBgkqhkiG9w0BAQsFADCB
rzELMAkGA1UEBhMCVVMxEzARBgNVBAgMCkNhbGlmb3JuaWExFjAUBgNVBAcMDVNh
biBGcmFuY2lzY28xIDAeBgNVBAoMF0NvcHlsZWZ0IENlcnRpZmljYXRlIENvMR8w
HQYDVQQLDBZNeSBPcmdhbml6YXRpb25hbCBVbml0MREwDwYDVQQDDAhDaGFuZ2VN
ZTEdMBsGCSqGSIb3DQEJARYObWVAZXhhbXBsZS5uZXQwHhcNMjMxMTExMTg1MDA0
WhcNMjQxMTEwMTg1MDA0WjCBvjELMAkGA1UEBhMCVVMxCzAJBgNVBAgMAk9IMRMw
EQYDVQQHDApDaW5jaW5uYXRpMSMwIQYDVQQKDBpVbml2ZXJzaXR5IG9mIENpbmNp
bm5hdGkgLjEsMCoGA1UECwwjRGVwdC4gRWxlYy4gQ29tcC4gLiBFbmcuIENvbXAu
IFNjaS4xEDAOBgNVBAMMB2NsaWVudDIxKDAmBgkqhkiG9w0BCQEWGWZyYW5jb0Bn
YXVzcy5lY2Vjcy51Yy5lZHUwggEiMA0GCSqGSIb3DQEBAQUAA4IBDwAwggEKAoIB
AQCq/NCqL+xMmPFXpS9wq09oi8LBlFXvA+M/rARJw3hvopizDuPBAJhPPyOuWtsB
xSeSX5NBLU9JxveHSCc3Z6hR61GpLqEo1QMIZ5MTXmrVw/bbl9Hqjef38qqKRy2E
UtMvBrBtASz3w7Qwp9uHUs6rXolx7MAP0vYuzuDDVkNJdxh54VFapnLDFOK68eyL
K05BsFwqcSENMyzbVwM7NqG4zauZXsgJOrGbm9SdV6qTGHa429B9rf9cQ1ju7UBV
qy+d2uQMz1kuzI3NJ3fnILwxYB3TVyoks9T9jeLVckdS2Iy/YfImEUykty3UCOEl
7ZD/wFervMMTkwPLE862pZVXAgMBAAGjggE3MIIBMzAJBgNVHRMEAjAAMB0GA1Ud
DgQWBBSkzX633gcwjMzboJTmf+nQJ/IZUDCB5AYDVR0jBIHcMIHZgBScDtWjFm/I
I4jREsljXRjZyfxb6aGBtaSBsjCBrzELMAkGA1UEBhMCVVMxEzARBgNVBAgMCkNh
bGlmb3JuaWExFjAUBgNVBAcMDVNhbiBGcmFuY2lzY28xIDAeBgNVBAoMF0NvcHls
ZWZ0IENlcnRpZmljYXRlIENvMR8wHQYDVQQLDBZNeSBPcmdhbml6YXRpb25hbCBV
bml0MREwDwYDVQQDDAhDaGFuZ2VNZTEdMBsGCSqGSIb3DQEJARYObWVAZXhhbXBs
ZS5uZXSCCQCjCCaA0keYdTATBgNVHSUEDDAKBggrBgEFBQcDAjALBgNVHQ8EBAMC
B4AwDQYJKoZIhvcNAQELBQADggEBABQ//BdcAvSwq75Gs8xtCJfVDPC1z+FKdK8C
7vZZWpbqBXMfYiKM3RmFcveUSoz5kC5Lf9OPKgg04zZVYjW7zzY7Dal8kgsca4Vq
xJ6Jktb7KcpSD6NNN7QhBFa11y1IUOurhvz2+yL/095Wu+xCmkLZ41rN7HyIObDb
gO9/EtO9ssXFpu8amN6Gah1WpsyMZo1yERSmnzzIVJ0VojfQ6EMBqe3H2ksD9GL+
vS3CvDiFxL8gYvq6q45vSly8YHQVHRC9QvAUX7+bZ2NFiF1tf8y1vXyUTcG7LQ6J
F+6va/TnrcYHJeFvOX3aERdtzWyeUsihpEAPqGo03h6ywBqb93E=
-----END CERTIFICATE-----
