Certificate:
    Data:
        Version: 3 (0x2)
        Serial Number:
            43:0d:9d:36:7a:20:1a:94:35:00:ed:bd:bf:e4:6a:e8
    Signature Algorithm: sha256WithRSAEncryption
        Issuer: C=US, ST=California, L=San Francisco, O=Copyleft Certificate Co, OU=My Organizational Unit, CN=ChangeMe/emailAddress=me@example.net
        Validity
            Not Before: Jan 23 18:30:16 2021 GMT
            Not After : Jan 23 18:30:16 2022 GMT
        Subject: C=US, ST=OH, L=Cincinnati, O=University of Cincinnati, OU=Dept. Electrical Eng. and Computer Sci., CN=client128/emailAddress=franco@gauss.ececs.uc.edu
        Subject Public Key Info:
            Public Key Algorithm: rsaEncryption
                Public-Key: (2048 bit)
                Modulus:
                    00:ea:03:01:8b:f9:ed:94:85:c1:6d:8f:43:3c:85:
                    8b:c2:c6:c6:84:fb:1d:ac:d6:8d:22:5a:63:3f:ee:
                    a3:e1:72:6b:d3:51:ed:c8:3e:16:57:a0:07:34:0e:
                    25:bb:e1:f5:a4:53:c5:12:2d:69:77:06:7e:8c:60:
                    37:74:16:7f:7b:30:db:bc:d5:7b:bb:2e:84:8c:08:
                    a0:55:1f:bc:e4:1d:8c:d7:9e:f2:32:14:5d:ea:37:
                    a1:29:d8:48:0c:3c:23:c7:30:6c:cb:f9:9a:cb:d5:
                    32:d1:1b:54:90:b4:c8:11:41:00:a8:ef:8c:aa:8a:
                    0b:76:80:a1:95:35:83:8c:33:ed:3b:cf:93:ed:0b:
                    7b:a6:47:e6:5d:a3:63:e1:13:87:6e:19:8e:85:77:
                    67:60:35:24:e0:cc:b7:a3:b0:0c:49:95:1d:c2:8a:
                    4e:ef:00:92:5f:8c:3c:e1:e2:80:2e:04:a2:f2:15:
                    f8:7e:1d:dd:d1:70:20:b1:5b:7e:f0:5c:3a:8d:46:
                    32:a8:3a:08:de:eb:69:67:67:cd:bd:87:78:3b:a6:
                    60:7d:5e:fe:b5:e7:d8:d9:5a:46:b2:f7:29:cc:47:
                    ea:e3:58:e0:f0:2c:67:bf:72:d3:20:05:9e:76:17:
                    95:f0:da:64:fe:86:bb:6c:e7:06:46:9c:ba:fd:4c:
                    60:b9
                Exponent: 65537 (0x10001)
        X509v3 extensions:
            X509v3 Basic Constraints: 
                CA:FALSE
            X509v3 Subject Key Identifier: 
                8A:0E:1C:12:77:84:F6:E9:1C:D5:EB:4F:68:7B:45:B3:1A:AA:28:34
            X509v3 Authority Key Identifier: 
                keyid:EF:DC:B6:3D:4B:FD:A7:87:05:C5:22:3D:8B:DC:BF:99:2A:EE:E4:DB
                DirName:/C=US/ST=California/L=San Francisco/O=Copyleft Certificate Co/OU=My Organizational Unit/CN=ChangeMe/emailAddress=me@example.net
                serial:87:1E:1D:DC:6B:8C:66:88

            X509v3 Extended Key Usage: 
                TLS Web Client Authentication
            X509v3 Key Usage: 
                Digital Signature
    Signature Algorithm: sha256WithRSAEncryption
         c8:fe:24:2a:d9:cd:87:35:b3:57:f1:12:74:3b:b9:0b:34:c9:
         f1:13:a2:01:cf:e9:b3:84:c5:83:35:4b:68:de:c2:c2:6e:47:
         8f:c0:af:d4:7e:a9:bf:3a:95:4f:db:cf:4e:31:e1:ec:35:ec:
         71:69:7d:ac:24:93:78:5a:0c:70:ae:0e:27:b7:85:b6:7b:97:
         85:0a:2c:d6:0e:af:80:cc:2a:a9:46:2b:b3:73:97:52:c0:09:
         6d:be:6b:47:5c:9c:93:c7:67:dd:08:10:e7:10:da:dd:93:0e:
         d3:cd:7a:38:cf:00:d8:c7:fb:f7:36:96:92:6b:b1:71:c1:3b:
         4e:05:0f:65:9a:70:11:d3:7e:be:0f:8e:20:f1:6e:b5:5d:a0:
         9d:02:8b:23:f0:80:0a:5a:9b:ce:4c:54:01:79:1b:b6:87:2f:
         2e:98:f7:7e:17:e0:61:7d:36:5a:81:3e:5e:c7:62:0c:35:24:
         09:80:d8:d2:e7:52:92:5a:d0:e9:6e:e9:b4:a6:b8:ef:db:d1:
         52:6b:f9:28:4c:2c:dd:6a:24:e3:1a:e8:45:fc:e5:f4:18:a3:
         f2:91:29:31:41:0d:37:32:1f:10:41:d6:fb:ec:0f:de:22:c3:
         61:be:b5:af:43:d6:78:3c:0d:aa:e5:a1:4f:98:b1:5c:f0:4f:
         37:69:d0:01
-----BEGIN CERTIFICATE-----
MIIFNjCCBB6gAwIBAgIQQw2dNnogGpQ1AO29v+Rq6DANBgkqhkiG9w0BAQsFADCB
rzELMAkGA1UEBhMCVVMxEzARBgNVBAgMCkNhbGlmb3JuaWExFjAUBgNVBAcMDVNh
biBGcmFuY2lzY28xIDAeBgNVBAoMF0NvcHlsZWZ0IENlcnRpZmljYXRlIENvMR8w
HQYDVQQLDBZNeSBPcmdhbml6YXRpb25hbCBVbml0MREwDwYDVQQDDAhDaGFuZ2VN
ZTEdMBsGCSqGSIb3DQEJARYObWVAZXhhbXBsZS5uZXQwHhcNMjEwMTIzMTgzMDE2
WhcNMjIwMTIzMTgzMDE2WjCBwjELMAkGA1UEBhMCVVMxCzAJBgNVBAgMAk9IMRMw
EQYDVQQHDApDaW5jaW5uYXRpMSEwHwYDVQQKDBhVbml2ZXJzaXR5IG9mIENpbmNp
bm5hdGkxMDAuBgNVBAsMJ0RlcHQuIEVsZWN0cmljYWwgRW5nLiBhbmQgQ29tcHV0
ZXIgU2NpLjESMBAGA1UEAwwJY2xpZW50MTI4MSgwJgYJKoZIhvcNAQkBFhlmcmFu
Y29AZ2F1c3MuZWNlY3MudWMuZWR1MIIBIjANBgkqhkiG9w0BAQEFAAOCAQ8AMIIB
CgKCAQEA6gMBi/ntlIXBbY9DPIWLwsbGhPsdrNaNIlpjP+6j4XJr01HtyD4WV6AH
NA4lu+H1pFPFEi1pdwZ+jGA3dBZ/ezDbvNV7uy6EjAigVR+85B2M157yMhRd6jeh
KdhIDDwjxzBsy/may9Uy0RtUkLTIEUEAqO+MqooLdoChlTWDjDPtO8+T7Qt7pkfm
XaNj4ROHbhmOhXdnYDUk4My3o7AMSZUdwopO7wCSX4w84eKALgSi8hX4fh3d0XAg
sVt+8Fw6jUYyqDoI3utpZ2fNvYd4O6ZgfV7+tefY2VpGsvcpzEfq41jg8Cxnv3LT
IAWedheV8Npk/oa7bOcGRpy6/UxguQIDAQABo4IBNzCCATMwCQYDVR0TBAIwADAd
BgNVHQ4EFgQUig4cEneE9ukc1etPaHtFsxqqKDQwgeQGA1UdIwSB3DCB2YAU79y2
PUv9p4cFxSI9i9y/mSru5NuhgbWkgbIwga8xCzAJBgNVBAYTAlVTMRMwEQYDVQQI
DApDYWxpZm9ybmlhMRYwFAYDVQQHDA1TYW4gRnJhbmNpc2NvMSAwHgYDVQQKDBdD
b3B5bGVmdCBDZXJ0aWZpY2F0ZSBDbzEfMB0GA1UECwwWTXkgT3JnYW5pemF0aW9u
YWwgVW5pdDERMA8GA1UEAwwIQ2hhbmdlTWUxHTAbBgkqhkiG9w0BCQEWDm1lQGV4
YW1wbGUubmV0ggkAhx4d3GuMZogwEwYDVR0lBAwwCgYIKwYBBQUHAwIwCwYDVR0P
BAQDAgeAMA0GCSqGSIb3DQEBCwUAA4IBAQDI/iQq2c2HNbNX8RJ0O7kLNMnxE6IB
z+mzhMWDNUto3sLCbkePwK/Ufqm/OpVP289OMeHsNexxaX2sJJN4Wgxwrg4nt4W2
e5eFCizWDq+AzCqpRiuzc5dSwAltvmtHXJyTx2fdCBDnENrdkw7TzXo4zwDYx/v3
NpaSa7FxwTtOBQ9lmnAR036+D44g8W61XaCdAosj8IAKWpvOTFQBeRu2hy8umPd+
F+BhfTZagT5ex2IMNSQJgNjS51KSWtDpbum0prjv29FSa/koTCzdaiTjGuhF/OX0
GKPykSkxQQ03Mh8QQdb77A/eIsNhvrWvQ9Z4PA2q5aFPmLFc8E83adAB
-----END CERTIFICATE-----
