Certificate:
    Data:
        Version: 3 (0x2)
        Serial Number:
            44:6a:ba:7d:53:94:bd:74:18:bc:10:83:41:1f:7c:cd
    Signature Algorithm: sha256WithRSAEncryption
        Issuer: C=US, ST=California, L=San Francisco, O=Copyleft Certificate Co, OU=My Organizational Unit, CN=ChangeMe/emailAddress=me@example.net
        Validity
            Not Before: Nov 11 18:53:08 2023 GMT
            Not After : Nov 10 18:53:08 2024 GMT
        Subject: C=US, ST=OH, L=Cincinnati, O=University of Cincinnati ., OU=Dept. Elec. Comp. . Eng. Comp. Sci., CN=client48/emailAddress=franco@gauss.ececs.uc.edu
        Subject Public Key Info:
            Public Key Algorithm: rsaEncryption
                Public-Key: (2048 bit)
                Modulus:
                    00:b8:9b:3d:ae:7d:a6:f5:0c:5c:9c:a1:ec:86:f9:
                    23:06:a9:fb:15:bc:18:f5:42:75:ff:de:23:23:84:
                    fe:26:71:52:1a:9b:68:94:87:ab:38:f0:0d:d8:4d:
                    71:d2:e6:d9:e9:f7:bd:7f:f3:7b:8b:fb:12:56:c4:
                    26:f2:0c:86:44:bc:fa:0e:ed:83:4a:e0:97:08:dd:
                    2e:a3:e4:b1:fc:e6:d2:49:3d:93:64:53:65:c7:0e:
                    fd:96:b7:12:b1:b4:12:58:18:f8:f6:e3:93:36:86:
                    55:1e:81:c9:bd:d4:53:70:d4:44:c6:7e:e2:eb:52:
                    3b:d9:05:d2:b3:51:d8:5d:c0:f1:c7:23:a5:14:40:
                    3e:7f:76:0b:07:e9:62:b0:80:79:a2:ad:a0:06:54:
                    50:71:22:2c:c1:b7:24:c1:d1:12:60:34:78:56:f1:
                    9e:e5:75:c5:c4:86:1f:4d:20:b5:ee:ca:cd:46:2c:
                    33:0f:95:21:63:fd:a1:90:42:29:28:e4:4b:6c:7e:
                    a2:aa:d6:41:69:f5:e3:f3:2d:d5:1d:c2:cb:0a:d6:
                    d4:b4:aa:af:29:c5:a0:ee:86:c7:10:bf:92:f7:d5:
                    3a:a7:48:f8:95:8d:ef:11:d2:c4:5f:3b:62:e1:39:
                    02:f9:89:b9:bd:aa:28:f3:ba:3d:66:ea:4d:47:80:
                    02:d7
                Exponent: 65537 (0x10001)
        X509v3 extensions:
            X509v3 Basic Constraints: 
                CA:FALSE
            X509v3 Subject Key Identifier: 
                EC:F7:3A:9E:94:87:A7:46:05:C3:59:4E:EE:C5:4D:F9:79:2A:96:D7
            X509v3 Authority Key Identifier: 
                keyid:9C:0E:D5:A3:16:6F:C8:23:88:D1:12:C9:63:5D:18:D9:C9:FC:5B:E9
                DirName:/C=US/ST=California/L=San Francisco/O=Copyleft Certificate Co/OU=My Organizational Unit/CN=ChangeMe/emailAddress=me@example.net
                serial:A3:08:26:80:D2:47:98:75

            X509v3 Extended Key Usage: 
                TLS Web Client Authentication
            X509v3 Key Usage: 
                Digital Signature
    Signature Algorithm: sha256WithRSAEncryption
         32:99:f8:3b:ca:86:3f:c6:a8:78:21:d8:5a:67:be:59:fa:bc:
         31:f7:87:22:41:f6:21:79:85:67:72:e2:37:eb:ed:aa:5d:08:
         b2:0b:46:f5:63:e3:a5:0e:03:be:6d:d1:a4:3b:13:48:d3:eb:
         58:cf:35:cb:d3:6a:a4:7c:af:a5:97:0d:4b:de:4f:59:82:b5:
         04:72:fe:36:b9:6f:7f:ad:0f:fd:c3:f2:e2:3b:14:56:bd:12:
         73:38:92:9c:3b:bb:f4:dd:db:8f:21:f2:a4:c0:37:d1:33:a1:
         99:b2:af:28:bd:35:06:89:c1:a1:04:54:d2:87:b4:05:9a:5a:
         13:0c:b7:04:89:ba:11:1b:88:db:c4:d2:9d:cd:b2:41:79:08:
         a9:d3:82:11:c9:c3:3e:14:1b:23:67:0e:3c:bd:4d:21:ab:49:
         86:0d:56:e0:94:79:49:b1:d3:69:b5:a5:24:f5:17:14:4c:e6:
         ad:5d:37:a6:9d:aa:2d:32:e3:1a:5b:0f:f4:ac:f9:f9:1a:97:
         11:44:7c:d7:d5:13:93:c8:40:2f:84:3d:48:b5:39:44:cf:63:
         c6:bd:d9:3d:57:08:80:cb:11:4b:e7:d9:69:eb:f1:70:9f:0c:
         ef:1e:49:7e:f0:2e:b1:21:26:71:35:40:8a:24:ad:21:94:55:
         98:1a:6a:c0
-----BEGIN CERTIFICATE-----
MIIFMzCCBBugAwIBAgIQRGq6fVOUvXQYvBCDQR98zTANBgkqhkiG9w0BAQsFADCB
rzELMAkGA1UEBhMCVVMxEzARBgNVBAgMCkNhbGlmb3JuaWExFjAUBgNVBAcMDVNh
biBGcmFuY2lzY28xIDAeBgNVBAoMF0NvcHlsZWZ0IENlcnRpZmljYXRlIENvMR8w
HQYDVQQLDBZNeSBPcmdhbml6YXRpb25hbCBVbml0MREwDwYDVQQDDAhDaGFuZ2VN
ZTEdMBsGCSqGSIb3DQEJARYObWVAZXhhbXBsZS5uZXQwHhcNMjMxMTExMTg1MzA4
WhcNMjQxMTEwMTg1MzA4WjCBvzELMAkGA1UEBhMCVVMxCzAJBgNVBAgMAk9IMRMw
EQYDVQQHDApDaW5jaW5uYXRpMSMwIQYDVQQKDBpVbml2ZXJzaXR5IG9mIENpbmNp
bm5hdGkgLjEsMCoGA1UECwwjRGVwdC4gRWxlYy4gQ29tcC4gLiBFbmcuIENvbXAu
IFNjaS4xETAPBgNVBAMMCGNsaWVudDQ4MSgwJgYJKoZIhvcNAQkBFhlmcmFuY29A
Z2F1c3MuZWNlY3MudWMuZWR1MIIBIjANBgkqhkiG9w0BAQEFAAOCAQ8AMIIBCgKC
AQEAuJs9rn2m9QxcnKHshvkjBqn7FbwY9UJ1/94jI4T+JnFSGptolIerOPAN2E1x
0ubZ6fe9f/N7i/sSVsQm8gyGRLz6Du2DSuCXCN0uo+Sx/ObSST2TZFNlxw79lrcS
sbQSWBj49uOTNoZVHoHJvdRTcNRExn7i61I72QXSs1HYXcDxxyOlFEA+f3YLB+li
sIB5oq2gBlRQcSIswbckwdESYDR4VvGe5XXFxIYfTSC17srNRiwzD5UhY/2hkEIp
KORLbH6iqtZBafXj8y3VHcLLCtbUtKqvKcWg7obHEL+S99U6p0j4lY3vEdLEXzti
4TkC+Ym5vaoo87o9ZupNR4AC1wIDAQABo4IBNzCCATMwCQYDVR0TBAIwADAdBgNV
HQ4EFgQU7Pc6npSHp0YFw1lO7sVN+XkqltcwgeQGA1UdIwSB3DCB2YAUnA7VoxZv
yCOI0RLJY10Y2cn8W+mhgbWkgbIwga8xCzAJBgNVBAYTAlVTMRMwEQYDVQQIDApD
YWxpZm9ybmlhMRYwFAYDVQQHDA1TYW4gRnJhbmNpc2NvMSAwHgYDVQQKDBdDb3B5
bGVmdCBDZXJ0aWZpY2F0ZSBDbzEfMB0GA1UECwwWTXkgT3JnYW5pemF0aW9uYWwg
VW5pdDERMA8GA1UEAwwIQ2hhbmdlTWUxHTAbBgkqhkiG9w0BCQEWDm1lQGV4YW1w
bGUubmV0ggkAowgmgNJHmHUwEwYDVR0lBAwwCgYIKwYBBQUHAwIwCwYDVR0PBAQD
AgeAMA0GCSqGSIb3DQEBCwUAA4IBAQAymfg7yoY/xqh4IdhaZ75Z+rwx94ciQfYh
eYVncuI36+2qXQiyC0b1Y+OlDgO+bdGkOxNI0+tYzzXL02qkfK+llw1L3k9ZgrUE
cv42uW9/rQ/9w/LiOxRWvRJzOJKcO7v03duPIfKkwDfRM6GZsq8ovTUGicGhBFTS
h7QFmloTDLcEiboRG4jbxNKdzbJBeQip04IRycM+FBsjZw48vU0hq0mGDVbglHlJ
sdNptaUk9RcUTOatXTemnaotMuMaWw/0rPn5GpcRRHzX1ROTyEAvhD1ItTlEz2PG
vdk9VwiAyxFL59lp6/FwnwzvHkl+8C6xISZxNUCKJK0hlFWYGmrA
-----END CERTIFICATE-----
