Certificate:
    Data:
        Version: 3 (0x2)
        Serial Number:
            46:1d:8c:5d:88:1c:1c:5a:6b:2c:9b:ad:cb:1a:78:57
    Signature Algorithm: sha256WithRSAEncryption
        Issuer: C=US, ST=California, L=San Francisco, O=Copyleft Certificate Co, OU=My Organizational Unit, CN=ChangeMe/emailAddress=me@example.net
        Validity
            Not Before: Nov 12 11:46:18 2023 GMT
            Not After : Nov 11 11:46:18 2024 GMT
        Subject: C=US, ST=OH, L=Cincinnati, O=University of Cincinnati, OU=Dept. Elec. Comp. Eng. Comp. Sci., CN=client1/emailAddress=franco@gauss.ececs.uc.edu
        Subject Public Key Info:
            Public Key Algorithm: rsaEncryption
                Public-Key: (2048 bit)
                Modulus:
                    00:c6:09:0c:d3:0c:71:bf:87:ac:de:a0:61:39:b8:
                    98:04:a3:d4:0d:04:79:22:9b:06:35:e6:3c:e2:2f:
                    4c:be:cf:61:00:6b:e3:41:9a:01:5f:dd:61:5f:8d:
                    08:de:b7:74:df:1d:14:11:28:a2:76:1d:71:63:a1:
                    bb:fd:a7:12:d2:24:2e:63:09:48:5e:80:57:70:87:
                    a2:b4:b5:8c:26:85:20:e7:3e:44:4f:8d:73:ea:ba:
                    a6:cd:ee:af:e1:63:bf:4a:65:c6:54:2b:bb:10:2d:
                    10:f2:c2:09:6e:df:74:9f:3e:d3:2a:b0:da:fb:36:
                    74:5f:2e:d9:f3:e2:30:79:0c:6f:d0:32:b1:ae:54:
                    e0:cc:22:bc:2a:f0:73:5a:27:34:7a:cb:d4:6f:3a:
                    82:e4:c0:22:20:6d:1f:bd:e2:3d:47:0e:81:fb:26:
                    10:9e:79:fb:7d:34:a3:ae:34:8a:58:a0:4e:1c:fc:
                    83:cb:3c:7c:f9:04:8f:6c:f5:b3:6f:02:8b:e7:d0:
                    7e:10:70:31:44:ae:c9:32:f0:17:7a:30:68:28:d1:
                    a5:af:f8:c9:df:7e:60:ec:b5:c1:eb:96:9e:33:42:
                    a8:f1:e1:02:a1:0b:0e:48:cb:0a:02:c5:e7:48:b9:
                    28:8c:3a:97:b5:9d:23:5d:2b:c8:e2:b2:e5:70:37:
                    01:65
                Exponent: 65537 (0x10001)
        X509v3 extensions:
            X509v3 Basic Constraints: 
                CA:FALSE
            X509v3 Subject Key Identifier: 
                72:13:C7:1A:8E:09:9A:AC:2D:E8:AA:AB:8D:1C:0E:E2:F7:1F:9F:34
            X509v3 Authority Key Identifier: 
                keyid:C4:46:F2:96:38:56:02:B8:9D:09:04:52:25:91:35:97:6A:D7:B1:F0
                DirName:/C=US/ST=California/L=San Francisco/O=Copyleft Certificate Co/OU=My Organizational Unit/CN=ChangeMe/emailAddress=me@example.net
                serial:D1:5A:15:1C:F0:20:95:62

            X509v3 Extended Key Usage: 
                TLS Web Client Authentication
            X509v3 Key Usage: 
                Digital Signature
    Signature Algorithm: sha256WithRSAEncryption
         b0:30:92:3c:76:da:bd:44:d6:c5:57:d0:40:ba:a1:c4:c5:22:
         5f:27:b7:1b:5c:f4:74:2d:a6:f4:2a:24:7b:ba:7a:9d:c2:5d:
         b9:b8:73:a4:19:50:d2:80:e3:16:1a:eb:b6:bf:fc:d1:aa:48:
         e3:d8:87:b3:63:d1:1c:da:22:0b:99:e8:59:6d:c8:bc:3b:50:
         c1:02:7a:50:7a:69:57:6f:c9:ee:e7:f4:8b:0f:0f:a6:9a:48:
         c0:45:23:e5:7c:d3:7e:ac:21:f5:98:9e:03:d2:0e:04:07:c2:
         b7:2d:dd:67:1d:28:1b:80:37:d4:02:04:f6:ff:f1:8c:6f:ad:
         87:ff:e4:90:25:57:bb:62:ee:de:2a:e0:d2:51:35:3e:d7:65:
         ec:2e:3d:38:9e:37:2a:d2:26:64:fb:ab:12:77:c8:b5:be:4b:
         7c:62:91:dd:f9:fe:39:59:e3:6e:b8:fb:1e:bc:05:6c:64:39:
         2e:a2:24:7b:db:a3:51:c2:1d:96:9d:9c:94:dc:67:ab:cf:66:
         bd:c4:65:06:28:3c:11:14:99:9a:04:48:4a:4e:f3:a3:51:5e:
         d7:1a:af:0f:d0:01:96:03:e6:3c:99:70:f8:56:db:4b:26:3d:
         65:2e:b3:6a:91:17:53:fc:95:f1:e6:06:49:0f:01:66:d2:27:
         fe:fc:91:08
-----BEGIN CERTIFICATE-----
MIIFLjCCBBagAwIBAgIQRh2MXYgcHFprLJutyxp4VzANBgkqhkiG9w0BAQsFADCB
rzELMAkGA1UEBhMCVVMxEzARBgNVBAgMCkNhbGlmb3JuaWExFjAUBgNVBAcMDVNh
biBGcmFuY2lzY28xIDAeBgNVBAoMF0NvcHlsZWZ0IENlcnRpZmljYXRlIENvMR8w
HQYDVQQLDBZNeSBPcmdhbml6YXRpb25hbCBVbml0MREwDwYDVQQDDAhDaGFuZ2VN
ZTEdMBsGCSqGSIb3DQEJARYObWVAZXhhbXBsZS5uZXQwHhcNMjMxMTEyMTE0NjE4
WhcNMjQxMTExMTE0NjE4WjCBujELMAkGA1UEBhMCVVMxCzAJBgNVBAgMAk9IMRMw
EQYDVQQHDApDaW5jaW5uYXRpMSEwHwYDVQQKDBhVbml2ZXJzaXR5IG9mIENpbmNp
bm5hdGkxKjAoBgNVBAsMIURlcHQuIEVsZWMuIENvbXAuIEVuZy4gQ29tcC4gU2Np
LjEQMA4GA1UEAwwHY2xpZW50MTEoMCYGCSqGSIb3DQEJARYZZnJhbmNvQGdhdXNz
LmVjZWNzLnVjLmVkdTCCASIwDQYJKoZIhvcNAQEBBQADggEPADCCAQoCggEBAMYJ
DNMMcb+HrN6gYTm4mASj1A0EeSKbBjXmPOIvTL7PYQBr40GaAV/dYV+NCN63dN8d
FBEoonYdcWOhu/2nEtIkLmMJSF6AV3CHorS1jCaFIOc+RE+Nc+q6ps3ur+Fjv0pl
xlQruxAtEPLCCW7fdJ8+0yqw2vs2dF8u2fPiMHkMb9Aysa5U4MwivCrwc1onNHrL
1G86guTAIiBtH73iPUcOgfsmEJ55+300o640iligThz8g8s8fPkEj2z1s28Ci+fQ
fhBwMUSuyTLwF3owaCjRpa/4yd9+YOy1weuWnjNCqPHhAqELDkjLCgLF50i5KIw6
l7WdI10ryOKy5XA3AWUCAwEAAaOCATcwggEzMAkGA1UdEwQCMAAwHQYDVR0OBBYE
FHITxxqOCZqsLeiqq40cDuL3H580MIHkBgNVHSMEgdwwgdmAFMRG8pY4VgK4nQkE
UiWRNZdq17HwoYG1pIGyMIGvMQswCQYDVQQGEwJVUzETMBEGA1UECAwKQ2FsaWZv
cm5pYTEWMBQGA1UEBwwNU2FuIEZyYW5jaXNjbzEgMB4GA1UECgwXQ29weWxlZnQg
Q2VydGlmaWNhdGUgQ28xHzAdBgNVBAsMFk15IE9yZ2FuaXphdGlvbmFsIFVuaXQx
ETAPBgNVBAMMCENoYW5nZU1lMR0wGwYJKoZIhvcNAQkBFg5tZUBleGFtcGxlLm5l
dIIJANFaFRzwIJViMBMGA1UdJQQMMAoGCCsGAQUFBwMCMAsGA1UdDwQEAwIHgDAN
BgkqhkiG9w0BAQsFAAOCAQEAsDCSPHbavUTWxVfQQLqhxMUiXye3G1z0dC2m9Cok
e7p6ncJdubhzpBlQ0oDjFhrrtr/80apI49iHs2PRHNoiC5noWW3IvDtQwQJ6UHpp
V2/J7uf0iw8PpppIwEUj5XzTfqwh9ZieA9IOBAfCty3dZx0oG4A31AIE9v/xjG+t
h//kkCVXu2Lu3irg0lE1Ptdl7C49OJ43KtImZPurEnfItb5LfGKR3fn+OVnjbrj7
HrwFbGQ5LqIke9ujUcIdlp2clNxnq89mvcRlBig8ERSZmgRISk7zo1Fe1xqvD9AB
lgPmPJlw+FbbSyY9ZS6zapEXU/yV8eYGSQ8BZtIn/vyRCA==
-----END CERTIFICATE-----
