Certificate:
    Data:
        Version: 3 (0x2)
        Serial Number:
            48:49:24:51:eb:7e:a4:90:1d:cf:b5:83:81:8e:44:a3
    Signature Algorithm: sha256WithRSAEncryption
        Issuer: C=US, ST=California, L=San Francisco, O=Copyleft Certificate Co, OU=My Organizational Unit, CN=ChangeMe/emailAddress=me@example.net
        Validity
            Not Before: Jan 23 18:27:46 2021 GMT
            Not After : Jan 23 18:27:46 2022 GMT
        Subject: C=US, ST=OH, L=Cincinnati, O=University of Cincinnati, OU=Dept. Electrical Eng. and Computer Sci., CN=client21/emailAddress=franco@gauss.ececs.uc.edu
        Subject Public Key Info:
            Public Key Algorithm: rsaEncryption
                Public-Key: (2048 bit)
                Modulus:
                    00:e0:cb:6d:4e:79:d1:20:bb:6d:9e:bb:e2:b0:c8:
                    c4:0a:44:ec:1a:37:b7:db:b9:77:3c:cd:1d:81:a9:
                    ba:a0:5a:97:df:28:40:4f:22:d7:3d:f0:b6:57:75:
                    02:50:20:82:fd:d2:57:2c:50:65:87:a3:ea:58:a7:
                    24:8c:2b:e1:df:78:96:46:89:af:64:74:8e:bd:ce:
                    4b:53:60:d1:36:16:b9:c1:f0:b2:aa:3d:72:02:33:
                    9b:5b:6c:35:da:5e:aa:b1:cb:f0:58:67:cd:ca:7b:
                    e2:83:f8:4a:50:85:a9:37:64:05:33:e0:b6:78:70:
                    3d:86:48:2d:77:aa:ec:7c:d8:cd:6c:5c:0e:4e:5c:
                    bd:24:45:ec:a4:43:fe:4d:7c:97:84:fc:b0:1d:64:
                    4f:2f:22:6a:34:a1:0a:09:7f:4c:2b:37:cd:ef:05:
                    cb:e4:ed:f3:04:4a:d9:e3:92:b4:27:d0:70:37:35:
                    72:54:26:8c:0e:d6:97:d3:0a:10:35:7f:46:af:4a:
                    11:4b:6f:8d:24:5e:77:6e:09:9b:0b:6a:d4:66:a7:
                    83:30:88:80:fe:e4:f3:2a:13:60:87:d7:cf:8c:4c:
                    bd:4f:ef:65:5c:37:07:15:25:83:8b:12:fe:53:c6:
                    29:30:36:fd:c4:49:1a:98:81:c4:d0:32:a9:79:04:
                    51:93
                Exponent: 65537 (0x10001)
        X509v3 extensions:
            X509v3 Basic Constraints: 
                CA:FALSE
            X509v3 Subject Key Identifier: 
                38:45:48:A8:20:42:68:91:61:1B:0F:D9:6F:99:DC:A6:8C:E4:3E:C8
            X509v3 Authority Key Identifier: 
                keyid:EF:DC:B6:3D:4B:FD:A7:87:05:C5:22:3D:8B:DC:BF:99:2A:EE:E4:DB
                DirName:/C=US/ST=California/L=San Francisco/O=Copyleft Certificate Co/OU=My Organizational Unit/CN=ChangeMe/emailAddress=me@example.net
                serial:87:1E:1D:DC:6B:8C:66:88

            X509v3 Extended Key Usage: 
                TLS Web Client Authentication
            X509v3 Key Usage: 
                Digital Signature
    Signature Algorithm: sha256WithRSAEncryption
         54:1c:31:ae:eb:e8:5b:68:a3:23:3a:64:bf:d2:d8:5f:dd:36:
         8f:aa:93:c7:d9:23:7b:0f:da:22:85:75:67:0b:23:46:21:8b:
         02:fc:70:02:25:74:a0:95:34:16:4e:a8:a3:66:1f:73:7c:8d:
         30:db:8f:b1:fe:4e:52:ce:16:76:b5:e6:88:4e:d9:3c:33:b7:
         f6:e7:36:04:93:10:49:4c:5c:92:4b:35:85:60:05:a4:8b:9e:
         35:e9:18:8d:91:29:ef:d2:3b:b8:e0:b9:9a:87:5c:73:69:9f:
         fe:8c:21:c5:90:6c:82:ed:62:f9:b0:25:20:b1:dd:76:25:2f:
         0b:48:42:54:63:dd:1f:b4:9f:b9:ae:cb:c7:6f:5e:ac:f0:6e:
         86:bc:f1:ae:3f:27:96:3e:fd:f3:40:57:21:d1:98:d4:97:ad:
         f6:32:73:e1:94:9b:c2:6a:ef:3e:26:a2:5f:0f:f6:f6:d2:96:
         1e:4e:52:ff:76:4c:09:d7:3f:13:3f:63:50:32:b4:0b:bc:ac:
         9d:f8:78:4e:d5:e9:5d:1c:7a:f3:74:2f:48:e6:f3:ba:dd:77:
         47:ce:e3:8d:40:75:97:4d:a6:80:d0:87:65:72:b7:78:34:72:
         44:ec:9e:69:c1:d0:1c:78:b5:a4:6d:1b:86:88:6e:79:30:71:
         50:a3:46:23
-----BEGIN CERTIFICATE-----
MIIFNTCCBB2gAwIBAgIQSEkkUet+pJAdz7WDgY5EozANBgkqhkiG9w0BAQsFADCB
rzELMAkGA1UEBhMCVVMxEzARBgNVBAgMCkNhbGlmb3JuaWExFjAUBgNVBAcMDVNh
biBGcmFuY2lzY28xIDAeBgNVBAoMF0NvcHlsZWZ0IENlcnRpZmljYXRlIENvMR8w
HQYDVQQLDBZNeSBPcmdhbml6YXRpb25hbCBVbml0MREwDwYDVQQDDAhDaGFuZ2VN
ZTEdMBsGCSqGSIb3DQEJARYObWVAZXhhbXBsZS5uZXQwHhcNMjEwMTIzMTgyNzQ2
WhcNMjIwMTIzMTgyNzQ2WjCBwTELMAkGA1UEBhMCVVMxCzAJBgNVBAgMAk9IMRMw
EQYDVQQHDApDaW5jaW5uYXRpMSEwHwYDVQQKDBhVbml2ZXJzaXR5IG9mIENpbmNp
bm5hdGkxMDAuBgNVBAsMJ0RlcHQuIEVsZWN0cmljYWwgRW5nLiBhbmQgQ29tcHV0
ZXIgU2NpLjERMA8GA1UEAwwIY2xpZW50MjExKDAmBgkqhkiG9w0BCQEWGWZyYW5j
b0BnYXVzcy5lY2Vjcy51Yy5lZHUwggEiMA0GCSqGSIb3DQEBAQUAA4IBDwAwggEK
AoIBAQDgy21OedEgu22eu+KwyMQKROwaN7fbuXc8zR2BqbqgWpffKEBPItc98LZX
dQJQIIL90lcsUGWHo+pYpySMK+HfeJZGia9kdI69zktTYNE2FrnB8LKqPXICM5tb
bDXaXqqxy/BYZ83Ke+KD+EpQhak3ZAUz4LZ4cD2GSC13qux82M1sXA5OXL0kReyk
Q/5NfJeE/LAdZE8vImo0oQoJf0wrN83vBcvk7fMEStnjkrQn0HA3NXJUJowO1pfT
ChA1f0avShFLb40kXnduCZsLatRmp4MwiID+5PMqE2CH18+MTL1P72VcNwcVJYOL
Ev5TxikwNv3ESRqYgcTQMql5BFGTAgMBAAGjggE3MIIBMzAJBgNVHRMEAjAAMB0G
A1UdDgQWBBQ4RUioIEJokWEbD9lvmdymjOQ+yDCB5AYDVR0jBIHcMIHZgBTv3LY9
S/2nhwXFIj2L3L+ZKu7k26GBtaSBsjCBrzELMAkGA1UEBhMCVVMxEzARBgNVBAgM
CkNhbGlmb3JuaWExFjAUBgNVBAcMDVNhbiBGcmFuY2lzY28xIDAeBgNVBAoMF0Nv
cHlsZWZ0IENlcnRpZmljYXRlIENvMR8wHQYDVQQLDBZNeSBPcmdhbml6YXRpb25h
bCBVbml0MREwDwYDVQQDDAhDaGFuZ2VNZTEdMBsGCSqGSIb3DQEJARYObWVAZXhh
bXBsZS5uZXSCCQCHHh3ca4xmiDATBgNVHSUEDDAKBggrBgEFBQcDAjALBgNVHQ8E
BAMCB4AwDQYJKoZIhvcNAQELBQADggEBAFQcMa7r6FtooyM6ZL/S2F/dNo+qk8fZ
I3sP2iKFdWcLI0YhiwL8cAIldKCVNBZOqKNmH3N8jTDbj7H+TlLOFna15ohO2Twz
t/bnNgSTEElMXJJLNYVgBaSLnjXpGI2RKe/SO7jguZqHXHNpn/6MIcWQbILtYvmw
JSCx3XYlLwtIQlRj3R+0n7muy8dvXqzwboa88a4/J5Y+/fNAVyHRmNSXrfYyc+GU
m8Jq7z4mol8P9vbSlh5OUv92TAnXPxM/Y1AytAu8rJ34eE7V6V0cevN0L0jm87rd
d0fO441AdZdNpoDQh2Vyt3g0ckTsnmnB0Bx4taRtG4aIbnkwcVCjRiM=
-----END CERTIFICATE-----
