Certificate:
    Data:
        Version: 3 (0x2)
        Serial Number:
            48:b1:8d:41:00:c1:78:35:57:c7:2f:f5:92:26:29:38
    Signature Algorithm: sha256WithRSAEncryption
        Issuer: C=US, ST=California, L=San Francisco, O=Copyleft Certificate Co, OU=My Organizational Unit, CN=ChangeMe/emailAddress=me@example.net
        Validity
            Not Before: Jan 23 18:30:10 2021 GMT
            Not After : Jan 23 18:30:10 2022 GMT
        Subject: C=US, ST=OH, L=Cincinnati, O=University of Cincinnati, OU=Dept. Electrical Eng. and Computer Sci., CN=client123/emailAddress=franco@gauss.ececs.uc.edu
        Subject Public Key Info:
            Public Key Algorithm: rsaEncryption
                Public-Key: (2048 bit)
                Modulus:
                    00:c7:38:a4:0a:db:f6:cb:1a:4c:78:99:03:9c:a9:
                    8a:42:bf:16:c7:4b:14:f1:9b:a8:23:4a:36:c9:15:
                    49:46:7e:3b:0a:56:c1:b0:d4:0c:29:a2:7f:5e:11:
                    61:c1:91:24:fb:3a:21:4a:7e:3c:d2:37:0c:cf:e7:
                    3c:df:50:02:e1:06:25:e3:05:77:ff:08:28:e7:d8:
                    95:39:e5:0a:39:6e:2f:f1:a8:00:3c:fe:7e:4b:6c:
                    43:8c:9b:39:69:b8:51:0f:9a:e2:11:7b:e6:37:84:
                    df:26:c1:6d:ab:cf:f1:4b:01:b9:00:fd:6c:e7:a5:
                    bc:41:3a:71:0c:a2:b6:d8:fa:0d:91:f8:4b:79:48:
                    1d:07:da:36:ad:bb:78:b5:84:24:45:08:37:28:80:
                    f2:69:18:9f:4e:fb:37:16:10:d7:88:1a:74:3a:b1:
                    a6:8d:c5:66:c5:be:42:96:52:54:0d:5a:79:d8:90:
                    7f:02:f7:04:63:98:27:3a:0b:c2:03:67:0e:10:00:
                    3f:21:8c:63:d4:30:c7:45:50:77:4a:fd:81:90:d2:
                    de:dc:bb:17:58:e2:6a:34:22:38:eb:6c:3a:41:c1:
                    97:de:c2:f1:c3:8f:69:21:db:9e:a7:7c:56:2a:94:
                    b4:0f:97:43:4e:49:31:2e:39:25:bd:b7:95:07:7e:
                    7b:97
                Exponent: 65537 (0x10001)
        X509v3 extensions:
            X509v3 Basic Constraints: 
                CA:FALSE
            X509v3 Subject Key Identifier: 
                E5:4C:F1:0C:7E:D9:52:50:C2:D4:2F:AE:64:17:F8:84:57:5A:33:34
            X509v3 Authority Key Identifier: 
                keyid:EF:DC:B6:3D:4B:FD:A7:87:05:C5:22:3D:8B:DC:BF:99:2A:EE:E4:DB
                DirName:/C=US/ST=California/L=San Francisco/O=Copyleft Certificate Co/OU=My Organizational Unit/CN=ChangeMe/emailAddress=me@example.net
                serial:87:1E:1D:DC:6B:8C:66:88

            X509v3 Extended Key Usage: 
                TLS Web Client Authentication
            X509v3 Key Usage: 
                Digital Signature
    Signature Algorithm: sha256WithRSAEncryption
         3a:8f:5b:7d:34:2d:5e:a9:f6:5f:8e:bb:ec:eb:d2:b2:a9:8a:
         69:63:2c:7d:dd:c8:25:e9:74:af:2d:5d:90:40:e4:33:88:c5:
         0c:07:82:93:79:c0:68:58:3b:d6:ae:1d:e8:6d:ac:5b:b8:49:
         c8:5c:3a:68:3b:64:4c:15:ae:80:1a:e9:ca:88:5b:46:79:b3:
         ec:aa:fb:6c:2d:da:4f:2a:3d:6f:57:1c:2b:b2:7f:18:a2:1e:
         c7:00:c7:12:c1:75:94:dc:b6:28:3d:16:3f:d8:d5:7b:fb:00:
         23:c6:2b:12:08:fb:f3:34:55:d4:30:84:30:ea:d4:73:82:af:
         a7:d7:d0:7d:cf:07:82:e0:2f:30:de:23:9a:14:81:30:49:93:
         7e:b5:6e:10:e1:11:ba:83:98:54:c1:99:45:10:7d:ea:f3:e0:
         ab:6a:0c:84:ab:1e:84:52:c0:9d:f1:f4:ba:00:5e:cf:05:28:
         17:eb:22:d5:a1:77:22:ba:0a:e3:25:02:8e:5e:9e:db:3c:6c:
         2e:55:cc:3a:c1:ba:bf:fe:0e:5a:1a:6e:5d:91:0b:08:c5:ee:
         dc:93:e0:95:ba:2e:26:90:53:85:c7:e9:b7:e8:6e:ba:e2:ed:
         6c:51:18:eb:c8:4c:ee:d0:76:4a:a2:bd:eb:84:83:90:8c:b1:
         88:30:df:68
-----BEGIN CERTIFICATE-----
MIIFNjCCBB6gAwIBAgIQSLGNQQDBeDVXxy/1kiYpODANBgkqhkiG9w0BAQsFADCB
rzELMAkGA1UEBhMCVVMxEzARBgNVBAgMCkNhbGlmb3JuaWExFjAUBgNVBAcMDVNh
biBGcmFuY2lzY28xIDAeBgNVBAoMF0NvcHlsZWZ0IENlcnRpZmljYXRlIENvMR8w
HQYDVQQLDBZNeSBPcmdhbml6YXRpb25hbCBVbml0MREwDwYDVQQDDAhDaGFuZ2VN
ZTEdMBsGCSqGSIb3DQEJARYObWVAZXhhbXBsZS5uZXQwHhcNMjEwMTIzMTgzMDEw
WhcNMjIwMTIzMTgzMDEwWjCBwjELMAkGA1UEBhMCVVMxCzAJBgNVBAgMAk9IMRMw
EQYDVQQHDApDaW5jaW5uYXRpMSEwHwYDVQQKDBhVbml2ZXJzaXR5IG9mIENpbmNp
bm5hdGkxMDAuBgNVBAsMJ0RlcHQuIEVsZWN0cmljYWwgRW5nLiBhbmQgQ29tcHV0
ZXIgU2NpLjESMBAGA1UEAwwJY2xpZW50MTIzMSgwJgYJKoZIhvcNAQkBFhlmcmFu
Y29AZ2F1c3MuZWNlY3MudWMuZWR1MIIBIjANBgkqhkiG9w0BAQEFAAOCAQ8AMIIB
CgKCAQEAxzikCtv2yxpMeJkDnKmKQr8Wx0sU8ZuoI0o2yRVJRn47ClbBsNQMKaJ/
XhFhwZEk+zohSn480jcMz+c831AC4QYl4wV3/wgo59iVOeUKOW4v8agAPP5+S2xD
jJs5abhRD5riEXvmN4TfJsFtq8/xSwG5AP1s56W8QTpxDKK22PoNkfhLeUgdB9o2
rbt4tYQkRQg3KIDyaRifTvs3FhDXiBp0OrGmjcVmxb5CllJUDVp52JB/AvcEY5gn
OgvCA2cOEAA/IYxj1DDHRVB3Sv2BkNLe3LsXWOJqNCI462w6QcGX3sLxw49pIdue
p3xWKpS0D5dDTkkxLjklvbeVB357lwIDAQABo4IBNzCCATMwCQYDVR0TBAIwADAd
BgNVHQ4EFgQU5UzxDH7ZUlDC1C+uZBf4hFdaMzQwgeQGA1UdIwSB3DCB2YAU79y2
PUv9p4cFxSI9i9y/mSru5NuhgbWkgbIwga8xCzAJBgNVBAYTAlVTMRMwEQYDVQQI
DApDYWxpZm9ybmlhMRYwFAYDVQQHDA1TYW4gRnJhbmNpc2NvMSAwHgYDVQQKDBdD
b3B5bGVmdCBDZXJ0aWZpY2F0ZSBDbzEfMB0GA1UECwwWTXkgT3JnYW5pemF0aW9u
YWwgVW5pdDERMA8GA1UEAwwIQ2hhbmdlTWUxHTAbBgkqhkiG9w0BCQEWDm1lQGV4
YW1wbGUubmV0ggkAhx4d3GuMZogwEwYDVR0lBAwwCgYIKwYBBQUHAwIwCwYDVR0P
BAQDAgeAMA0GCSqGSIb3DQEBCwUAA4IBAQA6j1t9NC1eqfZfjrvs69KyqYppYyx9
3cgl6XSvLV2QQOQziMUMB4KTecBoWDvWrh3obaxbuEnIXDpoO2RMFa6AGunKiFtG
ebPsqvtsLdpPKj1vVxwrsn8Yoh7HAMcSwXWU3LYoPRY/2NV7+wAjxisSCPvzNFXU
MIQw6tRzgq+n19B9zweC4C8w3iOaFIEwSZN+tW4Q4RG6g5hUwZlFEH3q8+CragyE
qx6EUsCd8fS6AF7PBSgX6yLVoXciugrjJQKOXp7bPGwuVcw6wbq//g5aGm5dkQsI
xe7ck+CVui4mkFOFx+m36G664u1sURjryEzu0HZKor3rhIOQjLGIMN9o
-----END CERTIFICATE-----
