Certificate:
    Data:
        Version: 3 (0x2)
        Serial Number:
            4c:df:cd:63:17:e2:ee:3d:9c:6c:09:ec:48:b9:8a:f3
    Signature Algorithm: sha256WithRSAEncryption
        Issuer: C=US, ST=California, L=San Francisco, O=Copyleft Certificate Co, OU=My Organizational Unit, CN=ChangeMe/emailAddress=me@example.net
        Validity
            Not Before: Nov 11 18:51:32 2023 GMT
            Not After : Nov 10 18:51:32 2024 GMT
        Subject: C=US, ST=OH, L=Cincinnati, O=University of Cincinnati ., OU=Dept. Elec. Comp. . Eng. Comp. Sci., CN=client24/emailAddress=franco@gauss.ececs.uc.edu
        Subject Public Key Info:
            Public Key Algorithm: rsaEncryption
                Public-Key: (2048 bit)
                Modulus:
                    00:b5:86:de:3f:9a:43:4f:4e:a3:a6:71:bc:0d:5f:
                    9d:68:58:a6:7a:ae:4f:f5:f0:4e:74:d3:26:4b:99:
                    63:02:01:5a:aa:af:75:95:8a:ef:cc:b7:48:1e:87:
                    1c:7b:0b:0d:9b:4c:7c:a4:96:9c:81:4e:fc:d7:a5:
                    ed:a2:06:c8:73:72:15:25:09:21:d2:c6:56:48:eb:
                    9b:20:be:4d:ed:15:e3:0c:c9:55:f8:ec:c2:54:f2:
                    f2:dd:8b:ec:79:a4:65:75:a1:21:3c:63:18:cb:a2:
                    fc:93:c6:02:e5:90:98:2d:e9:4a:b7:9c:af:ee:88:
                    2b:6c:48:48:81:6f:d2:a0:a9:07:f0:c1:ad:d3:03:
                    a8:d9:72:86:fc:d4:7c:e8:4a:14:36:25:5e:e5:64:
                    31:ee:ed:98:56:a4:99:44:aa:8f:f9:09:4a:0b:4e:
                    88:50:ad:41:08:81:a7:1b:3a:14:0d:9c:99:45:72:
                    5d:96:f1:8d:5c:a1:f0:04:3b:d8:9a:1a:c5:6d:d1:
                    b6:75:77:a3:cb:24:3d:b7:25:da:2e:50:42:73:6a:
                    83:c6:fc:09:81:a2:f2:18:29:a2:7f:3f:e3:32:84:
                    65:5d:fd:53:66:fc:88:8f:5c:f0:8c:13:87:0c:2f:
                    2b:52:3c:5d:c5:9c:c6:99:81:f5:16:af:6a:f2:70:
                    ab:19
                Exponent: 65537 (0x10001)
        X509v3 extensions:
            X509v3 Basic Constraints: 
                CA:FALSE
            X509v3 Subject Key Identifier: 
                F8:7F:03:EB:1C:64:48:35:2D:02:FD:72:1C:28:7F:12:7E:7D:28:A8
            X509v3 Authority Key Identifier: 
                keyid:9C:0E:D5:A3:16:6F:C8:23:88:D1:12:C9:63:5D:18:D9:C9:FC:5B:E9
                DirName:/C=US/ST=California/L=San Francisco/O=Copyleft Certificate Co/OU=My Organizational Unit/CN=ChangeMe/emailAddress=me@example.net
                serial:A3:08:26:80:D2:47:98:75

            X509v3 Extended Key Usage: 
                TLS Web Client Authentication
            X509v3 Key Usage: 
                Digital Signature
    Signature Algorithm: sha256WithRSAEncryption
         c5:e1:33:7d:8d:7a:3b:2f:01:13:da:44:09:1c:0a:b8:ff:2b:
         23:f9:d3:aa:50:a1:b3:d0:c7:cf:d6:0b:d1:7d:8a:f9:0f:ef:
         49:fa:f6:d7:ca:a1:c3:f8:27:a7:fa:3b:d3:1f:4d:25:25:ea:
         78:2e:63:3a:00:2a:83:60:07:61:b0:1f:b3:47:2b:aa:cb:4e:
         56:77:5f:56:6e:71:b8:f8:10:a6:97:f0:88:bb:6f:18:0d:c2:
         7e:d3:48:14:49:c6:04:d1:87:e8:a5:a6:53:2d:0d:22:69:e4:
         68:7c:b9:09:b6:ee:ac:5a:25:70:9d:aa:40:c5:eb:e3:c6:bb:
         cf:db:66:b9:95:e1:89:d0:e4:cd:c2:20:ba:18:9a:9b:05:2f:
         05:a7:bf:8c:9d:5c:81:da:7e:78:6b:7f:dd:c1:22:64:89:b2:
         5e:ec:60:41:3b:f1:ef:dc:91:cc:aa:61:f9:77:90:70:ab:8d:
         eb:84:20:67:22:8b:dd:92:97:a6:42:96:a0:d2:39:da:c7:73:
         8f:af:2c:7b:aa:c1:b9:b3:de:78:60:1e:65:d3:e5:d0:bb:5b:
         e3:8a:3d:6d:ad:84:0f:70:11:ef:ca:da:74:d1:ba:cc:f7:35:
         0d:0a:a0:60:b9:13:b4:ba:d5:ca:76:2a:49:68:63:16:0d:59:
         a2:88:2b:8f
-----BEGIN CERTIFICATE-----
MIIFMzCCBBugAwIBAgIQTN/NYxfi7j2cbAnsSLmK8zANBgkqhkiG9w0BAQsFADCB
rzELMAkGA1UEBhMCVVMxEzARBgNVBAgMCkNhbGlmb3JuaWExFjAUBgNVBAcMDVNh
biBGcmFuY2lzY28xIDAeBgNVBAoMF0NvcHlsZWZ0IENlcnRpZmljYXRlIENvMR8w
HQYDVQQLDBZNeSBPcmdhbml6YXRpb25hbCBVbml0MREwDwYDVQQDDAhDaGFuZ2VN
ZTEdMBsGCSqGSIb3DQEJARYObWVAZXhhbXBsZS5uZXQwHhcNMjMxMTExMTg1MTMy
WhcNMjQxMTEwMTg1MTMyWjCBvzELMAkGA1UEBhMCVVMxCzAJBgNVBAgMAk9IMRMw
EQYDVQQHDApDaW5jaW5uYXRpMSMwIQYDVQQKDBpVbml2ZXJzaXR5IG9mIENpbmNp
bm5hdGkgLjEsMCoGA1UECwwjRGVwdC4gRWxlYy4gQ29tcC4gLiBFbmcuIENvbXAu
IFNjaS4xETAPBgNVBAMMCGNsaWVudDI0MSgwJgYJKoZIhvcNAQkBFhlmcmFuY29A
Z2F1c3MuZWNlY3MudWMuZWR1MIIBIjANBgkqhkiG9w0BAQEFAAOCAQ8AMIIBCgKC
AQEAtYbeP5pDT06jpnG8DV+daFimeq5P9fBOdNMmS5ljAgFaqq91lYrvzLdIHocc
ewsNm0x8pJacgU7816XtogbIc3IVJQkh0sZWSOubIL5N7RXjDMlV+OzCVPLy3Yvs
eaRldaEhPGMYy6L8k8YC5ZCYLelKt5yv7ogrbEhIgW/SoKkH8MGt0wOo2XKG/NR8
6EoUNiVe5WQx7u2YVqSZRKqP+QlKC06IUK1BCIGnGzoUDZyZRXJdlvGNXKHwBDvY
mhrFbdG2dXejyyQ9tyXaLlBCc2qDxvwJgaLyGCmifz/jMoRlXf1TZvyIj1zwjBOH
DC8rUjxdxZzGmYH1Fq9q8nCrGQIDAQABo4IBNzCCATMwCQYDVR0TBAIwADAdBgNV
HQ4EFgQU+H8D6xxkSDUtAv1yHCh/En59KKgwgeQGA1UdIwSB3DCB2YAUnA7VoxZv
yCOI0RLJY10Y2cn8W+mhgbWkgbIwga8xCzAJBgNVBAYTAlVTMRMwEQYDVQQIDApD
YWxpZm9ybmlhMRYwFAYDVQQHDA1TYW4gRnJhbmNpc2NvMSAwHgYDVQQKDBdDb3B5
bGVmdCBDZXJ0aWZpY2F0ZSBDbzEfMB0GA1UECwwWTXkgT3JnYW5pemF0aW9uYWwg
VW5pdDERMA8GA1UEAwwIQ2hhbmdlTWUxHTAbBgkqhkiG9w0BCQEWDm1lQGV4YW1w
bGUubmV0ggkAowgmgNJHmHUwEwYDVR0lBAwwCgYIKwYBBQUHAwIwCwYDVR0PBAQD
AgeAMA0GCSqGSIb3DQEBCwUAA4IBAQDF4TN9jXo7LwET2kQJHAq4/ysj+dOqUKGz
0MfP1gvRfYr5D+9J+vbXyqHD+Cen+jvTH00lJep4LmM6ACqDYAdhsB+zRyuqy05W
d19WbnG4+BCml/CIu28YDcJ+00gUScYE0YfopaZTLQ0iaeRofLkJtu6sWiVwnapA
xevjxrvP22a5leGJ0OTNwiC6GJqbBS8Fp7+MnVyB2n54a3/dwSJkibJe7GBBO/Hv
3JHMqmH5d5Bwq43rhCBnIovdkpemQpag0jnax3OPryx7qsG5s954YB5l0+XQu1vj
ij1trYQPcBHvytp00brM9zUNCqBguRO0utXKdipJaGMWDVmiiCuP
-----END CERTIFICATE-----
