Certificate:
    Data:
        Version: 3 (0x2)
        Serial Number:
            4d:89:dd:c8:b9:82:96:0a:f5:7c:49:16:07:a5:f1:99
    Signature Algorithm: sha256WithRSAEncryption
        Issuer: C=US, ST=California, L=San Francisco, O=Copyleft Certificate Co, OU=My Organizational Unit, CN=ChangeMe/emailAddress=me@example.net
        Validity
            Not Before: Jan 23 18:30:46 2021 GMT
            Not After : Jan 23 18:30:46 2022 GMT
        Subject: C=US, ST=OH, L=Cincinnati, O=University of Cincinnati, OU=Dept. Electrical Eng. and Computer Sci., CN=client149/emailAddress=franco@gauss.ececs.uc.edu
        Subject Public Key Info:
            Public Key Algorithm: rsaEncryption
                Public-Key: (2048 bit)
                Modulus:
                    00:c5:4d:35:8d:23:4c:c5:62:d8:5d:21:18:74:2a:
                    c9:48:74:d6:a2:af:5a:f8:7a:b3:51:f0:bc:82:13:
                    96:68:a5:77:41:76:38:65:d1:ed:9e:af:37:79:06:
                    e8:83:cd:82:fc:20:d4:17:28:6f:a0:98:83:65:32:
                    6d:de:f6:b6:ad:ab:ec:30:c7:9d:04:12:71:6e:64:
                    cf:48:f4:dc:63:09:e9:ae:98:14:df:62:47:72:7b:
                    64:1d:27:a7:ba:0f:f7:93:13:a5:00:05:fe:1a:97:
                    20:ad:91:19:9e:e8:94:8d:30:73:7b:f5:76:85:f6:
                    73:a7:01:e9:7d:09:4a:c3:e6:d8:45:b7:78:0d:bc:
                    5c:96:7b:0d:1f:1d:0b:3a:27:08:2f:cd:d1:9f:c1:
                    bd:a9:3a:87:16:8e:55:22:d0:3e:f6:c4:96:9f:d4:
                    db:2a:d0:73:c0:f4:3d:32:2c:bc:f8:a4:80:69:03:
                    f0:8d:22:66:b4:47:72:8c:7e:c9:7b:5f:6d:f2:5b:
                    c9:33:e7:4b:a8:c8:7e:73:9a:30:04:1f:42:8d:db:
                    3d:00:82:10:a6:31:e7:31:61:71:88:e2:eb:21:53:
                    f1:47:00:d8:1e:58:b6:fe:05:14:78:b5:00:34:e1:
                    15:59:ba:ef:e6:9c:3c:c8:7c:7f:1b:05:1a:85:01:
                    54:3d
                Exponent: 65537 (0x10001)
        X509v3 extensions:
            X509v3 Basic Constraints: 
                CA:FALSE
            X509v3 Subject Key Identifier: 
                D2:AF:1C:11:83:2F:F5:5F:A6:AE:DB:24:8A:3A:B4:D8:08:B8:BC:ED
            X509v3 Authority Key Identifier: 
                keyid:EF:DC:B6:3D:4B:FD:A7:87:05:C5:22:3D:8B:DC:BF:99:2A:EE:E4:DB
                DirName:/C=US/ST=California/L=San Francisco/O=Copyleft Certificate Co/OU=My Organizational Unit/CN=ChangeMe/emailAddress=me@example.net
                serial:87:1E:1D:DC:6B:8C:66:88

            X509v3 Extended Key Usage: 
                TLS Web Client Authentication
            X509v3 Key Usage: 
                Digital Signature
    Signature Algorithm: sha256WithRSAEncryption
         a3:31:a5:b8:f5:b4:7a:b0:6c:cc:e5:65:6a:a2:97:0a:f0:07:
         c2:8c:29:83:8b:6f:fb:a3:40:cc:5f:3e:e4:84:90:e8:cc:b8:
         66:ee:f6:4c:ba:5d:99:dc:8c:66:08:23:7c:e9:c0:a2:f6:41:
         a3:f2:a9:f5:24:65:94:37:7c:eb:70:a6:0e:fd:78:ba:15:66:
         ac:b8:96:a4:6a:df:3c:2d:a5:e8:84:2d:7c:30:18:8c:33:ad:
         58:76:e9:7e:91:4f:18:92:0c:fd:53:08:f2:1d:18:87:16:32:
         20:ac:53:d6:d8:a4:50:d5:b5:f3:41:72:c3:4f:ad:cf:17:c0:
         e7:62:fc:2f:6b:12:93:8f:04:06:4a:2c:2e:1a:ce:c1:f5:a2:
         2d:23:88:62:49:a7:c1:74:29:b0:51:b2:30:1d:e3:1e:69:1f:
         f1:80:68:98:34:44:29:9b:fb:a3:33:9c:c8:c6:fd:b9:0b:5d:
         12:0f:6c:d7:81:77:0a:ef:de:ea:27:70:d4:9a:b8:25:1b:9d:
         84:85:b6:9b:cf:6a:05:1b:03:24:39:42:28:f6:e4:fd:be:0a:
         2b:51:cd:30:a7:27:14:b1:46:a2:3d:fa:e3:c9:85:aa:75:af:
         ed:28:8d:9f:38:a0:cf:09:2c:d4:45:6e:2f:c7:eb:66:1e:65:
         5e:db:7b:70
-----BEGIN CERTIFICATE-----
MIIFNjCCBB6gAwIBAgIQTYndyLmClgr1fEkWB6XxmTANBgkqhkiG9w0BAQsFADCB
rzELMAkGA1UEBhMCVVMxEzARBgNVBAgMCkNhbGlmb3JuaWExFjAUBgNVBAcMDVNh
biBGcmFuY2lzY28xIDAeBgNVBAoMF0NvcHlsZWZ0IENlcnRpZmljYXRlIENvMR8w
HQYDVQQLDBZNeSBPcmdhbml6YXRpb25hbCBVbml0MREwDwYDVQQDDAhDaGFuZ2VN
ZTEdMBsGCSqGSIb3DQEJARYObWVAZXhhbXBsZS5uZXQwHhcNMjEwMTIzMTgzMDQ2
WhcNMjIwMTIzMTgzMDQ2WjCBwjELMAkGA1UEBhMCVVMxCzAJBgNVBAgMAk9IMRMw
EQYDVQQHDApDaW5jaW5uYXRpMSEwHwYDVQQKDBhVbml2ZXJzaXR5IG9mIENpbmNp
bm5hdGkxMDAuBgNVBAsMJ0RlcHQuIEVsZWN0cmljYWwgRW5nLiBhbmQgQ29tcHV0
ZXIgU2NpLjESMBAGA1UEAwwJY2xpZW50MTQ5MSgwJgYJKoZIhvcNAQkBFhlmcmFu
Y29AZ2F1c3MuZWNlY3MudWMuZWR1MIIBIjANBgkqhkiG9w0BAQEFAAOCAQ8AMIIB
CgKCAQEAxU01jSNMxWLYXSEYdCrJSHTWoq9a+HqzUfC8ghOWaKV3QXY4ZdHtnq83
eQbog82C/CDUFyhvoJiDZTJt3va2ravsMMedBBJxbmTPSPTcYwnprpgU32JHcntk
HSenug/3kxOlAAX+GpcgrZEZnuiUjTBze/V2hfZzpwHpfQlKw+bYRbd4DbxclnsN
Hx0LOicIL83Rn8G9qTqHFo5VItA+9sSWn9TbKtBzwPQ9Miy8+KSAaQPwjSJmtEdy
jH7Je19t8lvJM+dLqMh+c5owBB9Cjds9AIIQpjHnMWFxiOLrIVPxRwDYHli2/gUU
eLUANOEVWbrv5pw8yHx/GwUahQFUPQIDAQABo4IBNzCCATMwCQYDVR0TBAIwADAd
BgNVHQ4EFgQU0q8cEYMv9V+mrtskijq02Ai4vO0wgeQGA1UdIwSB3DCB2YAU79y2
PUv9p4cFxSI9i9y/mSru5NuhgbWkgbIwga8xCzAJBgNVBAYTAlVTMRMwEQYDVQQI
DApDYWxpZm9ybmlhMRYwFAYDVQQHDA1TYW4gRnJhbmNpc2NvMSAwHgYDVQQKDBdD
b3B5bGVmdCBDZXJ0aWZpY2F0ZSBDbzEfMB0GA1UECwwWTXkgT3JnYW5pemF0aW9u
YWwgVW5pdDERMA8GA1UEAwwIQ2hhbmdlTWUxHTAbBgkqhkiG9w0BCQEWDm1lQGV4
YW1wbGUubmV0ggkAhx4d3GuMZogwEwYDVR0lBAwwCgYIKwYBBQUHAwIwCwYDVR0P
BAQDAgeAMA0GCSqGSIb3DQEBCwUAA4IBAQCjMaW49bR6sGzM5WVqopcK8AfCjCmD
i2/7o0DMXz7khJDozLhm7vZMul2Z3IxmCCN86cCi9kGj8qn1JGWUN3zrcKYO/Xi6
FWasuJakat88LaXohC18MBiMM61Ydul+kU8Ykgz9UwjyHRiHFjIgrFPW2KRQ1bXz
QXLDT63PF8DnYvwvaxKTjwQGSiwuGs7B9aItI4hiSafBdCmwUbIwHeMeaR/xgGiY
NEQpm/ujM5zIxv25C10SD2zXgXcK797qJ3DUmrglG52Ehbabz2oFGwMkOUIo9uT9
vgorUc0wpycUsUaiPfrjyYWqda/tKI2fOKDPCSzURW4vx+tmHmVe23tw
-----END CERTIFICATE-----
