Certificate:
    Data:
        Version: 3 (0x2)
        Serial Number:
            4e:aa:14:d2:3f:84:a8:ed:d4:d2:0f:ac:58:f4:2b:1a
    Signature Algorithm: sha256WithRSAEncryption
        Issuer: C=US, ST=California, L=San Francisco, O=Copyleft Certificate Co, OU=My Organizational Unit, CN=ChangeMe/emailAddress=me@example.net
        Validity
            Not Before: Nov 13 11:49:22 2023 GMT
            Not After : Nov 12 11:49:22 2024 GMT
        Subject: C=US, ST=OH, L=Cincinnati, O=University of Cincinnati, OU=Dept. Elec. Comp. Eng. Comp. Sci., CN=client44/emailAddress=franco@gauss.ececs.uc.edu
        Subject Public Key Info:
            Public Key Algorithm: rsaEncryption
                Public-Key: (2048 bit)
                Modulus:
                    00:cc:e6:72:0f:29:d5:1d:9b:78:cb:b1:d8:f8:a9:
                    ee:0b:90:60:03:b6:d6:2d:c6:39:fb:d6:a0:63:1a:
                    34:fd:02:5b:8c:8c:65:1f:f7:b3:51:fd:ef:37:10:
                    c2:63:de:1a:2f:19:37:2b:5d:21:3f:02:f4:42:71:
                    c3:6b:e4:d3:b3:75:da:24:5b:f7:2c:e2:13:6f:06:
                    1c:c9:1e:90:77:23:1a:f3:47:43:ee:86:12:9f:5a:
                    6e:11:ff:e4:7c:7e:76:3e:db:32:f0:b1:ee:fa:8c:
                    38:88:b0:d0:ef:05:8b:72:ed:f8:13:66:13:6b:ba:
                    02:03:84:5f:fa:99:0f:07:f3:76:27:9c:61:e9:dd:
                    65:d6:6d:1a:e9:5d:c9:41:5b:18:20:ab:ac:0c:0c:
                    f7:4e:a8:6c:d6:30:b6:b0:d1:b5:82:a9:85:c6:51:
                    5b:7d:73:09:2a:46:e2:1e:ac:4f:2d:84:12:f0:bc:
                    83:66:22:18:22:e4:e9:52:ae:76:c4:58:eb:34:cf:
                    12:4c:c7:af:ed:b1:cf:d4:2f:cb:d3:7f:b1:3d:41:
                    a6:89:70:b1:6b:30:ca:89:fb:e4:20:f1:75:38:41:
                    96:45:05:1f:74:dd:2c:6e:53:17:6a:f8:a0:03:a8:
                    a0:34:76:e4:bd:9d:01:84:4e:ec:bb:f4:47:d7:2f:
                    1f:a9
                Exponent: 65537 (0x10001)
        X509v3 extensions:
            X509v3 Basic Constraints: 
                CA:FALSE
            X509v3 Subject Key Identifier: 
                1F:39:C3:19:98:C1:17:9E:BB:2C:E4:83:39:15:A9:CF:7C:81:5B:04
            X509v3 Authority Key Identifier: 
                keyid:B4:AE:AB:ED:FC:ED:84:AA:AD:77:5D:7C:84:28:1C:CA:CE:AE:2A:44
                DirName:/C=US/ST=California/L=San Francisco/O=Copyleft Certificate Co/OU=My Organizational Unit/CN=ChangeMe/emailAddress=me@example.net
                serial:BD:6C:3B:F4:D3:07:C9:D1

            X509v3 Extended Key Usage: 
                TLS Web Client Authentication
            X509v3 Key Usage: 
                Digital Signature
    Signature Algorithm: sha256WithRSAEncryption
         5e:97:15:1a:54:56:72:98:53:0b:e2:71:8a:71:5e:71:bc:bd:
         08:56:69:3b:09:34:52:b3:48:35:86:d9:81:8f:4e:7f:89:c9:
         a9:e3:98:62:e7:e1:12:24:12:45:6e:81:b1:f1:4f:42:91:cf:
         f8:b3:6e:39:17:d8:10:5a:1e:8c:a2:4a:37:a5:6d:35:69:1c:
         dd:fd:e8:4f:99:f8:77:da:2b:c1:f9:c3:6c:f0:b9:9b:67:b0:
         10:20:85:6c:c9:da:c2:03:8d:f5:ff:8a:fe:98:90:06:e3:0f:
         00:a6:e1:a6:3b:5b:ff:5e:ba:43:19:81:c0:a8:07:5a:ad:66:
         88:23:7f:3d:99:a6:57:f9:ac:a2:bc:bc:ff:83:9d:09:70:68:
         ba:e7:b7:db:80:e1:0f:11:53:ca:8b:3a:bc:ff:74:95:4a:d1:
         98:b8:f1:6f:6f:42:58:02:36:c8:d2:56:93:95:65:69:63:bf:
         4a:61:2b:93:5f:c0:92:32:c5:a3:12:3a:5d:d1:98:b2:91:6f:
         b0:07:44:96:17:96:ef:db:91:c4:2f:a0:48:c0:9b:ab:b1:31:
         94:18:a5:4e:9b:0b:82:08:2d:85:2b:a8:c3:6f:b6:5f:69:4f:
         61:76:fc:48:b8:1e:e0:56:6c:c3:e3:b2:87:19:12:8a:79:d0:
         45:06:cb:f6
-----BEGIN CERTIFICATE-----
MIIFLzCCBBegAwIBAgIQTqoU0j+EqO3U0g+sWPQrGjANBgkqhkiG9w0BAQsFADCB
rzELMAkGA1UEBhMCVVMxEzARBgNVBAgMCkNhbGlmb3JuaWExFjAUBgNVBAcMDVNh
biBGcmFuY2lzY28xIDAeBgNVBAoMF0NvcHlsZWZ0IENlcnRpZmljYXRlIENvMR8w
HQYDVQQLDBZNeSBPcmdhbml6YXRpb25hbCBVbml0MREwDwYDVQQDDAhDaGFuZ2VN
ZTEdMBsGCSqGSIb3DQEJARYObWVAZXhhbXBsZS5uZXQwHhcNMjMxMTEzMTE0OTIy
WhcNMjQxMTEyMTE0OTIyWjCBuzELMAkGA1UEBhMCVVMxCzAJBgNVBAgMAk9IMRMw
EQYDVQQHDApDaW5jaW5uYXRpMSEwHwYDVQQKDBhVbml2ZXJzaXR5IG9mIENpbmNp
bm5hdGkxKjAoBgNVBAsMIURlcHQuIEVsZWMuIENvbXAuIEVuZy4gQ29tcC4gU2Np
LjERMA8GA1UEAwwIY2xpZW50NDQxKDAmBgkqhkiG9w0BCQEWGWZyYW5jb0BnYXVz
cy5lY2Vjcy51Yy5lZHUwggEiMA0GCSqGSIb3DQEBAQUAA4IBDwAwggEKAoIBAQDM
5nIPKdUdm3jLsdj4qe4LkGADttYtxjn71qBjGjT9AluMjGUf97NR/e83EMJj3hov
GTcrXSE/AvRCccNr5NOzddokW/cs4hNvBhzJHpB3IxrzR0PuhhKfWm4R/+R8fnY+
2zLwse76jDiIsNDvBYty7fgTZhNrugIDhF/6mQ8H83YnnGHp3WXWbRrpXclBWxgg
q6wMDPdOqGzWMLaw0bWCqYXGUVt9cwkqRuIerE8thBLwvINmIhgi5OlSrnbEWOs0
zxJMx6/tsc/UL8vTf7E9QaaJcLFrMMqJ++Qg8XU4QZZFBR903SxuUxdq+KADqKA0
duS9nQGETuy79EfXLx+pAgMBAAGjggE3MIIBMzAJBgNVHRMEAjAAMB0GA1UdDgQW
BBQfOcMZmMEXnrss5IM5FanPfIFbBDCB5AYDVR0jBIHcMIHZgBS0rqvt/O2Eqq13
XXyEKBzKzq4qRKGBtaSBsjCBrzELMAkGA1UEBhMCVVMxEzARBgNVBAgMCkNhbGlm
b3JuaWExFjAUBgNVBAcMDVNhbiBGcmFuY2lzY28xIDAeBgNVBAoMF0NvcHlsZWZ0
IENlcnRpZmljYXRlIENvMR8wHQYDVQQLDBZNeSBPcmdhbml6YXRpb25hbCBVbml0
MREwDwYDVQQDDAhDaGFuZ2VNZTEdMBsGCSqGSIb3DQEJARYObWVAZXhhbXBsZS5u
ZXSCCQC9bDv00wfJ0TATBgNVHSUEDDAKBggrBgEFBQcDAjALBgNVHQ8EBAMCB4Aw
DQYJKoZIhvcNAQELBQADggEBAF6XFRpUVnKYUwvicYpxXnG8vQhWaTsJNFKzSDWG
2YGPTn+JyanjmGLn4RIkEkVugbHxT0KRz/izbjkX2BBaHoyiSjelbTVpHN396E+Z
+HfaK8H5w2zwuZtnsBAghWzJ2sIDjfX/iv6YkAbjDwCm4aY7W/9eukMZgcCoB1qt
Zogjfz2Zplf5rKK8vP+DnQlwaLrnt9uA4Q8RU8qLOrz/dJVK0Zi48W9vQlgCNsjS
VpOVZWljv0phK5NfwJIyxaMSOl3RmLKRb7AHRJYXlu/bkcQvoEjAm6uxMZQYpU6b
C4IILYUrqMNvtl9pT2F2/Ei4HuBWbMPjsocZEop50EUGy/Y=
-----END CERTIFICATE-----
