Certificate:
    Data:
        Version: 3 (0x2)
        Serial Number:
            55:9f:68:46:29:45:a2:08:bd:b9:01:73:f6:d2:2d:c9
    Signature Algorithm: sha256WithRSAEncryption
        Issuer: C=US, ST=California, L=San Francisco, O=Copyleft Certificate Co, OU=My Organizational Unit, CN=ChangeMe/emailAddress=me@example.net
        Validity
            Not Before: Nov 12 11:47:39 2023 GMT
            Not After : Nov 11 11:47:39 2024 GMT
        Subject: C=US, ST=OH, L=Cincinnati, O=University of Cincinnati, OU=Dept. Elec. Comp. Eng. Comp. Sci., CN=client21/emailAddress=franco@gauss.ececs.uc.edu
        Subject Public Key Info:
            Public Key Algorithm: rsaEncryption
                Public-Key: (2048 bit)
                Modulus:
                    00:e8:b1:eb:fb:36:51:b9:f3:77:e1:14:ac:e7:ac:
                    72:41:73:b4:ea:e1:9a:fa:c4:12:65:21:a7:ff:93:
                    b6:0c:5a:4b:ea:c4:d9:26:39:e6:47:8c:a7:82:a3:
                    4a:fa:a3:4e:6a:93:c3:5d:d3:79:92:17:b3:6c:29:
                    f3:a7:82:2a:07:38:d8:15:c3:e4:2d:84:93:f0:ba:
                    7f:99:35:d4:d2:7e:a2:5b:15:f7:cc:c4:8e:ce:46:
                    49:bb:0e:f2:91:15:8e:6d:6b:dd:c6:36:5d:5b:2d:
                    b7:04:1b:be:cd:37:b1:23:21:ab:c7:c1:4f:96:ef:
                    56:37:66:0e:96:1d:9f:6b:60:1d:98:9f:43:97:eb:
                    1a:d8:b3:94:98:70:b3:ab:45:c8:17:7d:c7:b7:14:
                    ab:88:cc:0c:75:39:9f:4b:bf:83:97:19:e6:28:7c:
                    45:6d:94:01:08:6f:c4:f9:36:bd:0e:ec:a5:4b:6d:
                    a2:ea:58:b9:ba:55:de:e2:6f:a7:4e:3e:96:42:ff:
                    c0:97:67:62:95:b2:3a:8c:dc:9b:06:3c:fc:dc:4b:
                    5c:bc:b1:9d:86:7f:f8:c6:f1:79:7e:5f:83:f8:e3:
                    04:c3:26:4b:6d:66:3a:59:90:7f:a8:8e:45:2a:97:
                    fa:4b:aa:aa:24:cc:5f:7a:ab:6b:60:2e:ad:c3:ec:
                    be:2d
                Exponent: 65537 (0x10001)
        X509v3 extensions:
            X509v3 Basic Constraints: 
                CA:FALSE
            X509v3 Subject Key Identifier: 
                67:43:54:64:3D:65:88:18:0D:20:31:F9:77:9F:1F:50:8F:95:EB:EB
            X509v3 Authority Key Identifier: 
                keyid:C4:46:F2:96:38:56:02:B8:9D:09:04:52:25:91:35:97:6A:D7:B1:F0
                DirName:/C=US/ST=California/L=San Francisco/O=Copyleft Certificate Co/OU=My Organizational Unit/CN=ChangeMe/emailAddress=me@example.net
                serial:D1:5A:15:1C:F0:20:95:62

            X509v3 Extended Key Usage: 
                TLS Web Client Authentication
            X509v3 Key Usage: 
                Digital Signature
    Signature Algorithm: sha256WithRSAEncryption
         0d:57:0a:f2:4a:f5:e4:ff:67:55:98:d1:e0:e1:f3:ba:ad:06:
         e4:96:7f:5a:a6:2e:c2:83:5b:dc:85:85:ae:67:f7:43:96:38:
         75:bb:24:15:4e:62:a4:84:66:fb:64:83:33:14:e5:36:61:be:
         a9:06:81:74:3d:0f:e5:e7:a8:06:ad:c7:03:4b:47:79:d1:50:
         c8:4d:74:de:70:90:9b:19:67:63:de:fa:39:87:a4:bd:eb:7c:
         88:83:e9:92:dd:1f:4c:b4:d8:30:19:e7:dc:4b:b4:f8:ec:ee:
         93:4f:d4:62:92:ba:08:cf:f8:10:ef:97:c0:e9:6b:fb:4c:a7:
         a6:24:d5:57:84:46:f0:1d:a5:f6:e9:83:97:12:ec:32:0e:b7:
         f3:a6:ae:ad:56:e2:87:1a:3f:96:b1:25:e0:07:83:10:90:0c:
         45:de:c1:8a:d1:f2:c4:5e:75:2e:0b:78:aa:6f:8f:3f:43:3b:
         4a:ca:2e:eb:05:d5:1e:fb:49:fa:9d:11:a7:e2:da:47:2a:3d:
         3a:af:a6:92:8e:ac:6a:4a:65:7e:f6:a5:1a:74:97:aa:cd:6d:
         15:42:85:a0:fd:fa:19:9f:5b:8c:f9:17:fc:d5:21:c5:04:67:
         31:0c:ef:9f:7e:5c:b5:9c:a1:9e:9c:6a:6a:2a:ca:4f:89:83:
         6c:3b:17:4c
-----BEGIN CERTIFICATE-----
MIIFLzCCBBegAwIBAgIQVZ9oRilFogi9uQFz9tItyTANBgkqhkiG9w0BAQsFADCB
rzELMAkGA1UEBhMCVVMxEzARBgNVBAgMCkNhbGlmb3JuaWExFjAUBgNVBAcMDVNh
biBGcmFuY2lzY28xIDAeBgNVBAoMF0NvcHlsZWZ0IENlcnRpZmljYXRlIENvMR8w
HQYDVQQLDBZNeSBPcmdhbml6YXRpb25hbCBVbml0MREwDwYDVQQDDAhDaGFuZ2VN
ZTEdMBsGCSqGSIb3DQEJARYObWVAZXhhbXBsZS5uZXQwHhcNMjMxMTEyMTE0NzM5
WhcNMjQxMTExMTE0NzM5WjCBuzELMAkGA1UEBhMCVVMxCzAJBgNVBAgMAk9IMRMw
EQYDVQQHDApDaW5jaW5uYXRpMSEwHwYDVQQKDBhVbml2ZXJzaXR5IG9mIENpbmNp
bm5hdGkxKjAoBgNVBAsMIURlcHQuIEVsZWMuIENvbXAuIEVuZy4gQ29tcC4gU2Np
LjERMA8GA1UEAwwIY2xpZW50MjExKDAmBgkqhkiG9w0BCQEWGWZyYW5jb0BnYXVz
cy5lY2Vjcy51Yy5lZHUwggEiMA0GCSqGSIb3DQEBAQUAA4IBDwAwggEKAoIBAQDo
sev7NlG583fhFKznrHJBc7Tq4Zr6xBJlIaf/k7YMWkvqxNkmOeZHjKeCo0r6o05q
k8Nd03mSF7NsKfOngioHONgVw+QthJPwun+ZNdTSfqJbFffMxI7ORkm7DvKRFY5t
a93GNl1bLbcEG77NN7EjIavHwU+W71Y3Zg6WHZ9rYB2Yn0OX6xrYs5SYcLOrRcgX
fce3FKuIzAx1OZ9Lv4OXGeYofEVtlAEIb8T5Nr0O7KVLbaLqWLm6Vd7ib6dOPpZC
/8CXZ2KVsjqM3JsGPPzcS1y8sZ2Gf/jG8Xl+X4P44wTDJkttZjpZkH+ojkUql/pL
qqokzF96q2tgLq3D7L4tAgMBAAGjggE3MIIBMzAJBgNVHRMEAjAAMB0GA1UdDgQW
BBRnQ1RkPWWIGA0gMfl3nx9Qj5Xr6zCB5AYDVR0jBIHcMIHZgBTERvKWOFYCuJ0J
BFIlkTWXatex8KGBtaSBsjCBrzELMAkGA1UEBhMCVVMxEzARBgNVBAgMCkNhbGlm
b3JuaWExFjAUBgNVBAcMDVNhbiBGcmFuY2lzY28xIDAeBgNVBAoMF0NvcHlsZWZ0
IENlcnRpZmljYXRlIENvMR8wHQYDVQQLDBZNeSBPcmdhbml6YXRpb25hbCBVbml0
MREwDwYDVQQDDAhDaGFuZ2VNZTEdMBsGCSqGSIb3DQEJARYObWVAZXhhbXBsZS5u
ZXSCCQDRWhUc8CCVYjATBgNVHSUEDDAKBggrBgEFBQcDAjALBgNVHQ8EBAMCB4Aw
DQYJKoZIhvcNAQELBQADggEBAA1XCvJK9eT/Z1WY0eDh87qtBuSWf1qmLsKDW9yF
ha5n90OWOHW7JBVOYqSEZvtkgzMU5TZhvqkGgXQ9D+XnqAatxwNLR3nRUMhNdN5w
kJsZZ2Pe+jmHpL3rfIiD6ZLdH0y02DAZ59xLtPjs7pNP1GKSugjP+BDvl8Dpa/tM
p6Yk1VeERvAdpfbpg5cS7DIOt/Omrq1W4ocaP5axJeAHgxCQDEXewYrR8sRedS4L
eKpvjz9DO0rKLusF1R77SfqdEafi2kcqPTqvppKOrGpKZX72pRp0l6rNbRVChaD9
+hmfW4z5F/zVIcUEZzEM759+XLWcoZ6camoqyk+Jg2w7F0w=
-----END CERTIFICATE-----
