Certificate:
    Data:
        Version: 3 (0x2)
        Serial Number:
            56:4b:04:13:3f:21:fb:fb:a8:e7:08:ae:e0:31:28:30
    Signature Algorithm: sha256WithRSAEncryption
        Issuer: C=US, ST=California, L=San Francisco, O=Copyleft Certificate Co, OU=My Organizational Unit, CN=ChangeMe/emailAddress=me@example.net
        Validity
            Not Before: Nov 11 01:58:59 2023 GMT
            Not After : Nov 10 01:58:59 2024 GMT
        Subject: C=US, ST=OH, L=Cincinnati, O=University of Cincinnati, OU=Dept. Elec. Comp. Eng. Comp. Sci., CN=client14/emailAddress=franco@gauss.ececs.uc.edu
        Subject Public Key Info:
            Public Key Algorithm: rsaEncryption
                Public-Key: (2048 bit)
                Modulus:
                    00:c7:d5:07:1d:45:2b:5e:93:37:26:aa:df:da:9b:
                    48:2d:15:4b:56:ca:25:48:2e:f6:fb:45:61:73:8e:
                    a9:0a:2b:08:6e:61:39:4d:c8:54:c9:59:e5:0a:c7:
                    db:35:b3:2a:55:98:23:96:5c:32:e9:40:01:a7:06:
                    5d:d3:2e:67:17:7c:2e:41:e5:9c:62:bd:6a:47:66:
                    c1:3c:5e:34:48:47:78:c3:97:1c:45:11:a3:b7:0a:
                    d3:38:4c:1a:11:b3:30:02:32:e8:7c:04:1c:85:c3:
                    16:a0:20:13:67:56:cc:11:d9:22:82:2a:98:60:96:
                    20:ff:f7:bd:ed:76:3a:b6:35:d9:c4:fe:cf:ec:92:
                    a4:63:3d:88:41:b0:2b:72:29:8e:34:eb:c8:31:2f:
                    2e:8e:f5:7b:ab:7f:e4:9d:44:3e:4f:c7:3e:35:18:
                    08:0c:99:22:49:0e:b7:7a:18:c5:e0:37:db:29:ac:
                    5e:43:f1:9d:5b:0c:19:be:0f:aa:7b:cc:4c:8a:40:
                    80:c6:14:53:eb:fb:e4:af:e0:24:26:d8:de:4e:37:
                    6e:1c:74:e5:15:f8:cd:83:3b:fc:0a:b6:f8:34:d8:
                    68:28:88:21:dc:50:65:d5:f9:30:0e:43:01:6e:e9:
                    08:6a:e3:4f:52:ea:ae:15:95:c9:b2:57:f0:b0:03:
                    50:17
                Exponent: 65537 (0x10001)
        X509v3 extensions:
            X509v3 Basic Constraints: 
                CA:FALSE
            X509v3 Subject Key Identifier: 
                9D:12:6D:24:9E:CE:30:63:E9:7D:51:7B:8A:8B:C0:5C:DC:D5:AE:73
            X509v3 Authority Key Identifier: 
                keyid:7B:0F:93:16:64:9F:71:41:D3:1B:FB:ED:6A:70:9B:CA:2E:70:F0:4B
                DirName:/C=US/ST=California/L=San Francisco/O=Copyleft Certificate Co/OU=My Organizational Unit/CN=ChangeMe/emailAddress=me@example.net
                serial:B9:F2:4E:2C:79:B3:D4:6C

            X509v3 Extended Key Usage: 
                TLS Web Client Authentication
            X509v3 Key Usage: 
                Digital Signature
    Signature Algorithm: sha256WithRSAEncryption
         4d:d3:02:09:44:a7:d1:10:3e:bd:5f:9a:d8:72:01:4a:9e:eb:
         17:d6:af:d4:2a:87:1f:92:92:39:f9:9c:ef:c6:11:37:ba:ac:
         f4:c4:d8:a5:93:d5:df:bd:85:dc:9b:a5:61:7d:eb:27:cc:87:
         3a:35:e2:95:3c:ac:e8:eb:d3:80:da:de:66:ed:f6:b4:2b:4d:
         3f:1b:71:63:04:09:65:03:a8:b3:0e:f5:52:53:a6:3e:3f:de:
         6b:e8:fa:97:bd:65:91:c3:98:32:e0:f9:52:9f:6c:3d:0e:14:
         38:6d:73:db:9e:2c:4c:ee:cc:84:4f:ab:c1:7b:01:80:ef:ad:
         34:9d:06:4f:41:09:8b:d2:bd:13:4f:56:6b:c0:75:e8:97:de:
         c4:c6:10:2d:2e:0e:6a:88:b7:c1:f5:45:70:17:f7:13:ba:74:
         86:30:1d:10:84:18:e6:9d:3b:6c:ed:f4:ce:f6:75:f1:f6:bb:
         0b:bc:a4:c0:74:a7:fd:14:76:51:9c:72:3b:e5:51:ab:eb:19:
         5d:0e:61:75:54:0c:0f:15:80:52:87:24:8d:77:63:e7:c4:44:
         84:e3:21:26:01:a9:93:28:f0:cf:be:36:0a:bc:81:26:48:6a:
         f4:39:62:af:23:47:64:12:ec:c4:2d:26:49:cd:4b:b0:7d:4d:
         00:2e:6e:01
-----BEGIN CERTIFICATE-----
MIIFLzCCBBegAwIBAgIQVksEEz8h+/uo5wiu4DEoMDANBgkqhkiG9w0BAQsFADCB
rzELMAkGA1UEBhMCVVMxEzARBgNVBAgMCkNhbGlmb3JuaWExFjAUBgNVBAcMDVNh
biBGcmFuY2lzY28xIDAeBgNVBAoMF0NvcHlsZWZ0IENlcnRpZmljYXRlIENvMR8w
HQYDVQQLDBZNeSBPcmdhbml6YXRpb25hbCBVbml0MREwDwYDVQQDDAhDaGFuZ2VN
ZTEdMBsGCSqGSIb3DQEJARYObWVAZXhhbXBsZS5uZXQwHhcNMjMxMTExMDE1ODU5
WhcNMjQxMTEwMDE1ODU5WjCBuzELMAkGA1UEBhMCVVMxCzAJBgNVBAgMAk9IMRMw
EQYDVQQHDApDaW5jaW5uYXRpMSEwHwYDVQQKDBhVbml2ZXJzaXR5IG9mIENpbmNp
bm5hdGkxKjAoBgNVBAsMIURlcHQuIEVsZWMuIENvbXAuIEVuZy4gQ29tcC4gU2Np
LjERMA8GA1UEAwwIY2xpZW50MTQxKDAmBgkqhkiG9w0BCQEWGWZyYW5jb0BnYXVz
cy5lY2Vjcy51Yy5lZHUwggEiMA0GCSqGSIb3DQEBAQUAA4IBDwAwggEKAoIBAQDH
1QcdRStekzcmqt/am0gtFUtWyiVILvb7RWFzjqkKKwhuYTlNyFTJWeUKx9s1sypV
mCOWXDLpQAGnBl3TLmcXfC5B5ZxivWpHZsE8XjRIR3jDlxxFEaO3CtM4TBoRszAC
Muh8BByFwxagIBNnVswR2SKCKphgliD/973tdjq2NdnE/s/skqRjPYhBsCtyKY40
68gxLy6O9Xurf+SdRD5Pxz41GAgMmSJJDrd6GMXgN9sprF5D8Z1bDBm+D6p7zEyK
QIDGFFPr++Sv4CQm2N5ON24cdOUV+M2DO/wKtvg02GgoiCHcUGXV+TAOQwFu6Qhq
409S6q4VlcmyV/CwA1AXAgMBAAGjggE3MIIBMzAJBgNVHRMEAjAAMB0GA1UdDgQW
BBSdEm0kns4wY+l9UXuKi8Bc3NWuczCB5AYDVR0jBIHcMIHZgBR7D5MWZJ9xQdMb
++1qcJvKLnDwS6GBtaSBsjCBrzELMAkGA1UEBhMCVVMxEzARBgNVBAgMCkNhbGlm
b3JuaWExFjAUBgNVBAcMDVNhbiBGcmFuY2lzY28xIDAeBgNVBAoMF0NvcHlsZWZ0
IENlcnRpZmljYXRlIENvMR8wHQYDVQQLDBZNeSBPcmdhbml6YXRpb25hbCBVbml0
MREwDwYDVQQDDAhDaGFuZ2VNZTEdMBsGCSqGSIb3DQEJARYObWVAZXhhbXBsZS5u
ZXSCCQC58k4sebPUbDATBgNVHSUEDDAKBggrBgEFBQcDAjALBgNVHQ8EBAMCB4Aw
DQYJKoZIhvcNAQELBQADggEBAE3TAglEp9EQPr1fmthyAUqe6xfWr9Qqhx+Skjn5
nO/GETe6rPTE2KWT1d+9hdybpWF96yfMhzo14pU8rOjr04Da3mbt9rQrTT8bcWME
CWUDqLMO9VJTpj4/3mvo+pe9ZZHDmDLg+VKfbD0OFDhtc9ueLEzuzIRPq8F7AYDv
rTSdBk9BCYvSvRNPVmvAdeiX3sTGEC0uDmqIt8H1RXAX9xO6dIYwHRCEGOadO2zt
9M72dfH2uwu8pMB0p/0UdlGccjvlUavrGV0OYXVUDA8VgFKHJI13Y+fERITjISYB
qZMo8M++Ngq8gSZIavQ5Yq8jR2QS7MQtJknNS7B9TQAubgE=
-----END CERTIFICATE-----
