Certificate:
    Data:
        Version: 3 (0x2)
        Serial Number:
            56:9b:ae:9c:bf:8a:31:10:ea:cc:dd:18:d8:ca:79:96
    Signature Algorithm: sha256WithRSAEncryption
        Issuer: C=US, ST=California, L=San Francisco, O=Copyleft Certificate Co, OU=My Organizational Unit, CN=ChangeMe/emailAddress=me@example.net
        Validity
            Not Before: Nov 11 18:50:40 2023 GMT
            Not After : Nov 10 18:50:40 2024 GMT
        Subject: C=US, ST=OH, L=Cincinnati, O=University of Cincinnati ., OU=Dept. Elec. Comp. . Eng. Comp. Sci., CN=client11/emailAddress=franco@gauss.ececs.uc.edu
        Subject Public Key Info:
            Public Key Algorithm: rsaEncryption
                Public-Key: (2048 bit)
                Modulus:
                    00:ea:5c:7d:6b:b2:6f:f1:3e:f3:e0:e1:f5:6e:c3:
                    6e:fa:06:cd:39:34:9e:49:75:55:a1:0b:e8:fe:a3:
                    8b:9d:f1:01:ed:61:d6:d1:cf:0e:7f:a3:31:0b:6e:
                    7b:c0:5c:ed:92:b5:de:cd:84:6e:8d:e2:f2:90:2f:
                    ca:65:20:95:9d:64:36:15:1c:c2:ab:c5:34:1d:50:
                    e0:1c:5d:de:f3:a7:30:19:1d:0c:e6:df:94:d5:be:
                    43:5e:5a:1f:1f:31:60:bd:36:b9:f9:b0:02:98:b0:
                    83:c0:1f:d0:bd:c7:c3:a0:23:7f:fa:4e:fc:9b:5c:
                    c3:95:f1:72:04:f3:ed:80:d4:55:80:4b:3b:b0:ac:
                    43:9f:2a:b9:82:18:8b:94:94:f8:fe:3b:76:e3:9d:
                    8a:f9:58:96:41:bd:3e:b7:95:83:53:87:2d:da:5f:
                    ed:38:0a:ed:ff:4d:39:6e:18:ea:94:a3:d3:20:04:
                    f8:e0:de:86:4f:10:de:25:70:ec:f3:a8:4a:aa:15:
                    dc:5d:89:58:6b:f3:85:ab:f2:14:c7:c4:f6:e9:99:
                    72:55:0b:6c:63:e4:f7:eb:94:7b:84:43:11:ca:44:
                    90:a8:08:41:6d:da:62:c8:e5:77:45:62:24:90:e8:
                    80:7e:0a:de:3f:5c:da:18:9b:13:ef:f9:13:cf:33:
                    91:e7
                Exponent: 65537 (0x10001)
        X509v3 extensions:
            X509v3 Basic Constraints: 
                CA:FALSE
            X509v3 Subject Key Identifier: 
                83:86:51:E6:18:96:23:01:44:79:4E:F7:C6:89:2E:4F:FE:C8:E4:60
            X509v3 Authority Key Identifier: 
                keyid:9C:0E:D5:A3:16:6F:C8:23:88:D1:12:C9:63:5D:18:D9:C9:FC:5B:E9
                DirName:/C=US/ST=California/L=San Francisco/O=Copyleft Certificate Co/OU=My Organizational Unit/CN=ChangeMe/emailAddress=me@example.net
                serial:A3:08:26:80:D2:47:98:75

            X509v3 Extended Key Usage: 
                TLS Web Client Authentication
            X509v3 Key Usage: 
                Digital Signature
    Signature Algorithm: sha256WithRSAEncryption
         42:e8:3e:31:56:a5:89:f5:ce:ea:fa:f6:28:e1:ce:14:f9:02:
         7f:48:49:15:74:e4:d7:e5:2b:8d:2a:52:1e:65:8d:23:a8:6c:
         00:50:91:b4:20:92:2f:f6:da:0f:f5:7e:97:37:7a:19:65:18:
         ad:71:1d:c9:d3:53:e2:3d:f0:d3:e6:0a:b5:fb:3a:6f:75:5e:
         08:0c:a9:96:11:06:06:ed:ed:1c:59:ce:39:f6:c0:44:9b:b8:
         7c:39:b8:3a:ca:4d:44:aa:18:b5:0e:57:72:92:d4:94:db:5c:
         36:2e:3e:0f:60:03:1b:18:27:39:8b:31:f5:7e:cc:4b:85:36:
         80:be:e8:37:45:84:3a:0e:e6:a5:41:e3:e9:70:67:fc:46:9e:
         a6:3d:26:db:f6:5c:eb:ee:56:87:83:d5:e7:3d:83:92:c1:d3:
         34:a6:44:40:7a:84:e2:a2:20:d6:fd:43:28:1b:62:98:65:14:
         5f:ae:15:e1:94:89:4b:07:5b:79:21:8b:e6:43:02:43:6f:d0:
         43:b3:41:ac:7f:5f:4e:4a:b6:d4:83:ff:1c:17:57:ee:1c:72:
         b3:ef:a1:17:bd:3a:85:28:39:fc:16:cf:b8:1e:c3:0c:96:59:
         b4:95:80:fa:50:a4:d7:75:9a:eb:4d:d0:ce:7b:b7:62:cd:d2:
         e9:61:04:d0
-----BEGIN CERTIFICATE-----
MIIFMzCCBBugAwIBAgIQVpuunL+KMRDqzN0Y2Mp5ljANBgkqhkiG9w0BAQsFADCB
rzELMAkGA1UEBhMCVVMxEzARBgNVBAgMCkNhbGlmb3JuaWExFjAUBgNVBAcMDVNh
biBGcmFuY2lzY28xIDAeBgNVBAoMF0NvcHlsZWZ0IENlcnRpZmljYXRlIENvMR8w
HQYDVQQLDBZNeSBPcmdhbml6YXRpb25hbCBVbml0MREwDwYDVQQDDAhDaGFuZ2VN
ZTEdMBsGCSqGSIb3DQEJARYObWVAZXhhbXBsZS5uZXQwHhcNMjMxMTExMTg1MDQw
WhcNMjQxMTEwMTg1MDQwWjCBvzELMAkGA1UEBhMCVVMxCzAJBgNVBAgMAk9IMRMw
EQYDVQQHDApDaW5jaW5uYXRpMSMwIQYDVQQKDBpVbml2ZXJzaXR5IG9mIENpbmNp
bm5hdGkgLjEsMCoGA1UECwwjRGVwdC4gRWxlYy4gQ29tcC4gLiBFbmcuIENvbXAu
IFNjaS4xETAPBgNVBAMMCGNsaWVudDExMSgwJgYJKoZIhvcNAQkBFhlmcmFuY29A
Z2F1c3MuZWNlY3MudWMuZWR1MIIBIjANBgkqhkiG9w0BAQEFAAOCAQ8AMIIBCgKC
AQEA6lx9a7Jv8T7z4OH1bsNu+gbNOTSeSXVVoQvo/qOLnfEB7WHW0c8Of6MxC257
wFztkrXezYRujeLykC/KZSCVnWQ2FRzCq8U0HVDgHF3e86cwGR0M5t+U1b5DXlof
HzFgvTa5+bACmLCDwB/QvcfDoCN/+k78m1zDlfFyBPPtgNRVgEs7sKxDnyq5ghiL
lJT4/jt2452K+ViWQb0+t5WDU4ct2l/tOArt/005bhjqlKPTIAT44N6GTxDeJXDs
86hKqhXcXYlYa/OFq/IUx8T26ZlyVQtsY+T365R7hEMRykSQqAhBbdpiyOV3RWIk
kOiAfgreP1zaGJsT7/kTzzOR5wIDAQABo4IBNzCCATMwCQYDVR0TBAIwADAdBgNV
HQ4EFgQUg4ZR5hiWIwFEeU73xokuT/7I5GAwgeQGA1UdIwSB3DCB2YAUnA7VoxZv
yCOI0RLJY10Y2cn8W+mhgbWkgbIwga8xCzAJBgNVBAYTAlVTMRMwEQYDVQQIDApD
YWxpZm9ybmlhMRYwFAYDVQQHDA1TYW4gRnJhbmNpc2NvMSAwHgYDVQQKDBdDb3B5
bGVmdCBDZXJ0aWZpY2F0ZSBDbzEfMB0GA1UECwwWTXkgT3JnYW5pemF0aW9uYWwg
VW5pdDERMA8GA1UEAwwIQ2hhbmdlTWUxHTAbBgkqhkiG9w0BCQEWDm1lQGV4YW1w
bGUubmV0ggkAowgmgNJHmHUwEwYDVR0lBAwwCgYIKwYBBQUHAwIwCwYDVR0PBAQD
AgeAMA0GCSqGSIb3DQEBCwUAA4IBAQBC6D4xVqWJ9c7q+vYo4c4U+QJ/SEkVdOTX
5SuNKlIeZY0jqGwAUJG0IJIv9toP9X6XN3oZZRitcR3J01PiPfDT5gq1+zpvdV4I
DKmWEQYG7e0cWc459sBEm7h8Obg6yk1Eqhi1DldyktSU21w2Lj4PYAMbGCc5izH1
fsxLhTaAvug3RYQ6DualQePpcGf8Rp6mPSbb9lzr7laHg9XnPYOSwdM0pkRAeoTi
oiDW/UMoG2KYZRRfrhXhlIlLB1t5IYvmQwJDb9BDs0Gsf19OSrbUg/8cF1fuHHKz
76EXvTqFKDn8Fs+4HsMMllm0lYD6UKTXdZrrTdDOe7dizdLpYQTQ
-----END CERTIFICATE-----
