Certificate:
    Data:
        Version: 3 (0x2)
        Serial Number:
            57:67:dd:72:91:d0:a3:4a:41:05:50:92:5e:13:86:8b
    Signature Algorithm: sha256WithRSAEncryption
        Issuer: C=US, ST=California, L=San Francisco, O=Copyleft Certificate Co, OU=My Organizational Unit, CN=ChangeMe/emailAddress=me@example.net
        Validity
            Not Before: Nov 13 11:48:38 2023 GMT
            Not After : Nov 12 11:48:38 2024 GMT
        Subject: C=US, ST=OH, L=Cincinnati, O=University of Cincinnati, OU=Dept. Elec. Comp. Eng. Comp. Sci., CN=client33/emailAddress=franco@gauss.ececs.uc.edu
        Subject Public Key Info:
            Public Key Algorithm: rsaEncryption
                Public-Key: (2048 bit)
                Modulus:
                    00:a3:f6:9b:98:e2:59:dc:14:5e:10:9c:3b:b1:0c:
                    a1:be:eb:73:d5:2b:42:5d:fa:b1:d1:4c:b6:75:aa:
                    2d:d6:83:86:56:d2:24:a8:0a:a5:4e:9e:b5:f9:38:
                    f4:79:90:98:f3:95:2a:d3:39:d7:d4:2c:a4:dd:a2:
                    91:00:4c:a1:d4:6f:21:ff:54:54:23:ef:10:9f:63:
                    ba:7b:45:59:ed:a1:68:ed:03:db:ea:24:2e:8d:44:
                    25:4c:f6:c0:9b:d2:5d:5f:2f:da:b6:a3:40:5a:c6:
                    4a:a0:ce:41:d2:0d:19:46:44:0b:57:09:93:1e:c8:
                    2e:32:f9:49:3a:56:b6:18:33:a2:55:e4:90:9e:37:
                    34:7c:71:7a:05:55:4a:15:4b:df:bf:c2:22:26:4a:
                    38:e2:49:09:84:31:26:22:c1:05:f3:1e:92:df:32:
                    2d:fe:d3:33:cc:ee:e1:67:85:d7:01:8e:f3:2e:7f:
                    6c:28:76:1d:6a:10:93:2b:39:d3:37:6c:0f:4e:25:
                    73:5f:c3:27:ec:f9:cf:20:3d:d0:2d:50:5c:9d:82:
                    d6:2e:f4:fd:33:39:41:f3:04:8e:f9:0f:d2:d9:1f:
                    cb:d1:aa:25:a1:00:f8:22:3e:60:a6:fa:5f:4f:65:
                    41:02:d1:24:51:aa:d4:62:90:63:a3:ef:4d:09:48:
                    93:57
                Exponent: 65537 (0x10001)
        X509v3 extensions:
            X509v3 Basic Constraints: 
                CA:FALSE
            X509v3 Subject Key Identifier: 
                5E:FE:44:F6:3E:3F:EB:15:07:7A:B4:37:1B:2C:E0:3B:05:CD:88:F6
            X509v3 Authority Key Identifier: 
                keyid:B4:AE:AB:ED:FC:ED:84:AA:AD:77:5D:7C:84:28:1C:CA:CE:AE:2A:44
                DirName:/C=US/ST=California/L=San Francisco/O=Copyleft Certificate Co/OU=My Organizational Unit/CN=ChangeMe/emailAddress=me@example.net
                serial:BD:6C:3B:F4:D3:07:C9:D1

            X509v3 Extended Key Usage: 
                TLS Web Client Authentication
            X509v3 Key Usage: 
                Digital Signature
    Signature Algorithm: sha256WithRSAEncryption
         0d:9e:c1:8f:58:45:45:33:58:1d:18:ed:7d:cf:67:9e:39:0c:
         5d:d6:f5:c6:2f:39:be:c0:63:4b:4d:7b:84:db:a0:38:f7:4a:
         ff:d5:fe:dd:9f:91:3b:61:9c:d6:f1:f2:fd:94:7c:39:96:59:
         1d:a6:ee:61:6a:7a:82:62:8b:89:70:89:94:e3:0f:ab:24:39:
         08:e9:b6:53:99:88:d2:1f:fa:73:34:e5:17:29:81:f2:1b:3f:
         30:61:d5:bd:36:f8:fb:1f:fd:3d:1f:6e:4a:13:9c:93:e7:5c:
         27:ba:fe:9a:64:82:15:39:a4:d5:61:03:22:7e:39:14:77:af:
         e1:64:8a:9a:ae:2b:92:c2:35:bd:32:fb:de:98:48:3b:8e:dd:
         ff:2b:14:19:e6:68:57:cd:f7:58:46:77:da:21:90:f7:2b:e7:
         a8:c1:cf:12:aa:27:06:55:c4:1c:2a:5f:fd:2c:af:39:24:ee:
         79:fe:0e:bc:bd:78:a4:e2:af:d8:2a:ba:a8:b0:2a:de:e6:97:
         83:a8:87:d4:53:0b:8f:bd:f0:96:b4:94:0b:fa:fe:c0:79:37:
         5d:3e:f5:c7:13:00:fd:3b:c4:6b:0c:20:5f:86:76:6e:89:f8:
         01:1c:09:86:b3:f8:8a:b5:b1:52:48:02:69:40:d9:6c:30:a9:
         50:ad:f6:61
-----BEGIN CERTIFICATE-----
MIIFLzCCBBegAwIBAgIQV2fdcpHQo0pBBVCSXhOGizANBgkqhkiG9w0BAQsFADCB
rzELMAkGA1UEBhMCVVMxEzARBgNVBAgMCkNhbGlmb3JuaWExFjAUBgNVBAcMDVNh
biBGcmFuY2lzY28xIDAeBgNVBAoMF0NvcHlsZWZ0IENlcnRpZmljYXRlIENvMR8w
HQYDVQQLDBZNeSBPcmdhbml6YXRpb25hbCBVbml0MREwDwYDVQQDDAhDaGFuZ2VN
ZTEdMBsGCSqGSIb3DQEJARYObWVAZXhhbXBsZS5uZXQwHhcNMjMxMTEzMTE0ODM4
WhcNMjQxMTEyMTE0ODM4WjCBuzELMAkGA1UEBhMCVVMxCzAJBgNVBAgMAk9IMRMw
EQYDVQQHDApDaW5jaW5uYXRpMSEwHwYDVQQKDBhVbml2ZXJzaXR5IG9mIENpbmNp
bm5hdGkxKjAoBgNVBAsMIURlcHQuIEVsZWMuIENvbXAuIEVuZy4gQ29tcC4gU2Np
LjERMA8GA1UEAwwIY2xpZW50MzMxKDAmBgkqhkiG9w0BCQEWGWZyYW5jb0BnYXVz
cy5lY2Vjcy51Yy5lZHUwggEiMA0GCSqGSIb3DQEBAQUAA4IBDwAwggEKAoIBAQCj
9puY4lncFF4QnDuxDKG+63PVK0Jd+rHRTLZ1qi3Wg4ZW0iSoCqVOnrX5OPR5kJjz
lSrTOdfULKTdopEATKHUbyH/VFQj7xCfY7p7RVntoWjtA9vqJC6NRCVM9sCb0l1f
L9q2o0BaxkqgzkHSDRlGRAtXCZMeyC4y+Uk6VrYYM6JV5JCeNzR8cXoFVUoVS9+/
wiImSjjiSQmEMSYiwQXzHpLfMi3+0zPM7uFnhdcBjvMuf2wodh1qEJMrOdM3bA9O
JXNfwyfs+c8gPdAtUFydgtYu9P0zOUHzBI75D9LZH8vRqiWhAPgiPmCm+l9PZUEC
0SRRqtRikGOj700JSJNXAgMBAAGjggE3MIIBMzAJBgNVHRMEAjAAMB0GA1UdDgQW
BBRe/kT2Pj/rFQd6tDcbLOA7Bc2I9jCB5AYDVR0jBIHcMIHZgBS0rqvt/O2Eqq13
XXyEKBzKzq4qRKGBtaSBsjCBrzELMAkGA1UEBhMCVVMxEzARBgNVBAgMCkNhbGlm
b3JuaWExFjAUBgNVBAcMDVNhbiBGcmFuY2lzY28xIDAeBgNVBAoMF0NvcHlsZWZ0
IENlcnRpZmljYXRlIENvMR8wHQYDVQQLDBZNeSBPcmdhbml6YXRpb25hbCBVbml0
MREwDwYDVQQDDAhDaGFuZ2VNZTEdMBsGCSqGSIb3DQEJARYObWVAZXhhbXBsZS5u
ZXSCCQC9bDv00wfJ0TATBgNVHSUEDDAKBggrBgEFBQcDAjALBgNVHQ8EBAMCB4Aw
DQYJKoZIhvcNAQELBQADggEBAA2ewY9YRUUzWB0Y7X3PZ545DF3W9cYvOb7AY0tN
e4TboDj3Sv/V/t2fkTthnNbx8v2UfDmWWR2m7mFqeoJii4lwiZTjD6skOQjptlOZ
iNIf+nM05RcpgfIbPzBh1b02+Psf/T0fbkoTnJPnXCe6/ppkghU5pNVhAyJ+ORR3
r+FkipquK5LCNb0y+96YSDuO3f8rFBnmaFfN91hGd9ohkPcr56jBzxKqJwZVxBwq
X/0srzkk7nn+Dry9eKTir9gquqiwKt7ml4Ooh9RTC4+98Ja0lAv6/sB5N10+9ccT
AP07xGsMIF+Gdm6J+AEcCYaz+Iq1sVJIAmlA2WwwqVCt9mE=
-----END CERTIFICATE-----
