Certificate:
    Data:
        Version: 3 (0x2)
        Serial Number:
            57:bb:a7:99:c1:99:fe:b4:84:1e:9a:85:fe:63:07:a8
    Signature Algorithm: sha256WithRSAEncryption
        Issuer: C=US, ST=California, L=San Francisco, O=Copyleft Certificate Co, OU=My Organizational Unit, CN=ChangeMe/emailAddress=me@example.net
        Validity
            Not Before: Nov 12 11:49:19 2023 GMT
            Not After : Nov 11 11:49:19 2024 GMT
        Subject: C=US, ST=OH, L=Cincinnati, O=University of Cincinnati, OU=Dept. Elec. Comp. Eng. Comp. Sci., CN=client46/emailAddress=franco@gauss.ececs.uc.edu
        Subject Public Key Info:
            Public Key Algorithm: rsaEncryption
                Public-Key: (2048 bit)
                Modulus:
                    00:cf:de:07:d7:a1:05:36:7e:57:d6:a2:87:a4:ff:
                    07:b5:a6:13:f0:dd:cf:ee:ba:12:a6:14:a6:3e:68:
                    a4:ce:f7:44:9f:d5:b6:85:94:53:47:7b:24:73:c7:
                    9d:92:b0:23:ee:4d:2f:3f:b3:ca:77:6d:5b:9b:20:
                    52:36:38:f2:14:ae:c5:a1:bd:ec:b3:ae:8e:9b:ad:
                    e8:74:a3:eb:59:b6:59:b6:ed:29:42:ce:ea:d0:a1:
                    ec:65:95:48:58:f6:f5:ce:78:14:a3:a4:f2:71:a4:
                    bd:45:2c:b8:ce:fb:1d:bf:75:54:cd:da:0e:c3:18:
                    7f:82:99:39:21:5c:f1:6c:3c:41:02:4d:82:de:d7:
                    b1:e7:f3:37:07:9f:44:0e:31:da:ca:d7:e4:ac:6d:
                    c5:5d:6e:7d:c1:ca:92:38:a4:71:bb:1d:3d:83:cb:
                    c3:81:98:66:a9:97:e5:fb:1e:8e:a9:a1:6d:aa:43:
                    92:e8:aa:11:87:c5:35:c5:ef:bf:6a:29:87:00:05:
                    3a:de:d4:c0:18:de:ae:90:e0:36:b3:c6:cc:9e:e9:
                    d7:5d:99:a3:27:62:cb:87:8c:ec:dd:5e:ac:a0:71:
                    8d:25:92:b6:52:fb:41:b7:e1:2c:e6:1d:38:a9:10:
                    12:f7:91:be:72:0b:bf:19:96:11:9d:46:33:7b:0f:
                    8f:09
                Exponent: 65537 (0x10001)
        X509v3 extensions:
            X509v3 Basic Constraints: 
                CA:FALSE
            X509v3 Subject Key Identifier: 
                86:37:FD:3D:45:B3:B3:2F:56:79:C3:45:D0:F8:42:5C:34:03:49:C2
            X509v3 Authority Key Identifier: 
                keyid:C4:46:F2:96:38:56:02:B8:9D:09:04:52:25:91:35:97:6A:D7:B1:F0
                DirName:/C=US/ST=California/L=San Francisco/O=Copyleft Certificate Co/OU=My Organizational Unit/CN=ChangeMe/emailAddress=me@example.net
                serial:D1:5A:15:1C:F0:20:95:62

            X509v3 Extended Key Usage: 
                TLS Web Client Authentication
            X509v3 Key Usage: 
                Digital Signature
    Signature Algorithm: sha256WithRSAEncryption
         7f:d9:ad:08:e4:42:23:1f:d1:cb:60:e6:80:0d:12:09:fe:3a:
         57:96:fc:b9:61:af:39:be:35:2a:8b:0a:6a:e4:cb:a5:93:db:
         e2:67:df:58:c2:b0:9d:32:d4:53:71:ee:2f:08:31:51:ec:be:
         a2:ae:16:ab:ff:a3:d7:02:40:7a:10:3c:c4:71:3b:fc:ea:28:
         e3:1a:65:de:1f:31:60:df:6d:45:4e:73:69:ee:4d:f4:db:ac:
         44:b8:d6:d4:b5:b0:9f:70:f4:eb:38:85:94:25:af:c8:66:b3:
         ca:ec:6c:03:75:92:4f:3e:bd:c2:46:02:ba:5b:51:93:74:18:
         90:e7:24:86:cc:9f:98:1d:51:47:70:dc:4f:f8:df:32:63:af:
         0e:fe:10:f2:d0:e7:4b:26:63:19:36:3b:4a:fa:f4:da:fc:a0:
         fe:0a:d4:44:03:c3:4a:5f:f2:48:34:11:fa:90:13:6b:ef:d6:
         4c:d9:98:be:fc:dc:17:41:46:70:f6:34:ee:3f:b7:9b:ff:99:
         63:c0:b4:05:51:28:dc:74:b4:64:9e:f1:fd:24:af:9c:14:e7:
         d4:8e:d5:b6:a9:93:de:6b:05:74:9d:1b:09:a9:9f:37:43:11:
         4e:a9:d5:84:5d:14:d4:73:ec:2b:1b:e7:d4:da:90:9e:e5:84:
         52:08:f9:45
-----BEGIN CERTIFICATE-----
MIIFLzCCBBegAwIBAgIQV7unmcGZ/rSEHpqF/mMHqDANBgkqhkiG9w0BAQsFADCB
rzELMAkGA1UEBhMCVVMxEzARBgNVBAgMCkNhbGlmb3JuaWExFjAUBgNVBAcMDVNh
biBGcmFuY2lzY28xIDAeBgNVBAoMF0NvcHlsZWZ0IENlcnRpZmljYXRlIENvMR8w
HQYDVQQLDBZNeSBPcmdhbml6YXRpb25hbCBVbml0MREwDwYDVQQDDAhDaGFuZ2VN
ZTEdMBsGCSqGSIb3DQEJARYObWVAZXhhbXBsZS5uZXQwHhcNMjMxMTEyMTE0OTE5
WhcNMjQxMTExMTE0OTE5WjCBuzELMAkGA1UEBhMCVVMxCzAJBgNVBAgMAk9IMRMw
EQYDVQQHDApDaW5jaW5uYXRpMSEwHwYDVQQKDBhVbml2ZXJzaXR5IG9mIENpbmNp
bm5hdGkxKjAoBgNVBAsMIURlcHQuIEVsZWMuIENvbXAuIEVuZy4gQ29tcC4gU2Np
LjERMA8GA1UEAwwIY2xpZW50NDYxKDAmBgkqhkiG9w0BCQEWGWZyYW5jb0BnYXVz
cy5lY2Vjcy51Yy5lZHUwggEiMA0GCSqGSIb3DQEBAQUAA4IBDwAwggEKAoIBAQDP
3gfXoQU2flfWooek/we1phPw3c/uuhKmFKY+aKTO90Sf1baFlFNHeyRzx52SsCPu
TS8/s8p3bVubIFI2OPIUrsWhveyzro6breh0o+tZtlm27SlCzurQoexllUhY9vXO
eBSjpPJxpL1FLLjO+x2/dVTN2g7DGH+CmTkhXPFsPEECTYLe17Hn8zcHn0QOMdrK
1+SsbcVdbn3BypI4pHG7HT2Dy8OBmGapl+X7Ho6poW2qQ5LoqhGHxTXF779qKYcA
BTre1MAY3q6Q4Dazxsye6dddmaMnYsuHjOzdXqygcY0lkrZS+0G34SzmHTipEBL3
kb5yC78ZlhGdRjN7D48JAgMBAAGjggE3MIIBMzAJBgNVHRMEAjAAMB0GA1UdDgQW
BBSGN/09RbOzL1Z5w0XQ+EJcNANJwjCB5AYDVR0jBIHcMIHZgBTERvKWOFYCuJ0J
BFIlkTWXatex8KGBtaSBsjCBrzELMAkGA1UEBhMCVVMxEzARBgNVBAgMCkNhbGlm
b3JuaWExFjAUBgNVBAcMDVNhbiBGcmFuY2lzY28xIDAeBgNVBAoMF0NvcHlsZWZ0
IENlcnRpZmljYXRlIENvMR8wHQYDVQQLDBZNeSBPcmdhbml6YXRpb25hbCBVbml0
MREwDwYDVQQDDAhDaGFuZ2VNZTEdMBsGCSqGSIb3DQEJARYObWVAZXhhbXBsZS5u
ZXSCCQDRWhUc8CCVYjATBgNVHSUEDDAKBggrBgEFBQcDAjALBgNVHQ8EBAMCB4Aw
DQYJKoZIhvcNAQELBQADggEBAH/ZrQjkQiMf0ctg5oANEgn+OleW/Llhrzm+NSqL
Cmrky6WT2+Jn31jCsJ0y1FNx7i8IMVHsvqKuFqv/o9cCQHoQPMRxO/zqKOMaZd4f
MWDfbUVOc2nuTfTbrES41tS1sJ9w9Os4hZQlr8hms8rsbAN1kk8+vcJGArpbUZN0
GJDnJIbMn5gdUUdw3E/43zJjrw7+EPLQ50smYxk2O0r69Nr8oP4K1EQDw0pf8kg0
EfqQE2vv1kzZmL783BdBRnD2NO4/t5v/mWPAtAVRKNx0tGSe8f0kr5wU59SO1bap
k95rBXSdGwmpnzdDEU6p1YRdFNRz7Csb59TakJ7lhFII+UU=
-----END CERTIFICATE-----
