Certificate:
    Data:
        Version: 3 (0x2)
        Serial Number:
            63:0f:13:f7:d4:dd:d1:ba:c3:f7:c8:53:aa:a2:aa:40
    Signature Algorithm: sha256WithRSAEncryption
        Issuer: C=US, ST=California, L=San Francisco, O=Copyleft Certificate Co, OU=My Organizational Unit, CN=ChangeMe/emailAddress=me@example.net
        Validity
            Not Before: Nov 11 18:52:00 2023 GMT
            Not After : Nov 10 18:52:00 2024 GMT
        Subject: C=US, ST=OH, L=Cincinnati, O=University of Cincinnati ., OU=Dept. Elec. Comp. . Eng. Comp. Sci., CN=client31/emailAddress=franco@gauss.ececs.uc.edu
        Subject Public Key Info:
            Public Key Algorithm: rsaEncryption
                Public-Key: (2048 bit)
                Modulus:
                    00:c7:92:2b:18:4e:9f:f6:49:97:c2:d9:13:37:ba:
                    c2:30:c7:a4:a5:49:dc:bb:34:9b:7b:c4:dd:33:1e:
                    e5:b7:a2:a7:24:a0:bf:d0:ee:5e:14:cf:bd:eb:b0:
                    98:92:b8:21:66:a3:22:f3:76:f3:be:9d:7a:e9:a1:
                    d3:5a:14:f6:a9:48:c9:4a:65:46:da:6e:0b:15:0e:
                    a9:11:69:6e:54:0b:ae:41:23:50:22:54:1c:15:5c:
                    60:30:18:71:03:ac:bc:51:6f:5d:67:84:18:35:57:
                    bd:8b:65:2c:41:39:d6:32:4b:71:d5:fa:9f:45:e8:
                    a6:09:bd:de:e6:ab:07:bc:06:0b:fd:9b:fe:ca:e2:
                    51:7d:f0:3e:16:49:b3:c8:a7:1a:1d:69:9b:e8:c5:
                    7e:67:03:fc:a8:67:7d:5a:10:63:b5:15:2d:7e:93:
                    b4:43:78:7b:66:8e:69:f2:02:5b:a7:c7:b1:d3:eb:
                    fb:af:60:cb:55:97:8f:e6:f7:4c:6a:f4:e0:12:66:
                    fc:ae:dc:6b:2b:f5:05:82:64:d5:ec:e7:eb:61:2a:
                    97:e5:0c:24:78:88:c4:8a:aa:2a:cd:2c:dc:59:cd:
                    4e:b1:f6:5f:4a:49:21:de:df:65:a7:1c:3c:2b:0e:
                    80:2f:5a:0a:38:1b:ec:9e:c0:9b:62:e6:21:45:5d:
                    2f:65
                Exponent: 65537 (0x10001)
        X509v3 extensions:
            X509v3 Basic Constraints: 
                CA:FALSE
            X509v3 Subject Key Identifier: 
                FE:D4:22:5D:21:0D:20:5A:07:88:41:83:33:56:7B:D9:7E:C1:9B:B3
            X509v3 Authority Key Identifier: 
                keyid:9C:0E:D5:A3:16:6F:C8:23:88:D1:12:C9:63:5D:18:D9:C9:FC:5B:E9
                DirName:/C=US/ST=California/L=San Francisco/O=Copyleft Certificate Co/OU=My Organizational Unit/CN=ChangeMe/emailAddress=me@example.net
                serial:A3:08:26:80:D2:47:98:75

            X509v3 Extended Key Usage: 
                TLS Web Client Authentication
            X509v3 Key Usage: 
                Digital Signature
    Signature Algorithm: sha256WithRSAEncryption
         90:3f:98:41:f2:5a:7c:33:5e:d9:53:b6:6a:bc:cb:8a:ee:0d:
         be:f1:92:67:1c:d1:8a:1a:ce:64:ac:34:b9:32:d6:79:a1:75:
         ef:a0:a9:0f:c9:e3:d6:8c:12:a7:7e:ac:7a:80:17:ef:64:ec:
         1a:90:b8:83:47:62:72:80:d7:4d:b4:9e:fd:03:6f:c7:20:d1:
         f6:2b:2e:21:cf:ab:b0:8a:dd:19:10:c4:6c:64:f2:bd:50:b8:
         61:54:49:2f:b0:f8:6e:e8:e1:10:32:08:4d:50:85:7d:a5:03:
         8e:d6:16:51:c5:a7:e6:21:62:57:56:2a:1e:cb:14:b3:92:98:
         39:ce:28:af:aa:c9:8d:cd:66:ed:a5:13:ee:03:39:ec:a4:61:
         3f:55:f6:c5:e7:50:8c:9d:cb:05:4b:0d:c2:42:5f:4a:a0:f7:
         2e:76:9a:33:9d:95:d4:3a:c6:9f:f3:f9:0d:de:41:b8:6f:cf:
         d9:8f:3f:0a:45:08:bb:ba:64:45:48:ae:b4:4c:af:3d:7a:8b:
         32:fb:21:42:f2:ea:ae:02:bf:b2:e0:8a:13:85:9f:0f:8f:1a:
         e3:ea:3c:25:50:b1:43:8b:ab:2a:6c:37:c4:0a:4f:07:4d:2c:
         97:45:a3:d1:a2:4d:8a:77:f6:b9:d0:8e:1e:eb:4a:1e:2b:ca:
         6e:b2:c2:f9
-----BEGIN CERTIFICATE-----
MIIFMzCCBBugAwIBAgIQYw8T99Td0brD98hTqqKqQDANBgkqhkiG9w0BAQsFADCB
rzELMAkGA1UEBhMCVVMxEzARBgNVBAgMCkNhbGlmb3JuaWExFjAUBgNVBAcMDVNh
biBGcmFuY2lzY28xIDAeBgNVBAoMF0NvcHlsZWZ0IENlcnRpZmljYXRlIENvMR8w
HQYDVQQLDBZNeSBPcmdhbml6YXRpb25hbCBVbml0MREwDwYDVQQDDAhDaGFuZ2VN
ZTEdMBsGCSqGSIb3DQEJARYObWVAZXhhbXBsZS5uZXQwHhcNMjMxMTExMTg1MjAw
WhcNMjQxMTEwMTg1MjAwWjCBvzELMAkGA1UEBhMCVVMxCzAJBgNVBAgMAk9IMRMw
EQYDVQQHDApDaW5jaW5uYXRpMSMwIQYDVQQKDBpVbml2ZXJzaXR5IG9mIENpbmNp
bm5hdGkgLjEsMCoGA1UECwwjRGVwdC4gRWxlYy4gQ29tcC4gLiBFbmcuIENvbXAu
IFNjaS4xETAPBgNVBAMMCGNsaWVudDMxMSgwJgYJKoZIhvcNAQkBFhlmcmFuY29A
Z2F1c3MuZWNlY3MudWMuZWR1MIIBIjANBgkqhkiG9w0BAQEFAAOCAQ8AMIIBCgKC
AQEAx5IrGE6f9kmXwtkTN7rCMMekpUncuzSbe8TdMx7lt6KnJKC/0O5eFM+967CY
krghZqMi83bzvp166aHTWhT2qUjJSmVG2m4LFQ6pEWluVAuuQSNQIlQcFVxgMBhx
A6y8UW9dZ4QYNVe9i2UsQTnWMktx1fqfReimCb3e5qsHvAYL/Zv+yuJRffA+Fkmz
yKcaHWmb6MV+ZwP8qGd9WhBjtRUtfpO0Q3h7Zo5p8gJbp8ex0+v7r2DLVZeP5vdM
avTgEmb8rtxrK/UFgmTV7OfrYSqX5QwkeIjEiqoqzSzcWc1OsfZfSkkh3t9lpxw8
Kw6AL1oKOBvsnsCbYuYhRV0vZQIDAQABo4IBNzCCATMwCQYDVR0TBAIwADAdBgNV
HQ4EFgQU/tQiXSENIFoHiEGDM1Z72X7Bm7MwgeQGA1UdIwSB3DCB2YAUnA7VoxZv
yCOI0RLJY10Y2cn8W+mhgbWkgbIwga8xCzAJBgNVBAYTAlVTMRMwEQYDVQQIDApD
YWxpZm9ybmlhMRYwFAYDVQQHDA1TYW4gRnJhbmNpc2NvMSAwHgYDVQQKDBdDb3B5
bGVmdCBDZXJ0aWZpY2F0ZSBDbzEfMB0GA1UECwwWTXkgT3JnYW5pemF0aW9uYWwg
VW5pdDERMA8GA1UEAwwIQ2hhbmdlTWUxHTAbBgkqhkiG9w0BCQEWDm1lQGV4YW1w
bGUubmV0ggkAowgmgNJHmHUwEwYDVR0lBAwwCgYIKwYBBQUHAwIwCwYDVR0PBAQD
AgeAMA0GCSqGSIb3DQEBCwUAA4IBAQCQP5hB8lp8M17ZU7ZqvMuK7g2+8ZJnHNGK
Gs5krDS5MtZ5oXXvoKkPyePWjBKnfqx6gBfvZOwakLiDR2JygNdNtJ79A2/HINH2
Ky4hz6uwit0ZEMRsZPK9ULhhVEkvsPhu6OEQMghNUIV9pQOO1hZRxafmIWJXVioe
yxSzkpg5ziivqsmNzWbtpRPuAznspGE/VfbF51CMncsFSw3CQl9KoPcudpoznZXU
Osaf8/kN3kG4b8/Zjz8KRQi7umRFSK60TK89eosy+yFC8uquAr+y4IoThZ8Pjxrj
6jwlULFDi6sqbDfECk8HTSyXRaPRok2Kd/a50I4e60oeK8pussL5
-----END CERTIFICATE-----
