Certificate:
    Data:
        Version: 3 (0x2)
        Serial Number:
            64:92:4d:85:71:79:15:c4:78:32:ae:7a:cd:0e:b9:30
    Signature Algorithm: sha256WithRSAEncryption
        Issuer: C=US, ST=California, L=San Francisco, O=Copyleft Certificate Co, OU=My Organizational Unit, CN=ChangeMe/emailAddress=me@example.net
        Validity
            Not Before: Nov 12 11:48:43 2023 GMT
            Not After : Nov 11 11:48:43 2024 GMT
        Subject: C=US, ST=OH, L=Cincinnati, O=University of Cincinnati, OU=Dept. Elec. Comp. Eng. Comp. Sci., CN=client37/emailAddress=franco@gauss.ececs.uc.edu
        Subject Public Key Info:
            Public Key Algorithm: rsaEncryption
                Public-Key: (2048 bit)
                Modulus:
                    00:d0:f2:cc:49:df:16:0b:9c:d9:07:11:ae:1d:5e:
                    f3:21:70:f6:fd:00:c0:2d:26:51:b0:0c:31:e1:5c:
                    61:e5:cc:69:83:1e:3e:a9:5c:00:0b:5f:08:eb:0b:
                    c7:38:5a:3e:ed:44:9a:ca:b5:df:78:f4:da:6f:ba:
                    cd:00:72:90:43:25:92:d0:58:c2:78:d8:31:27:f4:
                    13:45:ba:72:3c:2e:ac:4f:cb:68:52:3e:7b:56:d9:
                    8b:21:e3:32:c0:af:49:08:4d:64:b6:32:69:30:02:
                    51:60:bb:2c:0f:fb:c7:78:03:e8:f6:ce:51:b4:12:
                    c3:bc:aa:16:3e:22:62:10:7b:03:6d:c8:46:c4:ac:
                    4c:4c:5a:82:84:42:da:9b:78:f3:04:cb:e4:cc:f5:
                    4f:bb:45:ca:b3:03:0b:85:11:67:53:4f:aa:d0:32:
                    e4:04:b3:db:e2:7f:cf:ca:db:5b:1b:7d:b3:c2:f6:
                    b9:4b:c2:7d:8f:84:b9:81:ce:a4:01:39:7c:1f:ec:
                    d8:3c:01:bf:b2:75:4b:b3:a0:be:0e:37:5a:03:68:
                    9c:b0:75:5f:a5:36:d4:5a:43:8b:76:12:13:c7:fc:
                    a6:d6:7c:25:5c:e2:5c:e1:a0:01:55:06:89:9e:36:
                    39:82:52:b7:62:66:39:a3:f0:04:d1:28:f1:2f:7b:
                    52:f3
                Exponent: 65537 (0x10001)
        X509v3 extensions:
            X509v3 Basic Constraints: 
                CA:FALSE
            X509v3 Subject Key Identifier: 
                27:B3:C1:56:68:90:D0:C4:95:A6:6F:D1:A1:DA:D1:94:2D:56:A8:82
            X509v3 Authority Key Identifier: 
                keyid:C4:46:F2:96:38:56:02:B8:9D:09:04:52:25:91:35:97:6A:D7:B1:F0
                DirName:/C=US/ST=California/L=San Francisco/O=Copyleft Certificate Co/OU=My Organizational Unit/CN=ChangeMe/emailAddress=me@example.net
                serial:D1:5A:15:1C:F0:20:95:62

            X509v3 Extended Key Usage: 
                TLS Web Client Authentication
            X509v3 Key Usage: 
                Digital Signature
    Signature Algorithm: sha256WithRSAEncryption
         47:f0:91:fe:47:10:b9:b7:61:2b:1b:80:13:87:3a:c7:d0:67:
         9e:67:4e:9f:81:61:17:ed:2d:fe:df:47:4a:5e:71:6d:d9:ad:
         4d:3f:1e:69:1c:99:ef:92:7e:c9:b0:f1:19:ad:71:fb:ed:55:
         a1:02:24:aa:b0:f0:3b:e3:e3:b0:bd:fb:1e:fc:ee:20:c2:a3:
         51:02:7f:24:14:2d:89:4f:b8:a2:e0:ce:ae:37:83:8a:8d:46:
         db:f4:d3:f2:d7:0f:a6:fa:b9:e3:f7:72:ef:62:90:9b:32:71:
         46:45:cf:7d:32:3f:89:f4:ad:a7:ab:86:fc:30:4e:71:30:34:
         40:18:83:a2:f8:43:39:a7:8f:c2:07:61:a4:6e:46:38:b1:4c:
         d9:b5:b2:6c:6a:e1:47:60:1a:2b:95:b1:31:75:af:b8:f4:a1:
         3a:20:37:c5:5e:74:e4:aa:7d:df:bd:af:47:8c:07:3c:a2:eb:
         3f:b3:9e:1f:af:2b:e4:b8:04:ab:15:54:32:cb:ba:54:b7:07:
         3f:77:5e:fa:88:95:d8:6a:50:ee:ef:04:ab:91:c7:b1:4c:ac:
         63:94:97:e2:0d:50:16:68:37:37:c7:36:e3:a7:04:74:db:e5:
         54:15:e1:c7:f4:e1:e5:ff:57:19:5a:44:3d:68:66:e4:fe:b0:
         b5:0c:f0:57
-----BEGIN CERTIFICATE-----
MIIFLzCCBBegAwIBAgIQZJJNhXF5FcR4Mq56zQ65MDANBgkqhkiG9w0BAQsFADCB
rzELMAkGA1UEBhMCVVMxEzARBgNVBAgMCkNhbGlmb3JuaWExFjAUBgNVBAcMDVNh
biBGcmFuY2lzY28xIDAeBgNVBAoMF0NvcHlsZWZ0IENlcnRpZmljYXRlIENvMR8w
HQYDVQQLDBZNeSBPcmdhbml6YXRpb25hbCBVbml0MREwDwYDVQQDDAhDaGFuZ2VN
ZTEdMBsGCSqGSIb3DQEJARYObWVAZXhhbXBsZS5uZXQwHhcNMjMxMTEyMTE0ODQz
WhcNMjQxMTExMTE0ODQzWjCBuzELMAkGA1UEBhMCVVMxCzAJBgNVBAgMAk9IMRMw
EQYDVQQHDApDaW5jaW5uYXRpMSEwHwYDVQQKDBhVbml2ZXJzaXR5IG9mIENpbmNp
bm5hdGkxKjAoBgNVBAsMIURlcHQuIEVsZWMuIENvbXAuIEVuZy4gQ29tcC4gU2Np
LjERMA8GA1UEAwwIY2xpZW50MzcxKDAmBgkqhkiG9w0BCQEWGWZyYW5jb0BnYXVz
cy5lY2Vjcy51Yy5lZHUwggEiMA0GCSqGSIb3DQEBAQUAA4IBDwAwggEKAoIBAQDQ
8sxJ3xYLnNkHEa4dXvMhcPb9AMAtJlGwDDHhXGHlzGmDHj6pXAALXwjrC8c4Wj7t
RJrKtd949Npvus0AcpBDJZLQWMJ42DEn9BNFunI8LqxPy2hSPntW2Ysh4zLAr0kI
TWS2MmkwAlFguywP+8d4A+j2zlG0EsO8qhY+ImIQewNtyEbErExMWoKEQtqbePME
y+TM9U+7RcqzAwuFEWdTT6rQMuQEs9vif8/K21sbfbPC9rlLwn2PhLmBzqQBOXwf
7Ng8Ab+ydUuzoL4ON1oDaJywdV+lNtRaQ4t2EhPH/KbWfCVc4lzhoAFVBomeNjmC
UrdiZjmj8ATRKPEve1LzAgMBAAGjggE3MIIBMzAJBgNVHRMEAjAAMB0GA1UdDgQW
BBQns8FWaJDQxJWmb9Gh2tGULVaogjCB5AYDVR0jBIHcMIHZgBTERvKWOFYCuJ0J
BFIlkTWXatex8KGBtaSBsjCBrzELMAkGA1UEBhMCVVMxEzARBgNVBAgMCkNhbGlm
b3JuaWExFjAUBgNVBAcMDVNhbiBGcmFuY2lzY28xIDAeBgNVBAoMF0NvcHlsZWZ0
IENlcnRpZmljYXRlIENvMR8wHQYDVQQLDBZNeSBPcmdhbml6YXRpb25hbCBVbml0
MREwDwYDVQQDDAhDaGFuZ2VNZTEdMBsGCSqGSIb3DQEJARYObWVAZXhhbXBsZS5u
ZXSCCQDRWhUc8CCVYjATBgNVHSUEDDAKBggrBgEFBQcDAjALBgNVHQ8EBAMCB4Aw
DQYJKoZIhvcNAQELBQADggEBAEfwkf5HELm3YSsbgBOHOsfQZ55nTp+BYRftLf7f
R0pecW3ZrU0/Hmkcme+Sfsmw8RmtcfvtVaECJKqw8Dvj47C9+x787iDCo1ECfyQU
LYlPuKLgzq43g4qNRtv00/LXD6b6ueP3cu9ikJsycUZFz30yP4n0raerhvwwTnEw
NEAYg6L4Qzmnj8IHYaRuRjixTNm1smxq4UdgGiuVsTF1r7j0oTogN8VedOSqfd+9
r0eMBzyi6z+znh+vK+S4BKsVVDLLulS3Bz93XvqIldhqUO7vBKuRx7FMrGOUl+IN
UBZoNzfHNuOnBHTb5VQV4cf04eX/VxlaRD1oZuT+sLUM8Fc=
-----END CERTIFICATE-----
