Certificate:
    Data:
        Version: 3 (0x2)
        Serial Number:
            65:d7:a2:ba:be:58:a5:d3:93:30:1c:04:c4:5f:f9:b5
    Signature Algorithm: sha256WithRSAEncryption
        Issuer: C=US, ST=California, L=San Francisco, O=Copyleft Certificate Co, OU=My Organizational Unit, CN=ChangeMe/emailAddress=me@example.net
        Validity
            Not Before: Nov 11 18:52:24 2023 GMT
            Not After : Nov 10 18:52:24 2024 GMT
        Subject: C=US, ST=OH, L=Cincinnati, O=University of Cincinnati ., OU=Dept. Elec. Comp. . Eng. Comp. Sci., CN=client37/emailAddress=franco@gauss.ececs.uc.edu
        Subject Public Key Info:
            Public Key Algorithm: rsaEncryption
                Public-Key: (2048 bit)
                Modulus:
                    00:ec:ce:e1:b6:27:1a:c1:6c:46:a4:a2:80:e7:c2:
                    d7:b9:64:02:8c:31:db:07:8a:95:de:39:90:83:17:
                    d0:24:1f:44:4f:9c:ae:94:75:33:98:99:64:22:d0:
                    3f:8d:71:c1:1c:6f:4f:b0:65:93:ba:95:f1:0c:9a:
                    0c:78:03:39:ff:9b:b4:6f:5c:bd:b2:07:16:10:1f:
                    58:77:74:02:81:6e:23:f5:e2:47:04:35:07:1f:5a:
                    0e:c6:dd:b1:c7:61:d9:11:06:f8:fb:68:3d:f3:29:
                    73:cb:9e:33:0e:96:90:d8:89:61:89:34:f8:81:89:
                    46:0f:33:c9:59:4a:8f:e7:78:da:a0:66:2f:fb:19:
                    f4:d4:4f:a7:73:98:77:3e:22:33:1c:ae:e3:cb:fc:
                    6b:09:35:73:18:1b:89:ac:b3:46:60:7d:08:b1:ec:
                    c6:f3:15:32:e9:3d:20:ac:03:a2:95:67:da:fb:95:
                    d3:f6:c3:4c:df:6f:3a:11:41:32:fe:00:0c:f0:6f:
                    d1:27:bd:3a:58:ca:e5:25:48:ab:5f:a6:cb:e3:85:
                    9f:62:36:ed:d5:d8:38:51:35:8a:e0:6d:a5:9f:d9:
                    9f:a2:39:d2:4a:34:5a:17:c5:6d:27:c0:3a:c4:1f:
                    b8:e0:a8:95:54:7c:05:24:0e:7a:ee:ab:e0:07:53:
                    14:67
                Exponent: 65537 (0x10001)
        X509v3 extensions:
            X509v3 Basic Constraints: 
                CA:FALSE
            X509v3 Subject Key Identifier: 
                D4:6B:2E:16:F8:AD:94:DC:F8:FB:83:D8:F0:CF:E8:52:7D:00:3B:10
            X509v3 Authority Key Identifier: 
                keyid:9C:0E:D5:A3:16:6F:C8:23:88:D1:12:C9:63:5D:18:D9:C9:FC:5B:E9
                DirName:/C=US/ST=California/L=San Francisco/O=Copyleft Certificate Co/OU=My Organizational Unit/CN=ChangeMe/emailAddress=me@example.net
                serial:A3:08:26:80:D2:47:98:75

            X509v3 Extended Key Usage: 
                TLS Web Client Authentication
            X509v3 Key Usage: 
                Digital Signature
    Signature Algorithm: sha256WithRSAEncryption
         54:39:b0:df:43:34:f0:59:46:d8:4c:b5:34:cb:b8:db:d7:25:
         5c:fa:b0:ca:95:24:89:bd:2d:db:f8:32:fd:48:02:99:59:88:
         a0:34:2f:4c:99:e8:6e:e9:de:23:7e:c6:97:26:f5:bd:2c:db:
         8f:1d:85:19:70:90:a2:df:b8:8e:e1:bf:11:76:de:f8:f2:13:
         51:49:f3:4d:c3:e1:07:fe:89:4e:26:c4:dc:f1:ae:28:c2:30:
         46:58:4f:69:d0:b8:03:d4:73:eb:80:f5:a9:c9:89:36:cf:2f:
         32:d3:e6:e2:69:c9:ff:d2:ed:39:5c:6c:7b:97:eb:7e:02:f9:
         5f:4e:e2:53:7c:b2:f3:06:c7:46:64:9e:8b:8f:9a:15:68:b9:
         bb:66:bb:fd:02:06:13:0b:1a:ef:20:7b:7b:51:34:8a:bf:62:
         98:ac:27:3f:55:b5:41:d1:5d:4d:e0:58:fb:37:7a:81:07:a7:
         6d:96:26:d9:fb:a3:52:e7:00:cb:7b:21:b4:b7:e9:ad:8f:5c:
         f9:e6:1c:06:65:27:ef:6b:d3:9b:42:79:42:20:d3:13:b8:d1:
         dd:6c:02:33:ea:d5:70:3e:bc:1a:23:e3:1f:34:14:5c:ac:c2:
         06:41:0c:e5:66:41:6d:52:83:af:22:b6:d4:7d:aa:98:54:7d:
         7b:83:50:9e
-----BEGIN CERTIFICATE-----
MIIFMzCCBBugAwIBAgIQZdeiur5YpdOTMBwExF/5tTANBgkqhkiG9w0BAQsFADCB
rzELMAkGA1UEBhMCVVMxEzARBgNVBAgMCkNhbGlmb3JuaWExFjAUBgNVBAcMDVNh
biBGcmFuY2lzY28xIDAeBgNVBAoMF0NvcHlsZWZ0IENlcnRpZmljYXRlIENvMR8w
HQYDVQQLDBZNeSBPcmdhbml6YXRpb25hbCBVbml0MREwDwYDVQQDDAhDaGFuZ2VN
ZTEdMBsGCSqGSIb3DQEJARYObWVAZXhhbXBsZS5uZXQwHhcNMjMxMTExMTg1MjI0
WhcNMjQxMTEwMTg1MjI0WjCBvzELMAkGA1UEBhMCVVMxCzAJBgNVBAgMAk9IMRMw
EQYDVQQHDApDaW5jaW5uYXRpMSMwIQYDVQQKDBpVbml2ZXJzaXR5IG9mIENpbmNp
bm5hdGkgLjEsMCoGA1UECwwjRGVwdC4gRWxlYy4gQ29tcC4gLiBFbmcuIENvbXAu
IFNjaS4xETAPBgNVBAMMCGNsaWVudDM3MSgwJgYJKoZIhvcNAQkBFhlmcmFuY29A
Z2F1c3MuZWNlY3MudWMuZWR1MIIBIjANBgkqhkiG9w0BAQEFAAOCAQ8AMIIBCgKC
AQEA7M7hticawWxGpKKA58LXuWQCjDHbB4qV3jmQgxfQJB9ET5yulHUzmJlkItA/
jXHBHG9PsGWTupXxDJoMeAM5/5u0b1y9sgcWEB9Yd3QCgW4j9eJHBDUHH1oOxt2x
x2HZEQb4+2g98ylzy54zDpaQ2IlhiTT4gYlGDzPJWUqP53jaoGYv+xn01E+nc5h3
PiIzHK7jy/xrCTVzGBuJrLNGYH0IsezG8xUy6T0grAOilWfa+5XT9sNM3286EUEy
/gAM8G/RJ706WMrlJUirX6bL44WfYjbt1dg4UTWK4G2ln9mfojnSSjRaF8VtJ8A6
xB+44KiVVHwFJA567qvgB1MUZwIDAQABo4IBNzCCATMwCQYDVR0TBAIwADAdBgNV
HQ4EFgQU1GsuFvitlNz4+4PY8M/oUn0AOxAwgeQGA1UdIwSB3DCB2YAUnA7VoxZv
yCOI0RLJY10Y2cn8W+mhgbWkgbIwga8xCzAJBgNVBAYTAlVTMRMwEQYDVQQIDApD
YWxpZm9ybmlhMRYwFAYDVQQHDA1TYW4gRnJhbmNpc2NvMSAwHgYDVQQKDBdDb3B5
bGVmdCBDZXJ0aWZpY2F0ZSBDbzEfMB0GA1UECwwWTXkgT3JnYW5pemF0aW9uYWwg
VW5pdDERMA8GA1UEAwwIQ2hhbmdlTWUxHTAbBgkqhkiG9w0BCQEWDm1lQGV4YW1w
bGUubmV0ggkAowgmgNJHmHUwEwYDVR0lBAwwCgYIKwYBBQUHAwIwCwYDVR0PBAQD
AgeAMA0GCSqGSIb3DQEBCwUAA4IBAQBUObDfQzTwWUbYTLU0y7jb1yVc+rDKlSSJ
vS3b+DL9SAKZWYigNC9Mmehu6d4jfsaXJvW9LNuPHYUZcJCi37iO4b8Rdt748hNR
SfNNw+EH/olOJsTc8a4owjBGWE9p0LgD1HPrgPWpyYk2zy8y0+biacn/0u05XGx7
l+t+AvlfTuJTfLLzBsdGZJ6Lj5oVaLm7Zrv9AgYTCxrvIHt7UTSKv2KYrCc/VbVB
0V1N4Fj7N3qBB6dtlibZ+6NS5wDLeyG0t+mtj1z55hwGZSfva9ObQnlCINMTuNHd
bAIz6tVwPrwaI+MfNBRcrMIGQQzlZkFtUoOvIrbUfaqYVH17g1Ce
-----END CERTIFICATE-----
