Certificate:
    Data:
        Version: 3 (0x2)
        Serial Number:
            67:f8:3e:7b:34:32:7b:4d:b0:f4:9e:f1:0a:04
    Signature Algorithm: sha256WithRSAEncryption
        Issuer: C=US, ST=California, L=San Francisco, O=Copyleft Certificate Co, OU=My Organizational Unit, CN=ChangeMe/emailAddress=me@example.net
        Validity
            Not Before: Jan 23 18:29:38 2021 GMT
            Not After : Jan 23 18:29:38 2022 GMT
        Subject: C=US, ST=OH, L=Cincinnati, O=University of Cincinnati, OU=Dept. Electrical Eng. and Computer Sci., CN=client101/emailAddress=franco@gauss.ececs.uc.edu
        Subject Public Key Info:
            Public Key Algorithm: rsaEncryption
                Public-Key: (2048 bit)
                Modulus:
                    00:cc:4f:21:42:df:7b:7f:c3:d8:20:63:bb:83:bf:
                    8a:e6:ba:d7:2c:71:2d:1b:50:b8:90:ee:ca:87:bb:
                    73:81:fa:5d:43:f5:bd:6c:53:f2:57:86:68:eb:09:
                    96:af:6d:ea:74:c5:d4:82:44:11:e0:f3:1c:85:77:
                    ed:fb:38:45:d1:51:fd:0b:d8:6a:9e:c8:c5:ba:15:
                    0a:cc:7e:71:f1:a4:fd:e8:c3:43:ab:c9:77:63:ba:
                    17:92:4b:55:08:44:28:ff:8c:31:c4:df:b1:82:1d:
                    df:d9:b1:a1:66:66:ac:5e:34:d4:e5:95:e3:a5:4b:
                    44:c7:64:13:36:0e:44:38:5c:e9:0b:02:b1:58:b6:
                    8d:9d:e0:cf:71:1b:a0:0e:04:33:ff:fb:76:6b:62:
                    ed:26:9c:8b:02:a2:d1:2d:fa:d0:a2:9c:58:81:d7:
                    cb:02:33:ef:bc:a2:5c:4b:6f:a3:52:38:b0:6c:bf:
                    b0:4b:22:34:a0:74:f4:34:cb:82:8b:e4:af:ad:41:
                    2c:9a:d5:dd:ff:e6:0b:7b:52:1c:5a:a3:33:cb:b2:
                    fd:77:4b:0a:eb:85:24:ec:ee:19:e4:d7:71:4e:5a:
                    bb:f9:18:2a:c9:59:7f:18:38:8a:f8:1b:c0:36:08:
                    5a:2d:84:1f:77:1b:32:df:5d:64:dc:08:24:48:e6:
                    e2:9b
                Exponent: 65537 (0x10001)
        X509v3 extensions:
            X509v3 Basic Constraints: 
                CA:FALSE
            X509v3 Subject Key Identifier: 
                0B:84:AF:AC:F0:B5:15:47:10:99:DB:D1:10:71:A5:6C:B8:FD:C4:33
            X509v3 Authority Key Identifier: 
                keyid:EF:DC:B6:3D:4B:FD:A7:87:05:C5:22:3D:8B:DC:BF:99:2A:EE:E4:DB
                DirName:/C=US/ST=California/L=San Francisco/O=Copyleft Certificate Co/OU=My Organizational Unit/CN=ChangeMe/emailAddress=me@example.net
                serial:87:1E:1D:DC:6B:8C:66:88

            X509v3 Extended Key Usage: 
                TLS Web Client Authentication
            X509v3 Key Usage: 
                Digital Signature
    Signature Algorithm: sha256WithRSAEncryption
         54:52:80:06:2a:8c:4b:08:6c:92:f9:25:0e:28:9e:99:79:fc:
         86:40:05:34:1f:82:62:c3:5a:b4:d3:43:ee:5f:36:ce:48:5d:
         43:7d:b6:eb:9d:71:e7:d4:16:20:7a:2a:87:3f:cf:38:7e:91:
         23:c7:8f:52:05:8d:15:b6:fd:be:3a:d0:59:23:63:02:f0:06:
         6c:35:9b:7d:f4:d1:3a:95:09:09:9e:e4:cb:d6:24:4c:9f:7b:
         00:c5:68:18:e0:a6:15:97:80:55:a1:ec:0d:cd:f3:4c:4c:c0:
         92:5e:5b:7f:ca:5b:99:2a:32:f7:e7:15:3a:0b:31:77:f0:77:
         fb:fc:e8:0e:22:78:ac:f2:f6:68:f3:8c:ce:0d:4f:33:93:b1:
         64:97:be:a9:95:c9:01:c8:29:ad:af:ef:f0:e2:a7:40:60:68:
         4c:ea:40:65:59:26:20:f0:48:9e:7c:c2:1a:12:d4:d0:d0:7a:
         d0:c9:5f:b8:b0:34:c1:4c:da:f4:87:c8:62:17:9b:fb:3b:b5:
         70:54:19:1b:91:c8:95:64:f8:76:91:2d:66:d1:3d:67:ab:e2:
         1e:fb:fb:cc:74:ec:f8:b2:bf:6d:5e:54:81:b0:22:5a:a4:f4:
         c5:07:66:be:20:70:d1:8c:0c:a3:b3:41:f4:20:02:da:15:f5:
         a9:57:ec:4c
-----BEGIN CERTIFICATE-----
MIIFNDCCBBygAwIBAgIOZ/g+ezQye02w9J7xCgQwDQYJKoZIhvcNAQELBQAwga8x
CzAJBgNVBAYTAlVTMRMwEQYDVQQIDApDYWxpZm9ybmlhMRYwFAYDVQQHDA1TYW4g
RnJhbmNpc2NvMSAwHgYDVQQKDBdDb3B5bGVmdCBDZXJ0aWZpY2F0ZSBDbzEfMB0G
A1UECwwWTXkgT3JnYW5pemF0aW9uYWwgVW5pdDERMA8GA1UEAwwIQ2hhbmdlTWUx
HTAbBgkqhkiG9w0BCQEWDm1lQGV4YW1wbGUubmV0MB4XDTIxMDEyMzE4MjkzOFoX
DTIyMDEyMzE4MjkzOFowgcIxCzAJBgNVBAYTAlVTMQswCQYDVQQIDAJPSDETMBEG
A1UEBwwKQ2luY2lubmF0aTEhMB8GA1UECgwYVW5pdmVyc2l0eSBvZiBDaW5jaW5u
YXRpMTAwLgYDVQQLDCdEZXB0LiBFbGVjdHJpY2FsIEVuZy4gYW5kIENvbXB1dGVy
IFNjaS4xEjAQBgNVBAMMCWNsaWVudDEwMTEoMCYGCSqGSIb3DQEJARYZZnJhbmNv
QGdhdXNzLmVjZWNzLnVjLmVkdTCCASIwDQYJKoZIhvcNAQEBBQADggEPADCCAQoC
ggEBAMxPIULfe3/D2CBju4O/iua61yxxLRtQuJDuyoe7c4H6XUP1vWxT8leGaOsJ
lq9t6nTF1IJEEeDzHIV37fs4RdFR/QvYap7IxboVCsx+cfGk/ejDQ6vJd2O6F5JL
VQhEKP+MMcTfsYId39mxoWZmrF401OWV46VLRMdkEzYORDhc6QsCsVi2jZ3gz3Eb
oA4EM//7dmti7SaciwKi0S360KKcWIHXywIz77yiXEtvo1I4sGy/sEsiNKB09DTL
govkr61BLJrV3f/mC3tSHFqjM8uy/XdLCuuFJOzuGeTXcU5au/kYKslZfxg4ivgb
wDYIWi2EH3cbMt9dZNwIJEjm4psCAwEAAaOCATcwggEzMAkGA1UdEwQCMAAwHQYD
VR0OBBYEFAuEr6zwtRVHEJnb0RBxpWy4/cQzMIHkBgNVHSMEgdwwgdmAFO/ctj1L
/aeHBcUiPYvcv5kq7uTboYG1pIGyMIGvMQswCQYDVQQGEwJVUzETMBEGA1UECAwK
Q2FsaWZvcm5pYTEWMBQGA1UEBwwNU2FuIEZyYW5jaXNjbzEgMB4GA1UECgwXQ29w
eWxlZnQgQ2VydGlmaWNhdGUgQ28xHzAdBgNVBAsMFk15IE9yZ2FuaXphdGlvbmFs
IFVuaXQxETAPBgNVBAMMCENoYW5nZU1lMR0wGwYJKoZIhvcNAQkBFg5tZUBleGFt
cGxlLm5ldIIJAIceHdxrjGaIMBMGA1UdJQQMMAoGCCsGAQUFBwMCMAsGA1UdDwQE
AwIHgDANBgkqhkiG9w0BAQsFAAOCAQEAVFKABiqMSwhskvklDiiemXn8hkAFNB+C
YsNatNND7l82zkhdQ322651x59QWIHoqhz/POH6RI8ePUgWNFbb9vjrQWSNjAvAG
bDWbffTROpUJCZ7ky9YkTJ97AMVoGOCmFZeAVaHsDc3zTEzAkl5bf8pbmSoy9+cV
Ogsxd/B3+/zoDiJ4rPL2aPOMzg1PM5OxZJe+qZXJAcgpra/v8OKnQGBoTOpAZVkm
IPBInnzCGhLU0NB60MlfuLA0wUza9IfIYheb+zu1cFQZG5HIlWT4dpEtZtE9Z6vi
Hvv7zHTs+LK/bV5UgbAiWqT0xQdmviBw0YwMo7NB9CAC2hX1qVfsTA==
-----END CERTIFICATE-----
