Certificate:
    Data:
        Version: 3 (0x2)
        Serial Number:
            69:fa:cc:ed:03:8d:f2:b3:d7:87:bb:1d:ec:80:e1:5d
    Signature Algorithm: sha256WithRSAEncryption
        Issuer: C=US, ST=California, L=San Francisco, O=Copyleft Certificate Co, OU=My Organizational Unit, CN=ChangeMe/emailAddress=me@example.net
        Validity
            Not Before: Jan 23 18:30:25 2021 GMT
            Not After : Jan 23 18:30:25 2022 GMT
        Subject: C=US, ST=OH, L=Cincinnati, O=University of Cincinnati, OU=Dept. Electrical Eng. and Computer Sci., CN=client134/emailAddress=franco@gauss.ececs.uc.edu
        Subject Public Key Info:
            Public Key Algorithm: rsaEncryption
                Public-Key: (2048 bit)
                Modulus:
                    00:b6:4c:43:8a:90:4c:4a:f2:8a:43:42:53:5a:54:
                    cb:bd:ad:fc:c9:79:46:b4:2a:05:90:ae:b6:1b:c3:
                    4c:bd:c0:95:a7:ca:f7:a0:73:a6:e0:01:6e:0c:46:
                    9f:e4:d3:14:c2:88:79:8e:6e:fa:f2:02:bd:54:76:
                    94:7d:97:05:37:6f:98:24:90:6d:83:50:49:ef:8d:
                    36:b1:2d:0b:05:8f:dd:4d:b1:c1:70:82:b4:2d:65:
                    e4:41:20:54:65:a6:94:df:97:52:10:e7:2e:0b:4e:
                    17:c9:fd:4d:b2:19:ef:da:fd:db:e2:ca:5d:c9:7c:
                    fb:f1:54:a7:7d:c1:6a:65:08:c8:9b:1e:66:d8:ad:
                    55:e4:25:0a:c1:3d:b4:61:df:bb:46:20:c1:3e:23:
                    5e:22:79:44:c2:d7:02:56:72:81:7d:41:22:38:82:
                    5e:58:bc:bf:33:e1:27:3c:bd:63:8b:c6:80:f2:43:
                    8c:db:fd:89:fa:f8:0e:1f:de:30:b8:0a:0a:61:cb:
                    34:79:65:93:22:47:d2:00:1b:cc:74:5c:a0:a1:c5:
                    2e:db:6c:53:07:a6:17:b7:45:e1:7f:d9:fa:d8:da:
                    64:7b:09:4a:e5:bb:89:1c:67:57:31:30:d2:60:bf:
                    0e:93:7a:57:ba:4e:fc:37:89:46:d9:1e:6f:8f:66:
                    27:97
                Exponent: 65537 (0x10001)
        X509v3 extensions:
            X509v3 Basic Constraints: 
                CA:FALSE
            X509v3 Subject Key Identifier: 
                6B:AC:7C:B9:2B:FD:7A:7A:6B:F9:FE:B6:41:F2:51:56:78:DF:7A:99
            X509v3 Authority Key Identifier: 
                keyid:EF:DC:B6:3D:4B:FD:A7:87:05:C5:22:3D:8B:DC:BF:99:2A:EE:E4:DB
                DirName:/C=US/ST=California/L=San Francisco/O=Copyleft Certificate Co/OU=My Organizational Unit/CN=ChangeMe/emailAddress=me@example.net
                serial:87:1E:1D:DC:6B:8C:66:88

            X509v3 Extended Key Usage: 
                TLS Web Client Authentication
            X509v3 Key Usage: 
                Digital Signature
    Signature Algorithm: sha256WithRSAEncryption
         a8:12:d5:66:2b:cf:32:b2:4c:f7:fb:c3:dd:a6:ea:f0:cf:97:
         d9:75:b3:4c:47:a6:72:42:9e:ed:7e:f9:4d:b7:fb:dd:dd:f0:
         c1:2d:fa:70:06:16:17:4b:af:49:ac:ef:93:3c:3e:22:f0:17:
         1e:40:48:a3:6e:b8:36:d3:66:d3:ff:dd:af:81:bf:7f:2c:f4:
         41:5d:11:11:b6:b6:88:5b:33:d8:a5:04:05:34:fd:29:2c:8e:
         61:5a:97:ee:12:cc:0c:db:f6:4d:1f:51:e8:87:76:df:b8:25:
         c1:9b:9b:c6:dc:b2:3e:5b:40:42:bf:34:07:8e:76:06:ff:f4:
         5c:e8:ff:6c:c2:e3:29:73:5b:bb:75:21:3e:d1:f6:91:77:ec:
         31:3c:7e:95:f7:6e:9a:01:0a:54:a5:e9:3b:93:e5:5c:b2:ab:
         42:be:d8:ea:95:be:90:e6:35:3d:2a:53:72:96:f1:97:96:c5:
         99:b8:86:bd:57:be:01:4f:c8:9f:80:0d:98:91:64:67:23:82:
         e1:b6:aa:d5:7c:35:6b:92:71:75:a6:5d:79:95:58:d5:bc:60:
         95:71:67:fd:4a:52:b4:3f:b2:53:8b:37:0b:33:6a:15:85:23:
         de:36:6b:0d:f7:53:5a:3b:99:4c:e7:2c:d7:ce:de:26:ab:1c:
         8b:ca:e6:0b
-----BEGIN CERTIFICATE-----
MIIFNjCCBB6gAwIBAgIQafrM7QON8rPXh7sd7IDhXTANBgkqhkiG9w0BAQsFADCB
rzELMAkGA1UEBhMCVVMxEzARBgNVBAgMCkNhbGlmb3JuaWExFjAUBgNVBAcMDVNh
biBGcmFuY2lzY28xIDAeBgNVBAoMF0NvcHlsZWZ0IENlcnRpZmljYXRlIENvMR8w
HQYDVQQLDBZNeSBPcmdhbml6YXRpb25hbCBVbml0MREwDwYDVQQDDAhDaGFuZ2VN
ZTEdMBsGCSqGSIb3DQEJARYObWVAZXhhbXBsZS5uZXQwHhcNMjEwMTIzMTgzMDI1
WhcNMjIwMTIzMTgzMDI1WjCBwjELMAkGA1UEBhMCVVMxCzAJBgNVBAgMAk9IMRMw
EQYDVQQHDApDaW5jaW5uYXRpMSEwHwYDVQQKDBhVbml2ZXJzaXR5IG9mIENpbmNp
bm5hdGkxMDAuBgNVBAsMJ0RlcHQuIEVsZWN0cmljYWwgRW5nLiBhbmQgQ29tcHV0
ZXIgU2NpLjESMBAGA1UEAwwJY2xpZW50MTM0MSgwJgYJKoZIhvcNAQkBFhlmcmFu
Y29AZ2F1c3MuZWNlY3MudWMuZWR1MIIBIjANBgkqhkiG9w0BAQEFAAOCAQ8AMIIB
CgKCAQEAtkxDipBMSvKKQ0JTWlTLva38yXlGtCoFkK62G8NMvcCVp8r3oHOm4AFu
DEaf5NMUwoh5jm768gK9VHaUfZcFN2+YJJBtg1BJ7402sS0LBY/dTbHBcIK0LWXk
QSBUZaaU35dSEOcuC04Xyf1Nshnv2v3b4spdyXz78VSnfcFqZQjImx5m2K1V5CUK
wT20Yd+7RiDBPiNeInlEwtcCVnKBfUEiOIJeWLy/M+EnPL1ji8aA8kOM2/2J+vgO
H94wuAoKYcs0eWWTIkfSABvMdFygocUu22xTB6YXt0Xhf9n62NpkewlK5buJHGdX
MTDSYL8Ok3pXuk78N4lG2R5vj2YnlwIDAQABo4IBNzCCATMwCQYDVR0TBAIwADAd
BgNVHQ4EFgQUa6x8uSv9enpr+f62QfJRVnjfepkwgeQGA1UdIwSB3DCB2YAU79y2
PUv9p4cFxSI9i9y/mSru5NuhgbWkgbIwga8xCzAJBgNVBAYTAlVTMRMwEQYDVQQI
DApDYWxpZm9ybmlhMRYwFAYDVQQHDA1TYW4gRnJhbmNpc2NvMSAwHgYDVQQKDBdD
b3B5bGVmdCBDZXJ0aWZpY2F0ZSBDbzEfMB0GA1UECwwWTXkgT3JnYW5pemF0aW9u
YWwgVW5pdDERMA8GA1UEAwwIQ2hhbmdlTWUxHTAbBgkqhkiG9w0BCQEWDm1lQGV4
YW1wbGUubmV0ggkAhx4d3GuMZogwEwYDVR0lBAwwCgYIKwYBBQUHAwIwCwYDVR0P
BAQDAgeAMA0GCSqGSIb3DQEBCwUAA4IBAQCoEtVmK88yskz3+8Pdpurwz5fZdbNM
R6ZyQp7tfvlNt/vd3fDBLfpwBhYXS69JrO+TPD4i8BceQEijbrg202bT/92vgb9/
LPRBXRERtraIWzPYpQQFNP0pLI5hWpfuEswM2/ZNH1Hoh3bfuCXBm5vG3LI+W0BC
vzQHjnYG//Rc6P9swuMpc1u7dSE+0faRd+wxPH6V926aAQpUpek7k+VcsqtCvtjq
lb6Q5jU9KlNylvGXlsWZuIa9V74BT8ifgA2YkWRnI4LhtqrVfDVrknF1pl15lVjV
vGCVcWf9SlK0P7JTizcLM2oVhSPeNmsN91NaO5lM5yzXzt4mqxyLyuYL
-----END CERTIFICATE-----
