Certificate:
    Data:
        Version: 3 (0x2)
        Serial Number:
            6b:80:d6:c2:52:b9:b8:44:c1:9f:47:2d:70:88:fe:ba
    Signature Algorithm: sha256WithRSAEncryption
        Issuer: C=US, ST=California, L=San Francisco, O=Copyleft Certificate Co, OU=My Organizational Unit, CN=ChangeMe/emailAddress=me@example.net
        Validity
            Not Before: Jan 23 18:28:07 2021 GMT
            Not After : Jan 23 18:28:07 2022 GMT
        Subject: C=US, ST=OH, L=Cincinnati, O=University of Cincinnati, OU=Dept. Electrical Eng. and Computer Sci., CN=client36/emailAddress=franco@gauss.ececs.uc.edu
        Subject Public Key Info:
            Public Key Algorithm: rsaEncryption
                Public-Key: (2048 bit)
                Modulus:
                    00:e2:03:be:9b:7b:e3:5f:7c:9c:0c:8f:df:5a:b8:
                    32:02:2e:1d:ee:a3:ad:00:e9:f5:0a:1d:48:2e:4e:
                    e8:62:59:91:67:75:a3:a0:3b:37:29:bd:6c:71:03:
                    57:6a:6f:78:32:bf:cd:5e:08:f3:fe:66:6c:7a:77:
                    10:df:a8:7b:15:05:60:51:c1:42:46:cc:66:fb:35:
                    cd:45:5d:ae:a0:7a:82:a2:f1:94:17:40:9d:43:3b:
                    78:a9:b4:29:f0:fb:f6:31:b3:b8:96:81:ef:2a:c5:
                    cb:b7:9f:3b:da:6e:88:cb:22:c1:1b:1c:ea:cc:48:
                    62:5f:81:b8:69:a3:05:e6:dd:a3:ab:af:c3:82:c0:
                    3c:e6:7e:7e:81:e3:28:c0:9e:e1:17:c9:ac:f0:1a:
                    fd:76:22:8b:e3:d5:8a:c0:63:c1:33:e0:cd:d4:6c:
                    2e:a6:50:5b:15:6e:02:4d:24:42:27:58:84:92:6e:
                    7a:f8:80:a8:f8:5c:3d:59:60:72:00:2e:3d:68:4b:
                    ab:7c:4b:7b:5c:35:09:71:7c:f4:d4:32:ff:18:bf:
                    da:28:91:cc:a6:08:c7:1d:66:07:88:97:f3:ba:02:
                    89:1b:a6:ca:da:25:c9:46:2e:06:26:51:98:0a:ad:
                    01:31:8a:fd:60:d3:56:3d:b8:04:0e:a6:2d:38:b8:
                    d8:ab
                Exponent: 65537 (0x10001)
        X509v3 extensions:
            X509v3 Basic Constraints: 
                CA:FALSE
            X509v3 Subject Key Identifier: 
                33:A7:99:9C:D5:50:10:B8:B5:48:F4:7E:9A:B3:E5:A3:ED:87:70:46
            X509v3 Authority Key Identifier: 
                keyid:EF:DC:B6:3D:4B:FD:A7:87:05:C5:22:3D:8B:DC:BF:99:2A:EE:E4:DB
                DirName:/C=US/ST=California/L=San Francisco/O=Copyleft Certificate Co/OU=My Organizational Unit/CN=ChangeMe/emailAddress=me@example.net
                serial:87:1E:1D:DC:6B:8C:66:88

            X509v3 Extended Key Usage: 
                TLS Web Client Authentication
            X509v3 Key Usage: 
                Digital Signature
    Signature Algorithm: sha256WithRSAEncryption
         73:b7:d5:27:08:0c:72:9a:67:f2:c2:07:7c:0c:bc:21:ad:34:
         cd:80:64:d7:0e:8e:eb:68:34:5d:50:c1:e9:cc:e7:4f:76:26:
         53:8b:36:5d:e5:4b:c5:cd:5a:13:5f:04:f0:39:61:5e:65:ac:
         95:32:a6:81:df:8e:66:9b:2d:79:71:9c:66:7d:c2:7c:3e:c5:
         e7:19:39:a7:e3:9c:88:54:a9:40:ad:bb:69:39:66:f7:2c:2f:
         14:86:97:35:3c:3f:38:48:24:bf:8f:b2:c7:f4:fd:99:e8:73:
         4f:81:dc:a3:a7:6e:7a:a6:09:5c:4c:cc:82:43:be:70:87:f9:
         27:c3:22:e8:d5:52:ed:5e:41:40:83:98:e6:12:d7:e3:8e:c7:
         7e:67:b3:e9:30:6a:72:f2:5b:d9:7a:42:42:af:ad:22:39:26:
         fc:94:5e:22:45:6e:00:26:fa:6b:74:3f:c4:7f:48:48:ab:ca:
         b3:97:00:c1:8d:7d:a1:96:80:42:81:e6:3a:ea:04:62:74:96:
         f4:9f:8b:56:13:fe:56:bc:a4:4b:b8:ea:16:fb:e6:b1:25:2f:
         04:69:3f:90:9a:9f:fa:f2:41:1b:9e:b7:dc:9d:25:4c:30:96:
         4a:1a:a6:fa:d4:0a:d9:32:00:da:bb:44:0e:4e:11:22:a5:c1:
         d3:e8:7e:73
-----BEGIN CERTIFICATE-----
MIIFNTCCBB2gAwIBAgIQa4DWwlK5uETBn0ctcIj+ujANBgkqhkiG9w0BAQsFADCB
rzELMAkGA1UEBhMCVVMxEzARBgNVBAgMCkNhbGlmb3JuaWExFjAUBgNVBAcMDVNh
biBGcmFuY2lzY28xIDAeBgNVBAoMF0NvcHlsZWZ0IENlcnRpZmljYXRlIENvMR8w
HQYDVQQLDBZNeSBPcmdhbml6YXRpb25hbCBVbml0MREwDwYDVQQDDAhDaGFuZ2VN
ZTEdMBsGCSqGSIb3DQEJARYObWVAZXhhbXBsZS5uZXQwHhcNMjEwMTIzMTgyODA3
WhcNMjIwMTIzMTgyODA3WjCBwTELMAkGA1UEBhMCVVMxCzAJBgNVBAgMAk9IMRMw
EQYDVQQHDApDaW5jaW5uYXRpMSEwHwYDVQQKDBhVbml2ZXJzaXR5IG9mIENpbmNp
bm5hdGkxMDAuBgNVBAsMJ0RlcHQuIEVsZWN0cmljYWwgRW5nLiBhbmQgQ29tcHV0
ZXIgU2NpLjERMA8GA1UEAwwIY2xpZW50MzYxKDAmBgkqhkiG9w0BCQEWGWZyYW5j
b0BnYXVzcy5lY2Vjcy51Yy5lZHUwggEiMA0GCSqGSIb3DQEBAQUAA4IBDwAwggEK
AoIBAQDiA76be+NffJwMj99auDICLh3uo60A6fUKHUguTuhiWZFndaOgOzcpvWxx
A1dqb3gyv81eCPP+Zmx6dxDfqHsVBWBRwUJGzGb7Nc1FXa6geoKi8ZQXQJ1DO3ip
tCnw+/Yxs7iWge8qxcu3nzvabojLIsEbHOrMSGJfgbhpowXm3aOrr8OCwDzmfn6B
4yjAnuEXyazwGv12Iovj1YrAY8Ez4M3UbC6mUFsVbgJNJEInWISSbnr4gKj4XD1Z
YHIALj1oS6t8S3tcNQlxfPTUMv8Yv9ookcymCMcdZgeIl/O6AokbpsraJclGLgYm
UZgKrQExiv1g01Y9uAQOpi04uNirAgMBAAGjggE3MIIBMzAJBgNVHRMEAjAAMB0G
A1UdDgQWBBQzp5mc1VAQuLVI9H6as+Wj7YdwRjCB5AYDVR0jBIHcMIHZgBTv3LY9
S/2nhwXFIj2L3L+ZKu7k26GBtaSBsjCBrzELMAkGA1UEBhMCVVMxEzARBgNVBAgM
CkNhbGlmb3JuaWExFjAUBgNVBAcMDVNhbiBGcmFuY2lzY28xIDAeBgNVBAoMF0Nv
cHlsZWZ0IENlcnRpZmljYXRlIENvMR8wHQYDVQQLDBZNeSBPcmdhbml6YXRpb25h
bCBVbml0MREwDwYDVQQDDAhDaGFuZ2VNZTEdMBsGCSqGSIb3DQEJARYObWVAZXhh
bXBsZS5uZXSCCQCHHh3ca4xmiDATBgNVHSUEDDAKBggrBgEFBQcDAjALBgNVHQ8E
BAMCB4AwDQYJKoZIhvcNAQELBQADggEBAHO31ScIDHKaZ/LCB3wMvCGtNM2AZNcO
jutoNF1QwenM5092JlOLNl3lS8XNWhNfBPA5YV5lrJUypoHfjmabLXlxnGZ9wnw+
xecZOafjnIhUqUCtu2k5ZvcsLxSGlzU8PzhIJL+Pssf0/Znoc0+B3KOnbnqmCVxM
zIJDvnCH+SfDIujVUu1eQUCDmOYS1+OOx35ns+kwanLyW9l6QkKvrSI5JvyUXiJF
bgAm+mt0P8R/SEiryrOXAMGNfaGWgEKB5jrqBGJ0lvSfi1YT/la8pEu46hb75rEl
LwRpP5Can/ryQRuet9ydJUwwlkoapvrUCtkyANq7RA5OESKlwdPofnM=
-----END CERTIFICATE-----
