Certificate:
    Data:
        Version: 3 (0x2)
        Serial Number:
            6f:b3:aa:07:67:2b:35:10:2f:52:13:6a:b0:c1:81:43
    Signature Algorithm: sha256WithRSAEncryption
        Issuer: C=US, ST=California, L=San Francisco, O=Copyleft Certificate Co, OU=My Organizational Unit, CN=ChangeMe/emailAddress=me@example.net
        Validity
            Not Before: Jan 23 18:30:14 2021 GMT
            Not After : Jan 23 18:30:14 2022 GMT
        Subject: C=US, ST=OH, L=Cincinnati, O=University of Cincinnati, OU=Dept. Electrical Eng. and Computer Sci., CN=client126/emailAddress=franco@gauss.ececs.uc.edu
        Subject Public Key Info:
            Public Key Algorithm: rsaEncryption
                Public-Key: (2048 bit)
                Modulus:
                    00:db:e2:12:a2:e0:4a:f5:87:44:9a:fa:d9:0c:17:
                    a1:c1:15:75:06:f9:80:83:5b:cf:86:d1:85:3d:d2:
                    da:d7:42:5a:a6:6a:4a:1f:81:18:4a:d6:91:fe:e3:
                    d6:66:64:79:95:f9:91:0e:d9:8f:a5:13:f0:7d:8f:
                    88:f7:0d:c4:4c:20:f1:43:00:cb:c0:18:ee:51:64:
                    0a:9f:de:c2:50:a7:87:66:9d:50:ee:f4:39:0b:3f:
                    e6:8f:be:68:33:69:64:96:a3:c9:c4:97:18:1a:28:
                    59:74:b8:68:0f:8b:ae:76:f2:eb:6c:b1:04:97:bd:
                    86:f0:37:10:f5:26:12:ca:e6:e1:10:54:ef:95:03:
                    21:9b:96:74:22:0b:8a:bc:eb:1a:69:6c:bd:51:f4:
                    0d:72:01:4c:d2:dd:7d:e2:ea:66:e5:6d:d3:51:c2:
                    4e:8e:63:f7:2d:53:12:cd:00:01:28:6a:c4:03:12:
                    81:29:3d:ba:73:0e:39:be:7f:d2:cb:07:4d:c4:ee:
                    15:db:93:e5:68:34:01:a8:34:c8:7d:2e:20:46:b1:
                    42:8f:f6:ee:fd:dc:53:06:aa:bb:2d:b5:ac:51:e1:
                    f9:dc:e3:55:cf:a2:e0:d7:90:ff:b7:31:ce:74:cb:
                    ba:86:6d:01:6d:0e:b9:c5:10:c9:73:4d:c9:ee:c3:
                    ab:b9
                Exponent: 65537 (0x10001)
        X509v3 extensions:
            X509v3 Basic Constraints: 
                CA:FALSE
            X509v3 Subject Key Identifier: 
                6B:D6:DD:C5:B3:1B:C5:30:59:14:9B:13:00:94:3F:A9:06:A6:7B:0C
            X509v3 Authority Key Identifier: 
                keyid:EF:DC:B6:3D:4B:FD:A7:87:05:C5:22:3D:8B:DC:BF:99:2A:EE:E4:DB
                DirName:/C=US/ST=California/L=San Francisco/O=Copyleft Certificate Co/OU=My Organizational Unit/CN=ChangeMe/emailAddress=me@example.net
                serial:87:1E:1D:DC:6B:8C:66:88

            X509v3 Extended Key Usage: 
                TLS Web Client Authentication
            X509v3 Key Usage: 
                Digital Signature
    Signature Algorithm: sha256WithRSAEncryption
         03:0d:59:ea:5d:96:3b:3c:f0:af:10:d5:26:94:42:87:d9:56:
         33:4b:0c:42:2f:5d:d6:7d:ba:a8:77:ce:d4:86:ac:d5:48:5e:
         86:ce:fd:26:de:ca:0b:2a:68:dd:6a:31:e1:d1:e9:4b:ef:a7:
         34:ab:3c:97:74:fc:21:6b:1c:86:e2:31:20:8e:cd:eb:cb:72:
         89:8a:fb:98:68:07:bf:63:52:01:54:45:6c:2a:8e:bd:4a:6a:
         16:b8:c1:92:02:27:4b:e6:72:d1:b7:c2:9d:b5:4f:8a:bc:d5:
         d5:b9:83:65:f3:a6:95:fc:26:73:15:34:bb:5b:4c:bb:18:ef:
         30:05:59:34:2a:08:d7:ef:d5:3d:47:63:36:2f:9e:4c:43:fd:
         d1:6d:d3:c5:5c:f2:d7:3e:29:f4:9c:e8:e9:43:96:2d:b5:49:
         29:31:d1:42:8c:e4:45:84:c9:e4:d1:22:6c:12:3f:6f:fc:88:
         56:83:c1:68:98:fd:bf:57:b9:d6:87:b6:9e:7d:2f:3f:6d:02:
         d2:32:6b:dc:98:e6:73:f9:52:d2:a6:3f:24:19:fd:b7:a9:76:
         e8:90:aa:ec:77:02:41:d8:63:01:27:79:92:a7:02:05:18:4b:
         66:ae:c0:9c:5c:45:56:af:76:f2:b6:28:c5:6c:1c:c7:c2:c2:
         42:89:6a:bb
-----BEGIN CERTIFICATE-----
MIIFNjCCBB6gAwIBAgIQb7OqB2crNRAvUhNqsMGBQzANBgkqhkiG9w0BAQsFADCB
rzELMAkGA1UEBhMCVVMxEzARBgNVBAgMCkNhbGlmb3JuaWExFjAUBgNVBAcMDVNh
biBGcmFuY2lzY28xIDAeBgNVBAoMF0NvcHlsZWZ0IENlcnRpZmljYXRlIENvMR8w
HQYDVQQLDBZNeSBPcmdhbml6YXRpb25hbCBVbml0MREwDwYDVQQDDAhDaGFuZ2VN
ZTEdMBsGCSqGSIb3DQEJARYObWVAZXhhbXBsZS5uZXQwHhcNMjEwMTIzMTgzMDE0
WhcNMjIwMTIzMTgzMDE0WjCBwjELMAkGA1UEBhMCVVMxCzAJBgNVBAgMAk9IMRMw
EQYDVQQHDApDaW5jaW5uYXRpMSEwHwYDVQQKDBhVbml2ZXJzaXR5IG9mIENpbmNp
bm5hdGkxMDAuBgNVBAsMJ0RlcHQuIEVsZWN0cmljYWwgRW5nLiBhbmQgQ29tcHV0
ZXIgU2NpLjESMBAGA1UEAwwJY2xpZW50MTI2MSgwJgYJKoZIhvcNAQkBFhlmcmFu
Y29AZ2F1c3MuZWNlY3MudWMuZWR1MIIBIjANBgkqhkiG9w0BAQEFAAOCAQ8AMIIB
CgKCAQEA2+ISouBK9YdEmvrZDBehwRV1BvmAg1vPhtGFPdLa10JapmpKH4EYStaR
/uPWZmR5lfmRDtmPpRPwfY+I9w3ETCDxQwDLwBjuUWQKn97CUKeHZp1Q7vQ5Cz/m
j75oM2lklqPJxJcYGihZdLhoD4uudvLrbLEEl72G8DcQ9SYSyubhEFTvlQMhm5Z0
IguKvOsaaWy9UfQNcgFM0t194upm5W3TUcJOjmP3LVMSzQABKGrEAxKBKT26cw45
vn/SywdNxO4V25PlaDQBqDTIfS4gRrFCj/bu/dxTBqq7LbWsUeH53ONVz6Lg15D/
tzHOdMu6hm0BbQ65xRDJc03J7sOruQIDAQABo4IBNzCCATMwCQYDVR0TBAIwADAd
BgNVHQ4EFgQUa9bdxbMbxTBZFJsTAJQ/qQamewwwgeQGA1UdIwSB3DCB2YAU79y2
PUv9p4cFxSI9i9y/mSru5NuhgbWkgbIwga8xCzAJBgNVBAYTAlVTMRMwEQYDVQQI
DApDYWxpZm9ybmlhMRYwFAYDVQQHDA1TYW4gRnJhbmNpc2NvMSAwHgYDVQQKDBdD
b3B5bGVmdCBDZXJ0aWZpY2F0ZSBDbzEfMB0GA1UECwwWTXkgT3JnYW5pemF0aW9u
YWwgVW5pdDERMA8GA1UEAwwIQ2hhbmdlTWUxHTAbBgkqhkiG9w0BCQEWDm1lQGV4
YW1wbGUubmV0ggkAhx4d3GuMZogwEwYDVR0lBAwwCgYIKwYBBQUHAwIwCwYDVR0P
BAQDAgeAMA0GCSqGSIb3DQEBCwUAA4IBAQADDVnqXZY7PPCvENUmlEKH2VYzSwxC
L13Wfbqod87UhqzVSF6Gzv0m3soLKmjdajHh0elL76c0qzyXdPwhaxyG4jEgjs3r
y3KJivuYaAe/Y1IBVEVsKo69SmoWuMGSAidL5nLRt8KdtU+KvNXVuYNl86aV/CZz
FTS7W0y7GO8wBVk0KgjX79U9R2M2L55MQ/3RbdPFXPLXPin0nOjpQ5YttUkpMdFC
jORFhMnk0SJsEj9v/IhWg8FomP2/V7nWh7aefS8/bQLSMmvcmOZz+VLSpj8kGf23
qXbokKrsdwJB2GMBJ3mSpwIFGEtmrsCcXEVWr3bytijFbBzHwsJCiWq7
-----END CERTIFICATE-----
