Certificate:
    Data:
        Version: 3 (0x2)
        Serial Number:
            75:d1:c7:0f:a8:23:dc:a6:bc:47:8e:40:71:48:d9:a4
    Signature Algorithm: sha256WithRSAEncryption
        Issuer: C=US, ST=California, L=San Francisco, O=Copyleft Certificate Co, OU=My Organizational Unit, CN=ChangeMe/emailAddress=me@example.net
        Validity
            Not Before: Nov 13 11:46:38 2023 GMT
            Not After : Nov 12 11:46:38 2024 GMT
        Subject: C=US, ST=OH, L=Cincinnati, O=University of Cincinnati, OU=Dept. Elec. Comp. Eng. Comp. Sci., CN=client3/emailAddress=franco@gauss.ececs.uc.edu
        Subject Public Key Info:
            Public Key Algorithm: rsaEncryption
                Public-Key: (2048 bit)
                Modulus:
                    00:c2:9b:29:a1:de:1f:dc:11:87:33:59:80:72:06:
                    e9:1c:fb:9e:b4:e5:b6:12:8f:8e:3d:0e:77:44:81:
                    d1:78:bd:e1:d7:12:6d:22:ae:42:d0:77:cc:9b:48:
                    02:7c:b0:27:c9:ca:1f:c3:e1:af:4a:7a:32:65:4f:
                    7c:2f:b9:c6:4a:3c:00:12:8c:14:91:29:7c:f7:21:
                    15:96:31:e7:dd:ed:10:01:bb:18:ac:fc:9f:a3:7d:
                    fc:f4:69:81:a4:c7:24:a8:21:9c:89:80:34:b4:88:
                    96:45:22:0b:61:b6:04:3a:bc:de:d6:c9:1b:4c:8e:
                    0d:0b:54:7d:5a:56:ff:46:22:62:54:69:a5:3a:0d:
                    85:eb:3e:5b:10:a8:8b:67:44:ea:d4:f5:c3:39:16:
                    c7:1e:92:3b:b7:e1:8c:85:d9:00:aa:32:7d:7d:fb:
                    c0:5f:89:4c:b2:ee:31:6f:fd:a0:aa:68:5d:be:d8:
                    f6:ea:35:15:a4:f4:c7:fd:54:96:59:ba:ef:32:42:
                    29:01:24:d3:83:93:bc:70:49:6a:04:89:ff:c3:9a:
                    91:36:57:5b:88:de:1b:f3:4a:63:3b:2b:f7:18:ae:
                    3e:51:84:2f:ed:ae:90:53:a5:43:30:97:13:2d:a0:
                    f8:d1:bd:0c:81:c6:ab:7a:2d:f4:0d:19:09:35:be:
                    e1:91
                Exponent: 65537 (0x10001)
        X509v3 extensions:
            X509v3 Basic Constraints: 
                CA:FALSE
            X509v3 Subject Key Identifier: 
                97:59:03:2E:45:B3:5C:0D:0A:14:36:1F:FB:55:35:93:DE:CC:FE:2C
            X509v3 Authority Key Identifier: 
                keyid:B4:AE:AB:ED:FC:ED:84:AA:AD:77:5D:7C:84:28:1C:CA:CE:AE:2A:44
                DirName:/C=US/ST=California/L=San Francisco/O=Copyleft Certificate Co/OU=My Organizational Unit/CN=ChangeMe/emailAddress=me@example.net
                serial:BD:6C:3B:F4:D3:07:C9:D1

            X509v3 Extended Key Usage: 
                TLS Web Client Authentication
            X509v3 Key Usage: 
                Digital Signature
    Signature Algorithm: sha256WithRSAEncryption
         03:94:87:5d:79:ef:fd:8e:68:2b:aa:85:ec:e6:df:33:a0:38:
         28:39:bb:84:e8:88:85:e7:72:83:85:23:ae:45:f5:b0:d5:6b:
         80:ef:06:e7:74:38:9b:0e:4a:a1:68:89:8a:31:6a:09:65:ed:
         1d:2b:dd:1a:3e:b3:34:83:da:06:d5:b4:15:eb:03:71:93:85:
         60:60:e1:51:33:3e:68:5f:e8:22:70:f3:1a:c1:77:8e:2b:8f:
         65:3d:77:ca:44:f4:a9:4f:3d:30:31:53:58:96:22:3b:0d:6a:
         26:0d:47:4a:4e:35:b3:03:fd:63:b0:e5:d6:38:62:e2:cd:0f:
         f3:b5:8c:77:bb:7e:2c:6e:0c:15:ed:f6:85:47:d2:a1:98:95:
         f6:3f:e1:bb:9d:c6:54:e6:9c:3f:0c:52:af:27:4b:4e:59:e4:
         29:44:12:64:9e:76:8a:55:fa:4b:87:5f:5f:31:01:1a:5a:25:
         8d:b0:cc:7c:11:1f:8b:57:32:e9:87:54:7c:81:06:fb:31:62:
         fd:31:78:59:f1:4d:ae:44:41:d9:48:05:f2:8e:44:7d:4b:f1:
         4a:04:f6:aa:65:ea:31:ff:25:d1:4b:6b:0e:12:c2:ed:b1:73:
         d9:54:ab:e6:4f:3a:3e:1b:b8:6f:72:ee:c4:b1:2c:06:c2:ce:
         cc:a4:79:28
-----BEGIN CERTIFICATE-----
MIIFLjCCBBagAwIBAgIQddHHD6gj3Ka8R45AcUjZpDANBgkqhkiG9w0BAQsFADCB
rzELMAkGA1UEBhMCVVMxEzARBgNVBAgMCkNhbGlmb3JuaWExFjAUBgNVBAcMDVNh
biBGcmFuY2lzY28xIDAeBgNVBAoMF0NvcHlsZWZ0IENlcnRpZmljYXRlIENvMR8w
HQYDVQQLDBZNeSBPcmdhbml6YXRpb25hbCBVbml0MREwDwYDVQQDDAhDaGFuZ2VN
ZTEdMBsGCSqGSIb3DQEJARYObWVAZXhhbXBsZS5uZXQwHhcNMjMxMTEzMTE0NjM4
WhcNMjQxMTEyMTE0NjM4WjCBujELMAkGA1UEBhMCVVMxCzAJBgNVBAgMAk9IMRMw
EQYDVQQHDApDaW5jaW5uYXRpMSEwHwYDVQQKDBhVbml2ZXJzaXR5IG9mIENpbmNp
bm5hdGkxKjAoBgNVBAsMIURlcHQuIEVsZWMuIENvbXAuIEVuZy4gQ29tcC4gU2Np
LjEQMA4GA1UEAwwHY2xpZW50MzEoMCYGCSqGSIb3DQEJARYZZnJhbmNvQGdhdXNz
LmVjZWNzLnVjLmVkdTCCASIwDQYJKoZIhvcNAQEBBQADggEPADCCAQoCggEBAMKb
KaHeH9wRhzNZgHIG6Rz7nrTlthKPjj0Od0SB0Xi94dcSbSKuQtB3zJtIAnywJ8nK
H8Phr0p6MmVPfC+5xko8ABKMFJEpfPchFZYx593tEAG7GKz8n6N9/PRpgaTHJKgh
nImANLSIlkUiC2G2BDq83tbJG0yODQtUfVpW/0YiYlRppToNhes+WxCoi2dE6tT1
wzkWxx6SO7fhjIXZAKoyfX37wF+JTLLuMW/9oKpoXb7Y9uo1FaT0x/1Ullm67zJC
KQEk04OTvHBJagSJ/8OakTZXW4jeG/NKYzsr9xiuPlGEL+2ukFOlQzCXEy2g+NG9
DIHGq3ot9A0ZCTW+4ZECAwEAAaOCATcwggEzMAkGA1UdEwQCMAAwHQYDVR0OBBYE
FJdZAy5Fs1wNChQ2H/tVNZPezP4sMIHkBgNVHSMEgdwwgdmAFLSuq+387YSqrXdd
fIQoHMrOripEoYG1pIGyMIGvMQswCQYDVQQGEwJVUzETMBEGA1UECAwKQ2FsaWZv
cm5pYTEWMBQGA1UEBwwNU2FuIEZyYW5jaXNjbzEgMB4GA1UECgwXQ29weWxlZnQg
Q2VydGlmaWNhdGUgQ28xHzAdBgNVBAsMFk15IE9yZ2FuaXphdGlvbmFsIFVuaXQx
ETAPBgNVBAMMCENoYW5nZU1lMR0wGwYJKoZIhvcNAQkBFg5tZUBleGFtcGxlLm5l
dIIJAL1sO/TTB8nRMBMGA1UdJQQMMAoGCCsGAQUFBwMCMAsGA1UdDwQEAwIHgDAN
BgkqhkiG9w0BAQsFAAOCAQEAA5SHXXnv/Y5oK6qF7ObfM6A4KDm7hOiIhedyg4Uj
rkX1sNVrgO8G53Q4mw5KoWiJijFqCWXtHSvdGj6zNIPaBtW0FesDcZOFYGDhUTM+
aF/oInDzGsF3jiuPZT13ykT0qU89MDFTWJYiOw1qJg1HSk41swP9Y7Dl1jhi4s0P
87WMd7t+LG4MFe32hUfSoZiV9j/hu53GVOacPwxSrydLTlnkKUQSZJ52ilX6S4df
XzEBGloljbDMfBEfi1cy6YdUfIEG+zFi/TF4WfFNrkRB2UgF8o5EfUvxSgT2qmXq
Mf8l0UtrDhLC7bFz2VSr5k86Phu4b3LuxLEsBsLOzKR5KA==
-----END CERTIFICATE-----
