Certificate:
    Data:
        Version: 3 (0x2)
        Serial Number:
            7a:68:1d:eb:37:85:d2:98:c9:46:3e:53:27:04:7a:82
    Signature Algorithm: sha256WithRSAEncryption
        Issuer: C=US, ST=California, L=San Francisco, O=Copyleft Certificate Co, OU=My Organizational Unit, CN=ChangeMe/emailAddress=me@example.net
        Validity
            Not Before: Nov 11 18:51:20 2023 GMT
            Not After : Nov 10 18:51:20 2024 GMT
        Subject: C=US, ST=OH, L=Cincinnati, O=University of Cincinnati ., OU=Dept. Elec. Comp. . Eng. Comp. Sci., CN=client21/emailAddress=franco@gauss.ececs.uc.edu
        Subject Public Key Info:
            Public Key Algorithm: rsaEncryption
                Public-Key: (2048 bit)
                Modulus:
                    00:df:fe:6a:09:37:00:05:37:fe:34:34:ed:ac:71:
                    e5:32:7c:42:e6:77:a0:ec:40:fe:c6:19:09:22:9f:
                    92:da:01:0a:84:32:80:f2:bf:44:15:1e:96:79:88:
                    5e:bc:9a:69:15:81:87:4c:02:3d:e8:2c:ef:64:b0:
                    1c:b5:f8:44:db:90:ce:20:5b:aa:ca:59:46:d6:90:
                    8d:b9:bc:a3:16:9d:fc:31:89:51:92:27:db:ca:46:
                    dc:5c:49:90:bb:9a:22:6e:18:0d:bc:20:42:61:7d:
                    5a:6c:3c:0d:3b:36:41:82:dc:b1:30:9f:d9:94:40:
                    b8:30:80:a8:ab:55:fa:06:4c:07:00:14:d0:11:f9:
                    ed:64:81:5e:a2:19:25:f9:f7:fc:22:f6:1d:e2:d4:
                    58:c6:ab:e8:00:14:1e:78:5c:92:d6:85:82:86:63:
                    7b:c6:78:f2:bf:da:53:de:39:33:e4:0a:be:54:ca:
                    43:1c:20:43:ab:04:2f:9f:2c:d4:3e:78:9f:2a:06:
                    ea:8a:b5:de:9b:38:22:f3:45:0b:9f:6b:3d:ac:76:
                    da:45:e3:93:9f:1c:ab:31:96:bc:77:a2:0e:a8:0b:
                    bf:1c:1a:83:1e:58:b6:57:4c:b9:ea:c7:c5:c3:dd:
                    48:2e:4b:ab:9f:cc:3f:db:24:4d:d1:11:fd:49:fc:
                    b9:c9
                Exponent: 65537 (0x10001)
        X509v3 extensions:
            X509v3 Basic Constraints: 
                CA:FALSE
            X509v3 Subject Key Identifier: 
                30:B8:C8:1D:FD:28:39:5F:3D:CA:48:37:FB:CE:3E:CC:F1:33:AA:82
            X509v3 Authority Key Identifier: 
                keyid:9C:0E:D5:A3:16:6F:C8:23:88:D1:12:C9:63:5D:18:D9:C9:FC:5B:E9
                DirName:/C=US/ST=California/L=San Francisco/O=Copyleft Certificate Co/OU=My Organizational Unit/CN=ChangeMe/emailAddress=me@example.net
                serial:A3:08:26:80:D2:47:98:75

            X509v3 Extended Key Usage: 
                TLS Web Client Authentication
            X509v3 Key Usage: 
                Digital Signature
    Signature Algorithm: sha256WithRSAEncryption
         b4:a0:35:b4:6d:a2:16:46:df:55:da:32:24:06:4b:87:e8:ff:
         d5:14:d2:ce:fa:56:cd:84:ae:06:f9:f3:17:8b:3e:e4:ea:1f:
         30:a7:1d:74:53:5e:8d:db:f8:a9:4b:c8:73:0c:ae:b1:d3:fb:
         99:bb:67:5a:62:d6:8b:ef:b7:d9:62:ed:11:e9:c1:58:c1:46:
         b4:a5:32:b7:d6:d0:8b:4a:e0:90:fa:b8:01:13:f6:c9:d7:af:
         88:c6:ea:ba:79:bd:0d:12:c2:51:18:87:4e:78:14:72:41:dd:
         0e:77:f6:2f:89:1e:f8:ea:2e:6a:4c:82:fb:a9:8d:e2:2a:59:
         5d:1f:74:66:21:cd:66:0f:5e:c5:6a:2e:3e:92:af:c0:10:93:
         06:9e:03:05:a4:08:bb:f5:3f:87:29:67:2a:aa:02:51:c9:eb:
         46:fa:ff:7b:a9:9f:d4:e5:d9:a7:16:95:4b:00:8f:08:0f:66:
         d8:db:c5:95:d8:e9:e0:86:14:c2:6a:0e:81:fe:27:f2:b7:bc:
         85:1d:6c:a4:89:91:e9:b8:9a:2f:2a:bb:39:ef:9e:e2:78:17:
         17:33:4f:05:67:5a:49:03:3c:c8:37:59:f6:a9:9b:87:bc:21:
         1c:95:6e:0c:dd:a9:ea:00:7e:7e:f9:26:f2:bc:37:8b:c4:b8:
         7d:49:c2:fd
-----BEGIN CERTIFICATE-----
MIIFMzCCBBugAwIBAgIQemgd6zeF0pjJRj5TJwR6gjANBgkqhkiG9w0BAQsFADCB
rzELMAkGA1UEBhMCVVMxEzARBgNVBAgMCkNhbGlmb3JuaWExFjAUBgNVBAcMDVNh
biBGcmFuY2lzY28xIDAeBgNVBAoMF0NvcHlsZWZ0IENlcnRpZmljYXRlIENvMR8w
HQYDVQQLDBZNeSBPcmdhbml6YXRpb25hbCBVbml0MREwDwYDVQQDDAhDaGFuZ2VN
ZTEdMBsGCSqGSIb3DQEJARYObWVAZXhhbXBsZS5uZXQwHhcNMjMxMTExMTg1MTIw
WhcNMjQxMTEwMTg1MTIwWjCBvzELMAkGA1UEBhMCVVMxCzAJBgNVBAgMAk9IMRMw
EQYDVQQHDApDaW5jaW5uYXRpMSMwIQYDVQQKDBpVbml2ZXJzaXR5IG9mIENpbmNp
bm5hdGkgLjEsMCoGA1UECwwjRGVwdC4gRWxlYy4gQ29tcC4gLiBFbmcuIENvbXAu
IFNjaS4xETAPBgNVBAMMCGNsaWVudDIxMSgwJgYJKoZIhvcNAQkBFhlmcmFuY29A
Z2F1c3MuZWNlY3MudWMuZWR1MIIBIjANBgkqhkiG9w0BAQEFAAOCAQ8AMIIBCgKC
AQEA3/5qCTcABTf+NDTtrHHlMnxC5neg7ED+xhkJIp+S2gEKhDKA8r9EFR6WeYhe
vJppFYGHTAI96CzvZLActfhE25DOIFuqyllG1pCNubyjFp38MYlRkifbykbcXEmQ
u5oibhgNvCBCYX1abDwNOzZBgtyxMJ/ZlEC4MICoq1X6BkwHABTQEfntZIFeohkl
+ff8IvYd4tRYxqvoABQeeFyS1oWChmN7xnjyv9pT3jkz5Aq+VMpDHCBDqwQvnyzU
PnifKgbqirXemzgi80ULn2s9rHbaReOTnxyrMZa8d6IOqAu/HBqDHli2V0y56sfF
w91ILkurn8w/2yRN0RH9Sfy5yQIDAQABo4IBNzCCATMwCQYDVR0TBAIwADAdBgNV
HQ4EFgQUMLjIHf0oOV89ykg3+84+zPEzqoIwgeQGA1UdIwSB3DCB2YAUnA7VoxZv
yCOI0RLJY10Y2cn8W+mhgbWkgbIwga8xCzAJBgNVBAYTAlVTMRMwEQYDVQQIDApD
YWxpZm9ybmlhMRYwFAYDVQQHDA1TYW4gRnJhbmNpc2NvMSAwHgYDVQQKDBdDb3B5
bGVmdCBDZXJ0aWZpY2F0ZSBDbzEfMB0GA1UECwwWTXkgT3JnYW5pemF0aW9uYWwg
VW5pdDERMA8GA1UEAwwIQ2hhbmdlTWUxHTAbBgkqhkiG9w0BCQEWDm1lQGV4YW1w
bGUubmV0ggkAowgmgNJHmHUwEwYDVR0lBAwwCgYIKwYBBQUHAwIwCwYDVR0PBAQD
AgeAMA0GCSqGSIb3DQEBCwUAA4IBAQC0oDW0baIWRt9V2jIkBkuH6P/VFNLO+lbN
hK4G+fMXiz7k6h8wpx10U16N2/ipS8hzDK6x0/uZu2daYtaL77fZYu0R6cFYwUa0
pTK31tCLSuCQ+rgBE/bJ16+Ixuq6eb0NEsJRGIdOeBRyQd0Od/YviR746i5qTIL7
qY3iKlldH3RmIc1mD17Fai4+kq/AEJMGngMFpAi79T+HKWcqqgJRyetG+v97qZ/U
5dmnFpVLAI8ID2bY28WV2OnghhTCag6B/ifyt7yFHWykiZHpuJovKrs5757ieBcX
M08FZ1pJAzzIN1n2qZuHvCEclW4M3anqAH5++SbyvDeLxLh9ScL9
-----END CERTIFICATE-----
