Certificate:
    Data:
        Version: 3 (0x2)
        Serial Number:
            7b:8a:d1:20:a7:95:e5:d1:53:0d:63:d4:6d:f0:b1:5d
    Signature Algorithm: sha256WithRSAEncryption
        Issuer: C=US, ST=California, L=San Francisco, O=Copyleft Certificate Co, OU=My Organizational Unit, CN=ChangeMe/emailAddress=me@example.net
        Validity
            Not Before: Nov 13 11:48:50 2023 GMT
            Not After : Nov 12 11:48:50 2024 GMT
        Subject: C=US, ST=OH, L=Cincinnati, O=University of Cincinnati, OU=Dept. Elec. Comp. Eng. Comp. Sci., CN=client36/emailAddress=franco@gauss.ececs.uc.edu
        Subject Public Key Info:
            Public Key Algorithm: rsaEncryption
                Public-Key: (2048 bit)
                Modulus:
                    00:bf:b0:2e:b4:18:c0:9a:e0:05:23:ae:ab:a4:ce:
                    85:67:9f:60:27:29:8e:71:da:9d:fd:a4:50:6a:86:
                    e0:0f:eb:ef:9e:f5:77:5f:e7:7e:e4:8c:ee:c8:8e:
                    74:4c:b1:46:6f:a9:60:7f:2e:18:c3:71:76:99:ba:
                    70:a7:2b:36:16:86:ac:b6:d1:70:fd:48:a4:4b:ce:
                    69:2b:d9:36:ab:7a:a3:1f:eb:19:d5:04:ac:e4:a6:
                    de:3c:2f:6d:c3:2c:7f:16:fa:48:c1:34:5b:15:f7:
                    bc:a0:6c:fe:fd:b8:bd:36:2d:f9:04:86:b7:9d:83:
                    fb:53:8b:17:7c:30:91:e5:f7:a7:10:bd:c9:62:be:
                    53:b0:18:22:c5:93:1b:3a:66:87:c2:fa:1a:b3:2d:
                    cf:24:37:48:7d:b4:29:e2:2a:ff:b3:ea:89:1e:aa:
                    b6:14:bd:b5:eb:91:e0:16:f7:ff:a8:a1:d2:c2:32:
                    ca:1c:0d:21:9a:ec:f7:f1:97:b7:a0:ca:e7:af:23:
                    64:4c:7b:61:00:45:c7:05:ab:df:24:dc:c7:79:a5:
                    6e:e8:52:83:30:7d:55:48:34:c3:38:30:2e:90:66:
                    a9:b9:e3:00:93:d1:29:a5:b5:85:f0:a7:c4:55:8b:
                    9c:65:6c:fc:bd:e3:7b:96:18:0c:00:fd:81:fd:da:
                    16:49
                Exponent: 65537 (0x10001)
        X509v3 extensions:
            X509v3 Basic Constraints: 
                CA:FALSE
            X509v3 Subject Key Identifier: 
                42:13:55:67:9E:EA:46:E2:E1:5A:6C:9C:B3:B3:7F:27:D0:DA:FD:4C
            X509v3 Authority Key Identifier: 
                keyid:B4:AE:AB:ED:FC:ED:84:AA:AD:77:5D:7C:84:28:1C:CA:CE:AE:2A:44
                DirName:/C=US/ST=California/L=San Francisco/O=Copyleft Certificate Co/OU=My Organizational Unit/CN=ChangeMe/emailAddress=me@example.net
                serial:BD:6C:3B:F4:D3:07:C9:D1

            X509v3 Extended Key Usage: 
                TLS Web Client Authentication
            X509v3 Key Usage: 
                Digital Signature
    Signature Algorithm: sha256WithRSAEncryption
         7f:04:c2:6a:eb:6f:a2:cd:65:6c:f9:69:93:54:03:9d:14:2d:
         80:56:eb:98:6f:39:5c:46:26:67:e4:90:67:93:e9:a2:85:99:
         63:b4:ca:93:d7:fa:a9:0e:73:65:3a:49:54:bd:e3:84:92:20:
         36:81:31:fe:c3:dc:ab:69:55:e1:6d:00:4a:2a:1e:e8:df:c0:
         52:ac:45:75:13:9c:25:72:5f:15:b3:b7:68:a6:36:c3:48:a8:
         cc:ff:d3:31:b3:43:f5:3f:80:e1:5e:82:76:29:6c:e2:14:26:
         ac:ee:f4:43:55:eb:9d:18:c5:bd:68:c3:34:c3:56:0f:1f:ef:
         b0:74:bf:90:5a:e5:37:24:09:6e:87:fc:a1:e4:be:8b:92:4d:
         48:a8:f4:a1:f0:a6:0e:09:1a:cc:ab:71:8b:f3:c1:ec:58:94:
         dd:33:06:fa:a8:e5:fc:94:e1:c9:88:6d:de:af:fd:7e:a8:21:
         7d:4c:80:43:69:b9:bd:41:07:86:25:86:9c:db:5a:47:55:38:
         78:4e:05:cb:18:83:e4:2a:a1:62:c5:0f:32:5e:19:71:b2:f7:
         5a:0c:82:e8:a2:b4:54:c5:8a:11:b6:96:83:57:c1:26:d3:8a:
         e5:b1:a6:71:5a:00:c2:f5:f8:9b:37:92:ce:30:9d:44:4a:56:
         1b:41:af:03
-----BEGIN CERTIFICATE-----
MIIFLzCCBBegAwIBAgIQe4rRIKeV5dFTDWPUbfCxXTANBgkqhkiG9w0BAQsFADCB
rzELMAkGA1UEBhMCVVMxEzARBgNVBAgMCkNhbGlmb3JuaWExFjAUBgNVBAcMDVNh
biBGcmFuY2lzY28xIDAeBgNVBAoMF0NvcHlsZWZ0IENlcnRpZmljYXRlIENvMR8w
HQYDVQQLDBZNeSBPcmdhbml6YXRpb25hbCBVbml0MREwDwYDVQQDDAhDaGFuZ2VN
ZTEdMBsGCSqGSIb3DQEJARYObWVAZXhhbXBsZS5uZXQwHhcNMjMxMTEzMTE0ODUw
WhcNMjQxMTEyMTE0ODUwWjCBuzELMAkGA1UEBhMCVVMxCzAJBgNVBAgMAk9IMRMw
EQYDVQQHDApDaW5jaW5uYXRpMSEwHwYDVQQKDBhVbml2ZXJzaXR5IG9mIENpbmNp
bm5hdGkxKjAoBgNVBAsMIURlcHQuIEVsZWMuIENvbXAuIEVuZy4gQ29tcC4gU2Np
LjERMA8GA1UEAwwIY2xpZW50MzYxKDAmBgkqhkiG9w0BCQEWGWZyYW5jb0BnYXVz
cy5lY2Vjcy51Yy5lZHUwggEiMA0GCSqGSIb3DQEBAQUAA4IBDwAwggEKAoIBAQC/
sC60GMCa4AUjrqukzoVnn2AnKY5x2p39pFBqhuAP6++e9Xdf537kjO7IjnRMsUZv
qWB/LhjDcXaZunCnKzYWhqy20XD9SKRLzmkr2TareqMf6xnVBKzkpt48L23DLH8W
+kjBNFsV97ygbP79uL02LfkEhredg/tTixd8MJHl96cQvclivlOwGCLFkxs6ZofC
+hqzLc8kN0h9tCniKv+z6okeqrYUvbXrkeAW9/+oodLCMsocDSGa7Pfxl7egyuev
I2RMe2EARccFq98k3Md5pW7oUoMwfVVINMM4MC6QZqm54wCT0SmltYXwp8RVi5xl
bPy943uWGAwA/YH92hZJAgMBAAGjggE3MIIBMzAJBgNVHRMEAjAAMB0GA1UdDgQW
BBRCE1VnnupG4uFabJyzs38n0Nr9TDCB5AYDVR0jBIHcMIHZgBS0rqvt/O2Eqq13
XXyEKBzKzq4qRKGBtaSBsjCBrzELMAkGA1UEBhMCVVMxEzARBgNVBAgMCkNhbGlm
b3JuaWExFjAUBgNVBAcMDVNhbiBGcmFuY2lzY28xIDAeBgNVBAoMF0NvcHlsZWZ0
IENlcnRpZmljYXRlIENvMR8wHQYDVQQLDBZNeSBPcmdhbml6YXRpb25hbCBVbml0
MREwDwYDVQQDDAhDaGFuZ2VNZTEdMBsGCSqGSIb3DQEJARYObWVAZXhhbXBsZS5u
ZXSCCQC9bDv00wfJ0TATBgNVHSUEDDAKBggrBgEFBQcDAjALBgNVHQ8EBAMCB4Aw
DQYJKoZIhvcNAQELBQADggEBAH8Ewmrrb6LNZWz5aZNUA50ULYBW65hvOVxGJmfk
kGeT6aKFmWO0ypPX+qkOc2U6SVS944SSIDaBMf7D3KtpVeFtAEoqHujfwFKsRXUT
nCVyXxWzt2imNsNIqMz/0zGzQ/U/gOFegnYpbOIUJqzu9ENV650Yxb1owzTDVg8f
77B0v5Ba5TckCW6H/KHkvouSTUio9KHwpg4JGsyrcYvzwexYlN0zBvqo5fyU4cmI
bd6v/X6oIX1MgENpub1BB4YlhpzbWkdVOHhOBcsYg+QqoWLFDzJeGXGy91oMguii
tFTFihG2loNXwSbTiuWxpnFaAML1+Js3ks4wnURKVhtBrwM=
-----END CERTIFICATE-----
