Certificate:
    Data:
        Version: 3 (0x2)
        Serial Number:
            7c:e1:2d:9f:de:d2:29:d7:bc:1e:6d:e4:69:17:ee:9f
    Signature Algorithm: sha256WithRSAEncryption
        Issuer: C=US, ST=California, L=San Francisco, O=Copyleft Certificate Co, OU=My Organizational Unit, CN=ChangeMe/emailAddress=me@example.net
        Validity
            Not Before: Nov 11 01:59:03 2023 GMT
            Not After : Nov 10 01:59:03 2024 GMT
        Subject: C=US, ST=OH, L=Cincinnati, O=University of Cincinnati, OU=Dept. Elec. Comp. Eng. Comp. Sci., CN=client15/emailAddress=franco@gauss.ececs.uc.edu
        Subject Public Key Info:
            Public Key Algorithm: rsaEncryption
                Public-Key: (2048 bit)
                Modulus:
                    00:d6:2a:88:3a:be:a6:b8:12:a4:b3:d5:18:88:45:
                    61:c8:66:09:8f:58:63:89:34:13:86:07:5f:7b:50:
                    20:9d:9c:76:cd:ae:9b:23:c9:d4:95:c2:db:49:0c:
                    e3:ff:80:34:54:51:d5:02:f9:c8:98:76:76:bb:ce:
                    de:e1:f5:9c:77:a1:dc:22:20:b1:8c:21:07:82:15:
                    6d:65:63:49:7c:08:74:90:54:5f:f8:90:da:f8:fa:
                    8c:7c:77:ac:70:94:b9:d2:0d:2f:fc:a2:ae:ed:52:
                    5e:a5:65:2d:6d:2e:a1:74:9f:56:79:94:04:ba:2d:
                    97:8e:cf:f3:2c:8c:b9:95:f5:af:b2:7b:56:7a:18:
                    04:83:36:cb:36:00:ed:8c:fe:55:33:40:0a:1c:e9:
                    43:05:8c:c5:f4:45:f2:5a:99:f8:d8:db:b8:ea:ba:
                    5b:a2:ba:bc:91:08:eb:58:42:df:e9:ee:70:81:e6:
                    db:53:4d:0b:ea:89:2b:01:f1:4f:ff:ac:23:bc:28:
                    52:e7:a7:97:00:2b:9e:ad:38:62:45:62:f7:fa:4c:
                    62:f4:71:32:51:40:d6:09:56:65:17:61:3b:65:dc:
                    64:b3:0b:1e:02:f3:70:24:78:eb:e5:19:54:18:6b:
                    68:54:10:b1:9a:9f:b9:35:03:d9:e9:7f:23:cd:ce:
                    7b:51
                Exponent: 65537 (0x10001)
        X509v3 extensions:
            X509v3 Basic Constraints: 
                CA:FALSE
            X509v3 Subject Key Identifier: 
                E4:2A:19:28:E6:DB:AC:E7:F5:E0:E3:10:FE:D4:CF:F4:B7:A3:21:40
            X509v3 Authority Key Identifier: 
                keyid:7B:0F:93:16:64:9F:71:41:D3:1B:FB:ED:6A:70:9B:CA:2E:70:F0:4B
                DirName:/C=US/ST=California/L=San Francisco/O=Copyleft Certificate Co/OU=My Organizational Unit/CN=ChangeMe/emailAddress=me@example.net
                serial:B9:F2:4E:2C:79:B3:D4:6C

            X509v3 Extended Key Usage: 
                TLS Web Client Authentication
            X509v3 Key Usage: 
                Digital Signature
    Signature Algorithm: sha256WithRSAEncryption
         6a:b8:ee:27:b4:78:e4:22:d9:11:26:fd:b2:82:ab:d8:e1:30:
         bf:ea:9a:82:12:d4:4d:cf:ed:f9:04:d3:71:bd:f1:3d:1c:07:
         5a:42:3a:b1:4d:8c:a1:e4:f3:fd:57:ff:70:19:89:f9:c2:01:
         a2:e0:2f:94:03:94:b3:19:73:fe:17:42:26:b5:ca:05:ee:b9:
         5b:24:2b:36:78:72:92:fd:d2:03:dc:d6:12:02:5e:2b:23:f8:
         24:68:d6:5d:7d:8e:68:43:b8:78:66:f7:3a:59:4b:c9:82:fc:
         e9:16:43:1b:0e:b4:58:75:cb:b8:92:5c:4a:6c:c3:d3:f0:21:
         9e:d0:6a:ea:07:a9:3d:64:54:0e:df:47:7d:1d:ec:0f:0a:21:
         81:11:f1:9e:c6:74:04:17:06:16:f1:39:5d:72:1a:12:41:98:
         31:0e:aa:2e:f6:86:f8:aa:ef:1a:01:ab:f1:89:53:79:07:a8:
         6e:26:4c:7f:ee:89:c7:38:c9:42:e9:ee:2f:cc:1f:a2:37:44:
         85:ff:73:88:ab:50:d7:65:7b:78:3f:3a:1f:c2:08:ce:61:2f:
         cf:93:44:f9:20:96:a3:5f:19:70:82:25:19:4e:60:16:cd:d9:
         38:01:ee:8f:50:ca:6f:28:74:a1:cb:e7:a7:95:e8:7b:2d:ce:
         5c:c0:a7:ba
-----BEGIN CERTIFICATE-----
MIIFLzCCBBegAwIBAgIQfOEtn97SKde8Hm3kaRfunzANBgkqhkiG9w0BAQsFADCB
rzELMAkGA1UEBhMCVVMxEzARBgNVBAgMCkNhbGlmb3JuaWExFjAUBgNVBAcMDVNh
biBGcmFuY2lzY28xIDAeBgNVBAoMF0NvcHlsZWZ0IENlcnRpZmljYXRlIENvMR8w
HQYDVQQLDBZNeSBPcmdhbml6YXRpb25hbCBVbml0MREwDwYDVQQDDAhDaGFuZ2VN
ZTEdMBsGCSqGSIb3DQEJARYObWVAZXhhbXBsZS5uZXQwHhcNMjMxMTExMDE1OTAz
WhcNMjQxMTEwMDE1OTAzWjCBuzELMAkGA1UEBhMCVVMxCzAJBgNVBAgMAk9IMRMw
EQYDVQQHDApDaW5jaW5uYXRpMSEwHwYDVQQKDBhVbml2ZXJzaXR5IG9mIENpbmNp
bm5hdGkxKjAoBgNVBAsMIURlcHQuIEVsZWMuIENvbXAuIEVuZy4gQ29tcC4gU2Np
LjERMA8GA1UEAwwIY2xpZW50MTUxKDAmBgkqhkiG9w0BCQEWGWZyYW5jb0BnYXVz
cy5lY2Vjcy51Yy5lZHUwggEiMA0GCSqGSIb3DQEBAQUAA4IBDwAwggEKAoIBAQDW
Kog6vqa4EqSz1RiIRWHIZgmPWGOJNBOGB197UCCdnHbNrpsjydSVwttJDOP/gDRU
UdUC+ciYdna7zt7h9Zx3odwiILGMIQeCFW1lY0l8CHSQVF/4kNr4+ox8d6xwlLnS
DS/8oq7tUl6lZS1tLqF0n1Z5lAS6LZeOz/MsjLmV9a+ye1Z6GASDNss2AO2M/lUz
QAoc6UMFjMX0RfJamfjY27jquluiuryRCOtYQt/p7nCB5ttTTQvqiSsB8U//rCO8
KFLnp5cAK56tOGJFYvf6TGL0cTJRQNYJVmUXYTtl3GSzCx4C83AkeOvlGVQYa2hU
ELGan7k1A9npfyPNzntRAgMBAAGjggE3MIIBMzAJBgNVHRMEAjAAMB0GA1UdDgQW
BBTkKhko5tus5/Xg4xD+1M/0t6MhQDCB5AYDVR0jBIHcMIHZgBR7D5MWZJ9xQdMb
++1qcJvKLnDwS6GBtaSBsjCBrzELMAkGA1UEBhMCVVMxEzARBgNVBAgMCkNhbGlm
b3JuaWExFjAUBgNVBAcMDVNhbiBGcmFuY2lzY28xIDAeBgNVBAoMF0NvcHlsZWZ0
IENlcnRpZmljYXRlIENvMR8wHQYDVQQLDBZNeSBPcmdhbml6YXRpb25hbCBVbml0
MREwDwYDVQQDDAhDaGFuZ2VNZTEdMBsGCSqGSIb3DQEJARYObWVAZXhhbXBsZS5u
ZXSCCQC58k4sebPUbDATBgNVHSUEDDAKBggrBgEFBQcDAjALBgNVHQ8EBAMCB4Aw
DQYJKoZIhvcNAQELBQADggEBAGq47ie0eOQi2REm/bKCq9jhML/qmoIS1E3P7fkE
03G98T0cB1pCOrFNjKHk8/1X/3AZifnCAaLgL5QDlLMZc/4XQia1ygXuuVskKzZ4
cpL90gPc1hICXisj+CRo1l19jmhDuHhm9zpZS8mC/OkWQxsOtFh1y7iSXEpsw9Pw
IZ7QauoHqT1kVA7fR30d7A8KIYER8Z7GdAQXBhbxOV1yGhJBmDEOqi72hviq7xoB
q/GJU3kHqG4mTH/uicc4yULp7i/MH6I3RIX/c4irUNdle3g/Oh/CCM5hL8+TRPkg
lqNfGXCCJRlOYBbN2TgB7o9Qym8odKHL56eV6HstzlzAp7o=
-----END CERTIFICATE-----
