Certificate:
    Data:
        Version: 3 (0x2)
        Serial Number:
            7c:fb:89:cf:e4:68:9f:dc:21:86:fc:a6:87:b0:f6:e6
    Signature Algorithm: sha256WithRSAEncryption
        Issuer: C=US, ST=California, L=San Francisco, O=Copyleft Certificate Co, OU=My Organizational Unit, CN=ChangeMe/emailAddress=me@example.net
        Validity
            Not Before: Nov 11 18:49:50 2023 GMT
            Not After : Nov 10 18:49:50 2024 GMT
        Subject: C=US, ST=California, L=San Francisco, O=Copyleft Certificate Co, OU=My Organizational Unit, CN=ChangeMe/emailAddress=me@example.net
        Subject Public Key Info:
            Public Key Algorithm: rsaEncryption
                Public-Key: (2048 bit)
                Modulus:
                    00:93:1a:0e:19:24:94:74:c7:03:48:7f:80:34:41:
                    25:7d:cc:0d:98:97:25:28:e9:7e:5c:a3:4e:a3:63:
                    be:b6:e3:14:c7:48:78:8f:89:99:1b:12:7d:96:88:
                    b2:08:ef:23:be:81:a4:f8:6a:77:75:a1:83:93:84:
                    b6:42:92:e3:2f:26:db:55:72:a8:ce:05:27:f9:71:
                    4c:ac:fc:bf:26:16:e1:c1:54:90:0f:a9:22:53:47:
                    5e:03:7f:5b:94:30:25:ac:8a:e8:82:3c:47:9b:c4:
                    61:d0:e4:52:ee:01:b9:47:84:64:39:09:78:55:8d:
                    5a:6e:a7:5e:f9:d9:cf:1e:b3:19:eb:d8:24:f3:3e:
                    3e:5c:98:0a:d9:d6:7e:0f:1b:65:9e:28:5b:06:87:
                    d7:c4:df:2c:f2:11:6e:5d:0f:83:b8:68:fe:3c:25:
                    b3:0c:29:c6:f9:10:01:c1:cd:18:1b:23:fd:8b:7a:
                    dd:70:e3:4f:4b:3d:94:cc:22:91:f0:cf:3b:d5:37:
                    3f:49:76:93:20:80:26:8e:32:d4:2b:53:3f:93:e2:
                    e8:2a:7f:9c:e7:6b:0c:f3:f7:13:a7:08:55:cf:c9:
                    ac:c9:44:bc:8a:e9:23:8d:08:16:4e:90:8e:0f:c0:
                    be:27:47:4b:14:4d:f5:66:29:58:78:e2:5c:22:0d:
                    99:29
                Exponent: 65537 (0x10001)
        X509v3 extensions:
            X509v3 Basic Constraints: 
                CA:FALSE
            X509v3 Subject Key Identifier: 
                D1:26:CE:1C:3B:BD:66:64:DA:08:31:02:E5:F7:51:3D:0F:74:FA:56
            X509v3 Authority Key Identifier: 
                keyid:9C:0E:D5:A3:16:6F:C8:23:88:D1:12:C9:63:5D:18:D9:C9:FC:5B:E9
                DirName:/C=US/ST=California/L=San Francisco/O=Copyleft Certificate Co/OU=My Organizational Unit/CN=ChangeMe/emailAddress=me@example.net
                serial:A3:08:26:80:D2:47:98:75

            X509v3 Extended Key Usage: 
                TLS Web Server Authentication
            X509v3 Key Usage: 
                Digital Signature, Key Encipherment
            X509v3 Subject Alternative Name: 
                DNS:ChangeMe
    Signature Algorithm: sha256WithRSAEncryption
         8f:66:bd:7a:7f:61:3a:8f:5f:ec:2f:10:83:ca:ab:99:7c:6a:
         d5:9b:30:01:24:74:27:ab:6a:a9:99:b5:30:5d:ba:c2:f6:11:
         d0:fc:2c:6e:52:fe:fd:76:9f:e7:85:48:90:0a:af:71:88:d5:
         5e:d4:a4:82:4a:ce:1a:dc:09:f8:e9:26:85:57:2f:df:08:8b:
         6d:17:5f:4d:02:b5:31:32:05:a5:c9:a5:99:80:55:0f:ca:ed:
         94:e3:e5:aa:3d:d3:73:04:13:44:82:1f:c5:0c:d1:eb:a8:03:
         82:4e:46:e9:14:ea:db:42:7a:45:e9:28:24:c3:1d:3c:3c:b7:
         51:96:2e:1c:c0:b4:13:1c:b6:02:f8:8e:23:de:f3:fd:b9:ab:
         f3:df:da:62:22:2c:c0:0a:2b:82:13:1a:03:96:78:4d:ff:74:
         60:2f:42:4c:2e:12:9d:5b:28:23:9d:81:19:b4:93:9d:bb:4c:
         68:73:25:59:38:be:6d:bd:37:46:59:0c:33:11:e1:4a:09:c1:
         79:dc:a9:10:76:62:c3:cc:9e:f2:d3:ad:f4:ae:4b:4c:f5:37:
         88:1e:28:eb:86:9b:01:3c:2c:72:87:4a:21:21:d7:12:e3:a2:
         a8:2b:a8:a0:75:41:a7:ce:3f:b9:9e:c8:3e:19:f1:2e:a1:b8:
         98:f5:ed:6e
-----BEGIN CERTIFICATE-----
MIIFODCCBCCgAwIBAgIQfPuJz+Ron9whhvymh7D25jANBgkqhkiG9w0BAQsFADCB
rzELMAkGA1UEBhMCVVMxEzARBgNVBAgMCkNhbGlmb3JuaWExFjAUBgNVBAcMDVNh
biBGcmFuY2lzY28xIDAeBgNVBAoMF0NvcHlsZWZ0IENlcnRpZmljYXRlIENvMR8w
HQYDVQQLDBZNeSBPcmdhbml6YXRpb25hbCBVbml0MREwDwYDVQQDDAhDaGFuZ2VN
ZTEdMBsGCSqGSIb3DQEJARYObWVAZXhhbXBsZS5uZXQwHhcNMjMxMTExMTg0OTUw
WhcNMjQxMTEwMTg0OTUwWjCBrzELMAkGA1UEBhMCVVMxEzARBgNVBAgMCkNhbGlm
b3JuaWExFjAUBgNVBAcMDVNhbiBGcmFuY2lzY28xIDAeBgNVBAoMF0NvcHlsZWZ0
IENlcnRpZmljYXRlIENvMR8wHQYDVQQLDBZNeSBPcmdhbml6YXRpb25hbCBVbml0
MREwDwYDVQQDDAhDaGFuZ2VNZTEdMBsGCSqGSIb3DQEJARYObWVAZXhhbXBsZS5u
ZXQwggEiMA0GCSqGSIb3DQEBAQUAA4IBDwAwggEKAoIBAQCTGg4ZJJR0xwNIf4A0
QSV9zA2YlyUo6X5co06jY7624xTHSHiPiZkbEn2WiLII7yO+gaT4and1oYOThLZC
kuMvJttVcqjOBSf5cUys/L8mFuHBVJAPqSJTR14Df1uUMCWsiuiCPEebxGHQ5FLu
AblHhGQ5CXhVjVpup1752c8esxnr2CTzPj5cmArZ1n4PG2WeKFsGh9fE3yzyEW5d
D4O4aP48JbMMKcb5EAHBzRgbI/2Let1w409LPZTMIpHwzzvVNz9JdpMggCaOMtQr
Uz+T4ugqf5znawzz9xOnCFXPyazJRLyK6SONCBZOkI4PwL4nR0sUTfVmKVh44lwi
DZkpAgMBAAGjggFMMIIBSDAJBgNVHRMEAjAAMB0GA1UdDgQWBBTRJs4cO71mZNoI
MQLl91E9D3T6VjCB5AYDVR0jBIHcMIHZgBScDtWjFm/II4jREsljXRjZyfxb6aGB
taSBsjCBrzELMAkGA1UEBhMCVVMxEzARBgNVBAgMCkNhbGlmb3JuaWExFjAUBgNV
BAcMDVNhbiBGcmFuY2lzY28xIDAeBgNVBAoMF0NvcHlsZWZ0IENlcnRpZmljYXRl
IENvMR8wHQYDVQQLDBZNeSBPcmdhbml6YXRpb25hbCBVbml0MREwDwYDVQQDDAhD
aGFuZ2VNZTEdMBsGCSqGSIb3DQEJARYObWVAZXhhbXBsZS5uZXSCCQCjCCaA0keY
dTATBgNVHSUEDDAKBggrBgEFBQcDATALBgNVHQ8EBAMCBaAwEwYDVR0RBAwwCoII
Q2hhbmdlTWUwDQYJKoZIhvcNAQELBQADggEBAI9mvXp/YTqPX+wvEIPKq5l8atWb
MAEkdCeraqmZtTBdusL2EdD8LG5S/v12n+eFSJAKr3GI1V7UpIJKzhrcCfjpJoVX
L98Ii20XX00CtTEyBaXJpZmAVQ/K7ZTj5ao903MEE0SCH8UM0euoA4JORukU6ttC
ekXpKCTDHTw8t1GWLhzAtBMctgL4jiPe8/25q/Pf2mIiLMAKK4ITGgOWeE3/dGAv
QkwuEp1bKCOdgRm0k527TGhzJVk4vm29N0ZZDDMR4UoJwXncqRB2YsPMnvLTrfSu
S0z1N4geKOuGmwE8LHKHSiEh1xLjoqgrqKB1QafOP7meyD4Z8S6huJj17W4=
-----END CERTIFICATE-----
