Certificate:
    Data:
        Version: 3 (0x2)
        Serial Number:
            7f:af:ec:dc:10:e9:a7:a1:8c:16:49:a0:f4:b8:a8:7b
    Signature Algorithm: sha256WithRSAEncryption
        Issuer: C=US, ST=California, L=San Francisco, O=Copyleft Certificate Co, OU=My Organizational Unit, CN=ChangeMe/emailAddress=me@example.net
        Validity
            Not Before: Nov 11 18:50:12 2023 GMT
            Not After : Nov 10 18:50:12 2024 GMT
        Subject: C=US, ST=OH, L=Cincinnati, O=University of Cincinnati ., OU=Dept. Elec. Comp. . Eng. Comp. Sci., CN=client4/emailAddress=franco@gauss.ececs.uc.edu
        Subject Public Key Info:
            Public Key Algorithm: rsaEncryption
                Public-Key: (2048 bit)
                Modulus:
                    00:aa:ee:cb:21:df:84:0c:3b:16:33:b8:3d:d3:bd:
                    86:9c:60:34:6b:dd:72:7a:68:5e:89:a5:36:08:3b:
                    10:d8:17:b0:d8:61:e7:7e:8b:55:ca:6a:85:0d:89:
                    d3:d1:31:82:11:e2:48:0d:de:f6:d4:97:ed:18:a6:
                    4e:41:fb:d0:e4:f4:62:ed:d5:8c:a7:25:b6:8a:dc:
                    c8:46:01:cd:29:ee:10:0b:1e:b6:f4:31:c8:ce:b5:
                    07:89:b4:84:42:c0:d5:34:b3:39:05:e2:18:b6:e9:
                    56:9b:9b:1c:5c:17:57:83:8c:3d:67:e9:65:8b:a0:
                    49:b2:7d:2f:d2:2b:25:99:a6:53:7a:9e:cc:81:ab:
                    42:ff:43:c1:5d:a6:8a:d4:b0:e2:45:2d:1c:f3:4a:
                    96:78:27:ab:51:78:27:7b:0c:a9:6d:0a:41:d5:68:
                    e8:08:c8:63:36:f3:30:5c:21:46:bd:ba:3a:78:0b:
                    03:80:08:70:85:16:bf:bd:5d:a3:d2:75:e0:b8:ff:
                    64:43:67:82:e5:3c:69:07:59:05:d4:b5:65:d4:dc:
                    a7:7f:9b:2a:9d:de:ad:78:67:66:87:5b:18:23:ec:
                    31:c4:11:71:8b:e6:97:79:53:06:75:c2:ff:ec:15:
                    65:02:e8:fb:6b:e2:9c:9d:fe:d8:da:5e:bf:b7:fe:
                    4b:1f
                Exponent: 65537 (0x10001)
        X509v3 extensions:
            X509v3 Basic Constraints: 
                CA:FALSE
            X509v3 Subject Key Identifier: 
                66:05:DF:D1:64:DD:4E:93:D3:FB:DE:81:8A:C5:9D:1C:79:C1:8F:EF
            X509v3 Authority Key Identifier: 
                keyid:9C:0E:D5:A3:16:6F:C8:23:88:D1:12:C9:63:5D:18:D9:C9:FC:5B:E9
                DirName:/C=US/ST=California/L=San Francisco/O=Copyleft Certificate Co/OU=My Organizational Unit/CN=ChangeMe/emailAddress=me@example.net
                serial:A3:08:26:80:D2:47:98:75

            X509v3 Extended Key Usage: 
                TLS Web Client Authentication
            X509v3 Key Usage: 
                Digital Signature
    Signature Algorithm: sha256WithRSAEncryption
         0e:54:0e:1d:81:61:98:1b:42:fa:5a:bc:bb:dc:5e:00:0a:1c:
         34:68:ba:1c:1d:c5:35:ad:22:98:cb:e8:63:b3:4d:1c:a1:a7:
         9f:61:2a:84:6b:30:4f:54:5f:a0:92:a5:fe:9f:99:03:5e:e0:
         60:fb:cc:aa:19:ac:65:54:35:ae:00:1f:6f:c4:04:b2:41:ff:
         45:48:d3:4e:f0:33:ed:01:7b:4e:5d:4d:96:a5:6f:eb:d3:d2:
         0c:23:d6:09:16:1d:0b:78:62:06:99:8a:76:11:18:26:3d:93:
         23:e7:ba:b0:48:30:c8:21:1e:02:67:12:2d:d2:36:a9:e0:e8:
         27:f9:28:a1:77:a8:e5:cf:7b:d4:01:19:c4:35:a2:01:18:82:
         4b:f9:6d:76:ec:e3:b9:d7:60:18:d4:31:65:e6:da:ca:54:6a:
         8a:0d:bd:96:96:29:0e:ba:30:29:90:77:64:8c:a3:0d:1d:17:
         68:a4:95:f2:2a:e1:d0:54:97:ed:44:66:6d:17:ea:a5:49:42:
         a2:9a:73:e0:aa:39:aa:a6:f7:7c:2b:83:3b:9a:a8:c6:65:6f:
         be:db:e5:be:63:f3:54:f7:54:31:80:c9:71:62:9f:cc:58:29:
         f8:cf:8d:a4:71:af:46:47:e4:14:cc:ef:19:e9:bb:da:d1:4f:
         1a:99:ce:61
-----BEGIN CERTIFICATE-----
MIIFMjCCBBqgAwIBAgIQf6/s3BDpp6GMFkmg9LioezANBgkqhkiG9w0BAQsFADCB
rzELMAkGA1UEBhMCVVMxEzARBgNVBAgMCkNhbGlmb3JuaWExFjAUBgNVBAcMDVNh
biBGcmFuY2lzY28xIDAeBgNVBAoMF0NvcHlsZWZ0IENlcnRpZmljYXRlIENvMR8w
HQYDVQQLDBZNeSBPcmdhbml6YXRpb25hbCBVbml0MREwDwYDVQQDDAhDaGFuZ2VN
ZTEdMBsGCSqGSIb3DQEJARYObWVAZXhhbXBsZS5uZXQwHhcNMjMxMTExMTg1MDEy
WhcNMjQxMTEwMTg1MDEyWjCBvjELMAkGA1UEBhMCVVMxCzAJBgNVBAgMAk9IMRMw
EQYDVQQHDApDaW5jaW5uYXRpMSMwIQYDVQQKDBpVbml2ZXJzaXR5IG9mIENpbmNp
bm5hdGkgLjEsMCoGA1UECwwjRGVwdC4gRWxlYy4gQ29tcC4gLiBFbmcuIENvbXAu
IFNjaS4xEDAOBgNVBAMMB2NsaWVudDQxKDAmBgkqhkiG9w0BCQEWGWZyYW5jb0Bn
YXVzcy5lY2Vjcy51Yy5lZHUwggEiMA0GCSqGSIb3DQEBAQUAA4IBDwAwggEKAoIB
AQCq7ssh34QMOxYzuD3TvYacYDRr3XJ6aF6JpTYIOxDYF7DYYed+i1XKaoUNidPR
MYIR4kgN3vbUl+0Ypk5B+9Dk9GLt1YynJbaK3MhGAc0p7hALHrb0McjOtQeJtIRC
wNU0szkF4hi26VabmxxcF1eDjD1n6WWLoEmyfS/SKyWZplN6nsyBq0L/Q8FdporU
sOJFLRzzSpZ4J6tReCd7DKltCkHVaOgIyGM28zBcIUa9ujp4CwOACHCFFr+9XaPS
deC4/2RDZ4LlPGkHWQXUtWXU3Kd/myqd3q14Z2aHWxgj7DHEEXGL5pd5UwZ1wv/s
FWUC6Ptr4pyd/tjaXr+3/ksfAgMBAAGjggE3MIIBMzAJBgNVHRMEAjAAMB0GA1Ud
DgQWBBRmBd/RZN1Ok9P73oGKxZ0cecGP7zCB5AYDVR0jBIHcMIHZgBScDtWjFm/I
I4jREsljXRjZyfxb6aGBtaSBsjCBrzELMAkGA1UEBhMCVVMxEzARBgNVBAgMCkNh
bGlmb3JuaWExFjAUBgNVBAcMDVNhbiBGcmFuY2lzY28xIDAeBgNVBAoMF0NvcHls
ZWZ0IENlcnRpZmljYXRlIENvMR8wHQYDVQQLDBZNeSBPcmdhbml6YXRpb25hbCBV
bml0MREwDwYDVQQDDAhDaGFuZ2VNZTEdMBsGCSqGSIb3DQEJARYObWVAZXhhbXBs
ZS5uZXSCCQCjCCaA0keYdTATBgNVHSUEDDAKBggrBgEFBQcDAjALBgNVHQ8EBAMC
B4AwDQYJKoZIhvcNAQELBQADggEBAA5UDh2BYZgbQvpavLvcXgAKHDRouhwdxTWt
IpjL6GOzTRyhp59hKoRrME9UX6CSpf6fmQNe4GD7zKoZrGVUNa4AH2/EBLJB/0VI
007wM+0Be05dTZalb+vT0gwj1gkWHQt4YgaZinYRGCY9kyPnurBIMMghHgJnEi3S
Nqng6Cf5KKF3qOXPe9QBGcQ1ogEYgkv5bXbs47nXYBjUMWXm2spUaooNvZaWKQ66
MCmQd2SMow0dF2iklfIq4dBUl+1EZm0X6qVJQqKac+CqOaqm93wrgzuaqMZlb77b
5b5j81T3VDGAyXFin8xYKfjPjaRxr0ZH5BTM7xnpu9rRTxqZzmE=
-----END CERTIFICATE-----
