Certificate:
    Data:
        Version: 3 (0x2)
        Serial Number:
            80:42:1d:aa:0d:52:46:d6:14:86:4f:ee:40:e9:b5:a8
    Signature Algorithm: sha256WithRSAEncryption
        Issuer: C=US, ST=California, L=San Francisco, O=Copyleft Certificate Co, OU=My Organizational Unit, CN=ChangeMe/emailAddress=me@example.net
        Validity
            Not Before: Nov 12 11:48:59 2023 GMT
            Not After : Nov 11 11:48:59 2024 GMT
        Subject: C=US, ST=OH, L=Cincinnati, O=University of Cincinnati, OU=Dept. Elec. Comp. Eng. Comp. Sci., CN=client41/emailAddress=franco@gauss.ececs.uc.edu
        Subject Public Key Info:
            Public Key Algorithm: rsaEncryption
                Public-Key: (2048 bit)
                Modulus:
                    00:c6:f0:b1:ba:d1:2e:c0:c0:23:ca:37:98:b5:07:
                    3a:c0:55:c0:fa:13:19:86:e9:86:ab:fd:f6:3d:be:
                    30:27:15:64:3a:44:b1:e5:a9:13:66:aa:96:49:27:
                    f0:78:f6:42:a3:02:e0:cd:05:a4:a0:21:2b:19:1a:
                    c7:e4:e8:e8:1b:eb:98:84:94:1c:64:52:3b:1c:7a:
                    73:e3:ad:5e:07:7e:0b:9e:39:7a:df:f9:6d:a5:b5:
                    7c:b1:a0:d8:4d:0f:33:f2:01:17:93:ff:ee:48:c6:
                    e8:cf:40:0f:62:d9:da:8a:89:20:c8:82:2f:c3:94:
                    b2:d7:ac:fa:7f:01:10:f2:3e:8d:a0:67:81:c0:81:
                    7f:8d:6a:15:16:0a:43:ac:3d:96:62:36:63:e0:b9:
                    18:be:3f:3d:c6:fd:c8:2e:eb:e5:06:03:79:dc:2c:
                    aa:6a:56:fd:20:df:f3:d4:4b:2e:a5:1e:16:0d:e9:
                    3b:cb:cc:a3:e9:58:81:bc:ed:fc:bd:77:6d:c2:24:
                    43:27:12:72:aa:4a:2d:ac:c2:6f:d6:8b:e4:3e:77:
                    5c:b9:fc:38:a3:83:a7:75:cb:1c:de:18:ab:aa:af:
                    70:1e:cb:1d:d8:ec:d5:d2:54:95:86:5a:be:2d:0a:
                    c1:49:15:ad:a3:17:cd:80:c0:07:71:0a:e8:5f:de:
                    b7:2f
                Exponent: 65537 (0x10001)
        X509v3 extensions:
            X509v3 Basic Constraints: 
                CA:FALSE
            X509v3 Subject Key Identifier: 
                D0:06:92:C8:C5:C8:4E:77:89:2F:CA:48:1D:1D:AF:51:2F:15:CF:2D
            X509v3 Authority Key Identifier: 
                keyid:C4:46:F2:96:38:56:02:B8:9D:09:04:52:25:91:35:97:6A:D7:B1:F0
                DirName:/C=US/ST=California/L=San Francisco/O=Copyleft Certificate Co/OU=My Organizational Unit/CN=ChangeMe/emailAddress=me@example.net
                serial:D1:5A:15:1C:F0:20:95:62

            X509v3 Extended Key Usage: 
                TLS Web Client Authentication
            X509v3 Key Usage: 
                Digital Signature
    Signature Algorithm: sha256WithRSAEncryption
         3d:65:e6:21:a0:25:63:c8:7b:3f:ed:98:bb:ff:7a:ba:1b:ab:
         e5:42:f4:2e:41:06:bf:e6:50:6b:46:9c:19:78:65:21:6d:75:
         42:e1:c0:ee:0f:af:ca:b9:0f:0b:f4:63:94:37:b6:25:e4:13:
         45:09:bf:94:1c:45:31:be:b7:6e:72:36:a2:62:68:96:a8:b9:
         e7:38:a8:08:b9:dd:cb:14:95:d6:cf:37:3e:8c:82:24:af:4e:
         4d:08:52:de:7c:dd:13:3f:a3:e9:c4:ab:e4:a6:36:e5:4e:fb:
         de:c4:93:d5:e7:95:78:dc:e4:6a:9a:1c:07:89:81:8c:9a:dc:
         46:d7:68:2e:ed:f0:c7:16:ec:0a:6a:14:bd:b9:d4:67:3b:bd:
         77:ef:14:ad:d4:d5:41:79:05:df:a9:b8:03:dd:01:6a:57:27:
         c7:d2:71:f7:31:1a:62:a0:ea:ff:22:7c:cf:2f:a6:5d:8c:ce:
         4a:e8:0e:43:64:f8:5d:f0:5e:03:b7:da:76:df:b5:18:4b:e0:
         75:11:3d:7e:aa:c8:53:56:6e:6c:8e:8b:3d:bc:de:9e:72:2a:
         3a:61:32:36:95:a5:b9:09:04:c3:58:e1:6d:13:06:12:e7:07:
         fc:c1:3a:02:45:50:c9:b6:d5:8e:45:36:8d:f5:86:ba:eb:53:
         71:d6:37:2d
-----BEGIN CERTIFICATE-----
MIIFMDCCBBigAwIBAgIRAIBCHaoNUkbWFIZP7kDptagwDQYJKoZIhvcNAQELBQAw
ga8xCzAJBgNVBAYTAlVTMRMwEQYDVQQIDApDYWxpZm9ybmlhMRYwFAYDVQQHDA1T
YW4gRnJhbmNpc2NvMSAwHgYDVQQKDBdDb3B5bGVmdCBDZXJ0aWZpY2F0ZSBDbzEf
MB0GA1UECwwWTXkgT3JnYW5pemF0aW9uYWwgVW5pdDERMA8GA1UEAwwIQ2hhbmdl
TWUxHTAbBgkqhkiG9w0BCQEWDm1lQGV4YW1wbGUubmV0MB4XDTIzMTExMjExNDg1
OVoXDTI0MTExMTExNDg1OVowgbsxCzAJBgNVBAYTAlVTMQswCQYDVQQIDAJPSDET
MBEGA1UEBwwKQ2luY2lubmF0aTEhMB8GA1UECgwYVW5pdmVyc2l0eSBvZiBDaW5j
aW5uYXRpMSowKAYDVQQLDCFEZXB0LiBFbGVjLiBDb21wLiBFbmcuIENvbXAuIFNj
aS4xETAPBgNVBAMMCGNsaWVudDQxMSgwJgYJKoZIhvcNAQkBFhlmcmFuY29AZ2F1
c3MuZWNlY3MudWMuZWR1MIIBIjANBgkqhkiG9w0BAQEFAAOCAQ8AMIIBCgKCAQEA
xvCxutEuwMAjyjeYtQc6wFXA+hMZhumGq/32Pb4wJxVkOkSx5akTZqqWSSfwePZC
owLgzQWkoCErGRrH5OjoG+uYhJQcZFI7HHpz461eB34Lnjl63/ltpbV8saDYTQ8z
8gEXk//uSMboz0APYtnaiokgyIIvw5Sy16z6fwEQ8j6NoGeBwIF/jWoVFgpDrD2W
YjZj4LkYvj89xv3ILuvlBgN53Cyqalb9IN/z1EsupR4WDek7y8yj6ViBvO38vXdt
wiRDJxJyqkotrMJv1ovkPndcufw4o4Ondcsc3hirqq9wHssd2OzV0lSVhlq+LQrB
SRWtoxfNgMAHcQroX963LwIDAQABo4IBNzCCATMwCQYDVR0TBAIwADAdBgNVHQ4E
FgQU0AaSyMXITneJL8pIHR2vUS8Vzy0wgeQGA1UdIwSB3DCB2YAUxEbyljhWArid
CQRSJZE1l2rXsfChgbWkgbIwga8xCzAJBgNVBAYTAlVTMRMwEQYDVQQIDApDYWxp
Zm9ybmlhMRYwFAYDVQQHDA1TYW4gRnJhbmNpc2NvMSAwHgYDVQQKDBdDb3B5bGVm
dCBDZXJ0aWZpY2F0ZSBDbzEfMB0GA1UECwwWTXkgT3JnYW5pemF0aW9uYWwgVW5p
dDERMA8GA1UEAwwIQ2hhbmdlTWUxHTAbBgkqhkiG9w0BCQEWDm1lQGV4YW1wbGUu
bmV0ggkA0VoVHPAglWIwEwYDVR0lBAwwCgYIKwYBBQUHAwIwCwYDVR0PBAQDAgeA
MA0GCSqGSIb3DQEBCwUAA4IBAQA9ZeYhoCVjyHs/7Zi7/3q6G6vlQvQuQQa/5lBr
RpwZeGUhbXVC4cDuD6/KuQ8L9GOUN7Yl5BNFCb+UHEUxvrducjaiYmiWqLnnOKgI
ud3LFJXWzzc+jIIkr05NCFLefN0TP6PpxKvkpjblTvvexJPV55V43ORqmhwHiYGM
mtxG12gu7fDHFuwKahS9udRnO7137xSt1NVBeQXfqbgD3QFqVyfH0nH3MRpioOr/
InzPL6ZdjM5K6A5DZPhd8F4Dt9p237UYS+B1ET1+qshTVm5sjos9vN6ecio6YTI2
laW5CQTDWOFtEwYS5wf8wToCRVDJttWORTaN9Ya661Nx1jct
-----END CERTIFICATE-----
