Certificate:
    Data:
        Version: 3 (0x2)
        Serial Number:
            84:b9:af:9d:b7:0e:25:78:7f:2d:4a:e7:fb:0d:60:62
    Signature Algorithm: sha256WithRSAEncryption
        Issuer: C=US, ST=California, L=San Francisco, O=Copyleft Certificate Co, OU=My Organizational Unit, CN=ChangeMe/emailAddress=me@example.net
        Validity
            Not Before: Jan 23 18:30:15 2021 GMT
            Not After : Jan 23 18:30:15 2022 GMT
        Subject: C=US, ST=OH, L=Cincinnati, O=University of Cincinnati, OU=Dept. Electrical Eng. and Computer Sci., CN=client127/emailAddress=franco@gauss.ececs.uc.edu
        Subject Public Key Info:
            Public Key Algorithm: rsaEncryption
                Public-Key: (2048 bit)
                Modulus:
                    00:cd:3d:bc:f4:26:fa:d5:1a:12:4d:ee:4a:f2:a9:
                    bf:10:67:a8:90:2f:8f:60:ca:97:14:41:4f:15:7a:
                    57:03:50:89:9c:e1:1e:39:2c:b4:71:ca:74:96:f6:
                    d5:ea:50:04:72:29:20:f5:26:27:cd:f0:01:01:89:
                    3e:1e:5f:a8:ca:5b:61:b7:ed:bf:58:77:53:bc:f0:
                    61:bb:21:d1:a0:60:f6:65:86:b9:62:63:c0:eb:62:
                    b3:4c:ca:d7:1a:b3:46:99:96:c5:dd:63:f0:36:10:
                    c0:f4:f1:6f:a5:50:6a:62:6c:80:5c:79:d1:a0:7e:
                    7e:6b:b5:1f:b7:e6:e9:87:1e:ba:76:b7:09:0e:c9:
                    c9:3a:12:16:5a:56:7a:3a:f6:a1:40:f2:a7:7c:bb:
                    05:60:8d:51:23:e0:d5:ae:71:08:9d:64:aa:13:19:
                    fa:88:e9:45:9a:5b:2c:aa:c7:bd:21:aa:ee:2a:76:
                    10:13:02:c5:bd:28:74:d5:be:d7:81:80:36:5c:75:
                    cb:e6:e9:0f:2d:22:2a:0f:56:db:83:e4:93:c7:fe:
                    6f:8b:95:d0:56:5d:87:f0:dd:b4:c9:d4:0e:51:cf:
                    d1:bb:58:d6:8d:ec:ef:1f:35:10:68:bb:e3:30:b9:
                    f1:87:6e:6b:5f:73:f7:0e:50:4d:70:ba:d0:de:c6:
                    ad:fd
                Exponent: 65537 (0x10001)
        X509v3 extensions:
            X509v3 Basic Constraints: 
                CA:FALSE
            X509v3 Subject Key Identifier: 
                B5:31:47:18:17:25:F3:D6:70:CC:C4:9B:8F:8C:0C:D0:EB:07:9B:47
            X509v3 Authority Key Identifier: 
                keyid:EF:DC:B6:3D:4B:FD:A7:87:05:C5:22:3D:8B:DC:BF:99:2A:EE:E4:DB
                DirName:/C=US/ST=California/L=San Francisco/O=Copyleft Certificate Co/OU=My Organizational Unit/CN=ChangeMe/emailAddress=me@example.net
                serial:87:1E:1D:DC:6B:8C:66:88

            X509v3 Extended Key Usage: 
                TLS Web Client Authentication
            X509v3 Key Usage: 
                Digital Signature
    Signature Algorithm: sha256WithRSAEncryption
         2b:68:a9:ef:3f:74:dd:98:ca:0e:a8:06:90:52:18:17:7d:83:
         06:04:74:e2:89:d5:a4:0b:57:69:1c:b3:34:c3:52:62:c1:ca:
         65:bd:be:cf:2f:46:cd:c2:22:75:eb:2d:be:ba:54:26:96:48:
         bd:bc:39:f1:42:72:a2:29:b3:83:6e:f1:63:6c:f2:af:bf:0a:
         52:6e:e2:a9:e3:42:38:b9:46:5b:1b:37:b1:1a:51:e5:86:38:
         3a:2b:9e:9b:3c:5d:d5:4c:17:0d:5a:43:e3:15:0e:d2:7f:c5:
         91:e1:7a:a8:ff:74:db:a1:1a:9c:4e:32:d6:c3:b4:30:76:8c:
         0f:3c:2e:09:30:a8:c8:b7:cd:40:c2:70:91:08:13:bf:31:20:
         95:6a:47:c9:2d:60:15:a0:c8:85:24:8b:7a:d1:9a:c3:5c:30:
         db:a5:35:2c:84:ab:b8:19:31:8a:08:d3:3c:16:9b:35:06:0d:
         14:a1:dc:59:6e:7c:54:6a:4c:d2:18:a8:5d:93:17:27:5d:38:
         71:1e:67:36:af:87:df:9a:ad:67:94:62:2b:e2:30:68:3d:bd:
         14:70:53:49:85:22:8a:75:c7:14:74:5b:10:fc:fc:be:fc:e3:
         4d:1f:07:63:60:8a:05:7d:1e:33:05:6a:27:09:3a:23:3c:af:
         8b:e9:69:25
-----BEGIN CERTIFICATE-----
MIIFNzCCBB+gAwIBAgIRAIS5r523DiV4fy1K5/sNYGIwDQYJKoZIhvcNAQELBQAw
ga8xCzAJBgNVBAYTAlVTMRMwEQYDVQQIDApDYWxpZm9ybmlhMRYwFAYDVQQHDA1T
YW4gRnJhbmNpc2NvMSAwHgYDVQQKDBdDb3B5bGVmdCBDZXJ0aWZpY2F0ZSBDbzEf
MB0GA1UECwwWTXkgT3JnYW5pemF0aW9uYWwgVW5pdDERMA8GA1UEAwwIQ2hhbmdl
TWUxHTAbBgkqhkiG9w0BCQEWDm1lQGV4YW1wbGUubmV0MB4XDTIxMDEyMzE4MzAx
NVoXDTIyMDEyMzE4MzAxNVowgcIxCzAJBgNVBAYTAlVTMQswCQYDVQQIDAJPSDET
MBEGA1UEBwwKQ2luY2lubmF0aTEhMB8GA1UECgwYVW5pdmVyc2l0eSBvZiBDaW5j
aW5uYXRpMTAwLgYDVQQLDCdEZXB0LiBFbGVjdHJpY2FsIEVuZy4gYW5kIENvbXB1
dGVyIFNjaS4xEjAQBgNVBAMMCWNsaWVudDEyNzEoMCYGCSqGSIb3DQEJARYZZnJh
bmNvQGdhdXNzLmVjZWNzLnVjLmVkdTCCASIwDQYJKoZIhvcNAQEBBQADggEPADCC
AQoCggEBAM09vPQm+tUaEk3uSvKpvxBnqJAvj2DKlxRBTxV6VwNQiZzhHjkstHHK
dJb21epQBHIpIPUmJ83wAQGJPh5fqMpbYbftv1h3U7zwYbsh0aBg9mWGuWJjwOti
s0zK1xqzRpmWxd1j8DYQwPTxb6VQamJsgFx50aB+fmu1H7fm6Yceuna3CQ7JyToS
FlpWejr2oUDyp3y7BWCNUSPg1a5xCJ1kqhMZ+ojpRZpbLKrHvSGq7ip2EBMCxb0o
dNW+14GANlx1y+bpDy0iKg9W24Pkk8f+b4uV0FZdh/DdtMnUDlHP0btY1o3s7x81
EGi74zC58Ydua19z9w5QTXC60N7Grf0CAwEAAaOCATcwggEzMAkGA1UdEwQCMAAw
HQYDVR0OBBYEFLUxRxgXJfPWcMzEm4+MDNDrB5tHMIHkBgNVHSMEgdwwgdmAFO/c
tj1L/aeHBcUiPYvcv5kq7uTboYG1pIGyMIGvMQswCQYDVQQGEwJVUzETMBEGA1UE
CAwKQ2FsaWZvcm5pYTEWMBQGA1UEBwwNU2FuIEZyYW5jaXNjbzEgMB4GA1UECgwX
Q29weWxlZnQgQ2VydGlmaWNhdGUgQ28xHzAdBgNVBAsMFk15IE9yZ2FuaXphdGlv
bmFsIFVuaXQxETAPBgNVBAMMCENoYW5nZU1lMR0wGwYJKoZIhvcNAQkBFg5tZUBl
eGFtcGxlLm5ldIIJAIceHdxrjGaIMBMGA1UdJQQMMAoGCCsGAQUFBwMCMAsGA1Ud
DwQEAwIHgDANBgkqhkiG9w0BAQsFAAOCAQEAK2ip7z903ZjKDqgGkFIYF32DBgR0
4onVpAtXaRyzNMNSYsHKZb2+zy9GzcIidestvrpUJpZIvbw58UJyoimzg27xY2zy
r78KUm7iqeNCOLlGWxs3sRpR5YY4Oiuemzxd1UwXDVpD4xUO0n/FkeF6qP9026Ea
nE4y1sO0MHaMDzwuCTCoyLfNQMJwkQgTvzEglWpHyS1gFaDIhSSLetGaw1ww26U1
LISruBkxigjTPBabNQYNFKHcWW58VGpM0hioXZMXJ104cR5nNq+H35qtZ5RiK+Iw
aD29FHBTSYUiinXHFHRbEPz8vvzjTR8HY2CKBX0eMwVqJwk6Izyvi+lpJQ==
-----END CERTIFICATE-----
