Certificate:
    Data:
        Version: 3 (0x2)
        Serial Number:
            85:fc:45:2b:9e:a1:fb:5f:bd:19:06:02:9f:98:da:9e
    Signature Algorithm: sha256WithRSAEncryption
        Issuer: C=US, ST=California, L=San Francisco, O=Copyleft Certificate Co, OU=My Organizational Unit, CN=ChangeMe/emailAddress=me@example.net
        Validity
            Not Before: Nov 11 18:51:36 2023 GMT
            Not After : Nov 10 18:51:36 2024 GMT
        Subject: C=US, ST=OH, L=Cincinnati, O=University of Cincinnati ., OU=Dept. Elec. Comp. . Eng. Comp. Sci., CN=client25/emailAddress=franco@gauss.ececs.uc.edu
        Subject Public Key Info:
            Public Key Algorithm: rsaEncryption
                Public-Key: (2048 bit)
                Modulus:
                    00:b8:48:ab:ed:f1:75:c0:9c:57:23:d4:b4:89:aa:
                    2d:7b:f4:76:a1:d7:9e:95:8e:9d:66:69:11:ef:b5:
                    11:c1:0b:12:3e:ce:1e:34:95:43:fe:95:c1:52:91:
                    ce:a1:e1:f3:a3:c4:57:a9:b4:76:bc:56:84:c0:42:
                    5d:8a:19:08:c2:7f:19:b3:46:61:7b:1d:a8:d2:ed:
                    78:b4:2b:2a:d4:0f:b7:05:88:62:8b:56:64:0a:6d:
                    35:3e:00:2a:aa:26:6b:c5:ca:ec:9d:e7:cf:1b:06:
                    5e:e3:ab:c2:87:81:e4:e8:18:01:5f:0f:56:2f:9c:
                    2e:3b:9b:d1:28:e6:19:87:1b:56:48:e4:c9:4c:2f:
                    bb:1d:9c:b5:3e:bd:7a:52:99:f4:fc:39:91:4a:5c:
                    94:b9:31:8f:92:5d:33:39:5d:b3:da:e6:1b:73:0e:
                    5e:59:9c:5f:d3:cd:04:ce:48:9e:5f:b4:ec:e5:4e:
                    80:ef:06:18:da:af:76:ee:e8:34:1d:65:04:a2:f4:
                    d2:5a:13:ef:55:db:b1:54:30:75:6b:df:39:a4:1e:
                    71:c1:82:6c:98:66:e8:ea:34:48:c8:6f:7e:f6:fd:
                    69:0a:ee:c0:26:56:b6:5f:31:a6:e1:8f:3a:fb:ab:
                    ac:5d:e7:42:21:4e:60:b8:7d:3f:42:7f:33:ac:72:
                    7e:91
                Exponent: 65537 (0x10001)
        X509v3 extensions:
            X509v3 Basic Constraints: 
                CA:FALSE
            X509v3 Subject Key Identifier: 
                38:77:16:25:0F:66:10:CA:22:93:23:FC:8B:AC:71:B5:C6:36:0C:50
            X509v3 Authority Key Identifier: 
                keyid:9C:0E:D5:A3:16:6F:C8:23:88:D1:12:C9:63:5D:18:D9:C9:FC:5B:E9
                DirName:/C=US/ST=California/L=San Francisco/O=Copyleft Certificate Co/OU=My Organizational Unit/CN=ChangeMe/emailAddress=me@example.net
                serial:A3:08:26:80:D2:47:98:75

            X509v3 Extended Key Usage: 
                TLS Web Client Authentication
            X509v3 Key Usage: 
                Digital Signature
    Signature Algorithm: sha256WithRSAEncryption
         a2:81:d7:26:c8:4d:bf:06:29:5b:68:4a:07:00:9f:73:3b:3b:
         13:2a:e0:f7:60:01:14:7c:8c:18:d9:6e:19:20:57:83:40:a2:
         e5:e7:56:12:bf:2c:d6:bc:ca:e8:5f:b7:fd:5c:f4:e6:2b:98:
         df:30:84:5b:88:b9:ad:8b:80:9f:1c:47:a7:11:a1:3e:55:82:
         8a:7b:71:27:55:2e:62:46:38:c6:f9:0f:21:a3:c7:ba:d8:66:
         17:a0:b9:ff:f8:f1:47:63:cc:5e:3e:cd:c2:45:e5:84:49:83:
         0d:54:a4:61:66:c4:a2:c9:51:04:2d:8c:ab:83:99:47:c9:13:
         1a:cd:69:44:ed:6f:92:e8:4d:b3:69:36:ee:c8:e4:f4:16:15:
         1f:82:e4:ee:1f:c7:34:ee:1b:3d:f4:fc:f3:a5:d3:43:5d:db:
         5d:9e:5b:a7:90:2e:eb:b8:e8:e3:eb:7e:00:7e:ed:9c:f7:fa:
         33:13:05:00:af:1b:8c:f8:9d:aa:7c:dc:be:02:07:8c:fe:8b:
         1d:ba:47:16:8c:15:2f:6d:74:3d:ec:f6:59:64:6c:55:95:09:
         3d:a3:76:c0:76:59:9c:41:47:3d:bb:94:e2:a8:1c:de:e8:f9:
         97:8c:31:47:72:43:62:04:42:d8:0e:a8:bc:a0:82:b5:09:b5:
         f5:f7:29:17
-----BEGIN CERTIFICATE-----
MIIFNDCCBBygAwIBAgIRAIX8RSueoftfvRkGAp+Y2p4wDQYJKoZIhvcNAQELBQAw
ga8xCzAJBgNVBAYTAlVTMRMwEQYDVQQIDApDYWxpZm9ybmlhMRYwFAYDVQQHDA1T
YW4gRnJhbmNpc2NvMSAwHgYDVQQKDBdDb3B5bGVmdCBDZXJ0aWZpY2F0ZSBDbzEf
MB0GA1UECwwWTXkgT3JnYW5pemF0aW9uYWwgVW5pdDERMA8GA1UEAwwIQ2hhbmdl
TWUxHTAbBgkqhkiG9w0BCQEWDm1lQGV4YW1wbGUubmV0MB4XDTIzMTExMTE4NTEz
NloXDTI0MTExMDE4NTEzNlowgb8xCzAJBgNVBAYTAlVTMQswCQYDVQQIDAJPSDET
MBEGA1UEBwwKQ2luY2lubmF0aTEjMCEGA1UECgwaVW5pdmVyc2l0eSBvZiBDaW5j
aW5uYXRpIC4xLDAqBgNVBAsMI0RlcHQuIEVsZWMuIENvbXAuIC4gRW5nLiBDb21w
LiBTY2kuMREwDwYDVQQDDAhjbGllbnQyNTEoMCYGCSqGSIb3DQEJARYZZnJhbmNv
QGdhdXNzLmVjZWNzLnVjLmVkdTCCASIwDQYJKoZIhvcNAQEBBQADggEPADCCAQoC
ggEBALhIq+3xdcCcVyPUtImqLXv0dqHXnpWOnWZpEe+1EcELEj7OHjSVQ/6VwVKR
zqHh86PEV6m0drxWhMBCXYoZCMJ/GbNGYXsdqNLteLQrKtQPtwWIYotWZAptNT4A
Kqoma8XK7J3nzxsGXuOrwoeB5OgYAV8PVi+cLjub0SjmGYcbVkjkyUwvux2ctT69
elKZ9Pw5kUpclLkxj5JdMzlds9rmG3MOXlmcX9PNBM5Inl+07OVOgO8GGNqvdu7o
NB1lBKL00loT71XbsVQwdWvfOaQeccGCbJhm6Oo0SMhvfvb9aQruwCZWtl8xpuGP
OvurrF3nQiFOYLh9P0J/M6xyfpECAwEAAaOCATcwggEzMAkGA1UdEwQCMAAwHQYD
VR0OBBYEFDh3FiUPZhDKIpMj/IuscbXGNgxQMIHkBgNVHSMEgdwwgdmAFJwO1aMW
b8gjiNESyWNdGNnJ/FvpoYG1pIGyMIGvMQswCQYDVQQGEwJVUzETMBEGA1UECAwK
Q2FsaWZvcm5pYTEWMBQGA1UEBwwNU2FuIEZyYW5jaXNjbzEgMB4GA1UECgwXQ29w
eWxlZnQgQ2VydGlmaWNhdGUgQ28xHzAdBgNVBAsMFk15IE9yZ2FuaXphdGlvbmFs
IFVuaXQxETAPBgNVBAMMCENoYW5nZU1lMR0wGwYJKoZIhvcNAQkBFg5tZUBleGFt
cGxlLm5ldIIJAKMIJoDSR5h1MBMGA1UdJQQMMAoGCCsGAQUFBwMCMAsGA1UdDwQE
AwIHgDANBgkqhkiG9w0BAQsFAAOCAQEAooHXJshNvwYpW2hKBwCfczs7Eyrg92AB
FHyMGNluGSBXg0Ci5edWEr8s1rzK6F+3/Vz05iuY3zCEW4i5rYuAnxxHpxGhPlWC
intxJ1UuYkY4xvkPIaPHuthmF6C5//jxR2PMXj7NwkXlhEmDDVSkYWbEoslRBC2M
q4OZR8kTGs1pRO1vkuhNs2k27sjk9BYVH4Lk7h/HNO4bPfT886XTQ13bXZ5bp5Au
67jo4+t+AH7tnPf6MxMFAK8bjPidqnzcvgIHjP6LHbpHFowVL210Pez2WWRsVZUJ
PaN2wHZZnEFHPbuU4qgc3uj5l4wxR3JDYgRC2A6ovKCCtQm19fcpFw==
-----END CERTIFICATE-----
