Certificate:
    Data:
        Version: 3 (0x2)
        Serial Number:
            86:6a:b5:59:2c:f5:08:42:a7:e8:4b:b0:9c:da:7a:ff
    Signature Algorithm: sha256WithRSAEncryption
        Issuer: C=US, ST=California, L=San Francisco, O=Copyleft Certificate Co, OU=My Organizational Unit, CN=ChangeMe/emailAddress=me@example.net
        Validity
            Not Before: Jan 23 18:29:19 2021 GMT
            Not After : Jan 23 18:29:19 2022 GMT
        Subject: C=US, ST=OH, L=Cincinnati, O=University of Cincinnati, OU=Dept. Electrical Eng. and Computer Sci., CN=client88/emailAddress=franco@gauss.ececs.uc.edu
        Subject Public Key Info:
            Public Key Algorithm: rsaEncryption
                Public-Key: (2048 bit)
                Modulus:
                    00:d6:a3:d9:70:17:37:63:c4:a8:e0:39:31:f1:94:
                    89:72:25:93:1e:ec:24:2d:5e:53:75:0e:d5:ba:92:
                    59:4b:87:71:23:32:01:dc:8d:c8:b4:b3:b4:76:26:
                    41:51:03:94:87:c2:e5:be:0f:e8:10:98:f4:1b:05:
                    fd:53:41:75:85:b8:68:8f:97:b2:81:5a:36:87:d5:
                    01:2d:9f:4c:2a:a8:6f:87:03:24:6b:64:86:36:cc:
                    20:1b:63:18:27:59:89:35:c3:82:3b:37:f5:04:ae:
                    10:d5:84:89:58:16:55:f0:3f:b9:f0:09:96:95:17:
                    24:05:9f:7c:f1:63:ac:e8:90:37:82:c4:29:ba:70:
                    a2:0c:2e:f6:fc:5a:9a:cf:db:3f:49:82:11:2e:30:
                    e2:77:43:66:2c:6f:6d:dc:07:a5:08:89:4f:58:04:
                    9c:f1:7b:c9:43:70:98:a6:91:ac:db:e4:54:9d:a5:
                    dc:d8:66:d0:f8:59:f1:ea:49:4d:dd:35:ba:da:aa:
                    26:32:95:71:2d:82:da:db:6b:55:a1:a5:59:c9:c8:
                    90:19:50:b4:97:88:f0:b2:65:77:c3:d1:58:4e:92:
                    66:00:eb:ff:63:86:7b:18:89:b4:03:6e:f6:2e:fb:
                    ac:bc:26:70:54:4d:7d:c1:12:86:7f:80:37:56:c1:
                    cb:ab
                Exponent: 65537 (0x10001)
        X509v3 extensions:
            X509v3 Basic Constraints: 
                CA:FALSE
            X509v3 Subject Key Identifier: 
                C3:1E:08:8D:34:98:A0:1A:CD:6F:57:02:4E:21:B9:6D:2E:35:1B:A6
            X509v3 Authority Key Identifier: 
                keyid:EF:DC:B6:3D:4B:FD:A7:87:05:C5:22:3D:8B:DC:BF:99:2A:EE:E4:DB
                DirName:/C=US/ST=California/L=San Francisco/O=Copyleft Certificate Co/OU=My Organizational Unit/CN=ChangeMe/emailAddress=me@example.net
                serial:87:1E:1D:DC:6B:8C:66:88

            X509v3 Extended Key Usage: 
                TLS Web Client Authentication
            X509v3 Key Usage: 
                Digital Signature
    Signature Algorithm: sha256WithRSAEncryption
         05:d8:3a:f3:19:cf:93:bc:80:95:b3:48:99:52:a7:28:a6:c3:
         69:c6:5d:e2:a2:04:c2:c9:31:b6:d1:33:9e:50:57:69:af:b6:
         c9:7d:a3:fa:32:11:4e:fe:8e:9c:d0:5a:d6:1d:1b:49:d3:59:
         1d:06:7c:c2:2b:4f:06:89:1d:f4:42:ae:70:68:11:1b:c8:57:
         01:95:46:e1:bc:47:30:ff:de:e6:33:22:5e:bb:1d:f0:e2:f4:
         b0:0c:12:e6:69:08:0e:5f:f0:59:f6:f8:5d:8b:9a:c4:8e:dc:
         4a:57:6c:5d:72:a3:5c:c6:89:34:1a:eb:e4:b8:bb:3e:d0:8f:
         1c:f3:84:c9:45:0a:c6:47:ce:b4:79:42:37:2a:a0:e3:d3:12:
         ec:49:a9:4c:fa:d9:43:3f:73:02:fa:f4:3f:19:64:a8:69:e0:
         ea:44:fa:60:0f:af:8c:19:6c:81:13:17:fe:34:22:c9:1c:1b:
         a3:20:95:9c:22:68:2a:30:60:f1:4b:10:17:c9:dd:24:a2:93:
         fd:57:df:16:9e:93:ef:82:1e:12:53:38:0c:6e:db:54:b8:b9:
         4b:69:a9:24:04:0c:2e:2f:a4:66:65:72:0f:20:90:fa:e3:71:
         47:df:73:81:5b:bf:f3:29:ec:20:73:5a:c1:44:25:8f:ac:3b:
         ce:40:53:94
-----BEGIN CERTIFICATE-----
MIIFNjCCBB6gAwIBAgIRAIZqtVks9QhCp+hLsJzaev8wDQYJKoZIhvcNAQELBQAw
ga8xCzAJBgNVBAYTAlVTMRMwEQYDVQQIDApDYWxpZm9ybmlhMRYwFAYDVQQHDA1T
YW4gRnJhbmNpc2NvMSAwHgYDVQQKDBdDb3B5bGVmdCBDZXJ0aWZpY2F0ZSBDbzEf
MB0GA1UECwwWTXkgT3JnYW5pemF0aW9uYWwgVW5pdDERMA8GA1UEAwwIQ2hhbmdl
TWUxHTAbBgkqhkiG9w0BCQEWDm1lQGV4YW1wbGUubmV0MB4XDTIxMDEyMzE4Mjkx
OVoXDTIyMDEyMzE4MjkxOVowgcExCzAJBgNVBAYTAlVTMQswCQYDVQQIDAJPSDET
MBEGA1UEBwwKQ2luY2lubmF0aTEhMB8GA1UECgwYVW5pdmVyc2l0eSBvZiBDaW5j
aW5uYXRpMTAwLgYDVQQLDCdEZXB0LiBFbGVjdHJpY2FsIEVuZy4gYW5kIENvbXB1
dGVyIFNjaS4xETAPBgNVBAMMCGNsaWVudDg4MSgwJgYJKoZIhvcNAQkBFhlmcmFu
Y29AZ2F1c3MuZWNlY3MudWMuZWR1MIIBIjANBgkqhkiG9w0BAQEFAAOCAQ8AMIIB
CgKCAQEA1qPZcBc3Y8So4Dkx8ZSJciWTHuwkLV5TdQ7VupJZS4dxIzIB3I3ItLO0
diZBUQOUh8Llvg/oEJj0GwX9U0F1hbhoj5eygVo2h9UBLZ9MKqhvhwMka2SGNswg
G2MYJ1mJNcOCOzf1BK4Q1YSJWBZV8D+58AmWlRckBZ988WOs6JA3gsQpunCiDC72
/Fqaz9s/SYIRLjDid0NmLG9t3AelCIlPWASc8XvJQ3CYppGs2+RUnaXc2GbQ+Fnx
6klN3TW62qomMpVxLYLa22tVoaVZyciQGVC0l4jwsmV3w9FYTpJmAOv/Y4Z7GIm0
A272LvusvCZwVE19wRKGf4A3VsHLqwIDAQABo4IBNzCCATMwCQYDVR0TBAIwADAd
BgNVHQ4EFgQUwx4IjTSYoBrNb1cCTiG5bS41G6YwgeQGA1UdIwSB3DCB2YAU79y2
PUv9p4cFxSI9i9y/mSru5NuhgbWkgbIwga8xCzAJBgNVBAYTAlVTMRMwEQYDVQQI
DApDYWxpZm9ybmlhMRYwFAYDVQQHDA1TYW4gRnJhbmNpc2NvMSAwHgYDVQQKDBdD
b3B5bGVmdCBDZXJ0aWZpY2F0ZSBDbzEfMB0GA1UECwwWTXkgT3JnYW5pemF0aW9u
YWwgVW5pdDERMA8GA1UEAwwIQ2hhbmdlTWUxHTAbBgkqhkiG9w0BCQEWDm1lQGV4
YW1wbGUubmV0ggkAhx4d3GuMZogwEwYDVR0lBAwwCgYIKwYBBQUHAwIwCwYDVR0P
BAQDAgeAMA0GCSqGSIb3DQEBCwUAA4IBAQAF2DrzGc+TvICVs0iZUqcopsNpxl3i
ogTCyTG20TOeUFdpr7bJfaP6MhFO/o6c0FrWHRtJ01kdBnzCK08GiR30Qq5waBEb
yFcBlUbhvEcw/97mMyJeux3w4vSwDBLmaQgOX/BZ9vhdi5rEjtxKV2xdcqNcxok0
GuvkuLs+0I8c84TJRQrGR860eUI3KqDj0xLsSalM+tlDP3MC+vQ/GWSoaeDqRPpg
D6+MGWyBExf+NCLJHBujIJWcImgqMGDxSxAXyd0kopP9V98WnpPvgh4SUzgMbttU
uLlLaakkBAwuL6RmZXIPIJD643FH33OBW7/zKewgc1rBRCWPrDvOQFOU
-----END CERTIFICATE-----
