Certificate:
    Data:
        Version: 3 (0x2)
        Serial Number:
            87:1e:9d:df:5e:50:74:e2:f7:80:5a:be:22:81:b3:d9
    Signature Algorithm: sha256WithRSAEncryption
        Issuer: C=US, ST=California, L=San Francisco, O=Copyleft Certificate Co, OU=My Organizational Unit, CN=ChangeMe/emailAddress=me@example.net
        Validity
            Not Before: Nov 11 18:50:28 2023 GMT
            Not After : Nov 10 18:50:28 2024 GMT
        Subject: C=US, ST=OH, L=Cincinnati, O=University of Cincinnati ., OU=Dept. Elec. Comp. . Eng. Comp. Sci., CN=client8/emailAddress=franco@gauss.ececs.uc.edu
        Subject Public Key Info:
            Public Key Algorithm: rsaEncryption
                Public-Key: (2048 bit)
                Modulus:
                    00:c4:3d:ca:82:e1:b5:80:b3:fd:e5:21:43:72:32:
                    e7:fa:57:8c:42:c7:38:31:f4:74:de:eb:10:90:f5:
                    3a:0c:8f:a9:36:46:8e:25:fe:ac:0a:0e:ce:74:cd:
                    de:3c:fd:77:e9:85:d3:b9:c3:fc:5b:15:54:1c:82:
                    83:99:dc:bc:64:59:e2:40:81:e8:ae:17:ac:5b:8e:
                    4a:5f:95:be:84:64:b3:c1:2d:25:ef:08:30:68:8f:
                    2e:57:3c:29:84:87:98:09:e7:8e:07:aa:5b:e2:b4:
                    27:ed:cb:94:d3:7c:44:9a:d5:de:f3:80:f5:8f:d0:
                    2f:09:10:a0:d9:7a:f7:54:31:50:b5:a4:c3:81:5f:
                    22:bb:d0:d2:18:5c:08:26:09:41:e7:b1:f8:09:06:
                    43:57:f4:39:d5:6c:aa:29:d5:59:8e:3c:ee:68:8e:
                    1c:13:57:23:e6:ef:94:58:36:c1:23:fb:8e:5e:86:
                    40:8f:80:ed:d1:d8:b9:ce:37:2d:a5:5b:7b:c1:50:
                    a3:76:ce:98:8f:00:86:f1:c8:18:09:ec:c1:1c:1b:
                    c7:b9:52:27:34:db:79:15:a2:d8:cf:66:90:bd:9c:
                    a0:f8:e1:01:2f:de:fc:c3:e4:f8:88:61:26:e3:11:
                    f3:32:76:d8:b4:c5:fe:fe:34:f1:c3:ab:34:13:99:
                    cc:f1
                Exponent: 65537 (0x10001)
        X509v3 extensions:
            X509v3 Basic Constraints: 
                CA:FALSE
            X509v3 Subject Key Identifier: 
                73:60:E8:5D:97:AD:3C:1D:0C:EB:B3:BC:9F:E6:10:A9:04:93:FF:53
            X509v3 Authority Key Identifier: 
                keyid:9C:0E:D5:A3:16:6F:C8:23:88:D1:12:C9:63:5D:18:D9:C9:FC:5B:E9
                DirName:/C=US/ST=California/L=San Francisco/O=Copyleft Certificate Co/OU=My Organizational Unit/CN=ChangeMe/emailAddress=me@example.net
                serial:A3:08:26:80:D2:47:98:75

            X509v3 Extended Key Usage: 
                TLS Web Client Authentication
            X509v3 Key Usage: 
                Digital Signature
    Signature Algorithm: sha256WithRSAEncryption
         b1:cc:1d:0c:46:99:62:f1:ad:5b:69:ad:5d:96:4f:e6:63:cd:
         17:cc:58:0a:6e:33:34:c0:47:30:b3:de:a7:e3:ac:76:8e:cf:
         1a:52:03:38:8b:d8:bd:ea:f9:36:f7:ec:a0:ac:65:48:d4:6d:
         0f:8b:e5:de:26:a7:15:be:2f:7d:46:8b:43:d9:c7:96:22:28:
         c9:82:cf:4c:34:b8:a4:44:10:b7:e8:9e:e1:ed:86:e5:2a:2e:
         4f:5e:05:0e:4e:d4:aa:07:6a:1c:b0:97:5d:cd:74:74:76:0f:
         ea:6d:50:59:6d:e7:94:72:42:8c:d4:08:f6:a5:07:ed:58:bc:
         83:d7:77:b5:d3:c9:b0:27:58:f9:1f:5f:63:b9:da:45:9e:ef:
         b3:e6:fb:ec:fb:7d:18:83:c7:86:4f:2a:f4:83:a6:83:12:57:
         15:09:77:ee:34:5c:fb:f4:61:b2:ee:ba:6b:60:3e:df:e6:18:
         fc:42:45:51:cb:e1:49:d0:af:f6:d3:a6:60:7f:4f:fa:69:8f:
         7d:02:25:20:65:d3:e6:b9:33:44:21:51:69:b7:8b:80:de:0a:
         d8:79:1a:14:aa:80:ec:98:82:2f:15:db:51:17:67:99:5c:b2:
         d8:37:6c:b8:e6:f3:4c:2a:6d:f8:35:1f:27:1b:a9:59:bc:9d:
         e0:9a:c6:11
-----BEGIN CERTIFICATE-----
MIIFMzCCBBugAwIBAgIRAIcend9eUHTi94BaviKBs9kwDQYJKoZIhvcNAQELBQAw
ga8xCzAJBgNVBAYTAlVTMRMwEQYDVQQIDApDYWxpZm9ybmlhMRYwFAYDVQQHDA1T
YW4gRnJhbmNpc2NvMSAwHgYDVQQKDBdDb3B5bGVmdCBDZXJ0aWZpY2F0ZSBDbzEf
MB0GA1UECwwWTXkgT3JnYW5pemF0aW9uYWwgVW5pdDERMA8GA1UEAwwIQ2hhbmdl
TWUxHTAbBgkqhkiG9w0BCQEWDm1lQGV4YW1wbGUubmV0MB4XDTIzMTExMTE4NTAy
OFoXDTI0MTExMDE4NTAyOFowgb4xCzAJBgNVBAYTAlVTMQswCQYDVQQIDAJPSDET
MBEGA1UEBwwKQ2luY2lubmF0aTEjMCEGA1UECgwaVW5pdmVyc2l0eSBvZiBDaW5j
aW5uYXRpIC4xLDAqBgNVBAsMI0RlcHQuIEVsZWMuIENvbXAuIC4gRW5nLiBDb21w
LiBTY2kuMRAwDgYDVQQDDAdjbGllbnQ4MSgwJgYJKoZIhvcNAQkBFhlmcmFuY29A
Z2F1c3MuZWNlY3MudWMuZWR1MIIBIjANBgkqhkiG9w0BAQEFAAOCAQ8AMIIBCgKC
AQEAxD3KguG1gLP95SFDcjLn+leMQsc4MfR03usQkPU6DI+pNkaOJf6sCg7OdM3e
PP136YXTucP8WxVUHIKDmdy8ZFniQIHorhesW45KX5W+hGSzwS0l7wgwaI8uVzwp
hIeYCeeOB6pb4rQn7cuU03xEmtXe84D1j9AvCRCg2Xr3VDFQtaTDgV8iu9DSGFwI
JglB57H4CQZDV/Q51WyqKdVZjjzuaI4cE1cj5u+UWDbBI/uOXoZAj4Dt0di5zjct
pVt7wVCjds6YjwCG8cgYCezBHBvHuVInNNt5FaLYz2aQvZyg+OEBL978w+T4iGEm
4xHzMnbYtMX+/jTxw6s0E5nM8QIDAQABo4IBNzCCATMwCQYDVR0TBAIwADAdBgNV
HQ4EFgQUc2DoXZetPB0M67O8n+YQqQST/1MwgeQGA1UdIwSB3DCB2YAUnA7VoxZv
yCOI0RLJY10Y2cn8W+mhgbWkgbIwga8xCzAJBgNVBAYTAlVTMRMwEQYDVQQIDApD
YWxpZm9ybmlhMRYwFAYDVQQHDA1TYW4gRnJhbmNpc2NvMSAwHgYDVQQKDBdDb3B5
bGVmdCBDZXJ0aWZpY2F0ZSBDbzEfMB0GA1UECwwWTXkgT3JnYW5pemF0aW9uYWwg
VW5pdDERMA8GA1UEAwwIQ2hhbmdlTWUxHTAbBgkqhkiG9w0BCQEWDm1lQGV4YW1w
bGUubmV0ggkAowgmgNJHmHUwEwYDVR0lBAwwCgYIKwYBBQUHAwIwCwYDVR0PBAQD
AgeAMA0GCSqGSIb3DQEBCwUAA4IBAQCxzB0MRpli8a1baa1dlk/mY80XzFgKbjM0
wEcws96n46x2js8aUgM4i9i96vk29+ygrGVI1G0Pi+XeJqcVvi99RotD2ceWIijJ
gs9MNLikRBC36J7h7YblKi5PXgUOTtSqB2ocsJddzXR0dg/qbVBZbeeUckKM1Aj2
pQftWLyD13e108mwJ1j5H19judpFnu+z5vvs+30Yg8eGTyr0g6aDElcVCXfuNFz7
9GGy7rprYD7f5hj8QkVRy+FJ0K/206Zgf0/6aY99AiUgZdPmuTNEIVFpt4uA3grY
eRoUqoDsmIIvFdtRF2eZXLLYN2y45vNMKm34NR8nG6lZvJ3gmsYR
-----END CERTIFICATE-----
