Certificate:
    Data:
        Version: 3 (0x2)
        Serial Number:
            87:53:eb:77:e7:d9:90:6e:be:3d:10:9d:45:0c:5c:4b
    Signature Algorithm: sha256WithRSAEncryption
        Issuer: C=US, ST=California, L=San Francisco, O=Copyleft Certificate Co, OU=My Organizational Unit, CN=ChangeMe/emailAddress=me@example.net
        Validity
            Not Before: Nov 11 18:53:00 2023 GMT
            Not After : Nov 10 18:53:00 2024 GMT
        Subject: C=US, ST=OH, L=Cincinnati, O=University of Cincinnati ., OU=Dept. Elec. Comp. . Eng. Comp. Sci., CN=client46/emailAddress=franco@gauss.ececs.uc.edu
        Subject Public Key Info:
            Public Key Algorithm: rsaEncryption
                Public-Key: (2048 bit)
                Modulus:
                    00:be:bc:11:27:31:76:d8:22:bd:b1:9f:06:f5:4e:
                    e7:a9:62:53:d6:4e:f3:10:04:72:66:5a:11:62:c4:
                    c5:3d:7e:30:58:52:35:42:27:cd:40:53:7a:5f:13:
                    7e:ed:59:d2:fe:3a:2f:75:c0:c7:b1:ea:07:4c:6a:
                    38:0c:09:e7:1d:9e:f6:3f:63:26:e3:b4:2a:43:0b:
                    d1:72:a7:06:89:cc:61:9c:09:e7:d5:ad:b0:8a:d2:
                    24:ee:bc:20:e6:ad:76:19:4b:79:a8:7b:4c:ee:4f:
                    73:26:0c:dd:a8:5d:34:b8:63:fe:ed:06:56:76:38:
                    30:4d:00:c4:b1:7b:df:30:ee:a7:ab:00:3c:fc:e3:
                    07:e1:a8:67:b1:68:19:17:aa:2b:63:8f:01:8f:f2:
                    c6:10:74:60:24:ea:72:15:d0:8f:4b:1f:fb:58:7d:
                    57:1e:b1:ae:3f:a0:06:0c:f4:20:e3:29:11:5f:13:
                    0f:e1:d9:f5:26:5f:4b:e1:c1:92:dc:60:2b:d2:f8:
                    d8:23:b1:d2:2b:d1:70:8e:80:bb:11:4b:b2:b8:f2:
                    c9:2a:31:50:7c:69:da:3f:59:50:45:66:d6:f0:41:
                    99:52:ef:ce:f8:d9:1a:51:21:71:b7:e4:9d:74:bf:
                    21:4c:bc:60:2a:1c:83:98:35:68:74:79:37:cb:11:
                    e1:af
                Exponent: 65537 (0x10001)
        X509v3 extensions:
            X509v3 Basic Constraints: 
                CA:FALSE
            X509v3 Subject Key Identifier: 
                29:A6:A4:E5:D5:E8:0D:9E:2B:7C:91:E6:04:1C:F8:AE:35:99:06:92
            X509v3 Authority Key Identifier: 
                keyid:9C:0E:D5:A3:16:6F:C8:23:88:D1:12:C9:63:5D:18:D9:C9:FC:5B:E9
                DirName:/C=US/ST=California/L=San Francisco/O=Copyleft Certificate Co/OU=My Organizational Unit/CN=ChangeMe/emailAddress=me@example.net
                serial:A3:08:26:80:D2:47:98:75

            X509v3 Extended Key Usage: 
                TLS Web Client Authentication
            X509v3 Key Usage: 
                Digital Signature
    Signature Algorithm: sha256WithRSAEncryption
         21:f3:45:36:6c:99:a3:52:18:be:cd:42:06:d9:26:15:b5:8d:
         df:de:92:65:9e:dd:49:19:dd:4b:6f:fe:85:c8:31:e4:f5:10:
         79:81:89:9e:77:20:9e:f3:9a:ae:34:f3:bf:a2:55:9d:45:4e:
         d9:93:c6:a4:62:d4:de:e5:1f:6a:b6:ec:e0:5b:73:9c:c4:8b:
         2f:f8:cd:06:91:72:63:b2:8d:78:25:26:69:2f:61:3c:42:bc:
         80:1a:2e:4b:3f:67:2c:66:06:33:02:96:37:5c:3a:40:c7:5d:
         a6:03:c0:7f:ca:ef:f3:45:7a:b1:2d:35:d5:a0:50:9e:a8:55:
         3b:87:af:06:dd:5d:82:bb:48:b7:d5:9b:8f:fa:18:1c:80:0f:
         34:8d:10:d1:58:66:e3:08:6a:69:17:2d:f5:03:a6:f9:67:92:
         9f:5c:cc:49:3d:0e:7f:bc:aa:d9:2e:c7:18:9b:5b:ab:18:a2:
         84:a0:47:5a:b0:29:d7:4b:dd:7c:28:48:c6:ff:8c:3b:1e:15:
         e0:ae:12:81:e2:c0:c5:d9:c5:a9:51:6f:aa:76:6e:61:e8:4b:
         96:54:67:6a:01:6e:05:6b:bb:4c:90:d7:d8:87:cc:83:d7:77:
         93:cc:63:dd:97:55:4c:9e:c6:a2:b7:49:66:30:fa:1c:0d:81:
         f5:74:90:b1
-----BEGIN CERTIFICATE-----
MIIFNDCCBBygAwIBAgIRAIdT63fn2ZBuvj0QnUUMXEswDQYJKoZIhvcNAQELBQAw
ga8xCzAJBgNVBAYTAlVTMRMwEQYDVQQIDApDYWxpZm9ybmlhMRYwFAYDVQQHDA1T
YW4gRnJhbmNpc2NvMSAwHgYDVQQKDBdDb3B5bGVmdCBDZXJ0aWZpY2F0ZSBDbzEf
MB0GA1UECwwWTXkgT3JnYW5pemF0aW9uYWwgVW5pdDERMA8GA1UEAwwIQ2hhbmdl
TWUxHTAbBgkqhkiG9w0BCQEWDm1lQGV4YW1wbGUubmV0MB4XDTIzMTExMTE4NTMw
MFoXDTI0MTExMDE4NTMwMFowgb8xCzAJBgNVBAYTAlVTMQswCQYDVQQIDAJPSDET
MBEGA1UEBwwKQ2luY2lubmF0aTEjMCEGA1UECgwaVW5pdmVyc2l0eSBvZiBDaW5j
aW5uYXRpIC4xLDAqBgNVBAsMI0RlcHQuIEVsZWMuIENvbXAuIC4gRW5nLiBDb21w
LiBTY2kuMREwDwYDVQQDDAhjbGllbnQ0NjEoMCYGCSqGSIb3DQEJARYZZnJhbmNv
QGdhdXNzLmVjZWNzLnVjLmVkdTCCASIwDQYJKoZIhvcNAQEBBQADggEPADCCAQoC
ggEBAL68EScxdtgivbGfBvVO56liU9ZO8xAEcmZaEWLExT1+MFhSNUInzUBTel8T
fu1Z0v46L3XAx7HqB0xqOAwJ5x2e9j9jJuO0KkML0XKnBonMYZwJ59WtsIrSJO68
IOatdhlLeah7TO5PcyYM3ahdNLhj/u0GVnY4ME0AxLF73zDup6sAPPzjB+GoZ7Fo
GReqK2OPAY/yxhB0YCTqchXQj0sf+1h9Vx6xrj+gBgz0IOMpEV8TD+HZ9SZfS+HB
ktxgK9L42COx0ivRcI6AuxFLsrjyySoxUHxp2j9ZUEVm1vBBmVLvzvjZGlEhcbfk
nXS/IUy8YCocg5g1aHR5N8sR4a8CAwEAAaOCATcwggEzMAkGA1UdEwQCMAAwHQYD
VR0OBBYEFCmmpOXV6A2eK3yR5gQc+K41mQaSMIHkBgNVHSMEgdwwgdmAFJwO1aMW
b8gjiNESyWNdGNnJ/FvpoYG1pIGyMIGvMQswCQYDVQQGEwJVUzETMBEGA1UECAwK
Q2FsaWZvcm5pYTEWMBQGA1UEBwwNU2FuIEZyYW5jaXNjbzEgMB4GA1UECgwXQ29w
eWxlZnQgQ2VydGlmaWNhdGUgQ28xHzAdBgNVBAsMFk15IE9yZ2FuaXphdGlvbmFs
IFVuaXQxETAPBgNVBAMMCENoYW5nZU1lMR0wGwYJKoZIhvcNAQkBFg5tZUBleGFt
cGxlLm5ldIIJAKMIJoDSR5h1MBMGA1UdJQQMMAoGCCsGAQUFBwMCMAsGA1UdDwQE
AwIHgDANBgkqhkiG9w0BAQsFAAOCAQEAIfNFNmyZo1IYvs1CBtkmFbWN396SZZ7d
SRndS2/+hcgx5PUQeYGJnncgnvOarjTzv6JVnUVO2ZPGpGLU3uUfarbs4FtznMSL
L/jNBpFyY7KNeCUmaS9hPEK8gBouSz9nLGYGMwKWN1w6QMddpgPAf8rv80V6sS01
1aBQnqhVO4evBt1dgrtIt9Wbj/oYHIAPNI0Q0Vhm4whqaRct9QOm+WeSn1zMST0O
f7yq2S7HGJtbqxiihKBHWrAp10vdfChIxv+MOx4V4K4SgeLAxdnFqVFvqnZuYehL
llRnagFuBWu7TJDX2IfMg9d3k8xj3ZdVTJ7GordJZjD6HA2B9XSQsQ==
-----END CERTIFICATE-----
