Certificate:
    Data:
        Version: 3 (0x2)
        Serial Number:
            87:ff:44:d7:7d:2e:46:04:d8:03:fb:02:a3:79:8a:a6
    Signature Algorithm: sha256WithRSAEncryption
        Issuer: C=US, ST=California, L=San Francisco, O=Copyleft Certificate Co, OU=My Organizational Unit, CN=ChangeMe/emailAddress=me@example.net
        Validity
            Not Before: Nov 11 18:52:40 2023 GMT
            Not After : Nov 10 18:52:40 2024 GMT
        Subject: C=US, ST=OH, L=Cincinnati, O=University of Cincinnati ., OU=Dept. Elec. Comp. . Eng. Comp. Sci., CN=client41/emailAddress=franco@gauss.ececs.uc.edu
        Subject Public Key Info:
            Public Key Algorithm: rsaEncryption
                Public-Key: (2048 bit)
                Modulus:
                    00:c7:a9:6f:1c:22:fd:57:b2:b5:d8:f7:21:1f:26:
                    96:55:00:3a:19:d4:77:a3:40:c8:75:63:a0:97:e1:
                    1e:ed:1d:90:38:b1:db:b3:ea:90:04:29:c2:59:0c:
                    25:74:ea:8e:26:84:0b:a0:25:85:73:bc:31:00:84:
                    e0:c2:8b:ea:04:a0:a5:03:bd:5c:be:1d:8b:b3:dd:
                    f8:b0:fb:cc:a7:cd:a2:d0:87:f0:c1:3a:09:6d:20:
                    32:3c:8c:dd:82:af:69:c8:16:93:5e:d5:67:65:e0:
                    cb:5d:b5:05:b8:d6:b0:24:2d:15:2c:69:68:84:3a:
                    07:6b:95:92:65:0c:e7:4c:b3:6f:76:a7:de:d8:c2:
                    a2:78:7a:9d:96:f9:11:dc:1d:b9:5d:df:78:3e:d2:
                    07:a3:c9:a3:6e:49:2a:f2:9e:4c:cb:21:e7:22:38:
                    23:ee:20:c1:ec:fe:4c:17:04:a2:0f:4f:5c:ae:d0:
                    ae:b8:da:e9:42:bd:72:2a:ca:06:95:c8:48:97:b3:
                    10:34:77:9b:6a:a2:55:b6:71:ab:18:26:c9:14:cf:
                    1a:9e:58:69:9e:a4:6a:6e:f0:25:fd:22:c3:30:45:
                    b2:b0:03:61:2c:1e:58:59:44:ff:79:6e:94:6b:a0:
                    bf:33:8a:2c:8f:c1:f4:2a:68:c4:8f:85:c1:1c:de:
                    44:4b
                Exponent: 65537 (0x10001)
        X509v3 extensions:
            X509v3 Basic Constraints: 
                CA:FALSE
            X509v3 Subject Key Identifier: 
                03:33:55:4F:50:BA:75:99:9B:56:75:C8:CF:DE:87:E3:AB:ED:0F:BC
            X509v3 Authority Key Identifier: 
                keyid:9C:0E:D5:A3:16:6F:C8:23:88:D1:12:C9:63:5D:18:D9:C9:FC:5B:E9
                DirName:/C=US/ST=California/L=San Francisco/O=Copyleft Certificate Co/OU=My Organizational Unit/CN=ChangeMe/emailAddress=me@example.net
                serial:A3:08:26:80:D2:47:98:75

            X509v3 Extended Key Usage: 
                TLS Web Client Authentication
            X509v3 Key Usage: 
                Digital Signature
    Signature Algorithm: sha256WithRSAEncryption
         8c:61:4c:d6:ee:6a:a2:3f:d6:5f:aa:b8:5e:af:47:f6:6a:70:
         70:cb:2a:2a:fd:5b:89:12:59:5f:1b:c4:2a:0f:77:fc:2e:3c:
         e8:5d:cd:56:40:76:13:83:60:32:8a:07:77:d0:42:15:0e:d6:
         8a:4a:24:e0:cc:81:28:36:36:b7:93:82:ef:66:26:47:15:6e:
         5c:50:b6:5e:9b:c9:37:0b:9d:06:d3:ca:e2:0e:8b:a1:69:7c:
         26:5a:89:43:d4:bf:25:a8:3b:4b:cc:57:12:c4:af:33:fc:92:
         f1:ba:0e:27:b9:b4:6b:3b:d4:98:ae:40:2a:d7:b1:c9:3d:70:
         e9:0d:39:82:08:63:6d:17:59:4e:cc:3d:61:1e:d2:8a:61:b2:
         63:bf:58:bf:1a:45:2e:11:c1:bb:e2:80:83:66:33:32:0a:12:
         d3:b4:22:6e:07:34:35:14:f3:6d:2f:93:d8:0c:5d:24:eb:75:
         38:e4:26:42:7c:1f:f3:0f:62:17:06:98:b1:be:f2:db:02:73:
         6e:4e:a4:d4:34:7e:54:f1:7b:02:95:48:72:46:3f:8f:91:18:
         60:a0:24:f1:92:cc:fd:55:27:e6:be:ec:65:bb:16:ca:08:7c:
         8c:80:c5:da:3f:25:65:27:e3:b6:f4:8c:69:9d:ac:ce:64:64:
         ed:7e:5e:29
-----BEGIN CERTIFICATE-----
MIIFNDCCBBygAwIBAgIRAIf/RNd9LkYE2AP7AqN5iqYwDQYJKoZIhvcNAQELBQAw
ga8xCzAJBgNVBAYTAlVTMRMwEQYDVQQIDApDYWxpZm9ybmlhMRYwFAYDVQQHDA1T
YW4gRnJhbmNpc2NvMSAwHgYDVQQKDBdDb3B5bGVmdCBDZXJ0aWZpY2F0ZSBDbzEf
MB0GA1UECwwWTXkgT3JnYW5pemF0aW9uYWwgVW5pdDERMA8GA1UEAwwIQ2hhbmdl
TWUxHTAbBgkqhkiG9w0BCQEWDm1lQGV4YW1wbGUubmV0MB4XDTIzMTExMTE4NTI0
MFoXDTI0MTExMDE4NTI0MFowgb8xCzAJBgNVBAYTAlVTMQswCQYDVQQIDAJPSDET
MBEGA1UEBwwKQ2luY2lubmF0aTEjMCEGA1UECgwaVW5pdmVyc2l0eSBvZiBDaW5j
aW5uYXRpIC4xLDAqBgNVBAsMI0RlcHQuIEVsZWMuIENvbXAuIC4gRW5nLiBDb21w
LiBTY2kuMREwDwYDVQQDDAhjbGllbnQ0MTEoMCYGCSqGSIb3DQEJARYZZnJhbmNv
QGdhdXNzLmVjZWNzLnVjLmVkdTCCASIwDQYJKoZIhvcNAQEBBQADggEPADCCAQoC
ggEBAMepbxwi/Veytdj3IR8mllUAOhnUd6NAyHVjoJfhHu0dkDix27PqkAQpwlkM
JXTqjiaEC6AlhXO8MQCE4MKL6gSgpQO9XL4di7Pd+LD7zKfNotCH8ME6CW0gMjyM
3YKvacgWk17VZ2Xgy121BbjWsCQtFSxpaIQ6B2uVkmUM50yzb3an3tjConh6nZb5
EdwduV3feD7SB6PJo25JKvKeTMsh5yI4I+4gwez+TBcEog9PXK7Qrrja6UK9cirK
BpXISJezEDR3m2qiVbZxqxgmyRTPGp5YaZ6kam7wJf0iwzBFsrADYSweWFlE/3lu
lGugvzOKLI/B9CpoxI+FwRzeREsCAwEAAaOCATcwggEzMAkGA1UdEwQCMAAwHQYD
VR0OBBYEFAMzVU9QunWZm1Z1yM/eh+Or7Q+8MIHkBgNVHSMEgdwwgdmAFJwO1aMW
b8gjiNESyWNdGNnJ/FvpoYG1pIGyMIGvMQswCQYDVQQGEwJVUzETMBEGA1UECAwK
Q2FsaWZvcm5pYTEWMBQGA1UEBwwNU2FuIEZyYW5jaXNjbzEgMB4GA1UECgwXQ29w
eWxlZnQgQ2VydGlmaWNhdGUgQ28xHzAdBgNVBAsMFk15IE9yZ2FuaXphdGlvbmFs
IFVuaXQxETAPBgNVBAMMCENoYW5nZU1lMR0wGwYJKoZIhvcNAQkBFg5tZUBleGFt
cGxlLm5ldIIJAKMIJoDSR5h1MBMGA1UdJQQMMAoGCCsGAQUFBwMCMAsGA1UdDwQE
AwIHgDANBgkqhkiG9w0BAQsFAAOCAQEAjGFM1u5qoj/WX6q4Xq9H9mpwcMsqKv1b
iRJZXxvEKg93/C486F3NVkB2E4NgMooHd9BCFQ7Wikok4MyBKDY2t5OC72YmRxVu
XFC2XpvJNwudBtPK4g6LoWl8JlqJQ9S/Jag7S8xXEsSvM/yS8boOJ7m0azvUmK5A
KtexyT1w6Q05gghjbRdZTsw9YR7SimGyY79YvxpFLhHBu+KAg2YzMgoS07Qibgc0
NRTzbS+T2AxdJOt1OOQmQnwf8w9iFwaYsb7y2wJzbk6k1DR+VPF7ApVIckY/j5EY
YKAk8ZLM/VUn5r7sZbsWygh8jIDF2j8lZSfjtvSMaZ2szmRk7X5eKQ==
-----END CERTIFICATE-----
