Certificate:
    Data:
        Version: 3 (0x2)
        Serial Number:
            8b:1c:18:d8:81:6e:6d:36:f8:67:5a:9f:7b:2a:70:73
    Signature Algorithm: sha256WithRSAEncryption
        Issuer: C=US, ST=California, L=San Francisco, O=Copyleft Certificate Co, OU=My Organizational Unit, CN=ChangeMe/emailAddress=me@example.net
        Validity
            Not Before: Nov 11 18:53:16 2023 GMT
            Not After : Nov 10 18:53:16 2024 GMT
        Subject: C=US, ST=OH, L=Cincinnati, O=University of Cincinnati ., OU=Dept. Elec. Comp. . Eng. Comp. Sci., CN=client50/emailAddress=franco@gauss.ececs.uc.edu
        Subject Public Key Info:
            Public Key Algorithm: rsaEncryption
                Public-Key: (2048 bit)
                Modulus:
                    00:ad:39:2e:84:ce:ec:31:8a:04:1a:b6:b2:d9:c8:
                    33:03:88:2a:c4:95:ec:26:f8:5c:e6:bb:4e:14:76:
                    e7:60:a2:32:b1:ba:16:c6:da:73:73:4f:02:e4:0b:
                    07:30:b1:52:7e:7c:35:c0:a5:cc:3b:50:7c:2b:28:
                    ed:59:a4:29:75:8f:aa:0e:60:60:b7:1a:c1:71:fe:
                    43:8d:dd:13:f8:b0:d9:4e:bb:a7:a4:6a:0a:63:4f:
                    10:d5:76:d1:38:f2:aa:1d:4d:9e:39:15:86:7c:21:
                    04:ba:0a:ea:1e:d5:e9:92:d4:cc:e5:e5:0f:f8:13:
                    d4:87:78:88:af:99:c0:c9:6a:db:35:0f:89:c6:63:
                    36:bb:a4:24:6e:0d:f4:42:07:72:8b:64:b3:20:e4:
                    0c:39:74:4e:94:62:40:75:7c:68:af:95:18:f2:fd:
                    b4:6e:19:32:b7:c6:01:64:da:bb:72:49:f6:3d:2f:
                    3c:68:8f:16:7d:f8:42:7a:e9:ec:db:2f:c5:a5:4f:
                    04:5b:80:e2:4f:56:e5:14:26:14:9a:d7:68:1b:14:
                    a8:46:a1:15:15:33:48:5f:1e:37:ff:04:55:3d:74:
                    d7:0f:43:ab:27:17:6c:e9:30:fc:6e:5d:75:2b:4c:
                    70:d3:ed:05:02:2d:2f:dd:e7:14:15:fe:b3:8d:8a:
                    30:ff
                Exponent: 65537 (0x10001)
        X509v3 extensions:
            X509v3 Basic Constraints: 
                CA:FALSE
            X509v3 Subject Key Identifier: 
                73:5A:D8:89:42:13:5A:38:0F:19:F6:9E:12:E2:6E:7E:45:AD:94:03
            X509v3 Authority Key Identifier: 
                keyid:9C:0E:D5:A3:16:6F:C8:23:88:D1:12:C9:63:5D:18:D9:C9:FC:5B:E9
                DirName:/C=US/ST=California/L=San Francisco/O=Copyleft Certificate Co/OU=My Organizational Unit/CN=ChangeMe/emailAddress=me@example.net
                serial:A3:08:26:80:D2:47:98:75

            X509v3 Extended Key Usage: 
                TLS Web Client Authentication
            X509v3 Key Usage: 
                Digital Signature
    Signature Algorithm: sha256WithRSAEncryption
         92:5d:eb:10:47:c2:79:39:6c:40:14:34:81:e3:98:40:1e:c3:
         96:af:db:04:71:83:55:fc:e2:fc:ae:6a:f9:9b:44:45:6f:29:
         8f:f4:b0:63:eb:18:db:4f:4f:3e:fb:ec:37:77:55:ed:b5:6c:
         05:4e:37:50:60:a3:79:72:4c:9a:d9:7b:e2:10:00:cd:97:5d:
         5b:c3:01:38:9f:97:ec:cc:66:94:b7:95:c8:d8:6f:ef:89:e1:
         6b:b9:0e:88:fe:01:f9:77:22:74:99:76:cc:16:00:b3:78:e7:
         cc:b9:73:f1:b8:8c:60:cc:96:f3:68:ca:2c:af:ca:cc:0e:b2:
         0c:9f:aa:3f:8c:c3:b1:99:0b:16:0b:62:53:18:df:81:10:a1:
         c7:7c:bd:bb:ee:54:a9:f5:e9:be:69:36:04:08:0f:92:d6:c8:
         2f:12:f2:19:37:39:35:89:e1:c2:04:92:6b:68:f5:59:58:1e:
         d4:f9:1d:84:e1:5b:42:10:3e:2d:44:2f:76:4b:2e:5a:39:cb:
         a4:f1:ac:25:4b:04:80:63:b7:b6:23:d5:e0:60:23:ae:e1:34:
         72:9f:37:c7:8a:a2:41:5a:47:3a:0f:80:13:ef:28:a4:82:8e:
         db:79:f3:b4:b2:92:f6:a9:58:6a:8d:58:55:1a:6d:56:50:f6:
         4a:e3:9e:10
-----BEGIN CERTIFICATE-----
MIIFNDCCBBygAwIBAgIRAIscGNiBbm02+Gdan3sqcHMwDQYJKoZIhvcNAQELBQAw
ga8xCzAJBgNVBAYTAlVTMRMwEQYDVQQIDApDYWxpZm9ybmlhMRYwFAYDVQQHDA1T
YW4gRnJhbmNpc2NvMSAwHgYDVQQKDBdDb3B5bGVmdCBDZXJ0aWZpY2F0ZSBDbzEf
MB0GA1UECwwWTXkgT3JnYW5pemF0aW9uYWwgVW5pdDERMA8GA1UEAwwIQ2hhbmdl
TWUxHTAbBgkqhkiG9w0BCQEWDm1lQGV4YW1wbGUubmV0MB4XDTIzMTExMTE4NTMx
NloXDTI0MTExMDE4NTMxNlowgb8xCzAJBgNVBAYTAlVTMQswCQYDVQQIDAJPSDET
MBEGA1UEBwwKQ2luY2lubmF0aTEjMCEGA1UECgwaVW5pdmVyc2l0eSBvZiBDaW5j
aW5uYXRpIC4xLDAqBgNVBAsMI0RlcHQuIEVsZWMuIENvbXAuIC4gRW5nLiBDb21w
LiBTY2kuMREwDwYDVQQDDAhjbGllbnQ1MDEoMCYGCSqGSIb3DQEJARYZZnJhbmNv
QGdhdXNzLmVjZWNzLnVjLmVkdTCCASIwDQYJKoZIhvcNAQEBBQADggEPADCCAQoC
ggEBAK05LoTO7DGKBBq2stnIMwOIKsSV7Cb4XOa7ThR252CiMrG6Fsbac3NPAuQL
BzCxUn58NcClzDtQfCso7VmkKXWPqg5gYLcawXH+Q43dE/iw2U67p6RqCmNPENV2
0Tjyqh1NnjkVhnwhBLoK6h7V6ZLUzOXlD/gT1Id4iK+ZwMlq2zUPicZjNrukJG4N
9EIHcotksyDkDDl0TpRiQHV8aK+VGPL9tG4ZMrfGAWTau3JJ9j0vPGiPFn34Qnrp
7NsvxaVPBFuA4k9W5RQmFJrXaBsUqEahFRUzSF8eN/8EVT101w9DqycXbOkw/G5d
dStMcNPtBQItL93nFBX+s42KMP8CAwEAAaOCATcwggEzMAkGA1UdEwQCMAAwHQYD
VR0OBBYEFHNa2IlCE1o4Dxn2nhLibn5FrZQDMIHkBgNVHSMEgdwwgdmAFJwO1aMW
b8gjiNESyWNdGNnJ/FvpoYG1pIGyMIGvMQswCQYDVQQGEwJVUzETMBEGA1UECAwK
Q2FsaWZvcm5pYTEWMBQGA1UEBwwNU2FuIEZyYW5jaXNjbzEgMB4GA1UECgwXQ29w
eWxlZnQgQ2VydGlmaWNhdGUgQ28xHzAdBgNVBAsMFk15IE9yZ2FuaXphdGlvbmFs
IFVuaXQxETAPBgNVBAMMCENoYW5nZU1lMR0wGwYJKoZIhvcNAQkBFg5tZUBleGFt
cGxlLm5ldIIJAKMIJoDSR5h1MBMGA1UdJQQMMAoGCCsGAQUFBwMCMAsGA1UdDwQE
AwIHgDANBgkqhkiG9w0BAQsFAAOCAQEAkl3rEEfCeTlsQBQ0geOYQB7Dlq/bBHGD
Vfzi/K5q+ZtERW8pj/SwY+sY209PPvvsN3dV7bVsBU43UGCjeXJMmtl74hAAzZdd
W8MBOJ+X7MxmlLeVyNhv74nha7kOiP4B+XcidJl2zBYAs3jnzLlz8biMYMyW82jK
LK/KzA6yDJ+qP4zDsZkLFgtiUxjfgRChx3y9u+5UqfXpvmk2BAgPktbILxLyGTc5
NYnhwgSSa2j1WVge1PkdhOFbQhA+LUQvdksuWjnLpPGsJUsEgGO3tiPV4GAjruE0
cp83x4qiQVpHOg+AE+8opIKO23nztLKS9qlYao1YVRptVlD2SuOeEA==
-----END CERTIFICATE-----
