Certificate:
    Data:
        Version: 3 (0x2)
        Serial Number:
            8b:2e:12:c3:b6:cf:40:2f:01:eb:c7:d9:3b:67:a3:59
    Signature Algorithm: sha256WithRSAEncryption
        Issuer: C=US, ST=California, L=San Francisco, O=Copyleft Certificate Co, OU=My Organizational Unit, CN=ChangeMe/emailAddress=me@example.net
        Validity
            Not Before: Nov 11 02:01:03 2023 GMT
            Not After : Nov 10 02:01:03 2024 GMT
        Subject: C=US, ST=OH, L=Cincinnati, O=University of Cincinnati, OU=Dept. Elec. Comp. Eng. Comp. Sci., CN=client45/emailAddress=franco@gauss.ececs.uc.edu
        Subject Public Key Info:
            Public Key Algorithm: rsaEncryption
                Public-Key: (2048 bit)
                Modulus:
                    00:a4:53:29:32:af:b8:76:eb:53:92:68:fd:46:e6:
                    3b:b1:9e:b3:0a:ca:0a:67:53:01:53:e4:8f:22:c4:
                    cb:b6:e3:58:1c:50:f3:56:a3:28:d3:98:ef:43:86:
                    2a:d5:f7:86:5c:00:a3:24:c8:8e:54:71:ec:8b:31:
                    86:fb:4f:e5:0b:1e:e5:30:87:9c:2f:6b:2d:75:3b:
                    34:b9:61:2f:94:b6:2e:5f:89:8d:24:67:b0:2c:e3:
                    c5:00:76:3f:cc:be:0d:61:e9:52:9d:22:ed:6c:94:
                    1b:82:0a:26:55:e6:cf:89:4a:a9:20:ee:53:d6:b9:
                    22:56:08:ed:d6:0c:ac:45:f8:d2:5e:00:d2:ca:22:
                    7e:9f:50:d6:14:f5:1b:df:6b:cd:15:48:3c:7a:7f:
                    d0:0f:86:15:b7:40:f5:72:ec:6a:ef:b4:31:7a:65:
                    e0:d2:4c:5d:c0:33:c0:3f:bd:cf:19:64:3f:7c:81:
                    cb:34:30:96:09:65:91:f7:eb:c8:3b:5f:20:04:53:
                    79:86:53:bd:66:c7:ce:ec:62:ad:8e:f2:4a:84:f8:
                    c1:fb:f9:58:34:8f:e9:2c:95:a8:22:76:d9:52:93:
                    22:b2:0a:e5:72:48:e7:ca:ee:f5:3c:80:11:f2:28:
                    11:d5:7a:db:3d:0b:d0:fe:f6:ab:c3:af:79:ae:0b:
                    9b:bb
                Exponent: 65537 (0x10001)
        X509v3 extensions:
            X509v3 Basic Constraints: 
                CA:FALSE
            X509v3 Subject Key Identifier: 
                F7:54:56:10:01:B2:47:56:BA:F6:B4:E9:8A:F4:8A:4B:DC:96:15:54
            X509v3 Authority Key Identifier: 
                keyid:7B:0F:93:16:64:9F:71:41:D3:1B:FB:ED:6A:70:9B:CA:2E:70:F0:4B
                DirName:/C=US/ST=California/L=San Francisco/O=Copyleft Certificate Co/OU=My Organizational Unit/CN=ChangeMe/emailAddress=me@example.net
                serial:B9:F2:4E:2C:79:B3:D4:6C

            X509v3 Extended Key Usage: 
                TLS Web Client Authentication
            X509v3 Key Usage: 
                Digital Signature
    Signature Algorithm: sha256WithRSAEncryption
         40:36:5b:b4:18:f1:bb:e8:1d:7a:45:27:0f:cb:21:06:85:65:
         2d:ca:b0:b0:98:2c:96:12:7a:2a:dd:4e:bd:44:44:ae:4a:37:
         dd:f5:12:df:25:52:47:c4:ae:5c:c9:de:51:af:69:92:32:9c:
         90:02:7f:78:fb:89:b1:5d:b1:db:32:16:76:2a:db:46:df:74:
         ad:08:97:e4:63:60:d6:f3:5e:6e:f0:e7:73:82:56:25:da:08:
         34:da:ef:ec:02:b9:28:4d:14:dd:40:70:1a:9e:a8:24:d1:45:
         d8:41:25:49:8a:48:58:80:26:48:6f:bf:1a:e1:bf:bb:14:65:
         45:01:e4:38:a6:dd:f0:5f:bd:cc:99:e1:be:be:c3:25:83:40:
         d6:af:44:de:7c:01:5c:d4:92:a0:73:8a:c9:4a:04:16:79:ee:
         cc:98:49:40:3e:75:e0:a8:14:aa:46:a2:4b:be:25:de:59:98:
         0e:6c:c5:be:0f:67:9a:ab:ea:40:12:0f:94:b6:33:26:78:50:
         ec:85:6c:a0:dc:39:31:16:bf:89:b6:ec:f6:c8:48:97:7d:15:
         41:f1:65:2d:fd:51:3b:70:b9:5b:7f:b6:73:b5:55:3b:25:00:
         fa:73:86:47:1a:bf:84:bb:ff:92:37:14:bc:ec:dd:cf:ce:e9:
         a7:3e:09:04
-----BEGIN CERTIFICATE-----
MIIFMDCCBBigAwIBAgIRAIsuEsO2z0AvAevH2Ttno1kwDQYJKoZIhvcNAQELBQAw
ga8xCzAJBgNVBAYTAlVTMRMwEQYDVQQIDApDYWxpZm9ybmlhMRYwFAYDVQQHDA1T
YW4gRnJhbmNpc2NvMSAwHgYDVQQKDBdDb3B5bGVmdCBDZXJ0aWZpY2F0ZSBDbzEf
MB0GA1UECwwWTXkgT3JnYW5pemF0aW9uYWwgVW5pdDERMA8GA1UEAwwIQ2hhbmdl
TWUxHTAbBgkqhkiG9w0BCQEWDm1lQGV4YW1wbGUubmV0MB4XDTIzMTExMTAyMDEw
M1oXDTI0MTExMDAyMDEwM1owgbsxCzAJBgNVBAYTAlVTMQswCQYDVQQIDAJPSDET
MBEGA1UEBwwKQ2luY2lubmF0aTEhMB8GA1UECgwYVW5pdmVyc2l0eSBvZiBDaW5j
aW5uYXRpMSowKAYDVQQLDCFEZXB0LiBFbGVjLiBDb21wLiBFbmcuIENvbXAuIFNj
aS4xETAPBgNVBAMMCGNsaWVudDQ1MSgwJgYJKoZIhvcNAQkBFhlmcmFuY29AZ2F1
c3MuZWNlY3MudWMuZWR1MIIBIjANBgkqhkiG9w0BAQEFAAOCAQ8AMIIBCgKCAQEA
pFMpMq+4dutTkmj9RuY7sZ6zCsoKZ1MBU+SPIsTLtuNYHFDzVqMo05jvQ4Yq1feG
XACjJMiOVHHsizGG+0/lCx7lMIecL2stdTs0uWEvlLYuX4mNJGewLOPFAHY/zL4N
YelSnSLtbJQbggomVebPiUqpIO5T1rkiVgjt1gysRfjSXgDSyiJ+n1DWFPUb32vN
FUg8en/QD4YVt0D1cuxq77QxemXg0kxdwDPAP73PGWQ/fIHLNDCWCWWR9+vIO18g
BFN5hlO9ZsfO7GKtjvJKhPjB+/lYNI/pLJWoInbZUpMisgrlckjnyu71PIAR8igR
1XrbPQvQ/varw695rgubuwIDAQABo4IBNzCCATMwCQYDVR0TBAIwADAdBgNVHQ4E
FgQU91RWEAGyR1a69rTpivSKS9yWFVQwgeQGA1UdIwSB3DCB2YAUew+TFmSfcUHT
G/vtanCbyi5w8EuhgbWkgbIwga8xCzAJBgNVBAYTAlVTMRMwEQYDVQQIDApDYWxp
Zm9ybmlhMRYwFAYDVQQHDA1TYW4gRnJhbmNpc2NvMSAwHgYDVQQKDBdDb3B5bGVm
dCBDZXJ0aWZpY2F0ZSBDbzEfMB0GA1UECwwWTXkgT3JnYW5pemF0aW9uYWwgVW5p
dDERMA8GA1UEAwwIQ2hhbmdlTWUxHTAbBgkqhkiG9w0BCQEWDm1lQGV4YW1wbGUu
bmV0ggkAufJOLHmz1GwwEwYDVR0lBAwwCgYIKwYBBQUHAwIwCwYDVR0PBAQDAgeA
MA0GCSqGSIb3DQEBCwUAA4IBAQBANlu0GPG76B16RScPyyEGhWUtyrCwmCyWEnoq
3U69RESuSjfd9RLfJVJHxK5cyd5Rr2mSMpyQAn94+4mxXbHbMhZ2KttG33StCJfk
Y2DW815u8OdzglYl2gg02u/sArkoTRTdQHAanqgk0UXYQSVJikhYgCZIb78a4b+7
FGVFAeQ4pt3wX73MmeG+vsMlg0DWr0TefAFc1JKgc4rJSgQWee7MmElAPnXgqBSq
RqJLviXeWZgObMW+D2eaq+pAEg+UtjMmeFDshWyg3DkxFr+Jtuz2yEiXfRVB8WUt
/VE7cLlbf7ZztVU7JQD6c4ZHGr+Eu/+SNxS87N3PzumnPgkE
-----END CERTIFICATE-----
