Certificate:
    Data:
        Version: 3 (0x2)
        Serial Number:
            8e:cb:3f:f3:ad:f2:72:65:76:c1:c7:0b:1c:09:79:5d
    Signature Algorithm: sha256WithRSAEncryption
        Issuer: C=US, ST=California, L=San Francisco, O=Copyleft Certificate Co, OU=My Organizational Unit, CN=ChangeMe/emailAddress=me@example.net
        Validity
            Not Before: Nov 11 14:50:34 2023 GMT
            Not After : Nov 10 14:50:34 2024 GMT
        Subject: C=US, ST=OH, L=Cincinnati, O=University of Cincinnati ., OU=Dept. Elec. Comp. . Eng. Comp. Sci., CN=client13/emailAddress=franco@gauss.ececs.uc.edu
        Subject Public Key Info:
            Public Key Algorithm: rsaEncryption
                Public-Key: (2048 bit)
                Modulus:
                    00:da:99:2d:b1:10:f6:8b:c5:b6:a8:f0:13:bb:26:
                    fc:1a:b1:da:18:49:6f:bf:b6:e0:79:a5:16:a1:eb:
                    83:4d:68:bd:2f:ed:47:b2:4c:30:60:ae:8b:f5:8a:
                    a8:d5:7a:a5:43:4b:3f:89:58:25:60:b4:93:2f:b8:
                    fc:c8:2d:4c:67:0f:a3:7c:a9:4a:cd:db:d3:e2:ed:
                    55:c6:32:4a:f6:3a:0d:be:23:71:70:b5:8d:48:19:
                    b4:29:a8:95:d6:7c:b3:91:46:fe:30:54:fb:0d:03:
                    2d:cc:5b:24:14:68:c5:37:b5:11:f0:af:b3:3c:f9:
                    d6:cc:b2:99:9d:c1:75:fb:2f:e8:de:3a:f0:7e:e6:
                    93:0a:97:54:30:1e:e3:da:f0:99:a3:09:cf:22:9b:
                    0a:bd:a3:6c:b9:55:a0:52:0c:42:1b:5a:d6:e9:c8:
                    ef:df:a1:ae:45:5d:7e:42:4c:4b:01:3d:d5:53:06:
                    3b:b3:8e:99:63:c9:35:d5:dd:7b:ca:ee:c0:40:e8:
                    65:bf:87:fb:64:e0:7d:09:ce:ff:90:99:c0:04:d3:
                    81:8c:54:a9:0e:7e:d4:89:43:5e:80:43:a9:3d:20:
                    1c:7c:c4:2c:64:94:f3:66:72:32:c9:d4:49:55:78:
                    7f:91:8e:0b:b5:b5:31:56:ae:e1:64:3b:c2:b0:c6:
                    57:45
                Exponent: 65537 (0x10001)
        X509v3 extensions:
            X509v3 Basic Constraints: 
                CA:FALSE
            X509v3 Subject Key Identifier: 
                48:EB:EB:64:39:14:89:2F:C6:B8:36:68:E2:40:EB:15:4A:3D:46:EA
            X509v3 Authority Key Identifier: 
                keyid:37:77:FF:9E:80:0A:A0:2D:03:2E:41:2E:A7:9F:2C:08:1D:27:A7:1F
                DirName:/C=US/ST=California/L=San Francisco/O=Copyleft Certificate Co/OU=My Organizational Unit/CN=ChangeMe/emailAddress=me@example.net
                serial:8E:F4:CE:BF:34:CB:64:72

            X509v3 Extended Key Usage: 
                TLS Web Client Authentication
            X509v3 Key Usage: 
                Digital Signature
    Signature Algorithm: sha256WithRSAEncryption
         6e:b7:82:4d:c2:e5:a7:ec:b6:d3:af:b7:ec:79:7e:3b:50:0c:
         29:77:19:b5:08:5a:0b:51:ea:96:5f:15:b6:5c:6d:be:82:1d:
         af:0f:ff:28:2c:a0:1e:c7:ff:32:f3:f8:5b:9c:62:0c:9e:d3:
         77:99:c2:f8:10:c9:57:b3:38:90:4b:9b:0b:9d:3e:94:18:b0:
         4d:03:eb:94:47:e6:f7:d4:cd:f0:56:30:24:55:37:f6:39:b5:
         1d:a6:c4:97:30:d2:3a:b7:e6:e4:a7:53:08:52:72:0a:5b:5c:
         78:2f:53:76:d5:bd:1f:01:a2:88:3f:a6:24:b8:76:80:84:6d:
         07:3f:f2:19:98:68:78:f9:d1:84:ef:ff:2d:22:0a:55:54:00:
         7e:5b:8f:40:de:b5:d5:63:fe:88:6f:69:61:48:9c:8e:bc:c6:
         e7:93:57:3a:72:9c:0e:c8:ee:35:10:54:5c:3f:5b:56:1e:ef:
         cc:5f:81:66:d6:d9:fc:25:42:35:f2:f6:41:76:a3:2d:84:c8:
         08:a0:a0:85:b2:46:e8:c5:f7:df:61:61:35:a7:c8:97:9b:26:
         cc:f9:63:70:98:22:ef:82:52:b7:08:e1:51:c7:b0:e6:9e:96:
         e2:30:c2:49:b3:ec:f1:6c:62:0f:66:84:2d:c7:5b:ea:b3:cd:
         72:58:69:64
-----BEGIN CERTIFICATE-----
MIIFNDCCBBygAwIBAgIRAI7LP/Ot8nJldsHHCxwJeV0wDQYJKoZIhvcNAQELBQAw
ga8xCzAJBgNVBAYTAlVTMRMwEQYDVQQIDApDYWxpZm9ybmlhMRYwFAYDVQQHDA1T
YW4gRnJhbmNpc2NvMSAwHgYDVQQKDBdDb3B5bGVmdCBDZXJ0aWZpY2F0ZSBDbzEf
MB0GA1UECwwWTXkgT3JnYW5pemF0aW9uYWwgVW5pdDERMA8GA1UEAwwIQ2hhbmdl
TWUxHTAbBgkqhkiG9w0BCQEWDm1lQGV4YW1wbGUubmV0MB4XDTIzMTExMTE0NTAz
NFoXDTI0MTExMDE0NTAzNFowgb8xCzAJBgNVBAYTAlVTMQswCQYDVQQIDAJPSDET
MBEGA1UEBwwKQ2luY2lubmF0aTEjMCEGA1UECgwaVW5pdmVyc2l0eSBvZiBDaW5j
aW5uYXRpIC4xLDAqBgNVBAsMI0RlcHQuIEVsZWMuIENvbXAuIC4gRW5nLiBDb21w
LiBTY2kuMREwDwYDVQQDDAhjbGllbnQxMzEoMCYGCSqGSIb3DQEJARYZZnJhbmNv
QGdhdXNzLmVjZWNzLnVjLmVkdTCCASIwDQYJKoZIhvcNAQEBBQADggEPADCCAQoC
ggEBANqZLbEQ9ovFtqjwE7sm/Bqx2hhJb7+24HmlFqHrg01ovS/tR7JMMGCui/WK
qNV6pUNLP4lYJWC0ky+4/MgtTGcPo3ypSs3b0+LtVcYySvY6Db4jcXC1jUgZtCmo
ldZ8s5FG/jBU+w0DLcxbJBRoxTe1EfCvszz51syymZ3Bdfsv6N468H7mkwqXVDAe
49rwmaMJzyKbCr2jbLlVoFIMQhta1unI79+hrkVdfkJMSwE91VMGO7OOmWPJNdXd
e8ruwEDoZb+H+2TgfQnO/5CZwATTgYxUqQ5+1IlDXoBDqT0gHHzELGSU82ZyMsnU
SVV4f5GOC7W1MVau4WQ7wrDGV0UCAwEAAaOCATcwggEzMAkGA1UdEwQCMAAwHQYD
VR0OBBYEFEjr62Q5FIkvxrg2aOJA6xVKPUbqMIHkBgNVHSMEgdwwgdmAFDd3/56A
CqAtAy5BLqefLAgdJ6cfoYG1pIGyMIGvMQswCQYDVQQGEwJVUzETMBEGA1UECAwK
Q2FsaWZvcm5pYTEWMBQGA1UEBwwNU2FuIEZyYW5jaXNjbzEgMB4GA1UECgwXQ29w
eWxlZnQgQ2VydGlmaWNhdGUgQ28xHzAdBgNVBAsMFk15IE9yZ2FuaXphdGlvbmFs
IFVuaXQxETAPBgNVBAMMCENoYW5nZU1lMR0wGwYJKoZIhvcNAQkBFg5tZUBleGFt
cGxlLm5ldIIJAI70zr80y2RyMBMGA1UdJQQMMAoGCCsGAQUFBwMCMAsGA1UdDwQE
AwIHgDANBgkqhkiG9w0BAQsFAAOCAQEAbreCTcLlp+y206+37Hl+O1AMKXcZtQha
C1Hqll8VtlxtvoIdrw//KCygHsf/MvP4W5xiDJ7Td5nC+BDJV7M4kEubC50+lBiw
TQPrlEfm99TN8FYwJFU39jm1HabElzDSOrfm5KdTCFJyCltceC9TdtW9HwGiiD+m
JLh2gIRtBz/yGZhoePnRhO//LSIKVVQAfluPQN611WP+iG9pYUicjrzG55NXOnKc
DsjuNRBUXD9bVh7vzF+BZtbZ/CVCNfL2QXajLYTICKCghbJG6MX332FhNafIl5sm
zPljcJgi74JStwjhUcew5p6W4jDCSbPs8WxiD2aELcdb6rPNclhpZA==
-----END CERTIFICATE-----
