Certificate:
    Data:
        Version: 3 (0x2)
        Serial Number:
            90:a8:cc:d0:cb:8e:3a:ce:60:54:6a:02:9a:0d:d0:ac
    Signature Algorithm: sha256WithRSAEncryption
        Issuer: C=US, ST=California, L=San Francisco, O=Copyleft Certificate Co, OU=My Organizational Unit, CN=ChangeMe/emailAddress=me@example.net
        Validity
            Not Before: Nov 11 18:51:12 2023 GMT
            Not After : Nov 10 18:51:12 2024 GMT
        Subject: C=US, ST=OH, L=Cincinnati, O=University of Cincinnati ., OU=Dept. Elec. Comp. . Eng. Comp. Sci., CN=client19/emailAddress=franco@gauss.ececs.uc.edu
        Subject Public Key Info:
            Public Key Algorithm: rsaEncryption
                Public-Key: (2048 bit)
                Modulus:
                    00:c3:9d:5c:55:e0:35:72:5a:0d:35:23:c6:6b:df:
                    e4:00:02:0b:9c:a5:26:85:39:41:27:2b:b7:5a:ed:
                    60:c1:8c:3c:9c:eb:64:99:80:7e:76:41:87:b0:b9:
                    e4:e8:0b:b9:3e:c8:39:19:d1:6d:b9:e4:86:e4:bf:
                    3d:7d:02:2a:2f:e0:b4:b5:32:ce:bf:43:61:30:c7:
                    2b:6f:56:2b:27:18:b9:52:63:3b:43:d1:22:50:f4:
                    4e:3a:57:72:cb:36:3b:9d:d2:aa:2d:a7:8a:3b:4e:
                    b8:cf:aa:44:4f:16:da:c3:a1:6f:96:43:7d:7d:f2:
                    73:f0:dc:78:23:1e:a0:88:48:9c:0e:b7:bd:43:ea:
                    26:d6:60:6a:39:4f:0d:1b:11:58:c4:4e:46:8a:1e:
                    2f:5f:3d:00:19:5e:71:de:aa:5d:79:b0:8e:8a:b0:
                    97:8e:bf:eb:51:a9:d1:12:93:e7:cd:7d:c5:8c:4a:
                    55:ec:85:6c:2e:fc:b7:49:b2:c5:d8:b9:8e:6a:70:
                    47:c7:ba:ee:c9:85:c6:54:e7:0a:5d:21:94:12:a1:
                    eb:b9:f1:c8:12:a0:79:d9:9f:f7:87:b2:9c:dd:19:
                    68:3c:e1:bc:4f:38:35:5b:a6:b3:29:33:45:8b:4f:
                    ea:fa:e9:87:ff:77:3e:f7:7e:19:69:a1:33:27:7b:
                    71:0b
                Exponent: 65537 (0x10001)
        X509v3 extensions:
            X509v3 Basic Constraints: 
                CA:FALSE
            X509v3 Subject Key Identifier: 
                4B:05:81:C8:A9:4C:43:FC:44:5B:0F:B4:27:31:F9:82:62:E5:96:C5
            X509v3 Authority Key Identifier: 
                keyid:9C:0E:D5:A3:16:6F:C8:23:88:D1:12:C9:63:5D:18:D9:C9:FC:5B:E9
                DirName:/C=US/ST=California/L=San Francisco/O=Copyleft Certificate Co/OU=My Organizational Unit/CN=ChangeMe/emailAddress=me@example.net
                serial:A3:08:26:80:D2:47:98:75

            X509v3 Extended Key Usage: 
                TLS Web Client Authentication
            X509v3 Key Usage: 
                Digital Signature
    Signature Algorithm: sha256WithRSAEncryption
         27:56:7a:e3:3a:cd:b2:1c:b0:33:24:75:c1:79:cf:a6:82:21:
         56:ad:4a:32:79:f3:9a:9a:39:29:7b:8f:7f:8b:6a:bf:f6:0a:
         9e:c2:0a:ca:2f:91:a3:6e:f2:8a:db:6e:63:89:42:f6:8c:cd:
         64:ef:87:d7:e6:bd:0a:75:7a:44:1d:cc:04:38:09:7a:93:92:
         62:a5:b5:93:40:6b:88:49:d4:4e:d0:32:92:d4:48:7d:4c:d6:
         48:d5:a7:55:c6:1c:b8:8b:d8:d9:02:c1:c1:0b:8e:55:a3:09:
         71:28:79:63:81:2e:18:fd:02:0d:9a:fa:2f:49:e0:fe:05:87:
         5d:fe:93:3f:a7:5b:bf:19:89:96:5e:23:a8:4b:d8:9d:95:78:
         bd:f4:5e:60:bb:38:4e:43:04:8b:e2:d7:a6:24:40:1b:42:59:
         b4:16:32:4b:bd:36:a0:b4:d0:4b:21:e6:09:1e:ed:ed:9a:ad:
         51:0b:e0:0d:3c:c3:b5:9b:e8:21:82:a8:1c:8a:5c:29:05:ac:
         da:2c:3d:44:49:ce:57:50:05:cf:dd:fc:34:d0:98:6a:09:98:
         82:f7:e0:7a:1c:71:15:f8:ca:e9:b9:4c:c0:80:09:b7:83:29:
         87:06:4d:8c:2a:05:ff:18:94:f4:07:80:5b:2c:fa:9f:9d:78:
         a2:be:b4:30
-----BEGIN CERTIFICATE-----
MIIFNDCCBBygAwIBAgIRAJCozNDLjjrOYFRqApoN0KwwDQYJKoZIhvcNAQELBQAw
ga8xCzAJBgNVBAYTAlVTMRMwEQYDVQQIDApDYWxpZm9ybmlhMRYwFAYDVQQHDA1T
YW4gRnJhbmNpc2NvMSAwHgYDVQQKDBdDb3B5bGVmdCBDZXJ0aWZpY2F0ZSBDbzEf
MB0GA1UECwwWTXkgT3JnYW5pemF0aW9uYWwgVW5pdDERMA8GA1UEAwwIQ2hhbmdl
TWUxHTAbBgkqhkiG9w0BCQEWDm1lQGV4YW1wbGUubmV0MB4XDTIzMTExMTE4NTEx
MloXDTI0MTExMDE4NTExMlowgb8xCzAJBgNVBAYTAlVTMQswCQYDVQQIDAJPSDET
MBEGA1UEBwwKQ2luY2lubmF0aTEjMCEGA1UECgwaVW5pdmVyc2l0eSBvZiBDaW5j
aW5uYXRpIC4xLDAqBgNVBAsMI0RlcHQuIEVsZWMuIENvbXAuIC4gRW5nLiBDb21w
LiBTY2kuMREwDwYDVQQDDAhjbGllbnQxOTEoMCYGCSqGSIb3DQEJARYZZnJhbmNv
QGdhdXNzLmVjZWNzLnVjLmVkdTCCASIwDQYJKoZIhvcNAQEBBQADggEPADCCAQoC
ggEBAMOdXFXgNXJaDTUjxmvf5AACC5ylJoU5QScrt1rtYMGMPJzrZJmAfnZBh7C5
5OgLuT7IORnRbbnkhuS/PX0CKi/gtLUyzr9DYTDHK29WKycYuVJjO0PRIlD0TjpX
css2O53Sqi2nijtOuM+qRE8W2sOhb5ZDfX3yc/DceCMeoIhInA63vUPqJtZgajlP
DRsRWMRORooeL189ABlecd6qXXmwjoqwl46/61Gp0RKT5819xYxKVeyFbC78t0my
xdi5jmpwR8e67smFxlTnCl0hlBKh67nxyBKgedmf94eynN0ZaDzhvE84NVumsykz
RYtP6vrph/93Pvd+GWmhMyd7cQsCAwEAAaOCATcwggEzMAkGA1UdEwQCMAAwHQYD
VR0OBBYEFEsFgcipTEP8RFsPtCcx+YJi5ZbFMIHkBgNVHSMEgdwwgdmAFJwO1aMW
b8gjiNESyWNdGNnJ/FvpoYG1pIGyMIGvMQswCQYDVQQGEwJVUzETMBEGA1UECAwK
Q2FsaWZvcm5pYTEWMBQGA1UEBwwNU2FuIEZyYW5jaXNjbzEgMB4GA1UECgwXQ29w
eWxlZnQgQ2VydGlmaWNhdGUgQ28xHzAdBgNVBAsMFk15IE9yZ2FuaXphdGlvbmFs
IFVuaXQxETAPBgNVBAMMCENoYW5nZU1lMR0wGwYJKoZIhvcNAQkBFg5tZUBleGFt
cGxlLm5ldIIJAKMIJoDSR5h1MBMGA1UdJQQMMAoGCCsGAQUFBwMCMAsGA1UdDwQE
AwIHgDANBgkqhkiG9w0BAQsFAAOCAQEAJ1Z64zrNshywMyR1wXnPpoIhVq1KMnnz
mpo5KXuPf4tqv/YKnsIKyi+Ro27yittuY4lC9ozNZO+H1+a9CnV6RB3MBDgJepOS
YqW1k0BriEnUTtAyktRIfUzWSNWnVcYcuIvY2QLBwQuOVaMJcSh5Y4EuGP0CDZr6
L0ng/gWHXf6TP6dbvxmJll4jqEvYnZV4vfReYLs4TkMEi+LXpiRAG0JZtBYyS702
oLTQSyHmCR7t7ZqtUQvgDTzDtZvoIYKoHIpcKQWs2iw9REnOV1AFz938NNCYagmY
gvfgehxxFfjK6blMwIAJt4MphwZNjCoF/xiU9AeAWyz6n514or60MA==
-----END CERTIFICATE-----
