Certificate:
    Data:
        Version: 3 (0x2)
        Serial Number:
            91:45:76:77:d7:68:6b:3f:0a:66:89:14:d6:6c:02:9c
    Signature Algorithm: sha256WithRSAEncryption
        Issuer: C=US, ST=California, L=San Francisco, O=Copyleft Certificate Co, OU=My Organizational Unit, CN=ChangeMe/emailAddress=me@example.net
        Validity
            Not Before: Jan 23 18:30:00 2021 GMT
            Not After : Jan 23 18:30:00 2022 GMT
        Subject: C=US, ST=OH, L=Cincinnati, O=University of Cincinnati, OU=Dept. Electrical Eng. and Computer Sci., CN=client116/emailAddress=franco@gauss.ececs.uc.edu
        Subject Public Key Info:
            Public Key Algorithm: rsaEncryption
                Public-Key: (2048 bit)
                Modulus:
                    00:a0:f9:ae:6f:3c:1a:d0:29:db:4a:d0:45:78:c6:
                    72:f5:e8:48:fe:59:e5:fa:28:41:08:57:87:13:23:
                    62:72:b8:a0:6a:44:bf:fb:e4:99:d9:c4:35:aa:a3:
                    ee:c9:1a:23:6e:a7:72:bc:70:d6:aa:c7:06:89:09:
                    b9:d0:e9:3b:e0:6c:0d:de:f1:ce:87:14:ac:97:80:
                    c5:95:3a:39:bc:68:07:95:b8:66:8a:dd:c7:53:19:
                    5d:06:94:bd:c7:a4:43:64:fc:8e:3d:f1:ff:2e:ff:
                    7d:0d:fd:b7:7e:ae:07:ba:17:11:fc:86:00:1e:17:
                    02:23:2a:79:d1:33:77:55:8b:73:b9:b5:31:38:0c:
                    cf:38:e0:3c:e7:0e:16:35:6c:d7:a7:f6:76:3f:16:
                    f3:a7:41:c6:c6:89:62:de:3a:d6:8b:98:c5:93:3c:
                    e4:83:83:d5:e6:d2:05:3d:9f:71:04:56:fb:ee:9b:
                    f6:f6:7c:53:d4:4f:e4:74:ed:c7:b8:95:dc:4f:87:
                    b7:c8:2f:f0:fc:21:1c:83:1e:f2:b8:c0:52:35:6d:
                    68:7a:1b:b1:65:67:f0:fa:d9:7a:65:da:45:e2:ff:
                    5e:ea:84:ad:cb:cd:a4:a9:97:bf:74:96:7a:a7:5b:
                    95:25:00:5b:77:b2:65:e5:72:5c:25:fd:22:5f:6e:
                    67:fd
                Exponent: 65537 (0x10001)
        X509v3 extensions:
            X509v3 Basic Constraints: 
                CA:FALSE
            X509v3 Subject Key Identifier: 
                71:25:C5:46:AC:D3:F4:73:84:BC:4B:2E:F5:63:D1:1A:78:B5:19:B0
            X509v3 Authority Key Identifier: 
                keyid:EF:DC:B6:3D:4B:FD:A7:87:05:C5:22:3D:8B:DC:BF:99:2A:EE:E4:DB
                DirName:/C=US/ST=California/L=San Francisco/O=Copyleft Certificate Co/OU=My Organizational Unit/CN=ChangeMe/emailAddress=me@example.net
                serial:87:1E:1D:DC:6B:8C:66:88

            X509v3 Extended Key Usage: 
                TLS Web Client Authentication
            X509v3 Key Usage: 
                Digital Signature
    Signature Algorithm: sha256WithRSAEncryption
         79:8b:07:c6:95:d8:8f:ca:b7:28:53:0c:37:f3:4d:a8:62:b2:
         94:c8:10:2f:f0:b6:66:7d:6c:d1:ee:ea:12:ae:e7:ff:21:2b:
         4f:c0:e7:6f:3a:19:a2:53:a3:fe:74:a1:a7:17:cc:99:7d:84:
         43:08:51:41:ff:b7:64:2e:64:25:72:5c:ab:db:1a:b2:01:d6:
         3d:f6:5a:53:e9:24:fa:37:61:bb:19:44:16:1b:9c:fb:17:06:
         51:ab:f2:7d:5c:d1:df:5f:a0:d2:a2:65:85:84:be:17:e5:9f:
         db:32:2c:14:7c:95:c3:97:de:f2:88:65:29:14:f1:51:c0:2e:
         93:15:84:ca:f6:b5:8d:58:35:0b:b6:3a:c3:28:4a:25:95:a7:
         08:ab:43:9a:79:76:8e:0e:75:7f:d4:b2:3d:9a:1e:ed:6c:fa:
         7c:c5:a9:dc:6b:e6:7b:04:fd:24:1e:9d:8b:2a:5f:56:50:3d:
         d0:5d:77:23:77:c3:8c:12:2d:f1:1a:03:23:e7:ad:52:41:6f:
         3a:96:9c:f3:82:84:96:bf:5f:9d:69:cb:45:d0:f2:b7:bd:e7:
         86:85:b8:c9:c1:a4:9a:4c:f1:e2:dc:8a:8d:07:3d:cc:82:0b:
         8b:15:07:d1:33:21:41:81:9c:c4:f0:5a:71:38:37:ce:2f:1f:
         8c:d7:d7:80
-----BEGIN CERTIFICATE-----
MIIFNzCCBB+gAwIBAgIRAJFFdnfXaGs/CmaJFNZsApwwDQYJKoZIhvcNAQELBQAw
ga8xCzAJBgNVBAYTAlVTMRMwEQYDVQQIDApDYWxpZm9ybmlhMRYwFAYDVQQHDA1T
YW4gRnJhbmNpc2NvMSAwHgYDVQQKDBdDb3B5bGVmdCBDZXJ0aWZpY2F0ZSBDbzEf
MB0GA1UECwwWTXkgT3JnYW5pemF0aW9uYWwgVW5pdDERMA8GA1UEAwwIQ2hhbmdl
TWUxHTAbBgkqhkiG9w0BCQEWDm1lQGV4YW1wbGUubmV0MB4XDTIxMDEyMzE4MzAw
MFoXDTIyMDEyMzE4MzAwMFowgcIxCzAJBgNVBAYTAlVTMQswCQYDVQQIDAJPSDET
MBEGA1UEBwwKQ2luY2lubmF0aTEhMB8GA1UECgwYVW5pdmVyc2l0eSBvZiBDaW5j
aW5uYXRpMTAwLgYDVQQLDCdEZXB0LiBFbGVjdHJpY2FsIEVuZy4gYW5kIENvbXB1
dGVyIFNjaS4xEjAQBgNVBAMMCWNsaWVudDExNjEoMCYGCSqGSIb3DQEJARYZZnJh
bmNvQGdhdXNzLmVjZWNzLnVjLmVkdTCCASIwDQYJKoZIhvcNAQEBBQADggEPADCC
AQoCggEBAKD5rm88GtAp20rQRXjGcvXoSP5Z5fooQQhXhxMjYnK4oGpEv/vkmdnE
Naqj7skaI26ncrxw1qrHBokJudDpO+BsDd7xzocUrJeAxZU6ObxoB5W4Zordx1MZ
XQaUvcekQ2T8jj3x/y7/fQ39t36uB7oXEfyGAB4XAiMqedEzd1WLc7m1MTgMzzjg
POcOFjVs16f2dj8W86dBxsaJYt461ouYxZM85IOD1ebSBT2fcQRW++6b9vZ8U9RP
5HTtx7iV3E+Ht8gv8PwhHIMe8rjAUjVtaHobsWVn8PrZemXaReL/XuqErcvNpKmX
v3SWeqdblSUAW3eyZeVyXCX9Il9uZ/0CAwEAAaOCATcwggEzMAkGA1UdEwQCMAAw
HQYDVR0OBBYEFHElxUas0/RzhLxLLvVj0Rp4tRmwMIHkBgNVHSMEgdwwgdmAFO/c
tj1L/aeHBcUiPYvcv5kq7uTboYG1pIGyMIGvMQswCQYDVQQGEwJVUzETMBEGA1UE
CAwKQ2FsaWZvcm5pYTEWMBQGA1UEBwwNU2FuIEZyYW5jaXNjbzEgMB4GA1UECgwX
Q29weWxlZnQgQ2VydGlmaWNhdGUgQ28xHzAdBgNVBAsMFk15IE9yZ2FuaXphdGlv
bmFsIFVuaXQxETAPBgNVBAMMCENoYW5nZU1lMR0wGwYJKoZIhvcNAQkBFg5tZUBl
eGFtcGxlLm5ldIIJAIceHdxrjGaIMBMGA1UdJQQMMAoGCCsGAQUFBwMCMAsGA1Ud
DwQEAwIHgDANBgkqhkiG9w0BAQsFAAOCAQEAeYsHxpXYj8q3KFMMN/NNqGKylMgQ
L/C2Zn1s0e7qEq7n/yErT8DnbzoZolOj/nShpxfMmX2EQwhRQf+3ZC5kJXJcq9sa
sgHWPfZaU+kk+jdhuxlEFhuc+xcGUavyfVzR31+g0qJlhYS+F+Wf2zIsFHyVw5fe
8ohlKRTxUcAukxWEyva1jVg1C7Y6wyhKJZWnCKtDmnl2jg51f9SyPZoe7Wz6fMWp
3GvmewT9JB6diypfVlA90F13I3fDjBIt8RoDI+etUkFvOpac84KElr9fnWnLRdDy
t73nhoW4ycGkmkzx4tyKjQc9zIILixUH0TMhQYGcxPBacTg3zi8fjNfXgA==
-----END CERTIFICATE-----
