Certificate:
    Data:
        Version: 3 (0x2)
        Serial Number:
            92:4c:85:01:04:f8:ce:bb:3e:a5:0c:ea:7f:83:af:67
    Signature Algorithm: sha256WithRSAEncryption
        Issuer: C=US, ST=California, L=San Francisco, O=Copyleft Certificate Co, OU=My Organizational Unit, CN=ChangeMe/emailAddress=me@example.net
        Validity
            Not Before: Nov 13 11:49:02 2023 GMT
            Not After : Nov 12 11:49:02 2024 GMT
        Subject: C=US, ST=OH, L=Cincinnati, O=University of Cincinnati, OU=Dept. Elec. Comp. Eng. Comp. Sci., CN=client39/emailAddress=franco@gauss.ececs.uc.edu
        Subject Public Key Info:
            Public Key Algorithm: rsaEncryption
                Public-Key: (2048 bit)
                Modulus:
                    00:d5:71:ec:95:e6:1f:bc:dc:47:0b:4b:96:18:51:
                    0a:a8:61:02:4e:f6:41:2a:a1:d8:cc:e3:29:d6:b7:
                    27:eb:be:e2:fc:af:01:c6:13:7f:9a:8b:f2:ab:c2:
                    3a:8d:fa:76:03:cd:4b:2a:35:e9:88:70:07:50:ff:
                    89:01:76:63:1e:24:bd:de:2d:a0:ad:9b:a7:3d:36:
                    d5:9c:b2:ca:b7:9d:fa:84:9f:de:d4:bc:fe:d5:04:
                    5d:1e:f1:ed:e5:26:c4:de:e1:ca:0b:cc:1c:32:4b:
                    64:8f:45:e6:dd:8d:25:6f:94:cc:4a:67:81:34:ab:
                    46:bc:6d:12:2d:11:22:15:4e:6f:bb:98:e5:7a:0f:
                    20:6f:c7:5d:da:d8:d3:39:ef:73:27:00:7e:c7:0f:
                    81:90:45:41:9e:5f:40:36:ba:1e:c8:d0:2a:2c:80:
                    2b:a7:15:fd:0c:fb:0c:4d:ca:f0:b5:81:50:24:95:
                    6a:d1:8f:42:74:3b:60:e4:2b:ec:36:ae:4c:49:df:
                    32:79:f3:c4:8d:7a:ee:e6:13:17:0c:17:ec:f2:59:
                    7f:37:c9:ba:9e:5b:0c:eb:e3:3d:97:6d:e1:a3:45:
                    37:6a:df:3d:4e:c0:8b:04:f2:b5:26:b8:c3:8e:c3:
                    47:40:06:df:2d:b7:cd:8d:9e:07:fc:89:3b:2e:35:
                    26:35
                Exponent: 65537 (0x10001)
        X509v3 extensions:
            X509v3 Basic Constraints: 
                CA:FALSE
            X509v3 Subject Key Identifier: 
                F1:AF:FF:C5:2C:6E:B4:8D:89:F2:B7:7B:D4:35:0E:7F:2D:E6:85:B0
            X509v3 Authority Key Identifier: 
                keyid:B4:AE:AB:ED:FC:ED:84:AA:AD:77:5D:7C:84:28:1C:CA:CE:AE:2A:44
                DirName:/C=US/ST=California/L=San Francisco/O=Copyleft Certificate Co/OU=My Organizational Unit/CN=ChangeMe/emailAddress=me@example.net
                serial:BD:6C:3B:F4:D3:07:C9:D1

            X509v3 Extended Key Usage: 
                TLS Web Client Authentication
            X509v3 Key Usage: 
                Digital Signature
    Signature Algorithm: sha256WithRSAEncryption
         5d:54:ca:32:3c:0e:b0:ec:78:a5:29:cc:b2:54:15:3d:b5:c2:
         80:33:fa:98:3d:01:86:1f:4b:76:a0:be:37:25:0a:b9:10:78:
         3e:07:98:ce:9f:78:52:7c:aa:c8:fb:08:17:a4:df:9f:4f:16:
         2b:8e:a4:79:cb:2c:db:b9:6e:98:c2:6f:cd:62:74:96:8a:35:
         58:a4:4c:1d:4c:b6:97:d0:dc:02:f7:64:08:76:e7:c5:ab:3a:
         bf:fb:45:4a:c0:e6:12:da:e5:ac:6c:35:a4:46:93:0b:fa:48:
         f4:95:79:64:e1:c5:0f:77:30:c8:70:9b:42:ce:4c:46:54:c3:
         58:c7:9e:8d:17:1e:17:84:d7:60:84:8f:3d:7c:b8:bc:3f:c9:
         66:a1:f4:f2:79:02:a6:31:24:31:0f:a1:b2:86:99:37:fd:70:
         eb:1a:b4:dd:cb:64:54:8f:cd:e6:53:2d:e8:4b:eb:bd:89:70:
         4a:14:f6:24:ff:0d:a2:f5:02:cc:f2:e3:d0:71:65:8f:8a:e1:
         32:39:8c:18:f9:53:f4:49:a5:be:d6:bc:e8:c0:79:8b:36:cb:
         20:cb:9b:f4:2d:f5:88:8d:c9:db:61:4a:66:6d:d3:ce:16:5a:
         5a:7e:b5:ce:4a:17:01:17:e9:62:e4:90:0a:dc:49:ea:8c:8b:
         09:d3:f4:76
-----BEGIN CERTIFICATE-----
MIIFMDCCBBigAwIBAgIRAJJMhQEE+M67PqUM6n+Dr2cwDQYJKoZIhvcNAQELBQAw
ga8xCzAJBgNVBAYTAlVTMRMwEQYDVQQIDApDYWxpZm9ybmlhMRYwFAYDVQQHDA1T
YW4gRnJhbmNpc2NvMSAwHgYDVQQKDBdDb3B5bGVmdCBDZXJ0aWZpY2F0ZSBDbzEf
MB0GA1UECwwWTXkgT3JnYW5pemF0aW9uYWwgVW5pdDERMA8GA1UEAwwIQ2hhbmdl
TWUxHTAbBgkqhkiG9w0BCQEWDm1lQGV4YW1wbGUubmV0MB4XDTIzMTExMzExNDkw
MloXDTI0MTExMjExNDkwMlowgbsxCzAJBgNVBAYTAlVTMQswCQYDVQQIDAJPSDET
MBEGA1UEBwwKQ2luY2lubmF0aTEhMB8GA1UECgwYVW5pdmVyc2l0eSBvZiBDaW5j
aW5uYXRpMSowKAYDVQQLDCFEZXB0LiBFbGVjLiBDb21wLiBFbmcuIENvbXAuIFNj
aS4xETAPBgNVBAMMCGNsaWVudDM5MSgwJgYJKoZIhvcNAQkBFhlmcmFuY29AZ2F1
c3MuZWNlY3MudWMuZWR1MIIBIjANBgkqhkiG9w0BAQEFAAOCAQ8AMIIBCgKCAQEA
1XHsleYfvNxHC0uWGFEKqGECTvZBKqHYzOMp1rcn677i/K8BxhN/movyq8I6jfp2
A81LKjXpiHAHUP+JAXZjHiS93i2grZunPTbVnLLKt536hJ/e1Lz+1QRdHvHt5SbE
3uHKC8wcMktkj0Xm3Y0lb5TMSmeBNKtGvG0SLREiFU5vu5jleg8gb8dd2tjTOe9z
JwB+xw+BkEVBnl9ANroeyNAqLIArpxX9DPsMTcrwtYFQJJVq0Y9CdDtg5CvsNq5M
Sd8yefPEjXru5hMXDBfs8ll/N8m6nlsM6+M9l23ho0U3at89TsCLBPK1JrjDjsNH
QAbfLbfNjZ4H/Ik7LjUmNQIDAQABo4IBNzCCATMwCQYDVR0TBAIwADAdBgNVHQ4E
FgQU8a//xSxutI2J8rd71DUOfy3mhbAwgeQGA1UdIwSB3DCB2YAUtK6r7fzthKqt
d118hCgcys6uKkShgbWkgbIwga8xCzAJBgNVBAYTAlVTMRMwEQYDVQQIDApDYWxp
Zm9ybmlhMRYwFAYDVQQHDA1TYW4gRnJhbmNpc2NvMSAwHgYDVQQKDBdDb3B5bGVm
dCBDZXJ0aWZpY2F0ZSBDbzEfMB0GA1UECwwWTXkgT3JnYW5pemF0aW9uYWwgVW5p
dDERMA8GA1UEAwwIQ2hhbmdlTWUxHTAbBgkqhkiG9w0BCQEWDm1lQGV4YW1wbGUu
bmV0ggkAvWw79NMHydEwEwYDVR0lBAwwCgYIKwYBBQUHAwIwCwYDVR0PBAQDAgeA
MA0GCSqGSIb3DQEBCwUAA4IBAQBdVMoyPA6w7HilKcyyVBU9tcKAM/qYPQGGH0t2
oL43JQq5EHg+B5jOn3hSfKrI+wgXpN+fTxYrjqR5yyzbuW6Ywm/NYnSWijVYpEwd
TLaX0NwC92QIdufFqzq/+0VKwOYS2uWsbDWkRpML+kj0lXlk4cUPdzDIcJtCzkxG
VMNYx56NFx4XhNdghI89fLi8P8lmofTyeQKmMSQxD6Gyhpk3/XDrGrTdy2RUj83m
Uy3oS+u9iXBKFPYk/w2i9QLM8uPQcWWPiuEyOYwY+VP0SaW+1rzowHmLNssgy5v0
LfWIjcnbYUpmbdPOFlpafrXOShcBF+li5JAK3EnqjIsJ0/R2
-----END CERTIFICATE-----
