Certificate:
    Data:
        Version: 3 (0x2)
        Serial Number:
            93:73:82:10:6b:60:13:8e:9d:c7:ed:4b:a0:7e:94:cf
    Signature Algorithm: sha256WithRSAEncryption
        Issuer: C=US, ST=California, L=San Francisco, O=Copyleft Certificate Co, OU=My Organizational Unit, CN=ChangeMe/emailAddress=me@example.net
        Validity
            Not Before: Nov 11 14:50:06 2023 GMT
            Not After : Nov 10 14:50:06 2024 GMT
        Subject: C=US, ST=OH, L=Cincinnati, O=University of Cincinnati ., OU=Dept. Elec. Comp. . Eng. Comp. Sci., CN=client6/emailAddress=franco@gauss.ececs.uc.edu
        Subject Public Key Info:
            Public Key Algorithm: rsaEncryption
                Public-Key: (2048 bit)
                Modulus:
                    00:bf:d0:67:3f:1a:11:c9:dd:87:0b:ae:b6:d4:3c:
                    9e:f6:23:02:93:42:c7:88:83:7e:e0:7c:a8:7d:97:
                    f1:e4:7c:8a:1d:65:69:24:ce:59:5c:f3:4b:f8:ee:
                    2b:6d:fd:54:d0:7c:f0:91:4c:53:31:e1:57:45:14:
                    b2:31:ff:7a:b9:f4:02:3c:2f:5c:32:ee:a3:d1:b0:
                    7f:b5:78:c5:56:05:8a:b3:83:d9:bf:ec:68:2d:4d:
                    75:ed:30:79:25:ea:f2:96:df:65:03:5f:8a:a2:ea:
                    b9:00:c5:d9:8d:7c:87:ef:2e:09:12:0e:8c:ab:61:
                    02:2e:82:7b:2f:19:f5:27:43:c7:e4:c7:63:dc:ba:
                    a7:ed:8d:57:fc:94:e9:32:02:46:a7:06:0a:24:77:
                    62:8a:75:63:39:10:7f:2a:be:3e:1f:0d:45:6b:46:
                    ab:9d:10:bb:5c:0b:e2:6b:3d:cb:72:5e:71:9c:37:
                    e1:54:b5:62:54:63:f1:b7:dd:12:76:4d:e4:45:53:
                    56:f9:5e:e3:89:36:e2:c6:5a:b0:e3:1c:9d:db:58:
                    b0:ae:c0:a8:25:c3:ab:b0:22:7f:53:c1:c5:db:b7:
                    58:ad:69:5b:a2:44:a5:59:cd:14:49:5c:78:09:74:
                    60:08:4f:35:e7:d4:48:4a:ea:d2:d9:a2:13:82:46:
                    d4:5d
                Exponent: 65537 (0x10001)
        X509v3 extensions:
            X509v3 Basic Constraints: 
                CA:FALSE
            X509v3 Subject Key Identifier: 
                8E:09:E6:B4:63:86:18:E9:70:D8:E7:B2:7F:9D:7E:31:C0:C0:13:ED
            X509v3 Authority Key Identifier: 
                keyid:37:77:FF:9E:80:0A:A0:2D:03:2E:41:2E:A7:9F:2C:08:1D:27:A7:1F
                DirName:/C=US/ST=California/L=San Francisco/O=Copyleft Certificate Co/OU=My Organizational Unit/CN=ChangeMe/emailAddress=me@example.net
                serial:8E:F4:CE:BF:34:CB:64:72

            X509v3 Extended Key Usage: 
                TLS Web Client Authentication
            X509v3 Key Usage: 
                Digital Signature
    Signature Algorithm: sha256WithRSAEncryption
         7e:d4:15:84:bd:c7:9e:0c:4f:5a:4e:df:c9:50:33:98:97:a5:
         62:51:9c:03:cf:b7:99:bb:1b:d5:b5:98:4f:a5:1c:5a:62:cb:
         bb:00:73:f0:71:c4:d8:8d:f8:ef:09:cb:72:78:fc:6d:01:61:
         a7:55:bc:d2:7a:a3:82:1b:1f:1b:1d:e5:54:bb:e5:79:a4:24:
         33:14:5b:98:40:2c:dc:27:d1:76:27:22:e9:c7:8c:7a:26:ee:
         e2:66:6e:a0:45:58:18:93:cc:63:28:ac:2d:c7:fc:3c:ea:54:
         78:ac:32:fc:af:4f:66:ca:93:a3:1d:67:98:cb:46:fe:19:dc:
         f5:72:5a:58:ce:27:e6:4b:5b:fc:19:a3:58:1d:8b:c8:9b:ec:
         eb:7b:92:bc:1b:7e:9b:99:84:0a:e7:14:d0:7d:06:b9:59:4b:
         b2:a9:49:5e:5f:5a:a4:77:05:c8:fd:7e:25:14:4f:c4:e3:f5:
         58:b6:5c:92:06:3c:01:bc:7a:6a:ef:3b:e6:12:71:a2:84:30:
         7c:cf:ca:51:a4:43:53:bb:9a:6b:47:6c:60:d2:1a:3b:5b:fb:
         ac:47:95:fe:10:4a:da:52:e5:88:64:e5:15:89:fa:2d:07:89:
         41:18:94:2a:a1:0b:50:f1:95:bc:90:b4:91:b6:73:8f:d2:29:
         bb:a7:41:8c
-----BEGIN CERTIFICATE-----
MIIFMzCCBBugAwIBAgIRAJNzghBrYBOOncftS6B+lM8wDQYJKoZIhvcNAQELBQAw
ga8xCzAJBgNVBAYTAlVTMRMwEQYDVQQIDApDYWxpZm9ybmlhMRYwFAYDVQQHDA1T
YW4gRnJhbmNpc2NvMSAwHgYDVQQKDBdDb3B5bGVmdCBDZXJ0aWZpY2F0ZSBDbzEf
MB0GA1UECwwWTXkgT3JnYW5pemF0aW9uYWwgVW5pdDERMA8GA1UEAwwIQ2hhbmdl
TWUxHTAbBgkqhkiG9w0BCQEWDm1lQGV4YW1wbGUubmV0MB4XDTIzMTExMTE0NTAw
NloXDTI0MTExMDE0NTAwNlowgb4xCzAJBgNVBAYTAlVTMQswCQYDVQQIDAJPSDET
MBEGA1UEBwwKQ2luY2lubmF0aTEjMCEGA1UECgwaVW5pdmVyc2l0eSBvZiBDaW5j
aW5uYXRpIC4xLDAqBgNVBAsMI0RlcHQuIEVsZWMuIENvbXAuIC4gRW5nLiBDb21w
LiBTY2kuMRAwDgYDVQQDDAdjbGllbnQ2MSgwJgYJKoZIhvcNAQkBFhlmcmFuY29A
Z2F1c3MuZWNlY3MudWMuZWR1MIIBIjANBgkqhkiG9w0BAQEFAAOCAQ8AMIIBCgKC
AQEAv9BnPxoRyd2HC6621Dye9iMCk0LHiIN+4HyofZfx5HyKHWVpJM5ZXPNL+O4r
bf1U0HzwkUxTMeFXRRSyMf96ufQCPC9cMu6j0bB/tXjFVgWKs4PZv+xoLU117TB5
Jerylt9lA1+Kouq5AMXZjXyH7y4JEg6Mq2ECLoJ7Lxn1J0PH5Mdj3Lqn7Y1X/JTp
MgJGpwYKJHdiinVjORB/Kr4+Hw1Fa0arnRC7XAviaz3Lcl5xnDfhVLViVGPxt90S
dk3kRVNW+V7jiTbixlqw4xyd21iwrsCoJcOrsCJ/U8HF27dYrWlbokSlWc0USVx4
CXRgCE8159RISurS2aITgkbUXQIDAQABo4IBNzCCATMwCQYDVR0TBAIwADAdBgNV
HQ4EFgQUjgnmtGOGGOlw2Oeyf51+McDAE+0wgeQGA1UdIwSB3DCB2YAUN3f/noAK
oC0DLkEup58sCB0npx+hgbWkgbIwga8xCzAJBgNVBAYTAlVTMRMwEQYDVQQIDApD
YWxpZm9ybmlhMRYwFAYDVQQHDA1TYW4gRnJhbmNpc2NvMSAwHgYDVQQKDBdDb3B5
bGVmdCBDZXJ0aWZpY2F0ZSBDbzEfMB0GA1UECwwWTXkgT3JnYW5pemF0aW9uYWwg
VW5pdDERMA8GA1UEAwwIQ2hhbmdlTWUxHTAbBgkqhkiG9w0BCQEWDm1lQGV4YW1w
bGUubmV0ggkAjvTOvzTLZHIwEwYDVR0lBAwwCgYIKwYBBQUHAwIwCwYDVR0PBAQD
AgeAMA0GCSqGSIb3DQEBCwUAA4IBAQB+1BWEvceeDE9aTt/JUDOYl6ViUZwDz7eZ
uxvVtZhPpRxaYsu7AHPwccTYjfjvCctyePxtAWGnVbzSeqOCGx8bHeVUu+V5pCQz
FFuYQCzcJ9F2JyLpx4x6Ju7iZm6gRVgYk8xjKKwtx/w86lR4rDL8r09mypOjHWeY
y0b+Gdz1clpYzifmS1v8GaNYHYvIm+zre5K8G36bmYQK5xTQfQa5WUuyqUleX1qk
dwXI/X4lFE/E4/VYtlySBjwBvHpq7zvmEnGihDB8z8pRpENTu5prR2xg0ho7W/us
R5X+EEraUuWIZOUVifotB4lBGJQqoQtQ8ZW8kLSRtnOP0im7p0GM
-----END CERTIFICATE-----
