Certificate:
    Data:
        Version: 3 (0x2)
        Serial Number:
            98:3a:f0:1a:61:b1:6f:07:5b:80:27:1c:72:23:12:95
    Signature Algorithm: sha256WithRSAEncryption
        Issuer: C=US, ST=California, L=San Francisco, O=Copyleft Certificate Co, OU=My Organizational Unit, CN=ChangeMe/emailAddress=me@example.net
        Validity
            Not Before: Nov 11 14:50:10 2023 GMT
            Not After : Nov 10 14:50:10 2024 GMT
        Subject: C=US, ST=OH, L=Cincinnati, O=University of Cincinnati ., OU=Dept. Elec. Comp. . Eng. Comp. Sci., CN=client7/emailAddress=franco@gauss.ececs.uc.edu
        Subject Public Key Info:
            Public Key Algorithm: rsaEncryption
                Public-Key: (2048 bit)
                Modulus:
                    00:bc:cf:30:b7:53:e4:a6:9b:4b:dd:c3:84:d6:10:
                    11:fa:b0:18:6b:28:88:6d:53:b7:d3:e6:30:da:9c:
                    b9:dc:92:e3:92:25:2e:19:7e:5e:39:9e:6f:bc:f2:
                    2d:a2:d2:f7:e0:b4:14:e9:3e:cc:4f:dd:c6:f9:88:
                    76:ef:1d:9b:93:3f:12:65:f6:ff:ca:91:86:76:90:
                    93:79:98:79:0e:02:01:e1:26:47:3d:d3:a6:73:5a:
                    5d:f8:f5:1c:b4:ae:81:7a:c4:d4:66:9d:88:b3:8d:
                    24:46:1c:a5:4c:b1:79:36:96:7c:45:9e:2c:62:0a:
                    f3:6f:c9:e0:04:fe:cf:18:bc:d8:da:25:fc:fd:c9:
                    10:a1:94:72:d7:34:25:18:11:64:4c:37:f1:cf:2b:
                    d3:18:af:0f:95:14:4c:44:52:66:80:26:1b:cf:bc:
                    b0:a9:0c:ed:d1:2e:ac:7f:4a:a2:1b:9e:12:d9:21:
                    0c:20:a8:58:c3:62:e8:db:eb:8f:ce:76:ef:7c:34:
                    e7:6a:00:36:61:b9:28:20:59:83:79:5d:6c:99:6a:
                    3c:63:ec:bd:e7:4f:42:a4:c7:0a:6f:8f:e5:08:18:
                    01:6c:c8:19:41:da:0d:cf:d3:49:3c:a7:4a:1e:25:
                    0d:5b:d9:cd:fc:c1:98:13:48:dd:ce:1a:bf:bd:74:
                    51:81
                Exponent: 65537 (0x10001)
        X509v3 extensions:
            X509v3 Basic Constraints: 
                CA:FALSE
            X509v3 Subject Key Identifier: 
                19:08:72:40:9C:16:4E:BD:D0:58:25:92:0E:06:84:81:47:15:EF:32
            X509v3 Authority Key Identifier: 
                keyid:37:77:FF:9E:80:0A:A0:2D:03:2E:41:2E:A7:9F:2C:08:1D:27:A7:1F
                DirName:/C=US/ST=California/L=San Francisco/O=Copyleft Certificate Co/OU=My Organizational Unit/CN=ChangeMe/emailAddress=me@example.net
                serial:8E:F4:CE:BF:34:CB:64:72

            X509v3 Extended Key Usage: 
                TLS Web Client Authentication
            X509v3 Key Usage: 
                Digital Signature
    Signature Algorithm: sha256WithRSAEncryption
         69:bb:e0:e3:2f:6a:25:02:25:2d:4d:d7:a5:5f:56:5d:6d:36:
         b5:e0:c7:d6:35:d1:f3:54:ab:dd:a2:41:15:80:ec:49:6c:52:
         4c:6d:91:b9:89:b0:c5:b2:91:ed:d7:81:9c:56:64:8c:8d:75:
         b5:3d:e0:19:ce:c0:3f:e8:36:35:d3:87:90:59:cc:5c:35:72:
         c7:bf:b6:33:73:25:b8:f3:78:f9:e6:e3:a5:e5:a7:b1:7c:9a:
         21:e2:e2:07:69:74:ae:de:a9:c0:55:fa:ec:54:53:09:14:57:
         e5:00:6c:fb:b4:e3:18:09:2d:97:36:9f:f3:ec:8f:78:2a:0c:
         a9:f8:a1:9b:99:a8:27:c0:3d:90:cf:0f:43:f1:42:aa:bd:f5:
         fc:6a:06:fe:e3:7e:51:f0:87:26:b7:63:5d:22:e3:1f:70:d0:
         df:ed:58:41:a0:d2:00:bc:82:20:51:3d:9d:9d:8b:f0:df:56:
         04:83:88:de:10:12:51:64:e7:d8:42:d7:42:97:e4:e0:15:f8:
         85:cf:e7:ac:5c:14:8f:76:c9:76:df:86:00:22:74:3c:46:bd:
         62:20:ba:6d:7c:99:ae:3d:72:a8:cf:07:27:ee:ef:7b:ea:ac:
         50:5e:85:c7:06:41:2f:40:bd:8e:81:39:f1:7b:05:2d:27:a7:
         88:cf:1b:82
-----BEGIN CERTIFICATE-----
MIIFMzCCBBugAwIBAgIRAJg68BphsW8HW4AnHHIjEpUwDQYJKoZIhvcNAQELBQAw
ga8xCzAJBgNVBAYTAlVTMRMwEQYDVQQIDApDYWxpZm9ybmlhMRYwFAYDVQQHDA1T
YW4gRnJhbmNpc2NvMSAwHgYDVQQKDBdDb3B5bGVmdCBDZXJ0aWZpY2F0ZSBDbzEf
MB0GA1UECwwWTXkgT3JnYW5pemF0aW9uYWwgVW5pdDERMA8GA1UEAwwIQ2hhbmdl
TWUxHTAbBgkqhkiG9w0BCQEWDm1lQGV4YW1wbGUubmV0MB4XDTIzMTExMTE0NTAx
MFoXDTI0MTExMDE0NTAxMFowgb4xCzAJBgNVBAYTAlVTMQswCQYDVQQIDAJPSDET
MBEGA1UEBwwKQ2luY2lubmF0aTEjMCEGA1UECgwaVW5pdmVyc2l0eSBvZiBDaW5j
aW5uYXRpIC4xLDAqBgNVBAsMI0RlcHQuIEVsZWMuIENvbXAuIC4gRW5nLiBDb21w
LiBTY2kuMRAwDgYDVQQDDAdjbGllbnQ3MSgwJgYJKoZIhvcNAQkBFhlmcmFuY29A
Z2F1c3MuZWNlY3MudWMuZWR1MIIBIjANBgkqhkiG9w0BAQEFAAOCAQ8AMIIBCgKC
AQEAvM8wt1PkpptL3cOE1hAR+rAYayiIbVO30+Yw2py53JLjkiUuGX5eOZ5vvPIt
otL34LQU6T7MT93G+Yh27x2bkz8SZfb/ypGGdpCTeZh5DgIB4SZHPdOmc1pd+PUc
tK6BesTUZp2Is40kRhylTLF5NpZ8RZ4sYgrzb8ngBP7PGLzY2iX8/ckQoZRy1zQl
GBFkTDfxzyvTGK8PlRRMRFJmgCYbz7ywqQzt0S6sf0qiG54S2SEMIKhYw2Lo2+uP
znbvfDTnagA2YbkoIFmDeV1smWo8Y+y9509CpMcKb4/lCBgBbMgZQdoNz9NJPKdK
HiUNW9nN/MGYE0jdzhq/vXRRgQIDAQABo4IBNzCCATMwCQYDVR0TBAIwADAdBgNV
HQ4EFgQUGQhyQJwWTr3QWCWSDgaEgUcV7zIwgeQGA1UdIwSB3DCB2YAUN3f/noAK
oC0DLkEup58sCB0npx+hgbWkgbIwga8xCzAJBgNVBAYTAlVTMRMwEQYDVQQIDApD
YWxpZm9ybmlhMRYwFAYDVQQHDA1TYW4gRnJhbmNpc2NvMSAwHgYDVQQKDBdDb3B5
bGVmdCBDZXJ0aWZpY2F0ZSBDbzEfMB0GA1UECwwWTXkgT3JnYW5pemF0aW9uYWwg
VW5pdDERMA8GA1UEAwwIQ2hhbmdlTWUxHTAbBgkqhkiG9w0BCQEWDm1lQGV4YW1w
bGUubmV0ggkAjvTOvzTLZHIwEwYDVR0lBAwwCgYIKwYBBQUHAwIwCwYDVR0PBAQD
AgeAMA0GCSqGSIb3DQEBCwUAA4IBAQBpu+DjL2olAiUtTdelX1ZdbTa14MfWNdHz
VKvdokEVgOxJbFJMbZG5ibDFspHt14GcVmSMjXW1PeAZzsA/6DY104eQWcxcNXLH
v7YzcyW483j55uOl5aexfJoh4uIHaXSu3qnAVfrsVFMJFFflAGz7tOMYCS2XNp/z
7I94Kgyp+KGbmagnwD2Qzw9D8UKqvfX8agb+435R8Icmt2NdIuMfcNDf7VhBoNIA
vIIgUT2dnYvw31YEg4jeEBJRZOfYQtdCl+TgFfiFz+esXBSPdsl234YAInQ8Rr1i
ILptfJmuPXKozwcn7u976qxQXoXHBkEvQL2OgTnxewUtJ6eIzxuC
-----END CERTIFICATE-----
