Certificate:
    Data:
        Version: 3 (0x2)
        Serial Number:
            9a:41:82:1d:bb:a4:b1:5e:48:dd:80:a8:f2:4c:17:48
    Signature Algorithm: sha256WithRSAEncryption
        Issuer: C=US, ST=California, L=San Francisco, O=Copyleft Certificate Co, OU=My Organizational Unit, CN=ChangeMe/emailAddress=me@example.net
        Validity
            Not Before: Nov 13 11:48:26 2023 GMT
            Not After : Nov 12 11:48:26 2024 GMT
        Subject: C=US, ST=OH, L=Cincinnati, O=University of Cincinnati, OU=Dept. Elec. Comp. Eng. Comp. Sci., CN=client30/emailAddress=franco@gauss.ececs.uc.edu
        Subject Public Key Info:
            Public Key Algorithm: rsaEncryption
                Public-Key: (2048 bit)
                Modulus:
                    00:c8:2a:ad:0a:b8:f3:04:a8:51:6e:13:d1:0f:26:
                    bf:39:f4:4b:f9:2a:67:81:84:45:c2:f3:8f:8f:0c:
                    b5:5b:b6:52:08:bb:b2:96:fd:f7:86:d9:1d:f6:bb:
                    b6:18:2c:58:88:3a:9b:77:bd:db:29:f7:07:82:66:
                    e1:2c:99:ce:f2:5c:a7:a2:a3:94:08:3e:66:1f:4e:
                    ff:5b:86:41:01:eb:52:53:aa:b9:ca:cd:50:4b:17:
                    8b:7f:50:ea:90:af:20:3d:c1:4a:44:5d:09:4c:2e:
                    e2:86:55:fa:ec:3f:80:c5:6c:62:17:10:20:88:e9:
                    6d:ab:94:01:8a:f1:bf:d1:ac:d4:b5:5d:89:52:c0:
                    b1:eb:86:2e:e9:3d:1f:05:43:91:b3:80:27:ee:75:
                    65:6e:b4:25:5e:5b:22:99:5c:b9:3b:23:57:8b:c7:
                    36:a9:a1:f7:54:c4:09:4e:ef:1c:6c:71:fc:92:23:
                    70:7f:45:8c:01:bd:68:aa:e7:98:c4:e8:39:8f:41:
                    8c:eb:d6:32:39:56:df:5b:06:bb:ac:88:eb:55:5d:
                    c8:e4:43:80:bb:ad:61:1e:6a:7e:d2:ae:26:52:18:
                    ae:20:a7:2e:d9:33:65:ec:d9:6f:5d:99:ca:22:c4:
                    ef:4d:ec:16:ca:c5:65:eb:d6:ad:47:e0:e5:87:90:
                    59:df
                Exponent: 65537 (0x10001)
        X509v3 extensions:
            X509v3 Basic Constraints: 
                CA:FALSE
            X509v3 Subject Key Identifier: 
                38:51:B8:BF:C7:F8:4A:71:BB:7E:C1:83:E3:C7:2E:12:E1:1D:0C:2A
            X509v3 Authority Key Identifier: 
                keyid:B4:AE:AB:ED:FC:ED:84:AA:AD:77:5D:7C:84:28:1C:CA:CE:AE:2A:44
                DirName:/C=US/ST=California/L=San Francisco/O=Copyleft Certificate Co/OU=My Organizational Unit/CN=ChangeMe/emailAddress=me@example.net
                serial:BD:6C:3B:F4:D3:07:C9:D1

            X509v3 Extended Key Usage: 
                TLS Web Client Authentication
            X509v3 Key Usage: 
                Digital Signature
    Signature Algorithm: sha256WithRSAEncryption
         95:37:10:94:e0:2a:28:ca:fe:61:2d:7e:cb:0c:43:99:a8:0e:
         43:4b:5c:68:22:73:4e:7d:ad:f8:f2:8f:11:6a:c9:b1:41:0f:
         29:d3:21:dd:29:4b:89:0b:8a:e4:c5:b4:ed:c8:ed:59:f8:69:
         46:dc:dd:48:ff:65:3b:37:1e:73:63:a1:ee:11:1e:6d:cb:f1:
         b7:db:5c:f2:b0:f8:9e:ec:3a:c1:61:55:20:51:13:e3:3b:c9:
         73:41:91:2e:0e:79:fc:69:75:d4:88:aa:92:57:fc:c0:c4:52:
         0a:85:85:de:74:b4:08:55:5d:26:be:32:36:bf:90:8b:a1:18:
         f4:99:e5:fc:ae:0e:0b:e7:e7:ac:8b:84:8a:f6:83:87:bf:03:
         ce:38:37:43:36:4e:8a:8b:bc:32:fb:26:3b:f6:00:b3:0c:e2:
         be:91:cf:77:20:f3:97:b5:8f:6d:c4:c0:1a:fd:da:d9:a6:66:
         50:96:07:11:32:5d:44:42:e9:19:21:22:9d:26:76:65:01:ee:
         a9:9b:99:50:79:61:c9:56:6b:62:e4:b3:3f:40:3b:6b:da:a1:
         1d:a3:fb:8b:7c:c4:0b:fb:f1:4b:87:71:96:55:d5:d1:92:c2:
         f6:54:5b:86:29:f4:c9:35:77:d9:0b:fd:29:01:62:b0:20:ec:
         da:ee:dd:c2
-----BEGIN CERTIFICATE-----
MIIFMDCCBBigAwIBAgIRAJpBgh27pLFeSN2AqPJMF0gwDQYJKoZIhvcNAQELBQAw
ga8xCzAJBgNVBAYTAlVTMRMwEQYDVQQIDApDYWxpZm9ybmlhMRYwFAYDVQQHDA1T
YW4gRnJhbmNpc2NvMSAwHgYDVQQKDBdDb3B5bGVmdCBDZXJ0aWZpY2F0ZSBDbzEf
MB0GA1UECwwWTXkgT3JnYW5pemF0aW9uYWwgVW5pdDERMA8GA1UEAwwIQ2hhbmdl
TWUxHTAbBgkqhkiG9w0BCQEWDm1lQGV4YW1wbGUubmV0MB4XDTIzMTExMzExNDgy
NloXDTI0MTExMjExNDgyNlowgbsxCzAJBgNVBAYTAlVTMQswCQYDVQQIDAJPSDET
MBEGA1UEBwwKQ2luY2lubmF0aTEhMB8GA1UECgwYVW5pdmVyc2l0eSBvZiBDaW5j
aW5uYXRpMSowKAYDVQQLDCFEZXB0LiBFbGVjLiBDb21wLiBFbmcuIENvbXAuIFNj
aS4xETAPBgNVBAMMCGNsaWVudDMwMSgwJgYJKoZIhvcNAQkBFhlmcmFuY29AZ2F1
c3MuZWNlY3MudWMuZWR1MIIBIjANBgkqhkiG9w0BAQEFAAOCAQ8AMIIBCgKCAQEA
yCqtCrjzBKhRbhPRDya/OfRL+SpngYRFwvOPjwy1W7ZSCLuylv33htkd9ru2GCxY
iDqbd73bKfcHgmbhLJnO8lynoqOUCD5mH07/W4ZBAetSU6q5ys1QSxeLf1DqkK8g
PcFKRF0JTC7ihlX67D+AxWxiFxAgiOltq5QBivG/0azUtV2JUsCx64Yu6T0fBUOR
s4An7nVlbrQlXlsimVy5OyNXi8c2qaH3VMQJTu8cbHH8kiNwf0WMAb1oqueYxOg5
j0GM69YyOVbfWwa7rIjrVV3I5EOAu61hHmp+0q4mUhiuIKcu2TNl7NlvXZnKIsTv
TewWysVl69atR+Dlh5BZ3wIDAQABo4IBNzCCATMwCQYDVR0TBAIwADAdBgNVHQ4E
FgQUOFG4v8f4SnG7fsGD48cuEuEdDCowgeQGA1UdIwSB3DCB2YAUtK6r7fzthKqt
d118hCgcys6uKkShgbWkgbIwga8xCzAJBgNVBAYTAlVTMRMwEQYDVQQIDApDYWxp
Zm9ybmlhMRYwFAYDVQQHDA1TYW4gRnJhbmNpc2NvMSAwHgYDVQQKDBdDb3B5bGVm
dCBDZXJ0aWZpY2F0ZSBDbzEfMB0GA1UECwwWTXkgT3JnYW5pemF0aW9uYWwgVW5p
dDERMA8GA1UEAwwIQ2hhbmdlTWUxHTAbBgkqhkiG9w0BCQEWDm1lQGV4YW1wbGUu
bmV0ggkAvWw79NMHydEwEwYDVR0lBAwwCgYIKwYBBQUHAwIwCwYDVR0PBAQDAgeA
MA0GCSqGSIb3DQEBCwUAA4IBAQCVNxCU4Cooyv5hLX7LDEOZqA5DS1xoInNOfa34
8o8RasmxQQ8p0yHdKUuJC4rkxbTtyO1Z+GlG3N1I/2U7Nx5zY6HuER5ty/G321zy
sPie7DrBYVUgURPjO8lzQZEuDnn8aXXUiKqSV/zAxFIKhYXedLQIVV0mvjI2v5CL
oRj0meX8rg4L5+esi4SK9oOHvwPOODdDNk6Ki7wy+yY79gCzDOK+kc93IPOXtY9t
xMAa/drZpmZQlgcRMl1EQukZISKdJnZlAe6pm5lQeWHJVmti5LM/QDtr2qEdo/uL
fMQL+/FLh3GWVdXRksL2VFuGKfTJNXfZC/0pAWKwIOza7t3C
-----END CERTIFICATE-----
