Certificate:
    Data:
        Version: 3 (0x2)
        Serial Number:
            9a:b7:99:e9:26:1a:41:46:21:72:de:98:10:00:f4:8b
    Signature Algorithm: sha256WithRSAEncryption
        Issuer: C=US, ST=California, L=San Francisco, O=Copyleft Certificate Co, OU=My Organizational Unit, CN=ChangeMe/emailAddress=me@example.net
        Validity
            Not Before: Nov 11 14:49:42 2023 GMT
            Not After : Nov 10 14:49:42 2024 GMT
        Subject: C=US, ST=OH, L=Cincinnati, O=University of Cincinnati ., OU=Dept. Elec. Comp. . Eng. Comp. Sci., CN=client0/emailAddress=franco@gauss.ececs.uc.edu
        Subject Public Key Info:
            Public Key Algorithm: rsaEncryption
                Public-Key: (2048 bit)
                Modulus:
                    00:c4:5e:46:53:c7:1a:d1:dc:8a:23:71:61:f7:fc:
                    d8:c3:03:74:56:e2:7a:74:95:4a:5c:dd:af:c7:9e:
                    7c:3c:da:4e:09:6e:45:b8:50:43:42:29:dc:60:45:
                    b1:e2:74:c8:0e:50:ca:83:10:88:4e:d3:2c:9c:94:
                    92:90:19:c3:30:82:d4:f9:1a:1a:3b:9b:76:52:7f:
                    e3:7a:e9:77:43:f7:a1:cc:7b:e0:3a:9e:6b:a7:85:
                    d5:91:69:98:9e:ab:7f:b6:e4:94:90:bf:18:a3:3e:
                    d9:05:8e:07:a3:31:de:f2:f1:5d:d3:9c:53:b0:05:
                    f5:e9:f1:23:06:b6:1d:f9:49:81:f5:e3:c3:cb:10:
                    65:9d:73:66:96:d0:a5:ec:ab:82:47:a4:51:79:4e:
                    c3:1d:39:3d:99:c9:21:5b:5b:cd:28:70:bb:cd:7b:
                    9d:16:68:4e:87:e9:70:a1:d3:21:6b:ef:53:ef:cc:
                    70:81:dc:bb:07:ca:2e:90:cd:32:62:d7:50:24:0a:
                    ed:27:5e:6d:3d:d3:38:7e:48:2f:d4:6a:79:ac:7c:
                    07:7c:29:55:ea:ab:82:62:eb:fe:6a:3e:9f:7c:3a:
                    65:4d:86:d6:af:7a:06:3a:48:28:c8:21:47:08:4a:
                    c5:66:67:21:2b:77:ae:fb:b8:4e:e2:f0:96:20:e6:
                    b2:07
                Exponent: 65537 (0x10001)
        X509v3 extensions:
            X509v3 Basic Constraints: 
                CA:FALSE
            X509v3 Subject Key Identifier: 
                78:BF:A8:F7:8C:F7:A0:1B:C5:6D:E4:32:6E:7B:2B:4C:54:95:3E:C7
            X509v3 Authority Key Identifier: 
                keyid:37:77:FF:9E:80:0A:A0:2D:03:2E:41:2E:A7:9F:2C:08:1D:27:A7:1F
                DirName:/C=US/ST=California/L=San Francisco/O=Copyleft Certificate Co/OU=My Organizational Unit/CN=ChangeMe/emailAddress=me@example.net
                serial:8E:F4:CE:BF:34:CB:64:72

            X509v3 Extended Key Usage: 
                TLS Web Client Authentication
            X509v3 Key Usage: 
                Digital Signature
    Signature Algorithm: sha256WithRSAEncryption
         9e:74:c2:cc:8f:3a:7e:dc:02:de:99:ec:f6:f1:82:4a:12:8a:
         09:7c:80:ea:1a:53:1c:a1:56:dd:6c:97:0a:d1:77:ff:f3:7e:
         6b:f9:fd:5f:64:ae:94:be:75:b3:c6:ba:35:2d:4c:15:25:cd:
         74:94:ba:1d:06:53:65:8f:04:c0:8f:2e:12:bb:39:d5:f6:09:
         fc:87:e0:62:e7:d4:c0:c7:58:65:95:a9:5b:0b:0c:76:72:92:
         e0:1f:bb:83:5e:6e:7f:0c:b9:00:8a:c5:a4:36:3f:bb:47:19:
         17:23:88:9b:92:5e:b7:45:5d:87:7f:f0:ff:e3:03:bc:e9:06:
         37:34:b2:e6:2f:40:c1:35:77:3a:32:47:0c:2f:61:ce:50:29:
         76:93:0b:bd:75:fd:5b:dd:3a:55:1a:99:9a:f0:75:da:fd:98:
         6b:c7:9f:93:3e:3a:44:3e:37:f4:c8:22:c8:9a:7b:16:63:c6:
         d3:a6:38:d7:67:0e:22:23:8c:df:ec:5a:92:68:aa:ae:16:06:
         e9:94:37:d1:50:ca:c4:02:3c:91:5b:b2:11:3e:0e:08:9a:16:
         43:04:b2:e5:85:fe:32:a2:3c:50:90:9e:ee:fc:e7:76:e6:5d:
         68:78:95:36:59:e1:63:5b:6f:40:b4:c1:91:cd:ce:24:17:50:
         9b:78:e5:32
-----BEGIN CERTIFICATE-----
MIIFMzCCBBugAwIBAgIRAJq3mekmGkFGIXLemBAA9IswDQYJKoZIhvcNAQELBQAw
ga8xCzAJBgNVBAYTAlVTMRMwEQYDVQQIDApDYWxpZm9ybmlhMRYwFAYDVQQHDA1T
YW4gRnJhbmNpc2NvMSAwHgYDVQQKDBdDb3B5bGVmdCBDZXJ0aWZpY2F0ZSBDbzEf
MB0GA1UECwwWTXkgT3JnYW5pemF0aW9uYWwgVW5pdDERMA8GA1UEAwwIQ2hhbmdl
TWUxHTAbBgkqhkiG9w0BCQEWDm1lQGV4YW1wbGUubmV0MB4XDTIzMTExMTE0NDk0
MloXDTI0MTExMDE0NDk0Mlowgb4xCzAJBgNVBAYTAlVTMQswCQYDVQQIDAJPSDET
MBEGA1UEBwwKQ2luY2lubmF0aTEjMCEGA1UECgwaVW5pdmVyc2l0eSBvZiBDaW5j
aW5uYXRpIC4xLDAqBgNVBAsMI0RlcHQuIEVsZWMuIENvbXAuIC4gRW5nLiBDb21w
LiBTY2kuMRAwDgYDVQQDDAdjbGllbnQwMSgwJgYJKoZIhvcNAQkBFhlmcmFuY29A
Z2F1c3MuZWNlY3MudWMuZWR1MIIBIjANBgkqhkiG9w0BAQEFAAOCAQ8AMIIBCgKC
AQEAxF5GU8ca0dyKI3Fh9/zYwwN0VuJ6dJVKXN2vx558PNpOCW5FuFBDQincYEWx
4nTIDlDKgxCITtMsnJSSkBnDMILU+RoaO5t2Un/jeul3Q/ehzHvgOp5rp4XVkWmY
nqt/tuSUkL8Yoz7ZBY4HozHe8vFd05xTsAX16fEjBrYd+UmB9ePDyxBlnXNmltCl
7KuCR6RReU7DHTk9mckhW1vNKHC7zXudFmhOh+lwodMha+9T78xwgdy7B8oukM0y
YtdQJArtJ15tPdM4fkgv1Gp5rHwHfClV6quCYuv+aj6ffDplTYbWr3oGOkgoyCFH
CErFZmchK3eu+7hO4vCWIOayBwIDAQABo4IBNzCCATMwCQYDVR0TBAIwADAdBgNV
HQ4EFgQUeL+o94z3oBvFbeQybnsrTFSVPscwgeQGA1UdIwSB3DCB2YAUN3f/noAK
oC0DLkEup58sCB0npx+hgbWkgbIwga8xCzAJBgNVBAYTAlVTMRMwEQYDVQQIDApD
YWxpZm9ybmlhMRYwFAYDVQQHDA1TYW4gRnJhbmNpc2NvMSAwHgYDVQQKDBdDb3B5
bGVmdCBDZXJ0aWZpY2F0ZSBDbzEfMB0GA1UECwwWTXkgT3JnYW5pemF0aW9uYWwg
VW5pdDERMA8GA1UEAwwIQ2hhbmdlTWUxHTAbBgkqhkiG9w0BCQEWDm1lQGV4YW1w
bGUubmV0ggkAjvTOvzTLZHIwEwYDVR0lBAwwCgYIKwYBBQUHAwIwCwYDVR0PBAQD
AgeAMA0GCSqGSIb3DQEBCwUAA4IBAQCedMLMjzp+3ALemez28YJKEooJfIDqGlMc
oVbdbJcK0Xf/835r+f1fZK6UvnWzxro1LUwVJc10lLodBlNljwTAjy4SuznV9gn8
h+Bi59TAx1hllalbCwx2cpLgH7uDXm5/DLkAisWkNj+7RxkXI4ibkl63RV2Hf/D/
4wO86QY3NLLmL0DBNXc6MkcML2HOUCl2kwu9df1b3TpVGpma8HXa/Zhrx5+TPjpE
Pjf0yCLImnsWY8bTpjjXZw4iI4zf7FqSaKquFgbplDfRUMrEAjyRW7IRPg4ImhZD
BLLlhf4yojxQkJ7u/Od25l1oeJU2WeFjW29AtMGRzc4kF1CbeOUy
-----END CERTIFICATE-----
