Certificate:
    Data:
        Version: 3 (0x2)
        Serial Number:
            9a:ed:40:04:1d:77:3d:45:2b:d5:b6:7d:10:b8:73:13
    Signature Algorithm: sha256WithRSAEncryption
        Issuer: C=US, ST=California, L=San Francisco, O=Copyleft Certificate Co, OU=My Organizational Unit, CN=ChangeMe/emailAddress=me@example.net
        Validity
            Not Before: Nov 12 11:47:51 2023 GMT
            Not After : Nov 11 11:47:51 2024 GMT
        Subject: C=US, ST=OH, L=Cincinnati, O=University of Cincinnati, OU=Dept. Elec. Comp. Eng. Comp. Sci., CN=client24/emailAddress=franco@gauss.ececs.uc.edu
        Subject Public Key Info:
            Public Key Algorithm: rsaEncryption
                Public-Key: (2048 bit)
                Modulus:
                    00:c4:2c:7f:01:23:6d:27:dd:a1:2f:55:49:c6:43:
                    b6:10:2c:d4:88:8e:d3:08:80:af:be:29:ce:de:87:
                    49:2b:8d:d1:87:22:8f:a5:41:b3:0c:43:24:60:d1:
                    dc:9d:23:64:29:2d:e3:16:d6:d7:01:ec:ad:48:c1:
                    7c:45:55:8b:fa:c1:43:ef:2e:3e:94:e9:c5:9a:f9:
                    93:2f:e5:53:e7:55:b7:72:fd:41:33:8c:17:a6:77:
                    f8:6d:a7:4c:53:b5:0c:4f:3e:1b:3a:ab:b3:d5:63:
                    89:dd:e4:c3:7a:6c:18:1a:24:ee:b8:9f:a3:52:df:
                    a7:59:69:bd:b5:c1:0c:68:da:ec:71:c0:61:14:ad:
                    eb:d7:3d:0b:c6:42:1e:fb:8d:24:34:b7:f4:a4:85:
                    c7:89:7f:2e:21:6d:b2:70:86:08:ac:fc:ca:ae:5c:
                    c5:9e:08:72:b6:e3:0c:b8:5f:ba:ba:83:2e:c1:da:
                    4c:e3:2f:8d:04:ad:fd:37:10:31:f1:e1:d5:ad:49:
                    72:19:a2:23:bc:64:4b:03:1a:46:95:ae:28:d4:f0:
                    6d:07:0d:bc:36:b8:c9:76:dd:c7:d3:75:69:d3:82:
                    fb:75:ac:e4:0b:86:40:59:b6:00:a4:69:0e:2f:e1:
                    c4:fa:a2:54:f3:d8:a0:0c:8d:d6:95:4a:15:b1:ec:
                    f6:ef
                Exponent: 65537 (0x10001)
        X509v3 extensions:
            X509v3 Basic Constraints: 
                CA:FALSE
            X509v3 Subject Key Identifier: 
                FF:B9:F1:E2:EE:28:78:2C:7B:8C:38:90:26:2B:98:1C:8E:AC:56:34
            X509v3 Authority Key Identifier: 
                keyid:C4:46:F2:96:38:56:02:B8:9D:09:04:52:25:91:35:97:6A:D7:B1:F0
                DirName:/C=US/ST=California/L=San Francisco/O=Copyleft Certificate Co/OU=My Organizational Unit/CN=ChangeMe/emailAddress=me@example.net
                serial:D1:5A:15:1C:F0:20:95:62

            X509v3 Extended Key Usage: 
                TLS Web Client Authentication
            X509v3 Key Usage: 
                Digital Signature
    Signature Algorithm: sha256WithRSAEncryption
         00:d3:d4:2a:a6:f2:96:d5:ec:cf:3a:16:77:f2:7e:9c:84:0c:
         1b:a2:41:24:69:a1:18:f3:48:e3:94:7d:6b:54:ea:40:1a:3d:
         1b:57:1d:79:e7:93:0b:37:a3:51:c7:a4:32:da:ba:b9:78:36:
         ad:04:bb:18:ac:8f:83:a8:1f:93:8a:d4:59:da:58:ac:68:a2:
         04:24:37:09:2b:8b:c5:aa:90:b5:ef:cb:11:a7:64:23:57:75:
         28:38:f4:16:73:2f:10:f4:46:fa:26:5d:91:ba:ae:60:2a:7b:
         2c:99:da:fd:04:4b:66:a3:aa:f5:ee:a0:3e:a1:44:04:97:27:
         8a:7d:c0:9c:d1:e1:4b:a2:0a:94:6a:0f:cf:d8:50:e4:a9:d2:
         7e:88:57:fc:fb:df:3e:67:d3:8f:a0:c3:9f:ee:26:47:53:d9:
         6c:dc:0f:3f:15:c7:3a:3d:54:2f:6c:27:26:48:c3:8e:70:af:
         b3:e5:82:61:9d:29:72:3c:23:12:81:a2:3f:f4:7f:cf:17:0c:
         b8:e4:37:80:ff:fc:38:af:21:da:f9:2e:ae:1c:5b:e1:10:af:
         1f:58:a3:73:01:9f:c0:f6:a0:72:aa:33:57:2f:b3:77:9a:9f:
         9b:a3:3c:2f:18:fa:de:61:c3:a6:61:4f:bb:f7:64:8e:c1:20:
         17:7f:5e:88
-----BEGIN CERTIFICATE-----
MIIFMDCCBBigAwIBAgIRAJrtQAQddz1FK9W2fRC4cxMwDQYJKoZIhvcNAQELBQAw
ga8xCzAJBgNVBAYTAlVTMRMwEQYDVQQIDApDYWxpZm9ybmlhMRYwFAYDVQQHDA1T
YW4gRnJhbmNpc2NvMSAwHgYDVQQKDBdDb3B5bGVmdCBDZXJ0aWZpY2F0ZSBDbzEf
MB0GA1UECwwWTXkgT3JnYW5pemF0aW9uYWwgVW5pdDERMA8GA1UEAwwIQ2hhbmdl
TWUxHTAbBgkqhkiG9w0BCQEWDm1lQGV4YW1wbGUubmV0MB4XDTIzMTExMjExNDc1
MVoXDTI0MTExMTExNDc1MVowgbsxCzAJBgNVBAYTAlVTMQswCQYDVQQIDAJPSDET
MBEGA1UEBwwKQ2luY2lubmF0aTEhMB8GA1UECgwYVW5pdmVyc2l0eSBvZiBDaW5j
aW5uYXRpMSowKAYDVQQLDCFEZXB0LiBFbGVjLiBDb21wLiBFbmcuIENvbXAuIFNj
aS4xETAPBgNVBAMMCGNsaWVudDI0MSgwJgYJKoZIhvcNAQkBFhlmcmFuY29AZ2F1
c3MuZWNlY3MudWMuZWR1MIIBIjANBgkqhkiG9w0BAQEFAAOCAQ8AMIIBCgKCAQEA
xCx/ASNtJ92hL1VJxkO2ECzUiI7TCICvvinO3odJK43RhyKPpUGzDEMkYNHcnSNk
KS3jFtbXAeytSMF8RVWL+sFD7y4+lOnFmvmTL+VT51W3cv1BM4wXpnf4badMU7UM
Tz4bOquz1WOJ3eTDemwYGiTuuJ+jUt+nWWm9tcEMaNrsccBhFK3r1z0LxkIe+40k
NLf0pIXHiX8uIW2ycIYIrPzKrlzFnghytuMMuF+6uoMuwdpM4y+NBK39NxAx8eHV
rUlyGaIjvGRLAxpGla4o1PBtBw28NrjJdt3H03Vp04L7dazkC4ZAWbYApGkOL+HE
+qJU89igDI3WlUoVsez27wIDAQABo4IBNzCCATMwCQYDVR0TBAIwADAdBgNVHQ4E
FgQU/7nx4u4oeCx7jDiQJiuYHI6sVjQwgeQGA1UdIwSB3DCB2YAUxEbyljhWArid
CQRSJZE1l2rXsfChgbWkgbIwga8xCzAJBgNVBAYTAlVTMRMwEQYDVQQIDApDYWxp
Zm9ybmlhMRYwFAYDVQQHDA1TYW4gRnJhbmNpc2NvMSAwHgYDVQQKDBdDb3B5bGVm
dCBDZXJ0aWZpY2F0ZSBDbzEfMB0GA1UECwwWTXkgT3JnYW5pemF0aW9uYWwgVW5p
dDERMA8GA1UEAwwIQ2hhbmdlTWUxHTAbBgkqhkiG9w0BCQEWDm1lQGV4YW1wbGUu
bmV0ggkA0VoVHPAglWIwEwYDVR0lBAwwCgYIKwYBBQUHAwIwCwYDVR0PBAQDAgeA
MA0GCSqGSIb3DQEBCwUAA4IBAQAA09QqpvKW1ezPOhZ38n6chAwbokEkaaEY80jj
lH1rVOpAGj0bVx1555MLN6NRx6Qy2rq5eDatBLsYrI+DqB+TitRZ2lisaKIEJDcJ
K4vFqpC178sRp2QjV3UoOPQWcy8Q9Eb6Jl2Ruq5gKnssmdr9BEtmo6r17qA+oUQE
lyeKfcCc0eFLogqUag/P2FDkqdJ+iFf8+98+Z9OPoMOf7iZHU9ls3A8/Fcc6PVQv
bCcmSMOOcK+z5YJhnSlyPCMSgaI/9H/PFwy45DeA//w4ryHa+S6uHFvhEK8fWKNz
AZ/A9qByqjNXL7N3mp+bozwvGPreYcOmYU+792SOwSAXf16I
-----END CERTIFICATE-----
