Certificate:
    Data:
        Version: 3 (0x2)
        Serial Number:
            a0:46:c8:2e:74:88:63:e8:1d:86:24:51:e4:5f:e7:52
    Signature Algorithm: sha256WithRSAEncryption
        Issuer: C=US, ST=California, L=San Francisco, O=Copyleft Certificate Co, OU=My Organizational Unit, CN=ChangeMe/emailAddress=me@example.net
        Validity
            Not Before: Nov 11 18:50:36 2023 GMT
            Not After : Nov 10 18:50:36 2024 GMT
        Subject: C=US, ST=OH, L=Cincinnati, O=University of Cincinnati ., OU=Dept. Elec. Comp. . Eng. Comp. Sci., CN=client10/emailAddress=franco@gauss.ececs.uc.edu
        Subject Public Key Info:
            Public Key Algorithm: rsaEncryption
                Public-Key: (2048 bit)
                Modulus:
                    00:da:b6:fd:f9:3f:67:f8:bf:a0:80:4f:9c:3a:11:
                    a7:13:4d:6c:67:f8:4d:90:e9:22:68:be:44:fb:00:
                    7f:ee:9b:58:69:63:86:10:31:23:bd:a0:90:14:bc:
                    8d:39:3a:9c:43:c0:24:79:e2:a0:bd:00:30:41:8f:
                    ca:f2:ab:6d:8e:44:dd:51:7f:b2:e5:f0:22:17:6d:
                    30:84:62:0f:e2:10:27:ed:e7:0a:4f:3f:02:84:d7:
                    b1:ca:4d:16:f6:7d:d5:af:d8:60:a0:cd:df:e2:2b:
                    eb:8b:57:65:1d:b3:6c:25:c6:7a:73:ac:ee:ca:46:
                    9e:c6:63:c1:41:b1:75:16:25:d3:f4:f0:0a:39:c8:
                    9b:da:03:34:31:2b:d3:6e:e9:1a:f8:97:ad:6e:7f:
                    04:35:39:92:f4:ca:15:e2:e3:ad:77:1f:55:af:5e:
                    49:bb:8a:8d:c7:a3:35:61:9d:e0:4a:2b:4c:02:3c:
                    27:61:30:4f:12:d6:a4:76:77:4d:40:0d:da:0d:c0:
                    6d:61:a7:f7:16:fc:cb:85:16:26:2c:a3:4c:3e:3c:
                    b1:88:36:7d:1a:36:93:16:d0:73:1b:4e:20:c2:a4:
                    08:b3:8c:91:3f:d4:25:21:bd:51:1f:8e:3e:1f:2a:
                    86:2d:8b:6a:db:ab:fb:b8:a4:05:3d:c7:d0:70:48:
                    b8:45
                Exponent: 65537 (0x10001)
        X509v3 extensions:
            X509v3 Basic Constraints: 
                CA:FALSE
            X509v3 Subject Key Identifier: 
                10:D4:E7:49:69:23:05:67:27:4D:4F:92:92:53:BE:FA:39:18:05:D8
            X509v3 Authority Key Identifier: 
                keyid:9C:0E:D5:A3:16:6F:C8:23:88:D1:12:C9:63:5D:18:D9:C9:FC:5B:E9
                DirName:/C=US/ST=California/L=San Francisco/O=Copyleft Certificate Co/OU=My Organizational Unit/CN=ChangeMe/emailAddress=me@example.net
                serial:A3:08:26:80:D2:47:98:75

            X509v3 Extended Key Usage: 
                TLS Web Client Authentication
            X509v3 Key Usage: 
                Digital Signature
    Signature Algorithm: sha256WithRSAEncryption
         85:f1:40:20:f7:2a:d9:ba:73:9c:40:06:52:24:bd:1a:ea:46:
         4e:65:17:a4:26:2c:a8:0b:66:11:22:6d:7e:24:4e:b7:77:0e:
         22:0f:7f:48:48:21:9a:6a:fd:23:fe:cc:79:d2:1f:3f:48:a3:
         4e:9b:92:8e:b2:ca:05:e1:5f:ae:a4:0c:e8:bd:0f:b9:03:b4:
         6c:53:97:a5:68:c5:e2:d6:55:0c:ed:e1:ed:00:55:fb:19:01:
         8f:03:08:f8:a2:45:bd:28:3c:42:7c:17:b2:64:50:0a:8f:e3:
         a2:5b:f9:aa:78:35:14:23:db:d9:81:f1:55:a9:f1:ef:a3:7a:
         df:93:47:b1:15:c1:14:4c:74:22:8f:ab:44:1c:5d:0e:e5:9a:
         9c:50:12:56:64:c8:6b:0f:68:6e:a8:87:c3:65:31:be:b3:d0:
         ab:f4:e9:4d:1e:f3:9b:67:88:c3:50:4f:3a:3d:63:4d:c6:9f:
         65:c6:5e:ec:21:bc:3a:07:74:89:1f:99:f1:b1:3c:98:4f:a0:
         b2:91:b3:31:bb:44:4e:3b:b0:e5:21:6f:28:90:9e:c1:78:32:
         77:dc:b5:44:f0:17:db:ab:97:82:6d:41:ee:cc:30:95:cd:52:
         b7:cc:ba:e4:dd:36:df:e6:6c:89:f0:cd:7c:64:42:b6:8a:a8:
         c4:6b:5e:6f
-----BEGIN CERTIFICATE-----
MIIFNDCCBBygAwIBAgIRAKBGyC50iGPoHYYkUeRf51IwDQYJKoZIhvcNAQELBQAw
ga8xCzAJBgNVBAYTAlVTMRMwEQYDVQQIDApDYWxpZm9ybmlhMRYwFAYDVQQHDA1T
YW4gRnJhbmNpc2NvMSAwHgYDVQQKDBdDb3B5bGVmdCBDZXJ0aWZpY2F0ZSBDbzEf
MB0GA1UECwwWTXkgT3JnYW5pemF0aW9uYWwgVW5pdDERMA8GA1UEAwwIQ2hhbmdl
TWUxHTAbBgkqhkiG9w0BCQEWDm1lQGV4YW1wbGUubmV0MB4XDTIzMTExMTE4NTAz
NloXDTI0MTExMDE4NTAzNlowgb8xCzAJBgNVBAYTAlVTMQswCQYDVQQIDAJPSDET
MBEGA1UEBwwKQ2luY2lubmF0aTEjMCEGA1UECgwaVW5pdmVyc2l0eSBvZiBDaW5j
aW5uYXRpIC4xLDAqBgNVBAsMI0RlcHQuIEVsZWMuIENvbXAuIC4gRW5nLiBDb21w
LiBTY2kuMREwDwYDVQQDDAhjbGllbnQxMDEoMCYGCSqGSIb3DQEJARYZZnJhbmNv
QGdhdXNzLmVjZWNzLnVjLmVkdTCCASIwDQYJKoZIhvcNAQEBBQADggEPADCCAQoC
ggEBANq2/fk/Z/i/oIBPnDoRpxNNbGf4TZDpImi+RPsAf+6bWGljhhAxI72gkBS8
jTk6nEPAJHnioL0AMEGPyvKrbY5E3VF/suXwIhdtMIRiD+IQJ+3nCk8/AoTXscpN
FvZ91a/YYKDN3+Ir64tXZR2zbCXGenOs7spGnsZjwUGxdRYl0/TwCjnIm9oDNDEr
027pGviXrW5/BDU5kvTKFeLjrXcfVa9eSbuKjcejNWGd4EorTAI8J2EwTxLWpHZ3
TUAN2g3AbWGn9xb8y4UWJiyjTD48sYg2fRo2kxbQcxtOIMKkCLOMkT/UJSG9UR+O
Ph8qhi2Latur+7ikBT3H0HBIuEUCAwEAAaOCATcwggEzMAkGA1UdEwQCMAAwHQYD
VR0OBBYEFBDU50lpIwVnJ01PkpJTvvo5GAXYMIHkBgNVHSMEgdwwgdmAFJwO1aMW
b8gjiNESyWNdGNnJ/FvpoYG1pIGyMIGvMQswCQYDVQQGEwJVUzETMBEGA1UECAwK
Q2FsaWZvcm5pYTEWMBQGA1UEBwwNU2FuIEZyYW5jaXNjbzEgMB4GA1UECgwXQ29w
eWxlZnQgQ2VydGlmaWNhdGUgQ28xHzAdBgNVBAsMFk15IE9yZ2FuaXphdGlvbmFs
IFVuaXQxETAPBgNVBAMMCENoYW5nZU1lMR0wGwYJKoZIhvcNAQkBFg5tZUBleGFt
cGxlLm5ldIIJAKMIJoDSR5h1MBMGA1UdJQQMMAoGCCsGAQUFBwMCMAsGA1UdDwQE
AwIHgDANBgkqhkiG9w0BAQsFAAOCAQEAhfFAIPcq2bpznEAGUiS9GupGTmUXpCYs
qAtmESJtfiROt3cOIg9/SEghmmr9I/7MedIfP0ijTpuSjrLKBeFfrqQM6L0PuQO0
bFOXpWjF4tZVDO3h7QBV+xkBjwMI+KJFvSg8QnwXsmRQCo/jolv5qng1FCPb2YHx
Vanx76N635NHsRXBFEx0Io+rRBxdDuWanFASVmTIaw9obqiHw2UxvrPQq/TpTR7z
m2eIw1BPOj1jTcafZcZe7CG8Ogd0iR+Z8bE8mE+gspGzMbtETjuw5SFvKJCewXgy
d9y1RPAX26uXgm1B7swwlc1St8y65N023+ZsifDNfGRCtoqoxGtebw==
-----END CERTIFICATE-----
