Certificate:
    Data:
        Version: 3 (0x2)
        Serial Number:
            a1:d6:0c:ea:6f:d8:3b:0f:d0:0a:62:d3:c6:b7:8b:87
    Signature Algorithm: sha256WithRSAEncryption
        Issuer: C=US, ST=California, L=San Francisco, O=Copyleft Certificate Co, OU=My Organizational Unit, CN=ChangeMe/emailAddress=me@example.net
        Validity
            Not Before: Jan 23 18:30:38 2021 GMT
            Not After : Jan 23 18:30:38 2022 GMT
        Subject: C=US, ST=OH, L=Cincinnati, O=University of Cincinnati, OU=Dept. Electrical Eng. and Computer Sci., CN=client144/emailAddress=franco@gauss.ececs.uc.edu
        Subject Public Key Info:
            Public Key Algorithm: rsaEncryption
                Public-Key: (2048 bit)
                Modulus:
                    00:dc:c7:53:73:f2:b3:b9:80:20:17:87:59:46:14:
                    8d:dd:bb:b0:3d:02:6f:f9:c9:08:5f:75:d6:fe:24:
                    00:64:5c:92:2d:ba:d3:55:e4:53:41:2b:e2:9b:c1:
                    04:4e:82:3d:ee:0e:e7:0e:8c:98:f6:7d:93:ea:24:
                    70:4b:10:ea:87:7d:69:25:a7:1a:94:c8:c6:9b:a5:
                    fb:30:68:96:f7:fe:ad:33:61:2f:04:a0:16:c3:f9:
                    0a:ca:35:1c:52:9c:a7:cf:ab:50:ab:9e:ab:e4:23:
                    c9:44:2e:1f:fe:88:69:51:79:92:8f:e5:0c:fb:c7:
                    9c:7d:68:63:e7:db:de:b3:4a:1b:ba:c8:7e:cb:53:
                    38:3b:f8:4c:a6:8f:a9:cb:36:c8:18:da:95:dc:f2:
                    64:50:e3:bc:75:1c:1d:51:4c:be:d6:8f:31:3c:53:
                    0b:49:d3:61:51:c2:c0:f3:cc:f9:92:b4:4a:ea:11:
                    08:bb:10:14:e9:6a:e2:1a:23:8e:33:c1:97:90:da:
                    d9:17:9c:57:fe:e1:51:49:e5:97:24:da:e7:94:c0:
                    d1:f3:a3:97:6b:d0:ac:4a:b3:6d:af:76:6c:a7:84:
                    41:0c:33:92:64:7c:84:58:7f:bf:90:a2:ec:b2:fa:
                    97:ad:ff:18:8e:10:86:7d:3e:dd:56:24:5d:f1:58:
                    8e:0b
                Exponent: 65537 (0x10001)
        X509v3 extensions:
            X509v3 Basic Constraints: 
                CA:FALSE
            X509v3 Subject Key Identifier: 
                D2:89:AF:49:90:8B:24:73:00:64:F6:49:17:84:9E:9C:B8:62:B9:B3
            X509v3 Authority Key Identifier: 
                keyid:EF:DC:B6:3D:4B:FD:A7:87:05:C5:22:3D:8B:DC:BF:99:2A:EE:E4:DB
                DirName:/C=US/ST=California/L=San Francisco/O=Copyleft Certificate Co/OU=My Organizational Unit/CN=ChangeMe/emailAddress=me@example.net
                serial:87:1E:1D:DC:6B:8C:66:88

            X509v3 Extended Key Usage: 
                TLS Web Client Authentication
            X509v3 Key Usage: 
                Digital Signature
    Signature Algorithm: sha256WithRSAEncryption
         51:53:f9:d9:00:7b:5f:50:82:01:97:79:24:68:34:37:ed:3a:
         6c:c9:52:e4:41:85:64:ee:fd:00:0a:36:37:66:cc:19:35:d3:
         de:5b:08:af:4a:5c:89:22:5b:2e:2d:eb:1c:71:8e:70:5a:ae:
         7e:db:51:94:fc:f5:27:7b:2c:ea:f8:98:7b:07:6c:51:f3:34:
         98:c9:e8:28:36:28:76:bd:9c:75:23:dd:f1:47:71:52:ef:66:
         24:ec:2e:69:f2:66:fb:40:0a:f3:a1:ac:47:99:df:f9:9d:5f:
         e2:72:de:c7:37:76:23:ab:5a:60:43:39:e0:67:c7:3b:93:f3:
         45:83:01:5a:6f:bd:c5:48:9d:2e:27:c6:12:d7:bc:6c:80:b5:
         36:63:65:52:d2:17:3a:25:72:65:79:e6:43:80:2d:7c:d5:2a:
         51:34:db:ad:a8:54:ee:3c:08:de:19:df:13:ae:99:15:08:9e:
         c1:b3:c8:b2:53:4d:df:8c:fb:c2:d0:4a:66:e9:a6:c5:a9:a2:
         6f:d7:f9:f7:7a:b5:39:fd:a5:3b:9b:55:10:9f:33:a1:16:8d:
         85:46:db:58:19:c3:dc:8b:a5:82:cc:8a:b1:9f:24:6b:d0:c8:
         a0:e5:f3:e1:fd:c8:27:1a:f9:42:1c:43:73:1a:bc:7c:6f:fa:
         79:d1:63:64
-----BEGIN CERTIFICATE-----
MIIFNzCCBB+gAwIBAgIRAKHWDOpv2DsP0Api08a3i4cwDQYJKoZIhvcNAQELBQAw
ga8xCzAJBgNVBAYTAlVTMRMwEQYDVQQIDApDYWxpZm9ybmlhMRYwFAYDVQQHDA1T
YW4gRnJhbmNpc2NvMSAwHgYDVQQKDBdDb3B5bGVmdCBDZXJ0aWZpY2F0ZSBDbzEf
MB0GA1UECwwWTXkgT3JnYW5pemF0aW9uYWwgVW5pdDERMA8GA1UEAwwIQ2hhbmdl
TWUxHTAbBgkqhkiG9w0BCQEWDm1lQGV4YW1wbGUubmV0MB4XDTIxMDEyMzE4MzAz
OFoXDTIyMDEyMzE4MzAzOFowgcIxCzAJBgNVBAYTAlVTMQswCQYDVQQIDAJPSDET
MBEGA1UEBwwKQ2luY2lubmF0aTEhMB8GA1UECgwYVW5pdmVyc2l0eSBvZiBDaW5j
aW5uYXRpMTAwLgYDVQQLDCdEZXB0LiBFbGVjdHJpY2FsIEVuZy4gYW5kIENvbXB1
dGVyIFNjaS4xEjAQBgNVBAMMCWNsaWVudDE0NDEoMCYGCSqGSIb3DQEJARYZZnJh
bmNvQGdhdXNzLmVjZWNzLnVjLmVkdTCCASIwDQYJKoZIhvcNAQEBBQADggEPADCC
AQoCggEBANzHU3Pys7mAIBeHWUYUjd27sD0Cb/nJCF911v4kAGRcki2601XkU0Er
4pvBBE6CPe4O5w6MmPZ9k+okcEsQ6od9aSWnGpTIxpul+zBolvf+rTNhLwSgFsP5
Cso1HFKcp8+rUKueq+QjyUQuH/6IaVF5ko/lDPvHnH1oY+fb3rNKG7rIfstTODv4
TKaPqcs2yBjaldzyZFDjvHUcHVFMvtaPMTxTC0nTYVHCwPPM+ZK0SuoRCLsQFOlq
4hojjjPBl5Da2RecV/7hUUnllyTa55TA0fOjl2vQrEqzba92bKeEQQwzkmR8hFh/
v5Ci7LL6l63/GI4Qhn0+3VYkXfFYjgsCAwEAAaOCATcwggEzMAkGA1UdEwQCMAAw
HQYDVR0OBBYEFNKJr0mQiyRzAGT2SReEnpy4YrmzMIHkBgNVHSMEgdwwgdmAFO/c
tj1L/aeHBcUiPYvcv5kq7uTboYG1pIGyMIGvMQswCQYDVQQGEwJVUzETMBEGA1UE
CAwKQ2FsaWZvcm5pYTEWMBQGA1UEBwwNU2FuIEZyYW5jaXNjbzEgMB4GA1UECgwX
Q29weWxlZnQgQ2VydGlmaWNhdGUgQ28xHzAdBgNVBAsMFk15IE9yZ2FuaXphdGlv
bmFsIFVuaXQxETAPBgNVBAMMCENoYW5nZU1lMR0wGwYJKoZIhvcNAQkBFg5tZUBl
eGFtcGxlLm5ldIIJAIceHdxrjGaIMBMGA1UdJQQMMAoGCCsGAQUFBwMCMAsGA1Ud
DwQEAwIHgDANBgkqhkiG9w0BAQsFAAOCAQEAUVP52QB7X1CCAZd5JGg0N+06bMlS
5EGFZO79AAo2N2bMGTXT3lsIr0pciSJbLi3rHHGOcFqufttRlPz1J3ss6viYewds
UfM0mMnoKDYodr2cdSPd8UdxUu9mJOwuafJm+0AK86GsR5nf+Z1f4nLexzd2I6ta
YEM54GfHO5PzRYMBWm+9xUidLifGEte8bIC1NmNlUtIXOiVyZXnmQ4AtfNUqUTTb
rahU7jwI3hnfE66ZFQiewbPIslNN34z7wtBKZummxamib9f593q1Of2lO5tVEJ8z
oRaNhUbbWBnD3IulgsyKsZ8ka9DIoOXz4f3IJxr5QhxDcxq8fG/6edFjZA==
-----END CERTIFICATE-----
