Certificate:
    Data:
        Version: 3 (0x2)
        Serial Number:
            a1:eb:a7:30:b8:a4:95:20:60:4d:7f:c8:10:66:12:37
    Signature Algorithm: sha256WithRSAEncryption
        Issuer: C=US, ST=California, L=San Francisco, O=Copyleft Certificate Co, OU=My Organizational Unit, CN=ChangeMe/emailAddress=me@example.net
        Validity
            Not Before: Jan 23 18:30:29 2021 GMT
            Not After : Jan 23 18:30:29 2022 GMT
        Subject: C=US, ST=OH, L=Cincinnati, O=University of Cincinnati, OU=Dept. Electrical Eng. and Computer Sci., CN=client137/emailAddress=franco@gauss.ececs.uc.edu
        Subject Public Key Info:
            Public Key Algorithm: rsaEncryption
                Public-Key: (2048 bit)
                Modulus:
                    00:b8:0e:86:a3:42:e7:dd:15:5a:1c:2e:fa:95:8e:
                    43:84:2f:59:34:4b:e4:b0:3a:ee:af:d9:e7:33:93:
                    2f:81:bf:6f:66:a7:4c:ce:b5:bc:41:60:34:1c:fd:
                    d0:a3:78:b6:d7:e5:09:24:5c:24:be:e1:4e:82:e1:
                    46:ee:56:cb:73:16:01:bd:b7:6b:8b:5f:26:c9:d1:
                    04:a9:0b:a6:ad:1a:fa:d9:c0:70:29:76:4c:7d:6e:
                    60:fb:dd:6c:c3:19:ce:f2:ff:19:8a:9d:50:4b:43:
                    84:b0:dd:c9:15:25:1c:5a:1f:03:bb:bf:29:30:0c:
                    1b:98:72:c7:f8:dc:7a:d0:1a:5f:f9:75:26:8b:f0:
                    21:90:07:f6:b6:40:7b:88:d9:1b:da:49:be:c5:c3:
                    35:fc:75:c4:3c:3c:14:05:0b:a9:a8:74:79:58:85:
                    f5:d0:8f:56:11:26:b9:8f:89:a9:74:53:1f:83:40:
                    99:61:7c:da:cd:4c:57:f1:46:0f:3a:cd:7c:9c:79:
                    23:ff:51:bc:cb:de:e2:69:1f:25:2b:1e:89:21:1d:
                    24:4a:43:db:62:b3:bd:a6:c7:c3:95:a3:1d:0a:28:
                    58:88:3e:eb:08:25:1e:15:ee:57:cd:2d:32:80:2e:
                    0b:d6:3f:b8:de:b8:ee:b7:70:b0:76:b5:1d:a0:20:
                    d4:69
                Exponent: 65537 (0x10001)
        X509v3 extensions:
            X509v3 Basic Constraints: 
                CA:FALSE
            X509v3 Subject Key Identifier: 
                76:07:F3:6E:4A:C1:F9:66:52:0D:68:B3:F3:93:20:78:6E:F8:03:5B
            X509v3 Authority Key Identifier: 
                keyid:EF:DC:B6:3D:4B:FD:A7:87:05:C5:22:3D:8B:DC:BF:99:2A:EE:E4:DB
                DirName:/C=US/ST=California/L=San Francisco/O=Copyleft Certificate Co/OU=My Organizational Unit/CN=ChangeMe/emailAddress=me@example.net
                serial:87:1E:1D:DC:6B:8C:66:88

            X509v3 Extended Key Usage: 
                TLS Web Client Authentication
            X509v3 Key Usage: 
                Digital Signature
    Signature Algorithm: sha256WithRSAEncryption
         a1:40:93:8e:a1:da:47:c9:83:90:a9:ba:73:3a:b9:68:27:57:
         06:3c:14:7a:af:69:c1:ab:2d:35:c7:f3:d5:5b:ba:df:5e:3c:
         cf:7e:9a:41:1b:bc:47:de:41:dd:6a:42:35:6e:d9:b4:d0:c5:
         f8:82:b5:fb:9f:02:7a:ff:23:83:b3:d7:7b:d0:4a:37:dd:74:
         dd:68:88:72:2a:f4:5f:db:a2:cd:06:ce:46:38:e5:c4:dc:fa:
         33:f8:b5:90:83:c7:b8:aa:c2:30:48:1a:ff:51:40:3f:53:d5:
         67:af:f1:4a:02:4e:b2:02:cf:ba:9c:52:7f:8d:0b:59:68:67:
         95:25:04:46:b9:3a:62:c6:08:e6:a2:70:b8:1d:a0:a3:ec:77:
         1e:f5:42:fc:d6:df:56:51:87:c3:72:25:74:b2:ac:0d:52:1f:
         18:ff:5f:d9:3b:70:60:2a:4e:89:b3:1a:bf:31:f8:fe:d6:b1:
         1e:63:9e:23:88:7f:b2:a5:ed:85:7b:59:07:29:e7:b3:d9:34:
         12:ee:ff:34:7d:36:dd:ff:13:08:42:02:96:c1:7f:34:8f:a1:
         54:50:a1:0b:60:e9:0b:fb:71:5b:52:d6:f5:b1:e6:1b:78:25:
         5b:da:48:7a:4d:14:6a:e4:49:2c:04:1c:38:c2:4e:c0:f8:03:
         c5:bc:f9:2c
-----BEGIN CERTIFICATE-----
MIIFNzCCBB+gAwIBAgIRAKHrpzC4pJUgYE1/yBBmEjcwDQYJKoZIhvcNAQELBQAw
ga8xCzAJBgNVBAYTAlVTMRMwEQYDVQQIDApDYWxpZm9ybmlhMRYwFAYDVQQHDA1T
YW4gRnJhbmNpc2NvMSAwHgYDVQQKDBdDb3B5bGVmdCBDZXJ0aWZpY2F0ZSBDbzEf
MB0GA1UECwwWTXkgT3JnYW5pemF0aW9uYWwgVW5pdDERMA8GA1UEAwwIQ2hhbmdl
TWUxHTAbBgkqhkiG9w0BCQEWDm1lQGV4YW1wbGUubmV0MB4XDTIxMDEyMzE4MzAy
OVoXDTIyMDEyMzE4MzAyOVowgcIxCzAJBgNVBAYTAlVTMQswCQYDVQQIDAJPSDET
MBEGA1UEBwwKQ2luY2lubmF0aTEhMB8GA1UECgwYVW5pdmVyc2l0eSBvZiBDaW5j
aW5uYXRpMTAwLgYDVQQLDCdEZXB0LiBFbGVjdHJpY2FsIEVuZy4gYW5kIENvbXB1
dGVyIFNjaS4xEjAQBgNVBAMMCWNsaWVudDEzNzEoMCYGCSqGSIb3DQEJARYZZnJh
bmNvQGdhdXNzLmVjZWNzLnVjLmVkdTCCASIwDQYJKoZIhvcNAQEBBQADggEPADCC
AQoCggEBALgOhqNC590VWhwu+pWOQ4QvWTRL5LA67q/Z5zOTL4G/b2anTM61vEFg
NBz90KN4ttflCSRcJL7hToLhRu5Wy3MWAb23a4tfJsnRBKkLpq0a+tnAcCl2TH1u
YPvdbMMZzvL/GYqdUEtDhLDdyRUlHFofA7u/KTAMG5hyx/jcetAaX/l1JovwIZAH
9rZAe4jZG9pJvsXDNfx1xDw8FAULqah0eViF9dCPVhEmuY+JqXRTH4NAmWF82s1M
V/FGDzrNfJx5I/9RvMve4mkfJSseiSEdJEpD22KzvabHw5WjHQooWIg+6wglHhXu
V80tMoAuC9Y/uN647rdwsHa1HaAg1GkCAwEAAaOCATcwggEzMAkGA1UdEwQCMAAw
HQYDVR0OBBYEFHYH825KwflmUg1os/OTIHhu+ANbMIHkBgNVHSMEgdwwgdmAFO/c
tj1L/aeHBcUiPYvcv5kq7uTboYG1pIGyMIGvMQswCQYDVQQGEwJVUzETMBEGA1UE
CAwKQ2FsaWZvcm5pYTEWMBQGA1UEBwwNU2FuIEZyYW5jaXNjbzEgMB4GA1UECgwX
Q29weWxlZnQgQ2VydGlmaWNhdGUgQ28xHzAdBgNVBAsMFk15IE9yZ2FuaXphdGlv
bmFsIFVuaXQxETAPBgNVBAMMCENoYW5nZU1lMR0wGwYJKoZIhvcNAQkBFg5tZUBl
eGFtcGxlLm5ldIIJAIceHdxrjGaIMBMGA1UdJQQMMAoGCCsGAQUFBwMCMAsGA1Ud
DwQEAwIHgDANBgkqhkiG9w0BAQsFAAOCAQEAoUCTjqHaR8mDkKm6czq5aCdXBjwU
eq9pwastNcfz1Vu63148z36aQRu8R95B3WpCNW7ZtNDF+IK1+58Cev8jg7PXe9BK
N9103WiIcir0X9uizQbORjjlxNz6M/i1kIPHuKrCMEga/1FAP1PVZ6/xSgJOsgLP
upxSf40LWWhnlSUERrk6YsYI5qJwuB2go+x3HvVC/NbfVlGHw3IldLKsDVIfGP9f
2TtwYCpOibMavzH4/taxHmOeI4h/sqXthXtZBynns9k0Eu7/NH023f8TCEIClsF/
NI+hVFChC2DpC/txW1LW9bHmG3glW9pIek0UauRJLAQcOMJOwPgDxbz5LA==
-----END CERTIFICATE-----
