Certificate:
    Data:
        Version: 3 (0x2)
        Serial Number:
            a3:7b:aa:df:bc:28:35:e4:19:02:8b:8e:9e:aa:86:91
    Signature Algorithm: sha256WithRSAEncryption
        Issuer: C=US, ST=California, L=San Francisco, O=Copyleft Certificate Co, OU=My Organizational Unit, CN=ChangeMe/emailAddress=me@example.net
        Validity
            Not Before: Nov 12 11:48:51 2023 GMT
            Not After : Nov 11 11:48:51 2024 GMT
        Subject: C=US, ST=OH, L=Cincinnati, O=University of Cincinnati, OU=Dept. Elec. Comp. Eng. Comp. Sci., CN=client39/emailAddress=franco@gauss.ececs.uc.edu
        Subject Public Key Info:
            Public Key Algorithm: rsaEncryption
                Public-Key: (2048 bit)
                Modulus:
                    00:d5:fb:f1:9f:f7:f0:53:81:2d:39:3d:3e:34:70:
                    bd:25:52:83:47:ae:f1:84:3b:71:76:49:06:1a:3a:
                    3e:9a:6f:50:93:c3:0f:95:1b:dc:e5:dc:07:99:c6:
                    a1:b8:1b:c5:56:d4:fb:82:47:1c:a3:57:3b:33:8e:
                    b1:33:c6:a4:a2:7e:7a:cd:07:20:bb:fc:7e:e4:ab:
                    e0:e6:9b:ac:71:9d:28:9f:45:27:c1:e3:e6:84:26:
                    88:e8:b5:cd:42:df:87:23:df:cc:8c:c1:60:c6:5a:
                    9f:6e:da:a5:ab:65:a7:be:6e:06:c6:e5:ae:74:bd:
                    a3:ec:3a:4c:cd:93:c1:36:ec:c6:67:ee:bf:79:f1:
                    7c:6a:08:22:20:33:84:c9:8a:67:65:fd:89:a0:0d:
                    97:fe:c6:a5:8f:93:ed:aa:38:c7:af:5f:bc:4b:f7:
                    9c:f7:07:bd:e6:72:e7:0e:ab:84:32:72:84:34:1c:
                    07:b6:50:49:44:1a:eb:67:fd:19:88:7c:2f:35:1d:
                    0c:38:d1:9d:66:1d:cc:3d:43:f1:50:d1:da:f3:b1:
                    ca:b9:d5:49:10:9b:22:11:62:96:fd:50:e8:9e:95:
                    8d:a4:18:ce:19:8f:19:23:fd:df:5e:b1:ce:04:39:
                    20:7e:ba:cc:1e:d6:9f:d1:61:0b:aa:0d:60:72:f4:
                    22:f7
                Exponent: 65537 (0x10001)
        X509v3 extensions:
            X509v3 Basic Constraints: 
                CA:FALSE
            X509v3 Subject Key Identifier: 
                2C:DA:D0:02:30:E0:11:09:08:C8:0B:84:21:17:E8:91:5A:14:B0:D7
            X509v3 Authority Key Identifier: 
                keyid:C4:46:F2:96:38:56:02:B8:9D:09:04:52:25:91:35:97:6A:D7:B1:F0
                DirName:/C=US/ST=California/L=San Francisco/O=Copyleft Certificate Co/OU=My Organizational Unit/CN=ChangeMe/emailAddress=me@example.net
                serial:D1:5A:15:1C:F0:20:95:62

            X509v3 Extended Key Usage: 
                TLS Web Client Authentication
            X509v3 Key Usage: 
                Digital Signature
    Signature Algorithm: sha256WithRSAEncryption
         7f:04:4f:3c:77:52:86:d1:79:79:52:86:14:c1:9e:e7:08:e7:
         2f:f4:0c:ad:88:0e:46:60:f7:f8:38:5d:62:93:ae:e4:db:31:
         6d:5f:3d:23:04:5b:9a:df:19:e1:60:b3:a0:e8:1b:c1:57:06:
         63:2f:13:0d:e6:b9:c7:16:ac:c1:5b:be:a7:9f:9f:19:bb:5d:
         df:02:15:7c:87:7f:f0:cc:46:4d:92:41:a6:a2:ac:60:e2:16:
         53:1a:d8:45:45:e5:af:6c:95:af:c6:02:19:14:85:d9:ed:0c:
         7d:d2:e6:03:2c:64:53:76:4f:05:a3:ba:f8:7e:46:4c:9a:79:
         f0:eb:d0:39:fa:97:b5:15:d0:84:13:5f:07:80:17:00:29:fe:
         0c:5f:1c:8a:a2:e1:de:60:ca:76:bc:36:05:10:08:65:be:81:
         a9:a2:2a:1c:39:28:58:65:db:43:80:64:d0:02:85:48:ae:77:
         21:d2:07:70:f6:e0:44:f9:9b:ec:36:e5:5b:cf:b0:f6:43:47:
         06:87:60:6b:5f:a8:2a:38:23:06:ff:c6:14:0a:7d:7a:4b:55:
         ab:23:39:96:e3:8d:0c:60:b6:3e:56:2b:13:ed:36:90:bd:da:
         0a:59:4e:a4:c7:17:16:0f:e8:fc:15:81:29:8c:57:58:38:17:
         09:7c:0f:93
-----BEGIN CERTIFICATE-----
MIIFMDCCBBigAwIBAgIRAKN7qt+8KDXkGQKLjp6qhpEwDQYJKoZIhvcNAQELBQAw
ga8xCzAJBgNVBAYTAlVTMRMwEQYDVQQIDApDYWxpZm9ybmlhMRYwFAYDVQQHDA1T
YW4gRnJhbmNpc2NvMSAwHgYDVQQKDBdDb3B5bGVmdCBDZXJ0aWZpY2F0ZSBDbzEf
MB0GA1UECwwWTXkgT3JnYW5pemF0aW9uYWwgVW5pdDERMA8GA1UEAwwIQ2hhbmdl
TWUxHTAbBgkqhkiG9w0BCQEWDm1lQGV4YW1wbGUubmV0MB4XDTIzMTExMjExNDg1
MVoXDTI0MTExMTExNDg1MVowgbsxCzAJBgNVBAYTAlVTMQswCQYDVQQIDAJPSDET
MBEGA1UEBwwKQ2luY2lubmF0aTEhMB8GA1UECgwYVW5pdmVyc2l0eSBvZiBDaW5j
aW5uYXRpMSowKAYDVQQLDCFEZXB0LiBFbGVjLiBDb21wLiBFbmcuIENvbXAuIFNj
aS4xETAPBgNVBAMMCGNsaWVudDM5MSgwJgYJKoZIhvcNAQkBFhlmcmFuY29AZ2F1
c3MuZWNlY3MudWMuZWR1MIIBIjANBgkqhkiG9w0BAQEFAAOCAQ8AMIIBCgKCAQEA
1fvxn/fwU4EtOT0+NHC9JVKDR67xhDtxdkkGGjo+mm9Qk8MPlRvc5dwHmcahuBvF
VtT7gkcco1c7M46xM8akon56zQcgu/x+5Kvg5puscZ0on0UnwePmhCaI6LXNQt+H
I9/MjMFgxlqfbtqlq2Wnvm4GxuWudL2j7DpMzZPBNuzGZ+6/efF8aggiIDOEyYpn
Zf2JoA2X/salj5PtqjjHr1+8S/ec9we95nLnDquEMnKENBwHtlBJRBrrZ/0ZiHwv
NR0MONGdZh3MPUPxUNHa87HKudVJEJsiEWKW/VDonpWNpBjOGY8ZI/3fXrHOBDkg
frrMHtaf0WELqg1gcvQi9wIDAQABo4IBNzCCATMwCQYDVR0TBAIwADAdBgNVHQ4E
FgQULNrQAjDgEQkIyAuEIRfokVoUsNcwgeQGA1UdIwSB3DCB2YAUxEbyljhWArid
CQRSJZE1l2rXsfChgbWkgbIwga8xCzAJBgNVBAYTAlVTMRMwEQYDVQQIDApDYWxp
Zm9ybmlhMRYwFAYDVQQHDA1TYW4gRnJhbmNpc2NvMSAwHgYDVQQKDBdDb3B5bGVm
dCBDZXJ0aWZpY2F0ZSBDbzEfMB0GA1UECwwWTXkgT3JnYW5pemF0aW9uYWwgVW5p
dDERMA8GA1UEAwwIQ2hhbmdlTWUxHTAbBgkqhkiG9w0BCQEWDm1lQGV4YW1wbGUu
bmV0ggkA0VoVHPAglWIwEwYDVR0lBAwwCgYIKwYBBQUHAwIwCwYDVR0PBAQDAgeA
MA0GCSqGSIb3DQEBCwUAA4IBAQB/BE88d1KG0Xl5UoYUwZ7nCOcv9AytiA5GYPf4
OF1ik67k2zFtXz0jBFua3xnhYLOg6BvBVwZjLxMN5rnHFqzBW76nn58Zu13fAhV8
h3/wzEZNkkGmoqxg4hZTGthFReWvbJWvxgIZFIXZ7Qx90uYDLGRTdk8Fo7r4fkZM
mnnw69A5+pe1FdCEE18HgBcAKf4MXxyKouHeYMp2vDYFEAhlvoGpoiocOShYZdtD
gGTQAoVIrnch0gdw9uBE+ZvsNuVbz7D2Q0cGh2BrX6gqOCMG/8YUCn16S1WrIzmW
440MYLY+VisT7TaQvdoKWU6kxxcWD+j8FYEpjFdYOBcJfA+T
-----END CERTIFICATE-----
