Certificate:
    Data:
        Version: 3 (0x2)
        Serial Number:
            a3:f0:8b:ab:f5:ab:d1:97:42:3b:d3:44:35:76:ff:3b
    Signature Algorithm: sha256WithRSAEncryption
        Issuer: C=US, ST=California, L=San Francisco, O=Copyleft Certificate Co, OU=My Organizational Unit, CN=ChangeMe/emailAddress=me@example.net
        Validity
            Not Before: Nov 11 01:58:07 2023 GMT
            Not After : Nov 10 01:58:07 2024 GMT
        Subject: C=US, ST=OH, L=Cincinnati, O=University of Cincinnati, OU=Dept. Elec. Comp. Eng. Comp. Sci., CN=client1/emailAddress=franco@gauss.ececs.uc.edu
        Subject Public Key Info:
            Public Key Algorithm: rsaEncryption
                Public-Key: (2048 bit)
                Modulus:
                    00:b8:19:96:65:77:69:32:f7:2b:4c:c7:24:bd:43:
                    2a:50:41:0a:fb:a5:cd:19:b8:ff:ff:5c:85:6b:8e:
                    f3:53:41:f3:71:56:f1:d8:65:e3:b2:3e:5c:2f:88:
                    e8:e8:95:ec:8e:04:81:68:eb:3c:fc:61:16:ae:70:
                    a2:96:eb:9c:56:5c:3c:af:91:ec:29:ca:5d:ba:8d:
                    30:41:f9:30:bc:ca:17:c6:e9:0d:d5:9a:c5:fa:23:
                    23:92:ae:ba:47:e2:9c:9e:63:d7:b9:be:6a:0b:86:
                    2e:ac:0d:39:f1:3f:8f:97:2c:b3:8e:f0:d7:d7:fe:
                    92:62:92:62:5b:d7:0e:10:ed:5d:12:2a:75:78:c6:
                    ff:d1:85:92:a0:0e:b1:3d:34:88:d0:56:c2:c1:02:
                    09:7b:b4:58:27:26:6a:20:8d:8a:df:13:6e:e0:20:
                    b8:83:40:7d:c3:93:25:db:b9:44:20:2e:f7:28:b4:
                    35:57:52:30:1c:de:5a:15:96:3f:22:be:8e:c2:54:
                    e2:a8:b4:43:94:9a:06:7f:0f:bc:a4:b0:85:a3:8b:
                    9a:22:d5:34:dd:dc:f6:d0:5c:64:bb:b3:50:1a:41:
                    f4:5c:4e:a8:bc:f0:66:49:d1:f0:28:d2:76:0b:8a:
                    44:5d:3a:d2:62:36:57:4c:76:c3:e3:c7:58:1c:cd:
                    53:73
                Exponent: 65537 (0x10001)
        X509v3 extensions:
            X509v3 Basic Constraints: 
                CA:FALSE
            X509v3 Subject Key Identifier: 
                3D:08:70:62:15:AB:9F:03:D9:3F:79:9C:A1:AD:8F:A6:65:C2:EA:67
            X509v3 Authority Key Identifier: 
                keyid:7B:0F:93:16:64:9F:71:41:D3:1B:FB:ED:6A:70:9B:CA:2E:70:F0:4B
                DirName:/C=US/ST=California/L=San Francisco/O=Copyleft Certificate Co/OU=My Organizational Unit/CN=ChangeMe/emailAddress=me@example.net
                serial:B9:F2:4E:2C:79:B3:D4:6C

            X509v3 Extended Key Usage: 
                TLS Web Client Authentication
            X509v3 Key Usage: 
                Digital Signature
    Signature Algorithm: sha256WithRSAEncryption
         a1:4e:55:db:77:29:26:dc:1c:02:c0:aa:4a:b9:74:68:f9:ee:
         a0:50:e9:ce:a7:c5:69:6a:38:b4:1e:ea:5d:7b:53:68:c0:90:
         d8:65:6c:e6:22:bb:94:e3:1e:63:76:73:0b:f9:53:df:8e:59:
         a0:71:8b:ca:5a:d5:03:af:a7:55:5e:2e:15:00:bf:73:15:05:
         5b:cb:8a:db:eb:41:be:5f:da:9d:a3:56:b3:f2:3b:0f:2c:de:
         cf:ad:47:c1:40:77:d2:5d:77:95:13:23:8d:c6:6f:fb:a6:22:
         2b:f9:58:aa:4f:a9:f5:a9:04:d2:ce:7c:4f:a1:cc:80:0b:83:
         9f:5c:7e:d5:a3:a7:33:1d:72:f6:b0:ea:4f:96:b7:91:38:9f:
         2e:8c:c3:83:0c:4e:ac:84:b0:b7:5e:c2:82:35:3f:26:92:af:
         10:17:5f:e2:3e:e6:ba:30:43:a4:05:a5:12:f5:ea:64:ac:35:
         e2:c0:0b:e3:4f:06:e5:04:7d:98:08:f4:70:61:5d:b9:ad:7f:
         6f:c1:af:20:17:74:4c:8f:83:26:d5:b7:7b:eb:dc:0f:b3:ac:
         4b:b6:ed:8a:0e:b1:c2:3f:28:29:9b:3c:a9:3d:4d:5c:49:5f:
         62:2f:6f:d8:9f:e9:f7:2f:1a:c9:1c:58:79:ae:72:9c:d9:85:
         14:c8:ae:31
-----BEGIN CERTIFICATE-----
MIIFLzCCBBegAwIBAgIRAKPwi6v1q9GXQjvTRDV2/zswDQYJKoZIhvcNAQELBQAw
ga8xCzAJBgNVBAYTAlVTMRMwEQYDVQQIDApDYWxpZm9ybmlhMRYwFAYDVQQHDA1T
YW4gRnJhbmNpc2NvMSAwHgYDVQQKDBdDb3B5bGVmdCBDZXJ0aWZpY2F0ZSBDbzEf
MB0GA1UECwwWTXkgT3JnYW5pemF0aW9uYWwgVW5pdDERMA8GA1UEAwwIQ2hhbmdl
TWUxHTAbBgkqhkiG9w0BCQEWDm1lQGV4YW1wbGUubmV0MB4XDTIzMTExMTAxNTgw
N1oXDTI0MTExMDAxNTgwN1owgboxCzAJBgNVBAYTAlVTMQswCQYDVQQIDAJPSDET
MBEGA1UEBwwKQ2luY2lubmF0aTEhMB8GA1UECgwYVW5pdmVyc2l0eSBvZiBDaW5j
aW5uYXRpMSowKAYDVQQLDCFEZXB0LiBFbGVjLiBDb21wLiBFbmcuIENvbXAuIFNj
aS4xEDAOBgNVBAMMB2NsaWVudDExKDAmBgkqhkiG9w0BCQEWGWZyYW5jb0BnYXVz
cy5lY2Vjcy51Yy5lZHUwggEiMA0GCSqGSIb3DQEBAQUAA4IBDwAwggEKAoIBAQC4
GZZld2ky9ytMxyS9QypQQQr7pc0ZuP//XIVrjvNTQfNxVvHYZeOyPlwviOjoleyO
BIFo6zz8YRaucKKW65xWXDyvkewpyl26jTBB+TC8yhfG6Q3VmsX6IyOSrrpH4pye
Y9e5vmoLhi6sDTnxP4+XLLOO8NfX/pJikmJb1w4Q7V0SKnV4xv/RhZKgDrE9NIjQ
VsLBAgl7tFgnJmogjYrfE27gILiDQH3DkyXbuUQgLvcotDVXUjAc3loVlj8ivo7C
VOKotEOUmgZ/D7yksIWji5oi1TTd3PbQXGS7s1AaQfRcTqi88GZJ0fAo0nYLikRd
OtJiNldMdsPjx1gczVNzAgMBAAGjggE3MIIBMzAJBgNVHRMEAjAAMB0GA1UdDgQW
BBQ9CHBiFaufA9k/eZyhrY+mZcLqZzCB5AYDVR0jBIHcMIHZgBR7D5MWZJ9xQdMb
++1qcJvKLnDwS6GBtaSBsjCBrzELMAkGA1UEBhMCVVMxEzARBgNVBAgMCkNhbGlm
b3JuaWExFjAUBgNVBAcMDVNhbiBGcmFuY2lzY28xIDAeBgNVBAoMF0NvcHlsZWZ0
IENlcnRpZmljYXRlIENvMR8wHQYDVQQLDBZNeSBPcmdhbml6YXRpb25hbCBVbml0
MREwDwYDVQQDDAhDaGFuZ2VNZTEdMBsGCSqGSIb3DQEJARYObWVAZXhhbXBsZS5u
ZXSCCQC58k4sebPUbDATBgNVHSUEDDAKBggrBgEFBQcDAjALBgNVHQ8EBAMCB4Aw
DQYJKoZIhvcNAQELBQADggEBAKFOVdt3KSbcHALAqkq5dGj57qBQ6c6nxWlqOLQe
6l17U2jAkNhlbOYiu5TjHmN2cwv5U9+OWaBxi8pa1QOvp1VeLhUAv3MVBVvLitvr
Qb5f2p2jVrPyOw8s3s+tR8FAd9Jdd5UTI43Gb/umIiv5WKpPqfWpBNLOfE+hzIAL
g59cftWjpzMdcvaw6k+Wt5E4ny6Mw4MMTqyEsLdewoI1PyaSrxAXX+I+5rowQ6QF
pRL16mSsNeLAC+NPBuUEfZgI9HBhXbmtf2/BryAXdEyPgybVt3vr3A+zrEu27YoO
scI/KCmbPKk9TVxJX2Ivb9if6fcvGskcWHmucpzZhRTIrjE=
-----END CERTIFICATE-----
