Certificate:
    Data:
        Version: 3 (0x2)
        Serial Number:
            a7:35:97:d2:6f:9d:ca:73:56:39:d9:05:51:fe:c4:97
    Signature Algorithm: sha256WithRSAEncryption
        Issuer: C=US, ST=California, L=San Francisco, O=Copyleft Certificate Co, OU=My Organizational Unit, CN=ChangeMe/emailAddress=me@example.net
        Validity
            Not Before: Nov 13 11:47:18 2023 GMT
            Not After : Nov 12 11:47:18 2024 GMT
        Subject: C=US, ST=OH, L=Cincinnati, O=University of Cincinnati, OU=Dept. Elec. Comp. Eng. Comp. Sci., CN=client13/emailAddress=franco@gauss.ececs.uc.edu
        Subject Public Key Info:
            Public Key Algorithm: rsaEncryption
                Public-Key: (2048 bit)
                Modulus:
                    00:c5:ba:cb:ed:37:1f:06:7f:97:f0:ca:db:7b:9f:
                    8a:de:20:9b:b9:a7:da:85:bf:e0:7f:ea:86:5a:35:
                    3c:2a:7f:27:03:01:e4:00:4e:0a:46:b9:c5:27:17:
                    ca:09:70:0d:e1:43:aa:1c:18:97:1b:77:60:d2:a5:
                    c1:c5:4a:e8:3b:32:8c:58:49:66:05:22:af:0e:4d:
                    ae:48:7e:ce:61:c8:32:19:3e:ba:46:52:f6:bb:2a:
                    0d:9b:81:06:4c:e7:d2:4d:ed:87:58:48:89:2b:d1:
                    90:ec:40:4d:3f:34:3c:59:66:da:c8:7d:ea:96:e4:
                    49:71:92:18:bc:55:fa:30:bc:61:51:7a:ae:37:6f:
                    1a:c7:23:79:fb:97:1f:8c:7e:0c:e8:61:d9:59:f5:
                    92:02:13:8f:72:34:6f:ce:bd:18:7d:17:e5:99:b6:
                    50:47:ae:f5:a9:fb:9e:b9:26:d1:42:27:56:68:8e:
                    88:c2:c4:e9:5b:dc:27:07:7b:5a:2a:f8:69:ae:51:
                    e2:44:10:c4:fc:c5:e2:81:d3:94:b0:53:39:15:8c:
                    40:ba:05:d4:34:3a:7c:4f:f2:5a:32:96:17:b5:29:
                    d8:e5:ba:86:04:5e:34:f5:fe:1f:cf:cf:b9:59:c0:
                    c9:5b:ee:ae:f4:8e:a4:db:4f:be:fb:bf:4f:54:fe:
                    cc:af
                Exponent: 65537 (0x10001)
        X509v3 extensions:
            X509v3 Basic Constraints: 
                CA:FALSE
            X509v3 Subject Key Identifier: 
                C3:EC:81:B8:E5:9C:91:73:4A:08:8E:C2:77:9C:A6:7F:3A:15:FB:DC
            X509v3 Authority Key Identifier: 
                keyid:B4:AE:AB:ED:FC:ED:84:AA:AD:77:5D:7C:84:28:1C:CA:CE:AE:2A:44
                DirName:/C=US/ST=California/L=San Francisco/O=Copyleft Certificate Co/OU=My Organizational Unit/CN=ChangeMe/emailAddress=me@example.net
                serial:BD:6C:3B:F4:D3:07:C9:D1

            X509v3 Extended Key Usage: 
                TLS Web Client Authentication
            X509v3 Key Usage: 
                Digital Signature
    Signature Algorithm: sha256WithRSAEncryption
         5a:79:e4:22:1c:d3:57:b6:51:d1:25:f2:eb:4f:59:05:24:33:
         90:31:53:4e:2a:69:90:e5:92:17:f2:18:39:53:b6:54:86:ca:
         42:ff:95:f4:0c:39:1f:cd:d5:59:32:3b:b3:8c:63:f3:b3:27:
         59:6e:00:03:2c:1f:6b:9b:38:66:c2:f1:f0:e5:a2:9e:8f:a3:
         14:46:83:09:6f:92:cd:94:a4:c9:f3:9f:4b:09:c2:5b:f1:15:
         ef:f9:18:b0:21:f4:64:a4:69:16:ba:21:73:85:4f:b6:81:2b:
         a8:58:12:90:6f:78:8a:29:db:a6:fa:2d:a3:70:e3:24:22:03:
         b6:2c:92:d2:2c:58:5b:75:19:19:e0:d6:51:80:5a:63:37:ea:
         de:84:11:e2:10:f0:bc:a2:8c:b8:6d:80:83:6c:cd:a6:79:af:
         17:3a:d3:53:61:3e:f0:8a:30:fe:bf:ff:54:af:33:f6:a8:a2:
         87:1d:39:e6:31:53:b1:5c:dc:8e:28:4e:87:8a:01:86:ed:79:
         28:a8:57:9f:a0:56:4a:98:06:ba:98:df:15:2d:10:f8:7c:7f:
         0b:64:ff:c5:1c:3c:3f:79:9a:e7:30:e2:cf:5c:e8:05:ea:6a:
         ad:94:00:54:0d:fc:12:23:3a:b4:40:2b:d5:d5:61:93:21:69:
         a9:80:ed:82
-----BEGIN CERTIFICATE-----
MIIFMDCCBBigAwIBAgIRAKc1l9JvncpzVjnZBVH+xJcwDQYJKoZIhvcNAQELBQAw
ga8xCzAJBgNVBAYTAlVTMRMwEQYDVQQIDApDYWxpZm9ybmlhMRYwFAYDVQQHDA1T
YW4gRnJhbmNpc2NvMSAwHgYDVQQKDBdDb3B5bGVmdCBDZXJ0aWZpY2F0ZSBDbzEf
MB0GA1UECwwWTXkgT3JnYW5pemF0aW9uYWwgVW5pdDERMA8GA1UEAwwIQ2hhbmdl
TWUxHTAbBgkqhkiG9w0BCQEWDm1lQGV4YW1wbGUubmV0MB4XDTIzMTExMzExNDcx
OFoXDTI0MTExMjExNDcxOFowgbsxCzAJBgNVBAYTAlVTMQswCQYDVQQIDAJPSDET
MBEGA1UEBwwKQ2luY2lubmF0aTEhMB8GA1UECgwYVW5pdmVyc2l0eSBvZiBDaW5j
aW5uYXRpMSowKAYDVQQLDCFEZXB0LiBFbGVjLiBDb21wLiBFbmcuIENvbXAuIFNj
aS4xETAPBgNVBAMMCGNsaWVudDEzMSgwJgYJKoZIhvcNAQkBFhlmcmFuY29AZ2F1
c3MuZWNlY3MudWMuZWR1MIIBIjANBgkqhkiG9w0BAQEFAAOCAQ8AMIIBCgKCAQEA
xbrL7TcfBn+X8Mrbe5+K3iCbuafahb/gf+qGWjU8Kn8nAwHkAE4KRrnFJxfKCXAN
4UOqHBiXG3dg0qXBxUroOzKMWElmBSKvDk2uSH7OYcgyGT66RlL2uyoNm4EGTOfS
Te2HWEiJK9GQ7EBNPzQ8WWbayH3qluRJcZIYvFX6MLxhUXquN28axyN5+5cfjH4M
6GHZWfWSAhOPcjRvzr0YfRflmbZQR671qfueuSbRQidWaI6IwsTpW9wnB3taKvhp
rlHiRBDE/MXigdOUsFM5FYxAugXUNDp8T/JaMpYXtSnY5bqGBF409f4fz8+5WcDJ
W+6u9I6k20+++79PVP7MrwIDAQABo4IBNzCCATMwCQYDVR0TBAIwADAdBgNVHQ4E
FgQUw+yBuOWckXNKCI7Cd5ymfzoV+9wwgeQGA1UdIwSB3DCB2YAUtK6r7fzthKqt
d118hCgcys6uKkShgbWkgbIwga8xCzAJBgNVBAYTAlVTMRMwEQYDVQQIDApDYWxp
Zm9ybmlhMRYwFAYDVQQHDA1TYW4gRnJhbmNpc2NvMSAwHgYDVQQKDBdDb3B5bGVm
dCBDZXJ0aWZpY2F0ZSBDbzEfMB0GA1UECwwWTXkgT3JnYW5pemF0aW9uYWwgVW5p
dDERMA8GA1UEAwwIQ2hhbmdlTWUxHTAbBgkqhkiG9w0BCQEWDm1lQGV4YW1wbGUu
bmV0ggkAvWw79NMHydEwEwYDVR0lBAwwCgYIKwYBBQUHAwIwCwYDVR0PBAQDAgeA
MA0GCSqGSIb3DQEBCwUAA4IBAQBaeeQiHNNXtlHRJfLrT1kFJDOQMVNOKmmQ5ZIX
8hg5U7ZUhspC/5X0DDkfzdVZMjuzjGPzsydZbgADLB9rmzhmwvHw5aKej6MURoMJ
b5LNlKTJ859LCcJb8RXv+RiwIfRkpGkWuiFzhU+2gSuoWBKQb3iKKdum+i2jcOMk
IgO2LJLSLFhbdRkZ4NZRgFpjN+rehBHiEPC8ooy4bYCDbM2mea8XOtNTYT7wijD+
v/9UrzP2qKKHHTnmMVOxXNyOKE6HigGG7XkoqFefoFZKmAa6mN8VLRD4fH8LZP/F
HDw/eZrnMOLPXOgF6mqtlABUDfwSIzq0QCvV1WGTIWmpgO2C
-----END CERTIFICATE-----
