Certificate:
    Data:
        Version: 3 (0x2)
        Serial Number:
            a7:fb:f3:35:5e:a6:50:b8:55:ea:26:d6:7a:31:b1:a3
    Signature Algorithm: sha256WithRSAEncryption
        Issuer: C=US, ST=California, L=San Francisco, O=Copyleft Certificate Co, OU=My Organizational Unit, CN=ChangeMe/emailAddress=me@example.net
        Validity
            Not Before: Nov 11 18:52:44 2023 GMT
            Not After : Nov 10 18:52:44 2024 GMT
        Subject: C=US, ST=OH, L=Cincinnati, O=University of Cincinnati ., OU=Dept. Elec. Comp. . Eng. Comp. Sci., CN=client42/emailAddress=franco@gauss.ececs.uc.edu
        Subject Public Key Info:
            Public Key Algorithm: rsaEncryption
                Public-Key: (2048 bit)
                Modulus:
                    00:e3:ea:bd:08:79:aa:20:8f:5e:99:9f:ed:f5:3e:
                    56:42:3a:96:e0:4c:8c:e9:e8:a9:1d:e9:49:3e:3d:
                    e2:9c:e2:ca:5d:1f:a6:74:f1:b5:64:a6:6e:ec:3e:
                    34:28:1e:e9:a3:77:d4:af:96:81:db:b5:29:0d:21:
                    2d:c9:d0:8f:b1:e8:cd:aa:f1:a1:ab:ac:8d:67:0e:
                    93:47:90:bc:be:d9:66:98:d4:01:da:06:c3:1c:17:
                    4c:45:6d:cb:42:72:ee:1b:2d:31:b0:fd:2b:a3:a6:
                    ff:fb:17:ea:29:07:2c:69:75:e9:28:b1:e3:f2:b4:
                    4f:79:3b:73:77:cd:3d:c6:4c:4e:b9:95:a3:f6:cc:
                    f5:59:bb:05:42:39:b3:4d:f6:ff:3d:71:1c:5e:93:
                    fa:31:41:c5:25:de:d2:69:1b:bc:f3:7d:3f:3b:ce:
                    88:c0:77:4b:1e:a7:59:c9:e5:15:62:f9:6d:e5:3f:
                    49:f9:18:89:ea:8b:f5:ad:41:6a:df:e0:a9:28:2e:
                    a7:8f:98:9c:36:e8:81:eb:6f:72:90:de:12:74:7b:
                    4e:71:39:f7:56:37:b4:4a:a1:5b:d6:0a:70:70:3d:
                    a1:a4:bc:e1:7d:40:89:a0:01:a7:4f:18:b3:5f:4a:
                    80:ca:f6:a6:78:77:af:ed:eb:3d:18:27:2d:a0:a6:
                    07:7d
                Exponent: 65537 (0x10001)
        X509v3 extensions:
            X509v3 Basic Constraints: 
                CA:FALSE
            X509v3 Subject Key Identifier: 
                68:51:BF:2D:7F:55:AB:F3:1E:80:39:B2:31:95:10:92:2A:E8:64:CF
            X509v3 Authority Key Identifier: 
                keyid:9C:0E:D5:A3:16:6F:C8:23:88:D1:12:C9:63:5D:18:D9:C9:FC:5B:E9
                DirName:/C=US/ST=California/L=San Francisco/O=Copyleft Certificate Co/OU=My Organizational Unit/CN=ChangeMe/emailAddress=me@example.net
                serial:A3:08:26:80:D2:47:98:75

            X509v3 Extended Key Usage: 
                TLS Web Client Authentication
            X509v3 Key Usage: 
                Digital Signature
    Signature Algorithm: sha256WithRSAEncryption
         87:e4:16:d4:7e:4f:4a:47:a0:04:f6:31:b6:5f:46:99:36:73:
         fc:23:b0:8c:96:90:4c:35:a8:9d:c2:f5:5d:aa:bf:60:9b:96:
         b1:e7:21:4e:8f:f2:32:d0:e0:39:e1:e1:f5:e7:a9:14:52:b4:
         ae:2a:15:31:63:4e:96:3d:77:9a:43:0c:35:ed:cd:45:41:6a:
         19:1b:ce:d0:f8:f1:27:9d:8c:05:46:d4:9d:e0:c0:84:de:62:
         54:6e:f1:99:02:6f:ae:85:8b:78:ec:01:58:91:bd:cb:74:bc:
         96:2e:54:0a:e7:04:f4:f0:3d:d4:ea:1a:14:82:26:ef:0a:4c:
         da:16:17:19:82:72:a0:9c:74:69:c6:77:d0:c4:fb:db:cd:be:
         2a:92:9b:20:e7:de:43:c8:69:72:98:8e:dc:0b:0a:29:c3:36:
         50:2d:9c:0e:15:4f:5a:74:c2:c5:a3:22:05:5e:f4:32:65:3a:
         94:03:f0:ba:c6:e8:a8:b5:97:48:de:e6:b8:ba:cd:7b:6a:93:
         d4:e0:9e:53:6c:80:74:bf:77:4a:02:ab:7a:86:72:1a:9e:4f:
         59:5b:d7:a1:7e:e7:aa:4e:a7:ed:8d:50:c3:fe:6b:77:88:55:
         b8:82:5c:fa:a4:0b:0f:37:bf:fb:c5:fa:58:5b:02:a3:0f:af:
         8e:7d:6d:70
-----BEGIN CERTIFICATE-----
MIIFNDCCBBygAwIBAgIRAKf78zVeplC4Veom1noxsaMwDQYJKoZIhvcNAQELBQAw
ga8xCzAJBgNVBAYTAlVTMRMwEQYDVQQIDApDYWxpZm9ybmlhMRYwFAYDVQQHDA1T
YW4gRnJhbmNpc2NvMSAwHgYDVQQKDBdDb3B5bGVmdCBDZXJ0aWZpY2F0ZSBDbzEf
MB0GA1UECwwWTXkgT3JnYW5pemF0aW9uYWwgVW5pdDERMA8GA1UEAwwIQ2hhbmdl
TWUxHTAbBgkqhkiG9w0BCQEWDm1lQGV4YW1wbGUubmV0MB4XDTIzMTExMTE4NTI0
NFoXDTI0MTExMDE4NTI0NFowgb8xCzAJBgNVBAYTAlVTMQswCQYDVQQIDAJPSDET
MBEGA1UEBwwKQ2luY2lubmF0aTEjMCEGA1UECgwaVW5pdmVyc2l0eSBvZiBDaW5j
aW5uYXRpIC4xLDAqBgNVBAsMI0RlcHQuIEVsZWMuIENvbXAuIC4gRW5nLiBDb21w
LiBTY2kuMREwDwYDVQQDDAhjbGllbnQ0MjEoMCYGCSqGSIb3DQEJARYZZnJhbmNv
QGdhdXNzLmVjZWNzLnVjLmVkdTCCASIwDQYJKoZIhvcNAQEBBQADggEPADCCAQoC
ggEBAOPqvQh5qiCPXpmf7fU+VkI6luBMjOnoqR3pST494pziyl0fpnTxtWSmbuw+
NCge6aN31K+Wgdu1KQ0hLcnQj7HozarxoausjWcOk0eQvL7ZZpjUAdoGwxwXTEVt
y0Jy7hstMbD9K6Om//sX6ikHLGl16Six4/K0T3k7c3fNPcZMTrmVo/bM9Vm7BUI5
s032/z1xHF6T+jFBxSXe0mkbvPN9PzvOiMB3Sx6nWcnlFWL5beU/SfkYieqL9a1B
at/gqSgup4+YnDbogetvcpDeEnR7TnE591Y3tEqhW9YKcHA9oaS84X1AiaABp08Y
s19KgMr2pnh3r+3rPRgnLaCmB30CAwEAAaOCATcwggEzMAkGA1UdEwQCMAAwHQYD
VR0OBBYEFGhRvy1/VavzHoA5sjGVEJIq6GTPMIHkBgNVHSMEgdwwgdmAFJwO1aMW
b8gjiNESyWNdGNnJ/FvpoYG1pIGyMIGvMQswCQYDVQQGEwJVUzETMBEGA1UECAwK
Q2FsaWZvcm5pYTEWMBQGA1UEBwwNU2FuIEZyYW5jaXNjbzEgMB4GA1UECgwXQ29w
eWxlZnQgQ2VydGlmaWNhdGUgQ28xHzAdBgNVBAsMFk15IE9yZ2FuaXphdGlvbmFs
IFVuaXQxETAPBgNVBAMMCENoYW5nZU1lMR0wGwYJKoZIhvcNAQkBFg5tZUBleGFt
cGxlLm5ldIIJAKMIJoDSR5h1MBMGA1UdJQQMMAoGCCsGAQUFBwMCMAsGA1UdDwQE
AwIHgDANBgkqhkiG9w0BAQsFAAOCAQEAh+QW1H5PSkegBPYxtl9GmTZz/COwjJaQ
TDWoncL1Xaq/YJuWsechTo/yMtDgOeHh9eepFFK0rioVMWNOlj13mkMMNe3NRUFq
GRvO0PjxJ52MBUbUneDAhN5iVG7xmQJvroWLeOwBWJG9y3S8li5UCucE9PA91Ooa
FIIm7wpM2hYXGYJyoJx0acZ30MT7282+KpKbIOfeQ8hpcpiO3AsKKcM2UC2cDhVP
WnTCxaMiBV70MmU6lAPwusboqLWXSN7muLrNe2qT1OCeU2yAdL93SgKreoZyGp5P
WVvXoX7nqk6n7Y1Qw/5rd4hVuIJc+qQLDze/+8X6WFsCow+vjn1tcA==
-----END CERTIFICATE-----
