Certificate:
    Data:
        Version: 3 (0x2)
        Serial Number:
            a9:5b:57:29:8e:b6:aa:0a:ca:49:d6:bf:a4:48:67:c8
    Signature Algorithm: sha256WithRSAEncryption
        Issuer: C=US, ST=California, L=San Francisco, O=Copyleft Certificate Co, OU=My Organizational Unit, CN=ChangeMe/emailAddress=me@example.net
        Validity
            Not Before: Nov 11 18:49:55 2023 GMT
            Not After : Nov 10 18:49:55 2024 GMT
        Subject: C=US, ST=OH, L=Cincinnati, O=University of Cincinnati ., OU=Dept. Elec. Comp. . Eng. Comp. Sci., CN=client0/emailAddress=franco@gauss.ececs.uc.edu
        Subject Public Key Info:
            Public Key Algorithm: rsaEncryption
                Public-Key: (2048 bit)
                Modulus:
                    00:f5:a6:be:47:27:9c:64:f3:fb:8d:f5:f1:e7:d9:
                    9d:f6:45:27:e8:f1:08:23:8c:cd:00:a6:c0:1b:31:
                    36:f4:cd:5b:2d:56:57:73:36:78:c8:9f:61:fc:ba:
                    b7:14:51:f6:a0:d1:69:e5:7c:7c:28:ba:52:03:22:
                    15:4f:18:cc:08:e1:a0:e1:a8:68:40:75:45:3d:e1:
                    13:d0:52:8b:28:c4:40:7d:06:fb:90:e3:b4:7f:0f:
                    b1:92:16:cc:f9:e1:67:5a:44:3e:a5:7b:2d:92:54:
                    79:13:07:4f:d1:18:4b:d2:a0:35:d3:d3:4e:2c:e7:
                    0d:1e:88:65:ee:c3:c5:52:1e:2e:b7:ef:4e:b4:80:
                    33:5b:f4:53:70:6d:09:9d:66:1a:d7:ca:c1:2f:71:
                    ec:70:21:a6:32:8a:1d:67:e7:86:fc:93:77:72:a0:
                    c0:08:5b:cf:9a:5a:69:32:99:0e:d5:75:24:f9:bd:
                    1f:72:b7:28:9c:7e:14:99:cc:a2:71:6b:13:af:38:
                    33:62:07:dd:cb:2d:a0:ab:82:fc:90:31:36:e8:23:
                    8a:c6:0f:7f:21:83:18:26:98:6f:12:c1:0b:22:5c:
                    e4:e4:af:fc:72:b8:6b:37:85:fe:7d:9b:09:3b:5d:
                    44:b1:47:7c:06:af:c6:eb:cb:89:6f:e6:5d:30:c9:
                    41:05
                Exponent: 65537 (0x10001)
        X509v3 extensions:
            X509v3 Basic Constraints: 
                CA:FALSE
            X509v3 Subject Key Identifier: 
                AC:15:99:6D:DB:88:0F:60:9F:00:43:D6:F2:65:20:53:46:7C:3B:EA
            X509v3 Authority Key Identifier: 
                keyid:9C:0E:D5:A3:16:6F:C8:23:88:D1:12:C9:63:5D:18:D9:C9:FC:5B:E9
                DirName:/C=US/ST=California/L=San Francisco/O=Copyleft Certificate Co/OU=My Organizational Unit/CN=ChangeMe/emailAddress=me@example.net
                serial:A3:08:26:80:D2:47:98:75

            X509v3 Extended Key Usage: 
                TLS Web Client Authentication
            X509v3 Key Usage: 
                Digital Signature
    Signature Algorithm: sha256WithRSAEncryption
         bd:e4:55:f7:5e:90:68:fe:e5:18:67:ff:a0:dc:2b:29:c4:24:
         d6:19:15:2b:cd:f3:47:89:bd:69:08:56:5c:5a:db:5f:61:e2:
         82:60:b8:b6:c0:9c:ed:55:74:a3:93:1c:2e:66:6e:0a:9a:89:
         39:21:c6:da:4d:dd:16:f2:f4:79:b9:8b:25:a7:52:40:5a:dd:
         c7:96:90:38:c7:a2:63:29:2e:ec:0d:cd:8a:89:de:33:d9:0a:
         c6:73:cb:d3:2b:8e:6a:9e:58:20:c0:5c:61:28:93:ea:8f:4a:
         f5:1c:f5:bf:67:a1:24:2a:ba:00:d8:58:d0:90:0a:d8:96:e0:
         68:55:12:df:2f:2b:db:2b:6d:12:e4:43:0c:03:86:39:7e:83:
         3b:23:3b:f4:2e:7a:70:b3:2f:2f:5d:66:52:bc:69:28:5a:9b:
         5d:2a:5a:aa:39:ee:ea:b9:fe:40:fa:65:00:7f:d1:f7:dc:33:
         f4:34:b7:d7:20:a6:2f:0d:2f:26:92:56:26:19:4b:bf:45:47:
         2f:69:be:b0:9a:de:96:0b:20:3b:fd:dd:f7:2e:10:e5:62:70:
         aa:bd:47:b9:de:d6:d2:5a:96:c6:8b:9b:9e:8f:6b:26:87:f9:
         9a:17:ca:25:ff:74:b3:8a:26:25:86:03:b3:9e:1e:53:fc:79:
         2d:1f:3d:47
-----BEGIN CERTIFICATE-----
MIIFMzCCBBugAwIBAgIRAKlbVymOtqoKyknWv6RIZ8gwDQYJKoZIhvcNAQELBQAw
ga8xCzAJBgNVBAYTAlVTMRMwEQYDVQQIDApDYWxpZm9ybmlhMRYwFAYDVQQHDA1T
YW4gRnJhbmNpc2NvMSAwHgYDVQQKDBdDb3B5bGVmdCBDZXJ0aWZpY2F0ZSBDbzEf
MB0GA1UECwwWTXkgT3JnYW5pemF0aW9uYWwgVW5pdDERMA8GA1UEAwwIQ2hhbmdl
TWUxHTAbBgkqhkiG9w0BCQEWDm1lQGV4YW1wbGUubmV0MB4XDTIzMTExMTE4NDk1
NVoXDTI0MTExMDE4NDk1NVowgb4xCzAJBgNVBAYTAlVTMQswCQYDVQQIDAJPSDET
MBEGA1UEBwwKQ2luY2lubmF0aTEjMCEGA1UECgwaVW5pdmVyc2l0eSBvZiBDaW5j
aW5uYXRpIC4xLDAqBgNVBAsMI0RlcHQuIEVsZWMuIENvbXAuIC4gRW5nLiBDb21w
LiBTY2kuMRAwDgYDVQQDDAdjbGllbnQwMSgwJgYJKoZIhvcNAQkBFhlmcmFuY29A
Z2F1c3MuZWNlY3MudWMuZWR1MIIBIjANBgkqhkiG9w0BAQEFAAOCAQ8AMIIBCgKC
AQEA9aa+RyecZPP7jfXx59md9kUn6PEII4zNAKbAGzE29M1bLVZXczZ4yJ9h/Lq3
FFH2oNFp5Xx8KLpSAyIVTxjMCOGg4ahoQHVFPeET0FKLKMRAfQb7kOO0fw+xkhbM
+eFnWkQ+pXstklR5EwdP0RhL0qA109NOLOcNHohl7sPFUh4ut+9OtIAzW/RTcG0J
nWYa18rBL3HscCGmMoodZ+eG/JN3cqDACFvPmlppMpkO1XUk+b0fcrconH4Umcyi
cWsTrzgzYgfdyy2gq4L8kDE26COKxg9/IYMYJphvEsELIlzk5K/8crhrN4X+fZsJ
O11EsUd8Bq/G68uJb+ZdMMlBBQIDAQABo4IBNzCCATMwCQYDVR0TBAIwADAdBgNV
HQ4EFgQUrBWZbduID2CfAEPW8mUgU0Z8O+owgeQGA1UdIwSB3DCB2YAUnA7VoxZv
yCOI0RLJY10Y2cn8W+mhgbWkgbIwga8xCzAJBgNVBAYTAlVTMRMwEQYDVQQIDApD
YWxpZm9ybmlhMRYwFAYDVQQHDA1TYW4gRnJhbmNpc2NvMSAwHgYDVQQKDBdDb3B5
bGVmdCBDZXJ0aWZpY2F0ZSBDbzEfMB0GA1UECwwWTXkgT3JnYW5pemF0aW9uYWwg
VW5pdDERMA8GA1UEAwwIQ2hhbmdlTWUxHTAbBgkqhkiG9w0BCQEWDm1lQGV4YW1w
bGUubmV0ggkAowgmgNJHmHUwEwYDVR0lBAwwCgYIKwYBBQUHAwIwCwYDVR0PBAQD
AgeAMA0GCSqGSIb3DQEBCwUAA4IBAQC95FX3XpBo/uUYZ/+g3CspxCTWGRUrzfNH
ib1pCFZcWttfYeKCYLi2wJztVXSjkxwuZm4Kmok5IcbaTd0W8vR5uYslp1JAWt3H
lpA4x6JjKS7sDc2Kid4z2QrGc8vTK45qnlggwFxhKJPqj0r1HPW/Z6EkKroA2FjQ
kArYluBoVRLfLyvbK20S5EMMA4Y5foM7Izv0Lnpwsy8vXWZSvGkoWptdKlqqOe7q
uf5A+mUAf9H33DP0NLfXIKYvDS8mklYmGUu/RUcvab6wmt6WCyA7/d33LhDlYnCq
vUe53tbSWpbGi5uej2smh/maF8ol/3SziiYlhgOznh5T/HktHz1H
-----END CERTIFICATE-----
