Certificate:
    Data:
        Version: 3 (0x2)
        Serial Number:
            a9:70:c0:3a:9b:a8:dc:95:49:a5:22:26:87:6d:40:b5
    Signature Algorithm: sha256WithRSAEncryption
        Issuer: C=US, ST=California, L=San Francisco, O=Copyleft Certificate Co, OU=My Organizational Unit, CN=ChangeMe/emailAddress=me@example.net
        Validity
            Not Before: Jan 23 18:28:39 2021 GMT
            Not After : Jan 23 18:28:39 2022 GMT
        Subject: C=US, ST=OH, L=Cincinnati, O=University of Cincinnati, OU=Dept. Electrical Eng. and Computer Sci., CN=client59/emailAddress=franco@gauss.ececs.uc.edu
        Subject Public Key Info:
            Public Key Algorithm: rsaEncryption
                Public-Key: (2048 bit)
                Modulus:
                    00:9f:f3:99:fe:3d:c0:e9:96:a0:46:17:f0:18:f2:
                    69:a5:5f:48:90:e8:cf:89:3f:ab:0f:19:cf:77:a9:
                    55:b6:98:c4:3a:51:6c:3a:b4:d3:df:58:ed:70:8e:
                    ef:6b:c5:a9:5a:24:d3:67:2a:3c:67:2a:87:e7:d5:
                    c0:35:04:fa:04:d2:e7:b9:e8:ff:70:30:b6:c8:09:
                    df:35:1b:77:1f:4b:4c:ad:6c:b1:30:b4:54:63:61:
                    69:d1:7c:8e:1e:ad:f5:fc:5d:8a:2f:cc:3f:85:aa:
                    10:9f:c9:2c:78:07:81:08:82:1d:85:16:cb:58:c0:
                    e8:a8:3d:02:d3:eb:4c:1a:b9:c6:15:f5:c5:16:40:
                    8a:74:92:45:e8:26:da:2e:fb:62:3b:a6:6f:d6:53:
                    43:83:2b:65:a3:d9:5c:6b:f6:63:11:42:69:89:17:
                    c2:56:53:a3:50:5c:9b:d3:4d:1b:6c:5f:e5:33:71:
                    51:73:49:af:69:8b:89:7f:c3:7b:09:99:8c:de:a5:
                    04:3b:87:2c:73:31:8d:af:da:04:2f:9e:46:19:7a:
                    fa:b4:7d:60:f4:bc:fd:41:46:66:f5:af:f1:6e:e3:
                    3b:c7:90:4b:42:9e:25:a9:44:06:41:a8:59:ba:ca:
                    9f:4f:50:31:51:c6:f3:f0:35:47:47:2a:36:83:34:
                    22:c7
                Exponent: 65537 (0x10001)
        X509v3 extensions:
            X509v3 Basic Constraints: 
                CA:FALSE
            X509v3 Subject Key Identifier: 
                20:04:13:65:B2:5A:9F:D4:AF:EA:B4:E2:40:A8:AE:EA:6B:61:CF:B3
            X509v3 Authority Key Identifier: 
                keyid:EF:DC:B6:3D:4B:FD:A7:87:05:C5:22:3D:8B:DC:BF:99:2A:EE:E4:DB
                DirName:/C=US/ST=California/L=San Francisco/O=Copyleft Certificate Co/OU=My Organizational Unit/CN=ChangeMe/emailAddress=me@example.net
                serial:87:1E:1D:DC:6B:8C:66:88

            X509v3 Extended Key Usage: 
                TLS Web Client Authentication
            X509v3 Key Usage: 
                Digital Signature
    Signature Algorithm: sha256WithRSAEncryption
         08:ba:da:1e:a9:a6:1c:1f:6e:9e:b4:00:00:ac:b5:a6:43:dc:
         a7:25:bc:61:36:12:69:a0:1b:2c:6a:4b:f4:92:2f:b4:de:69:
         d7:87:cb:9d:b5:7b:6c:03:3e:68:e6:84:af:92:b8:39:d0:39:
         b4:81:b4:fd:b0:62:21:67:26:3b:ea:95:ca:50:ab:bf:27:04:
         d2:91:d7:12:bf:7f:e9:04:0b:36:cb:11:a1:b0:bf:a5:e9:13:
         c0:06:f0:2c:9e:4c:65:fe:7f:e6:bb:11:82:50:e7:d3:a6:58:
         77:de:b4:d8:64:4a:a1:71:47:55:99:4f:45:8e:ed:56:a3:7f:
         24:49:82:6a:dc:bc:9f:8d:48:7c:1a:3a:ba:33:e3:0d:81:0e:
         8a:a0:13:c7:d4:81:4d:e1:d0:c4:29:3e:dd:55:99:40:25:54:
         0d:cc:fe:8b:31:4e:ef:1d:6a:8b:a7:47:3c:71:82:d0:9b:8d:
         8d:40:af:73:a9:90:38:6d:37:c8:91:38:02:16:06:94:39:08:
         53:6a:72:6c:06:66:0c:d3:3a:1b:c7:e4:0b:2e:99:8e:d2:29:
         b7:0b:d5:77:a0:88:d9:3a:66:2a:da:22:db:af:3c:9e:78:b8:
         ef:97:c8:ec:1e:87:99:19:8b:7b:dc:24:1f:72:3c:1d:47:1a:
         7f:01:48:7d
-----BEGIN CERTIFICATE-----
MIIFNjCCBB6gAwIBAgIRAKlwwDqbqNyVSaUiJodtQLUwDQYJKoZIhvcNAQELBQAw
ga8xCzAJBgNVBAYTAlVTMRMwEQYDVQQIDApDYWxpZm9ybmlhMRYwFAYDVQQHDA1T
YW4gRnJhbmNpc2NvMSAwHgYDVQQKDBdDb3B5bGVmdCBDZXJ0aWZpY2F0ZSBDbzEf
MB0GA1UECwwWTXkgT3JnYW5pemF0aW9uYWwgVW5pdDERMA8GA1UEAwwIQ2hhbmdl
TWUxHTAbBgkqhkiG9w0BCQEWDm1lQGV4YW1wbGUubmV0MB4XDTIxMDEyMzE4Mjgz
OVoXDTIyMDEyMzE4MjgzOVowgcExCzAJBgNVBAYTAlVTMQswCQYDVQQIDAJPSDET
MBEGA1UEBwwKQ2luY2lubmF0aTEhMB8GA1UECgwYVW5pdmVyc2l0eSBvZiBDaW5j
aW5uYXRpMTAwLgYDVQQLDCdEZXB0LiBFbGVjdHJpY2FsIEVuZy4gYW5kIENvbXB1
dGVyIFNjaS4xETAPBgNVBAMMCGNsaWVudDU5MSgwJgYJKoZIhvcNAQkBFhlmcmFu
Y29AZ2F1c3MuZWNlY3MudWMuZWR1MIIBIjANBgkqhkiG9w0BAQEFAAOCAQ8AMIIB
CgKCAQEAn/OZ/j3A6ZagRhfwGPJppV9IkOjPiT+rDxnPd6lVtpjEOlFsOrTT31jt
cI7va8WpWiTTZyo8ZyqH59XANQT6BNLnuej/cDC2yAnfNRt3H0tMrWyxMLRUY2Fp
0XyOHq31/F2KL8w/haoQn8kseAeBCIIdhRbLWMDoqD0C0+tMGrnGFfXFFkCKdJJF
6CbaLvtiO6Zv1lNDgytlo9lca/ZjEUJpiRfCVlOjUFyb000bbF/lM3FRc0mvaYuJ
f8N7CZmM3qUEO4csczGNr9oEL55GGXr6tH1g9Lz9QUZm9a/xbuM7x5BLQp4lqUQG
QahZusqfT1AxUcbz8DVHRyo2gzQixwIDAQABo4IBNzCCATMwCQYDVR0TBAIwADAd
BgNVHQ4EFgQUIAQTZbJan9Sv6rTiQKiu6mthz7MwgeQGA1UdIwSB3DCB2YAU79y2
PUv9p4cFxSI9i9y/mSru5NuhgbWkgbIwga8xCzAJBgNVBAYTAlVTMRMwEQYDVQQI
DApDYWxpZm9ybmlhMRYwFAYDVQQHDA1TYW4gRnJhbmNpc2NvMSAwHgYDVQQKDBdD
b3B5bGVmdCBDZXJ0aWZpY2F0ZSBDbzEfMB0GA1UECwwWTXkgT3JnYW5pemF0aW9u
YWwgVW5pdDERMA8GA1UEAwwIQ2hhbmdlTWUxHTAbBgkqhkiG9w0BCQEWDm1lQGV4
YW1wbGUubmV0ggkAhx4d3GuMZogwEwYDVR0lBAwwCgYIKwYBBQUHAwIwCwYDVR0P
BAQDAgeAMA0GCSqGSIb3DQEBCwUAA4IBAQAIutoeqaYcH26etAAArLWmQ9ynJbxh
NhJpoBssakv0ki+03mnXh8udtXtsAz5o5oSvkrg50Dm0gbT9sGIhZyY76pXKUKu/
JwTSkdcSv3/pBAs2yxGhsL+l6RPABvAsnkxl/n/muxGCUOfTplh33rTYZEqhcUdV
mU9Fju1Wo38kSYJq3LyfjUh8Gjq6M+MNgQ6KoBPH1IFN4dDEKT7dVZlAJVQNzP6L
MU7vHWqLp0c8cYLQm42NQK9zqZA4bTfIkTgCFgaUOQhTanJsBmYM0zobx+QLLpmO
0im3C9V3oIjZOmYq2iLbrzyeeLjvl8jsHoeZGYt73CQfcjwdRxp/AUh9
-----END CERTIFICATE-----
