Certificate:
    Data:
        Version: 3 (0x2)
        Serial Number:
            aa:ea:02:2f:02:c2:99:cd:6b:12:56:95:30:ba:bd:a6
    Signature Algorithm: sha256WithRSAEncryption
        Issuer: C=US, ST=California, L=San Francisco, O=Copyleft Certificate Co, OU=My Organizational Unit, CN=ChangeMe/emailAddress=me@example.net
        Validity
            Not Before: Nov 11 18:52:48 2023 GMT
            Not After : Nov 10 18:52:48 2024 GMT
        Subject: C=US, ST=OH, L=Cincinnati, O=University of Cincinnati ., OU=Dept. Elec. Comp. . Eng. Comp. Sci., CN=client43/emailAddress=franco@gauss.ececs.uc.edu
        Subject Public Key Info:
            Public Key Algorithm: rsaEncryption
                Public-Key: (2048 bit)
                Modulus:
                    00:cc:d3:2d:27:f0:5c:d8:a0:d3:77:74:33:25:90:
                    59:7e:fb:d6:4a:51:23:db:41:bf:b1:4b:ca:d0:79:
                    76:d2:5c:e7:32:38:d0:aa:6e:40:e7:dc:03:13:66:
                    4c:41:11:8d:eb:a7:4e:ce:71:96:36:80:b2:34:64:
                    86:e7:ec:d0:06:f4:fe:ae:11:aa:03:02:cb:0a:ff:
                    90:b2:f9:25:15:d4:58:35:59:ae:11:ed:bf:c1:15:
                    92:db:ee:65:44:ac:1a:31:f8:c2:34:4b:b2:7a:1e:
                    41:8e:79:b3:9b:08:3b:4b:03:03:42:df:9b:c0:82:
                    a3:61:53:37:b1:ca:ae:bf:ef:af:ce:ae:f1:9c:e0:
                    ad:08:3b:d1:b1:68:70:5d:2f:fe:46:e1:e8:51:e0:
                    b6:db:df:76:62:a7:3d:3b:01:5c:17:78:9c:dc:64:
                    33:70:35:eb:dd:d4:f4:ea:0e:8a:41:00:30:f7:9a:
                    bb:7c:a0:07:1e:b3:41:8b:7c:d5:f6:c6:78:72:04:
                    da:87:6d:b3:73:e2:2a:85:86:e9:cf:67:95:4e:e5:
                    ee:8b:20:85:23:73:a2:b0:dc:93:e8:48:b8:b7:f5:
                    5d:02:ee:6d:83:6b:1d:81:98:65:f3:96:b5:98:01:
                    7f:d2:68:54:6a:45:62:1a:27:65:49:e8:2a:c9:99:
                    16:15
                Exponent: 65537 (0x10001)
        X509v3 extensions:
            X509v3 Basic Constraints: 
                CA:FALSE
            X509v3 Subject Key Identifier: 
                8A:93:C3:F2:EB:B4:F4:E3:AE:E4:80:48:94:02:A9:EB:57:DE:F9:D9
            X509v3 Authority Key Identifier: 
                keyid:9C:0E:D5:A3:16:6F:C8:23:88:D1:12:C9:63:5D:18:D9:C9:FC:5B:E9
                DirName:/C=US/ST=California/L=San Francisco/O=Copyleft Certificate Co/OU=My Organizational Unit/CN=ChangeMe/emailAddress=me@example.net
                serial:A3:08:26:80:D2:47:98:75

            X509v3 Extended Key Usage: 
                TLS Web Client Authentication
            X509v3 Key Usage: 
                Digital Signature
    Signature Algorithm: sha256WithRSAEncryption
         65:5b:2c:57:87:63:8e:a4:da:e1:87:f2:55:96:17:1c:b1:9f:
         d6:5d:a6:29:dc:40:4b:d5:db:ce:65:d9:58:bc:ca:ac:6c:aa:
         2f:23:85:d8:73:85:68:4e:40:01:f5:2e:c0:3c:ed:29:ef:41:
         6c:15:a2:78:07:37:dc:f1:e5:f2:26:e6:a1:37:bd:66:ca:b7:
         8f:52:d0:72:80:b9:28:48:6e:b0:2f:2a:5c:fc:fb:21:06:db:
         96:0d:f5:bc:29:e9:c6:60:7c:ac:6a:79:84:d8:e8:ed:28:4d:
         cc:06:7b:85:66:b0:f6:7b:42:3b:b7:c8:e7:9c:ff:e7:ef:6f:
         da:04:13:a6:f0:db:f9:9a:07:8c:80:36:0f:ce:2b:61:ab:0c:
         c5:40:50:8e:8b:07:8d:9e:d7:ca:26:1d:e5:3b:b6:53:53:5e:
         a9:8f:a3:ba:8d:77:78:16:08:89:55:0e:42:d4:84:16:3f:b6:
         ef:9c:0a:7d:78:3e:ee:bf:1e:69:dc:26:03:45:2c:3d:0c:03:
         b9:88:d3:5f:c4:a4:4b:c3:e7:4b:c3:d5:71:0f:23:5d:0e:be:
         00:93:9c:c6:cc:3e:3a:72:48:fd:ca:44:14:1f:b7:4e:42:e9:
         f1:05:64:d4:ab:67:78:4d:e4:51:c4:4c:a9:14:38:6b:6a:9d:
         ae:08:04:9a
-----BEGIN CERTIFICATE-----
MIIFNDCCBBygAwIBAgIRAKrqAi8CwpnNaxJWlTC6vaYwDQYJKoZIhvcNAQELBQAw
ga8xCzAJBgNVBAYTAlVTMRMwEQYDVQQIDApDYWxpZm9ybmlhMRYwFAYDVQQHDA1T
YW4gRnJhbmNpc2NvMSAwHgYDVQQKDBdDb3B5bGVmdCBDZXJ0aWZpY2F0ZSBDbzEf
MB0GA1UECwwWTXkgT3JnYW5pemF0aW9uYWwgVW5pdDERMA8GA1UEAwwIQ2hhbmdl
TWUxHTAbBgkqhkiG9w0BCQEWDm1lQGV4YW1wbGUubmV0MB4XDTIzMTExMTE4NTI0
OFoXDTI0MTExMDE4NTI0OFowgb8xCzAJBgNVBAYTAlVTMQswCQYDVQQIDAJPSDET
MBEGA1UEBwwKQ2luY2lubmF0aTEjMCEGA1UECgwaVW5pdmVyc2l0eSBvZiBDaW5j
aW5uYXRpIC4xLDAqBgNVBAsMI0RlcHQuIEVsZWMuIENvbXAuIC4gRW5nLiBDb21w
LiBTY2kuMREwDwYDVQQDDAhjbGllbnQ0MzEoMCYGCSqGSIb3DQEJARYZZnJhbmNv
QGdhdXNzLmVjZWNzLnVjLmVkdTCCASIwDQYJKoZIhvcNAQEBBQADggEPADCCAQoC
ggEBAMzTLSfwXNig03d0MyWQWX771kpRI9tBv7FLytB5dtJc5zI40KpuQOfcAxNm
TEERjeunTs5xljaAsjRkhufs0Ab0/q4RqgMCywr/kLL5JRXUWDVZrhHtv8EVktvu
ZUSsGjH4wjRLsnoeQY55s5sIO0sDA0Lfm8CCo2FTN7HKrr/vr86u8ZzgrQg70bFo
cF0v/kbh6FHgttvfdmKnPTsBXBd4nNxkM3A1693U9OoOikEAMPeau3ygBx6zQYt8
1fbGeHIE2odts3PiKoWG6c9nlU7l7osghSNzorDck+hIuLf1XQLubYNrHYGYZfOW
tZgBf9JoVGpFYhonZUnoKsmZFhUCAwEAAaOCATcwggEzMAkGA1UdEwQCMAAwHQYD
VR0OBBYEFIqTw/LrtPTjruSASJQCqetX3vnZMIHkBgNVHSMEgdwwgdmAFJwO1aMW
b8gjiNESyWNdGNnJ/FvpoYG1pIGyMIGvMQswCQYDVQQGEwJVUzETMBEGA1UECAwK
Q2FsaWZvcm5pYTEWMBQGA1UEBwwNU2FuIEZyYW5jaXNjbzEgMB4GA1UECgwXQ29w
eWxlZnQgQ2VydGlmaWNhdGUgQ28xHzAdBgNVBAsMFk15IE9yZ2FuaXphdGlvbmFs
IFVuaXQxETAPBgNVBAMMCENoYW5nZU1lMR0wGwYJKoZIhvcNAQkBFg5tZUBleGFt
cGxlLm5ldIIJAKMIJoDSR5h1MBMGA1UdJQQMMAoGCCsGAQUFBwMCMAsGA1UdDwQE
AwIHgDANBgkqhkiG9w0BAQsFAAOCAQEAZVssV4djjqTa4YfyVZYXHLGf1l2mKdxA
S9XbzmXZWLzKrGyqLyOF2HOFaE5AAfUuwDztKe9BbBWieAc33PHl8ibmoTe9Zsq3
j1LQcoC5KEhusC8qXPz7IQbblg31vCnpxmB8rGp5hNjo7ShNzAZ7hWaw9ntCO7fI
55z/5+9v2gQTpvDb+ZoHjIA2D84rYasMxUBQjosHjZ7XyiYd5Tu2U1NeqY+juo13
eBYIiVUOQtSEFj+275wKfXg+7r8eadwmA0UsPQwDuYjTX8SkS8PnS8PVcQ8jXQ6+
AJOcxsw+OnJI/cpEFB+3TkLp8QVk1KtneE3kUcRMqRQ4a2qdrggEmg==
-----END CERTIFICATE-----
