Certificate:
    Data:
        Version: 3 (0x2)
        Serial Number:
            b5:5f:e3:4b:2e:b4:42:57:23:e1:97:3e:71:8e:2b:5e
    Signature Algorithm: sha256WithRSAEncryption
        Issuer: C=US, ST=California, L=San Francisco, O=Copyleft Certificate Co, OU=My Organizational Unit, CN=ChangeMe/emailAddress=me@example.net
        Validity
            Not Before: Nov 11 02:01:15 2023 GMT
            Not After : Nov 10 02:01:15 2024 GMT
        Subject: C=US, ST=OH, L=Cincinnati, O=University of Cincinnati, OU=Dept. Elec. Comp. Eng. Comp. Sci., CN=client48/emailAddress=franco@gauss.ececs.uc.edu
        Subject Public Key Info:
            Public Key Algorithm: rsaEncryption
                Public-Key: (2048 bit)
                Modulus:
                    00:bd:8f:00:35:9c:1e:a3:92:5e:5d:0e:a1:b2:e9:
                    2c:79:da:50:5d:38:4e:0f:bb:65:94:78:d8:c5:08:
                    7e:b2:f4:14:bc:1f:c1:83:23:45:f1:48:cd:4b:61:
                    91:2d:2d:80:cb:c5:c4:c8:93:42:21:7e:6e:8e:9e:
                    a7:66:98:f0:da:b2:74:cf:27:3d:f7:16:fb:6d:63:
                    2e:1b:b7:03:a8:f5:85:69:cc:8d:81:40:35:f3:3a:
                    fd:74:49:bb:75:13:8e:5e:75:f9:2c:bc:45:cc:83:
                    d6:1a:ff:de:24:d3:35:24:4f:6a:5e:e4:a8:de:04:
                    eb:46:c1:c5:71:e3:1c:50:8d:8d:26:3a:ad:76:5c:
                    87:69:bf:96:65:31:cb:20:ce:60:bb:e2:b5:1a:5d:
                    d4:df:6d:36:69:6e:11:8a:4e:dd:00:cc:18:2a:da:
                    c0:25:ea:07:a9:49:66:c8:c4:d5:77:c8:c2:74:3d:
                    d2:de:a4:50:f4:aa:6c:30:8a:a5:bc:47:82:f8:b4:
                    01:0f:44:1d:b3:06:ea:5a:ed:2b:c0:ee:82:64:b4:
                    31:4b:2a:98:e2:3d:5c:d8:1b:cd:6f:15:93:dd:b9:
                    22:05:d5:1c:15:7c:20:23:7b:04:9e:15:65:dc:a7:
                    f1:8b:ba:50:5c:ee:57:9d:a8:54:75:db:99:5e:cf:
                    33:41
                Exponent: 65537 (0x10001)
        X509v3 extensions:
            X509v3 Basic Constraints: 
                CA:FALSE
            X509v3 Subject Key Identifier: 
                E8:D1:38:42:F6:CB:A6:AB:F0:D5:2A:EE:52:CC:DE:B4:66:D1:D4:4D
            X509v3 Authority Key Identifier: 
                keyid:7B:0F:93:16:64:9F:71:41:D3:1B:FB:ED:6A:70:9B:CA:2E:70:F0:4B
                DirName:/C=US/ST=California/L=San Francisco/O=Copyleft Certificate Co/OU=My Organizational Unit/CN=ChangeMe/emailAddress=me@example.net
                serial:B9:F2:4E:2C:79:B3:D4:6C

            X509v3 Extended Key Usage: 
                TLS Web Client Authentication
            X509v3 Key Usage: 
                Digital Signature
    Signature Algorithm: sha256WithRSAEncryption
         7a:6e:25:50:62:12:b5:a5:be:a2:93:a9:38:8d:6c:0d:99:96:
         43:a0:20:df:76:27:08:d8:0d:6f:33:d1:3f:3f:75:96:d1:3d:
         d0:a1:37:ea:bb:7c:bf:26:48:39:40:f7:c6:7f:f3:cd:a2:9b:
         ca:0f:a2:58:a6:08:3b:a0:8a:83:4c:e4:05:7f:9b:bc:ed:fe:
         ec:21:62:38:f6:7b:7d:ea:cb:37:9a:15:ea:09:70:d0:e8:6a:
         7a:29:ff:db:c7:65:57:56:b8:5d:3b:4a:a7:c9:24:e5:29:9d:
         21:03:81:32:d8:dd:8f:47:28:ed:c7:ab:2a:e9:7b:76:53:91:
         4b:18:a2:07:41:86:6e:3d:aa:bc:a7:95:f7:bf:ed:28:a6:e4:
         9d:86:d1:43:5d:5c:08:85:76:cc:ba:dc:cc:4e:97:55:20:25:
         bd:78:10:61:3a:9f:ea:cf:dc:d9:c8:f5:4d:a0:0f:19:ad:54:
         7b:c9:46:97:85:3a:13:cc:98:a2:d4:62:e9:f2:e4:b2:38:e9:
         07:ed:ce:d0:6a:7a:73:1b:78:d8:df:ea:3a:0c:72:0c:2c:42:
         05:e7:ac:38:0a:d5:b4:23:a7:c7:05:a3:69:ec:1d:e5:70:d3:
         fb:c7:09:de:da:0d:ff:27:f2:45:15:88:07:a3:e0:2c:a9:52:
         6c:f2:ef:12
-----BEGIN CERTIFICATE-----
MIIFMDCCBBigAwIBAgIRALVf40sutEJXI+GXPnGOK14wDQYJKoZIhvcNAQELBQAw
ga8xCzAJBgNVBAYTAlVTMRMwEQYDVQQIDApDYWxpZm9ybmlhMRYwFAYDVQQHDA1T
YW4gRnJhbmNpc2NvMSAwHgYDVQQKDBdDb3B5bGVmdCBDZXJ0aWZpY2F0ZSBDbzEf
MB0GA1UECwwWTXkgT3JnYW5pemF0aW9uYWwgVW5pdDERMA8GA1UEAwwIQ2hhbmdl
TWUxHTAbBgkqhkiG9w0BCQEWDm1lQGV4YW1wbGUubmV0MB4XDTIzMTExMTAyMDEx
NVoXDTI0MTExMDAyMDExNVowgbsxCzAJBgNVBAYTAlVTMQswCQYDVQQIDAJPSDET
MBEGA1UEBwwKQ2luY2lubmF0aTEhMB8GA1UECgwYVW5pdmVyc2l0eSBvZiBDaW5j
aW5uYXRpMSowKAYDVQQLDCFEZXB0LiBFbGVjLiBDb21wLiBFbmcuIENvbXAuIFNj
aS4xETAPBgNVBAMMCGNsaWVudDQ4MSgwJgYJKoZIhvcNAQkBFhlmcmFuY29AZ2F1
c3MuZWNlY3MudWMuZWR1MIIBIjANBgkqhkiG9w0BAQEFAAOCAQ8AMIIBCgKCAQEA
vY8ANZweo5JeXQ6hsuksedpQXThOD7tllHjYxQh+svQUvB/BgyNF8UjNS2GRLS2A
y8XEyJNCIX5ujp6nZpjw2rJ0zyc99xb7bWMuG7cDqPWFacyNgUA18zr9dEm7dROO
XnX5LLxFzIPWGv/eJNM1JE9qXuSo3gTrRsHFceMcUI2NJjqtdlyHab+WZTHLIM5g
u+K1Gl3U3202aW4Rik7dAMwYKtrAJeoHqUlmyMTVd8jCdD3S3qRQ9KpsMIqlvEeC
+LQBD0QdswbqWu0rwO6CZLQxSyqY4j1c2BvNbxWT3bkiBdUcFXwgI3sEnhVl3Kfx
i7pQXO5XnahUdduZXs8zQQIDAQABo4IBNzCCATMwCQYDVR0TBAIwADAdBgNVHQ4E
FgQU6NE4QvbLpqvw1SruUszetGbR1E0wgeQGA1UdIwSB3DCB2YAUew+TFmSfcUHT
G/vtanCbyi5w8EuhgbWkgbIwga8xCzAJBgNVBAYTAlVTMRMwEQYDVQQIDApDYWxp
Zm9ybmlhMRYwFAYDVQQHDA1TYW4gRnJhbmNpc2NvMSAwHgYDVQQKDBdDb3B5bGVm
dCBDZXJ0aWZpY2F0ZSBDbzEfMB0GA1UECwwWTXkgT3JnYW5pemF0aW9uYWwgVW5p
dDERMA8GA1UEAwwIQ2hhbmdlTWUxHTAbBgkqhkiG9w0BCQEWDm1lQGV4YW1wbGUu
bmV0ggkAufJOLHmz1GwwEwYDVR0lBAwwCgYIKwYBBQUHAwIwCwYDVR0PBAQDAgeA
MA0GCSqGSIb3DQEBCwUAA4IBAQB6biVQYhK1pb6ik6k4jWwNmZZDoCDfdicI2A1v
M9E/P3WW0T3QoTfqu3y/Jkg5QPfGf/PNopvKD6JYpgg7oIqDTOQFf5u87f7sIWI4
9nt96ss3mhXqCXDQ6Gp6Kf/bx2VXVrhdO0qnySTlKZ0hA4Ey2N2PRyjtx6sq6Xt2
U5FLGKIHQYZuPaq8p5X3v+0opuSdhtFDXVwIhXbMutzMTpdVICW9eBBhOp/qz9zZ
yPVNoA8ZrVR7yUaXhToTzJii1GLp8uSyOOkH7c7QanpzG3jY3+o6DHIMLEIF56w4
CtW0I6fHBaNp7B3lcNP7xwne2g3/J/JFFYgHo+AsqVJs8u8S
-----END CERTIFICATE-----
