Certificate:
    Data:
        Version: 3 (0x2)
        Serial Number:
            b6:93:c3:0d:6e:85:99:11:06:5a:17:cb:03:c2:a8:35
    Signature Algorithm: sha256WithRSAEncryption
        Issuer: C=US, ST=California, L=San Francisco, O=Copyleft Certificate Co, OU=My Organizational Unit, CN=ChangeMe/emailAddress=me@example.net
        Validity
            Not Before: Nov 13 11:47:46 2023 GMT
            Not After : Nov 12 11:47:46 2024 GMT
        Subject: C=US, ST=OH, L=Cincinnati, O=University of Cincinnati, OU=Dept. Elec. Comp. Eng. Comp. Sci., CN=client20/emailAddress=franco@gauss.ececs.uc.edu
        Subject Public Key Info:
            Public Key Algorithm: rsaEncryption
                Public-Key: (2048 bit)
                Modulus:
                    00:f7:a3:87:d3:47:5d:6c:0b:c3:56:9f:59:2d:c5:
                    3f:f7:99:a8:0a:62:30:fa:f5:8f:45:0f:9e:b8:66:
                    82:91:f4:0c:7d:59:bb:17:ac:2c:43:83:6b:6a:36:
                    fe:1f:aa:0c:19:c1:1a:c2:13:9e:af:98:de:c7:c7:
                    7d:53:05:9c:53:b2:ab:c7:40:f8:c7:b0:0f:73:60:
                    0f:9b:b4:bc:8d:e9:67:08:76:31:8c:39:df:6e:a9:
                    e5:f2:a2:0a:c0:27:aa:32:df:5c:bc:eb:02:21:0d:
                    66:53:a9:27:f6:46:a2:de:e1:dc:f2:00:04:46:14:
                    08:ec:1e:d0:fb:b5:ba:cf:f4:18:dd:6e:83:7b:bf:
                    79:1f:d2:83:f6:12:46:c4:ae:b1:60:68:f0:af:62:
                    cf:27:54:0b:36:17:ef:77:15:f9:a1:b3:8f:c0:fe:
                    da:a7:e0:f5:e0:81:29:7e:f8:ef:cc:b1:32:88:20:
                    2e:bf:22:8a:2d:54:3a:0b:e1:f5:11:ec:4c:d8:8b:
                    12:0d:9c:9a:ea:e4:b8:ff:59:63:d9:fe:95:90:fe:
                    d2:45:a2:9a:42:e8:9b:c3:e9:f1:00:a9:0f:7e:54:
                    c5:62:80:0a:e8:37:fe:58:a9:06:cb:a1:2e:4a:06:
                    9f:b2:e4:73:89:89:fa:e1:9b:b8:54:ef:57:0c:fe:
                    8f:91
                Exponent: 65537 (0x10001)
        X509v3 extensions:
            X509v3 Basic Constraints: 
                CA:FALSE
            X509v3 Subject Key Identifier: 
                8F:7A:8E:52:1F:3C:A2:9B:3E:FA:21:D3:1B:26:83:95:7F:34:45:98
            X509v3 Authority Key Identifier: 
                keyid:B4:AE:AB:ED:FC:ED:84:AA:AD:77:5D:7C:84:28:1C:CA:CE:AE:2A:44
                DirName:/C=US/ST=California/L=San Francisco/O=Copyleft Certificate Co/OU=My Organizational Unit/CN=ChangeMe/emailAddress=me@example.net
                serial:BD:6C:3B:F4:D3:07:C9:D1

            X509v3 Extended Key Usage: 
                TLS Web Client Authentication
            X509v3 Key Usage: 
                Digital Signature
    Signature Algorithm: sha256WithRSAEncryption
         c8:08:ee:c3:ef:48:ef:77:79:5b:17:f4:77:53:17:ce:db:d8:
         42:80:8d:d4:6b:a2:76:b1:99:6e:b4:ec:3a:f3:cc:f3:01:67:
         bc:02:20:3b:b3:c5:04:8a:a9:09:fb:a9:6f:62:50:94:dd:fa:
         28:9b:e8:1f:f5:e0:cc:77:7f:6d:16:03:33:64:7b:d9:cb:c1:
         d8:23:98:8d:87:c0:56:71:71:95:00:0a:b0:28:aa:25:dd:97:
         ea:ee:c4:8c:56:80:15:d6:29:75:4a:37:44:50:ef:13:46:7e:
         57:bf:bf:da:5f:d1:ee:97:ad:c3:c3:0a:20:ab:0b:3d:13:1b:
         10:d5:d0:27:0a:ff:ca:69:26:38:56:bc:7d:f9:32:22:11:f8:
         35:2c:f6:33:c9:ce:b9:1e:1d:1a:16:38:e8:ba:5d:a6:4e:03:
         8d:9b:21:b8:4f:45:7a:22:47:43:89:0e:ab:1b:95:49:d5:ff:
         ae:14:36:dc:d0:75:85:b4:d2:5d:b4:a6:7d:18:09:17:84:4e:
         73:15:a0:82:b0:d5:43:68:0e:1c:6d:3e:b6:87:0a:3d:20:e9:
         8f:78:4a:f1:17:ed:de:5b:68:c3:6e:15:8c:ae:c7:19:58:0b:
         58:1e:52:e9:7d:69:75:19:11:bd:a5:23:4d:9f:b4:d4:bb:47:
         e7:4b:55:5b
-----BEGIN CERTIFICATE-----
MIIFMDCCBBigAwIBAgIRALaTww1uhZkRBloXywPCqDUwDQYJKoZIhvcNAQELBQAw
ga8xCzAJBgNVBAYTAlVTMRMwEQYDVQQIDApDYWxpZm9ybmlhMRYwFAYDVQQHDA1T
YW4gRnJhbmNpc2NvMSAwHgYDVQQKDBdDb3B5bGVmdCBDZXJ0aWZpY2F0ZSBDbzEf
MB0GA1UECwwWTXkgT3JnYW5pemF0aW9uYWwgVW5pdDERMA8GA1UEAwwIQ2hhbmdl
TWUxHTAbBgkqhkiG9w0BCQEWDm1lQGV4YW1wbGUubmV0MB4XDTIzMTExMzExNDc0
NloXDTI0MTExMjExNDc0NlowgbsxCzAJBgNVBAYTAlVTMQswCQYDVQQIDAJPSDET
MBEGA1UEBwwKQ2luY2lubmF0aTEhMB8GA1UECgwYVW5pdmVyc2l0eSBvZiBDaW5j
aW5uYXRpMSowKAYDVQQLDCFEZXB0LiBFbGVjLiBDb21wLiBFbmcuIENvbXAuIFNj
aS4xETAPBgNVBAMMCGNsaWVudDIwMSgwJgYJKoZIhvcNAQkBFhlmcmFuY29AZ2F1
c3MuZWNlY3MudWMuZWR1MIIBIjANBgkqhkiG9w0BAQEFAAOCAQ8AMIIBCgKCAQEA
96OH00ddbAvDVp9ZLcU/95moCmIw+vWPRQ+euGaCkfQMfVm7F6wsQ4Nrajb+H6oM
GcEawhOer5jex8d9UwWcU7Krx0D4x7APc2APm7S8jelnCHYxjDnfbqnl8qIKwCeq
Mt9cvOsCIQ1mU6kn9kai3uHc8gAERhQI7B7Q+7W6z/QY3W6De795H9KD9hJGxK6x
YGjwr2LPJ1QLNhfvdxX5obOPwP7ap+D14IEpfvjvzLEyiCAuvyKKLVQ6C+H1EexM
2IsSDZya6uS4/1lj2f6VkP7SRaKaQuibw+nxAKkPflTFYoAK6Df+WKkGy6EuSgaf
suRziYn64Zu4VO9XDP6PkQIDAQABo4IBNzCCATMwCQYDVR0TBAIwADAdBgNVHQ4E
FgQUj3qOUh88ops++iHTGyaDlX80RZgwgeQGA1UdIwSB3DCB2YAUtK6r7fzthKqt
d118hCgcys6uKkShgbWkgbIwga8xCzAJBgNVBAYTAlVTMRMwEQYDVQQIDApDYWxp
Zm9ybmlhMRYwFAYDVQQHDA1TYW4gRnJhbmNpc2NvMSAwHgYDVQQKDBdDb3B5bGVm
dCBDZXJ0aWZpY2F0ZSBDbzEfMB0GA1UECwwWTXkgT3JnYW5pemF0aW9uYWwgVW5p
dDERMA8GA1UEAwwIQ2hhbmdlTWUxHTAbBgkqhkiG9w0BCQEWDm1lQGV4YW1wbGUu
bmV0ggkAvWw79NMHydEwEwYDVR0lBAwwCgYIKwYBBQUHAwIwCwYDVR0PBAQDAgeA
MA0GCSqGSIb3DQEBCwUAA4IBAQDICO7D70jvd3lbF/R3UxfO29hCgI3Ua6J2sZlu
tOw688zzAWe8AiA7s8UEiqkJ+6lvYlCU3foom+gf9eDMd39tFgMzZHvZy8HYI5iN
h8BWcXGVAAqwKKol3Zfq7sSMVoAV1il1SjdEUO8TRn5Xv7/aX9Hul63Dwwogqws9
ExsQ1dAnCv/KaSY4Vrx9+TIiEfg1LPYzyc65Hh0aFjjoul2mTgONmyG4T0V6IkdD
iQ6rG5VJ1f+uFDbc0HWFtNJdtKZ9GAkXhE5zFaCCsNVDaA4cbT62hwo9IOmPeErx
F+3eW2jDbhWMrscZWAtYHlLpfWl1GRG9pSNNn7TUu0fnS1Vb
-----END CERTIFICATE-----
