Certificate:
    Data:
        Version: 3 (0x2)
        Serial Number:
            bd:c3:0b:52:17:07:8a:24:d0:7d:c3:89:71:75:2a:16
    Signature Algorithm: sha256WithRSAEncryption
        Issuer: C=US, ST=California, L=San Francisco, O=Copyleft Certificate Co, OU=My Organizational Unit, CN=ChangeMe/emailAddress=me@example.net
        Validity
            Not Before: Nov 13 11:48:58 2023 GMT
            Not After : Nov 12 11:48:58 2024 GMT
        Subject: C=US, ST=OH, L=Cincinnati, O=University of Cincinnati, OU=Dept. Elec. Comp. Eng. Comp. Sci., CN=client38/emailAddress=franco@gauss.ececs.uc.edu
        Subject Public Key Info:
            Public Key Algorithm: rsaEncryption
                Public-Key: (2048 bit)
                Modulus:
                    00:d6:f4:72:8d:4a:62:53:a2:65:f9:76:a6:04:35:
                    54:b1:0b:bc:3f:20:80:05:e5:79:e9:bb:cf:4f:02:
                    b9:3f:95:7a:5f:6a:52:8c:94:ee:66:b8:c6:2d:f5:
                    d8:9c:fa:c7:33:26:96:82:8a:9e:b6:56:96:77:fd:
                    7c:93:e9:f7:d8:dd:39:9b:a8:c0:1d:2a:2e:02:7e:
                    06:d5:d7:0a:15:4d:36:14:a9:89:6a:7a:a7:82:55:
                    78:34:d4:6f:50:8c:10:e7:28:1c:9f:d3:4c:c4:f1:
                    40:e5:fe:58:27:66:60:ce:0b:4f:21:4d:58:ac:2d:
                    16:44:bf:66:4a:b4:2e:69:fb:bd:37:aa:ae:19:32:
                    04:d8:18:06:69:48:05:ad:1a:c3:0c:cb:3c:ab:9e:
                    97:8d:91:69:eb:a0:97:95:f3:2f:1c:f1:d9:24:5c:
                    f1:69:c5:25:6c:bc:d4:f4:fe:af:20:a7:81:55:ab:
                    80:7b:ab:47:a3:85:62:1c:50:41:80:61:bc:3c:13:
                    b0:5c:9f:ff:fc:6f:11:f8:a8:a8:e5:85:9d:3d:a6:
                    bd:d2:70:5f:2f:88:63:e2:37:67:23:be:91:a1:f4:
                    24:b8:d7:ec:e1:ae:06:26:0e:26:ec:9b:22:6c:9b:
                    28:0c:95:3c:09:85:be:a2:b7:70:ad:87:6f:60:53:
                    9a:f5
                Exponent: 65537 (0x10001)
        X509v3 extensions:
            X509v3 Basic Constraints: 
                CA:FALSE
            X509v3 Subject Key Identifier: 
                7D:1D:6D:2F:4E:67:45:1A:8D:0A:93:F5:18:FF:5D:2C:38:BA:D2:9A
            X509v3 Authority Key Identifier: 
                keyid:B4:AE:AB:ED:FC:ED:84:AA:AD:77:5D:7C:84:28:1C:CA:CE:AE:2A:44
                DirName:/C=US/ST=California/L=San Francisco/O=Copyleft Certificate Co/OU=My Organizational Unit/CN=ChangeMe/emailAddress=me@example.net
                serial:BD:6C:3B:F4:D3:07:C9:D1

            X509v3 Extended Key Usage: 
                TLS Web Client Authentication
            X509v3 Key Usage: 
                Digital Signature
    Signature Algorithm: sha256WithRSAEncryption
         c0:43:56:42:3f:7a:0f:07:45:ed:e9:cf:75:2e:41:d1:e3:29:
         d4:f9:56:64:e0:ef:12:3b:c8:d9:9e:49:a4:3c:6e:8e:fe:64:
         68:a9:66:4e:63:ed:8f:86:0c:fc:82:16:4b:84:8b:6b:9d:0c:
         a3:df:93:16:80:f1:b3:8e:5b:bc:3d:90:a7:f5:b2:b5:07:9b:
         36:a5:e0:71:9a:5d:28:c3:6c:b1:aa:e9:6f:4b:fa:cc:29:08:
         33:57:94:b0:4e:9f:05:f8:0b:62:45:8f:31:ef:34:98:67:26:
         d6:16:1e:bf:92:b8:58:b7:93:d2:73:d1:1e:d0:4f:6f:b5:b2:
         de:bd:fd:b6:0c:87:5f:cd:01:41:04:1b:c4:eb:80:31:9b:e7:
         ff:29:d2:47:ee:3e:83:64:73:e1:c3:f2:48:36:ef:21:aa:6a:
         28:6c:69:85:bb:be:a5:32:4e:0a:ea:71:ce:60:b4:23:bd:7c:
         30:f9:7c:4a:13:41:4d:9f:8c:88:b4:c1:64:ca:00:f3:ac:3a:
         bc:59:1a:dd:56:f5:1a:2f:97:68:fd:1f:df:46:29:96:d4:10:
         da:7c:b3:15:74:91:19:e8:53:5e:d9:85:c8:dc:e4:95:7b:29:
         8e:65:f9:d3:50:e5:1a:df:a2:bb:74:04:50:3e:b8:a6:ea:4a:
         ce:aa:7c:08
-----BEGIN CERTIFICATE-----
MIIFMDCCBBigAwIBAgIRAL3DC1IXB4ok0H3DiXF1KhYwDQYJKoZIhvcNAQELBQAw
ga8xCzAJBgNVBAYTAlVTMRMwEQYDVQQIDApDYWxpZm9ybmlhMRYwFAYDVQQHDA1T
YW4gRnJhbmNpc2NvMSAwHgYDVQQKDBdDb3B5bGVmdCBDZXJ0aWZpY2F0ZSBDbzEf
MB0GA1UECwwWTXkgT3JnYW5pemF0aW9uYWwgVW5pdDERMA8GA1UEAwwIQ2hhbmdl
TWUxHTAbBgkqhkiG9w0BCQEWDm1lQGV4YW1wbGUubmV0MB4XDTIzMTExMzExNDg1
OFoXDTI0MTExMjExNDg1OFowgbsxCzAJBgNVBAYTAlVTMQswCQYDVQQIDAJPSDET
MBEGA1UEBwwKQ2luY2lubmF0aTEhMB8GA1UECgwYVW5pdmVyc2l0eSBvZiBDaW5j
aW5uYXRpMSowKAYDVQQLDCFEZXB0LiBFbGVjLiBDb21wLiBFbmcuIENvbXAuIFNj
aS4xETAPBgNVBAMMCGNsaWVudDM4MSgwJgYJKoZIhvcNAQkBFhlmcmFuY29AZ2F1
c3MuZWNlY3MudWMuZWR1MIIBIjANBgkqhkiG9w0BAQEFAAOCAQ8AMIIBCgKCAQEA
1vRyjUpiU6Jl+XamBDVUsQu8PyCABeV56bvPTwK5P5V6X2pSjJTuZrjGLfXYnPrH
MyaWgoqetlaWd/18k+n32N05m6jAHSouAn4G1dcKFU02FKmJanqnglV4NNRvUIwQ
5ygcn9NMxPFA5f5YJ2ZgzgtPIU1YrC0WRL9mSrQuafu9N6quGTIE2BgGaUgFrRrD
DMs8q56XjZFp66CXlfMvHPHZJFzxacUlbLzU9P6vIKeBVauAe6tHo4ViHFBBgGG8
PBOwXJ///G8R+Kio5YWdPaa90nBfL4hj4jdnI76RofQkuNfs4a4GJg4m7JsibJso
DJU8CYW+ordwrYdvYFOa9QIDAQABo4IBNzCCATMwCQYDVR0TBAIwADAdBgNVHQ4E
FgQUfR1tL05nRRqNCpP1GP9dLDi60powgeQGA1UdIwSB3DCB2YAUtK6r7fzthKqt
d118hCgcys6uKkShgbWkgbIwga8xCzAJBgNVBAYTAlVTMRMwEQYDVQQIDApDYWxp
Zm9ybmlhMRYwFAYDVQQHDA1TYW4gRnJhbmNpc2NvMSAwHgYDVQQKDBdDb3B5bGVm
dCBDZXJ0aWZpY2F0ZSBDbzEfMB0GA1UECwwWTXkgT3JnYW5pemF0aW9uYWwgVW5p
dDERMA8GA1UEAwwIQ2hhbmdlTWUxHTAbBgkqhkiG9w0BCQEWDm1lQGV4YW1wbGUu
bmV0ggkAvWw79NMHydEwEwYDVR0lBAwwCgYIKwYBBQUHAwIwCwYDVR0PBAQDAgeA
MA0GCSqGSIb3DQEBCwUAA4IBAQDAQ1ZCP3oPB0Xt6c91LkHR4ynU+VZk4O8SO8jZ
nkmkPG6O/mRoqWZOY+2Phgz8ghZLhItrnQyj35MWgPGzjlu8PZCn9bK1B5s2peBx
ml0ow2yxqulvS/rMKQgzV5SwTp8F+AtiRY8x7zSYZybWFh6/krhYt5PSc9Ee0E9v
tbLevf22DIdfzQFBBBvE64Axm+f/KdJH7j6DZHPhw/JINu8hqmoobGmFu76lMk4K
6nHOYLQjvXww+XxKE0FNn4yItMFkygDzrDq8WRrdVvUaL5do/R/fRimW1BDafLMV
dJEZ6FNe2YXI3OSVeymOZfnTUOUa36K7dARQPrim6krOqnwI
-----END CERTIFICATE-----
