Certificate:
    Data:
        Version: 3 (0x2)
        Serial Number:
            c0:c4:63:bf:e4:c1:e8:cd:2c:96:95:be:46:ee:15:cf
    Signature Algorithm: sha256WithRSAEncryption
        Issuer: C=US, ST=California, L=San Francisco, O=Copyleft Certificate Co, OU=My Organizational Unit, CN=ChangeMe/emailAddress=me@example.net
        Validity
            Not Before: Jan 23 18:28:27 2021 GMT
            Not After : Jan 23 18:28:27 2022 GMT
        Subject: C=US, ST=OH, L=Cincinnati, O=University of Cincinnati, OU=Dept. Electrical Eng. and Computer Sci., CN=client50/emailAddress=franco@gauss.ececs.uc.edu
        Subject Public Key Info:
            Public Key Algorithm: rsaEncryption
                Public-Key: (2048 bit)
                Modulus:
                    00:ad:52:cb:e6:a2:e0:07:31:48:7d:f3:bf:82:8f:
                    ae:36:cd:09:ae:51:c3:d8:ff:f7:9f:2c:7c:80:cd:
                    6d:92:e5:de:3a:d5:d5:6b:02:61:38:af:47:fa:a6:
                    56:3d:5d:f4:44:9d:9c:0f:97:5c:13:2d:8d:34:9f:
                    e9:e8:9d:55:b5:aa:31:03:c9:a9:8e:48:f0:7c:c7:
                    5c:39:48:b9:57:9b:a6:f7:6b:c1:9d:83:64:36:0b:
                    20:27:6a:1b:92:5a:96:6c:8c:65:b5:d3:44:0b:4a:
                    ed:e4:75:fe:af:8d:89:54:34:27:7f:07:8c:a0:ac:
                    d4:7c:56:2c:a7:3b:57:0b:0e:5e:3c:c4:68:bf:5f:
                    2e:13:74:66:c1:74:76:06:54:22:64:01:28:d6:82:
                    bc:41:83:36:9c:c2:75:1b:b7:5e:98:11:53:23:7f:
                    75:6d:97:2f:49:c0:f4:61:8e:d5:1a:f0:e7:54:95:
                    f0:ac:5f:e6:2c:91:2d:ab:4c:dd:1c:56:85:8c:98:
                    9e:e6:d0:89:e5:46:c7:df:51:3c:19:67:23:2d:07:
                    d8:28:e6:45:ee:1e:52:4e:f6:7f:fc:38:de:2f:34:
                    1b:06:c9:7d:f0:35:9e:d4:71:0c:30:f5:70:5f:d3:
                    c6:ea:68:32:ca:1d:ea:5b:ed:89:12:8e:23:b6:5c:
                    be:f7
                Exponent: 65537 (0x10001)
        X509v3 extensions:
            X509v3 Basic Constraints: 
                CA:FALSE
            X509v3 Subject Key Identifier: 
                82:D1:3E:44:A0:BF:B9:5B:58:66:9F:DC:3F:5E:F0:6B:65:43:4F:0C
            X509v3 Authority Key Identifier: 
                keyid:EF:DC:B6:3D:4B:FD:A7:87:05:C5:22:3D:8B:DC:BF:99:2A:EE:E4:DB
                DirName:/C=US/ST=California/L=San Francisco/O=Copyleft Certificate Co/OU=My Organizational Unit/CN=ChangeMe/emailAddress=me@example.net
                serial:87:1E:1D:DC:6B:8C:66:88

            X509v3 Extended Key Usage: 
                TLS Web Client Authentication
            X509v3 Key Usage: 
                Digital Signature
    Signature Algorithm: sha256WithRSAEncryption
         76:ff:41:a8:2f:58:91:e7:82:d9:42:f9:e2:5c:cd:b0:4a:31:
         8c:b1:d3:33:80:48:21:4b:33:20:a7:ce:51:f3:7d:b8:b1:cb:
         74:fa:00:5c:e7:05:fd:68:6c:3d:4b:e5:3f:4b:ff:e1:05:d1:
         be:5e:ec:4d:ac:ad:eb:97:66:b7:69:5c:20:da:51:5c:8b:7f:
         46:98:63:a6:9e:88:52:90:df:21:88:7d:40:64:69:3e:7f:cd:
         25:06:74:38:d5:b6:1e:bf:df:23:c6:95:0e:d0:24:ab:a5:63:
         fa:4c:85:99:1b:99:d3:d1:f3:3e:11:3e:99:2d:cf:49:e1:7e:
         3b:40:a9:20:79:4f:62:7f:41:cd:df:7c:42:cc:74:c5:19:12:
         10:aa:c6:07:79:91:ac:06:b5:14:29:0f:2a:85:ab:66:d8:ed:
         f8:9e:2e:54:fb:ce:0a:40:85:2b:6d:8e:1b:79:61:f9:24:e1:
         99:f2:85:25:61:1c:33:36:7a:e9:2a:fa:e9:80:4c:60:a5:34:
         cf:05:2f:b1:9a:9f:9b:da:94:e6:7d:59:7c:fb:42:86:d3:d3:
         40:9a:55:41:0f:32:f4:4c:a9:ef:cc:61:2d:2c:58:c6:bf:b7:
         22:58:7f:94:7b:25:0e:1b:21:1c:c1:31:7b:2e:c2:62:85:12:
         42:d4:2e:4a
-----BEGIN CERTIFICATE-----
MIIFNjCCBB6gAwIBAgIRAMDEY7/kwejNLJaVvkbuFc8wDQYJKoZIhvcNAQELBQAw
ga8xCzAJBgNVBAYTAlVTMRMwEQYDVQQIDApDYWxpZm9ybmlhMRYwFAYDVQQHDA1T
YW4gRnJhbmNpc2NvMSAwHgYDVQQKDBdDb3B5bGVmdCBDZXJ0aWZpY2F0ZSBDbzEf
MB0GA1UECwwWTXkgT3JnYW5pemF0aW9uYWwgVW5pdDERMA8GA1UEAwwIQ2hhbmdl
TWUxHTAbBgkqhkiG9w0BCQEWDm1lQGV4YW1wbGUubmV0MB4XDTIxMDEyMzE4Mjgy
N1oXDTIyMDEyMzE4MjgyN1owgcExCzAJBgNVBAYTAlVTMQswCQYDVQQIDAJPSDET
MBEGA1UEBwwKQ2luY2lubmF0aTEhMB8GA1UECgwYVW5pdmVyc2l0eSBvZiBDaW5j
aW5uYXRpMTAwLgYDVQQLDCdEZXB0LiBFbGVjdHJpY2FsIEVuZy4gYW5kIENvbXB1
dGVyIFNjaS4xETAPBgNVBAMMCGNsaWVudDUwMSgwJgYJKoZIhvcNAQkBFhlmcmFu
Y29AZ2F1c3MuZWNlY3MudWMuZWR1MIIBIjANBgkqhkiG9w0BAQEFAAOCAQ8AMIIB
CgKCAQEArVLL5qLgBzFIffO/go+uNs0JrlHD2P/3nyx8gM1tkuXeOtXVawJhOK9H
+qZWPV30RJ2cD5dcEy2NNJ/p6J1VtaoxA8mpjkjwfMdcOUi5V5um92vBnYNkNgsg
J2obklqWbIxltdNEC0rt5HX+r42JVDQnfweMoKzUfFYspztXCw5ePMRov18uE3Rm
wXR2BlQiZAEo1oK8QYM2nMJ1G7demBFTI391bZcvScD0YY7VGvDnVJXwrF/mLJEt
q0zdHFaFjJie5tCJ5UbH31E8GWcjLQfYKOZF7h5STvZ//DjeLzQbBsl98DWe1HEM
MPVwX9PG6mgyyh3qW+2JEo4jtly+9wIDAQABo4IBNzCCATMwCQYDVR0TBAIwADAd
BgNVHQ4EFgQUgtE+RKC/uVtYZp/cP17wa2VDTwwwgeQGA1UdIwSB3DCB2YAU79y2
PUv9p4cFxSI9i9y/mSru5NuhgbWkgbIwga8xCzAJBgNVBAYTAlVTMRMwEQYDVQQI
DApDYWxpZm9ybmlhMRYwFAYDVQQHDA1TYW4gRnJhbmNpc2NvMSAwHgYDVQQKDBdD
b3B5bGVmdCBDZXJ0aWZpY2F0ZSBDbzEfMB0GA1UECwwWTXkgT3JnYW5pemF0aW9u
YWwgVW5pdDERMA8GA1UEAwwIQ2hhbmdlTWUxHTAbBgkqhkiG9w0BCQEWDm1lQGV4
YW1wbGUubmV0ggkAhx4d3GuMZogwEwYDVR0lBAwwCgYIKwYBBQUHAwIwCwYDVR0P
BAQDAgeAMA0GCSqGSIb3DQEBCwUAA4IBAQB2/0GoL1iR54LZQvniXM2wSjGMsdMz
gEghSzMgp85R8324sct0+gBc5wX9aGw9S+U/S//hBdG+XuxNrK3rl2a3aVwg2lFc
i39GmGOmnohSkN8hiH1AZGk+f80lBnQ41bYev98jxpUO0CSrpWP6TIWZG5nT0fM+
ET6ZLc9J4X47QKkgeU9if0HN33xCzHTFGRIQqsYHeZGsBrUUKQ8qhatm2O34ni5U
+84KQIUrbY4beWH5JOGZ8oUlYRwzNnrpKvrpgExgpTTPBS+xmp+b2pTmfVl8+0KG
09NAmlVBDzL0TKnvzGEtLFjGv7ciWH+UeyUOGyEcwTF7LsJihRJC1C5K
-----END CERTIFICATE-----
