Certificate:
    Data:
        Version: 3 (0x2)
        Serial Number:
            c2:d4:f1:c4:f1:cb:c2:b2:8f:d1:58:98:0d:45:1a:50
    Signature Algorithm: sha256WithRSAEncryption
        Issuer: C=US, ST=California, L=San Francisco, O=Copyleft Certificate Co, OU=My Organizational Unit, CN=ChangeMe/emailAddress=me@example.net
        Validity
            Not Before: Jan 23 18:28:58 2021 GMT
            Not After : Jan 23 18:28:58 2022 GMT
        Subject: C=US, ST=OH, L=Cincinnati, O=University of Cincinnati, OU=Dept. Electrical Eng. and Computer Sci., CN=client73/emailAddress=franco@gauss.ececs.uc.edu
        Subject Public Key Info:
            Public Key Algorithm: rsaEncryption
                Public-Key: (2048 bit)
                Modulus:
                    00:9a:89:e0:18:fe:11:39:58:84:25:44:8e:f8:28:
                    d0:a7:a1:79:d6:3b:02:3b:79:8a:e8:a9:ee:0f:63:
                    fb:8c:f6:d1:a0:eb:5d:54:a6:f7:a7:2e:ff:30:ec:
                    42:ce:18:2b:18:e4:6a:e9:8b:be:1f:d0:9f:77:7c:
                    e4:37:8f:0e:41:b2:29:e8:91:ef:08:5f:d6:c0:a0:
                    eb:40:b3:74:88:a2:68:e2:d9:45:72:b7:cb:55:08:
                    23:f7:6e:99:af:ab:fb:a9:56:37:92:a5:25:2a:b8:
                    86:09:90:3a:33:d9:cf:88:ed:98:f7:87:be:38:76:
                    43:a8:4c:e2:b8:04:5b:bd:82:97:c6:b2:2f:8b:b2:
                    5b:d7:2d:c2:21:6a:0c:59:0d:12:69:47:9d:80:9c:
                    48:56:0c:23:f5:f4:b6:cb:2c:88:09:d2:15:c6:51:
                    f5:10:3f:41:7a:dc:ed:36:94:96:d6:98:f1:c6:d2:
                    ef:c8:4d:88:4f:a2:4d:8e:52:3e:de:64:69:ca:8b:
                    46:04:d3:51:c9:65:cc:c9:bb:f1:1c:5f:e1:06:85:
                    4a:f6:ff:15:9d:be:28:9d:39:a4:dd:c2:ae:4e:a9:
                    a7:75:a5:0b:fd:38:d1:05:ac:0d:5b:1f:28:f4:09:
                    08:89:a9:b7:32:d2:b6:1d:fb:0a:e3:ff:a5:af:b1:
                    88:0f
                Exponent: 65537 (0x10001)
        X509v3 extensions:
            X509v3 Basic Constraints: 
                CA:FALSE
            X509v3 Subject Key Identifier: 
                A1:1F:7D:CC:82:B2:AC:C7:89:C9:AA:1F:C5:6F:69:2A:1F:5B:2B:FB
            X509v3 Authority Key Identifier: 
                keyid:EF:DC:B6:3D:4B:FD:A7:87:05:C5:22:3D:8B:DC:BF:99:2A:EE:E4:DB
                DirName:/C=US/ST=California/L=San Francisco/O=Copyleft Certificate Co/OU=My Organizational Unit/CN=ChangeMe/emailAddress=me@example.net
                serial:87:1E:1D:DC:6B:8C:66:88

            X509v3 Extended Key Usage: 
                TLS Web Client Authentication
            X509v3 Key Usage: 
                Digital Signature
    Signature Algorithm: sha256WithRSAEncryption
         03:ea:3b:52:89:43:85:b5:63:ed:0f:e3:77:86:81:6c:9e:f8:
         26:2b:57:88:98:e9:6e:af:56:83:4d:96:34:68:a0:91:c0:09:
         f5:75:ec:6c:68:1d:c3:fc:95:62:25:2c:dc:8f:94:ff:4e:9d:
         35:10:df:02:8a:a5:11:9c:9f:e2:9c:20:e9:16:37:d0:8a:48:
         df:ee:1d:4b:49:47:e5:6d:59:ad:17:d1:45:ef:fa:93:8e:ce:
         92:06:cd:bc:39:14:6f:41:82:80:38:ce:fa:72:16:6c:1c:e1:
         b6:f8:77:29:99:14:7f:38:50:78:4c:36:68:aa:b9:44:a3:d5:
         88:09:e6:72:9c:3b:2e:92:6d:62:75:60:5b:10:96:98:24:e6:
         96:85:48:87:c4:bd:8c:91:e2:f6:e8:32:70:fb:64:e7:04:c0:
         9f:a2:8a:84:2d:b6:0b:0d:8a:c8:db:d4:47:75:7f:f9:2a:ab:
         e4:cc:be:6c:08:9b:84:1b:5b:02:e0:17:ff:d5:c2:3b:ca:ec:
         c5:da:09:71:17:d3:8c:f7:3e:7b:df:91:cb:d7:b0:e2:79:de:
         f6:4b:24:b6:4a:4e:1b:b7:d1:0e:f7:c6:31:7a:f9:7f:a6:7f:
         57:87:f6:f3:53:af:02:e2:4a:f7:be:ba:00:a9:70:6e:5a:f2:
         c7:fe:14:e5
-----BEGIN CERTIFICATE-----
MIIFNjCCBB6gAwIBAgIRAMLU8cTxy8Kyj9FYmA1FGlAwDQYJKoZIhvcNAQELBQAw
ga8xCzAJBgNVBAYTAlVTMRMwEQYDVQQIDApDYWxpZm9ybmlhMRYwFAYDVQQHDA1T
YW4gRnJhbmNpc2NvMSAwHgYDVQQKDBdDb3B5bGVmdCBDZXJ0aWZpY2F0ZSBDbzEf
MB0GA1UECwwWTXkgT3JnYW5pemF0aW9uYWwgVW5pdDERMA8GA1UEAwwIQ2hhbmdl
TWUxHTAbBgkqhkiG9w0BCQEWDm1lQGV4YW1wbGUubmV0MB4XDTIxMDEyMzE4Mjg1
OFoXDTIyMDEyMzE4Mjg1OFowgcExCzAJBgNVBAYTAlVTMQswCQYDVQQIDAJPSDET
MBEGA1UEBwwKQ2luY2lubmF0aTEhMB8GA1UECgwYVW5pdmVyc2l0eSBvZiBDaW5j
aW5uYXRpMTAwLgYDVQQLDCdEZXB0LiBFbGVjdHJpY2FsIEVuZy4gYW5kIENvbXB1
dGVyIFNjaS4xETAPBgNVBAMMCGNsaWVudDczMSgwJgYJKoZIhvcNAQkBFhlmcmFu
Y29AZ2F1c3MuZWNlY3MudWMuZWR1MIIBIjANBgkqhkiG9w0BAQEFAAOCAQ8AMIIB
CgKCAQEAmongGP4ROViEJUSO+CjQp6F51jsCO3mK6KnuD2P7jPbRoOtdVKb3py7/
MOxCzhgrGORq6Yu+H9Cfd3zkN48OQbIp6JHvCF/WwKDrQLN0iKJo4tlFcrfLVQgj
926Zr6v7qVY3kqUlKriGCZA6M9nPiO2Y94e+OHZDqEziuARbvYKXxrIvi7Jb1y3C
IWoMWQ0SaUedgJxIVgwj9fS2yyyICdIVxlH1ED9BetztNpSW1pjxxtLvyE2IT6JN
jlI+3mRpyotGBNNRyWXMybvxHF/hBoVK9v8Vnb4onTmk3cKuTqmndaUL/TjRBawN
Wx8o9AkIiam3MtK2HfsK4/+lr7GIDwIDAQABo4IBNzCCATMwCQYDVR0TBAIwADAd
BgNVHQ4EFgQUoR99zIKyrMeJyaofxW9pKh9bK/swgeQGA1UdIwSB3DCB2YAU79y2
PUv9p4cFxSI9i9y/mSru5NuhgbWkgbIwga8xCzAJBgNVBAYTAlVTMRMwEQYDVQQI
DApDYWxpZm9ybmlhMRYwFAYDVQQHDA1TYW4gRnJhbmNpc2NvMSAwHgYDVQQKDBdD
b3B5bGVmdCBDZXJ0aWZpY2F0ZSBDbzEfMB0GA1UECwwWTXkgT3JnYW5pemF0aW9u
YWwgVW5pdDERMA8GA1UEAwwIQ2hhbmdlTWUxHTAbBgkqhkiG9w0BCQEWDm1lQGV4
YW1wbGUubmV0ggkAhx4d3GuMZogwEwYDVR0lBAwwCgYIKwYBBQUHAwIwCwYDVR0P
BAQDAgeAMA0GCSqGSIb3DQEBCwUAA4IBAQAD6jtSiUOFtWPtD+N3hoFsnvgmK1eI
mOlur1aDTZY0aKCRwAn1dexsaB3D/JViJSzcj5T/Tp01EN8CiqURnJ/inCDpFjfQ
ikjf7h1LSUflbVmtF9FF7/qTjs6SBs28ORRvQYKAOM76chZsHOG2+HcpmRR/OFB4
TDZoqrlEo9WICeZynDsukm1idWBbEJaYJOaWhUiHxL2MkeL26DJw+2TnBMCfooqE
LbYLDYrI29RHdX/5KqvkzL5sCJuEG1sC4Bf/1cI7yuzF2glxF9OM9z5735HL17Di
ed72SyS2Sk4bt9EO98Yxevl/pn9Xh/bzU68C4kr3vroAqXBuWvLH/hTl
-----END CERTIFICATE-----
