Certificate:
    Data:
        Version: 3 (0x2)
        Serial Number:
            c5:2e:45:98:5f:4a:c7:5f:74:1d:88:a5:b8:54:36:2a
    Signature Algorithm: sha256WithRSAEncryption
        Issuer: C=US, ST=California, L=San Francisco, O=Copyleft Certificate Co, OU=My Organizational Unit, CN=ChangeMe/emailAddress=me@example.net
        Validity
            Not Before: Nov 11 18:52:20 2023 GMT
            Not After : Nov 10 18:52:20 2024 GMT
        Subject: C=US, ST=OH, L=Cincinnati, O=University of Cincinnati ., OU=Dept. Elec. Comp. . Eng. Comp. Sci., CN=client36/emailAddress=franco@gauss.ececs.uc.edu
        Subject Public Key Info:
            Public Key Algorithm: rsaEncryption
                Public-Key: (2048 bit)
                Modulus:
                    00:a3:53:5c:bf:65:52:2d:81:bf:cf:dc:05:91:2e:
                    32:93:c4:97:aa:73:14:66:1c:53:1c:45:5d:2a:cf:
                    ca:a3:4e:47:34:ff:7c:c8:de:dc:9c:70:89:91:f2:
                    65:34:89:40:a5:57:79:a5:44:ae:73:36:ad:eb:c7:
                    30:0e:8d:e4:40:35:18:d8:8a:d2:47:08:8b:9f:85:
                    ac:a5:bd:54:ea:55:12:e0:fd:a4:28:de:21:7e:3c:
                    be:13:c6:e9:19:8c:26:27:5b:f9:2d:98:c1:d8:8f:
                    44:96:c8:ec:98:36:0b:27:23:20:d5:2d:88:86:12:
                    90:bc:01:20:75:1f:c5:bd:ac:cb:47:5c:57:65:e5:
                    6f:42:f6:08:81:30:d8:10:bf:98:dc:48:56:b4:4e:
                    20:2d:70:9b:23:2c:42:9e:dc:1b:0d:62:a0:ae:e1:
                    f2:72:de:ee:af:74:b3:50:f4:6c:32:3c:85:f6:b6:
                    03:df:a0:cb:bb:e8:1e:fa:4d:ce:99:08:42:0a:ef:
                    e0:c1:86:08:ed:57:52:af:54:1c:15:c9:1e:db:cb:
                    f7:8f:a1:dd:19:14:e3:aa:6d:e1:53:60:e5:55:b9:
                    47:a1:fc:8c:e0:bb:f2:04:af:d8:de:39:ea:a4:7f:
                    aa:d4:e8:1e:08:6d:fe:af:79:af:ad:c0:d3:5b:bf:
                    77:c9
                Exponent: 65537 (0x10001)
        X509v3 extensions:
            X509v3 Basic Constraints: 
                CA:FALSE
            X509v3 Subject Key Identifier: 
                53:BA:2E:28:1F:03:C4:A0:47:05:F2:77:09:38:3E:31:E3:10:6A:67
            X509v3 Authority Key Identifier: 
                keyid:9C:0E:D5:A3:16:6F:C8:23:88:D1:12:C9:63:5D:18:D9:C9:FC:5B:E9
                DirName:/C=US/ST=California/L=San Francisco/O=Copyleft Certificate Co/OU=My Organizational Unit/CN=ChangeMe/emailAddress=me@example.net
                serial:A3:08:26:80:D2:47:98:75

            X509v3 Extended Key Usage: 
                TLS Web Client Authentication
            X509v3 Key Usage: 
                Digital Signature
    Signature Algorithm: sha256WithRSAEncryption
         3d:b1:36:84:8b:bf:8c:58:43:ca:bb:c3:fe:2e:28:44:00:e9:
         7c:6d:85:cd:d5:e1:3b:4c:3b:17:e3:f2:ef:0e:b3:12:58:c5:
         e9:7f:c9:6f:69:f4:04:2a:eb:c5:d6:60:5d:f4:a3:1e:ac:60:
         91:ea:79:79:05:d6:f7:b8:73:53:ed:6f:47:79:ae:70:3b:e7:
         76:c1:a6:e6:d0:7f:ea:cf:11:de:94:be:6d:be:7c:76:98:be:
         03:90:f4:f0:ff:34:92:02:70:6d:1c:b0:64:57:c0:8e:7b:8a:
         41:b7:53:95:73:fe:e0:97:c5:c9:f0:96:c6:a5:33:9e:05:65:
         8a:55:81:70:21:3a:0f:d2:e1:59:05:ae:6a:b5:af:4e:c2:59:
         0d:3e:1d:88:7a:d7:e9:81:59:59:96:6f:56:71:80:d0:04:cd:
         9f:52:0b:50:6b:38:ac:4d:13:dc:82:85:36:c0:0c:ee:d2:cd:
         b6:fd:07:33:1a:f1:dc:dd:83:74:67:11:01:22:73:f9:a2:20:
         bc:eb:d5:2c:5f:27:57:dc:4b:c2:c6:13:34:14:ef:69:e6:03:
         52:53:9f:0a:85:64:92:9d:14:65:fb:7c:5a:ee:f1:f2:a5:b9:
         75:97:7d:2c:d7:a2:31:f5:cd:f4:12:ea:7b:7b:0b:44:bb:35:
         6f:6d:7a:15
-----BEGIN CERTIFICATE-----
MIIFNDCCBBygAwIBAgIRAMUuRZhfSsdfdB2IpbhUNiowDQYJKoZIhvcNAQELBQAw
ga8xCzAJBgNVBAYTAlVTMRMwEQYDVQQIDApDYWxpZm9ybmlhMRYwFAYDVQQHDA1T
YW4gRnJhbmNpc2NvMSAwHgYDVQQKDBdDb3B5bGVmdCBDZXJ0aWZpY2F0ZSBDbzEf
MB0GA1UECwwWTXkgT3JnYW5pemF0aW9uYWwgVW5pdDERMA8GA1UEAwwIQ2hhbmdl
TWUxHTAbBgkqhkiG9w0BCQEWDm1lQGV4YW1wbGUubmV0MB4XDTIzMTExMTE4NTIy
MFoXDTI0MTExMDE4NTIyMFowgb8xCzAJBgNVBAYTAlVTMQswCQYDVQQIDAJPSDET
MBEGA1UEBwwKQ2luY2lubmF0aTEjMCEGA1UECgwaVW5pdmVyc2l0eSBvZiBDaW5j
aW5uYXRpIC4xLDAqBgNVBAsMI0RlcHQuIEVsZWMuIENvbXAuIC4gRW5nLiBDb21w
LiBTY2kuMREwDwYDVQQDDAhjbGllbnQzNjEoMCYGCSqGSIb3DQEJARYZZnJhbmNv
QGdhdXNzLmVjZWNzLnVjLmVkdTCCASIwDQYJKoZIhvcNAQEBBQADggEPADCCAQoC
ggEBAKNTXL9lUi2Bv8/cBZEuMpPEl6pzFGYcUxxFXSrPyqNORzT/fMje3JxwiZHy
ZTSJQKVXeaVErnM2revHMA6N5EA1GNiK0kcIi5+FrKW9VOpVEuD9pCjeIX48vhPG
6RmMJidb+S2YwdiPRJbI7Jg2CycjINUtiIYSkLwBIHUfxb2sy0dcV2Xlb0L2CIEw
2BC/mNxIVrROIC1wmyMsQp7cGw1ioK7h8nLe7q90s1D0bDI8hfa2A9+gy7voHvpN
zpkIQgrv4MGGCO1XUq9UHBXJHtvL94+h3RkU46pt4VNg5VW5R6H8jOC78gSv2N45
6qR/qtToHght/q95r63A01u/d8kCAwEAAaOCATcwggEzMAkGA1UdEwQCMAAwHQYD
VR0OBBYEFFO6LigfA8SgRwXydwk4PjHjEGpnMIHkBgNVHSMEgdwwgdmAFJwO1aMW
b8gjiNESyWNdGNnJ/FvpoYG1pIGyMIGvMQswCQYDVQQGEwJVUzETMBEGA1UECAwK
Q2FsaWZvcm5pYTEWMBQGA1UEBwwNU2FuIEZyYW5jaXNjbzEgMB4GA1UECgwXQ29w
eWxlZnQgQ2VydGlmaWNhdGUgQ28xHzAdBgNVBAsMFk15IE9yZ2FuaXphdGlvbmFs
IFVuaXQxETAPBgNVBAMMCENoYW5nZU1lMR0wGwYJKoZIhvcNAQkBFg5tZUBleGFt
cGxlLm5ldIIJAKMIJoDSR5h1MBMGA1UdJQQMMAoGCCsGAQUFBwMCMAsGA1UdDwQE
AwIHgDANBgkqhkiG9w0BAQsFAAOCAQEAPbE2hIu/jFhDyrvD/i4oRADpfG2FzdXh
O0w7F+Py7w6zEljF6X/Jb2n0BCrrxdZgXfSjHqxgkep5eQXW97hzU+1vR3mucDvn
dsGm5tB/6s8R3pS+bb58dpi+A5D08P80kgJwbRywZFfAjnuKQbdTlXP+4JfFyfCW
xqUzngVlilWBcCE6D9LhWQWuarWvTsJZDT4diHrX6YFZWZZvVnGA0ATNn1ILUGs4
rE0T3IKFNsAM7tLNtv0HMxrx3N2DdGcRASJz+aIgvOvVLF8nV9xLwsYTNBTvaeYD
UlOfCoVkkp0UZft8Wu7x8qW5dZd9LNeiMfXN9BLqe3sLRLs1b216FQ==
-----END CERTIFICATE-----
