Certificate:
    Data:
        Version: 3 (0x2)
        Serial Number:
            c5:56:e9:b8:76:29:aa:98:74:5c:88:de:c3:fe:a7:eb
    Signature Algorithm: sha256WithRSAEncryption
        Issuer: C=US, ST=California, L=San Francisco, O=Copyleft Certificate Co, OU=My Organizational Unit, CN=ChangeMe/emailAddress=me@example.net
        Validity
            Not Before: Jan 23 18:28:44 2021 GMT
            Not After : Jan 23 18:28:44 2022 GMT
        Subject: C=US, ST=OH, L=Cincinnati, O=University of Cincinnati, OU=Dept. Electrical Eng. and Computer Sci., CN=client63/emailAddress=franco@gauss.ececs.uc.edu
        Subject Public Key Info:
            Public Key Algorithm: rsaEncryption
                Public-Key: (2048 bit)
                Modulus:
                    00:d4:aa:65:28:fb:24:c3:bd:5d:d8:a3:f7:9b:cf:
                    1b:6d:ff:47:a4:db:35:4b:b4:9d:72:78:f1:a8:24:
                    00:73:1b:88:25:0b:14:a5:29:ad:94:f0:68:55:e3:
                    e5:e9:fd:cd:82:b9:b2:e4:59:57:d7:e4:68:a5:42:
                    9d:ab:50:fa:fa:5c:ef:dd:de:3f:95:f7:ae:fc:5d:
                    8d:2f:9f:0e:93:58:ab:31:ae:27:d9:90:bb:ca:ad:
                    44:ed:c1:d6:45:25:ca:ac:f8:3d:55:be:8d:e8:c1:
                    22:bb:f3:13:54:46:15:f2:0a:e5:6a:d9:2a:bc:78:
                    f0:48:e8:ac:a7:f6:4f:e2:7a:08:f9:55:97:13:ee:
                    d2:84:96:98:e8:7b:b0:a0:df:af:12:4b:a7:37:ab:
                    cc:11:e2:f8:b6:76:0f:19:31:7d:51:58:82:c2:79:
                    e5:b0:5f:d5:e4:6b:66:b5:05:d4:07:45:da:3c:f9:
                    b4:1c:72:42:4c:e9:e0:99:a3:b6:5a:fc:9b:fc:ba:
                    f3:b5:7c:ef:fd:13:07:90:16:3e:83:11:48:65:40:
                    b4:a8:a8:ed:33:48:f0:24:86:bd:fc:bc:e0:96:bc:
                    a3:60:de:1b:60:af:bf:76:89:e4:db:00:10:47:ee:
                    51:c1:16:15:2c:38:fa:da:d1:a2:70:28:65:6a:f2:
                    02:ed
                Exponent: 65537 (0x10001)
        X509v3 extensions:
            X509v3 Basic Constraints: 
                CA:FALSE
            X509v3 Subject Key Identifier: 
                F8:B1:01:18:CE:8B:BE:24:62:5A:FB:F2:E8:7A:37:C1:C4:3B:2F:6D
            X509v3 Authority Key Identifier: 
                keyid:EF:DC:B6:3D:4B:FD:A7:87:05:C5:22:3D:8B:DC:BF:99:2A:EE:E4:DB
                DirName:/C=US/ST=California/L=San Francisco/O=Copyleft Certificate Co/OU=My Organizational Unit/CN=ChangeMe/emailAddress=me@example.net
                serial:87:1E:1D:DC:6B:8C:66:88

            X509v3 Extended Key Usage: 
                TLS Web Client Authentication
            X509v3 Key Usage: 
                Digital Signature
    Signature Algorithm: sha256WithRSAEncryption
         58:36:ce:32:0b:ee:ef:da:cc:e3:78:69:85:80:dc:9c:19:0a:
         d1:30:20:38:ad:f4:b9:f2:02:6b:c8:a1:f3:d7:b9:f9:ab:05:
         05:c9:4c:fc:95:1f:36:6d:68:d4:95:f6:17:ba:2b:dd:51:cd:
         be:0b:91:16:23:0a:7e:30:32:7d:68:4c:2a:5e:ad:fe:af:9c:
         31:21:58:1c:f7:50:9b:77:cb:98:28:1a:0b:c3:bb:98:6a:53:
         a9:29:9c:7a:5f:4f:9e:ae:8d:6d:56:63:b3:c1:5a:2a:9d:b1:
         15:0f:5a:ba:45:f6:ee:8a:2c:b5:7d:61:58:f3:86:7a:39:cf:
         e7:e6:14:8a:92:32:79:a1:d9:9d:f1:a7:0b:e8:e1:9c:a6:85:
         31:5d:98:a9:94:aa:0f:52:97:64:74:cd:a9:f6:55:27:35:c4:
         0a:42:6a:07:01:ff:8c:bb:0c:74:51:d8:cf:ae:1d:44:8d:c8:
         17:1a:0a:70:52:b8:0c:c3:f2:28:bd:09:b9:ac:07:c1:95:46:
         99:b9:71:43:76:98:71:c3:1b:77:b9:58:2e:ea:1f:d7:77:32:
         71:20:a6:fa:40:fe:a3:95:b9:5a:4d:cf:ff:83:02:41:f9:bb:
         e2:2d:61:99:86:16:47:f4:77:82:ab:75:ce:97:f6:eb:5c:a6:
         db:cf:6d:1a
-----BEGIN CERTIFICATE-----
MIIFNjCCBB6gAwIBAgIRAMVW6bh2KaqYdFyI3sP+p+swDQYJKoZIhvcNAQELBQAw
ga8xCzAJBgNVBAYTAlVTMRMwEQYDVQQIDApDYWxpZm9ybmlhMRYwFAYDVQQHDA1T
YW4gRnJhbmNpc2NvMSAwHgYDVQQKDBdDb3B5bGVmdCBDZXJ0aWZpY2F0ZSBDbzEf
MB0GA1UECwwWTXkgT3JnYW5pemF0aW9uYWwgVW5pdDERMA8GA1UEAwwIQ2hhbmdl
TWUxHTAbBgkqhkiG9w0BCQEWDm1lQGV4YW1wbGUubmV0MB4XDTIxMDEyMzE4Mjg0
NFoXDTIyMDEyMzE4Mjg0NFowgcExCzAJBgNVBAYTAlVTMQswCQYDVQQIDAJPSDET
MBEGA1UEBwwKQ2luY2lubmF0aTEhMB8GA1UECgwYVW5pdmVyc2l0eSBvZiBDaW5j
aW5uYXRpMTAwLgYDVQQLDCdEZXB0LiBFbGVjdHJpY2FsIEVuZy4gYW5kIENvbXB1
dGVyIFNjaS4xETAPBgNVBAMMCGNsaWVudDYzMSgwJgYJKoZIhvcNAQkBFhlmcmFu
Y29AZ2F1c3MuZWNlY3MudWMuZWR1MIIBIjANBgkqhkiG9w0BAQEFAAOCAQ8AMIIB
CgKCAQEA1KplKPskw71d2KP3m88bbf9HpNs1S7SdcnjxqCQAcxuIJQsUpSmtlPBo
VePl6f3Ngrmy5FlX1+RopUKdq1D6+lzv3d4/lfeu/F2NL58Ok1irMa4n2ZC7yq1E
7cHWRSXKrPg9Vb6N6MEiu/MTVEYV8grlatkqvHjwSOisp/ZP4noI+VWXE+7ShJaY
6HuwoN+vEkunN6vMEeL4tnYPGTF9UViCwnnlsF/V5GtmtQXUB0XaPPm0HHJCTOng
maO2Wvyb/LrztXzv/RMHkBY+gxFIZUC0qKjtM0jwJIa9/LzglryjYN4bYK+/donk
2wAQR+5RwRYVLDj62tGicChlavIC7QIDAQABo4IBNzCCATMwCQYDVR0TBAIwADAd
BgNVHQ4EFgQU+LEBGM6LviRiWvvy6Ho3wcQ7L20wgeQGA1UdIwSB3DCB2YAU79y2
PUv9p4cFxSI9i9y/mSru5NuhgbWkgbIwga8xCzAJBgNVBAYTAlVTMRMwEQYDVQQI
DApDYWxpZm9ybmlhMRYwFAYDVQQHDA1TYW4gRnJhbmNpc2NvMSAwHgYDVQQKDBdD
b3B5bGVmdCBDZXJ0aWZpY2F0ZSBDbzEfMB0GA1UECwwWTXkgT3JnYW5pemF0aW9u
YWwgVW5pdDERMA8GA1UEAwwIQ2hhbmdlTWUxHTAbBgkqhkiG9w0BCQEWDm1lQGV4
YW1wbGUubmV0ggkAhx4d3GuMZogwEwYDVR0lBAwwCgYIKwYBBQUHAwIwCwYDVR0P
BAQDAgeAMA0GCSqGSIb3DQEBCwUAA4IBAQBYNs4yC+7v2szjeGmFgNycGQrRMCA4
rfS58gJryKHz17n5qwUFyUz8lR82bWjUlfYXuivdUc2+C5EWIwp+MDJ9aEwqXq3+
r5wxIVgc91Cbd8uYKBoLw7uYalOpKZx6X0+ero1tVmOzwVoqnbEVD1q6Rfbuiiy1
fWFY84Z6Oc/n5hSKkjJ5odmd8acL6OGcpoUxXZiplKoPUpdkdM2p9lUnNcQKQmoH
Af+Muwx0UdjPrh1EjcgXGgpwUrgMw/IovQm5rAfBlUaZuXFDdphxwxt3uVgu6h/X
dzJxIKb6QP6jlblaTc//gwJB+bviLWGZhhZH9HeCq3XOl/brXKbbz20a
-----END CERTIFICATE-----
