Certificate:
    Data:
        Version: 3 (0x2)
        Serial Number:
            c5:b6:f0:46:30:38:36:ec:29:0d:06:06:46:16:33:80
    Signature Algorithm: sha256WithRSAEncryption
        Issuer: C=US, ST=California, L=San Francisco, O=Copyleft Certificate Co, OU=My Organizational Unit, CN=ChangeMe/emailAddress=me@example.net
        Validity
            Not Before: Nov 11 18:52:16 2023 GMT
            Not After : Nov 10 18:52:16 2024 GMT
        Subject: C=US, ST=OH, L=Cincinnati, O=University of Cincinnati ., OU=Dept. Elec. Comp. . Eng. Comp. Sci., CN=client35/emailAddress=franco@gauss.ececs.uc.edu
        Subject Public Key Info:
            Public Key Algorithm: rsaEncryption
                Public-Key: (2048 bit)
                Modulus:
                    00:aa:e7:ec:9d:51:7c:14:a3:6c:8b:ca:0b:53:78:
                    ab:85:05:cf:c8:9b:f2:51:ac:4f:88:db:14:b7:5d:
                    4b:0b:92:9d:43:89:05:bf:17:b5:23:9e:f5:8c:bd:
                    da:00:b9:57:6f:0a:59:9e:61:a7:55:22:f9:3d:99:
                    f0:24:c3:26:14:36:c9:2d:bd:ac:47:06:9a:97:63:
                    04:59:b2:b9:e6:d2:b8:2d:54:e4:42:bd:56:52:77:
                    14:09:63:89:e0:55:b7:1e:d1:1e:76:b4:f4:19:42:
                    08:81:1c:a1:88:62:92:a8:77:cd:9c:1a:fc:1b:b5:
                    df:d2:41:8a:7c:57:a7:a0:4a:44:dc:15:be:32:61:
                    be:41:91:22:ce:0a:d3:34:e8:27:86:ab:32:13:15:
                    88:3a:f8:60:7a:90:60:20:bc:32:7b:36:de:fe:8f:
                    32:03:ef:ed:23:a8:01:11:48:ca:05:86:c2:ae:eb:
                    fb:5d:dd:19:33:d2:c5:39:c2:93:7c:92:b8:9d:63:
                    8d:b9:b0:7d:73:51:cf:67:b2:34:0d:71:52:8e:93:
                    b6:6b:68:d5:22:7f:e3:5f:56:d7:f9:a3:bf:09:31:
                    fb:ce:c2:ca:0e:b9:09:10:c7:c0:0b:d8:b2:24:3b:
                    1d:67:fb:5c:68:09:42:07:bf:fd:8f:3e:06:d8:77:
                    ca:4f
                Exponent: 65537 (0x10001)
        X509v3 extensions:
            X509v3 Basic Constraints: 
                CA:FALSE
            X509v3 Subject Key Identifier: 
                6E:3E:49:6D:BF:34:29:CD:32:90:7F:7E:5A:F7:F1:25:65:7B:FB:0A
            X509v3 Authority Key Identifier: 
                keyid:9C:0E:D5:A3:16:6F:C8:23:88:D1:12:C9:63:5D:18:D9:C9:FC:5B:E9
                DirName:/C=US/ST=California/L=San Francisco/O=Copyleft Certificate Co/OU=My Organizational Unit/CN=ChangeMe/emailAddress=me@example.net
                serial:A3:08:26:80:D2:47:98:75

            X509v3 Extended Key Usage: 
                TLS Web Client Authentication
            X509v3 Key Usage: 
                Digital Signature
    Signature Algorithm: sha256WithRSAEncryption
         58:5d:82:88:86:36:a1:d1:93:7e:e5:80:88:ed:78:05:71:da:
         5b:20:81:9d:a0:d5:ad:87:1f:57:5b:fd:b6:97:d2:b0:d1:6b:
         21:a5:74:6e:9a:2f:88:f0:5a:9c:2f:ef:ad:73:65:08:ea:d9:
         14:8c:32:6b:95:3a:3f:67:72:9f:98:00:49:df:5d:21:d7:59:
         7a:2f:ba:c2:da:71:2e:e1:10:df:6b:55:fa:26:25:97:4f:16:
         f3:cb:a9:57:1c:d5:e6:04:e0:32:f7:87:8e:bb:d9:2e:d1:d8:
         e9:fa:4a:a2:3d:32:97:f2:19:7d:a3:73:97:87:ef:53:22:dc:
         45:95:81:12:ca:c3:8c:8f:fa:7a:62:36:73:33:b2:46:b6:7d:
         bc:2d:38:90:d5:73:ef:8c:f1:db:60:28:92:9a:a8:be:e0:e0:
         2f:e0:32:c6:d8:41:1d:42:bc:7d:c6:74:83:50:53:0c:ab:a3:
         42:de:4f:77:b6:be:6d:6f:25:aa:0a:8d:8a:96:e2:e5:7d:8a:
         ab:10:96:18:5c:93:19:65:52:0d:e6:bb:c7:80:c9:78:93:b3:
         f8:3a:78:c1:fa:68:da:85:76:ec:f7:0c:57:fc:40:8e:d0:c1:
         74:14:84:0b:d6:c9:7c:86:76:fd:63:43:b6:35:02:55:cf:15:
         dd:f1:1c:80
-----BEGIN CERTIFICATE-----
MIIFNDCCBBygAwIBAgIRAMW28EYwODbsKQ0GBkYWM4AwDQYJKoZIhvcNAQELBQAw
ga8xCzAJBgNVBAYTAlVTMRMwEQYDVQQIDApDYWxpZm9ybmlhMRYwFAYDVQQHDA1T
YW4gRnJhbmNpc2NvMSAwHgYDVQQKDBdDb3B5bGVmdCBDZXJ0aWZpY2F0ZSBDbzEf
MB0GA1UECwwWTXkgT3JnYW5pemF0aW9uYWwgVW5pdDERMA8GA1UEAwwIQ2hhbmdl
TWUxHTAbBgkqhkiG9w0BCQEWDm1lQGV4YW1wbGUubmV0MB4XDTIzMTExMTE4NTIx
NloXDTI0MTExMDE4NTIxNlowgb8xCzAJBgNVBAYTAlVTMQswCQYDVQQIDAJPSDET
MBEGA1UEBwwKQ2luY2lubmF0aTEjMCEGA1UECgwaVW5pdmVyc2l0eSBvZiBDaW5j
aW5uYXRpIC4xLDAqBgNVBAsMI0RlcHQuIEVsZWMuIENvbXAuIC4gRW5nLiBDb21w
LiBTY2kuMREwDwYDVQQDDAhjbGllbnQzNTEoMCYGCSqGSIb3DQEJARYZZnJhbmNv
QGdhdXNzLmVjZWNzLnVjLmVkdTCCASIwDQYJKoZIhvcNAQEBBQADggEPADCCAQoC
ggEBAKrn7J1RfBSjbIvKC1N4q4UFz8ib8lGsT4jbFLddSwuSnUOJBb8XtSOe9Yy9
2gC5V28KWZ5hp1Ui+T2Z8CTDJhQ2yS29rEcGmpdjBFmyuebSuC1U5EK9VlJ3FAlj
ieBVtx7RHna09BlCCIEcoYhikqh3zZwa/Bu139JBinxXp6BKRNwVvjJhvkGRIs4K
0zToJ4arMhMViDr4YHqQYCC8Mns23v6PMgPv7SOoARFIygWGwq7r+13dGTPSxTnC
k3ySuJ1jjbmwfXNRz2eyNA1xUo6Ttmto1SJ/419W1/mjvwkx+87Cyg65CRDHwAvY
siQ7HWf7XGgJQge//Y8+Bth3yk8CAwEAAaOCATcwggEzMAkGA1UdEwQCMAAwHQYD
VR0OBBYEFG4+SW2/NCnNMpB/flr38SVle/sKMIHkBgNVHSMEgdwwgdmAFJwO1aMW
b8gjiNESyWNdGNnJ/FvpoYG1pIGyMIGvMQswCQYDVQQGEwJVUzETMBEGA1UECAwK
Q2FsaWZvcm5pYTEWMBQGA1UEBwwNU2FuIEZyYW5jaXNjbzEgMB4GA1UECgwXQ29w
eWxlZnQgQ2VydGlmaWNhdGUgQ28xHzAdBgNVBAsMFk15IE9yZ2FuaXphdGlvbmFs
IFVuaXQxETAPBgNVBAMMCENoYW5nZU1lMR0wGwYJKoZIhvcNAQkBFg5tZUBleGFt
cGxlLm5ldIIJAKMIJoDSR5h1MBMGA1UdJQQMMAoGCCsGAQUFBwMCMAsGA1UdDwQE
AwIHgDANBgkqhkiG9w0BAQsFAAOCAQEAWF2CiIY2odGTfuWAiO14BXHaWyCBnaDV
rYcfV1v9tpfSsNFrIaV0bpoviPBanC/vrXNlCOrZFIwya5U6P2dyn5gASd9dIddZ
ei+6wtpxLuEQ32tV+iYll08W88upVxzV5gTgMveHjrvZLtHY6fpKoj0yl/IZfaNz
l4fvUyLcRZWBEsrDjI/6emI2czOyRrZ9vC04kNVz74zx22AokpqovuDgL+AyxthB
HUK8fcZ0g1BTDKujQt5Pd7a+bW8lqgqNipbi5X2KqxCWGFyTGWVSDea7x4DJeJOz
+Dp4wfpo2oV27PcMV/xAjtDBdBSEC9bJfIZ2/WNDtjUCVc8V3fEcgA==
-----END CERTIFICATE-----
