Certificate:
    Data:
        Version: 3 (0x2)
        Serial Number:
            c6:ca:fc:8d:81:24:9d:63:9c:2b:18:45:68:a5:60:eb
    Signature Algorithm: sha256WithRSAEncryption
        Issuer: C=US, ST=California, L=San Francisco, O=Copyleft Certificate Co, OU=My Organizational Unit, CN=ChangeMe/emailAddress=me@example.net
        Validity
            Not Before: Nov 11 18:50:20 2023 GMT
            Not After : Nov 10 18:50:20 2024 GMT
        Subject: C=US, ST=OH, L=Cincinnati, O=University of Cincinnati ., OU=Dept. Elec. Comp. . Eng. Comp. Sci., CN=client6/emailAddress=franco@gauss.ececs.uc.edu
        Subject Public Key Info:
            Public Key Algorithm: rsaEncryption
                Public-Key: (2048 bit)
                Modulus:
                    00:9b:43:9a:44:46:49:c4:0b:44:54:e5:8f:92:75:
                    1c:9d:bd:0d:f4:e3:73:e3:4d:8c:82:42:55:a2:0e:
                    ba:fe:99:d5:47:10:83:81:ec:d7:5d:54:f3:f7:95:
                    56:ca:fc:a7:fc:80:4d:06:67:7f:20:dd:ab:d1:a7:
                    b2:38:cd:64:0e:a3:10:38:8c:d2:42:87:10:41:00:
                    42:e8:c7:3c:a3:5b:4b:eb:9e:6c:b4:02:2f:b1:8d:
                    42:10:e8:52:30:de:62:fd:f9:e6:98:97:8a:66:3f:
                    fd:d7:9c:e0:cc:6f:09:d6:7d:7f:b7:e9:bd:08:41:
                    29:db:e2:cd:a9:47:df:aa:a1:93:c3:94:1e:28:91:
                    80:36:07:02:9b:4f:4b:06:4b:87:f6:6c:7d:7a:00:
                    2e:b9:0a:ef:13:29:6a:dc:85:45:4a:13:e3:61:32:
                    26:37:17:b5:e6:3e:b6:fb:24:75:d0:b8:38:bb:7a:
                    60:bb:a0:8d:c9:cd:68:c9:34:b4:32:f9:95:dd:66:
                    9d:cd:86:8a:d0:64:f1:56:2d:40:d1:89:2f:86:76:
                    c0:e9:62:37:91:6e:15:f0:dc:33:b5:5b:a9:29:a1:
                    03:cb:b3:3d:cc:56:ac:c6:04:0e:51:d6:39:06:b2:
                    57:1c:91:a2:3d:58:8d:6d:71:6c:2e:3b:62:15:cc:
                    8b:93
                Exponent: 65537 (0x10001)
        X509v3 extensions:
            X509v3 Basic Constraints: 
                CA:FALSE
            X509v3 Subject Key Identifier: 
                B7:7E:BA:54:E9:22:20:E6:47:F5:3C:64:44:5D:BD:0C:80:05:F1:A8
            X509v3 Authority Key Identifier: 
                keyid:9C:0E:D5:A3:16:6F:C8:23:88:D1:12:C9:63:5D:18:D9:C9:FC:5B:E9
                DirName:/C=US/ST=California/L=San Francisco/O=Copyleft Certificate Co/OU=My Organizational Unit/CN=ChangeMe/emailAddress=me@example.net
                serial:A3:08:26:80:D2:47:98:75

            X509v3 Extended Key Usage: 
                TLS Web Client Authentication
            X509v3 Key Usage: 
                Digital Signature
    Signature Algorithm: sha256WithRSAEncryption
         6d:f0:e6:19:3c:ee:99:82:ea:d6:05:38:c2:cd:c0:87:36:94:
         1c:9b:e1:6f:18:8a:06:67:ca:a2:f4:26:95:3e:c3:20:a4:18:
         26:71:74:e8:1a:f0:bd:1c:d6:1c:1a:c7:d9:64:f6:e8:aa:d0:
         dd:ea:9d:54:0a:95:dd:98:11:7a:9c:fa:a8:b1:ca:ac:74:ac:
         16:1d:51:6b:2a:03:e3:12:2d:72:58:a0:4d:5b:68:55:97:70:
         37:de:7d:b2:fe:47:d8:f4:d2:05:23:6c:be:8a:45:57:96:47:
         3d:7a:19:c9:85:f8:ab:87:cf:4d:78:7f:1a:45:9a:4b:ec:b8:
         23:bb:18:c7:26:70:da:39:11:33:d5:ff:4f:34:f2:8f:89:8f:
         d9:db:fc:3e:11:73:3b:b7:f5:f2:55:c6:b2:d6:15:53:44:b9:
         c7:c6:7b:06:fd:d6:84:d6:5b:25:27:79:6a:b4:88:5f:91:1a:
         3f:7a:a9:db:2b:50:e8:c2:0c:ed:00:fe:95:dd:f9:01:96:09:
         40:bd:15:7c:ee:ac:0b:d7:ed:bf:4f:f5:e6:55:97:02:7a:f1:
         50:ab:07:b8:29:bd:c1:44:65:2a:2a:bd:62:7f:25:77:16:c7:
         d6:6b:21:88:21:a0:0d:52:e5:7b:14:0c:1b:64:fc:50:16:33:
         d6:9d:fe:31
-----BEGIN CERTIFICATE-----
MIIFMzCCBBugAwIBAgIRAMbK/I2BJJ1jnCsYRWilYOswDQYJKoZIhvcNAQELBQAw
ga8xCzAJBgNVBAYTAlVTMRMwEQYDVQQIDApDYWxpZm9ybmlhMRYwFAYDVQQHDA1T
YW4gRnJhbmNpc2NvMSAwHgYDVQQKDBdDb3B5bGVmdCBDZXJ0aWZpY2F0ZSBDbzEf
MB0GA1UECwwWTXkgT3JnYW5pemF0aW9uYWwgVW5pdDERMA8GA1UEAwwIQ2hhbmdl
TWUxHTAbBgkqhkiG9w0BCQEWDm1lQGV4YW1wbGUubmV0MB4XDTIzMTExMTE4NTAy
MFoXDTI0MTExMDE4NTAyMFowgb4xCzAJBgNVBAYTAlVTMQswCQYDVQQIDAJPSDET
MBEGA1UEBwwKQ2luY2lubmF0aTEjMCEGA1UECgwaVW5pdmVyc2l0eSBvZiBDaW5j
aW5uYXRpIC4xLDAqBgNVBAsMI0RlcHQuIEVsZWMuIENvbXAuIC4gRW5nLiBDb21w
LiBTY2kuMRAwDgYDVQQDDAdjbGllbnQ2MSgwJgYJKoZIhvcNAQkBFhlmcmFuY29A
Z2F1c3MuZWNlY3MudWMuZWR1MIIBIjANBgkqhkiG9w0BAQEFAAOCAQ8AMIIBCgKC
AQEAm0OaREZJxAtEVOWPknUcnb0N9ONz402MgkJVog66/pnVRxCDgezXXVTz95VW
yvyn/IBNBmd/IN2r0aeyOM1kDqMQOIzSQocQQQBC6Mc8o1tL655stAIvsY1CEOhS
MN5i/fnmmJeKZj/915zgzG8J1n1/t+m9CEEp2+LNqUffqqGTw5QeKJGANgcCm09L
BkuH9mx9egAuuQrvEylq3IVFShPjYTImNxe15j62+yR10Lg4u3pgu6CNyc1oyTS0
MvmV3WadzYaK0GTxVi1A0YkvhnbA6WI3kW4V8NwztVupKaEDy7M9zFasxgQOUdY5
BrJXHJGiPViNbXFsLjtiFcyLkwIDAQABo4IBNzCCATMwCQYDVR0TBAIwADAdBgNV
HQ4EFgQUt366VOkiIOZH9TxkRF29DIAF8agwgeQGA1UdIwSB3DCB2YAUnA7VoxZv
yCOI0RLJY10Y2cn8W+mhgbWkgbIwga8xCzAJBgNVBAYTAlVTMRMwEQYDVQQIDApD
YWxpZm9ybmlhMRYwFAYDVQQHDA1TYW4gRnJhbmNpc2NvMSAwHgYDVQQKDBdDb3B5
bGVmdCBDZXJ0aWZpY2F0ZSBDbzEfMB0GA1UECwwWTXkgT3JnYW5pemF0aW9uYWwg
VW5pdDERMA8GA1UEAwwIQ2hhbmdlTWUxHTAbBgkqhkiG9w0BCQEWDm1lQGV4YW1w
bGUubmV0ggkAowgmgNJHmHUwEwYDVR0lBAwwCgYIKwYBBQUHAwIwCwYDVR0PBAQD
AgeAMA0GCSqGSIb3DQEBCwUAA4IBAQBt8OYZPO6ZgurWBTjCzcCHNpQcm+FvGIoG
Z8qi9CaVPsMgpBgmcXToGvC9HNYcGsfZZPboqtDd6p1UCpXdmBF6nPqoscqsdKwW
HVFrKgPjEi1yWKBNW2hVl3A33n2y/kfY9NIFI2y+ikVXlkc9ehnJhfirh89NeH8a
RZpL7LgjuxjHJnDaOREz1f9PNPKPiY/Z2/w+EXM7t/XyVcay1hVTRLnHxnsG/daE
1lslJ3lqtIhfkRo/eqnbK1DowgztAP6V3fkBlglAvRV87qwL1+2/T/XmVZcCevFQ
qwe4Kb3BRGUqKr1ifyV3FsfWayGIIaANUuV7FAwbZPxQFjPWnf4x
-----END CERTIFICATE-----
