Certificate:
    Data:
        Version: 3 (0x2)
        Serial Number:
            c9:30:fa:0e:22:85:ae:2f:7c:54:d7:93:5d:d3:40:ef
    Signature Algorithm: sha256WithRSAEncryption
        Issuer: C=US, ST=California, L=San Francisco, O=Copyleft Certificate Co, OU=My Organizational Unit, CN=ChangeMe/emailAddress=me@example.net
        Validity
            Not Before: Nov 11 18:52:12 2023 GMT
            Not After : Nov 10 18:52:12 2024 GMT
        Subject: C=US, ST=OH, L=Cincinnati, O=University of Cincinnati ., OU=Dept. Elec. Comp. . Eng. Comp. Sci., CN=client34/emailAddress=franco@gauss.ececs.uc.edu
        Subject Public Key Info:
            Public Key Algorithm: rsaEncryption
                Public-Key: (2048 bit)
                Modulus:
                    00:ca:18:82:2e:73:94:3f:58:33:ef:78:83:fe:e3:
                    f2:43:9c:59:f7:60:8b:61:e5:e0:34:20:c3:93:20:
                    05:ef:f4:af:45:74:b2:9a:79:dc:61:da:e9:6f:d6:
                    a0:24:ea:3c:fe:53:d7:07:02:54:42:70:d0:49:31:
                    90:ab:2e:fe:db:fc:e6:04:98:fe:62:11:73:da:68:
                    6d:b9:06:1b:ea:9f:42:d0:89:ad:3e:a1:7f:4d:4e:
                    f4:29:f5:cc:4e:12:28:e8:02:7f:f5:76:dd:57:76:
                    42:72:dd:6c:d3:f6:fd:f3:8c:1d:a4:26:b1:06:a1:
                    e5:89:6f:0f:74:3f:cd:8b:7f:7a:6c:27:cd:ff:5d:
                    63:81:0f:2b:13:5f:e8:9c:37:14:60:d6:5f:6e:ad:
                    9f:f2:d6:7d:12:e3:d8:e7:a5:5a:11:3b:f9:f7:f4:
                    ec:a3:be:6b:44:b5:5f:1e:5b:28:78:fe:6e:91:2e:
                    af:3d:af:3d:3c:4c:fa:1d:5e:16:7d:66:56:0b:9e:
                    fc:f0:39:8a:cd:bc:4f:1c:e4:34:35:16:27:da:ae:
                    fe:51:28:1f:63:10:4c:c9:c6:29:6a:5f:47:ee:77:
                    41:e6:51:64:3f:5e:a4:bf:15:55:c4:7b:4b:52:17:
                    36:e7:c4:49:51:52:7a:6e:3e:bf:38:2f:3f:17:98:
                    a0:cd
                Exponent: 65537 (0x10001)
        X509v3 extensions:
            X509v3 Basic Constraints: 
                CA:FALSE
            X509v3 Subject Key Identifier: 
                1E:16:FD:E0:44:3F:7C:C6:DB:B8:1F:93:C9:70:0D:1B:41:C9:51:47
            X509v3 Authority Key Identifier: 
                keyid:9C:0E:D5:A3:16:6F:C8:23:88:D1:12:C9:63:5D:18:D9:C9:FC:5B:E9
                DirName:/C=US/ST=California/L=San Francisco/O=Copyleft Certificate Co/OU=My Organizational Unit/CN=ChangeMe/emailAddress=me@example.net
                serial:A3:08:26:80:D2:47:98:75

            X509v3 Extended Key Usage: 
                TLS Web Client Authentication
            X509v3 Key Usage: 
                Digital Signature
    Signature Algorithm: sha256WithRSAEncryption
         6f:6b:1a:33:b2:53:7c:5f:e1:24:f3:75:4c:0c:14:d6:de:08:
         85:8d:a0:d2:ec:8f:8b:e5:03:d2:d8:34:d3:40:b8:8d:3a:e2:
         c7:5b:30:a4:b8:87:94:ee:85:6f:4a:21:58:60:70:87:ff:c5:
         d3:cf:43:a0:36:10:e5:25:e0:9d:86:11:98:9a:c0:5c:15:27:
         c6:38:80:33:b9:86:5c:d0:45:ec:ba:f0:f3:1c:0e:ee:cb:43:
         42:c6:43:ef:11:63:01:e1:c4:60:c3:d5:40:8e:2b:f7:4a:35:
         22:81:16:95:83:57:dd:ef:1b:6b:83:4a:af:de:52:43:76:37:
         1a:73:6a:ea:fe:25:5b:80:57:46:20:eb:bb:c2:ae:9e:ee:59:
         50:b4:e7:d1:ab:dd:3e:23:0a:76:7a:e0:d1:c5:16:41:cc:cf:
         06:4e:e2:e5:0d:0a:0c:a8:cc:61:5f:8a:16:a3:3b:bc:c5:80:
         3c:14:4c:18:7c:bd:e5:da:02:ed:f8:bd:0b:ad:d7:f6:19:d7:
         11:93:08:96:42:27:2a:1d:98:69:99:91:dc:55:eb:36:6a:cb:
         f8:71:67:db:fc:06:3b:b1:99:f3:b4:c1:13:47:dc:81:6a:ab:
         65:b4:c4:e3:3a:52:20:5d:07:31:fa:7f:3c:c0:0a:b8:71:05:
         29:66:23:78
-----BEGIN CERTIFICATE-----
MIIFNDCCBBygAwIBAgIRAMkw+g4iha4vfFTXk13TQO8wDQYJKoZIhvcNAQELBQAw
ga8xCzAJBgNVBAYTAlVTMRMwEQYDVQQIDApDYWxpZm9ybmlhMRYwFAYDVQQHDA1T
YW4gRnJhbmNpc2NvMSAwHgYDVQQKDBdDb3B5bGVmdCBDZXJ0aWZpY2F0ZSBDbzEf
MB0GA1UECwwWTXkgT3JnYW5pemF0aW9uYWwgVW5pdDERMA8GA1UEAwwIQ2hhbmdl
TWUxHTAbBgkqhkiG9w0BCQEWDm1lQGV4YW1wbGUubmV0MB4XDTIzMTExMTE4NTIx
MloXDTI0MTExMDE4NTIxMlowgb8xCzAJBgNVBAYTAlVTMQswCQYDVQQIDAJPSDET
MBEGA1UEBwwKQ2luY2lubmF0aTEjMCEGA1UECgwaVW5pdmVyc2l0eSBvZiBDaW5j
aW5uYXRpIC4xLDAqBgNVBAsMI0RlcHQuIEVsZWMuIENvbXAuIC4gRW5nLiBDb21w
LiBTY2kuMREwDwYDVQQDDAhjbGllbnQzNDEoMCYGCSqGSIb3DQEJARYZZnJhbmNv
QGdhdXNzLmVjZWNzLnVjLmVkdTCCASIwDQYJKoZIhvcNAQEBBQADggEPADCCAQoC
ggEBAMoYgi5zlD9YM+94g/7j8kOcWfdgi2Hl4DQgw5MgBe/0r0V0spp53GHa6W/W
oCTqPP5T1wcCVEJw0EkxkKsu/tv85gSY/mIRc9pobbkGG+qfQtCJrT6hf01O9Cn1
zE4SKOgCf/V23Vd2QnLdbNP2/fOMHaQmsQah5YlvD3Q/zYt/emwnzf9dY4EPKxNf
6Jw3FGDWX26tn/LWfRLj2OelWhE7+ff07KO+a0S1Xx5bKHj+bpEurz2vPTxM+h1e
Fn1mVgue/PA5is28TxzkNDUWJ9qu/lEoH2MQTMnGKWpfR+53QeZRZD9epL8VVcR7
S1IXNufESVFSem4+vzgvPxeYoM0CAwEAAaOCATcwggEzMAkGA1UdEwQCMAAwHQYD
VR0OBBYEFB4W/eBEP3zG27gfk8lwDRtByVFHMIHkBgNVHSMEgdwwgdmAFJwO1aMW
b8gjiNESyWNdGNnJ/FvpoYG1pIGyMIGvMQswCQYDVQQGEwJVUzETMBEGA1UECAwK
Q2FsaWZvcm5pYTEWMBQGA1UEBwwNU2FuIEZyYW5jaXNjbzEgMB4GA1UECgwXQ29w
eWxlZnQgQ2VydGlmaWNhdGUgQ28xHzAdBgNVBAsMFk15IE9yZ2FuaXphdGlvbmFs
IFVuaXQxETAPBgNVBAMMCENoYW5nZU1lMR0wGwYJKoZIhvcNAQkBFg5tZUBleGFt
cGxlLm5ldIIJAKMIJoDSR5h1MBMGA1UdJQQMMAoGCCsGAQUFBwMCMAsGA1UdDwQE
AwIHgDANBgkqhkiG9w0BAQsFAAOCAQEAb2saM7JTfF/hJPN1TAwU1t4IhY2g0uyP
i+UD0tg000C4jTrix1swpLiHlO6Fb0ohWGBwh//F089DoDYQ5SXgnYYRmJrAXBUn
xjiAM7mGXNBF7Lrw8xwO7stDQsZD7xFjAeHEYMPVQI4r90o1IoEWlYNX3e8ba4NK
r95SQ3Y3GnNq6v4lW4BXRiDru8Kunu5ZULTn0avdPiMKdnrg0cUWQczPBk7i5Q0K
DKjMYV+KFqM7vMWAPBRMGHy95doC7fi9C63X9hnXEZMIlkInKh2YaZmR3FXrNmrL
+HFn2/wGO7GZ87TBE0fcgWqrZbTE4zpSIF0HMfp/PMAKuHEFKWYjeA==
-----END CERTIFICATE-----
