Certificate:
    Data:
        Version: 3 (0x2)
        Serial Number:
            cb:9d:84:35:c3:b4:23:34:92:96:4b:e5:f6:79:39:c4
    Signature Algorithm: sha256WithRSAEncryption
        Issuer: C=US, ST=California, L=San Francisco, O=Copyleft Certificate Co, OU=My Organizational Unit, CN=ChangeMe/emailAddress=me@example.net
        Validity
            Not Before: Nov 12 11:48:07 2023 GMT
            Not After : Nov 11 11:48:07 2024 GMT
        Subject: C=US, ST=OH, L=Cincinnati, O=University of Cincinnati, OU=Dept. Elec. Comp. Eng. Comp. Sci., CN=client28/emailAddress=franco@gauss.ececs.uc.edu
        Subject Public Key Info:
            Public Key Algorithm: rsaEncryption
                Public-Key: (2048 bit)
                Modulus:
                    00:c8:74:61:f4:aa:04:7f:cf:7c:6a:dd:92:f9:d3:
                    01:4d:cd:b5:b1:f4:05:ce:45:86:ba:bf:3f:61:28:
                    28:2a:53:95:ea:ec:36:9d:35:f4:6f:06:26:c6:6c:
                    0d:c9:5a:04:3b:3d:18:0e:78:41:67:97:fc:ad:26:
                    0c:87:6d:42:fa:9b:7a:e3:d8:85:6e:b9:01:e9:11:
                    31:54:08:ec:27:51:ef:29:65:f6:b6:38:db:56:73:
                    0e:55:1b:9b:ce:de:0f:ed:04:ec:1c:2b:02:a7:40:
                    45:f2:d3:72:d5:7c:10:24:8b:7d:1a:65:6b:7f:46:
                    60:58:17:5c:24:3f:1c:db:d1:6e:38:2f:6c:f0:0b:
                    51:1f:d1:6d:73:81:70:4a:3c:d1:47:96:d9:23:c3:
                    9a:81:27:05:57:57:ca:10:1f:b4:7f:18:c5:00:02:
                    c1:a3:c6:08:8b:2a:a7:10:35:2e:35:30:4f:45:c0:
                    92:00:3a:de:29:cb:b9:8a:35:eb:c8:4a:4c:cc:b5:
                    31:5a:79:e4:e8:e7:93:c8:3d:f3:7a:59:20:e3:e3:
                    77:e9:25:b0:51:e4:9b:fa:e2:41:4c:d0:b3:8f:01:
                    47:dd:32:44:5a:9e:ee:ac:59:68:57:40:a3:79:d4:
                    fe:30:19:f3:3b:a1:8b:e9:40:3c:b6:0d:84:c9:1e:
                    40:c7
                Exponent: 65537 (0x10001)
        X509v3 extensions:
            X509v3 Basic Constraints: 
                CA:FALSE
            X509v3 Subject Key Identifier: 
                41:1D:99:1D:89:05:16:15:B7:BA:D0:3D:40:76:76:C3:29:9B:7C:24
            X509v3 Authority Key Identifier: 
                keyid:C4:46:F2:96:38:56:02:B8:9D:09:04:52:25:91:35:97:6A:D7:B1:F0
                DirName:/C=US/ST=California/L=San Francisco/O=Copyleft Certificate Co/OU=My Organizational Unit/CN=ChangeMe/emailAddress=me@example.net
                serial:D1:5A:15:1C:F0:20:95:62

            X509v3 Extended Key Usage: 
                TLS Web Client Authentication
            X509v3 Key Usage: 
                Digital Signature
    Signature Algorithm: sha256WithRSAEncryption
         59:30:02:5c:e6:92:52:49:fb:b9:0b:aa:97:1b:44:ad:3b:b5:
         1e:f2:92:d3:5d:c0:bc:76:13:e5:ee:6a:a4:0f:6b:c9:9e:09:
         41:fb:79:98:05:2a:6f:fe:fb:90:7f:b6:d3:ec:81:29:b5:c9:
         0d:22:fc:17:5d:7f:92:3d:16:c0:e8:2b:ac:fc:96:b8:79:86:
         e2:66:cb:67:21:46:c5:43:e4:3f:53:bf:19:4e:84:b2:19:dc:
         68:29:db:c3:b4:27:49:91:cf:0d:c3:a3:40:d5:cb:11:0e:db:
         4a:67:db:6c:44:a7:29:7c:45:ab:eb:71:77:3b:c8:f3:bf:5e:
         53:49:1d:25:05:22:57:19:81:1d:4f:e8:b6:d4:65:da:d6:37:
         fb:8d:b3:6e:f8:9e:fe:01:62:88:f7:2c:24:68:22:58:0c:a9:
         da:76:14:66:c3:ed:5a:24:3d:21:e8:9b:90:ce:c0:06:fe:92:
         05:d7:6c:59:07:1c:e5:99:26:b7:e3:fd:01:72:7e:fd:1f:41:
         d1:58:57:da:1a:8e:87:2b:8b:0f:18:43:3a:08:12:06:6a:9b:
         73:1d:db:98:bf:54:33:e6:56:f3:4a:19:bf:57:e9:e5:56:13:
         30:3f:0f:5c:ca:de:4b:53:36:c5:bd:e0:3b:23:14:45:ea:72:
         83:fa:14:2b
-----BEGIN CERTIFICATE-----
MIIFMDCCBBigAwIBAgIRAMudhDXDtCM0kpZL5fZ5OcQwDQYJKoZIhvcNAQELBQAw
ga8xCzAJBgNVBAYTAlVTMRMwEQYDVQQIDApDYWxpZm9ybmlhMRYwFAYDVQQHDA1T
YW4gRnJhbmNpc2NvMSAwHgYDVQQKDBdDb3B5bGVmdCBDZXJ0aWZpY2F0ZSBDbzEf
MB0GA1UECwwWTXkgT3JnYW5pemF0aW9uYWwgVW5pdDERMA8GA1UEAwwIQ2hhbmdl
TWUxHTAbBgkqhkiG9w0BCQEWDm1lQGV4YW1wbGUubmV0MB4XDTIzMTExMjExNDgw
N1oXDTI0MTExMTExNDgwN1owgbsxCzAJBgNVBAYTAlVTMQswCQYDVQQIDAJPSDET
MBEGA1UEBwwKQ2luY2lubmF0aTEhMB8GA1UECgwYVW5pdmVyc2l0eSBvZiBDaW5j
aW5uYXRpMSowKAYDVQQLDCFEZXB0LiBFbGVjLiBDb21wLiBFbmcuIENvbXAuIFNj
aS4xETAPBgNVBAMMCGNsaWVudDI4MSgwJgYJKoZIhvcNAQkBFhlmcmFuY29AZ2F1
c3MuZWNlY3MudWMuZWR1MIIBIjANBgkqhkiG9w0BAQEFAAOCAQ8AMIIBCgKCAQEA
yHRh9KoEf898at2S+dMBTc21sfQFzkWGur8/YSgoKlOV6uw2nTX0bwYmxmwNyVoE
Oz0YDnhBZ5f8rSYMh21C+pt649iFbrkB6RExVAjsJ1HvKWX2tjjbVnMOVRubzt4P
7QTsHCsCp0BF8tNy1XwQJIt9GmVrf0ZgWBdcJD8c29FuOC9s8AtRH9Ftc4FwSjzR
R5bZI8OagScFV1fKEB+0fxjFAALBo8YIiyqnEDUuNTBPRcCSADreKcu5ijXryEpM
zLUxWnnk6OeTyD3zelkg4+N36SWwUeSb+uJBTNCzjwFH3TJEWp7urFloV0CjedT+
MBnzO6GL6UA8tg2EyR5AxwIDAQABo4IBNzCCATMwCQYDVR0TBAIwADAdBgNVHQ4E
FgQUQR2ZHYkFFhW3utA9QHZ2wymbfCQwgeQGA1UdIwSB3DCB2YAUxEbyljhWArid
CQRSJZE1l2rXsfChgbWkgbIwga8xCzAJBgNVBAYTAlVTMRMwEQYDVQQIDApDYWxp
Zm9ybmlhMRYwFAYDVQQHDA1TYW4gRnJhbmNpc2NvMSAwHgYDVQQKDBdDb3B5bGVm
dCBDZXJ0aWZpY2F0ZSBDbzEfMB0GA1UECwwWTXkgT3JnYW5pemF0aW9uYWwgVW5p
dDERMA8GA1UEAwwIQ2hhbmdlTWUxHTAbBgkqhkiG9w0BCQEWDm1lQGV4YW1wbGUu
bmV0ggkA0VoVHPAglWIwEwYDVR0lBAwwCgYIKwYBBQUHAwIwCwYDVR0PBAQDAgeA
MA0GCSqGSIb3DQEBCwUAA4IBAQBZMAJc5pJSSfu5C6qXG0StO7Ue8pLTXcC8dhPl
7mqkD2vJnglB+3mYBSpv/vuQf7bT7IEptckNIvwXXX+SPRbA6Cus/Ja4eYbiZstn
IUbFQ+Q/U78ZToSyGdxoKdvDtCdJkc8Nw6NA1csRDttKZ9tsRKcpfEWr63F3O8jz
v15TSR0lBSJXGYEdT+i21GXa1jf7jbNu+J7+AWKI9ywkaCJYDKnadhRmw+1aJD0h
6JuQzsAG/pIF12xZBxzlmSa34/0Bcn79H0HRWFfaGo6HK4sPGEM6CBIGaptzHduY
v1Qz5lbzShm/V+nlVhMwPw9cyt5LUzbFveA7IxRF6nKD+hQr
-----END CERTIFICATE-----
