Certificate:
    Data:
        Version: 3 (0x2)
        Serial Number:
            cc:30:b1:e7:c2:57:49:5c:53:f9:e4:04:f0:51:0d:2e
    Signature Algorithm: sha256WithRSAEncryption
        Issuer: C=US, ST=California, L=San Francisco, O=Copyleft Certificate Co, OU=My Organizational Unit, CN=ChangeMe/emailAddress=me@example.net
        Validity
            Not Before: Nov 11 14:50:14 2023 GMT
            Not After : Nov 10 14:50:14 2024 GMT
        Subject: C=US, ST=OH, L=Cincinnati, O=University of Cincinnati ., OU=Dept. Elec. Comp. . Eng. Comp. Sci., CN=client8/emailAddress=franco@gauss.ececs.uc.edu
        Subject Public Key Info:
            Public Key Algorithm: rsaEncryption
                Public-Key: (2048 bit)
                Modulus:
                    00:bd:61:d2:21:ef:17:91:8a:61:d7:9d:5c:53:3c:
                    bd:9f:d3:82:99:8e:d7:46:ad:44:45:2b:6a:97:95:
                    ae:9c:88:26:06:a3:a7:d1:7d:dc:46:1a:d7:0e:38:
                    5c:bb:8d:ef:86:21:c5:05:68:f1:2b:c2:91:26:e5:
                    09:cd:a1:03:85:06:dc:3b:d3:5b:0f:99:37:60:f5:
                    47:38:b5:81:08:c8:0a:21:01:63:2b:c8:b7:26:48:
                    69:2b:14:f7:5c:91:5d:b6:c5:0d:c4:ec:66:1b:42:
                    66:41:60:fa:97:ed:16:e5:7d:31:18:1b:72:33:98:
                    0a:00:08:80:d0:cc:9d:38:6f:51:10:3d:03:1a:68:
                    51:a8:62:f2:5e:7a:5a:34:9f:bb:14:9a:08:be:d4:
                    98:c2:97:9e:7d:25:08:08:ed:ca:22:dc:a4:51:d5:
                    70:cc:ec:19:23:e6:56:fd:41:62:5b:a4:4b:68:29:
                    2e:f1:b4:61:dd:84:9c:2c:5b:0d:9d:19:ba:29:d5:
                    e4:cc:53:46:4b:69:5c:23:5e:60:d4:73:c5:a4:ba:
                    8f:d8:05:44:a5:1b:58:a2:11:f0:e9:c7:b1:a3:e4:
                    ae:21:7f:e9:be:43:b4:4e:42:37:3c:24:d4:ab:ea:
                    65:22:38:b9:5d:bd:75:50:be:4b:a9:8e:be:f4:2b:
                    21:3d
                Exponent: 65537 (0x10001)
        X509v3 extensions:
            X509v3 Basic Constraints: 
                CA:FALSE
            X509v3 Subject Key Identifier: 
                2D:46:6E:19:20:2D:A7:62:C4:EC:31:7E:76:2A:20:02:97:67:A6:A7
            X509v3 Authority Key Identifier: 
                keyid:37:77:FF:9E:80:0A:A0:2D:03:2E:41:2E:A7:9F:2C:08:1D:27:A7:1F
                DirName:/C=US/ST=California/L=San Francisco/O=Copyleft Certificate Co/OU=My Organizational Unit/CN=ChangeMe/emailAddress=me@example.net
                serial:8E:F4:CE:BF:34:CB:64:72

            X509v3 Extended Key Usage: 
                TLS Web Client Authentication
            X509v3 Key Usage: 
                Digital Signature
    Signature Algorithm: sha256WithRSAEncryption
         86:4d:3f:ae:b8:ae:66:3b:b0:d8:8f:47:d7:14:15:4f:88:a7:
         aa:4b:0f:f9:47:d2:2f:bc:5c:f9:20:8d:8e:82:67:79:e3:57:
         32:25:12:e0:9b:7a:7a:99:79:5e:06:91:21:15:dd:6b:20:53:
         f7:4e:44:37:de:7f:90:d0:b2:03:69:da:2b:a0:81:46:6d:46:
         c2:8b:fe:7d:0d:13:60:f2:07:e0:97:5a:e8:f7:64:06:16:7b:
         ed:f5:37:b2:1f:98:0b:c3:93:70:64:4a:70:dd:df:65:8f:1b:
         9d:3c:bb:2d:d8:72:bb:c7:25:06:d6:f3:de:75:03:e5:74:21:
         f3:7f:07:c2:fc:b2:f3:24:82:09:85:ce:c2:af:c1:74:83:dd:
         0b:1e:12:7f:69:21:1a:4e:f6:20:34:68:67:5c:c7:74:f9:fb:
         89:37:ae:8c:68:e5:63:ab:56:ec:ff:e2:66:0b:ff:ad:d1:f7:
         af:32:07:47:2e:c2:78:2a:f9:54:46:a5:98:03:de:14:6f:e3:
         4c:54:6c:c6:73:1f:48:0c:95:52:bf:ef:bf:58:df:4c:dd:77:
         81:d6:0f:77:7b:5a:9a:4e:7b:5f:37:60:05:22:cf:45:5a:c2:
         5a:f7:91:3f:b4:3e:e4:5a:36:65:b9:bb:a2:aa:99:85:d0:fe:
         99:6b:fb:51
-----BEGIN CERTIFICATE-----
MIIFMzCCBBugAwIBAgIRAMwwsefCV0lcU/nkBPBRDS4wDQYJKoZIhvcNAQELBQAw
ga8xCzAJBgNVBAYTAlVTMRMwEQYDVQQIDApDYWxpZm9ybmlhMRYwFAYDVQQHDA1T
YW4gRnJhbmNpc2NvMSAwHgYDVQQKDBdDb3B5bGVmdCBDZXJ0aWZpY2F0ZSBDbzEf
MB0GA1UECwwWTXkgT3JnYW5pemF0aW9uYWwgVW5pdDERMA8GA1UEAwwIQ2hhbmdl
TWUxHTAbBgkqhkiG9w0BCQEWDm1lQGV4YW1wbGUubmV0MB4XDTIzMTExMTE0NTAx
NFoXDTI0MTExMDE0NTAxNFowgb4xCzAJBgNVBAYTAlVTMQswCQYDVQQIDAJPSDET
MBEGA1UEBwwKQ2luY2lubmF0aTEjMCEGA1UECgwaVW5pdmVyc2l0eSBvZiBDaW5j
aW5uYXRpIC4xLDAqBgNVBAsMI0RlcHQuIEVsZWMuIENvbXAuIC4gRW5nLiBDb21w
LiBTY2kuMRAwDgYDVQQDDAdjbGllbnQ4MSgwJgYJKoZIhvcNAQkBFhlmcmFuY29A
Z2F1c3MuZWNlY3MudWMuZWR1MIIBIjANBgkqhkiG9w0BAQEFAAOCAQ8AMIIBCgKC
AQEAvWHSIe8XkYph151cUzy9n9OCmY7XRq1ERStql5WunIgmBqOn0X3cRhrXDjhc
u43vhiHFBWjxK8KRJuUJzaEDhQbcO9NbD5k3YPVHOLWBCMgKIQFjK8i3JkhpKxT3
XJFdtsUNxOxmG0JmQWD6l+0W5X0xGBtyM5gKAAiA0MydOG9RED0DGmhRqGLyXnpa
NJ+7FJoIvtSYwpeefSUICO3KItykUdVwzOwZI+ZW/UFiW6RLaCku8bRh3YScLFsN
nRm6KdXkzFNGS2lcI15g1HPFpLqP2AVEpRtYohHw6cexo+SuIX/pvkO0TkI3PCTU
q+plIji5Xb11UL5LqY6+9CshPQIDAQABo4IBNzCCATMwCQYDVR0TBAIwADAdBgNV
HQ4EFgQULUZuGSAtp2LE7DF+diogApdnpqcwgeQGA1UdIwSB3DCB2YAUN3f/noAK
oC0DLkEup58sCB0npx+hgbWkgbIwga8xCzAJBgNVBAYTAlVTMRMwEQYDVQQIDApD
YWxpZm9ybmlhMRYwFAYDVQQHDA1TYW4gRnJhbmNpc2NvMSAwHgYDVQQKDBdDb3B5
bGVmdCBDZXJ0aWZpY2F0ZSBDbzEfMB0GA1UECwwWTXkgT3JnYW5pemF0aW9uYWwg
VW5pdDERMA8GA1UEAwwIQ2hhbmdlTWUxHTAbBgkqhkiG9w0BCQEWDm1lQGV4YW1w
bGUubmV0ggkAjvTOvzTLZHIwEwYDVR0lBAwwCgYIKwYBBQUHAwIwCwYDVR0PBAQD
AgeAMA0GCSqGSIb3DQEBCwUAA4IBAQCGTT+uuK5mO7DYj0fXFBVPiKeqSw/5R9Iv
vFz5II2Ogmd541cyJRLgm3p6mXleBpEhFd1rIFP3TkQ33n+Q0LIDadoroIFGbUbC
i/59DRNg8gfgl1ro92QGFnvt9TeyH5gLw5NwZEpw3d9ljxudPLst2HK7xyUG1vPe
dQPldCHzfwfC/LLzJIIJhc7Cr8F0g90LHhJ/aSEaTvYgNGhnXMd0+fuJN66MaOVj
q1bs/+JmC/+t0fevMgdHLsJ4KvlURqWYA94Ub+NMVGzGcx9IDJVSv++/WN9M3XeB
1g93e1qaTntfN2AFIs9FWsJa95E/tD7kWjZlubuiqpmF0P6Za/tR
-----END CERTIFICATE-----
