Certificate:
    Data:
        Version: 3 (0x2)
        Serial Number:
            cd:7b:fd:99:5c:22:5d:58:23:50:c2:3e:38:c8:d9:06
    Signature Algorithm: sha256WithRSAEncryption
        Issuer: C=US, ST=California, L=San Francisco, O=Copyleft Certificate Co, OU=My Organizational Unit, CN=ChangeMe/emailAddress=me@example.net
        Validity
            Not Before: Nov 11 18:52:28 2023 GMT
            Not After : Nov 10 18:52:28 2024 GMT
        Subject: C=US, ST=OH, L=Cincinnati, O=University of Cincinnati ., OU=Dept. Elec. Comp. . Eng. Comp. Sci., CN=client38/emailAddress=franco@gauss.ececs.uc.edu
        Subject Public Key Info:
            Public Key Algorithm: rsaEncryption
                Public-Key: (2048 bit)
                Modulus:
                    00:ba:f7:d1:81:56:50:d9:7b:0e:33:fd:8c:21:7d:
                    cf:63:ec:63:2d:fe:26:03:c9:32:8a:7d:5d:05:f6:
                    64:d7:7c:84:29:79:ea:4a:dc:5e:fd:d0:7c:db:d7:
                    e5:25:cf:5d:7d:94:d2:ca:4f:17:af:82:5d:01:1d:
                    e2:9e:e0:b1:72:ef:c4:e9:43:da:0c:f9:fc:ee:da:
                    85:f1:67:02:9c:f2:f0:bd:61:ca:8a:ac:85:ef:3a:
                    60:5f:83:41:8c:ea:3b:13:67:7c:41:72:3d:ef:90:
                    e4:59:7c:4a:82:01:0c:c8:b2:6e:5e:a4:d7:30:d5:
                    26:1e:bd:b4:b6:43:23:c0:1f:c5:64:09:77:ed:20:
                    d2:31:5f:52:8d:30:38:50:26:c5:85:06:29:4c:15:
                    98:a6:17:ee:70:cd:c9:15:bd:03:03:4e:16:f2:b3:
                    4d:b7:c3:c7:35:bb:ff:0c:74:33:cf:38:9b:cc:a8:
                    00:7a:ea:7e:00:b1:bf:55:78:27:10:41:5f:2e:be:
                    9a:32:c6:89:d0:4c:9c:55:6b:8c:b1:73:a8:0f:f5:
                    6d:e9:78:8b:a2:ea:56:e1:fe:ec:43:3e:f2:d3:e0:
                    5e:6d:32:90:8a:3a:c8:78:5a:8a:5f:94:fd:ec:26:
                    9f:29:b1:3f:60:7d:49:96:a3:64:55:ba:13:54:31:
                    62:c9
                Exponent: 65537 (0x10001)
        X509v3 extensions:
            X509v3 Basic Constraints: 
                CA:FALSE
            X509v3 Subject Key Identifier: 
                CF:4C:05:5D:2E:A7:38:74:ED:04:B7:BC:3E:14:60:F1:34:AE:FD:29
            X509v3 Authority Key Identifier: 
                keyid:9C:0E:D5:A3:16:6F:C8:23:88:D1:12:C9:63:5D:18:D9:C9:FC:5B:E9
                DirName:/C=US/ST=California/L=San Francisco/O=Copyleft Certificate Co/OU=My Organizational Unit/CN=ChangeMe/emailAddress=me@example.net
                serial:A3:08:26:80:D2:47:98:75

            X509v3 Extended Key Usage: 
                TLS Web Client Authentication
            X509v3 Key Usage: 
                Digital Signature
    Signature Algorithm: sha256WithRSAEncryption
         53:af:35:72:fd:43:d1:e3:c6:16:a5:91:88:6f:34:4c:65:c5:
         2c:cf:e6:25:09:62:01:a7:7a:5f:a8:05:09:be:66:7a:b2:e0:
         d7:10:5f:96:b5:5c:c7:60:64:f9:a4:5a:4b:ec:f7:86:6b:c4:
         f3:47:aa:7d:9d:f1:84:f7:49:c8:99:31:8b:c6:c5:4e:6d:9b:
         c3:9f:fb:15:97:02:35:d9:bf:f7:56:27:6c:1e:9e:28:9e:8f:
         37:11:8b:6f:b7:f6:31:5c:6f:47:19:8e:f7:98:2a:f1:ed:8a:
         a2:f2:5d:95:21:2f:90:66:c4:6c:46:29:ee:5d:d0:5f:81:9d:
         55:72:1f:61:f9:85:ec:85:65:e1:57:4a:df:cf:9a:91:27:f5:
         7b:6c:eb:95:8b:4a:b5:8a:91:fe:74:7e:78:7b:86:ac:0a:de:
         4d:2c:4f:7e:39:37:4b:44:9d:75:3f:97:95:eb:e9:5b:d9:2e:
         29:41:cc:4a:eb:73:3c:e6:73:d4:9d:a2:1b:a1:dc:9f:a8:f6:
         5e:ad:9e:26:7f:63:67:23:a6:55:23:44:19:e5:21:09:4c:72:
         bd:fe:ac:84:8d:70:a1:84:73:25:ae:bb:29:db:ee:47:17:68:
         e1:1b:13:b5:58:de:4c:2c:21:bc:ea:dc:18:b6:d5:2d:53:07:
         ce:7f:9d:58
-----BEGIN CERTIFICATE-----
MIIFNDCCBBygAwIBAgIRAM17/ZlcIl1YI1DCPjjI2QYwDQYJKoZIhvcNAQELBQAw
ga8xCzAJBgNVBAYTAlVTMRMwEQYDVQQIDApDYWxpZm9ybmlhMRYwFAYDVQQHDA1T
YW4gRnJhbmNpc2NvMSAwHgYDVQQKDBdDb3B5bGVmdCBDZXJ0aWZpY2F0ZSBDbzEf
MB0GA1UECwwWTXkgT3JnYW5pemF0aW9uYWwgVW5pdDERMA8GA1UEAwwIQ2hhbmdl
TWUxHTAbBgkqhkiG9w0BCQEWDm1lQGV4YW1wbGUubmV0MB4XDTIzMTExMTE4NTIy
OFoXDTI0MTExMDE4NTIyOFowgb8xCzAJBgNVBAYTAlVTMQswCQYDVQQIDAJPSDET
MBEGA1UEBwwKQ2luY2lubmF0aTEjMCEGA1UECgwaVW5pdmVyc2l0eSBvZiBDaW5j
aW5uYXRpIC4xLDAqBgNVBAsMI0RlcHQuIEVsZWMuIENvbXAuIC4gRW5nLiBDb21w
LiBTY2kuMREwDwYDVQQDDAhjbGllbnQzODEoMCYGCSqGSIb3DQEJARYZZnJhbmNv
QGdhdXNzLmVjZWNzLnVjLmVkdTCCASIwDQYJKoZIhvcNAQEBBQADggEPADCCAQoC
ggEBALr30YFWUNl7DjP9jCF9z2PsYy3+JgPJMop9XQX2ZNd8hCl56krcXv3QfNvX
5SXPXX2U0spPF6+CXQEd4p7gsXLvxOlD2gz5/O7ahfFnApzy8L1hyoqshe86YF+D
QYzqOxNnfEFyPe+Q5Fl8SoIBDMiybl6k1zDVJh69tLZDI8AfxWQJd+0g0jFfUo0w
OFAmxYUGKUwVmKYX7nDNyRW9AwNOFvKzTbfDxzW7/wx0M884m8yoAHrqfgCxv1V4
JxBBXy6+mjLGidBMnFVrjLFzqA/1bel4i6LqVuH+7EM+8tPgXm0ykIo6yHhail+U
/ewmnymxP2B9SZajZFW6E1QxYskCAwEAAaOCATcwggEzMAkGA1UdEwQCMAAwHQYD
VR0OBBYEFM9MBV0upzh07QS3vD4UYPE0rv0pMIHkBgNVHSMEgdwwgdmAFJwO1aMW
b8gjiNESyWNdGNnJ/FvpoYG1pIGyMIGvMQswCQYDVQQGEwJVUzETMBEGA1UECAwK
Q2FsaWZvcm5pYTEWMBQGA1UEBwwNU2FuIEZyYW5jaXNjbzEgMB4GA1UECgwXQ29w
eWxlZnQgQ2VydGlmaWNhdGUgQ28xHzAdBgNVBAsMFk15IE9yZ2FuaXphdGlvbmFs
IFVuaXQxETAPBgNVBAMMCENoYW5nZU1lMR0wGwYJKoZIhvcNAQkBFg5tZUBleGFt
cGxlLm5ldIIJAKMIJoDSR5h1MBMGA1UdJQQMMAoGCCsGAQUFBwMCMAsGA1UdDwQE
AwIHgDANBgkqhkiG9w0BAQsFAAOCAQEAU681cv1D0ePGFqWRiG80TGXFLM/mJQli
Aad6X6gFCb5merLg1xBflrVcx2Bk+aRaS+z3hmvE80eqfZ3xhPdJyJkxi8bFTm2b
w5/7FZcCNdm/91YnbB6eKJ6PNxGLb7f2MVxvRxmO95gq8e2KovJdlSEvkGbEbEYp
7l3QX4GdVXIfYfmF7IVl4VdK38+akSf1e2zrlYtKtYqR/nR+eHuGrAreTSxPfjk3
S0SddT+XlevpW9kuKUHMSutzPOZz1J2iG6Hcn6j2Xq2eJn9jZyOmVSNEGeUhCUxy
vf6shI1woYRzJa67KdvuRxdo4RsTtVjeTCwhvOrcGLbVLVMHzn+dWA==
-----END CERTIFICATE-----
