Certificate:
    Data:
        Version: 3 (0x2)
        Serial Number:
            ce:68:bf:89:3e:b9:2c:0b:e9:c1:5c:77:26:23:4f:30
    Signature Algorithm: sha256WithRSAEncryption
        Issuer: C=US, ST=California, L=San Francisco, O=Copyleft Certificate Co, OU=My Organizational Unit, CN=ChangeMe/emailAddress=me@example.net
        Validity
            Not Before: Jan 23 18:29:31 2021 GMT
            Not After : Jan 23 18:29:31 2022 GMT
        Subject: C=US, ST=OH, L=Cincinnati, O=University of Cincinnati, OU=Dept. Electrical Eng. and Computer Sci., CN=client96/emailAddress=franco@gauss.ececs.uc.edu
        Subject Public Key Info:
            Public Key Algorithm: rsaEncryption
                Public-Key: (2048 bit)
                Modulus:
                    00:d4:d8:e1:16:5f:e2:7d:92:0a:10:27:f0:6d:e3:
                    b6:ca:5c:f2:d9:15:d7:8e:56:c8:79:87:11:7a:4e:
                    19:37:86:62:fd:48:11:c0:70:97:8d:e7:b3:ad:59:
                    20:52:b4:4c:b0:ad:d4:7a:1e:0e:8a:0e:f2:57:aa:
                    3f:ef:a3:8b:f0:3d:c2:01:f7:2d:c3:79:d6:4f:0a:
                    18:1b:54:79:78:63:3b:0e:f6:2b:f3:e0:d0:d4:68:
                    cd:74:81:2d:f6:dd:24:9e:ca:2c:ac:c0:ef:f7:ae:
                    60:c6:93:3d:7f:3b:1c:07:b1:41:aa:c7:e6:69:92:
                    85:0c:ac:07:6a:d3:f7:bf:25:5b:45:82:cf:2f:1f:
                    71:7a:de:14:86:74:8f:56:b6:28:14:09:36:47:69:
                    91:9f:2c:f7:17:83:0a:2b:d5:41:e4:8c:93:c1:c7:
                    35:41:fb:66:ad:36:c7:0d:d4:21:9b:0c:0c:d1:47:
                    8d:82:18:8a:35:f4:42:a4:14:2f:35:7f:bf:4f:08:
                    8c:b8:86:9b:ad:65:46:a1:40:aa:5d:cb:80:d2:76:
                    0e:ad:97:e6:fa:e0:b2:95:2a:3f:ba:3c:4f:be:80:
                    15:f7:96:42:00:8b:20:47:85:6a:bd:f7:6f:25:39:
                    18:1d:9f:e2:5f:5b:26:c2:5d:f4:79:49:72:48:3a:
                    c2:91
                Exponent: 65537 (0x10001)
        X509v3 extensions:
            X509v3 Basic Constraints: 
                CA:FALSE
            X509v3 Subject Key Identifier: 
                0D:61:4D:CB:B4:A5:7E:9F:22:22:F8:18:EF:EE:EE:AC:8A:AA:8F:1A
            X509v3 Authority Key Identifier: 
                keyid:EF:DC:B6:3D:4B:FD:A7:87:05:C5:22:3D:8B:DC:BF:99:2A:EE:E4:DB
                DirName:/C=US/ST=California/L=San Francisco/O=Copyleft Certificate Co/OU=My Organizational Unit/CN=ChangeMe/emailAddress=me@example.net
                serial:87:1E:1D:DC:6B:8C:66:88

            X509v3 Extended Key Usage: 
                TLS Web Client Authentication
            X509v3 Key Usage: 
                Digital Signature
    Signature Algorithm: sha256WithRSAEncryption
         d2:63:40:fc:59:30:0a:e4:6e:50:61:cb:d1:b1:f1:11:74:8c:
         e3:43:1d:3d:0e:3f:04:bd:66:f5:33:7a:12:04:66:10:c6:b8:
         78:75:3f:7a:3a:7f:9c:78:c4:8f:7e:7d:6f:f7:2a:a1:c5:8a:
         d7:0e:f4:91:85:bd:66:97:63:9f:31:2e:7e:03:b7:70:9f:b7:
         d4:ff:99:f0:57:bc:6b:8a:7f:01:26:56:e8:90:e7:3a:d4:fb:
         01:bb:69:01:e2:df:c9:97:f1:90:26:f6:2e:b4:06:c3:04:df:
         5c:4e:7c:5d:9f:ed:4b:ca:22:2a:19:9b:ac:e9:c8:99:00:ef:
         47:14:7e:e8:d3:14:c3:6b:3c:bd:dd:13:87:25:19:3f:80:37:
         24:27:0e:d2:16:fc:ef:a3:dd:7b:14:6f:f7:2c:4b:70:c5:7a:
         3d:88:5a:22:b7:84:f6:af:41:3a:26:32:9e:4e:6b:39:f6:ab:
         7b:0f:a6:12:01:07:f1:86:fc:93:ab:04:51:0f:94:1e:2f:5b:
         b8:19:e5:73:0b:2d:a4:a3:d4:d8:e1:74:04:88:aa:b7:e8:38:
         0d:fd:2d:f7:79:b6:75:56:78:28:77:75:47:05:0d:19:1b:0f:
         16:a8:30:4f:1b:da:f7:02:b6:f1:11:bb:08:56:65:0c:09:d9:
         73:7b:f7:53
-----BEGIN CERTIFICATE-----
MIIFNjCCBB6gAwIBAgIRAM5ov4k+uSwL6cFcdyYjTzAwDQYJKoZIhvcNAQELBQAw
ga8xCzAJBgNVBAYTAlVTMRMwEQYDVQQIDApDYWxpZm9ybmlhMRYwFAYDVQQHDA1T
YW4gRnJhbmNpc2NvMSAwHgYDVQQKDBdDb3B5bGVmdCBDZXJ0aWZpY2F0ZSBDbzEf
MB0GA1UECwwWTXkgT3JnYW5pemF0aW9uYWwgVW5pdDERMA8GA1UEAwwIQ2hhbmdl
TWUxHTAbBgkqhkiG9w0BCQEWDm1lQGV4YW1wbGUubmV0MB4XDTIxMDEyMzE4Mjkz
MVoXDTIyMDEyMzE4MjkzMVowgcExCzAJBgNVBAYTAlVTMQswCQYDVQQIDAJPSDET
MBEGA1UEBwwKQ2luY2lubmF0aTEhMB8GA1UECgwYVW5pdmVyc2l0eSBvZiBDaW5j
aW5uYXRpMTAwLgYDVQQLDCdEZXB0LiBFbGVjdHJpY2FsIEVuZy4gYW5kIENvbXB1
dGVyIFNjaS4xETAPBgNVBAMMCGNsaWVudDk2MSgwJgYJKoZIhvcNAQkBFhlmcmFu
Y29AZ2F1c3MuZWNlY3MudWMuZWR1MIIBIjANBgkqhkiG9w0BAQEFAAOCAQ8AMIIB
CgKCAQEA1NjhFl/ifZIKECfwbeO2ylzy2RXXjlbIeYcRek4ZN4Zi/UgRwHCXjeez
rVkgUrRMsK3Ueh4Oig7yV6o/76OL8D3CAfctw3nWTwoYG1R5eGM7DvYr8+DQ1GjN
dIEt9t0knsosrMDv965gxpM9fzscB7FBqsfmaZKFDKwHatP3vyVbRYLPLx9xet4U
hnSPVrYoFAk2R2mRnyz3F4MKK9VB5IyTwcc1QftmrTbHDdQhmwwM0UeNghiKNfRC
pBQvNX+/TwiMuIabrWVGoUCqXcuA0nYOrZfm+uCylSo/ujxPvoAV95ZCAIsgR4Vq
vfdvJTkYHZ/iX1smwl30eUlySDrCkQIDAQABo4IBNzCCATMwCQYDVR0TBAIwADAd
BgNVHQ4EFgQUDWFNy7Slfp8iIvgY7+7urIqqjxowgeQGA1UdIwSB3DCB2YAU79y2
PUv9p4cFxSI9i9y/mSru5NuhgbWkgbIwga8xCzAJBgNVBAYTAlVTMRMwEQYDVQQI
DApDYWxpZm9ybmlhMRYwFAYDVQQHDA1TYW4gRnJhbmNpc2NvMSAwHgYDVQQKDBdD
b3B5bGVmdCBDZXJ0aWZpY2F0ZSBDbzEfMB0GA1UECwwWTXkgT3JnYW5pemF0aW9u
YWwgVW5pdDERMA8GA1UEAwwIQ2hhbmdlTWUxHTAbBgkqhkiG9w0BCQEWDm1lQGV4
YW1wbGUubmV0ggkAhx4d3GuMZogwEwYDVR0lBAwwCgYIKwYBBQUHAwIwCwYDVR0P
BAQDAgeAMA0GCSqGSIb3DQEBCwUAA4IBAQDSY0D8WTAK5G5QYcvRsfERdIzjQx09
Dj8EvWb1M3oSBGYQxrh4dT96On+ceMSPfn1v9yqhxYrXDvSRhb1ml2OfMS5+A7dw
n7fU/5nwV7xrin8BJlbokOc61PsBu2kB4t/Jl/GQJvYutAbDBN9cTnxdn+1LyiIq
GZus6ciZAO9HFH7o0xTDazy93ROHJRk/gDckJw7SFvzvo917FG/3LEtwxXo9iFoi
t4T2r0E6JjKeTms59qt7D6YSAQfxhvyTqwRRD5QeL1u4GeVzCy2ko9TY4XQEiKq3
6DgN/S33ebZ1Vngod3VHBQ0ZGw8WqDBPG9r3ArbxEbsIVmUMCdlze/dT
-----END CERTIFICATE-----
