Certificate:
    Data:
        Version: 3 (0x2)
        Serial Number:
            d3:de:fa:1c:05:be:a6:8d:45:f9:f4:79:eb:29:3d:b9
    Signature Algorithm: sha256WithRSAEncryption
        Issuer: C=US, ST=California, L=San Francisco, O=Copyleft Certificate Co, OU=My Organizational Unit, CN=ChangeMe/emailAddress=me@example.net
        Validity
            Not Before: Nov 11 18:51:52 2023 GMT
            Not After : Nov 10 18:51:52 2024 GMT
        Subject: C=US, ST=OH, L=Cincinnati, O=University of Cincinnati ., OU=Dept. Elec. Comp. . Eng. Comp. Sci., CN=client29/emailAddress=franco@gauss.ececs.uc.edu
        Subject Public Key Info:
            Public Key Algorithm: rsaEncryption
                Public-Key: (2048 bit)
                Modulus:
                    00:b0:60:84:f4:90:66:1d:b2:86:f4:75:d0:6a:34:
                    8c:46:70:c3:2f:c0:ed:8b:b1:f4:c4:a3:38:5c:16:
                    f7:aa:fc:f5:9c:fb:a3:67:70:0e:2b:5b:02:a9:81:
                    76:28:8d:91:4c:9f:fd:a0:24:be:3f:a9:08:63:c0:
                    7e:e1:c8:94:3c:2f:3a:c8:27:e4:60:c4:2e:32:7e:
                    d6:a0:41:9b:92:20:09:d9:8d:b0:67:e1:88:53:0b:
                    bf:38:fe:04:87:1e:99:13:fd:67:6c:a3:d0:46:f6:
                    38:a3:35:db:66:cf:36:59:d4:5d:aa:60:8e:88:1b:
                    5d:2b:07:32:57:d5:80:4f:87:4a:03:d7:cb:d0:a0:
                    fe:d1:9e:3f:68:46:85:bf:76:85:df:1b:86:51:a2:
                    47:41:cd:8a:93:b4:4c:29:ad:27:9b:0a:e8:2b:f6:
                    28:bc:15:87:e1:77:fc:13:a5:90:71:6d:91:19:30:
                    f4:4a:58:f5:e9:2e:48:97:70:55:31:7f:b1:d9:b1:
                    75:47:c5:3a:a4:66:64:2b:b8:0c:31:a3:c4:61:e4:
                    ab:50:f3:da:66:9d:5a:b2:64:6e:18:d0:9a:69:64:
                    b6:21:7e:bf:47:19:97:06:4c:f7:9d:14:a9:fb:35:
                    6a:a7:1e:9e:7a:91:f6:03:1d:d1:85:b2:8c:a5:85:
                    0f:a7
                Exponent: 65537 (0x10001)
        X509v3 extensions:
            X509v3 Basic Constraints: 
                CA:FALSE
            X509v3 Subject Key Identifier: 
                DA:BC:64:4F:45:AD:7B:94:75:CB:84:BB:6F:84:5A:AF:99:F1:15:D2
            X509v3 Authority Key Identifier: 
                keyid:9C:0E:D5:A3:16:6F:C8:23:88:D1:12:C9:63:5D:18:D9:C9:FC:5B:E9
                DirName:/C=US/ST=California/L=San Francisco/O=Copyleft Certificate Co/OU=My Organizational Unit/CN=ChangeMe/emailAddress=me@example.net
                serial:A3:08:26:80:D2:47:98:75

            X509v3 Extended Key Usage: 
                TLS Web Client Authentication
            X509v3 Key Usage: 
                Digital Signature
    Signature Algorithm: sha256WithRSAEncryption
         31:ff:75:02:fa:1a:e2:ce:88:a2:bf:9c:25:3d:a9:3c:c3:57:
         4f:9c:11:0e:95:6c:10:c7:d6:74:83:8f:75:e9:54:5b:71:5f:
         4a:fe:5f:b2:e4:3a:46:e3:47:b6:4f:6a:f3:96:57:f3:7a:f2:
         96:02:b7:9f:57:fe:8c:1c:6d:d3:83:02:97:85:e1:89:00:10:
         bd:fc:b1:93:18:89:99:2d:43:de:c4:48:2f:0c:90:c9:c2:85:
         35:72:cd:64:35:61:3a:c2:17:c9:5a:12:cf:41:27:75:5e:0e:
         f3:16:cb:7b:38:c2:51:36:de:bc:d3:7e:63:c3:0e:5d:4d:dd:
         00:4c:c3:8b:44:98:d1:33:11:d4:ee:54:14:38:f7:ba:fb:cf:
         a8:60:09:b4:31:6a:85:62:ff:38:88:5c:34:1a:de:2e:d0:d7:
         12:62:3e:11:d0:b7:43:2b:6a:39:df:f3:8c:d2:7b:fc:a7:dd:
         3e:18:67:23:3f:20:0e:01:9a:ce:ff:15:b7:4a:99:95:32:93:
         a6:53:3a:22:b4:d5:85:8f:09:37:a9:d2:35:c8:74:5a:86:0d:
         7a:4a:cf:72:77:23:28:d9:79:ed:f6:14:59:c5:4d:0a:38:11:
         9f:1c:c0:00:22:13:a1:c3:e1:f5:55:44:e8:b8:6f:40:e8:99:
         8c:94:38:e0
-----BEGIN CERTIFICATE-----
MIIFNDCCBBygAwIBAgIRANPe+hwFvqaNRfn0eespPbkwDQYJKoZIhvcNAQELBQAw
ga8xCzAJBgNVBAYTAlVTMRMwEQYDVQQIDApDYWxpZm9ybmlhMRYwFAYDVQQHDA1T
YW4gRnJhbmNpc2NvMSAwHgYDVQQKDBdDb3B5bGVmdCBDZXJ0aWZpY2F0ZSBDbzEf
MB0GA1UECwwWTXkgT3JnYW5pemF0aW9uYWwgVW5pdDERMA8GA1UEAwwIQ2hhbmdl
TWUxHTAbBgkqhkiG9w0BCQEWDm1lQGV4YW1wbGUubmV0MB4XDTIzMTExMTE4NTE1
MloXDTI0MTExMDE4NTE1Mlowgb8xCzAJBgNVBAYTAlVTMQswCQYDVQQIDAJPSDET
MBEGA1UEBwwKQ2luY2lubmF0aTEjMCEGA1UECgwaVW5pdmVyc2l0eSBvZiBDaW5j
aW5uYXRpIC4xLDAqBgNVBAsMI0RlcHQuIEVsZWMuIENvbXAuIC4gRW5nLiBDb21w
LiBTY2kuMREwDwYDVQQDDAhjbGllbnQyOTEoMCYGCSqGSIb3DQEJARYZZnJhbmNv
QGdhdXNzLmVjZWNzLnVjLmVkdTCCASIwDQYJKoZIhvcNAQEBBQADggEPADCCAQoC
ggEBALBghPSQZh2yhvR10Go0jEZwwy/A7Yux9MSjOFwW96r89Zz7o2dwDitbAqmB
diiNkUyf/aAkvj+pCGPAfuHIlDwvOsgn5GDELjJ+1qBBm5IgCdmNsGfhiFMLvzj+
BIcemRP9Z2yj0Eb2OKM122bPNlnUXapgjogbXSsHMlfVgE+HSgPXy9Cg/tGeP2hG
hb92hd8bhlGiR0HNipO0TCmtJ5sK6Cv2KLwVh+F3/BOlkHFtkRkw9EpY9ekuSJdw
VTF/sdmxdUfFOqRmZCu4DDGjxGHkq1Dz2madWrJkbhjQmmlktiF+v0cZlwZM950U
qfs1aqcennqR9gMd0YWyjKWFD6cCAwEAAaOCATcwggEzMAkGA1UdEwQCMAAwHQYD
VR0OBBYEFNq8ZE9FrXuUdcuEu2+EWq+Z8RXSMIHkBgNVHSMEgdwwgdmAFJwO1aMW
b8gjiNESyWNdGNnJ/FvpoYG1pIGyMIGvMQswCQYDVQQGEwJVUzETMBEGA1UECAwK
Q2FsaWZvcm5pYTEWMBQGA1UEBwwNU2FuIEZyYW5jaXNjbzEgMB4GA1UECgwXQ29w
eWxlZnQgQ2VydGlmaWNhdGUgQ28xHzAdBgNVBAsMFk15IE9yZ2FuaXphdGlvbmFs
IFVuaXQxETAPBgNVBAMMCENoYW5nZU1lMR0wGwYJKoZIhvcNAQkBFg5tZUBleGFt
cGxlLm5ldIIJAKMIJoDSR5h1MBMGA1UdJQQMMAoGCCsGAQUFBwMCMAsGA1UdDwQE
AwIHgDANBgkqhkiG9w0BAQsFAAOCAQEAMf91Avoa4s6Ior+cJT2pPMNXT5wRDpVs
EMfWdIOPdelUW3FfSv5fsuQ6RuNHtk9q85ZX83rylgK3n1f+jBxt04MCl4XhiQAQ
vfyxkxiJmS1D3sRILwyQycKFNXLNZDVhOsIXyVoSz0EndV4O8xbLezjCUTbevNN+
Y8MOXU3dAEzDi0SY0TMR1O5UFDj3uvvPqGAJtDFqhWL/OIhcNBreLtDXEmI+EdC3
QytqOd/zjNJ7/KfdPhhnIz8gDgGazv8Vt0qZlTKTplM6IrTVhY8JN6nSNch0WoYN
ekrPcncjKNl57fYUWcVNCjgRnxzAACITocPh9VVE6LhvQOiZjJQ44A==
-----END CERTIFICATE-----
