Certificate:
    Data:
        Version: 3 (0x2)
        Serial Number:
            d4:4d:e1:4c:95:c6:eb:a8:af:df:1f:89:82:af:2a:57
    Signature Algorithm: sha256WithRSAEncryption
        Issuer: C=US, ST=California, L=San Francisco, O=Copyleft Certificate Co, OU=My Organizational Unit, CN=ChangeMe/emailAddress=me@example.net
        Validity
            Not Before: Nov 11 18:50:56 2023 GMT
            Not After : Nov 10 18:50:56 2024 GMT
        Subject: C=US, ST=OH, L=Cincinnati, O=University of Cincinnati ., OU=Dept. Elec. Comp. . Eng. Comp. Sci., CN=client15/emailAddress=franco@gauss.ececs.uc.edu
        Subject Public Key Info:
            Public Key Algorithm: rsaEncryption
                Public-Key: (2048 bit)
                Modulus:
                    00:d5:06:f2:68:f1:f6:26:4b:c0:a7:e9:e1:c7:86:
                    75:03:80:77:bb:08:a1:f1:a8:d1:b2:9f:76:d6:66:
                    d4:1b:af:af:0d:ea:9a:06:19:da:e0:b3:0c:65:42:
                    cd:74:36:98:77:ca:ce:2d:b2:17:af:a2:78:7a:26:
                    93:4a:f4:bf:ba:bc:9c:60:c8:2e:d1:06:24:87:99:
                    8f:f9:eb:24:e9:53:b6:14:4b:fa:48:6f:6a:da:59:
                    29:5d:86:51:b9:83:2c:0d:90:d3:9a:98:ef:ec:c2:
                    c7:ee:da:3c:53:f2:30:e3:cc:f1:d1:28:22:2b:25:
                    b9:47:19:02:fb:d5:d9:c5:e3:d7:ce:54:a4:15:4b:
                    45:c5:c3:b5:a3:fc:e7:e6:23:8a:5d:b2:1f:fb:57:
                    30:10:ff:23:dc:09:9b:a7:02:b1:e7:98:18:e9:3e:
                    ed:fd:0f:23:75:be:14:2d:01:b0:da:db:a3:89:4a:
                    d8:be:98:11:ff:8c:1c:59:53:1a:b9:37:07:3b:ef:
                    fe:92:9f:df:f4:9b:bd:44:a7:9b:2a:e2:8c:63:b4:
                    79:6d:b1:57:21:b4:d3:b9:70:60:ce:01:2c:10:e2:
                    92:ea:5a:13:9a:78:2f:ee:91:26:59:4a:7d:ab:f6:
                    cc:68:09:41:dc:e9:36:32:f0:a3:16:06:e6:f8:03:
                    d7:b3
                Exponent: 65537 (0x10001)
        X509v3 extensions:
            X509v3 Basic Constraints: 
                CA:FALSE
            X509v3 Subject Key Identifier: 
                B7:A4:9E:2C:B7:B5:2C:7B:22:3A:73:E2:27:2A:E5:47:E2:0E:DB:6D
            X509v3 Authority Key Identifier: 
                keyid:9C:0E:D5:A3:16:6F:C8:23:88:D1:12:C9:63:5D:18:D9:C9:FC:5B:E9
                DirName:/C=US/ST=California/L=San Francisco/O=Copyleft Certificate Co/OU=My Organizational Unit/CN=ChangeMe/emailAddress=me@example.net
                serial:A3:08:26:80:D2:47:98:75

            X509v3 Extended Key Usage: 
                TLS Web Client Authentication
            X509v3 Key Usage: 
                Digital Signature
    Signature Algorithm: sha256WithRSAEncryption
         1a:9e:42:c0:3d:2c:f0:04:dc:05:65:31:b3:86:9f:41:43:41:
         26:7b:e2:5b:74:30:86:f9:77:2b:b9:7d:06:3d:0b:62:45:fc:
         cd:6e:19:ff:e9:77:fb:18:fe:a8:ff:f4:1e:49:1c:0e:78:20:
         2d:bc:14:89:d9:ba:21:2b:c0:95:02:f9:e3:c2:95:1a:78:4c:
         b4:e7:b0:9a:9f:97:75:07:3c:95:04:e3:a7:04:21:95:f8:e8:
         36:61:d7:3b:8d:45:d6:3a:d6:6b:48:26:a1:ae:dd:72:fe:e2:
         e2:52:99:83:d6:13:e7:34:f4:bc:bc:23:44:56:95:c0:04:29:
         df:b5:e4:9f:79:79:bb:45:c4:39:73:f2:cb:08:10:8f:f4:58:
         32:a9:e5:43:32:4c:14:f8:15:28:71:66:a3:77:9c:1d:6d:82:
         e5:dc:4a:38:30:90:26:69:f7:35:29:38:55:db:65:e6:d8:5c:
         e7:64:77:6c:74:75:ed:88:99:d9:dc:0f:be:b2:62:71:52:1b:
         70:8b:ea:2c:3b:07:80:a1:04:bd:4f:4a:c5:26:e5:a8:29:b7:
         23:fa:f4:91:b9:5f:25:9d:ba:0e:92:85:6d:2a:f3:58:4f:09:
         7d:bc:26:04:23:07:70:9c:73:9c:1b:29:c3:7b:0f:93:f6:72:
         11:34:f3:29
-----BEGIN CERTIFICATE-----
MIIFNDCCBBygAwIBAgIRANRN4UyVxuuor98fiYKvKlcwDQYJKoZIhvcNAQELBQAw
ga8xCzAJBgNVBAYTAlVTMRMwEQYDVQQIDApDYWxpZm9ybmlhMRYwFAYDVQQHDA1T
YW4gRnJhbmNpc2NvMSAwHgYDVQQKDBdDb3B5bGVmdCBDZXJ0aWZpY2F0ZSBDbzEf
MB0GA1UECwwWTXkgT3JnYW5pemF0aW9uYWwgVW5pdDERMA8GA1UEAwwIQ2hhbmdl
TWUxHTAbBgkqhkiG9w0BCQEWDm1lQGV4YW1wbGUubmV0MB4XDTIzMTExMTE4NTA1
NloXDTI0MTExMDE4NTA1Nlowgb8xCzAJBgNVBAYTAlVTMQswCQYDVQQIDAJPSDET
MBEGA1UEBwwKQ2luY2lubmF0aTEjMCEGA1UECgwaVW5pdmVyc2l0eSBvZiBDaW5j
aW5uYXRpIC4xLDAqBgNVBAsMI0RlcHQuIEVsZWMuIENvbXAuIC4gRW5nLiBDb21w
LiBTY2kuMREwDwYDVQQDDAhjbGllbnQxNTEoMCYGCSqGSIb3DQEJARYZZnJhbmNv
QGdhdXNzLmVjZWNzLnVjLmVkdTCCASIwDQYJKoZIhvcNAQEBBQADggEPADCCAQoC
ggEBANUG8mjx9iZLwKfp4ceGdQOAd7sIofGo0bKfdtZm1Buvrw3qmgYZ2uCzDGVC
zXQ2mHfKzi2yF6+ieHomk0r0v7q8nGDILtEGJIeZj/nrJOlTthRL+khvatpZKV2G
UbmDLA2Q05qY7+zCx+7aPFPyMOPM8dEoIisluUcZAvvV2cXj185UpBVLRcXDtaP8
5+Yjil2yH/tXMBD/I9wJm6cCseeYGOk+7f0PI3W+FC0BsNrbo4lK2L6YEf+MHFlT
Grk3Bzvv/pKf3/SbvUSnmyrijGO0eW2xVyG007lwYM4BLBDikupaE5p4L+6RJllK
fav2zGgJQdzpNjLwoxYG5vgD17MCAwEAAaOCATcwggEzMAkGA1UdEwQCMAAwHQYD
VR0OBBYEFLekniy3tSx7Ijpz4icq5UfiDtttMIHkBgNVHSMEgdwwgdmAFJwO1aMW
b8gjiNESyWNdGNnJ/FvpoYG1pIGyMIGvMQswCQYDVQQGEwJVUzETMBEGA1UECAwK
Q2FsaWZvcm5pYTEWMBQGA1UEBwwNU2FuIEZyYW5jaXNjbzEgMB4GA1UECgwXQ29w
eWxlZnQgQ2VydGlmaWNhdGUgQ28xHzAdBgNVBAsMFk15IE9yZ2FuaXphdGlvbmFs
IFVuaXQxETAPBgNVBAMMCENoYW5nZU1lMR0wGwYJKoZIhvcNAQkBFg5tZUBleGFt
cGxlLm5ldIIJAKMIJoDSR5h1MBMGA1UdJQQMMAoGCCsGAQUFBwMCMAsGA1UdDwQE
AwIHgDANBgkqhkiG9w0BAQsFAAOCAQEAGp5CwD0s8ATcBWUxs4afQUNBJnviW3Qw
hvl3K7l9Bj0LYkX8zW4Z/+l3+xj+qP/0HkkcDnggLbwUidm6ISvAlQL548KVGnhM
tOewmp+XdQc8lQTjpwQhlfjoNmHXO41F1jrWa0gmoa7dcv7i4lKZg9YT5zT0vLwj
RFaVwAQp37Xkn3l5u0XEOXPyywgQj/RYMqnlQzJMFPgVKHFmo3ecHW2C5dxKODCQ
Jmn3NSk4Vdtl5thc52R3bHR17YiZ2dwPvrJicVIbcIvqLDsHgKEEvU9KxSblqCm3
I/r0kblfJZ26DpKFbSrzWE8JfbwmBCMHcJxznBspw3sPk/ZyETTzKQ==
-----END CERTIFICATE-----
