Certificate:
    Data:
        Version: 3 (0x2)
        Serial Number:
            d6:df:c6:d6:48:8f:78:02:ec:f4:1d:b2:9d:37:c1:37
    Signature Algorithm: sha256WithRSAEncryption
        Issuer: C=US, ST=California, L=San Francisco, O=Copyleft Certificate Co, OU=My Organizational Unit, CN=ChangeMe/emailAddress=me@example.net
        Validity
            Not Before: Nov 13 11:49:06 2023 GMT
            Not After : Nov 12 11:49:06 2024 GMT
        Subject: C=US, ST=OH, L=Cincinnati, O=University of Cincinnati, OU=Dept. Elec. Comp. Eng. Comp. Sci., CN=client40/emailAddress=franco@gauss.ececs.uc.edu
        Subject Public Key Info:
            Public Key Algorithm: rsaEncryption
                Public-Key: (2048 bit)
                Modulus:
                    00:c8:42:61:e1:ff:c3:92:2d:9c:74:87:2f:79:73:
                    98:ef:06:c3:b5:81:13:04:a7:67:50:64:93:2c:33:
                    6d:95:e1:c8:68:d3:0c:88:ed:89:79:a3:37:26:2b:
                    35:7a:fd:56:fa:21:68:1f:d2:7b:0a:e8:46:94:63:
                    3f:c0:53:9d:b5:00:79:04:c3:fa:5d:79:d1:ce:d0:
                    6e:28:31:e3:9a:ff:ad:fc:23:5e:6b:87:ea:1d:e6:
                    8d:fd:2c:0b:36:5f:82:37:e9:7a:f6:64:82:4c:64:
                    74:c8:a9:ae:e2:d6:14:81:3c:c9:ab:c2:23:48:58:
                    ee:32:af:57:11:3c:6f:66:f5:24:71:2f:d9:0f:0e:
                    56:44:be:8d:87:82:5e:7b:5c:af:21:ef:a5:bf:ff:
                    e9:7f:0c:6e:33:e4:ee:ab:4c:82:fe:94:b3:1d:bc:
                    46:01:09:b1:d4:45:0f:4b:0a:e0:c3:9a:9c:20:3e:
                    8d:3d:ed:0a:f9:01:8e:ff:f6:aa:20:75:6a:cb:1b:
                    78:a8:f6:5b:51:87:bb:b1:4a:75:f8:bc:6d:dd:79:
                    e6:f1:54:85:6d:e3:e0:55:6f:b8:05:66:6e:c4:02:
                    ef:60:29:26:8e:6d:b1:b3:d6:fe:39:a9:f1:bf:02:
                    7a:7e:a8:48:96:fd:13:76:36:8c:58:02:4b:5e:f1:
                    1e:69
                Exponent: 65537 (0x10001)
        X509v3 extensions:
            X509v3 Basic Constraints: 
                CA:FALSE
            X509v3 Subject Key Identifier: 
                B9:BF:A8:3B:75:AC:F1:20:95:EE:EE:0E:8F:74:80:D7:7E:D1:B3:01
            X509v3 Authority Key Identifier: 
                keyid:B4:AE:AB:ED:FC:ED:84:AA:AD:77:5D:7C:84:28:1C:CA:CE:AE:2A:44
                DirName:/C=US/ST=California/L=San Francisco/O=Copyleft Certificate Co/OU=My Organizational Unit/CN=ChangeMe/emailAddress=me@example.net
                serial:BD:6C:3B:F4:D3:07:C9:D1

            X509v3 Extended Key Usage: 
                TLS Web Client Authentication
            X509v3 Key Usage: 
                Digital Signature
    Signature Algorithm: sha256WithRSAEncryption
         4a:e5:cb:80:fc:90:b3:dd:f3:50:22:e5:2d:2a:5a:c6:e2:53:
         f1:50:dc:e7:2b:63:e5:35:23:56:b4:88:2f:3a:b7:44:aa:28:
         c4:3c:93:84:85:39:68:2f:91:a3:12:13:7a:96:c3:76:26:84:
         b4:18:ac:d6:42:d6:52:10:f4:7c:f7:e1:91:06:62:65:d9:ba:
         3d:a5:e8:3e:74:80:02:b4:88:98:61:eb:fd:2b:60:3e:cf:2c:
         a9:4a:4f:b3:d5:1e:7b:07:13:9a:6c:2b:2c:67:0d:2a:e1:60:
         d9:54:81:8b:04:59:fc:08:42:9b:9c:02:1f:95:13:ea:40:fe:
         54:d1:f5:56:35:49:d9:2e:3f:11:3e:20:50:83:98:3b:a4:90:
         80:e5:62:1f:bd:75:36:a6:e2:bd:9f:18:31:08:39:36:de:d8:
         42:42:76:16:66:69:0c:38:1b:be:94:74:4f:2c:5d:f2:e8:bb:
         14:ef:01:4d:9f:e6:8d:71:59:5c:91:1a:34:94:2a:3a:2b:f9:
         75:9f:2b:05:96:e8:f7:0a:b5:82:3c:6b:80:1d:da:ba:e0:8d:
         3a:57:6d:33:d0:09:3b:95:c6:b8:71:14:4d:cc:64:4b:24:dd:
         b8:6b:c7:97:14:e2:72:c8:d8:fc:c4:5b:78:17:ef:d3:73:44:
         37:d7:77:28
-----BEGIN CERTIFICATE-----
MIIFMDCCBBigAwIBAgIRANbfxtZIj3gC7PQdsp03wTcwDQYJKoZIhvcNAQELBQAw
ga8xCzAJBgNVBAYTAlVTMRMwEQYDVQQIDApDYWxpZm9ybmlhMRYwFAYDVQQHDA1T
YW4gRnJhbmNpc2NvMSAwHgYDVQQKDBdDb3B5bGVmdCBDZXJ0aWZpY2F0ZSBDbzEf
MB0GA1UECwwWTXkgT3JnYW5pemF0aW9uYWwgVW5pdDERMA8GA1UEAwwIQ2hhbmdl
TWUxHTAbBgkqhkiG9w0BCQEWDm1lQGV4YW1wbGUubmV0MB4XDTIzMTExMzExNDkw
NloXDTI0MTExMjExNDkwNlowgbsxCzAJBgNVBAYTAlVTMQswCQYDVQQIDAJPSDET
MBEGA1UEBwwKQ2luY2lubmF0aTEhMB8GA1UECgwYVW5pdmVyc2l0eSBvZiBDaW5j
aW5uYXRpMSowKAYDVQQLDCFEZXB0LiBFbGVjLiBDb21wLiBFbmcuIENvbXAuIFNj
aS4xETAPBgNVBAMMCGNsaWVudDQwMSgwJgYJKoZIhvcNAQkBFhlmcmFuY29AZ2F1
c3MuZWNlY3MudWMuZWR1MIIBIjANBgkqhkiG9w0BAQEFAAOCAQ8AMIIBCgKCAQEA
yEJh4f/Dki2cdIcveXOY7wbDtYETBKdnUGSTLDNtleHIaNMMiO2JeaM3Jis1ev1W
+iFoH9J7CuhGlGM/wFOdtQB5BMP6XXnRztBuKDHjmv+t/CNea4fqHeaN/SwLNl+C
N+l69mSCTGR0yKmu4tYUgTzJq8IjSFjuMq9XETxvZvUkcS/ZDw5WRL6Nh4Jee1yv
Ie+lv//pfwxuM+Tuq0yC/pSzHbxGAQmx1EUPSwrgw5qcID6NPe0K+QGO//aqIHVq
yxt4qPZbUYe7sUp1+Lxt3Xnm8VSFbePgVW+4BWZuxALvYCkmjm2xs9b+OanxvwJ6
fqhIlv0TdjaMWAJLXvEeaQIDAQABo4IBNzCCATMwCQYDVR0TBAIwADAdBgNVHQ4E
FgQUub+oO3Ws8SCV7u4Oj3SA137RswEwgeQGA1UdIwSB3DCB2YAUtK6r7fzthKqt
d118hCgcys6uKkShgbWkgbIwga8xCzAJBgNVBAYTAlVTMRMwEQYDVQQIDApDYWxp
Zm9ybmlhMRYwFAYDVQQHDA1TYW4gRnJhbmNpc2NvMSAwHgYDVQQKDBdDb3B5bGVm
dCBDZXJ0aWZpY2F0ZSBDbzEfMB0GA1UECwwWTXkgT3JnYW5pemF0aW9uYWwgVW5p
dDERMA8GA1UEAwwIQ2hhbmdlTWUxHTAbBgkqhkiG9w0BCQEWDm1lQGV4YW1wbGUu
bmV0ggkAvWw79NMHydEwEwYDVR0lBAwwCgYIKwYBBQUHAwIwCwYDVR0PBAQDAgeA
MA0GCSqGSIb3DQEBCwUAA4IBAQBK5cuA/JCz3fNQIuUtKlrG4lPxUNznK2PlNSNW
tIgvOrdEqijEPJOEhTloL5GjEhN6lsN2JoS0GKzWQtZSEPR89+GRBmJl2bo9peg+
dIACtIiYYev9K2A+zyypSk+z1R57BxOabCssZw0q4WDZVIGLBFn8CEKbnAIflRPq
QP5U0fVWNUnZLj8RPiBQg5g7pJCA5WIfvXU2puK9nxgxCDk23thCQnYWZmkMOBu+
lHRPLF3y6LsU7wFNn+aNcVlckRo0lCo6K/l1nysFluj3CrWCPGuAHdq64I06V20z
0Ak7lca4cRRNzGRLJN24a8eXFOJyyNj8xFt4F+/Tc0Q313co
-----END CERTIFICATE-----
