Certificate:
    Data:
        Version: 3 (0x2)
        Serial Number:
            da:b1:91:89:5b:c6:a9:61:b4:ce:99:1c:20:8e:0a:02
    Signature Algorithm: sha256WithRSAEncryption
        Issuer: C=US, ST=California, L=San Francisco, O=Copyleft Certificate Co, OU=My Organizational Unit, CN=ChangeMe/emailAddress=me@example.net
        Validity
            Not Before: Jan 23 18:29:51 2021 GMT
            Not After : Jan 23 18:29:51 2022 GMT
        Subject: C=US, ST=OH, L=Cincinnati, O=University of Cincinnati, OU=Dept. Electrical Eng. and Computer Sci., CN=client109/emailAddress=franco@gauss.ececs.uc.edu
        Subject Public Key Info:
            Public Key Algorithm: rsaEncryption
                Public-Key: (2048 bit)
                Modulus:
                    00:cb:f3:00:c7:68:a9:51:88:62:a3:e5:f8:de:4b:
                    83:94:9f:b6:7f:c2:42:11:be:60:96:28:eb:57:3c:
                    d6:b4:ec:f5:c1:31:9c:59:f2:18:eb:56:d4:63:54:
                    7d:e1:23:a4:46:e5:cd:5c:3e:b8:ad:a1:db:7e:da:
                    92:9b:11:e3:c0:a0:cd:f7:2f:ce:89:0a:c0:2d:aa:
                    f8:82:90:98:33:0a:cd:ec:c3:24:18:81:21:4a:51:
                    f6:d2:c0:01:71:91:15:b1:d4:bf:e2:91:e5:5f:59:
                    18:f4:53:be:71:e6:93:cb:c0:36:df:4a:1f:e3:3a:
                    ad:3b:42:80:30:0a:a4:ee:88:36:99:4f:1a:6a:a8:
                    d7:55:89:34:2c:2c:5f:34:5b:59:63:4d:98:b5:21:
                    04:61:96:b5:c6:62:99:5d:5c:6d:cc:84:0f:e3:e8:
                    de:76:1c:bc:29:71:ee:a9:34:8a:26:98:1d:ba:45:
                    13:c8:31:37:f8:0f:32:16:3f:a4:1f:5d:97:cf:ae:
                    f7:47:33:b3:3e:ed:53:2d:d0:00:31:d2:21:6a:01:
                    70:48:32:56:4f:4b:4f:70:ee:60:2c:b3:fb:5e:6b:
                    39:a7:f2:7a:95:bf:50:10:c0:c7:f4:e1:7d:b1:5d:
                    9d:81:ed:f4:10:27:11:10:11:f6:3e:ac:c1:46:30:
                    f7:75
                Exponent: 65537 (0x10001)
        X509v3 extensions:
            X509v3 Basic Constraints: 
                CA:FALSE
            X509v3 Subject Key Identifier: 
                47:D0:CC:DC:77:3E:B5:90:F0:4C:69:B9:3D:DA:47:5E:D1:08:B7:BB
            X509v3 Authority Key Identifier: 
                keyid:EF:DC:B6:3D:4B:FD:A7:87:05:C5:22:3D:8B:DC:BF:99:2A:EE:E4:DB
                DirName:/C=US/ST=California/L=San Francisco/O=Copyleft Certificate Co/OU=My Organizational Unit/CN=ChangeMe/emailAddress=me@example.net
                serial:87:1E:1D:DC:6B:8C:66:88

            X509v3 Extended Key Usage: 
                TLS Web Client Authentication
            X509v3 Key Usage: 
                Digital Signature
    Signature Algorithm: sha256WithRSAEncryption
         6d:06:8c:fc:88:11:7d:0c:6c:ea:f3:2d:3f:e2:f0:63:ef:ef:
         06:86:d8:31:52:1b:7f:c5:c0:95:8c:9d:1e:f8:52:2c:42:9e:
         6e:a5:c8:d1:68:96:eb:4a:35:1f:8c:97:62:54:fc:d2:ab:61:
         02:9a:5d:86:c1:a6:05:6d:ab:ed:ef:f0:d4:b2:d4:b5:bf:51:
         6b:90:10:b8:7a:c8:a5:b9:a0:8e:b7:54:41:e0:a8:70:90:0a:
         35:9d:77:96:f2:34:c6:4a:38:ae:09:07:25:a1:d1:dc:c4:38:
         8b:e5:4e:7f:66:55:f8:9a:f9:5f:fd:01:55:3b:31:e0:7f:a3:
         95:27:28:bb:9f:7d:45:0b:c2:34:d3:59:4d:7a:f3:5c:02:63:
         74:50:e2:91:56:36:26:6a:3e:b4:fb:78:36:3e:20:d0:db:31:
         e7:fa:67:36:c0:4f:ec:dd:ad:7b:60:57:30:1b:dc:e8:bc:18:
         c9:23:01:6d:68:e7:d1:f9:a0:ce:71:81:88:8e:5b:fc:cc:f3:
         ff:e2:fd:0b:82:45:81:04:73:ae:30:c9:e8:f7:a6:35:1d:e7:
         1a:2c:2f:1e:58:72:ad:ae:07:28:95:e8:ee:b9:fa:eb:0e:da:
         c0:15:19:cd:85:45:50:8e:5f:cf:66:01:7e:f7:b4:71:50:09:
         f1:bf:d8:be
-----BEGIN CERTIFICATE-----
MIIFNzCCBB+gAwIBAgIRANqxkYlbxqlhtM6ZHCCOCgIwDQYJKoZIhvcNAQELBQAw
ga8xCzAJBgNVBAYTAlVTMRMwEQYDVQQIDApDYWxpZm9ybmlhMRYwFAYDVQQHDA1T
YW4gRnJhbmNpc2NvMSAwHgYDVQQKDBdDb3B5bGVmdCBDZXJ0aWZpY2F0ZSBDbzEf
MB0GA1UECwwWTXkgT3JnYW5pemF0aW9uYWwgVW5pdDERMA8GA1UEAwwIQ2hhbmdl
TWUxHTAbBgkqhkiG9w0BCQEWDm1lQGV4YW1wbGUubmV0MB4XDTIxMDEyMzE4Mjk1
MVoXDTIyMDEyMzE4Mjk1MVowgcIxCzAJBgNVBAYTAlVTMQswCQYDVQQIDAJPSDET
MBEGA1UEBwwKQ2luY2lubmF0aTEhMB8GA1UECgwYVW5pdmVyc2l0eSBvZiBDaW5j
aW5uYXRpMTAwLgYDVQQLDCdEZXB0LiBFbGVjdHJpY2FsIEVuZy4gYW5kIENvbXB1
dGVyIFNjaS4xEjAQBgNVBAMMCWNsaWVudDEwOTEoMCYGCSqGSIb3DQEJARYZZnJh
bmNvQGdhdXNzLmVjZWNzLnVjLmVkdTCCASIwDQYJKoZIhvcNAQEBBQADggEPADCC
AQoCggEBAMvzAMdoqVGIYqPl+N5Lg5Sftn/CQhG+YJYo61c81rTs9cExnFnyGOtW
1GNUfeEjpEblzVw+uK2h237akpsR48CgzfcvzokKwC2q+IKQmDMKzezDJBiBIUpR
9tLAAXGRFbHUv+KR5V9ZGPRTvnHmk8vANt9KH+M6rTtCgDAKpO6INplPGmqo11WJ
NCwsXzRbWWNNmLUhBGGWtcZimV1cbcyED+Po3nYcvClx7qk0iiaYHbpFE8gxN/gP
MhY/pB9dl8+u90czsz7tUy3QADHSIWoBcEgyVk9LT3DuYCyz+15rOafyepW/UBDA
x/ThfbFdnYHt9BAnERAR9j6swUYw93UCAwEAAaOCATcwggEzMAkGA1UdEwQCMAAw
HQYDVR0OBBYEFEfQzNx3PrWQ8ExpuT3aR17RCLe7MIHkBgNVHSMEgdwwgdmAFO/c
tj1L/aeHBcUiPYvcv5kq7uTboYG1pIGyMIGvMQswCQYDVQQGEwJVUzETMBEGA1UE
CAwKQ2FsaWZvcm5pYTEWMBQGA1UEBwwNU2FuIEZyYW5jaXNjbzEgMB4GA1UECgwX
Q29weWxlZnQgQ2VydGlmaWNhdGUgQ28xHzAdBgNVBAsMFk15IE9yZ2FuaXphdGlv
bmFsIFVuaXQxETAPBgNVBAMMCENoYW5nZU1lMR0wGwYJKoZIhvcNAQkBFg5tZUBl
eGFtcGxlLm5ldIIJAIceHdxrjGaIMBMGA1UdJQQMMAoGCCsGAQUFBwMCMAsGA1Ud
DwQEAwIHgDANBgkqhkiG9w0BAQsFAAOCAQEAbQaM/IgRfQxs6vMtP+LwY+/vBobY
MVIbf8XAlYydHvhSLEKebqXI0WiW60o1H4yXYlT80qthAppdhsGmBW2r7e/w1LLU
tb9Ra5AQuHrIpbmgjrdUQeCocJAKNZ13lvI0xko4rgkHJaHR3MQ4i+VOf2ZV+Jr5
X/0BVTsx4H+jlScou599RQvCNNNZTXrzXAJjdFDikVY2Jmo+tPt4Nj4g0Nsx5/pn
NsBP7N2te2BXMBvc6LwYySMBbWjn0fmgznGBiI5b/Mzz/+L9C4JFgQRzrjDJ6Pem
NR3nGiwvHlhyra4HKJXo7rn66w7awBUZzYVFUI5fz2YBfve0cVAJ8b/Yvg==
-----END CERTIFICATE-----
