Certificate:
    Data:
        Version: 3 (0x2)
        Serial Number:
            db:23:4d:07:ee:fb:8d:ad:7f:eb:40:ea:1e:3a:20:27
    Signature Algorithm: sha256WithRSAEncryption
        Issuer: C=US, ST=California, L=San Francisco, O=Copyleft Certificate Co, OU=My Organizational Unit, CN=ChangeMe/emailAddress=me@example.net
        Validity
            Not Before: Nov 12 11:48:31 2023 GMT
            Not After : Nov 11 11:48:31 2024 GMT
        Subject: C=US, ST=OH, L=Cincinnati, O=University of Cincinnati, OU=Dept. Elec. Comp. Eng. Comp. Sci., CN=client34/emailAddress=franco@gauss.ececs.uc.edu
        Subject Public Key Info:
            Public Key Algorithm: rsaEncryption
                Public-Key: (2048 bit)
                Modulus:
                    00:d3:95:5d:0d:7c:4b:a5:55:ff:29:b0:9e:21:f5:
                    69:cf:39:cb:f7:c3:d3:de:58:9d:c3:c6:6a:7b:c1:
                    1f:d1:7b:6f:dc:08:4c:c9:9d:be:82:1e:ca:14:c5:
                    33:53:9e:5a:f9:a1:c8:23:1c:c6:fe:09:b6:85:b6:
                    bf:0d:f3:f1:38:f3:f9:02:a6:45:53:da:1d:55:4d:
                    2e:ba:15:4d:ca:f5:77:2d:ce:b8:34:41:8a:66:44:
                    39:58:a0:14:44:58:45:e9:93:74:9b:b4:fe:56:c7:
                    26:89:47:d8:ec:70:66:57:91:c7:e3:cb:88:bb:37:
                    f1:d3:12:85:46:bf:f5:19:48:1d:a6:27:fb:9b:ed:
                    76:70:6b:f4:d2:dd:1d:66:6d:dc:45:86:f3:74:12:
                    d3:86:60:d4:55:af:25:c0:55:b6:26:e1:cb:a4:f5:
                    4f:f9:46:41:f0:16:18:d0:07:40:6e:42:9e:3b:fd:
                    dc:73:ed:1d:6a:c6:15:9f:f3:84:ab:9c:ee:ce:aa:
                    aa:ae:1a:bc:ae:2f:98:e8:69:cb:70:30:41:00:ee:
                    7f:a9:cd:5f:48:30:b3:32:22:8a:26:81:bb:f6:79:
                    0d:22:81:54:60:a0:f9:18:48:a4:90:2f:33:1c:1c:
                    f3:74:15:58:7f:4f:72:79:d9:7b:b7:4a:73:d1:c4:
                    a5:51
                Exponent: 65537 (0x10001)
        X509v3 extensions:
            X509v3 Basic Constraints: 
                CA:FALSE
            X509v3 Subject Key Identifier: 
                D2:8E:52:BC:C5:FB:6F:4B:50:09:30:B6:9F:8D:4A:63:1F:E4:51:F0
            X509v3 Authority Key Identifier: 
                keyid:C4:46:F2:96:38:56:02:B8:9D:09:04:52:25:91:35:97:6A:D7:B1:F0
                DirName:/C=US/ST=California/L=San Francisco/O=Copyleft Certificate Co/OU=My Organizational Unit/CN=ChangeMe/emailAddress=me@example.net
                serial:D1:5A:15:1C:F0:20:95:62

            X509v3 Extended Key Usage: 
                TLS Web Client Authentication
            X509v3 Key Usage: 
                Digital Signature
    Signature Algorithm: sha256WithRSAEncryption
         86:3f:f3:09:44:d9:48:c6:35:57:d0:7b:98:ad:bc:eb:83:ba:
         df:dd:6d:a1:1d:3b:1a:ca:95:02:a2:00:90:b6:26:54:bf:7d:
         00:79:80:63:be:5b:7b:5a:13:df:ca:c0:83:92:53:68:a3:31:
         89:54:18:b5:0c:c9:83:de:a8:15:9c:b0:14:98:3e:46:ce:11:
         83:3b:c9:77:41:8c:c0:01:71:8f:2b:09:8f:53:cb:46:84:e8:
         0d:21:a6:66:b0:79:81:ba:8c:ca:03:df:aa:dd:59:81:e2:a3:
         bc:8b:98:34:9e:8b:b3:0e:4e:20:b7:8f:83:ca:a6:a4:43:bc:
         97:fe:dd:a1:5e:16:f3:98:9a:19:56:d0:a6:ef:dd:4f:53:32:
         12:26:62:a7:4e:f6:ce:61:85:5b:58:7f:1c:e4:43:19:a9:5f:
         6b:54:2b:32:ac:5d:24:f5:2a:de:79:8e:3b:bc:e0:df:cd:39:
         5d:a5:0b:1e:7a:b4:c8:2b:6a:a0:53:e6:a9:d4:14:c3:11:e0:
         fb:af:21:f9:42:8b:27:8b:0c:8a:97:b1:bd:18:41:8d:87:05:
         6a:32:bf:88:fc:97:64:4c:6c:39:a5:48:4f:e5:4f:30:e4:7f:
         8d:94:3d:2e:29:84:96:d5:c0:9c:19:d6:2a:72:2f:55:52:7d:
         e0:c6:5b:cb
-----BEGIN CERTIFICATE-----
MIIFMDCCBBigAwIBAgIRANsjTQfu+42tf+tA6h46ICcwDQYJKoZIhvcNAQELBQAw
ga8xCzAJBgNVBAYTAlVTMRMwEQYDVQQIDApDYWxpZm9ybmlhMRYwFAYDVQQHDA1T
YW4gRnJhbmNpc2NvMSAwHgYDVQQKDBdDb3B5bGVmdCBDZXJ0aWZpY2F0ZSBDbzEf
MB0GA1UECwwWTXkgT3JnYW5pemF0aW9uYWwgVW5pdDERMA8GA1UEAwwIQ2hhbmdl
TWUxHTAbBgkqhkiG9w0BCQEWDm1lQGV4YW1wbGUubmV0MB4XDTIzMTExMjExNDgz
MVoXDTI0MTExMTExNDgzMVowgbsxCzAJBgNVBAYTAlVTMQswCQYDVQQIDAJPSDET
MBEGA1UEBwwKQ2luY2lubmF0aTEhMB8GA1UECgwYVW5pdmVyc2l0eSBvZiBDaW5j
aW5uYXRpMSowKAYDVQQLDCFEZXB0LiBFbGVjLiBDb21wLiBFbmcuIENvbXAuIFNj
aS4xETAPBgNVBAMMCGNsaWVudDM0MSgwJgYJKoZIhvcNAQkBFhlmcmFuY29AZ2F1
c3MuZWNlY3MudWMuZWR1MIIBIjANBgkqhkiG9w0BAQEFAAOCAQ8AMIIBCgKCAQEA
05VdDXxLpVX/KbCeIfVpzznL98PT3lidw8Zqe8Ef0Xtv3AhMyZ2+gh7KFMUzU55a
+aHIIxzG/gm2hba/DfPxOPP5AqZFU9odVU0uuhVNyvV3Lc64NEGKZkQ5WKAURFhF
6ZN0m7T+VscmiUfY7HBmV5HH48uIuzfx0xKFRr/1GUgdpif7m+12cGv00t0dZm3c
RYbzdBLThmDUVa8lwFW2JuHLpPVP+UZB8BYY0AdAbkKeO/3cc+0dasYVn/OEq5zu
zqqqrhq8ri+Y6GnLcDBBAO5/qc1fSDCzMiKKJoG79nkNIoFUYKD5GEikkC8zHBzz
dBVYf09yedl7t0pz0cSlUQIDAQABo4IBNzCCATMwCQYDVR0TBAIwADAdBgNVHQ4E
FgQU0o5SvMX7b0tQCTC2n41KYx/kUfAwgeQGA1UdIwSB3DCB2YAUxEbyljhWArid
CQRSJZE1l2rXsfChgbWkgbIwga8xCzAJBgNVBAYTAlVTMRMwEQYDVQQIDApDYWxp
Zm9ybmlhMRYwFAYDVQQHDA1TYW4gRnJhbmNpc2NvMSAwHgYDVQQKDBdDb3B5bGVm
dCBDZXJ0aWZpY2F0ZSBDbzEfMB0GA1UECwwWTXkgT3JnYW5pemF0aW9uYWwgVW5p
dDERMA8GA1UEAwwIQ2hhbmdlTWUxHTAbBgkqhkiG9w0BCQEWDm1lQGV4YW1wbGUu
bmV0ggkA0VoVHPAglWIwEwYDVR0lBAwwCgYIKwYBBQUHAwIwCwYDVR0PBAQDAgeA
MA0GCSqGSIb3DQEBCwUAA4IBAQCGP/MJRNlIxjVX0HuYrbzrg7rf3W2hHTsaypUC
ogCQtiZUv30AeYBjvlt7WhPfysCDklNoozGJVBi1DMmD3qgVnLAUmD5GzhGDO8l3
QYzAAXGPKwmPU8tGhOgNIaZmsHmBuozKA9+q3VmB4qO8i5g0nouzDk4gt4+Dyqak
Q7yX/t2hXhbzmJoZVtCm791PUzISJmKnTvbOYYVbWH8c5EMZqV9rVCsyrF0k9Sre
eY47vODfzTldpQseerTIK2qgU+ap1BTDEeD7ryH5QosniwyKl7G9GEGNhwVqMr+I
/JdkTGw5pUhP5U8w5H+NlD0uKYSW1cCcGdYqci9VUn3gxlvL
-----END CERTIFICATE-----
