Certificate:
    Data:
        Version: 3 (0x2)
        Serial Number:
            db:2c:31:dc:80:d8:db:e5:c8:ec:aa:cb:86:d2:fa:ea
    Signature Algorithm: sha256WithRSAEncryption
        Issuer: C=US, ST=California, L=San Francisco, O=Copyleft Certificate Co, OU=My Organizational Unit, CN=ChangeMe/emailAddress=me@example.net
        Validity
            Not Before: Nov 13 11:49:30 2023 GMT
            Not After : Nov 12 11:49:30 2024 GMT
        Subject: C=US, ST=OH, L=Cincinnati, O=University of Cincinnati, OU=Dept. Elec. Comp. Eng. Comp. Sci., CN=client46/emailAddress=franco@gauss.ececs.uc.edu
        Subject Public Key Info:
            Public Key Algorithm: rsaEncryption
                Public-Key: (2048 bit)
                Modulus:
                    00:e0:44:04:de:bc:d6:7b:a1:90:f9:9a:2c:cc:7c:
                    d5:19:89:7c:ed:ed:b8:fc:57:d8:41:f0:71:18:0c:
                    93:26:54:df:bc:4f:2c:fb:c7:61:1c:f6:d1:71:ff:
                    bb:41:f0:ad:d1:6a:13:bd:0b:04:4d:8c:dc:b2:f6:
                    ba:89:d8:d3:37:00:5b:87:86:9a:9f:c0:ad:70:23:
                    17:2b:50:c3:3d:2a:7f:4f:1f:00:62:2d:a2:a3:c6:
                    8f:04:62:87:86:35:d1:45:5e:4e:51:71:84:8f:44:
                    86:be:71:04:bb:76:bd:af:36:89:84:0e:31:a0:d1:
                    63:e5:e6:05:91:fe:83:92:22:80:e1:75:bb:0d:ec:
                    30:78:25:1f:d4:98:d7:63:4e:5b:6d:54:20:84:ac:
                    69:ea:41:bd:cb:0d:5f:23:1d:15:aa:03:b6:b3:27:
                    20:c1:81:95:f8:5a:4b:81:6e:00:cd:f8:7e:b8:10:
                    86:16:d4:b0:28:8f:e2:8f:56:7d:a7:eb:51:67:99:
                    c9:52:c3:9a:1a:6a:14:d0:bc:72:05:6a:06:13:44:
                    71:61:d8:78:d9:f8:95:8d:5a:53:25:d6:45:b3:a7:
                    fe:e2:95:bf:1b:11:66:d5:35:70:75:b8:89:53:09:
                    fb:96:f0:8d:ed:dc:37:ab:01:ef:c5:b0:4b:f3:37:
                    c1:d9
                Exponent: 65537 (0x10001)
        X509v3 extensions:
            X509v3 Basic Constraints: 
                CA:FALSE
            X509v3 Subject Key Identifier: 
                5E:40:12:9D:D2:1D:22:3A:A2:7E:CF:4A:65:EF:40:BF:A1:20:C5:93
            X509v3 Authority Key Identifier: 
                keyid:B4:AE:AB:ED:FC:ED:84:AA:AD:77:5D:7C:84:28:1C:CA:CE:AE:2A:44
                DirName:/C=US/ST=California/L=San Francisco/O=Copyleft Certificate Co/OU=My Organizational Unit/CN=ChangeMe/emailAddress=me@example.net
                serial:BD:6C:3B:F4:D3:07:C9:D1

            X509v3 Extended Key Usage: 
                TLS Web Client Authentication
            X509v3 Key Usage: 
                Digital Signature
    Signature Algorithm: sha256WithRSAEncryption
         a9:e7:2b:5b:26:23:d2:51:ad:bc:4c:2c:c3:04:08:68:5f:6f:
         5f:e2:3a:50:3a:51:af:03:93:cd:16:a4:14:2d:f7:db:98:ce:
         19:23:5e:39:d6:d8:6d:fb:df:d9:ed:f9:3a:9f:d6:e1:fe:b6:
         44:39:a9:93:e7:de:ed:60:d4:2f:8f:8e:dd:b8:4e:ea:da:4b:
         37:4e:80:5a:0b:a2:31:60:b5:56:96:16:d5:30:d0:08:a5:34:
         f8:da:d4:dc:cb:1e:25:90:e0:ce:80:4c:61:ed:99:2f:df:66:
         e9:76:b4:83:f3:e5:b8:67:99:47:b0:eb:92:28:2b:3e:e4:fb:
         b0:9b:89:80:b2:03:25:ef:e5:21:ba:f3:fd:ac:b5:a9:e7:9d:
         65:bd:81:6a:f3:34:ca:d0:58:e9:e7:f2:92:7b:9f:23:e9:a7:
         61:09:95:40:54:9a:32:9e:b8:87:a0:c5:34:e3:32:2d:f9:f3:
         ba:e1:e5:8a:2b:5e:86:e5:59:c8:a7:5c:15:25:5e:f7:1c:0d:
         f4:aa:51:d9:02:c0:8b:45:ea:e0:a8:d1:be:8f:51:6f:9a:2a:
         a5:f3:38:55:94:f7:70:49:58:08:a9:aa:1a:14:26:8c:19:65:
         8e:4f:c2:35:1b:bf:dd:b3:55:86:b1:c2:59:1f:c1:d0:33:da:
         f0:c0:c1:04
-----BEGIN CERTIFICATE-----
MIIFMDCCBBigAwIBAgIRANssMdyA2NvlyOyqy4bS+uowDQYJKoZIhvcNAQELBQAw
ga8xCzAJBgNVBAYTAlVTMRMwEQYDVQQIDApDYWxpZm9ybmlhMRYwFAYDVQQHDA1T
YW4gRnJhbmNpc2NvMSAwHgYDVQQKDBdDb3B5bGVmdCBDZXJ0aWZpY2F0ZSBDbzEf
MB0GA1UECwwWTXkgT3JnYW5pemF0aW9uYWwgVW5pdDERMA8GA1UEAwwIQ2hhbmdl
TWUxHTAbBgkqhkiG9w0BCQEWDm1lQGV4YW1wbGUubmV0MB4XDTIzMTExMzExNDkz
MFoXDTI0MTExMjExNDkzMFowgbsxCzAJBgNVBAYTAlVTMQswCQYDVQQIDAJPSDET
MBEGA1UEBwwKQ2luY2lubmF0aTEhMB8GA1UECgwYVW5pdmVyc2l0eSBvZiBDaW5j
aW5uYXRpMSowKAYDVQQLDCFEZXB0LiBFbGVjLiBDb21wLiBFbmcuIENvbXAuIFNj
aS4xETAPBgNVBAMMCGNsaWVudDQ2MSgwJgYJKoZIhvcNAQkBFhlmcmFuY29AZ2F1
c3MuZWNlY3MudWMuZWR1MIIBIjANBgkqhkiG9w0BAQEFAAOCAQ8AMIIBCgKCAQEA
4EQE3rzWe6GQ+ZoszHzVGYl87e24/FfYQfBxGAyTJlTfvE8s+8dhHPbRcf+7QfCt
0WoTvQsETYzcsva6idjTNwBbh4aan8CtcCMXK1DDPSp/Tx8AYi2io8aPBGKHhjXR
RV5OUXGEj0SGvnEEu3a9rzaJhA4xoNFj5eYFkf6DkiKA4XW7DewweCUf1JjXY05b
bVQghKxp6kG9yw1fIx0VqgO2sycgwYGV+FpLgW4Azfh+uBCGFtSwKI/ij1Z9p+tR
Z5nJUsOaGmoU0LxyBWoGE0RxYdh42fiVjVpTJdZFs6f+4pW/GxFm1TVwdbiJUwn7
lvCN7dw3qwHvxbBL8zfB2QIDAQABo4IBNzCCATMwCQYDVR0TBAIwADAdBgNVHQ4E
FgQUXkASndIdIjqifs9KZe9Av6EgxZMwgeQGA1UdIwSB3DCB2YAUtK6r7fzthKqt
d118hCgcys6uKkShgbWkgbIwga8xCzAJBgNVBAYTAlVTMRMwEQYDVQQIDApDYWxp
Zm9ybmlhMRYwFAYDVQQHDA1TYW4gRnJhbmNpc2NvMSAwHgYDVQQKDBdDb3B5bGVm
dCBDZXJ0aWZpY2F0ZSBDbzEfMB0GA1UECwwWTXkgT3JnYW5pemF0aW9uYWwgVW5p
dDERMA8GA1UEAwwIQ2hhbmdlTWUxHTAbBgkqhkiG9w0BCQEWDm1lQGV4YW1wbGUu
bmV0ggkAvWw79NMHydEwEwYDVR0lBAwwCgYIKwYBBQUHAwIwCwYDVR0PBAQDAgeA
MA0GCSqGSIb3DQEBCwUAA4IBAQCp5ytbJiPSUa28TCzDBAhoX29f4jpQOlGvA5PN
FqQULffbmM4ZI1451tht+9/Z7fk6n9bh/rZEOamT597tYNQvj47duE7q2ks3ToBa
C6IxYLVWlhbVMNAIpTT42tTcyx4lkODOgExh7Zkv32bpdrSD8+W4Z5lHsOuSKCs+
5Puwm4mAsgMl7+UhuvP9rLWp551lvYFq8zTK0Fjp5/KSe58j6adhCZVAVJoynriH
oMU04zIt+fO64eWKK16G5VnIp1wVJV73HA30qlHZAsCLRergqNG+j1Fvmiql8zhV
lPdwSVgIqaoaFCaMGWWOT8I1G7/ds1WGscJZH8HQM9rwwMEE
-----END CERTIFICATE-----
