Certificate:
    Data:
        Version: 3 (0x2)
        Serial Number:
            dd:36:3f:bd:1d:3e:94:17:4d:e5:fb:15:cb:a8:c1:74
    Signature Algorithm: sha256WithRSAEncryption
        Issuer: C=US, ST=California, L=San Francisco, O=Copyleft Certificate Co, OU=My Organizational Unit, CN=ChangeMe/emailAddress=me@example.net
        Validity
            Not Before: Nov 11 18:52:52 2023 GMT
            Not After : Nov 10 18:52:52 2024 GMT
        Subject: C=US, ST=OH, L=Cincinnati, O=University of Cincinnati ., OU=Dept. Elec. Comp. . Eng. Comp. Sci., CN=client44/emailAddress=franco@gauss.ececs.uc.edu
        Subject Public Key Info:
            Public Key Algorithm: rsaEncryption
                Public-Key: (2048 bit)
                Modulus:
                    00:9e:70:f5:f8:a4:aa:10:58:9f:a8:bf:51:63:4d:
                    4b:e9:37:59:7d:af:3b:d0:0c:35:31:5a:67:46:8d:
                    b8:9e:62:35:28:e6:80:c2:71:b7:6c:59:ee:60:0a:
                    cb:52:bb:20:f4:2c:86:11:83:61:6b:17:5c:62:2a:
                    56:d8:a2:02:21:67:d3:82:aa:4b:43:6f:d9:f1:dd:
                    55:7b:c6:28:fa:10:b8:5c:08:46:24:05:1d:00:02:
                    a3:b3:73:21:d1:c0:7f:9f:cc:17:24:81:7c:0e:f0:
                    0f:3a:4f:86:d5:c5:a1:87:17:12:3b:33:e1:ae:af:
                    c2:f6:a8:e4:8c:39:88:34:82:15:78:4d:59:a3:2c:
                    df:8f:b7:1e:41:45:a1:94:3d:3c:b7:35:1c:80:9f:
                    fe:8a:95:94:0a:c2:2f:1c:fb:a8:ec:b3:0d:e3:b2:
                    f4:e1:f5:d1:9d:25:57:2b:ce:c9:e6:a5:08:b4:4e:
                    5a:5c:a9:0d:88:b6:02:6f:11:c4:68:de:eb:9e:75:
                    14:eb:2f:45:12:5b:14:3f:8e:75:4e:6e:85:89:28:
                    01:af:b9:99:2b:66:e7:d4:43:11:d7:78:0f:f4:30:
                    07:40:da:61:0e:6b:09:57:32:12:44:60:da:0d:e6:
                    da:07:a9:9b:80:bf:e9:f4:c2:e4:92:03:06:16:59:
                    e6:3f
                Exponent: 65537 (0x10001)
        X509v3 extensions:
            X509v3 Basic Constraints: 
                CA:FALSE
            X509v3 Subject Key Identifier: 
                91:DB:38:38:9C:16:77:C2:BA:DD:A6:73:EF:4A:0B:1E:E3:AC:20:6D
            X509v3 Authority Key Identifier: 
                keyid:9C:0E:D5:A3:16:6F:C8:23:88:D1:12:C9:63:5D:18:D9:C9:FC:5B:E9
                DirName:/C=US/ST=California/L=San Francisco/O=Copyleft Certificate Co/OU=My Organizational Unit/CN=ChangeMe/emailAddress=me@example.net
                serial:A3:08:26:80:D2:47:98:75

            X509v3 Extended Key Usage: 
                TLS Web Client Authentication
            X509v3 Key Usage: 
                Digital Signature
    Signature Algorithm: sha256WithRSAEncryption
         8a:7e:b5:2c:07:1d:9d:d8:71:7d:a2:da:fc:49:33:34:ba:02:
         2d:42:bd:c2:e9:fc:82:9c:a6:42:4b:3b:a7:fc:dc:2b:31:c0:
         c6:4f:19:8b:86:b9:07:ad:36:e5:45:6a:37:63:d1:ef:3d:ae:
         c3:d2:6d:64:0a:93:aa:3c:73:03:35:5a:d6:1c:3e:3f:ff:48:
         68:5c:1f:c9:ad:84:09:cc:17:7b:f5:c7:39:a3:e7:31:41:35:
         3f:c2:fe:6e:e5:09:52:83:da:72:e3:70:ef:4f:c0:b0:42:7d:
         b6:68:ea:fb:f3:b7:35:cf:4f:e1:df:de:d7:80:0f:82:32:4d:
         be:37:f8:ea:f5:48:e4:17:f8:fb:16:e9:30:c7:44:1a:5a:33:
         cc:09:e9:39:66:12:6e:ee:92:e6:7b:ad:d0:5c:3c:18:04:94:
         f0:18:aa:4c:6a:8a:c1:c7:68:d9:af:04:c7:00:c8:eb:4f:84:
         0e:0b:b7:19:24:c7:52:59:44:42:00:5b:a0:69:20:b9:24:0e:
         98:70:18:da:0e:34:ee:3b:86:13:8e:fd:c2:b3:80:4f:c5:2a:
         dd:76:9e:4c:57:c1:0e:6e:c3:ef:a1:5a:44:a5:7c:d8:5b:a6:
         d4:48:f0:da:06:91:a5:96:20:c9:9b:30:4c:34:ea:4c:19:62:
         80:7b:ff:a4
-----BEGIN CERTIFICATE-----
MIIFNDCCBBygAwIBAgIRAN02P70dPpQXTeX7FcuowXQwDQYJKoZIhvcNAQELBQAw
ga8xCzAJBgNVBAYTAlVTMRMwEQYDVQQIDApDYWxpZm9ybmlhMRYwFAYDVQQHDA1T
YW4gRnJhbmNpc2NvMSAwHgYDVQQKDBdDb3B5bGVmdCBDZXJ0aWZpY2F0ZSBDbzEf
MB0GA1UECwwWTXkgT3JnYW5pemF0aW9uYWwgVW5pdDERMA8GA1UEAwwIQ2hhbmdl
TWUxHTAbBgkqhkiG9w0BCQEWDm1lQGV4YW1wbGUubmV0MB4XDTIzMTExMTE4NTI1
MloXDTI0MTExMDE4NTI1Mlowgb8xCzAJBgNVBAYTAlVTMQswCQYDVQQIDAJPSDET
MBEGA1UEBwwKQ2luY2lubmF0aTEjMCEGA1UECgwaVW5pdmVyc2l0eSBvZiBDaW5j
aW5uYXRpIC4xLDAqBgNVBAsMI0RlcHQuIEVsZWMuIENvbXAuIC4gRW5nLiBDb21w
LiBTY2kuMREwDwYDVQQDDAhjbGllbnQ0NDEoMCYGCSqGSIb3DQEJARYZZnJhbmNv
QGdhdXNzLmVjZWNzLnVjLmVkdTCCASIwDQYJKoZIhvcNAQEBBQADggEPADCCAQoC
ggEBAJ5w9fikqhBYn6i/UWNNS+k3WX2vO9AMNTFaZ0aNuJ5iNSjmgMJxt2xZ7mAK
y1K7IPQshhGDYWsXXGIqVtiiAiFn04KqS0Nv2fHdVXvGKPoQuFwIRiQFHQACo7Nz
IdHAf5/MFySBfA7wDzpPhtXFoYcXEjsz4a6vwvao5Iw5iDSCFXhNWaMs34+3HkFF
oZQ9PLc1HICf/oqVlArCLxz7qOyzDeOy9OH10Z0lVyvOyealCLROWlypDYi2Am8R
xGje6551FOsvRRJbFD+OdU5uhYkoAa+5mStm59RDEdd4D/QwB0DaYQ5rCVcyEkRg
2g3m2gepm4C/6fTC5JIDBhZZ5j8CAwEAAaOCATcwggEzMAkGA1UdEwQCMAAwHQYD
VR0OBBYEFJHbODicFnfCut2mc+9KCx7jrCBtMIHkBgNVHSMEgdwwgdmAFJwO1aMW
b8gjiNESyWNdGNnJ/FvpoYG1pIGyMIGvMQswCQYDVQQGEwJVUzETMBEGA1UECAwK
Q2FsaWZvcm5pYTEWMBQGA1UEBwwNU2FuIEZyYW5jaXNjbzEgMB4GA1UECgwXQ29w
eWxlZnQgQ2VydGlmaWNhdGUgQ28xHzAdBgNVBAsMFk15IE9yZ2FuaXphdGlvbmFs
IFVuaXQxETAPBgNVBAMMCENoYW5nZU1lMR0wGwYJKoZIhvcNAQkBFg5tZUBleGFt
cGxlLm5ldIIJAKMIJoDSR5h1MBMGA1UdJQQMMAoGCCsGAQUFBwMCMAsGA1UdDwQE
AwIHgDANBgkqhkiG9w0BAQsFAAOCAQEAin61LAcdndhxfaLa/EkzNLoCLUK9wun8
gpymQks7p/zcKzHAxk8Zi4a5B6025UVqN2PR7z2uw9JtZAqTqjxzAzVa1hw+P/9I
aFwfya2ECcwXe/XHOaPnMUE1P8L+buUJUoPacuNw70/AsEJ9tmjq+/O3Nc9P4d/e
14APgjJNvjf46vVI5Bf4+xbpMMdEGlozzAnpOWYSbu6S5nut0Fw8GASU8BiqTGqK
wcdo2a8ExwDI60+EDgu3GSTHUllEQgBboGkguSQOmHAY2g407juGE479wrOAT8Uq
3XaeTFfBDm7D76FaRKV82Fum1Ejw2gaRpZYgyZswTDTqTBligHv/pA==
-----END CERTIFICATE-----
