Certificate:
    Data:
        Version: 3 (0x2)
        Serial Number:
            de:59:74:aa:f8:ec:e9:04:dc:db:e7:92:15:ab:d5:19
    Signature Algorithm: sha256WithRSAEncryption
        Issuer: C=US, ST=California, L=San Francisco, O=Copyleft Certificate Co, OU=My Organizational Unit, CN=ChangeMe/emailAddress=me@example.net
        Validity
            Not Before: Nov 13 11:47:06 2023 GMT
            Not After : Nov 12 11:47:06 2024 GMT
        Subject: C=US, ST=OH, L=Cincinnati, O=University of Cincinnati, OU=Dept. Elec. Comp. Eng. Comp. Sci., CN=client10/emailAddress=franco@gauss.ececs.uc.edu
        Subject Public Key Info:
            Public Key Algorithm: rsaEncryption
                Public-Key: (2048 bit)
                Modulus:
                    00:d8:a0:61:63:3e:d2:da:a7:0e:5f:c1:4b:2b:14:
                    de:ec:e7:55:77:86:7c:60:9d:f4:52:40:b9:78:cd:
                    9f:67:95:92:7d:47:f8:54:4a:43:e2:51:7b:0b:b8:
                    df:8d:56:4c:52:b4:49:cf:32:98:25:76:82:5a:08:
                    e5:cf:72:42:2d:36:22:42:1f:a2:c6:68:01:8a:f0:
                    84:fe:7a:81:92:b6:5a:82:28:8b:e1:89:b3:de:b8:
                    f9:d7:1a:22:77:a3:75:00:7e:93:8e:dd:b6:13:d7:
                    be:0f:96:c2:bc:7d:84:0c:a4:57:95:13:f6:69:60:
                    cb:9f:0e:17:02:30:1b:c4:e8:1d:4b:ac:f3:80:ed:
                    b0:16:0d:e4:7b:a2:40:2a:a2:eb:e7:c3:05:9e:1c:
                    78:be:89:a8:05:ae:7e:ed:2a:ae:d6:cf:35:67:86:
                    4d:f2:84:68:34:d7:82:06:67:6c:e3:a1:89:10:e4:
                    57:61:29:ed:29:db:c5:88:b4:99:86:81:be:cc:b6:
                    f0:2c:e3:db:6d:d5:ef:71:a3:46:12:aa:f4:c1:d0:
                    11:bc:e5:b9:23:86:8f:86:3e:18:33:5b:2f:70:1a:
                    bd:bf:54:b1:55:db:50:70:df:d0:fb:d8:af:ef:77:
                    fc:38:9c:07:24:f0:1c:82:ee:8e:fd:52:9c:28:ee:
                    31:2f
                Exponent: 65537 (0x10001)
        X509v3 extensions:
            X509v3 Basic Constraints: 
                CA:FALSE
            X509v3 Subject Key Identifier: 
                78:DA:B7:72:79:77:71:EF:BD:F8:68:BA:FD:08:D2:BA:AD:F7:04:0C
            X509v3 Authority Key Identifier: 
                keyid:B4:AE:AB:ED:FC:ED:84:AA:AD:77:5D:7C:84:28:1C:CA:CE:AE:2A:44
                DirName:/C=US/ST=California/L=San Francisco/O=Copyleft Certificate Co/OU=My Organizational Unit/CN=ChangeMe/emailAddress=me@example.net
                serial:BD:6C:3B:F4:D3:07:C9:D1

            X509v3 Extended Key Usage: 
                TLS Web Client Authentication
            X509v3 Key Usage: 
                Digital Signature
    Signature Algorithm: sha256WithRSAEncryption
         2e:78:3a:2d:b6:a2:4e:77:94:d4:c2:fe:db:ee:40:d9:67:b5:
         7a:0a:b9:e3:31:2c:a8:cc:eb:a3:10:c0:32:92:f8:92:16:94:
         2f:7c:d0:0e:54:d1:f9:cc:6a:f7:ad:89:cf:47:1e:24:03:5b:
         08:e9:28:8e:03:3f:74:5d:20:b6:f7:9a:8f:d8:d2:57:d0:e8:
         45:cf:08:24:b5:3f:9c:df:0f:62:cf:1f:7e:30:12:2b:d8:58:
         0b:ed:d3:35:d2:4f:89:72:dd:29:14:7b:62:7d:ae:5c:a6:2b:
         86:53:75:14:7b:55:9e:d1:c2:96:4e:83:c5:de:1a:77:95:a1:
         64:f5:51:71:48:da:0b:80:d5:c6:6a:bf:43:59:d9:13:55:46:
         6b:29:29:bd:7b:49:21:08:58:84:ed:08:19:30:0f:82:b2:5b:
         43:0c:7a:7c:33:7c:b6:0d:b0:a3:06:4b:9c:19:e2:21:1e:3c:
         5f:0e:d7:4c:e7:e2:fd:29:b4:c6:25:ab:ec:04:53:c2:6c:d7:
         2a:33:03:db:1c:2b:ad:43:e1:1b:0e:9e:59:ca:99:26:91:ec:
         fd:fd:23:50:c4:de:a0:40:60:9d:e8:a2:7f:0f:2e:08:a2:f2:
         be:9e:7d:22:67:0d:ff:7f:c3:83:4f:97:ef:cf:2f:ea:18:54:
         31:0d:d4:b3
-----BEGIN CERTIFICATE-----
MIIFMDCCBBigAwIBAgIRAN5ZdKr47OkE3NvnkhWr1RkwDQYJKoZIhvcNAQELBQAw
ga8xCzAJBgNVBAYTAlVTMRMwEQYDVQQIDApDYWxpZm9ybmlhMRYwFAYDVQQHDA1T
YW4gRnJhbmNpc2NvMSAwHgYDVQQKDBdDb3B5bGVmdCBDZXJ0aWZpY2F0ZSBDbzEf
MB0GA1UECwwWTXkgT3JnYW5pemF0aW9uYWwgVW5pdDERMA8GA1UEAwwIQ2hhbmdl
TWUxHTAbBgkqhkiG9w0BCQEWDm1lQGV4YW1wbGUubmV0MB4XDTIzMTExMzExNDcw
NloXDTI0MTExMjExNDcwNlowgbsxCzAJBgNVBAYTAlVTMQswCQYDVQQIDAJPSDET
MBEGA1UEBwwKQ2luY2lubmF0aTEhMB8GA1UECgwYVW5pdmVyc2l0eSBvZiBDaW5j
aW5uYXRpMSowKAYDVQQLDCFEZXB0LiBFbGVjLiBDb21wLiBFbmcuIENvbXAuIFNj
aS4xETAPBgNVBAMMCGNsaWVudDEwMSgwJgYJKoZIhvcNAQkBFhlmcmFuY29AZ2F1
c3MuZWNlY3MudWMuZWR1MIIBIjANBgkqhkiG9w0BAQEFAAOCAQ8AMIIBCgKCAQEA
2KBhYz7S2qcOX8FLKxTe7OdVd4Z8YJ30UkC5eM2fZ5WSfUf4VEpD4lF7C7jfjVZM
UrRJzzKYJXaCWgjlz3JCLTYiQh+ixmgBivCE/nqBkrZagiiL4Ymz3rj51xoid6N1
AH6Tjt22E9e+D5bCvH2EDKRXlRP2aWDLnw4XAjAbxOgdS6zzgO2wFg3ke6JAKqLr
58MFnhx4vomoBa5+7Squ1s81Z4ZN8oRoNNeCBmds46GJEORXYSntKdvFiLSZhoG+
zLbwLOPbbdXvcaNGEqr0wdARvOW5I4aPhj4YM1svcBq9v1SxVdtQcN/Q+9iv73f8
OJwHJPAcgu6O/VKcKO4xLwIDAQABo4IBNzCCATMwCQYDVR0TBAIwADAdBgNVHQ4E
FgQUeNq3cnl3ce+9+Gi6/QjSuq33BAwwgeQGA1UdIwSB3DCB2YAUtK6r7fzthKqt
d118hCgcys6uKkShgbWkgbIwga8xCzAJBgNVBAYTAlVTMRMwEQYDVQQIDApDYWxp
Zm9ybmlhMRYwFAYDVQQHDA1TYW4gRnJhbmNpc2NvMSAwHgYDVQQKDBdDb3B5bGVm
dCBDZXJ0aWZpY2F0ZSBDbzEfMB0GA1UECwwWTXkgT3JnYW5pemF0aW9uYWwgVW5p
dDERMA8GA1UEAwwIQ2hhbmdlTWUxHTAbBgkqhkiG9w0BCQEWDm1lQGV4YW1wbGUu
bmV0ggkAvWw79NMHydEwEwYDVR0lBAwwCgYIKwYBBQUHAwIwCwYDVR0PBAQDAgeA
MA0GCSqGSIb3DQEBCwUAA4IBAQAueDottqJOd5TUwv7b7kDZZ7V6CrnjMSyozOuj
EMAykviSFpQvfNAOVNH5zGr3rYnPRx4kA1sI6SiOAz90XSC295qP2NJX0OhFzwgk
tT+c3w9izx9+MBIr2FgL7dM10k+Jct0pFHtifa5cpiuGU3UUe1We0cKWToPF3hp3
laFk9VFxSNoLgNXGar9DWdkTVUZrKSm9e0khCFiE7QgZMA+CsltDDHp8M3y2DbCj
BkucGeIhHjxfDtdM5+L9KbTGJavsBFPCbNcqMwPbHCutQ+EbDp5Zypkmkez9/SNQ
xN6gQGCd6KJ/Dy4IovK+nn0iZw3/f8ODT5fvzy/qGFQxDdSz
-----END CERTIFICATE-----
