Certificate:
    Data:
        Version: 3 (0x2)
        Serial Number:
            df:1d:48:36:e4:ab:07:7d:ca:91:ec:25:fe:6c:66:d9
    Signature Algorithm: sha256WithRSAEncryption
        Issuer: C=US, ST=California, L=San Francisco, O=Copyleft Certificate Co, OU=My Organizational Unit, CN=ChangeMe/emailAddress=me@example.net
        Validity
            Not Before: Nov 11 18:52:08 2023 GMT
            Not After : Nov 10 18:52:08 2024 GMT
        Subject: C=US, ST=OH, L=Cincinnati, O=University of Cincinnati ., OU=Dept. Elec. Comp. . Eng. Comp. Sci., CN=client33/emailAddress=franco@gauss.ececs.uc.edu
        Subject Public Key Info:
            Public Key Algorithm: rsaEncryption
                Public-Key: (2048 bit)
                Modulus:
                    00:b1:90:d8:1f:63:c1:cb:c1:ac:94:25:ca:02:d5:
                    6e:79:16:10:5e:09:79:27:96:14:2b:70:50:65:b0:
                    08:21:77:27:7e:d2:ac:0a:d8:d7:89:92:9b:3f:e9:
                    9a:be:6b:fc:ff:d1:52:a3:ad:71:6b:5e:2e:ec:57:
                    6f:e1:51:26:50:f6:73:bf:5e:42:52:71:d1:69:09:
                    b0:8f:89:18:f7:9a:90:e2:a8:2a:e7:8f:22:9b:d3:
                    d4:bc:f1:9e:04:5c:bc:2a:72:14:15:49:66:e9:43:
                    ee:11:0c:e0:c1:5d:1f:80:29:c1:03:a0:a1:f9:fc:
                    18:45:6a:00:b7:b8:aa:68:50:46:ee:7f:42:b9:0d:
                    2d:29:6b:68:24:30:1c:62:2d:37:65:4e:a1:7b:1d:
                    f5:1b:84:15:5a:0d:80:0d:ac:72:0a:61:e2:20:ab:
                    1a:0e:e0:db:b1:5d:37:c7:78:97:af:e4:4e:88:3b:
                    ec:10:48:1d:c9:65:1a:e6:64:7a:f7:a2:ba:11:62:
                    18:de:56:ae:40:c8:a8:68:09:b6:75:58:a2:a6:92:
                    e4:e5:e4:7a:21:1b:02:55:b3:e1:21:27:fc:68:83:
                    20:ff:a5:88:aa:bd:8b:fc:14:1e:97:84:68:ae:d6:
                    cd:d4:e6:39:03:dc:16:78:9d:8e:eb:ff:bf:00:5f:
                    d0:19
                Exponent: 65537 (0x10001)
        X509v3 extensions:
            X509v3 Basic Constraints: 
                CA:FALSE
            X509v3 Subject Key Identifier: 
                13:4D:93:D4:BE:90:65:EB:70:17:BF:5C:EB:49:A4:91:70:DE:07:E5
            X509v3 Authority Key Identifier: 
                keyid:9C:0E:D5:A3:16:6F:C8:23:88:D1:12:C9:63:5D:18:D9:C9:FC:5B:E9
                DirName:/C=US/ST=California/L=San Francisco/O=Copyleft Certificate Co/OU=My Organizational Unit/CN=ChangeMe/emailAddress=me@example.net
                serial:A3:08:26:80:D2:47:98:75

            X509v3 Extended Key Usage: 
                TLS Web Client Authentication
            X509v3 Key Usage: 
                Digital Signature
    Signature Algorithm: sha256WithRSAEncryption
         18:3a:42:04:90:d1:7f:53:c8:f3:74:d8:38:1a:ef:4b:01:43:
         0a:7c:e7:d6:a6:0a:05:24:23:38:ae:5c:b9:fb:ff:82:7f:51:
         a7:ad:fa:ff:d5:79:cf:92:d7:d0:c9:89:4c:18:be:9a:43:3d:
         9b:19:b8:4b:93:a0:a4:9b:5e:01:2e:5a:b0:c3:20:52:07:c3:
         e6:8a:86:d1:b2:d8:25:8c:5c:13:1f:7f:b7:87:d4:21:d5:53:
         05:15:fd:50:63:df:54:3a:8a:93:0c:f2:b8:7f:5b:14:4c:e1:
         d7:5f:e7:79:4f:41:9b:89:0a:61:fb:55:3b:68:24:7e:df:cd:
         0c:db:29:48:b5:e9:e1:a0:f1:ea:90:5f:64:ee:c0:58:65:41:
         9d:29:c3:cc:92:3b:9e:de:f8:e6:53:c0:d6:d5:8f:0d:9c:33:
         a7:64:ee:5f:ef:61:90:52:ef:b1:1e:b5:e5:22:78:84:be:d8:
         67:ab:62:5f:36:75:83:e4:91:97:ce:d5:95:68:25:34:b4:30:
         ac:e4:7d:06:4d:5b:e4:53:e5:99:97:f0:18:72:bb:12:e3:8b:
         de:f5:87:0c:f3:db:10:b1:49:70:ff:a6:64:8e:33:bc:1e:fa:
         1f:39:6a:31:13:58:f1:e0:ad:5a:9f:d8:69:3e:fc:59:9f:f3:
         56:d0:d3:5d
-----BEGIN CERTIFICATE-----
MIIFNDCCBBygAwIBAgIRAN8dSDbkqwd9ypHsJf5sZtkwDQYJKoZIhvcNAQELBQAw
ga8xCzAJBgNVBAYTAlVTMRMwEQYDVQQIDApDYWxpZm9ybmlhMRYwFAYDVQQHDA1T
YW4gRnJhbmNpc2NvMSAwHgYDVQQKDBdDb3B5bGVmdCBDZXJ0aWZpY2F0ZSBDbzEf
MB0GA1UECwwWTXkgT3JnYW5pemF0aW9uYWwgVW5pdDERMA8GA1UEAwwIQ2hhbmdl
TWUxHTAbBgkqhkiG9w0BCQEWDm1lQGV4YW1wbGUubmV0MB4XDTIzMTExMTE4NTIw
OFoXDTI0MTExMDE4NTIwOFowgb8xCzAJBgNVBAYTAlVTMQswCQYDVQQIDAJPSDET
MBEGA1UEBwwKQ2luY2lubmF0aTEjMCEGA1UECgwaVW5pdmVyc2l0eSBvZiBDaW5j
aW5uYXRpIC4xLDAqBgNVBAsMI0RlcHQuIEVsZWMuIENvbXAuIC4gRW5nLiBDb21w
LiBTY2kuMREwDwYDVQQDDAhjbGllbnQzMzEoMCYGCSqGSIb3DQEJARYZZnJhbmNv
QGdhdXNzLmVjZWNzLnVjLmVkdTCCASIwDQYJKoZIhvcNAQEBBQADggEPADCCAQoC
ggEBALGQ2B9jwcvBrJQlygLVbnkWEF4JeSeWFCtwUGWwCCF3J37SrArY14mSmz/p
mr5r/P/RUqOtcWteLuxXb+FRJlD2c79eQlJx0WkJsI+JGPeakOKoKuePIpvT1Lzx
ngRcvCpyFBVJZulD7hEM4MFdH4ApwQOgofn8GEVqALe4qmhQRu5/QrkNLSlraCQw
HGItN2VOoXsd9RuEFVoNgA2scgph4iCrGg7g27FdN8d4l6/kTog77BBIHcllGuZk
eveiuhFiGN5WrkDIqGgJtnVYoqaS5OXkeiEbAlWz4SEn/GiDIP+liKq9i/wUHpeE
aK7WzdTmOQPcFnidjuv/vwBf0BkCAwEAAaOCATcwggEzMAkGA1UdEwQCMAAwHQYD
VR0OBBYEFBNNk9S+kGXrcBe/XOtJpJFw3gflMIHkBgNVHSMEgdwwgdmAFJwO1aMW
b8gjiNESyWNdGNnJ/FvpoYG1pIGyMIGvMQswCQYDVQQGEwJVUzETMBEGA1UECAwK
Q2FsaWZvcm5pYTEWMBQGA1UEBwwNU2FuIEZyYW5jaXNjbzEgMB4GA1UECgwXQ29w
eWxlZnQgQ2VydGlmaWNhdGUgQ28xHzAdBgNVBAsMFk15IE9yZ2FuaXphdGlvbmFs
IFVuaXQxETAPBgNVBAMMCENoYW5nZU1lMR0wGwYJKoZIhvcNAQkBFg5tZUBleGFt
cGxlLm5ldIIJAKMIJoDSR5h1MBMGA1UdJQQMMAoGCCsGAQUFBwMCMAsGA1UdDwQE
AwIHgDANBgkqhkiG9w0BAQsFAAOCAQEAGDpCBJDRf1PI83TYOBrvSwFDCnzn1qYK
BSQjOK5cufv/gn9Rp636/9V5z5LX0MmJTBi+mkM9mxm4S5OgpJteAS5asMMgUgfD
5oqG0bLYJYxcEx9/t4fUIdVTBRX9UGPfVDqKkwzyuH9bFEzh11/neU9Bm4kKYftV
O2gkft/NDNspSLXp4aDx6pBfZO7AWGVBnSnDzJI7nt745lPA1tWPDZwzp2TuX+9h
kFLvsR615SJ4hL7YZ6tiXzZ1g+SRl87VlWglNLQwrOR9Bk1b5FPlmZfwGHK7EuOL
3vWHDPPbELFJcP+mZI4zvB76HzlqMRNY8eCtWp/YaT78WZ/zVtDTXQ==
-----END CERTIFICATE-----
