Certificate:
    Data:
        Version: 3 (0x2)
        Serial Number:
            df:21:1d:10:11:c1:70:a9:47:d8:e7:96:07:3a:d1:d5
    Signature Algorithm: sha256WithRSAEncryption
        Issuer: C=US, ST=California, L=San Francisco, O=Copyleft Certificate Co, OU=My Organizational Unit, CN=ChangeMe/emailAddress=me@example.net
        Validity
            Not Before: Nov 11 18:51:48 2023 GMT
            Not After : Nov 10 18:51:48 2024 GMT
        Subject: C=US, ST=OH, L=Cincinnati, O=University of Cincinnati ., OU=Dept. Elec. Comp. . Eng. Comp. Sci., CN=client28/emailAddress=franco@gauss.ececs.uc.edu
        Subject Public Key Info:
            Public Key Algorithm: rsaEncryption
                Public-Key: (2048 bit)
                Modulus:
                    00:c9:5f:fe:ab:b1:41:ab:2d:9e:da:48:eb:cc:8b:
                    33:a2:c1:4d:23:ab:99:93:33:de:5a:15:4c:87:85:
                    9c:91:34:72:77:63:45:29:e6:0b:36:1e:02:fb:62:
                    d2:37:1e:99:04:b5:10:63:f9:39:91:ac:34:d0:b1:
                    77:f7:92:09:09:52:69:3c:5a:3e:db:10:fa:fc:7d:
                    64:e7:ea:f9:9f:96:2a:76:0d:2b:db:be:4e:11:1d:
                    aa:8f:05:03:64:80:b8:a7:ab:28:6a:a0:bf:9e:33:
                    17:42:b6:2c:8a:6a:c1:55:ed:62:21:77:88:14:fc:
                    92:41:a7:0e:82:c6:75:96:b2:24:b4:de:18:21:d9:
                    7b:42:5d:26:f1:06:47:9c:1c:74:b7:66:35:7d:39:
                    b6:93:fc:18:68:1d:18:96:e5:e5:98:12:70:b9:84:
                    65:ca:8f:c8:44:d3:64:36:3e:e0:1f:e8:c6:08:8c:
                    33:6f:e4:83:09:8f:a1:99:ec:1d:69:ac:96:1f:d3:
                    85:27:75:46:02:bc:c2:69:82:7b:f9:65:24:e4:e9:
                    a6:52:27:03:f9:c3:c4:be:eb:a7:d5:ea:42:c2:98:
                    19:31:11:59:82:67:ea:79:58:fd:42:e4:35:99:71:
                    cb:89:02:98:77:03:32:70:40:00:6d:92:5b:2a:3a:
                    2d:a1
                Exponent: 65537 (0x10001)
        X509v3 extensions:
            X509v3 Basic Constraints: 
                CA:FALSE
            X509v3 Subject Key Identifier: 
                20:05:93:7A:7A:EA:E2:80:DC:9B:7B:51:7A:CF:E0:8B:A9:7E:A9:9C
            X509v3 Authority Key Identifier: 
                keyid:9C:0E:D5:A3:16:6F:C8:23:88:D1:12:C9:63:5D:18:D9:C9:FC:5B:E9
                DirName:/C=US/ST=California/L=San Francisco/O=Copyleft Certificate Co/OU=My Organizational Unit/CN=ChangeMe/emailAddress=me@example.net
                serial:A3:08:26:80:D2:47:98:75

            X509v3 Extended Key Usage: 
                TLS Web Client Authentication
            X509v3 Key Usage: 
                Digital Signature
    Signature Algorithm: sha256WithRSAEncryption
         8e:c0:d4:db:97:69:ca:25:40:66:ad:9e:15:76:8d:46:13:c6:
         7b:ab:d4:23:8c:87:af:69:f8:a6:61:60:03:9c:84:bf:25:5d:
         c7:0c:e8:67:17:2b:e9:b7:ad:f0:f8:9a:f8:a8:6b:31:83:88:
         e7:18:02:a3:44:93:de:94:ec:d7:21:c5:1e:19:09:3d:aa:8e:
         07:6e:74:06:3f:60:f7:40:05:07:10:4f:b9:98:95:bb:c4:e3:
         9d:43:22:b3:91:2e:dd:d4:f5:62:03:c7:eb:ef:eb:df:4b:8d:
         1f:7e:8d:51:0d:cf:22:c7:8b:51:8d:03:d8:b1:8a:ae:f4:17:
         4e:61:44:b0:46:f4:f9:1f:c7:82:a2:eb:22:30:4c:0a:49:77:
         cb:cd:0c:0b:12:dc:62:9b:02:c4:1d:96:bc:54:77:20:b3:38:
         cd:ce:6c:96:ae:31:67:cc:36:f3:83:8b:92:d7:b8:de:28:ff:
         b8:3f:da:d1:21:a0:a2:55:17:a3:6a:1c:70:b2:1d:12:2e:8a:
         2c:b1:cb:ba:16:27:c0:4c:85:73:13:a2:6d:d9:bb:0e:f1:79:
         44:9b:72:ad:0f:c7:a2:3b:22:e7:99:fd:6f:13:51:34:60:fb:
         9f:b1:d2:9e:ff:36:73:86:86:bf:0b:fb:1f:46:fd:b4:63:a9:
         e3:a2:a7:8f
-----BEGIN CERTIFICATE-----
MIIFNDCCBBygAwIBAgIRAN8hHRARwXCpR9jnlgc60dUwDQYJKoZIhvcNAQELBQAw
ga8xCzAJBgNVBAYTAlVTMRMwEQYDVQQIDApDYWxpZm9ybmlhMRYwFAYDVQQHDA1T
YW4gRnJhbmNpc2NvMSAwHgYDVQQKDBdDb3B5bGVmdCBDZXJ0aWZpY2F0ZSBDbzEf
MB0GA1UECwwWTXkgT3JnYW5pemF0aW9uYWwgVW5pdDERMA8GA1UEAwwIQ2hhbmdl
TWUxHTAbBgkqhkiG9w0BCQEWDm1lQGV4YW1wbGUubmV0MB4XDTIzMTExMTE4NTE0
OFoXDTI0MTExMDE4NTE0OFowgb8xCzAJBgNVBAYTAlVTMQswCQYDVQQIDAJPSDET
MBEGA1UEBwwKQ2luY2lubmF0aTEjMCEGA1UECgwaVW5pdmVyc2l0eSBvZiBDaW5j
aW5uYXRpIC4xLDAqBgNVBAsMI0RlcHQuIEVsZWMuIENvbXAuIC4gRW5nLiBDb21w
LiBTY2kuMREwDwYDVQQDDAhjbGllbnQyODEoMCYGCSqGSIb3DQEJARYZZnJhbmNv
QGdhdXNzLmVjZWNzLnVjLmVkdTCCASIwDQYJKoZIhvcNAQEBBQADggEPADCCAQoC
ggEBAMlf/quxQastntpI68yLM6LBTSOrmZMz3loVTIeFnJE0cndjRSnmCzYeAvti
0jcemQS1EGP5OZGsNNCxd/eSCQlSaTxaPtsQ+vx9ZOfq+Z+WKnYNK9u+ThEdqo8F
A2SAuKerKGqgv54zF0K2LIpqwVXtYiF3iBT8kkGnDoLGdZayJLTeGCHZe0JdJvEG
R5wcdLdmNX05tpP8GGgdGJbl5ZgScLmEZcqPyETTZDY+4B/oxgiMM2/kgwmPoZns
HWmslh/ThSd1RgK8wmmCe/llJOTpplInA/nDxL7rp9XqQsKYGTERWYJn6nlY/ULk
NZlxy4kCmHcDMnBAAG2SWyo6LaECAwEAAaOCATcwggEzMAkGA1UdEwQCMAAwHQYD
VR0OBBYEFCAFk3p66uKA3Jt7UXrP4IupfqmcMIHkBgNVHSMEgdwwgdmAFJwO1aMW
b8gjiNESyWNdGNnJ/FvpoYG1pIGyMIGvMQswCQYDVQQGEwJVUzETMBEGA1UECAwK
Q2FsaWZvcm5pYTEWMBQGA1UEBwwNU2FuIEZyYW5jaXNjbzEgMB4GA1UECgwXQ29w
eWxlZnQgQ2VydGlmaWNhdGUgQ28xHzAdBgNVBAsMFk15IE9yZ2FuaXphdGlvbmFs
IFVuaXQxETAPBgNVBAMMCENoYW5nZU1lMR0wGwYJKoZIhvcNAQkBFg5tZUBleGFt
cGxlLm5ldIIJAKMIJoDSR5h1MBMGA1UdJQQMMAoGCCsGAQUFBwMCMAsGA1UdDwQE
AwIHgDANBgkqhkiG9w0BAQsFAAOCAQEAjsDU25dpyiVAZq2eFXaNRhPGe6vUI4yH
r2n4pmFgA5yEvyVdxwzoZxcr6bet8Pia+KhrMYOI5xgCo0ST3pTs1yHFHhkJPaqO
B250Bj9g90AFBxBPuZiVu8TjnUMis5Eu3dT1YgPH6+/r30uNH36NUQ3PIseLUY0D
2LGKrvQXTmFEsEb0+R/HgqLrIjBMCkl3y80MCxLcYpsCxB2WvFR3ILM4zc5slq4x
Z8w284OLkte43ij/uD/a0SGgolUXo2occLIdEi6KLLHLuhYnwEyFcxOibdm7DvF5
RJtyrQ/Hojsi55n9bxNRNGD7n7HSnv82c4aGvwv7H0b9tGOp46Knjw==
-----END CERTIFICATE-----
