Certificate:
    Data:
        Version: 3 (0x2)
        Serial Number:
            e2:38:9c:b6:84:b3:30:2e:2d:00:1d:c3:39:64:18:24
    Signature Algorithm: sha256WithRSAEncryption
        Issuer: C=US, ST=California, L=San Francisco, O=Copyleft Certificate Co, OU=My Organizational Unit, CN=ChangeMe/emailAddress=me@example.net
        Validity
            Not Before: Jan 23 18:29:53 2021 GMT
            Not After : Jan 23 18:29:53 2022 GMT
        Subject: C=US, ST=OH, L=Cincinnati, O=University of Cincinnati, OU=Dept. Electrical Eng. and Computer Sci., CN=client111/emailAddress=franco@gauss.ececs.uc.edu
        Subject Public Key Info:
            Public Key Algorithm: rsaEncryption
                Public-Key: (2048 bit)
                Modulus:
                    00:eb:23:d4:60:8e:52:c4:68:c7:63:ed:73:17:29:
                    ba:51:1c:50:08:19:92:2e:e8:2d:dc:9c:80:09:c7:
                    73:96:1a:a5:1d:49:f8:5e:59:0f:a8:36:4f:fa:09:
                    ee:cd:5d:01:d8:7e:7b:61:08:fd:8f:55:98:71:ba:
                    15:a4:f2:7b:1d:c8:a5:e0:f0:d6:0c:9c:b3:66:30:
                    0e:6f:5d:c8:16:13:48:af:b8:af:89:3d:e5:0b:ec:
                    20:83:61:4a:43:15:58:ac:54:2b:e4:e8:bf:77:06:
                    b1:52:53:07:b7:41:f2:79:9d:d1:86:e5:3f:f4:4b:
                    b1:1e:cc:fc:8d:14:26:15:c3:ab:74:75:77:92:6c:
                    37:42:bc:a7:2a:dc:f1:36:d5:a8:be:a0:dc:f6:6c:
                    4e:2f:db:98:14:b6:ae:db:93:a8:40:ff:1b:8b:24:
                    85:fb:c5:90:27:73:75:c4:26:ce:2c:54:e4:a4:28:
                    d9:ed:70:fa:6b:ca:c3:ed:b1:d9:40:2a:e7:7a:0c:
                    e8:f1:bd:eb:1e:a0:3a:10:9e:b0:5d:87:77:70:83:
                    0d:6f:a9:d5:79:08:c4:3c:5b:e2:c8:3d:67:85:e4:
                    e2:74:9d:a2:c4:99:0e:98:b5:50:2e:43:7d:30:98:
                    12:a7:96:5b:6b:a9:8a:db:ca:c0:35:95:09:95:37:
                    27:33
                Exponent: 65537 (0x10001)
        X509v3 extensions:
            X509v3 Basic Constraints: 
                CA:FALSE
            X509v3 Subject Key Identifier: 
                95:B4:53:B2:9D:28:05:7D:3B:29:15:42:8B:4D:9B:6D:77:0E:21:5F
            X509v3 Authority Key Identifier: 
                keyid:EF:DC:B6:3D:4B:FD:A7:87:05:C5:22:3D:8B:DC:BF:99:2A:EE:E4:DB
                DirName:/C=US/ST=California/L=San Francisco/O=Copyleft Certificate Co/OU=My Organizational Unit/CN=ChangeMe/emailAddress=me@example.net
                serial:87:1E:1D:DC:6B:8C:66:88

            X509v3 Extended Key Usage: 
                TLS Web Client Authentication
            X509v3 Key Usage: 
                Digital Signature
    Signature Algorithm: sha256WithRSAEncryption
         42:74:95:a6:dd:d7:c6:6b:92:9c:83:28:2f:31:10:93:b8:59:
         00:ce:97:c9:74:33:3b:fe:c2:d1:70:55:87:73:a3:07:c9:c4:
         c5:27:ea:cc:3b:dd:b7:4a:7f:b9:25:d5:43:6d:07:38:ac:ed:
         75:2b:54:3a:5e:47:a9:51:30:db:19:a8:a9:80:f4:62:50:43:
         60:3e:7e:49:77:df:25:83:31:6f:b4:aa:36:84:95:bf:c8:de:
         29:0a:91:59:26:35:b6:2b:fb:8f:1b:5c:41:e1:0d:fb:f5:38:
         b5:55:31:e6:60:a7:f0:5d:90:cc:74:e7:fd:80:b5:ff:0e:af:
         75:3c:26:c2:a2:7c:c0:29:4c:0e:29:d9:58:c3:0d:33:90:0e:
         d2:2d:a1:5b:5a:be:2f:22:d3:ea:f9:99:2d:72:bf:a1:6c:61:
         d4:62:b4:b8:33:5b:84:a5:7c:ce:41:ca:5f:f6:90:21:69:fd:
         ae:94:04:bf:1d:08:a7:dc:cd:e5:26:3c:ae:94:7d:b4:27:a2:
         72:bd:9c:fc:d8:2e:03:e9:af:39:d6:52:e5:cd:3f:c9:15:e0:
         ed:c1:7d:4e:bb:b8:29:10:1b:af:2c:21:9f:b7:fa:9b:de:45:
         a5:13:bc:91:78:36:81:c3:1d:f1:79:e8:cc:ec:fd:fc:10:28:
         cf:e7:91:0e
-----BEGIN CERTIFICATE-----
MIIFNzCCBB+gAwIBAgIRAOI4nLaEszAuLQAdwzlkGCQwDQYJKoZIhvcNAQELBQAw
ga8xCzAJBgNVBAYTAlVTMRMwEQYDVQQIDApDYWxpZm9ybmlhMRYwFAYDVQQHDA1T
YW4gRnJhbmNpc2NvMSAwHgYDVQQKDBdDb3B5bGVmdCBDZXJ0aWZpY2F0ZSBDbzEf
MB0GA1UECwwWTXkgT3JnYW5pemF0aW9uYWwgVW5pdDERMA8GA1UEAwwIQ2hhbmdl
TWUxHTAbBgkqhkiG9w0BCQEWDm1lQGV4YW1wbGUubmV0MB4XDTIxMDEyMzE4Mjk1
M1oXDTIyMDEyMzE4Mjk1M1owgcIxCzAJBgNVBAYTAlVTMQswCQYDVQQIDAJPSDET
MBEGA1UEBwwKQ2luY2lubmF0aTEhMB8GA1UECgwYVW5pdmVyc2l0eSBvZiBDaW5j
aW5uYXRpMTAwLgYDVQQLDCdEZXB0LiBFbGVjdHJpY2FsIEVuZy4gYW5kIENvbXB1
dGVyIFNjaS4xEjAQBgNVBAMMCWNsaWVudDExMTEoMCYGCSqGSIb3DQEJARYZZnJh
bmNvQGdhdXNzLmVjZWNzLnVjLmVkdTCCASIwDQYJKoZIhvcNAQEBBQADggEPADCC
AQoCggEBAOsj1GCOUsRox2PtcxcpulEcUAgZki7oLdycgAnHc5YapR1J+F5ZD6g2
T/oJ7s1dAdh+e2EI/Y9VmHG6FaTyex3IpeDw1gycs2YwDm9dyBYTSK+4r4k95Qvs
IINhSkMVWKxUK+Tov3cGsVJTB7dB8nmd0YblP/RLsR7M/I0UJhXDq3R1d5JsN0K8
pyrc8TbVqL6g3PZsTi/bmBS2rtuTqED/G4skhfvFkCdzdcQmzixU5KQo2e1w+mvK
w+2x2UAq53oM6PG96x6gOhCesF2Hd3CDDW+p1XkIxDxb4sg9Z4Xk4nSdosSZDpi1
UC5DfTCYEqeWW2upitvKwDWVCZU3JzMCAwEAAaOCATcwggEzMAkGA1UdEwQCMAAw
HQYDVR0OBBYEFJW0U7KdKAV9OykVQotNm213DiFfMIHkBgNVHSMEgdwwgdmAFO/c
tj1L/aeHBcUiPYvcv5kq7uTboYG1pIGyMIGvMQswCQYDVQQGEwJVUzETMBEGA1UE
CAwKQ2FsaWZvcm5pYTEWMBQGA1UEBwwNU2FuIEZyYW5jaXNjbzEgMB4GA1UECgwX
Q29weWxlZnQgQ2VydGlmaWNhdGUgQ28xHzAdBgNVBAsMFk15IE9yZ2FuaXphdGlv
bmFsIFVuaXQxETAPBgNVBAMMCENoYW5nZU1lMR0wGwYJKoZIhvcNAQkBFg5tZUBl
eGFtcGxlLm5ldIIJAIceHdxrjGaIMBMGA1UdJQQMMAoGCCsGAQUFBwMCMAsGA1Ud
DwQEAwIHgDANBgkqhkiG9w0BAQsFAAOCAQEAQnSVpt3XxmuSnIMoLzEQk7hZAM6X
yXQzO/7C0XBVh3OjB8nExSfqzDvdt0p/uSXVQ20HOKztdStUOl5HqVEw2xmoqYD0
YlBDYD5+SXffJYMxb7SqNoSVv8jeKQqRWSY1tiv7jxtcQeEN+/U4tVUx5mCn8F2Q
zHTn/YC1/w6vdTwmwqJ8wClMDinZWMMNM5AO0i2hW1q+LyLT6vmZLXK/oWxh1GK0
uDNbhKV8zkHKX/aQIWn9rpQEvx0Ip9zN5SY8rpR9tCeicr2c/NguA+mvOdZS5c0/
yRXg7cF9Tru4KRAbrywhn7f6m95FpRO8kXg2gcMd8XnozOz9/BAoz+eRDg==
-----END CERTIFICATE-----
