Certificate:
    Data:
        Version: 3 (0x2)
        Serial Number:
            e3:58:16:ad:f8:1a:b6:7d:3b:d3:44:58:e0:a9:b0:ad
    Signature Algorithm: sha256WithRSAEncryption
        Issuer: C=US, ST=California, L=San Francisco, O=Copyleft Certificate Co, OU=My Organizational Unit, CN=ChangeMe/emailAddress=me@example.net
        Validity
            Not Before: Nov 11 18:51:40 2023 GMT
            Not After : Nov 10 18:51:40 2024 GMT
        Subject: C=US, ST=OH, L=Cincinnati, O=University of Cincinnati ., OU=Dept. Elec. Comp. . Eng. Comp. Sci., CN=client26/emailAddress=franco@gauss.ececs.uc.edu
        Subject Public Key Info:
            Public Key Algorithm: rsaEncryption
                Public-Key: (2048 bit)
                Modulus:
                    00:ad:af:1e:e6:d5:b0:f8:f9:a3:12:29:7d:b1:f1:
                    03:0e:ec:c4:19:56:48:89:99:4e:8c:84:bc:e7:4e:
                    66:47:96:f7:e3:9e:f0:0e:c5:f1:e0:9e:22:08:98:
                    8c:64:73:6c:db:e2:50:b4:b5:da:5b:b2:d0:ca:cb:
                    a3:45:23:2a:99:8e:45:06:9c:bb:72:f0:51:67:0a:
                    95:8c:7d:c4:e7:f4:2e:a4:d6:f2:d9:8c:b5:3a:ea:
                    f5:64:b7:0f:0d:fa:1b:a2:49:a3:2c:f8:df:c4:b7:
                    f1:85:bd:f9:22:b5:8d:4e:fa:bb:45:be:e0:5b:76:
                    d3:a4:0b:4f:b8:38:b9:1a:ea:4b:1a:76:67:35:96:
                    ea:cd:31:c3:2b:09:cb:69:8e:e1:e7:11:28:43:f2:
                    dd:5f:cf:c6:30:db:c8:b3:54:98:bd:ea:f2:85:5a:
                    9a:58:db:f6:83:4a:98:da:de:a7:e3:f6:62:91:19:
                    7d:dc:88:b1:51:b2:2c:b5:ad:29:39:58:bb:fc:97:
                    fd:5c:3b:21:e5:b9:96:3c:8b:f2:a1:5c:ec:73:06:
                    48:b1:e9:15:39:c4:08:1b:9a:69:55:e5:6e:97:69:
                    34:d7:72:ce:b7:80:dc:49:0e:71:8c:60:e7:9c:a6:
                    24:63:ed:2e:ef:82:44:ff:44:ac:c8:70:bf:5e:3f:
                    81:63
                Exponent: 65537 (0x10001)
        X509v3 extensions:
            X509v3 Basic Constraints: 
                CA:FALSE
            X509v3 Subject Key Identifier: 
                17:4A:22:EA:5E:29:30:6F:82:20:4C:AA:A8:39:03:27:8B:84:FD:BB
            X509v3 Authority Key Identifier: 
                keyid:9C:0E:D5:A3:16:6F:C8:23:88:D1:12:C9:63:5D:18:D9:C9:FC:5B:E9
                DirName:/C=US/ST=California/L=San Francisco/O=Copyleft Certificate Co/OU=My Organizational Unit/CN=ChangeMe/emailAddress=me@example.net
                serial:A3:08:26:80:D2:47:98:75

            X509v3 Extended Key Usage: 
                TLS Web Client Authentication
            X509v3 Key Usage: 
                Digital Signature
    Signature Algorithm: sha256WithRSAEncryption
         a8:fa:49:0b:72:29:69:bd:d8:88:33:99:97:51:5b:a4:78:4c:
         41:9e:62:70:da:7d:cc:dd:93:a8:f9:23:a0:27:51:6b:36:cb:
         7e:87:b5:52:a1:8a:7e:c5:67:91:66:2b:79:1c:8a:bc:43:91:
         83:3b:ac:f4:24:35:55:10:0c:a7:3e:c6:02:f0:f0:75:d7:7b:
         02:c2:b3:6a:fc:b6:fe:e0:d4:7f:d4:dd:79:db:63:98:a3:71:
         13:a0:49:70:0c:00:54:f2:00:59:72:d1:68:fc:bf:50:c2:2b:
         58:c3:de:f8:2f:4b:58:43:5a:60:a0:78:d2:b9:f6:87:bf:e2:
         90:7a:af:33:ae:b5:fe:26:68:97:95:3f:c4:5a:4e:2c:e8:82:
         e4:6e:bd:09:fd:e0:f8:48:8d:c7:bb:f9:84:4c:bc:d2:8b:5b:
         c2:e5:56:97:0c:f1:9c:b6:d7:09:66:1e:68:76:d8:28:8a:17:
         92:a3:3e:7c:23:a6:68:1c:fe:c8:e2:c6:a8:1d:6f:b1:33:93:
         b1:2d:ee:be:9b:a2:5b:b5:fc:51:d6:ef:fc:fc:ea:1c:09:9e:
         c0:b1:6c:f7:fa:47:8d:0e:25:d5:c8:e2:ae:cf:c3:0c:1a:e9:
         a3:a7:04:ac:6c:0c:22:1f:b9:02:1c:6c:80:f8:21:64:c1:39:
         0b:a1:74:33
-----BEGIN CERTIFICATE-----
MIIFNDCCBBygAwIBAgIRAONYFq34GrZ9O9NEWOCpsK0wDQYJKoZIhvcNAQELBQAw
ga8xCzAJBgNVBAYTAlVTMRMwEQYDVQQIDApDYWxpZm9ybmlhMRYwFAYDVQQHDA1T
YW4gRnJhbmNpc2NvMSAwHgYDVQQKDBdDb3B5bGVmdCBDZXJ0aWZpY2F0ZSBDbzEf
MB0GA1UECwwWTXkgT3JnYW5pemF0aW9uYWwgVW5pdDERMA8GA1UEAwwIQ2hhbmdl
TWUxHTAbBgkqhkiG9w0BCQEWDm1lQGV4YW1wbGUubmV0MB4XDTIzMTExMTE4NTE0
MFoXDTI0MTExMDE4NTE0MFowgb8xCzAJBgNVBAYTAlVTMQswCQYDVQQIDAJPSDET
MBEGA1UEBwwKQ2luY2lubmF0aTEjMCEGA1UECgwaVW5pdmVyc2l0eSBvZiBDaW5j
aW5uYXRpIC4xLDAqBgNVBAsMI0RlcHQuIEVsZWMuIENvbXAuIC4gRW5nLiBDb21w
LiBTY2kuMREwDwYDVQQDDAhjbGllbnQyNjEoMCYGCSqGSIb3DQEJARYZZnJhbmNv
QGdhdXNzLmVjZWNzLnVjLmVkdTCCASIwDQYJKoZIhvcNAQEBBQADggEPADCCAQoC
ggEBAK2vHubVsPj5oxIpfbHxAw7sxBlWSImZToyEvOdOZkeW9+Oe8A7F8eCeIgiY
jGRzbNviULS12luy0MrLo0UjKpmORQacu3LwUWcKlYx9xOf0LqTW8tmMtTrq9WS3
Dw36G6JJoyz438S38YW9+SK1jU76u0W+4Ft206QLT7g4uRrqSxp2ZzWW6s0xwysJ
y2mO4ecRKEPy3V/PxjDbyLNUmL3q8oVamljb9oNKmNrep+P2YpEZfdyIsVGyLLWt
KTlYu/yX/Vw7IeW5ljyL8qFc7HMGSLHpFTnECBuaaVXlbpdpNNdyzreA3EkOcYxg
55ymJGPtLu+CRP9ErMhwv14/gWMCAwEAAaOCATcwggEzMAkGA1UdEwQCMAAwHQYD
VR0OBBYEFBdKIupeKTBvgiBMqqg5AyeLhP27MIHkBgNVHSMEgdwwgdmAFJwO1aMW
b8gjiNESyWNdGNnJ/FvpoYG1pIGyMIGvMQswCQYDVQQGEwJVUzETMBEGA1UECAwK
Q2FsaWZvcm5pYTEWMBQGA1UEBwwNU2FuIEZyYW5jaXNjbzEgMB4GA1UECgwXQ29w
eWxlZnQgQ2VydGlmaWNhdGUgQ28xHzAdBgNVBAsMFk15IE9yZ2FuaXphdGlvbmFs
IFVuaXQxETAPBgNVBAMMCENoYW5nZU1lMR0wGwYJKoZIhvcNAQkBFg5tZUBleGFt
cGxlLm5ldIIJAKMIJoDSR5h1MBMGA1UdJQQMMAoGCCsGAQUFBwMCMAsGA1UdDwQE
AwIHgDANBgkqhkiG9w0BAQsFAAOCAQEAqPpJC3Ipab3YiDOZl1FbpHhMQZ5icNp9
zN2TqPkjoCdRazbLfoe1UqGKfsVnkWYreRyKvEORgzus9CQ1VRAMpz7GAvDwddd7
AsKzavy2/uDUf9TdedtjmKNxE6BJcAwAVPIAWXLRaPy/UMIrWMPe+C9LWENaYKB4
0rn2h7/ikHqvM661/iZol5U/xFpOLOiC5G69Cf3g+EiNx7v5hEy80otbwuVWlwzx
nLbXCWYeaHbYKIoXkqM+fCOmaBz+yOLGqB1vsTOTsS3uvpuiW7X8Udbv/PzqHAme
wLFs9/pHjQ4l1cjirs/DDBrpo6cErGwMIh+5AhxsgPghZME5C6F0Mw==
-----END CERTIFICATE-----
