Certificate:
    Data:
        Version: 3 (0x2)
        Serial Number:
            e5:76:e0:90:c7:02:18:02:b7:34:61:ad:06:1c:a4:65
    Signature Algorithm: sha256WithRSAEncryption
        Issuer: C=US, ST=California, L=San Francisco, O=Copyleft Certificate Co, OU=My Organizational Unit, CN=ChangeMe/emailAddress=me@example.net
        Validity
            Not Before: Nov 13 11:48:10 2023 GMT
            Not After : Nov 12 11:48:10 2024 GMT
        Subject: C=US, ST=OH, L=Cincinnati, O=University of Cincinnati, OU=Dept. Elec. Comp. Eng. Comp. Sci., CN=client26/emailAddress=franco@gauss.ececs.uc.edu
        Subject Public Key Info:
            Public Key Algorithm: rsaEncryption
                Public-Key: (2048 bit)
                Modulus:
                    00:c6:06:52:39:64:58:26:68:c1:2b:46:5f:0f:a2:
                    80:e3:a7:1c:03:59:fb:0b:21:f8:51:5f:73:7c:7d:
                    81:06:5d:01:64:05:6d:5b:da:f8:aa:cb:df:8f:52:
                    d1:04:d3:37:49:31:aa:a9:dc:6e:f4:82:e2:b0:5d:
                    e4:b4:73:7d:55:a7:28:6e:12:71:8b:24:f6:11:33:
                    e4:91:b6:87:9a:0e:00:b9:ef:34:87:bf:31:ac:c7:
                    ec:33:08:0d:3d:ef:4c:5b:a5:41:1f:d2:f1:f5:57:
                    97:d8:16:12:7e:f6:26:5d:22:9c:ca:42:35:77:b6:
                    57:18:0f:6b:4d:c8:ef:94:3f:d7:f9:7c:02:81:d4:
                    a3:a3:c6:8c:36:6d:02:0a:01:d8:f5:b3:d6:e4:4d:
                    a5:eb:b8:7f:b4:7c:98:df:98:36:f7:cf:5c:39:ef:
                    af:e7:b6:12:45:cf:e0:13:85:94:46:a0:d7:d7:34:
                    48:ee:63:ae:2f:40:8f:d4:2c:8b:f1:c0:f4:01:f3:
                    f1:54:16:7c:07:e2:0d:49:14:0d:96:cc:26:b1:2b:
                    3b:6c:46:1d:69:b6:22:87:73:11:27:ce:f8:7d:16:
                    f7:df:45:28:7e:86:46:a3:a8:81:21:33:f2:4b:c5:
                    63:3b:33:f6:9d:ba:f6:91:67:c6:40:53:fd:ef:b1:
                    38:89
                Exponent: 65537 (0x10001)
        X509v3 extensions:
            X509v3 Basic Constraints: 
                CA:FALSE
            X509v3 Subject Key Identifier: 
                0A:28:51:24:2A:64:8D:22:E7:39:FF:01:60:FB:5E:6E:6B:AC:FF:58
            X509v3 Authority Key Identifier: 
                keyid:B4:AE:AB:ED:FC:ED:84:AA:AD:77:5D:7C:84:28:1C:CA:CE:AE:2A:44
                DirName:/C=US/ST=California/L=San Francisco/O=Copyleft Certificate Co/OU=My Organizational Unit/CN=ChangeMe/emailAddress=me@example.net
                serial:BD:6C:3B:F4:D3:07:C9:D1

            X509v3 Extended Key Usage: 
                TLS Web Client Authentication
            X509v3 Key Usage: 
                Digital Signature
    Signature Algorithm: sha256WithRSAEncryption
         c6:2f:8b:2e:e1:a5:3d:c1:80:d8:2c:4b:87:e7:af:e1:be:2f:
         63:69:fb:79:90:d4:e4:87:d2:79:99:d2:7b:e5:72:64:df:19:
         ba:6a:6a:a4:2e:dd:be:03:45:1b:a3:be:3a:a2:96:83:66:9b:
         38:cd:27:5e:33:aa:2b:d9:12:ca:31:ff:d0:25:ee:1c:c8:af:
         93:57:40:f3:a1:4d:d9:e5:b2:7e:e0:09:d4:0c:9a:26:2e:83:
         58:bd:3f:e5:1c:92:15:99:e1:bc:1d:2e:9b:2f:41:a3:a1:d3:
         c1:41:cf:d3:be:87:f8:73:d7:9c:2f:0a:0a:37:28:61:b1:68:
         76:cd:30:94:ec:23:55:af:c7:87:3b:8e:4e:3d:8a:40:1d:0b:
         02:56:da:71:d5:7f:a2:3e:cf:a0:ae:3a:a5:ff:4a:85:2b:7e:
         99:3c:a2:c9:2e:7c:07:b4:ff:6b:dc:31:f4:b3:df:2e:a7:9f:
         6f:33:21:7a:98:62:bd:b1:2f:b6:b5:05:4c:77:ed:2f:8a:53:
         d1:5d:0b:81:dd:ca:8f:96:80:85:36:68:11:5c:49:3d:15:5a:
         fe:a0:be:9b:ef:b0:30:04:34:0b:19:f3:f2:b8:b1:be:a4:3a:
         d9:5d:0b:6a:c5:1d:b2:7d:59:15:fe:cc:7e:33:03:3a:03:7e:
         c6:d7:29:6e
-----BEGIN CERTIFICATE-----
MIIFMDCCBBigAwIBAgIRAOV24JDHAhgCtzRhrQYcpGUwDQYJKoZIhvcNAQELBQAw
ga8xCzAJBgNVBAYTAlVTMRMwEQYDVQQIDApDYWxpZm9ybmlhMRYwFAYDVQQHDA1T
YW4gRnJhbmNpc2NvMSAwHgYDVQQKDBdDb3B5bGVmdCBDZXJ0aWZpY2F0ZSBDbzEf
MB0GA1UECwwWTXkgT3JnYW5pemF0aW9uYWwgVW5pdDERMA8GA1UEAwwIQ2hhbmdl
TWUxHTAbBgkqhkiG9w0BCQEWDm1lQGV4YW1wbGUubmV0MB4XDTIzMTExMzExNDgx
MFoXDTI0MTExMjExNDgxMFowgbsxCzAJBgNVBAYTAlVTMQswCQYDVQQIDAJPSDET
MBEGA1UEBwwKQ2luY2lubmF0aTEhMB8GA1UECgwYVW5pdmVyc2l0eSBvZiBDaW5j
aW5uYXRpMSowKAYDVQQLDCFEZXB0LiBFbGVjLiBDb21wLiBFbmcuIENvbXAuIFNj
aS4xETAPBgNVBAMMCGNsaWVudDI2MSgwJgYJKoZIhvcNAQkBFhlmcmFuY29AZ2F1
c3MuZWNlY3MudWMuZWR1MIIBIjANBgkqhkiG9w0BAQEFAAOCAQ8AMIIBCgKCAQEA
xgZSOWRYJmjBK0ZfD6KA46ccA1n7CyH4UV9zfH2BBl0BZAVtW9r4qsvfj1LRBNM3
STGqqdxu9ILisF3ktHN9VacobhJxiyT2ETPkkbaHmg4Aue80h78xrMfsMwgNPe9M
W6VBH9Lx9VeX2BYSfvYmXSKcykI1d7ZXGA9rTcjvlD/X+XwCgdSjo8aMNm0CCgHY
9bPW5E2l67h/tHyY35g2989cOe+v57YSRc/gE4WURqDX1zRI7mOuL0CP1CyL8cD0
AfPxVBZ8B+INSRQNlswmsSs7bEYdabYih3MRJ874fRb330UofoZGo6iBITPyS8Vj
OzP2nbr2kWfGQFP977E4iQIDAQABo4IBNzCCATMwCQYDVR0TBAIwADAdBgNVHQ4E
FgQUCihRJCpkjSLnOf8BYPtebmus/1gwgeQGA1UdIwSB3DCB2YAUtK6r7fzthKqt
d118hCgcys6uKkShgbWkgbIwga8xCzAJBgNVBAYTAlVTMRMwEQYDVQQIDApDYWxp
Zm9ybmlhMRYwFAYDVQQHDA1TYW4gRnJhbmNpc2NvMSAwHgYDVQQKDBdDb3B5bGVm
dCBDZXJ0aWZpY2F0ZSBDbzEfMB0GA1UECwwWTXkgT3JnYW5pemF0aW9uYWwgVW5p
dDERMA8GA1UEAwwIQ2hhbmdlTWUxHTAbBgkqhkiG9w0BCQEWDm1lQGV4YW1wbGUu
bmV0ggkAvWw79NMHydEwEwYDVR0lBAwwCgYIKwYBBQUHAwIwCwYDVR0PBAQDAgeA
MA0GCSqGSIb3DQEBCwUAA4IBAQDGL4su4aU9wYDYLEuH56/hvi9jaft5kNTkh9J5
mdJ75XJk3xm6amqkLt2+A0Ubo746opaDZps4zSdeM6or2RLKMf/QJe4cyK+TV0Dz
oU3Z5bJ+4AnUDJomLoNYvT/lHJIVmeG8HS6bL0GjodPBQc/Tvof4c9ecLwoKNyhh
sWh2zTCU7CNVr8eHO45OPYpAHQsCVtpx1X+iPs+grjql/0qFK36ZPKLJLnwHtP9r
3DH0s98up59vMyF6mGK9sS+2tQVMd+0vilPRXQuB3cqPloCFNmgRXEk9FVr+oL6b
77AwBDQLGfPyuLG+pDrZXQtqxR2yfVkV/sx+MwM6A37G1ylu
-----END CERTIFICATE-----
