Certificate:
    Data:
        Version: 3 (0x2)
        Serial Number:
            e8:dc:a9:df:35:b0:3b:95:46:43:ea:9c:12:b4:d2:d0
    Signature Algorithm: sha256WithRSAEncryption
        Issuer: C=US, ST=California, L=San Francisco, O=Copyleft Certificate Co, OU=My Organizational Unit, CN=ChangeMe/emailAddress=me@example.net
        Validity
            Not Before: Nov 11 18:50:44 2023 GMT
            Not After : Nov 10 18:50:44 2024 GMT
        Subject: C=US, ST=OH, L=Cincinnati, O=University of Cincinnati ., OU=Dept. Elec. Comp. . Eng. Comp. Sci., CN=client12/emailAddress=franco@gauss.ececs.uc.edu
        Subject Public Key Info:
            Public Key Algorithm: rsaEncryption
                Public-Key: (2048 bit)
                Modulus:
                    00:c9:47:b8:b2:af:e3:da:ec:29:b9:a9:a6:87:ce:
                    b1:79:06:93:5b:a1:53:ba:0f:ad:79:9e:2f:9f:7f:
                    b3:77:3f:d0:e4:79:49:83:83:e0:61:a0:2b:a2:87:
                    9d:b0:f1:79:c1:03:00:68:85:18:e6:e0:b3:ce:9b:
                    78:25:5b:90:e2:b7:0e:62:b0:a6:0b:eb:09:8f:e1:
                    51:52:d1:c8:ff:90:3d:10:26:23:b7:ea:20:ae:6b:
                    9a:6a:5c:eb:60:4c:32:35:9f:9f:01:8e:1e:bf:4d:
                    51:c3:45:1a:d0:9b:ea:be:5a:73:84:15:d2:38:ec:
                    55:b9:0e:d6:ff:b6:af:a9:07:2f:91:1b:87:61:4d:
                    fd:5b:41:08:b4:7f:9d:04:dc:bc:b7:50:02:a5:46:
                    fa:14:8a:8c:95:56:8c:06:8a:ff:c2:f0:76:21:83:
                    bf:b6:15:87:2e:42:c8:ef:5e:22:2f:59:c3:6b:f9:
                    f6:df:7d:26:25:14:f9:01:a2:e5:6d:50:d6:92:46:
                    71:6f:e0:29:42:17:8b:d0:d2:bd:e8:18:aa:57:60:
                    e0:39:68:49:57:69:9c:5b:f5:e8:1f:e5:c7:d1:a7:
                    3e:bc:2a:45:84:44:86:c1:9f:a6:c4:56:55:47:47:
                    db:9e:21:9e:02:a2:09:9c:17:25:4a:ea:96:f1:b8:
                    48:11
                Exponent: 65537 (0x10001)
        X509v3 extensions:
            X509v3 Basic Constraints: 
                CA:FALSE
            X509v3 Subject Key Identifier: 
                69:E4:ED:8D:52:9E:EB:83:5C:D9:5C:AB:EC:44:FA:1A:9D:46:C1:AB
            X509v3 Authority Key Identifier: 
                keyid:9C:0E:D5:A3:16:6F:C8:23:88:D1:12:C9:63:5D:18:D9:C9:FC:5B:E9
                DirName:/C=US/ST=California/L=San Francisco/O=Copyleft Certificate Co/OU=My Organizational Unit/CN=ChangeMe/emailAddress=me@example.net
                serial:A3:08:26:80:D2:47:98:75

            X509v3 Extended Key Usage: 
                TLS Web Client Authentication
            X509v3 Key Usage: 
                Digital Signature
    Signature Algorithm: sha256WithRSAEncryption
         a9:d0:f6:ed:8f:96:c4:95:ac:16:f3:98:a0:ff:31:b5:f9:3a:
         af:9e:a6:13:fe:12:ce:f0:46:11:fd:2a:3f:f6:ec:ff:3b:df:
         83:6d:1b:80:9e:f8:d7:37:e6:98:7a:54:b9:1f:22:2e:87:33:
         43:cb:0c:ba:f1:f3:17:a2:d4:4f:98:b3:8a:ea:df:93:01:7e:
         13:bd:10:3d:65:49:1b:63:d6:12:f9:39:7d:14:ad:d5:26:1f:
         93:0d:36:3b:af:6b:41:88:d6:8b:59:8e:64:ca:84:fd:55:18:
         3b:a2:0e:44:39:d0:2b:19:bf:33:7c:d6:e6:98:75:c7:d8:6c:
         52:9f:99:a9:6e:5f:a5:c3:18:a9:95:0e:2d:40:4a:81:fa:ac:
         d8:82:ce:02:0b:3b:b1:b6:c7:db:c6:d6:98:fe:77:72:5d:e7:
         9c:38:65:af:6f:cf:3d:51:fa:82:f5:dd:7c:6f:0f:71:87:22:
         42:ed:a7:f6:6d:62:da:8a:82:8d:18:69:be:9b:a6:94:be:9d:
         73:6e:54:8f:82:84:85:39:7c:ca:d8:db:a1:5f:ea:f8:f2:a2:
         78:bf:56:5c:f1:f2:8c:9e:6b:d4:a5:4e:b6:30:65:b0:7d:ab:
         f0:53:04:ce:7b:c7:d9:08:fc:fa:ba:a4:34:87:4b:5c:55:4d:
         68:70:00:da
-----BEGIN CERTIFICATE-----
MIIFNDCCBBygAwIBAgIRAOjcqd81sDuVRkPqnBK00tAwDQYJKoZIhvcNAQELBQAw
ga8xCzAJBgNVBAYTAlVTMRMwEQYDVQQIDApDYWxpZm9ybmlhMRYwFAYDVQQHDA1T
YW4gRnJhbmNpc2NvMSAwHgYDVQQKDBdDb3B5bGVmdCBDZXJ0aWZpY2F0ZSBDbzEf
MB0GA1UECwwWTXkgT3JnYW5pemF0aW9uYWwgVW5pdDERMA8GA1UEAwwIQ2hhbmdl
TWUxHTAbBgkqhkiG9w0BCQEWDm1lQGV4YW1wbGUubmV0MB4XDTIzMTExMTE4NTA0
NFoXDTI0MTExMDE4NTA0NFowgb8xCzAJBgNVBAYTAlVTMQswCQYDVQQIDAJPSDET
MBEGA1UEBwwKQ2luY2lubmF0aTEjMCEGA1UECgwaVW5pdmVyc2l0eSBvZiBDaW5j
aW5uYXRpIC4xLDAqBgNVBAsMI0RlcHQuIEVsZWMuIENvbXAuIC4gRW5nLiBDb21w
LiBTY2kuMREwDwYDVQQDDAhjbGllbnQxMjEoMCYGCSqGSIb3DQEJARYZZnJhbmNv
QGdhdXNzLmVjZWNzLnVjLmVkdTCCASIwDQYJKoZIhvcNAQEBBQADggEPADCCAQoC
ggEBAMlHuLKv49rsKbmppofOsXkGk1uhU7oPrXmeL59/s3c/0OR5SYOD4GGgK6KH
nbDxecEDAGiFGObgs86beCVbkOK3DmKwpgvrCY/hUVLRyP+QPRAmI7fqIK5rmmpc
62BMMjWfnwGOHr9NUcNFGtCb6r5ac4QV0jjsVbkO1v+2r6kHL5Ebh2FN/VtBCLR/
nQTcvLdQAqVG+hSKjJVWjAaK/8LwdiGDv7YVhy5CyO9eIi9Zw2v59t99JiUU+QGi
5W1Q1pJGcW/gKUIXi9DSvegYqldg4DloSVdpnFv16B/lx9GnPrwqRYREhsGfpsRW
VUdH254hngKiCZwXJUrqlvG4SBECAwEAAaOCATcwggEzMAkGA1UdEwQCMAAwHQYD
VR0OBBYEFGnk7Y1SnuuDXNlcq+xE+hqdRsGrMIHkBgNVHSMEgdwwgdmAFJwO1aMW
b8gjiNESyWNdGNnJ/FvpoYG1pIGyMIGvMQswCQYDVQQGEwJVUzETMBEGA1UECAwK
Q2FsaWZvcm5pYTEWMBQGA1UEBwwNU2FuIEZyYW5jaXNjbzEgMB4GA1UECgwXQ29w
eWxlZnQgQ2VydGlmaWNhdGUgQ28xHzAdBgNVBAsMFk15IE9yZ2FuaXphdGlvbmFs
IFVuaXQxETAPBgNVBAMMCENoYW5nZU1lMR0wGwYJKoZIhvcNAQkBFg5tZUBleGFt
cGxlLm5ldIIJAKMIJoDSR5h1MBMGA1UdJQQMMAoGCCsGAQUFBwMCMAsGA1UdDwQE
AwIHgDANBgkqhkiG9w0BAQsFAAOCAQEAqdD27Y+WxJWsFvOYoP8xtfk6r56mE/4S
zvBGEf0qP/bs/zvfg20bgJ741zfmmHpUuR8iLoczQ8sMuvHzF6LUT5iziurfkwF+
E70QPWVJG2PWEvk5fRSt1SYfkw02O69rQYjWi1mOZMqE/VUYO6IORDnQKxm/M3zW
5ph1x9hsUp+ZqW5fpcMYqZUOLUBKgfqs2ILOAgs7sbbH28bWmP53cl3nnDhlr2/P
PVH6gvXdfG8PcYciQu2n9m1i2oqCjRhpvpumlL6dc25Uj4KEhTl8ytjboV/q+PKi
eL9WXPHyjJ5r1KVOtjBlsH2r8FMEznvH2Qj8+rqkNIdLXFVNaHAA2g==
-----END CERTIFICATE-----
