Certificate:
    Data:
        Version: 3 (0x2)
        Serial Number:
            ea:8c:e9:75:55:3d:4b:69:d3:63:ef:f9:42:c4:f4:a8
    Signature Algorithm: sha256WithRSAEncryption
        Issuer: C=US, ST=California, L=San Francisco, O=Copyleft Certificate Co, OU=My Organizational Unit, CN=ChangeMe/emailAddress=me@example.net
        Validity
            Not Before: Nov 11 18:50:24 2023 GMT
            Not After : Nov 10 18:50:24 2024 GMT
        Subject: C=US, ST=OH, L=Cincinnati, O=University of Cincinnati ., OU=Dept. Elec. Comp. . Eng. Comp. Sci., CN=client7/emailAddress=franco@gauss.ececs.uc.edu
        Subject Public Key Info:
            Public Key Algorithm: rsaEncryption
                Public-Key: (2048 bit)
                Modulus:
                    00:d1:31:f4:8a:1d:e3:b2:c1:c8:f6:20:e0:bf:39:
                    38:70:5f:90:ca:33:1a:27:9a:5e:7e:12:70:dd:c3:
                    86:6d:53:68:39:21:3e:17:60:9b:6c:ce:4a:2d:e5:
                    f2:bd:5b:24:3e:c6:49:be:a0:16:72:6e:cc:66:34:
                    df:ee:0b:d9:70:c4:ad:b3:b6:89:92:ea:06:e4:4f:
                    27:6c:1d:11:4c:03:2c:05:4c:07:ac:c5:b9:f7:fa:
                    43:e5:e7:d8:76:5a:2a:15:2e:7c:f7:89:fd:62:5b:
                    1e:e4:4f:a3:ab:c2:15:30:d0:b8:a9:31:7d:3b:b6:
                    5c:d5:73:11:76:a8:5e:5a:f7:68:42:94:cd:13:99:
                    18:d4:6e:82:c1:f4:4a:cd:91:5e:f0:83:65:8a:70:
                    67:92:94:42:2a:67:fb:4c:71:65:ca:92:7b:fe:73:
                    63:89:d8:84:02:1c:7c:e0:4c:df:80:72:a4:2a:92:
                    4c:17:1d:cd:9f:14:4a:97:aa:08:56:f7:ad:48:13:
                    ed:9e:e5:1d:13:91:b1:ba:d4:d2:ad:ba:fa:df:dd:
                    0d:4c:1f:ce:5f:a2:b5:d2:e5:bf:1f:6d:32:f9:b7:
                    93:55:06:6b:10:13:2c:68:5e:02:24:54:13:d4:6f:
                    08:8b:1b:5a:54:76:e6:8c:1b:51:b0:8e:f0:d3:94:
                    d1:c3
                Exponent: 65537 (0x10001)
        X509v3 extensions:
            X509v3 Basic Constraints: 
                CA:FALSE
            X509v3 Subject Key Identifier: 
                B9:BE:26:52:FC:AA:8D:F0:DA:27:1B:5D:50:73:32:87:B4:DF:D2:E2
            X509v3 Authority Key Identifier: 
                keyid:9C:0E:D5:A3:16:6F:C8:23:88:D1:12:C9:63:5D:18:D9:C9:FC:5B:E9
                DirName:/C=US/ST=California/L=San Francisco/O=Copyleft Certificate Co/OU=My Organizational Unit/CN=ChangeMe/emailAddress=me@example.net
                serial:A3:08:26:80:D2:47:98:75

            X509v3 Extended Key Usage: 
                TLS Web Client Authentication
            X509v3 Key Usage: 
                Digital Signature
    Signature Algorithm: sha256WithRSAEncryption
         b0:52:25:4c:92:8a:fa:65:61:a0:2b:35:c1:2e:e0:35:0a:4f:
         2d:6d:f0:68:33:3b:bb:2f:f8:ff:8d:2c:fa:f4:1f:0a:b2:55:
         52:5a:96:88:30:c5:23:da:de:d7:10:55:4e:b2:21:c8:e8:6d:
         83:91:fd:2f:ca:ce:07:5d:6d:07:e8:d6:a0:f6:c4:b4:33:ed:
         d9:ec:56:cb:cc:98:11:ec:dc:04:b8:00:9b:b0:ea:b0:82:93:
         66:36:5d:c9:b0:9b:3c:89:c4:66:20:09:00:75:a9:57:f4:8c:
         7e:ae:eb:ca:9d:c7:86:f3:7b:d4:9a:12:d3:c3:c2:3b:c9:f7:
         1e:b3:bc:42:11:be:f2:19:3a:c3:6f:61:64:84:99:aa:e8:6a:
         c1:58:cb:7d:b7:cb:9a:b7:16:dd:fc:d7:f2:c6:60:84:8b:3c:
         2c:21:48:4c:db:b2:3c:95:d1:91:49:b7:40:70:eb:21:4e:0f:
         9f:19:1e:a1:2c:9c:ca:b1:8d:93:c6:32:a0:b4:f0:58:e4:87:
         9c:9d:c8:62:a8:0b:11:ce:4b:e1:72:82:45:56:18:d9:30:7f:
         85:9e:cb:0c:96:f8:c6:3f:c0:0e:63:98:a6:4f:53:51:d3:47:
         51:9a:77:b3:39:eb:66:e5:fb:dc:cd:aa:e4:d6:28:b4:7b:c6:
         0b:ea:58:fb
-----BEGIN CERTIFICATE-----
MIIFMzCCBBugAwIBAgIRAOqM6XVVPUtp02Pv+ULE9KgwDQYJKoZIhvcNAQELBQAw
ga8xCzAJBgNVBAYTAlVTMRMwEQYDVQQIDApDYWxpZm9ybmlhMRYwFAYDVQQHDA1T
YW4gRnJhbmNpc2NvMSAwHgYDVQQKDBdDb3B5bGVmdCBDZXJ0aWZpY2F0ZSBDbzEf
MB0GA1UECwwWTXkgT3JnYW5pemF0aW9uYWwgVW5pdDERMA8GA1UEAwwIQ2hhbmdl
TWUxHTAbBgkqhkiG9w0BCQEWDm1lQGV4YW1wbGUubmV0MB4XDTIzMTExMTE4NTAy
NFoXDTI0MTExMDE4NTAyNFowgb4xCzAJBgNVBAYTAlVTMQswCQYDVQQIDAJPSDET
MBEGA1UEBwwKQ2luY2lubmF0aTEjMCEGA1UECgwaVW5pdmVyc2l0eSBvZiBDaW5j
aW5uYXRpIC4xLDAqBgNVBAsMI0RlcHQuIEVsZWMuIENvbXAuIC4gRW5nLiBDb21w
LiBTY2kuMRAwDgYDVQQDDAdjbGllbnQ3MSgwJgYJKoZIhvcNAQkBFhlmcmFuY29A
Z2F1c3MuZWNlY3MudWMuZWR1MIIBIjANBgkqhkiG9w0BAQEFAAOCAQ8AMIIBCgKC
AQEA0TH0ih3jssHI9iDgvzk4cF+QyjMaJ5pefhJw3cOGbVNoOSE+F2CbbM5KLeXy
vVskPsZJvqAWcm7MZjTf7gvZcMSts7aJkuoG5E8nbB0RTAMsBUwHrMW59/pD5efY
dloqFS5894n9Ylse5E+jq8IVMNC4qTF9O7Zc1XMRdqheWvdoQpTNE5kY1G6CwfRK
zZFe8INlinBnkpRCKmf7THFlypJ7/nNjidiEAhx84EzfgHKkKpJMFx3NnxRKl6oI
VvetSBPtnuUdE5GxutTSrbr6390NTB/OX6K10uW/H20y+beTVQZrEBMsaF4CJFQT
1G8IixtaVHbmjBtRsI7w05TRwwIDAQABo4IBNzCCATMwCQYDVR0TBAIwADAdBgNV
HQ4EFgQUub4mUvyqjfDaJxtdUHMyh7Tf0uIwgeQGA1UdIwSB3DCB2YAUnA7VoxZv
yCOI0RLJY10Y2cn8W+mhgbWkgbIwga8xCzAJBgNVBAYTAlVTMRMwEQYDVQQIDApD
YWxpZm9ybmlhMRYwFAYDVQQHDA1TYW4gRnJhbmNpc2NvMSAwHgYDVQQKDBdDb3B5
bGVmdCBDZXJ0aWZpY2F0ZSBDbzEfMB0GA1UECwwWTXkgT3JnYW5pemF0aW9uYWwg
VW5pdDERMA8GA1UEAwwIQ2hhbmdlTWUxHTAbBgkqhkiG9w0BCQEWDm1lQGV4YW1w
bGUubmV0ggkAowgmgNJHmHUwEwYDVR0lBAwwCgYIKwYBBQUHAwIwCwYDVR0PBAQD
AgeAMA0GCSqGSIb3DQEBCwUAA4IBAQCwUiVMkor6ZWGgKzXBLuA1Ck8tbfBoMzu7
L/j/jSz69B8KslVSWpaIMMUj2t7XEFVOsiHI6G2Dkf0vys4HXW0H6Nag9sS0M+3Z
7FbLzJgR7NwEuACbsOqwgpNmNl3JsJs8icRmIAkAdalX9Ix+ruvKnceG83vUmhLT
w8I7yfces7xCEb7yGTrDb2FkhJmq6GrBWMt9t8uatxbd/NfyxmCEizwsIUhM27I8
ldGRSbdAcOshTg+fGR6hLJzKsY2TxjKgtPBY5IecnchiqAsRzkvhcoJFVhjZMH+F
nssMlvjGP8AOY5imT1NR00dRmnezOetm5fvczark1ii0e8YL6lj7
-----END CERTIFICATE-----
