Certificate:
    Data:
        Version: 3 (0x2)
        Serial Number:
            ec:44:51:52:63:91:22:39:c5:df:18:24:15:26:41:99
    Signature Algorithm: sha256WithRSAEncryption
        Issuer: C=US, ST=California, L=San Francisco, O=Copyleft Certificate Co, OU=My Organizational Unit, CN=ChangeMe/emailAddress=me@example.net
        Validity
            Not Before: Nov 11 18:52:56 2023 GMT
            Not After : Nov 10 18:52:56 2024 GMT
        Subject: C=US, ST=OH, L=Cincinnati, O=University of Cincinnati ., OU=Dept. Elec. Comp. . Eng. Comp. Sci., CN=client45/emailAddress=franco@gauss.ececs.uc.edu
        Subject Public Key Info:
            Public Key Algorithm: rsaEncryption
                Public-Key: (2048 bit)
                Modulus:
                    00:aa:8e:dc:e6:38:09:a4:f8:ff:01:b8:62:72:62:
                    b6:46:b8:66:ea:8b:a3:e7:85:b2:5a:92:d7:7d:e7:
                    11:35:83:b0:7d:40:23:f3:65:03:c1:26:24:61:1a:
                    24:0f:fd:31:f7:f0:50:4e:fb:55:f8:a2:da:aa:b4:
                    f9:c6:ee:17:d3:52:2a:18:75:60:80:8e:4a:59:fd:
                    52:ae:d8:66:0a:5f:f3:5e:11:b5:53:0b:e7:a6:6f:
                    2f:4c:37:12:a5:70:76:fe:b9:77:0d:f0:f2:d1:b9:
                    d0:18:17:52:3d:07:ab:3d:5e:3f:f8:2c:51:cb:31:
                    23:94:77:3f:88:46:ce:d5:36:b7:81:a0:c9:96:ea:
                    c1:43:b5:e6:2b:18:eb:9c:4b:7d:93:21:59:1b:c7:
                    61:71:86:20:2f:50:a9:31:e1:26:9e:b8:44:da:dc:
                    b8:fd:9d:80:d8:e0:0e:b2:01:bf:e1:9c:04:5d:1a:
                    da:0a:a9:38:e9:5d:58:b4:5e:21:1f:86:50:a2:f7:
                    32:4f:b2:cb:5e:54:9a:d8:74:f1:7c:cf:58:ce:45:
                    31:30:b6:2f:c8:0d:2b:37:07:88:ba:87:bb:66:e3:
                    53:b0:49:25:2b:b7:66:30:f2:0d:3d:4c:10:02:af:
                    90:50:54:93:87:66:e8:e8:24:ea:2f:4e:32:e2:5f:
                    ee:e1
                Exponent: 65537 (0x10001)
        X509v3 extensions:
            X509v3 Basic Constraints: 
                CA:FALSE
            X509v3 Subject Key Identifier: 
                FB:D3:77:45:D6:0C:E8:AE:AA:67:4C:53:F2:DA:AA:69:0C:75:17:F7
            X509v3 Authority Key Identifier: 
                keyid:9C:0E:D5:A3:16:6F:C8:23:88:D1:12:C9:63:5D:18:D9:C9:FC:5B:E9
                DirName:/C=US/ST=California/L=San Francisco/O=Copyleft Certificate Co/OU=My Organizational Unit/CN=ChangeMe/emailAddress=me@example.net
                serial:A3:08:26:80:D2:47:98:75

            X509v3 Extended Key Usage: 
                TLS Web Client Authentication
            X509v3 Key Usage: 
                Digital Signature
    Signature Algorithm: sha256WithRSAEncryption
         9f:e0:e6:6d:d6:e6:1d:bd:7f:c8:31:44:74:2a:cd:2d:03:e7:
         e1:2c:f4:da:41:09:0e:da:86:60:40:31:6c:1c:c7:41:c5:10:
         f4:07:a0:7b:4c:99:cf:3d:5a:ef:6a:35:5d:eb:df:a2:d0:98:
         da:76:b7:58:06:41:e8:ca:e6:fa:a8:fe:16:02:40:6f:26:64:
         40:bd:6b:7e:9d:1c:74:3a:76:e0:97:ed:2d:6f:3b:4a:1d:98:
         9a:43:16:56:2f:52:42:c4:c5:7f:67:4c:0b:fb:00:67:ed:db:
         08:b3:86:6e:9b:48:c7:21:2a:0e:2d:ab:ee:ad:47:96:bf:7f:
         68:55:e6:0d:aa:f9:b1:dd:03:26:1a:0e:b6:37:36:86:d1:d6:
         21:19:a4:1c:68:10:da:f0:54:bd:c6:90:33:c5:1b:0d:23:12:
         5e:56:b0:82:cb:15:f5:cc:40:52:fc:c2:f3:d1:0e:ba:2c:02:
         1d:76:20:27:c3:83:ef:28:31:74:7e:c9:6a:11:5e:0c:8d:6b:
         ac:d6:d1:72:1a:7a:b6:42:59:2c:10:88:32:cd:07:f0:44:df:
         ad:30:87:f9:94:04:9f:5f:a3:e9:16:99:12:9d:fb:00:dd:47:
         44:87:34:42:3f:c5:9a:bc:97:c8:9d:f8:84:8b:59:55:34:64:
         73:97:a0:c4
-----BEGIN CERTIFICATE-----
MIIFNDCCBBygAwIBAgIRAOxEUVJjkSI5xd8YJBUmQZkwDQYJKoZIhvcNAQELBQAw
ga8xCzAJBgNVBAYTAlVTMRMwEQYDVQQIDApDYWxpZm9ybmlhMRYwFAYDVQQHDA1T
YW4gRnJhbmNpc2NvMSAwHgYDVQQKDBdDb3B5bGVmdCBDZXJ0aWZpY2F0ZSBDbzEf
MB0GA1UECwwWTXkgT3JnYW5pemF0aW9uYWwgVW5pdDERMA8GA1UEAwwIQ2hhbmdl
TWUxHTAbBgkqhkiG9w0BCQEWDm1lQGV4YW1wbGUubmV0MB4XDTIzMTExMTE4NTI1
NloXDTI0MTExMDE4NTI1Nlowgb8xCzAJBgNVBAYTAlVTMQswCQYDVQQIDAJPSDET
MBEGA1UEBwwKQ2luY2lubmF0aTEjMCEGA1UECgwaVW5pdmVyc2l0eSBvZiBDaW5j
aW5uYXRpIC4xLDAqBgNVBAsMI0RlcHQuIEVsZWMuIENvbXAuIC4gRW5nLiBDb21w
LiBTY2kuMREwDwYDVQQDDAhjbGllbnQ0NTEoMCYGCSqGSIb3DQEJARYZZnJhbmNv
QGdhdXNzLmVjZWNzLnVjLmVkdTCCASIwDQYJKoZIhvcNAQEBBQADggEPADCCAQoC
ggEBAKqO3OY4CaT4/wG4YnJitka4ZuqLo+eFslqS133nETWDsH1AI/NlA8EmJGEa
JA/9MffwUE77Vfii2qq0+cbuF9NSKhh1YICOSln9Uq7YZgpf814RtVML56ZvL0w3
EqVwdv65dw3w8tG50BgXUj0Hqz1eP/gsUcsxI5R3P4hGztU2t4GgyZbqwUO15isY
65xLfZMhWRvHYXGGIC9QqTHhJp64RNrcuP2dgNjgDrIBv+GcBF0a2gqpOOldWLRe
IR+GUKL3Mk+yy15Umth08XzPWM5FMTC2L8gNKzcHiLqHu2bjU7BJJSu3ZjDyDT1M
EAKvkFBUk4dm6Ogk6i9OMuJf7uECAwEAAaOCATcwggEzMAkGA1UdEwQCMAAwHQYD
VR0OBBYEFPvTd0XWDOiuqmdMU/LaqmkMdRf3MIHkBgNVHSMEgdwwgdmAFJwO1aMW
b8gjiNESyWNdGNnJ/FvpoYG1pIGyMIGvMQswCQYDVQQGEwJVUzETMBEGA1UECAwK
Q2FsaWZvcm5pYTEWMBQGA1UEBwwNU2FuIEZyYW5jaXNjbzEgMB4GA1UECgwXQ29w
eWxlZnQgQ2VydGlmaWNhdGUgQ28xHzAdBgNVBAsMFk15IE9yZ2FuaXphdGlvbmFs
IFVuaXQxETAPBgNVBAMMCENoYW5nZU1lMR0wGwYJKoZIhvcNAQkBFg5tZUBleGFt
cGxlLm5ldIIJAKMIJoDSR5h1MBMGA1UdJQQMMAoGCCsGAQUFBwMCMAsGA1UdDwQE
AwIHgDANBgkqhkiG9w0BAQsFAAOCAQEAn+DmbdbmHb1/yDFEdCrNLQPn4Sz02kEJ
DtqGYEAxbBzHQcUQ9Aege0yZzz1a72o1XevfotCY2na3WAZB6Mrm+qj+FgJAbyZk
QL1rfp0cdDp24JftLW87Sh2YmkMWVi9SQsTFf2dMC/sAZ+3bCLOGbptIxyEqDi2r
7q1Hlr9/aFXmDar5sd0DJhoOtjc2htHWIRmkHGgQ2vBUvcaQM8UbDSMSXlawgssV
9cxAUvzC89EOuiwCHXYgJ8OD7ygxdH7JahFeDI1rrNbRchp6tkJZLBCIMs0H8ETf
rTCH+ZQEn1+j6RaZEp37AN1HRIc0Qj/FmryXyJ34hItZVTRkc5egxA==
-----END CERTIFICATE-----
