Certificate:
    Data:
        Version: 3 (0x2)
        Serial Number:
            ef:75:12:ba:12:46:03:79:9b:7d:1f:f0:7d:cb:55:b8
    Signature Algorithm: sha256WithRSAEncryption
        Issuer: C=US, ST=California, L=San Francisco, O=Copyleft Certificate Co, OU=My Organizational Unit, CN=ChangeMe/emailAddress=me@example.net
        Validity
            Not Before: Nov 13 11:47:58 2023 GMT
            Not After : Nov 12 11:47:58 2024 GMT
        Subject: C=US, ST=OH, L=Cincinnati, O=University of Cincinnati, OU=Dept. Elec. Comp. Eng. Comp. Sci., CN=client23/emailAddress=franco@gauss.ececs.uc.edu
        Subject Public Key Info:
            Public Key Algorithm: rsaEncryption
                Public-Key: (2048 bit)
                Modulus:
                    00:c4:0a:95:cd:2a:c7:1f:5a:fc:8e:fc:b0:f8:ba:
                    ce:f2:a6:e9:2d:57:1a:d4:f9:67:b9:de:6c:02:d9:
                    e7:5f:99:0e:ad:bb:36:3d:1d:56:9a:9b:9b:1d:b1:
                    29:85:eb:90:69:50:fe:c7:81:b1:8b:dc:b1:4e:a9:
                    8a:ea:26:7f:67:95:db:9d:89:63:10:21:08:57:6d:
                    27:5a:12:40:97:a3:ff:ca:04:0c:6a:6d:4d:a7:e3:
                    44:43:43:ac:1e:8f:d4:e6:21:4c:dc:18:ee:5d:d2:
                    1c:99:93:3e:c7:2c:e2:c8:d8:33:af:9c:bb:dc:3e:
                    37:d3:35:fd:ac:78:c4:d9:29:62:f7:2b:78:56:2e:
                    2c:44:90:62:82:e8:40:08:02:f6:de:fb:80:87:bb:
                    51:82:c3:94:34:2b:7b:45:b8:75:f7:92:5f:20:cd:
                    af:d9:d7:4a:c2:83:3a:83:7d:85:99:b8:46:da:c5:
                    25:c1:0f:48:66:0a:6b:1e:f0:15:30:fb:44:45:3f:
                    62:6d:54:02:86:70:95:91:93:f9:87:f7:8e:89:65:
                    5b:5f:7c:28:3b:d9:05:9e:ef:73:0c:14:12:35:13:
                    bf:1e:65:28:80:f1:47:40:e5:34:c9:50:86:cf:b1:
                    f8:a7:a5:53:37:9b:76:ed:6d:55:3f:aa:84:7c:93:
                    33:e7
                Exponent: 65537 (0x10001)
        X509v3 extensions:
            X509v3 Basic Constraints: 
                CA:FALSE
            X509v3 Subject Key Identifier: 
                8D:7A:4C:0F:E3:4D:96:7A:EA:BE:5E:69:B2:EC:32:26:FF:FD:D9:61
            X509v3 Authority Key Identifier: 
                keyid:B4:AE:AB:ED:FC:ED:84:AA:AD:77:5D:7C:84:28:1C:CA:CE:AE:2A:44
                DirName:/C=US/ST=California/L=San Francisco/O=Copyleft Certificate Co/OU=My Organizational Unit/CN=ChangeMe/emailAddress=me@example.net
                serial:BD:6C:3B:F4:D3:07:C9:D1

            X509v3 Extended Key Usage: 
                TLS Web Client Authentication
            X509v3 Key Usage: 
                Digital Signature
    Signature Algorithm: sha256WithRSAEncryption
         82:84:24:5f:55:0c:df:e4:4e:b1:fb:d8:e1:4b:fa:5c:69:ff:
         a1:1a:98:65:5a:e6:b4:47:c3:5d:93:ba:c4:4c:73:31:ef:6f:
         0a:6a:6b:3f:2a:91:21:9c:1e:54:33:62:9f:b3:f2:14:82:77:
         1a:20:da:24:10:ba:a7:3b:b0:ed:01:12:fb:dd:ab:3b:64:da:
         93:87:66:4d:6d:a4:93:b5:f0:90:67:25:ef:25:c7:53:86:0b:
         19:cd:b8:69:dd:cb:29:e2:e1:82:ea:6b:fe:d9:82:aa:d7:ac:
         cd:3c:1f:f5:48:4e:be:c7:c8:dd:41:6d:30:72:73:3f:16:8e:
         53:f0:76:5f:a1:14:88:41:b9:c3:59:b2:95:e2:4b:42:c0:30:
         6e:94:b4:aa:b7:b0:d7:27:1f:25:9e:bd:51:53:b9:9e:f6:5b:
         f3:76:42:55:e7:55:eb:a7:54:7f:51:6a:65:32:d2:bd:a7:46:
         ad:56:bb:2b:05:04:83:2c:03:09:65:ae:07:60:c9:9b:a5:8a:
         e2:73:1c:b4:75:6f:5a:ce:0a:b0:14:63:e8:8e:d0:0c:4c:ee:
         9a:ad:16:80:4c:32:f9:db:21:43:3f:25:ae:41:4f:0f:aa:26:
         b7:6d:4b:1c:f3:5b:0e:b8:1d:7e:04:93:38:88:58:2f:0b:f1:
         fb:10:14:6a
-----BEGIN CERTIFICATE-----
MIIFMDCCBBigAwIBAgIRAO91EroSRgN5m30f8H3LVbgwDQYJKoZIhvcNAQELBQAw
ga8xCzAJBgNVBAYTAlVTMRMwEQYDVQQIDApDYWxpZm9ybmlhMRYwFAYDVQQHDA1T
YW4gRnJhbmNpc2NvMSAwHgYDVQQKDBdDb3B5bGVmdCBDZXJ0aWZpY2F0ZSBDbzEf
MB0GA1UECwwWTXkgT3JnYW5pemF0aW9uYWwgVW5pdDERMA8GA1UEAwwIQ2hhbmdl
TWUxHTAbBgkqhkiG9w0BCQEWDm1lQGV4YW1wbGUubmV0MB4XDTIzMTExMzExNDc1
OFoXDTI0MTExMjExNDc1OFowgbsxCzAJBgNVBAYTAlVTMQswCQYDVQQIDAJPSDET
MBEGA1UEBwwKQ2luY2lubmF0aTEhMB8GA1UECgwYVW5pdmVyc2l0eSBvZiBDaW5j
aW5uYXRpMSowKAYDVQQLDCFEZXB0LiBFbGVjLiBDb21wLiBFbmcuIENvbXAuIFNj
aS4xETAPBgNVBAMMCGNsaWVudDIzMSgwJgYJKoZIhvcNAQkBFhlmcmFuY29AZ2F1
c3MuZWNlY3MudWMuZWR1MIIBIjANBgkqhkiG9w0BAQEFAAOCAQ8AMIIBCgKCAQEA
xAqVzSrHH1r8jvyw+LrO8qbpLVca1Plnud5sAtnnX5kOrbs2PR1WmpubHbEpheuQ
aVD+x4Gxi9yxTqmK6iZ/Z5XbnYljECEIV20nWhJAl6P/ygQMam1Np+NEQ0OsHo/U
5iFM3BjuXdIcmZM+xyziyNgzr5y73D430zX9rHjE2Sli9yt4Vi4sRJBiguhACAL2
3vuAh7tRgsOUNCt7Rbh195JfIM2v2ddKwoM6g32FmbhG2sUlwQ9IZgprHvAVMPtE
RT9ibVQChnCVkZP5h/eOiWVbX3woO9kFnu9zDBQSNRO/HmUogPFHQOU0yVCGz7H4
p6VTN5t27W1VP6qEfJMz5wIDAQABo4IBNzCCATMwCQYDVR0TBAIwADAdBgNVHQ4E
FgQUjXpMD+NNlnrqvl5psuwyJv/92WEwgeQGA1UdIwSB3DCB2YAUtK6r7fzthKqt
d118hCgcys6uKkShgbWkgbIwga8xCzAJBgNVBAYTAlVTMRMwEQYDVQQIDApDYWxp
Zm9ybmlhMRYwFAYDVQQHDA1TYW4gRnJhbmNpc2NvMSAwHgYDVQQKDBdDb3B5bGVm
dCBDZXJ0aWZpY2F0ZSBDbzEfMB0GA1UECwwWTXkgT3JnYW5pemF0aW9uYWwgVW5p
dDERMA8GA1UEAwwIQ2hhbmdlTWUxHTAbBgkqhkiG9w0BCQEWDm1lQGV4YW1wbGUu
bmV0ggkAvWw79NMHydEwEwYDVR0lBAwwCgYIKwYBBQUHAwIwCwYDVR0PBAQDAgeA
MA0GCSqGSIb3DQEBCwUAA4IBAQCChCRfVQzf5E6x+9jhS/pcaf+hGphlWua0R8Nd
k7rETHMx728Kams/KpEhnB5UM2Kfs/IUgncaINokELqnO7DtARL73as7ZNqTh2ZN
baSTtfCQZyXvJcdThgsZzbhp3csp4uGC6mv+2YKq16zNPB/1SE6+x8jdQW0wcnM/
Fo5T8HZfoRSIQbnDWbKV4ktCwDBulLSqt7DXJx8lnr1RU7me9lvzdkJV51Xrp1R/
UWplMtK9p0atVrsrBQSDLAMJZa4HYMmbpYricxy0dW9azgqwFGPojtAMTO6arRaA
TDL52yFDPyWuQU8Pqia3bUsc81sOuB1+BJM4iFgvC/H7EBRq
-----END CERTIFICATE-----
