Certificate:
    Data:
        Version: 3 (0x2)
        Serial Number:
            ef:ad:b5:c7:3a:e5:46:b0:9f:36:9b:27:b2:75:13:e2
    Signature Algorithm: sha256WithRSAEncryption
        Issuer: C=US, ST=California, L=San Francisco, O=Copyleft Certificate Co, OU=My Organizational Unit, CN=ChangeMe/emailAddress=me@example.net
        Validity
            Not Before: Nov 12 11:46:31 2023 GMT
            Not After : Nov 11 11:46:31 2024 GMT
        Subject: C=US, ST=OH, L=Cincinnati, O=University of Cincinnati, OU=Dept. Elec. Comp. Eng. Comp. Sci., CN=client4/emailAddress=franco@gauss.ececs.uc.edu
        Subject Public Key Info:
            Public Key Algorithm: rsaEncryption
                Public-Key: (2048 bit)
                Modulus:
                    00:d6:b2:4c:bf:b2:02:d8:1c:a0:21:2c:5f:37:dd:
                    73:11:1c:42:6a:7c:44:84:a7:b0:b0:2a:2d:80:f4:
                    7c:a6:f0:0a:f9:39:14:aa:ef:c1:19:84:6e:20:61:
                    57:d0:13:3a:44:3c:c4:0a:6b:8b:0a:a2:27:12:02:
                    b5:2a:9c:e7:f0:a2:ef:7b:ec:e1:9c:06:35:c8:60:
                    b0:f9:28:bb:ed:bd:e7:d0:84:f9:9f:49:74:38:e9:
                    e1:63:a2:9a:37:42:1c:c2:70:a5:66:82:1e:25:3c:
                    26:ba:86:fc:dc:db:b7:6e:60:bb:77:ef:8f:aa:0e:
                    26:06:4c:c5:4c:a9:0e:a4:05:97:48:57:e3:11:9e:
                    80:4a:df:cf:0e:ff:5c:1f:d6:fe:a9:98:84:e3:f6:
                    76:3f:21:39:b3:6b:d4:a2:16:41:8f:54:38:cc:2d:
                    ec:fa:ed:45:4f:c7:11:02:ba:71:8f:b4:95:7f:50:
                    68:ef:41:31:9a:19:98:98:ab:9b:b1:fb:a7:f4:15:
                    c5:b4:73:86:df:50:f5:d2:b2:9f:ce:f1:2b:fb:7b:
                    47:0c:d6:21:f0:99:74:f5:5c:0d:c2:0c:da:14:49:
                    20:10:60:eb:3d:0d:2b:f5:b6:98:23:36:46:da:d7:
                    8d:5c:24:95:e9:f6:e3:71:7b:65:a1:1b:77:03:1d:
                    1b:c5
                Exponent: 65537 (0x10001)
        X509v3 extensions:
            X509v3 Basic Constraints: 
                CA:FALSE
            X509v3 Subject Key Identifier: 
                5C:CE:E4:C5:15:A2:D4:52:71:F9:E1:B8:4C:C3:F6:8C:89:9D:21:05
            X509v3 Authority Key Identifier: 
                keyid:C4:46:F2:96:38:56:02:B8:9D:09:04:52:25:91:35:97:6A:D7:B1:F0
                DirName:/C=US/ST=California/L=San Francisco/O=Copyleft Certificate Co/OU=My Organizational Unit/CN=ChangeMe/emailAddress=me@example.net
                serial:D1:5A:15:1C:F0:20:95:62

            X509v3 Extended Key Usage: 
                TLS Web Client Authentication
            X509v3 Key Usage: 
                Digital Signature
    Signature Algorithm: sha256WithRSAEncryption
         08:94:94:b6:22:08:ff:f5:27:fc:d2:12:bc:33:9a:67:de:77:
         6a:a1:7c:57:1e:4b:b5:6f:72:22:3c:1b:44:49:c3:7d:7e:ba:
         39:7e:74:89:5c:dd:17:c6:ee:37:30:bc:c2:a3:62:f9:8d:aa:
         1b:7d:7b:1a:16:75:c3:ff:75:3c:a3:1b:77:52:34:57:9b:76:
         50:1e:d4:1c:56:d9:15:39:73:54:4a:fa:15:17:63:cd:5e:8d:
         8b:91:11:f7:df:88:4b:d1:8b:08:02:b6:c4:48:4b:48:9c:71:
         d9:af:5a:1a:2a:68:da:ee:6f:43:6b:18:32:2f:78:2d:1d:cb:
         08:e8:00:e5:bf:fc:93:c4:0a:8e:c3:c2:c3:93:00:16:ad:f1:
         37:1b:a2:8d:e8:d5:69:af:50:1a:d2:06:66:df:0e:67:aa:cc:
         fa:a1:d8:e9:49:09:72:8e:c6:15:0c:81:7a:b8:58:ee:04:2c:
         7b:4b:69:7b:7c:8c:e0:80:67:d7:28:fc:5a:f1:1d:5f:a0:bb:
         d8:cb:77:32:7b:59:f4:27:b4:73:18:58:19:69:91:69:76:8e:
         6f:ed:46:00:7d:14:6f:95:37:f7:5a:23:04:4d:ab:f1:39:4e:
         4b:08:d0:d1:68:00:7e:bc:2d:51:5c:10:15:c0:16:f9:7f:24:
         b1:03:d0:ce
-----BEGIN CERTIFICATE-----
MIIFLzCCBBegAwIBAgIRAO+ttcc65UawnzabJ7J1E+IwDQYJKoZIhvcNAQELBQAw
ga8xCzAJBgNVBAYTAlVTMRMwEQYDVQQIDApDYWxpZm9ybmlhMRYwFAYDVQQHDA1T
YW4gRnJhbmNpc2NvMSAwHgYDVQQKDBdDb3B5bGVmdCBDZXJ0aWZpY2F0ZSBDbzEf
MB0GA1UECwwWTXkgT3JnYW5pemF0aW9uYWwgVW5pdDERMA8GA1UEAwwIQ2hhbmdl
TWUxHTAbBgkqhkiG9w0BCQEWDm1lQGV4YW1wbGUubmV0MB4XDTIzMTExMjExNDYz
MVoXDTI0MTExMTExNDYzMVowgboxCzAJBgNVBAYTAlVTMQswCQYDVQQIDAJPSDET
MBEGA1UEBwwKQ2luY2lubmF0aTEhMB8GA1UECgwYVW5pdmVyc2l0eSBvZiBDaW5j
aW5uYXRpMSowKAYDVQQLDCFEZXB0LiBFbGVjLiBDb21wLiBFbmcuIENvbXAuIFNj
aS4xEDAOBgNVBAMMB2NsaWVudDQxKDAmBgkqhkiG9w0BCQEWGWZyYW5jb0BnYXVz
cy5lY2Vjcy51Yy5lZHUwggEiMA0GCSqGSIb3DQEBAQUAA4IBDwAwggEKAoIBAQDW
sky/sgLYHKAhLF833XMRHEJqfESEp7CwKi2A9Hym8Ar5ORSq78EZhG4gYVfQEzpE
PMQKa4sKoicSArUqnOfwou977OGcBjXIYLD5KLvtvefQhPmfSXQ46eFjopo3QhzC
cKVmgh4lPCa6hvzc27duYLt374+qDiYGTMVMqQ6kBZdIV+MRnoBK388O/1wf1v6p
mITj9nY/ITmza9SiFkGPVDjMLez67UVPxxECunGPtJV/UGjvQTGaGZiYq5ux+6f0
FcW0c4bfUPXSsp/O8Sv7e0cM1iHwmXT1XA3CDNoUSSAQYOs9DSv1tpgjNkba141c
JJXp9uNxe2WhG3cDHRvFAgMBAAGjggE3MIIBMzAJBgNVHRMEAjAAMB0GA1UdDgQW
BBRczuTFFaLUUnH54bhMw/aMiZ0hBTCB5AYDVR0jBIHcMIHZgBTERvKWOFYCuJ0J
BFIlkTWXatex8KGBtaSBsjCBrzELMAkGA1UEBhMCVVMxEzARBgNVBAgMCkNhbGlm
b3JuaWExFjAUBgNVBAcMDVNhbiBGcmFuY2lzY28xIDAeBgNVBAoMF0NvcHlsZWZ0
IENlcnRpZmljYXRlIENvMR8wHQYDVQQLDBZNeSBPcmdhbml6YXRpb25hbCBVbml0
MREwDwYDVQQDDAhDaGFuZ2VNZTEdMBsGCSqGSIb3DQEJARYObWVAZXhhbXBsZS5u
ZXSCCQDRWhUc8CCVYjATBgNVHSUEDDAKBggrBgEFBQcDAjALBgNVHQ8EBAMCB4Aw
DQYJKoZIhvcNAQELBQADggEBAAiUlLYiCP/1J/zSErwzmmfed2qhfFceS7VvciI8
G0RJw31+ujl+dIlc3RfG7jcwvMKjYvmNqht9exoWdcP/dTyjG3dSNFebdlAe1BxW
2RU5c1RK+hUXY81ejYuREfffiEvRiwgCtsRIS0iccdmvWhoqaNrub0NrGDIveC0d
ywjoAOW//JPECo7DwsOTABat8Tcboo3o1WmvUBrSBmbfDmeqzPqh2OlJCXKOxhUM
gXq4WO4ELHtLaXt8jOCAZ9co/FrxHV+gu9jLdzJ7WfQntHMYWBlpkWl2jm/tRgB9
FG+VN/daIwRNq/E5TksI0NFoAH68LVFcEBXAFvl/JLED0M4=
-----END CERTIFICATE-----
