Certificate:
    Data:
        Version: 3 (0x2)
        Serial Number:
            ef:d6:cf:52:8f:7c:a4:4e:7a:7a:40:1f:76:c0:0c:e3
    Signature Algorithm: sha256WithRSAEncryption
        Issuer: C=US, ST=California, L=San Francisco, O=Copyleft Certificate Co, OU=My Organizational Unit, CN=ChangeMe/emailAddress=me@example.net
        Validity
            Not Before: Jan 23 18:28:14 2021 GMT
            Not After : Jan 23 18:28:14 2022 GMT
        Subject: C=US, ST=OH, L=Cincinnati, O=University of Cincinnati, OU=Dept. Electrical Eng. and Computer Sci., CN=client41/emailAddress=franco@gauss.ececs.uc.edu
        Subject Public Key Info:
            Public Key Algorithm: rsaEncryption
                Public-Key: (2048 bit)
                Modulus:
                    00:c0:ee:64:7b:98:00:22:cf:2e:a3:f0:09:d5:23:
                    18:d8:99:4e:be:14:e1:92:30:03:06:8f:81:6d:09:
                    5e:be:4a:57:a4:4a:d3:b3:a9:2f:22:07:5f:dd:15:
                    bf:10:2c:f8:09:21:82:9d:4a:af:08:a1:22:2b:d6:
                    71:69:c7:09:5d:f6:f2:62:ea:cd:49:08:34:89:fb:
                    d5:54:6f:f6:b4:8c:e8:0f:df:23:57:34:b4:58:78:
                    f2:6a:4c:40:20:ea:ac:e9:bb:f0:bd:aa:d1:2b:92:
                    b6:d1:e1:8e:73:03:9d:85:92:0c:ea:8a:5f:b6:e6:
                    8b:ec:d9:e4:22:aa:d5:6b:8a:40:81:84:cd:db:b9:
                    2a:9d:44:95:dd:80:bb:80:de:15:51:6d:62:6b:d9:
                    ce:68:7c:75:82:0b:32:14:d1:2b:89:17:7a:af:cd:
                    43:46:71:a8:0e:53:50:3b:46:58:32:d0:9a:89:da:
                    2b:79:2e:e1:b2:23:69:b7:7d:2d:52:83:65:06:b7:
                    42:0e:ff:09:54:23:d6:34:94:5f:f2:bd:3c:1d:ff:
                    7f:0b:a6:71:de:63:3f:85:a2:8e:49:7b:54:e0:a7:
                    25:e3:be:ad:a9:e5:e4:fc:45:c4:df:fe:dd:7b:4c:
                    46:ff:5f:de:46:31:37:ae:3d:43:f9:f2:60:59:9a:
                    b1:4d
                Exponent: 65537 (0x10001)
        X509v3 extensions:
            X509v3 Basic Constraints: 
                CA:FALSE
            X509v3 Subject Key Identifier: 
                BD:A8:C4:A3:C7:0C:42:B5:BD:3B:C3:BD:2D:0D:FD:33:84:DE:36:B9
            X509v3 Authority Key Identifier: 
                keyid:EF:DC:B6:3D:4B:FD:A7:87:05:C5:22:3D:8B:DC:BF:99:2A:EE:E4:DB
                DirName:/C=US/ST=California/L=San Francisco/O=Copyleft Certificate Co/OU=My Organizational Unit/CN=ChangeMe/emailAddress=me@example.net
                serial:87:1E:1D:DC:6B:8C:66:88

            X509v3 Extended Key Usage: 
                TLS Web Client Authentication
            X509v3 Key Usage: 
                Digital Signature
    Signature Algorithm: sha256WithRSAEncryption
         43:88:fb:d6:c3:c4:84:c7:52:7c:29:7e:1f:5f:93:0c:03:ec:
         db:50:8f:9f:e7:47:d8:42:5f:43:fa:46:05:26:88:35:27:3c:
         bc:61:29:f7:bd:16:fa:0d:a7:09:26:68:29:51:74:e2:4d:ff:
         ff:d1:36:b8:87:69:8e:43:09:31:a9:9e:1f:90:c6:e0:b9:3d:
         9f:e8:bd:c1:2e:8e:eb:71:30:58:8d:75:70:bd:21:9c:87:cd:
         d8:da:14:c9:05:b3:31:f9:45:82:8a:fc:8d:bf:fc:f6:2f:d8:
         44:a3:4d:45:bf:2f:3f:c6:7c:91:bd:93:4d:7a:9b:00:7f:cd:
         4a:6a:3f:de:4f:ec:01:43:89:32:8a:ab:dc:e4:22:c9:f8:58:
         a7:c7:d6:6b:80:10:c0:da:46:f6:aa:0b:1a:39:3a:2c:f0:a1:
         11:82:40:ee:3f:ae:d4:f1:44:bd:78:50:9c:f2:dc:34:10:c9:
         4c:de:7e:45:c2:8e:e9:de:cd:01:0f:7b:74:99:6e:a3:59:a7:
         3e:75:24:98:3a:62:38:80:a0:d1:8a:44:7b:f2:4d:d7:21:fd:
         e3:59:d4:31:90:47:cb:b4:7d:f9:8d:0c:fb:33:27:df:45:c7:
         d9:6c:96:f6:eb:76:9a:58:cc:42:42:bd:b7:f7:41:ca:5f:1a:
         69:67:73:b7
-----BEGIN CERTIFICATE-----
MIIFNjCCBB6gAwIBAgIRAO/Wz1KPfKROenpAH3bADOMwDQYJKoZIhvcNAQELBQAw
ga8xCzAJBgNVBAYTAlVTMRMwEQYDVQQIDApDYWxpZm9ybmlhMRYwFAYDVQQHDA1T
YW4gRnJhbmNpc2NvMSAwHgYDVQQKDBdDb3B5bGVmdCBDZXJ0aWZpY2F0ZSBDbzEf
MB0GA1UECwwWTXkgT3JnYW5pemF0aW9uYWwgVW5pdDERMA8GA1UEAwwIQ2hhbmdl
TWUxHTAbBgkqhkiG9w0BCQEWDm1lQGV4YW1wbGUubmV0MB4XDTIxMDEyMzE4Mjgx
NFoXDTIyMDEyMzE4MjgxNFowgcExCzAJBgNVBAYTAlVTMQswCQYDVQQIDAJPSDET
MBEGA1UEBwwKQ2luY2lubmF0aTEhMB8GA1UECgwYVW5pdmVyc2l0eSBvZiBDaW5j
aW5uYXRpMTAwLgYDVQQLDCdEZXB0LiBFbGVjdHJpY2FsIEVuZy4gYW5kIENvbXB1
dGVyIFNjaS4xETAPBgNVBAMMCGNsaWVudDQxMSgwJgYJKoZIhvcNAQkBFhlmcmFu
Y29AZ2F1c3MuZWNlY3MudWMuZWR1MIIBIjANBgkqhkiG9w0BAQEFAAOCAQ8AMIIB
CgKCAQEAwO5ke5gAIs8uo/AJ1SMY2JlOvhThkjADBo+BbQlevkpXpErTs6kvIgdf
3RW/ECz4CSGCnUqvCKEiK9ZxaccJXfbyYurNSQg0ifvVVG/2tIzoD98jVzS0WHjy
akxAIOqs6bvwvarRK5K20eGOcwOdhZIM6opftuaL7NnkIqrVa4pAgYTN27kqnUSV
3YC7gN4VUW1ia9nOaHx1ggsyFNEriRd6r81DRnGoDlNQO0ZYMtCaidoreS7hsiNp
t30tUoNlBrdCDv8JVCPWNJRf8r08Hf9/C6Zx3mM/haKOSXtU4Kcl476tqeXk/EXE
3/7de0xG/1/eRjE3rj1D+fJgWZqxTQIDAQABo4IBNzCCATMwCQYDVR0TBAIwADAd
BgNVHQ4EFgQUvajEo8cMQrW9O8O9LQ39M4TeNrkwgeQGA1UdIwSB3DCB2YAU79y2
PUv9p4cFxSI9i9y/mSru5NuhgbWkgbIwga8xCzAJBgNVBAYTAlVTMRMwEQYDVQQI
DApDYWxpZm9ybmlhMRYwFAYDVQQHDA1TYW4gRnJhbmNpc2NvMSAwHgYDVQQKDBdD
b3B5bGVmdCBDZXJ0aWZpY2F0ZSBDbzEfMB0GA1UECwwWTXkgT3JnYW5pemF0aW9u
YWwgVW5pdDERMA8GA1UEAwwIQ2hhbmdlTWUxHTAbBgkqhkiG9w0BCQEWDm1lQGV4
YW1wbGUubmV0ggkAhx4d3GuMZogwEwYDVR0lBAwwCgYIKwYBBQUHAwIwCwYDVR0P
BAQDAgeAMA0GCSqGSIb3DQEBCwUAA4IBAQBDiPvWw8SEx1J8KX4fX5MMA+zbUI+f
50fYQl9D+kYFJog1Jzy8YSn3vRb6DacJJmgpUXTiTf//0Ta4h2mOQwkxqZ4fkMbg
uT2f6L3BLo7rcTBYjXVwvSGch83Y2hTJBbMx+UWCivyNv/z2L9hEo01Fvy8/xnyR
vZNNepsAf81Kaj/eT+wBQ4kyiqvc5CLJ+Finx9ZrgBDA2kb2qgsaOTos8KERgkDu
P67U8US9eFCc8tw0EMlM3n5Fwo7p3s0BD3t0mW6jWac+dSSYOmI4gKDRikR78k3X
If3jWdQxkEfLtH35jQz7MyffRcfZbJb263aaWMxCQr2390HKXxppZ3O3
-----END CERTIFICATE-----
