Certificate:
    Data:
        Version: 3 (0x2)
        Serial Number:
            f0:63:45:21:5b:fb:94:89:f6:1b:f6:be:07:0a:75:55
    Signature Algorithm: sha256WithRSAEncryption
        Issuer: C=US, ST=California, L=San Francisco, O=Copyleft Certificate Co, OU=My Organizational Unit, CN=ChangeMe/emailAddress=me@example.net
        Validity
            Not Before: Nov 11 18:51:44 2023 GMT
            Not After : Nov 10 18:51:44 2024 GMT
        Subject: C=US, ST=OH, L=Cincinnati, O=University of Cincinnati ., OU=Dept. Elec. Comp. . Eng. Comp. Sci., CN=client27/emailAddress=franco@gauss.ececs.uc.edu
        Subject Public Key Info:
            Public Key Algorithm: rsaEncryption
                Public-Key: (2048 bit)
                Modulus:
                    00:dd:df:f8:d8:76:e6:af:97:03:d3:cf:44:49:6f:
                    99:83:d7:bd:bc:9a:a1:57:58:92:95:49:04:41:6e:
                    2a:54:ff:80:2d:84:b6:20:eb:04:b6:07:e1:f3:b1:
                    5b:7b:8c:fb:4d:fc:7c:60:8d:38:26:16:52:2a:31:
                    7c:f4:74:21:0c:b1:14:3f:bf:6d:bd:bb:ee:bd:8c:
                    28:0e:c6:47:b8:48:65:bc:bf:3c:86:8f:b0:20:4c:
                    0f:55:ea:22:48:16:fc:21:94:20:25:3c:81:3f:4a:
                    7b:ff:be:c3:e3:74:1b:32:7e:40:2e:6a:a5:40:a7:
                    eb:ba:d8:85:c5:2e:f6:52:61:04:95:ad:f0:69:7f:
                    21:29:5f:1b:c2:e4:de:05:07:ad:1b:f8:28:ad:eb:
                    11:9f:b1:aa:f4:b2:1b:54:1f:ee:04:2a:e6:8a:33:
                    24:55:2f:3f:ba:2f:f1:0f:3c:4c:95:71:46:b6:cd:
                    42:db:cd:f9:a0:67:2d:d1:b2:f2:5e:3f:1f:90:23:
                    bb:fc:66:14:d9:5d:65:2a:3c:65:1f:98:9b:70:44:
                    9a:60:27:e4:0e:c0:4c:0c:cb:bf:a6:fa:00:c9:ea:
                    e2:c6:9a:a5:e3:66:76:10:e8:9c:f4:d5:74:ed:7f:
                    fa:07:eb:4c:2e:1b:9a:b1:e2:ea:03:2e:1e:8c:3c:
                    5e:db
                Exponent: 65537 (0x10001)
        X509v3 extensions:
            X509v3 Basic Constraints: 
                CA:FALSE
            X509v3 Subject Key Identifier: 
                51:72:36:07:F6:2B:98:60:1C:9B:60:4E:02:90:05:95:4D:33:F3:EB
            X509v3 Authority Key Identifier: 
                keyid:9C:0E:D5:A3:16:6F:C8:23:88:D1:12:C9:63:5D:18:D9:C9:FC:5B:E9
                DirName:/C=US/ST=California/L=San Francisco/O=Copyleft Certificate Co/OU=My Organizational Unit/CN=ChangeMe/emailAddress=me@example.net
                serial:A3:08:26:80:D2:47:98:75

            X509v3 Extended Key Usage: 
                TLS Web Client Authentication
            X509v3 Key Usage: 
                Digital Signature
    Signature Algorithm: sha256WithRSAEncryption
         bc:16:51:06:89:9f:30:95:2e:99:64:ed:11:94:de:f0:ff:18:
         66:63:ca:f2:fc:59:1f:93:4a:90:9d:fd:4f:cc:43:9c:1c:33:
         2c:f5:28:b4:1b:b4:02:4b:ad:bf:65:80:25:45:b9:ed:7d:77:
         46:83:63:2f:18:1c:32:8c:02:a6:6d:86:89:cc:6b:83:fd:b8:
         41:5c:72:79:e9:e2:3b:aa:64:37:1b:1c:fa:2a:c6:85:d9:d7:
         0f:74:f1:65:01:a4:25:bd:8e:f6:cb:43:1d:b9:a2:71:b6:fd:
         38:aa:cb:16:79:71:94:79:e9:9a:c4:06:7d:21:14:63:54:89:
         55:15:fa:6f:ec:4d:27:22:c9:fc:aa:29:c3:69:21:63:53:0d:
         43:9b:c6:5f:13:81:4e:cb:d4:19:32:e0:a2:4d:b3:57:6d:3a:
         43:b8:2b:f1:4e:06:7c:ca:f6:4f:73:b1:09:51:7a:09:c5:79:
         4f:e4:b5:7a:43:96:9e:ca:4e:6a:8e:31:7f:ca:96:64:a2:6c:
         20:de:8f:d9:0b:99:68:3f:0a:f8:e9:42:ff:f5:3a:65:ca:a4:
         d5:d7:7a:9a:72:4b:ee:f7:3e:b8:ea:e9:9f:5f:2f:a4:47:8c:
         fe:a3:7b:3f:72:0c:d1:2d:7d:04:e2:87:f0:15:38:56:c6:5e:
         4e:ab:4c:52
-----BEGIN CERTIFICATE-----
MIIFNDCCBBygAwIBAgIRAPBjRSFb+5SJ9hv2vgcKdVUwDQYJKoZIhvcNAQELBQAw
ga8xCzAJBgNVBAYTAlVTMRMwEQYDVQQIDApDYWxpZm9ybmlhMRYwFAYDVQQHDA1T
YW4gRnJhbmNpc2NvMSAwHgYDVQQKDBdDb3B5bGVmdCBDZXJ0aWZpY2F0ZSBDbzEf
MB0GA1UECwwWTXkgT3JnYW5pemF0aW9uYWwgVW5pdDERMA8GA1UEAwwIQ2hhbmdl
TWUxHTAbBgkqhkiG9w0BCQEWDm1lQGV4YW1wbGUubmV0MB4XDTIzMTExMTE4NTE0
NFoXDTI0MTExMDE4NTE0NFowgb8xCzAJBgNVBAYTAlVTMQswCQYDVQQIDAJPSDET
MBEGA1UEBwwKQ2luY2lubmF0aTEjMCEGA1UECgwaVW5pdmVyc2l0eSBvZiBDaW5j
aW5uYXRpIC4xLDAqBgNVBAsMI0RlcHQuIEVsZWMuIENvbXAuIC4gRW5nLiBDb21w
LiBTY2kuMREwDwYDVQQDDAhjbGllbnQyNzEoMCYGCSqGSIb3DQEJARYZZnJhbmNv
QGdhdXNzLmVjZWNzLnVjLmVkdTCCASIwDQYJKoZIhvcNAQEBBQADggEPADCCAQoC
ggEBAN3f+Nh25q+XA9PPRElvmYPXvbyaoVdYkpVJBEFuKlT/gC2EtiDrBLYH4fOx
W3uM+038fGCNOCYWUioxfPR0IQyxFD+/bb277r2MKA7GR7hIZby/PIaPsCBMD1Xq
IkgW/CGUICU8gT9Ke/++w+N0GzJ+QC5qpUCn67rYhcUu9lJhBJWt8Gl/ISlfG8Lk
3gUHrRv4KK3rEZ+xqvSyG1Qf7gQq5oozJFUvP7ov8Q88TJVxRrbNQtvN+aBnLdGy
8l4/H5Aju/xmFNldZSo8ZR+Ym3BEmmAn5A7ATAzLv6b6AMnq4saapeNmdhDonPTV
dO1/+gfrTC4bmrHi6gMuHow8XtsCAwEAAaOCATcwggEzMAkGA1UdEwQCMAAwHQYD
VR0OBBYEFFFyNgf2K5hgHJtgTgKQBZVNM/PrMIHkBgNVHSMEgdwwgdmAFJwO1aMW
b8gjiNESyWNdGNnJ/FvpoYG1pIGyMIGvMQswCQYDVQQGEwJVUzETMBEGA1UECAwK
Q2FsaWZvcm5pYTEWMBQGA1UEBwwNU2FuIEZyYW5jaXNjbzEgMB4GA1UECgwXQ29w
eWxlZnQgQ2VydGlmaWNhdGUgQ28xHzAdBgNVBAsMFk15IE9yZ2FuaXphdGlvbmFs
IFVuaXQxETAPBgNVBAMMCENoYW5nZU1lMR0wGwYJKoZIhvcNAQkBFg5tZUBleGFt
cGxlLm5ldIIJAKMIJoDSR5h1MBMGA1UdJQQMMAoGCCsGAQUFBwMCMAsGA1UdDwQE
AwIHgDANBgkqhkiG9w0BAQsFAAOCAQEAvBZRBomfMJUumWTtEZTe8P8YZmPK8vxZ
H5NKkJ39T8xDnBwzLPUotBu0Akutv2WAJUW57X13RoNjLxgcMowCpm2Gicxrg/24
QVxyeeniO6pkNxsc+irGhdnXD3TxZQGkJb2O9stDHbmicbb9OKrLFnlxlHnpmsQG
fSEUY1SJVRX6b+xNJyLJ/Kopw2khY1MNQ5vGXxOBTsvUGTLgok2zV206Q7gr8U4G
fMr2T3OxCVF6CcV5T+S1ekOWnspOao4xf8qWZKJsIN6P2QuZaD8K+OlC//U6Zcqk
1dd6mnJL7vc+uOrpn18vpEeM/qN7P3IM0S19BOKH8BU4VsZeTqtMUg==
-----END CERTIFICATE-----
