Certificate:
    Data:
        Version: 3 (0x2)
        Serial Number:
            f2:2b:d0:90:1c:27:3b:47:3f:bd:98:68:2a:55:f7:0d
    Signature Algorithm: sha256WithRSAEncryption
        Issuer: C=US, ST=California, L=San Francisco, O=Copyleft Certificate Co, OU=My Organizational Unit, CN=ChangeMe/emailAddress=me@example.net
        Validity
            Not Before: Nov 11 18:52:36 2023 GMT
            Not After : Nov 10 18:52:36 2024 GMT
        Subject: C=US, ST=OH, L=Cincinnati, O=University of Cincinnati ., OU=Dept. Elec. Comp. . Eng. Comp. Sci., CN=client40/emailAddress=franco@gauss.ececs.uc.edu
        Subject Public Key Info:
            Public Key Algorithm: rsaEncryption
                Public-Key: (2048 bit)
                Modulus:
                    00:e1:aa:57:b9:e5:76:41:a6:0d:6c:f0:e4:30:39:
                    a4:3a:db:44:e1:67:79:36:25:15:02:9b:a8:ed:d6:
                    07:1d:41:61:88:b3:ec:b8:f9:59:80:40:60:f3:47:
                    04:db:af:ec:a6:76:ea:15:bc:c8:db:20:ab:0c:9f:
                    0f:50:39:b1:82:c2:1b:56:cc:0d:c5:fd:cc:88:5d:
                    90:fd:9d:6a:6d:47:c4:ea:ae:f5:e2:80:57:72:5c:
                    e9:f9:96:ef:a9:69:41:37:21:f1:59:ab:19:15:ad:
                    3f:1e:5b:bd:ef:d8:63:4f:85:cd:41:b6:58:08:cb:
                    07:93:ec:33:75:bd:7b:22:4d:86:ab:ca:cf:ec:dc:
                    a9:bb:b8:46:9b:c4:34:bf:32:84:bd:2f:43:bc:01:
                    55:40:34:94:ad:f3:dd:96:d4:d7:88:13:35:e7:a9:
                    90:66:00:81:ab:2c:0f:f2:bd:f6:c3:a8:52:52:24:
                    8e:ac:5d:52:c6:ac:80:42:19:1a:0e:ed:24:59:eb:
                    18:2e:1c:06:db:10:0b:9e:b5:48:11:cc:c9:bb:27:
                    83:70:34:0c:fd:a5:95:ad:3f:27:45:75:3d:8e:b9:
                    58:0b:d2:8b:54:75:72:fa:bf:dd:6c:cb:bb:e0:fc:
                    72:1c:0c:f9:1e:30:9d:8e:2c:3f:23:5f:b1:1a:6d:
                    aa:79
                Exponent: 65537 (0x10001)
        X509v3 extensions:
            X509v3 Basic Constraints: 
                CA:FALSE
            X509v3 Subject Key Identifier: 
                BD:84:1B:41:E7:61:24:BB:72:B7:23:8D:E9:A7:17:A2:29:36:94:21
            X509v3 Authority Key Identifier: 
                keyid:9C:0E:D5:A3:16:6F:C8:23:88:D1:12:C9:63:5D:18:D9:C9:FC:5B:E9
                DirName:/C=US/ST=California/L=San Francisco/O=Copyleft Certificate Co/OU=My Organizational Unit/CN=ChangeMe/emailAddress=me@example.net
                serial:A3:08:26:80:D2:47:98:75

            X509v3 Extended Key Usage: 
                TLS Web Client Authentication
            X509v3 Key Usage: 
                Digital Signature
    Signature Algorithm: sha256WithRSAEncryption
         18:78:ef:f5:02:42:c6:05:30:98:e3:f7:03:4f:1e:87:98:59:
         6f:75:f8:5a:b8:69:34:f1:59:f4:04:48:be:0d:6f:19:2e:b7:
         70:6a:e2:84:07:d9:53:87:8e:e6:09:97:62:4e:8f:63:99:9a:
         a5:33:71:ce:e5:16:af:b9:b9:bb:7d:ff:a5:47:07:01:5a:b3:
         ae:9e:d6:b0:24:03:82:c0:13:f9:4b:29:7b:b9:11:9b:5a:ac:
         4d:b2:fc:e4:e0:c8:7f:d6:44:4c:4c:68:32:63:19:d6:5e:b1:
         b7:fa:ff:bb:e5:81:48:86:b6:9f:d0:a8:5a:d8:5c:5a:97:0c:
         42:f5:4c:93:1e:fe:dd:26:63:a1:79:7c:e2:13:54:5c:5d:4d:
         df:31:28:a9:3c:5c:81:17:c8:c7:dd:a8:51:c9:ec:9b:d8:34:
         89:3c:84:2e:39:d4:2b:c1:8c:cd:be:ff:c0:aa:06:5e:25:3a:
         a9:5c:c1:9a:46:13:a6:d7:73:45:b4:97:0f:8a:fa:3b:74:61:
         14:c5:a5:40:00:5f:52:fe:37:5c:ec:f3:c6:9e:ea:3f:27:c2:
         57:ab:c1:73:8b:d4:86:28:d5:56:9a:d9:d9:33:49:1b:c2:eb:
         68:c5:2c:91:14:f5:98:38:bb:3d:b4:44:14:1b:0e:3c:93:76:
         07:6e:38:2f
-----BEGIN CERTIFICATE-----
MIIFNDCCBBygAwIBAgIRAPIr0JAcJztHP72YaCpV9w0wDQYJKoZIhvcNAQELBQAw
ga8xCzAJBgNVBAYTAlVTMRMwEQYDVQQIDApDYWxpZm9ybmlhMRYwFAYDVQQHDA1T
YW4gRnJhbmNpc2NvMSAwHgYDVQQKDBdDb3B5bGVmdCBDZXJ0aWZpY2F0ZSBDbzEf
MB0GA1UECwwWTXkgT3JnYW5pemF0aW9uYWwgVW5pdDERMA8GA1UEAwwIQ2hhbmdl
TWUxHTAbBgkqhkiG9w0BCQEWDm1lQGV4YW1wbGUubmV0MB4XDTIzMTExMTE4NTIz
NloXDTI0MTExMDE4NTIzNlowgb8xCzAJBgNVBAYTAlVTMQswCQYDVQQIDAJPSDET
MBEGA1UEBwwKQ2luY2lubmF0aTEjMCEGA1UECgwaVW5pdmVyc2l0eSBvZiBDaW5j
aW5uYXRpIC4xLDAqBgNVBAsMI0RlcHQuIEVsZWMuIENvbXAuIC4gRW5nLiBDb21w
LiBTY2kuMREwDwYDVQQDDAhjbGllbnQ0MDEoMCYGCSqGSIb3DQEJARYZZnJhbmNv
QGdhdXNzLmVjZWNzLnVjLmVkdTCCASIwDQYJKoZIhvcNAQEBBQADggEPADCCAQoC
ggEBAOGqV7nldkGmDWzw5DA5pDrbROFneTYlFQKbqO3WBx1BYYiz7Lj5WYBAYPNH
BNuv7KZ26hW8yNsgqwyfD1A5sYLCG1bMDcX9zIhdkP2dam1HxOqu9eKAV3Jc6fmW
76lpQTch8VmrGRWtPx5bve/YY0+FzUG2WAjLB5PsM3W9eyJNhqvKz+zcqbu4RpvE
NL8yhL0vQ7wBVUA0lK3z3ZbU14gTNeepkGYAgassD/K99sOoUlIkjqxdUsasgEIZ
Gg7tJFnrGC4cBtsQC561SBHMybsng3A0DP2lla0/J0V1PY65WAvSi1R1cvq/3WzL
u+D8chwM+R4wnY4sPyNfsRptqnkCAwEAAaOCATcwggEzMAkGA1UdEwQCMAAwHQYD
VR0OBBYEFL2EG0HnYSS7crcjjemnF6IpNpQhMIHkBgNVHSMEgdwwgdmAFJwO1aMW
b8gjiNESyWNdGNnJ/FvpoYG1pIGyMIGvMQswCQYDVQQGEwJVUzETMBEGA1UECAwK
Q2FsaWZvcm5pYTEWMBQGA1UEBwwNU2FuIEZyYW5jaXNjbzEgMB4GA1UECgwXQ29w
eWxlZnQgQ2VydGlmaWNhdGUgQ28xHzAdBgNVBAsMFk15IE9yZ2FuaXphdGlvbmFs
IFVuaXQxETAPBgNVBAMMCENoYW5nZU1lMR0wGwYJKoZIhvcNAQkBFg5tZUBleGFt
cGxlLm5ldIIJAKMIJoDSR5h1MBMGA1UdJQQMMAoGCCsGAQUFBwMCMAsGA1UdDwQE
AwIHgDANBgkqhkiG9w0BAQsFAAOCAQEAGHjv9QJCxgUwmOP3A08eh5hZb3X4Wrhp
NPFZ9ARIvg1vGS63cGrihAfZU4eO5gmXYk6PY5mapTNxzuUWr7m5u33/pUcHAVqz
rp7WsCQDgsAT+Uspe7kRm1qsTbL85ODIf9ZETExoMmMZ1l6xt/r/u+WBSIa2n9Co
WthcWpcMQvVMkx7+3SZjoXl84hNUXF1N3zEoqTxcgRfIx92oUcnsm9g0iTyELjnU
K8GMzb7/wKoGXiU6qVzBmkYTptdzRbSXD4r6O3RhFMWlQABfUv43XOzzxp7qPyfC
V6vBc4vUhijVVprZ2TNJG8LraMUskRT1mDi7PbREFBsOPJN2B244Lw==
-----END CERTIFICATE-----
