Certificate:
    Data:
        Version: 3 (0x2)
        Serial Number:
            f2:ba:7d:df:03:c2:6a:8b:52:c0:5e:1b:80:e5:8a:26
    Signature Algorithm: sha256WithRSAEncryption
        Issuer: C=US, ST=California, L=San Francisco, O=Copyleft Certificate Co, OU=My Organizational Unit, CN=ChangeMe/emailAddress=me@example.net
        Validity
            Not Before: Nov 11 01:59:11 2023 GMT
            Not After : Nov 10 01:59:11 2024 GMT
        Subject: C=US, ST=OH, L=Cincinnati, O=University of Cincinnati, OU=Dept. Elec. Comp. Eng. Comp. Sci., CN=client17/emailAddress=franco@gauss.ececs.uc.edu
        Subject Public Key Info:
            Public Key Algorithm: rsaEncryption
                Public-Key: (2048 bit)
                Modulus:
                    00:cb:4a:03:c7:9f:6e:c7:c2:c0:de:bb:d8:84:99:
                    ad:1a:00:51:c3:67:75:5e:c8:f4:16:f3:97:26:8b:
                    03:94:64:26:55:53:31:73:d7:1a:d5:b5:55:37:97:
                    30:d6:8c:f4:cc:a0:a0:90:af:63:0f:1d:39:19:88:
                    6b:85:10:76:8d:3e:7d:b2:6f:8a:66:1b:0f:a4:92:
                    a0:9e:bd:6a:bf:b4:33:b5:cf:e1:40:e0:b2:cc:f5:
                    21:6e:89:b7:c2:43:39:30:69:36:24:88:a4:09:8f:
                    c3:9e:7e:d5:16:ed:c6:20:34:ea:6d:d4:39:5c:bb:
                    4a:2c:1a:c1:ff:06:61:4e:df:26:07:b1:8d:75:5f:
                    b9:11:37:8f:cb:0a:84:02:a3:ec:f3:42:81:e6:51:
                    5b:22:52:45:73:e3:ab:b9:14:48:bd:04:f6:fb:06:
                    1d:59:50:c3:f9:49:b3:00:66:63:8e:2d:eb:eb:14:
                    ed:10:5f:41:c0:30:e0:c6:ee:c0:65:03:7d:e9:f9:
                    c1:66:4d:50:28:d5:47:57:f7:21:2c:c2:7b:ac:69:
                    c1:1e:40:08:f4:53:e0:48:b4:0f:43:3b:3b:75:85:
                    93:00:7f:21:1c:64:fd:18:90:2e:e5:49:23:e1:90:
                    40:51:65:71:71:95:1a:18:f7:e9:2e:ad:17:5a:62:
                    af:11
                Exponent: 65537 (0x10001)
        X509v3 extensions:
            X509v3 Basic Constraints: 
                CA:FALSE
            X509v3 Subject Key Identifier: 
                EA:0B:52:CB:5A:43:78:59:86:00:4E:9E:59:A2:75:48:8E:93:37:64
            X509v3 Authority Key Identifier: 
                keyid:7B:0F:93:16:64:9F:71:41:D3:1B:FB:ED:6A:70:9B:CA:2E:70:F0:4B
                DirName:/C=US/ST=California/L=San Francisco/O=Copyleft Certificate Co/OU=My Organizational Unit/CN=ChangeMe/emailAddress=me@example.net
                serial:B9:F2:4E:2C:79:B3:D4:6C

            X509v3 Extended Key Usage: 
                TLS Web Client Authentication
            X509v3 Key Usage: 
                Digital Signature
    Signature Algorithm: sha256WithRSAEncryption
         96:f5:c2:1f:1a:07:c0:b0:56:22:4b:a0:b6:d2:91:f1:e9:07:
         3d:d3:1f:40:fa:81:58:c2:68:5b:1d:14:20:43:5d:4f:b5:a1:
         05:b3:f3:cd:d9:84:4a:75:4c:f6:28:44:6d:c7:27:66:77:c1:
         91:91:07:a1:77:82:96:79:78:b9:03:b1:7e:3b:c7:bc:ce:5a:
         80:1d:34:33:48:f6:12:e4:f5:07:a9:82:00:f1:7c:2a:1c:92:
         81:57:88:f4:c0:83:b2:0f:c4:e9:4f:e1:0a:f5:72:f8:06:4e:
         f8:14:a0:c1:67:b0:6f:c8:09:62:42:9c:40:29:c1:b9:06:cc:
         e4:e4:23:a8:90:65:ef:97:d7:b2:b2:4c:4a:61:e0:2a:b2:31:
         21:58:f8:24:e1:c0:b1:c3:e8:ee:b1:a4:94:d2:5f:44:48:2f:
         27:b6:e9:99:0f:4e:62:a3:d0:f4:c0:3b:64:aa:72:f2:00:1b:
         fe:2c:4b:93:82:15:1b:b3:2d:d4:bc:52:4f:a3:01:ad:ea:39:
         7e:ba:ef:8e:6d:53:3d:2b:ed:a9:5c:e0:2d:91:ac:ac:96:28:
         9d:4b:df:17:ad:66:b8:84:e7:af:a7:b2:aa:bc:02:d2:63:e5:
         9f:41:2f:63:05:d6:b4:3f:78:ec:4e:48:9d:ba:a1:56:d9:be:
         ec:f5:21:52
-----BEGIN CERTIFICATE-----
MIIFMDCCBBigAwIBAgIRAPK6fd8DwmqLUsBeG4DliiYwDQYJKoZIhvcNAQELBQAw
ga8xCzAJBgNVBAYTAlVTMRMwEQYDVQQIDApDYWxpZm9ybmlhMRYwFAYDVQQHDA1T
YW4gRnJhbmNpc2NvMSAwHgYDVQQKDBdDb3B5bGVmdCBDZXJ0aWZpY2F0ZSBDbzEf
MB0GA1UECwwWTXkgT3JnYW5pemF0aW9uYWwgVW5pdDERMA8GA1UEAwwIQ2hhbmdl
TWUxHTAbBgkqhkiG9w0BCQEWDm1lQGV4YW1wbGUubmV0MB4XDTIzMTExMTAxNTkx
MVoXDTI0MTExMDAxNTkxMVowgbsxCzAJBgNVBAYTAlVTMQswCQYDVQQIDAJPSDET
MBEGA1UEBwwKQ2luY2lubmF0aTEhMB8GA1UECgwYVW5pdmVyc2l0eSBvZiBDaW5j
aW5uYXRpMSowKAYDVQQLDCFEZXB0LiBFbGVjLiBDb21wLiBFbmcuIENvbXAuIFNj
aS4xETAPBgNVBAMMCGNsaWVudDE3MSgwJgYJKoZIhvcNAQkBFhlmcmFuY29AZ2F1
c3MuZWNlY3MudWMuZWR1MIIBIjANBgkqhkiG9w0BAQEFAAOCAQ8AMIIBCgKCAQEA
y0oDx59ux8LA3rvYhJmtGgBRw2d1Xsj0FvOXJosDlGQmVVMxc9ca1bVVN5cw1oz0
zKCgkK9jDx05GYhrhRB2jT59sm+KZhsPpJKgnr1qv7Qztc/hQOCyzPUhbom3wkM5
MGk2JIikCY/Dnn7VFu3GIDTqbdQ5XLtKLBrB/wZhTt8mB7GNdV+5ETePywqEAqPs
80KB5lFbIlJFc+OruRRIvQT2+wYdWVDD+UmzAGZjji3r6xTtEF9BwDDgxu7AZQN9
6fnBZk1QKNVHV/chLMJ7rGnBHkAI9FPgSLQPQzs7dYWTAH8hHGT9GJAu5Ukj4ZBA
UWVxcZUaGPfpLq0XWmKvEQIDAQABo4IBNzCCATMwCQYDVR0TBAIwADAdBgNVHQ4E
FgQU6gtSy1pDeFmGAE6eWaJ1SI6TN2QwgeQGA1UdIwSB3DCB2YAUew+TFmSfcUHT
G/vtanCbyi5w8EuhgbWkgbIwga8xCzAJBgNVBAYTAlVTMRMwEQYDVQQIDApDYWxp
Zm9ybmlhMRYwFAYDVQQHDA1TYW4gRnJhbmNpc2NvMSAwHgYDVQQKDBdDb3B5bGVm
dCBDZXJ0aWZpY2F0ZSBDbzEfMB0GA1UECwwWTXkgT3JnYW5pemF0aW9uYWwgVW5p
dDERMA8GA1UEAwwIQ2hhbmdlTWUxHTAbBgkqhkiG9w0BCQEWDm1lQGV4YW1wbGUu
bmV0ggkAufJOLHmz1GwwEwYDVR0lBAwwCgYIKwYBBQUHAwIwCwYDVR0PBAQDAgeA
MA0GCSqGSIb3DQEBCwUAA4IBAQCW9cIfGgfAsFYiS6C20pHx6Qc90x9A+oFYwmhb
HRQgQ11PtaEFs/PN2YRKdUz2KERtxydmd8GRkQehd4KWeXi5A7F+O8e8zlqAHTQz
SPYS5PUHqYIA8XwqHJKBV4j0wIOyD8TpT+EK9XL4Bk74FKDBZ7BvyAliQpxAKcG5
Bszk5COokGXvl9eyskxKYeAqsjEhWPgk4cCxw+jusaSU0l9ESC8ntumZD05io9D0
wDtkqnLyABv+LEuTghUbsy3UvFJPowGt6jl+uu+ObVM9K+2pXOAtkaysliidS98X
rWa4hOevp7KqvALSY+WfQS9jBda0P3jsTkiduqFW2b7s9SFS
-----END CERTIFICATE-----
