Certificate:
    Data:
        Version: 3 (0x2)
        Serial Number:
            f3:63:e9:03:b5:fd:e3:61:63:fb:94:ae:80:72:d4:77
    Signature Algorithm: sha256WithRSAEncryption
        Issuer: C=US, ST=California, L=San Francisco, O=Copyleft Certificate Co, OU=My Organizational Unit, CN=ChangeMe/emailAddress=me@example.net
        Validity
            Not Before: Nov 13 11:48:46 2023 GMT
            Not After : Nov 12 11:48:46 2024 GMT
        Subject: C=US, ST=OH, L=Cincinnati, O=University of Cincinnati, OU=Dept. Elec. Comp. Eng. Comp. Sci., CN=client35/emailAddress=franco@gauss.ececs.uc.edu
        Subject Public Key Info:
            Public Key Algorithm: rsaEncryption
                Public-Key: (2048 bit)
                Modulus:
                    00:c3:f4:82:c6:45:e0:9e:c7:ff:28:02:29:7c:d1:
                    d3:e5:3f:18:e6:f8:dd:1e:f9:74:fa:67:7b:bd:02:
                    64:c4:22:e5:a7:41:99:ce:4c:13:4a:e4:cf:c9:a7:
                    0b:ed:c0:2d:5d:e0:08:34:81:6d:2a:90:78:8b:7e:
                    ef:4f:8f:4e:0a:c3:85:3b:1b:15:62:36:b1:95:0c:
                    3d:57:3e:df:1c:22:19:78:1d:a0:37:b2:64:ff:f0:
                    cf:da:77:9e:d3:89:09:29:d7:06:e9:ac:30:4c:95:
                    51:b1:2c:55:61:a1:94:e4:b8:51:37:c8:2e:de:13:
                    04:b2:b3:dc:41:ee:45:81:df:cb:0d:43:bc:49:1b:
                    23:d7:b6:13:7d:87:59:fb:49:17:03:4e:e7:39:83:
                    6c:6a:37:9a:8f:65:b3:50:ac:64:c1:81:78:3d:cc:
                    d3:7f:3a:78:a1:f5:26:fb:52:d2:45:74:a2:d4:ce:
                    3d:ea:d8:c9:01:8d:8e:3e:29:02:df:fb:d1:48:14:
                    af:6b:9b:c2:b8:df:c4:32:6f:fe:79:e7:10:f6:ee:
                    02:9b:dd:93:94:05:23:bc:62:ea:11:ef:02:37:c7:
                    02:d7:15:a5:df:4b:50:78:32:16:4a:62:d5:36:48:
                    30:32:89:6c:9c:7c:95:44:49:a7:ea:80:4c:f3:a8:
                    77:77
                Exponent: 65537 (0x10001)
        X509v3 extensions:
            X509v3 Basic Constraints: 
                CA:FALSE
            X509v3 Subject Key Identifier: 
                B5:3E:76:C1:CB:11:83:FB:9C:00:FF:80:1A:48:23:34:CB:D0:68:47
            X509v3 Authority Key Identifier: 
                keyid:B4:AE:AB:ED:FC:ED:84:AA:AD:77:5D:7C:84:28:1C:CA:CE:AE:2A:44
                DirName:/C=US/ST=California/L=San Francisco/O=Copyleft Certificate Co/OU=My Organizational Unit/CN=ChangeMe/emailAddress=me@example.net
                serial:BD:6C:3B:F4:D3:07:C9:D1

            X509v3 Extended Key Usage: 
                TLS Web Client Authentication
            X509v3 Key Usage: 
                Digital Signature
    Signature Algorithm: sha256WithRSAEncryption
         a7:bd:b8:5e:14:e7:0b:9a:6d:34:25:d8:7e:fb:40:9c:35:70:
         00:67:27:7e:b5:6b:69:18:8a:23:04:43:d5:7d:ae:f6:7e:18:
         c3:b0:16:0c:55:4b:29:23:37:07:96:74:65:05:51:a6:86:31:
         3d:9b:7e:88:72:79:3a:18:93:0d:7b:f8:f5:10:51:15:4e:74:
         78:5c:51:e5:09:a5:3e:17:49:06:60:44:e6:2b:d6:5f:de:0a:
         f9:d7:39:ff:aa:fe:6b:5f:e0:41:65:cf:a3:76:2e:62:f0:a0:
         d8:61:4d:86:a2:47:bb:48:a8:94:79:bb:f1:96:ea:fd:e6:e5:
         2c:4c:cd:85:e9:57:c5:e6:f1:88:17:c7:b1:2c:ec:0f:23:14:
         9f:17:b4:9a:96:dc:48:cf:25:d9:30:74:c8:d9:b8:eb:50:57:
         92:97:50:83:f4:ab:58:ee:99:d3:df:3d:62:ab:09:a4:2d:af:
         1c:8e:85:e4:ac:d8:d3:de:d6:1e:fd:94:15:45:1b:69:62:9f:
         a6:37:92:fe:d6:66:90:7f:cc:5c:66:3c:fa:4b:25:48:82:b4:
         18:8a:56:d4:01:2f:9b:8e:85:00:b1:9a:ee:a9:b6:99:37:5d:
         1e:21:76:41:60:85:05:23:a4:96:e1:df:63:24:15:58:fe:b0:
         96:d3:64:ef
-----BEGIN CERTIFICATE-----
MIIFMDCCBBigAwIBAgIRAPNj6QO1/eNhY/uUroBy1HcwDQYJKoZIhvcNAQELBQAw
ga8xCzAJBgNVBAYTAlVTMRMwEQYDVQQIDApDYWxpZm9ybmlhMRYwFAYDVQQHDA1T
YW4gRnJhbmNpc2NvMSAwHgYDVQQKDBdDb3B5bGVmdCBDZXJ0aWZpY2F0ZSBDbzEf
MB0GA1UECwwWTXkgT3JnYW5pemF0aW9uYWwgVW5pdDERMA8GA1UEAwwIQ2hhbmdl
TWUxHTAbBgkqhkiG9w0BCQEWDm1lQGV4YW1wbGUubmV0MB4XDTIzMTExMzExNDg0
NloXDTI0MTExMjExNDg0NlowgbsxCzAJBgNVBAYTAlVTMQswCQYDVQQIDAJPSDET
MBEGA1UEBwwKQ2luY2lubmF0aTEhMB8GA1UECgwYVW5pdmVyc2l0eSBvZiBDaW5j
aW5uYXRpMSowKAYDVQQLDCFEZXB0LiBFbGVjLiBDb21wLiBFbmcuIENvbXAuIFNj
aS4xETAPBgNVBAMMCGNsaWVudDM1MSgwJgYJKoZIhvcNAQkBFhlmcmFuY29AZ2F1
c3MuZWNlY3MudWMuZWR1MIIBIjANBgkqhkiG9w0BAQEFAAOCAQ8AMIIBCgKCAQEA
w/SCxkXgnsf/KAIpfNHT5T8Y5vjdHvl0+md7vQJkxCLlp0GZzkwTSuTPyacL7cAt
XeAINIFtKpB4i37vT49OCsOFOxsVYjaxlQw9Vz7fHCIZeB2gN7Jk//DP2nee04kJ
KdcG6awwTJVRsSxVYaGU5LhRN8gu3hMEsrPcQe5Fgd/LDUO8SRsj17YTfYdZ+0kX
A07nOYNsajeaj2WzUKxkwYF4PczTfzp4ofUm+1LSRXSi1M496tjJAY2OPikC3/vR
SBSva5vCuN/EMm/+eecQ9u4Cm92TlAUjvGLqEe8CN8cC1xWl30tQeDIWSmLVNkgw
MolsnHyVREmn6oBM86h3dwIDAQABo4IBNzCCATMwCQYDVR0TBAIwADAdBgNVHQ4E
FgQUtT52wcsRg/ucAP+AGkgjNMvQaEcwgeQGA1UdIwSB3DCB2YAUtK6r7fzthKqt
d118hCgcys6uKkShgbWkgbIwga8xCzAJBgNVBAYTAlVTMRMwEQYDVQQIDApDYWxp
Zm9ybmlhMRYwFAYDVQQHDA1TYW4gRnJhbmNpc2NvMSAwHgYDVQQKDBdDb3B5bGVm
dCBDZXJ0aWZpY2F0ZSBDbzEfMB0GA1UECwwWTXkgT3JnYW5pemF0aW9uYWwgVW5p
dDERMA8GA1UEAwwIQ2hhbmdlTWUxHTAbBgkqhkiG9w0BCQEWDm1lQGV4YW1wbGUu
bmV0ggkAvWw79NMHydEwEwYDVR0lBAwwCgYIKwYBBQUHAwIwCwYDVR0PBAQDAgeA
MA0GCSqGSIb3DQEBCwUAA4IBAQCnvbheFOcLmm00Jdh++0CcNXAAZyd+tWtpGIoj
BEPVfa72fhjDsBYMVUspIzcHlnRlBVGmhjE9m36Icnk6GJMNe/j1EFEVTnR4XFHl
CaU+F0kGYETmK9Zf3gr51zn/qv5rX+BBZc+jdi5i8KDYYU2Goke7SKiUebvxlur9
5uUsTM2F6VfF5vGIF8exLOwPIxSfF7SaltxIzyXZMHTI2bjrUFeSl1CD9KtY7pnT
3z1iqwmkLa8cjoXkrNjT3tYe/ZQVRRtpYp+mN5L+1maQf8xcZjz6SyVIgrQYilbU
AS+bjoUAsZruqbaZN10eIXZBYIUFI6SW4d9jJBVY/rCW02Tv
-----END CERTIFICATE-----
