Certificate:
    Data:
        Version: 3 (0x2)
        Serial Number:
            f4:07:32:81:b7:ab:da:01:1b:6c:2e:95:4d:87:b3:07
    Signature Algorithm: sha256WithRSAEncryption
        Issuer: C=US, ST=California, L=San Francisco, O=Copyleft Certificate Co, OU=My Organizational Unit, CN=ChangeMe/emailAddress=me@example.net
        Validity
            Not Before: Nov 11 14:50:22 2023 GMT
            Not After : Nov 10 14:50:22 2024 GMT
        Subject: C=US, ST=OH, L=Cincinnati, O=University of Cincinnati ., OU=Dept. Elec. Comp. . Eng. Comp. Sci., CN=client10/emailAddress=franco@gauss.ececs.uc.edu
        Subject Public Key Info:
            Public Key Algorithm: rsaEncryption
                Public-Key: (2048 bit)
                Modulus:
                    00:af:03:06:e8:c8:c1:64:9f:b4:6f:f0:eb:5b:6f:
                    1d:df:16:bc:38:fd:f6:d3:61:e9:25:9b:af:98:ba:
                    33:79:07:01:4e:8e:a3:e3:fa:d2:56:64:e4:48:de:
                    c3:75:69:ca:62:81:a3:68:82:66:f5:52:6c:de:6a:
                    ac:33:e7:09:24:e1:4d:0d:bf:72:98:f5:2a:59:9e:
                    fb:11:6c:c1:1f:cf:00:a3:96:a5:06:ac:bd:de:ec:
                    00:c7:73:99:b5:53:43:59:7f:37:15:45:26:e9:91:
                    4c:c0:50:70:49:6f:6f:45:3c:da:6e:8a:69:0d:69:
                    c4:4d:0c:20:d5:56:69:f7:75:a7:8a:30:cf:5b:a3:
                    85:0a:93:09:66:9f:ad:ec:23:b4:84:56:fe:29:89:
                    cc:80:03:64:e4:60:7a:77:89:f5:bf:db:8b:1e:af:
                    8c:30:9f:21:9e:72:42:b3:2a:04:72:5b:5a:ab:c2:
                    e3:6c:76:1f:f3:de:c4:79:19:41:81:4b:49:3d:b5:
                    53:c5:c4:13:4f:22:06:ce:bc:5b:90:29:f9:aa:90:
                    e5:40:89:4c:10:20:2c:7c:76:f8:fa:50:64:ae:d0:
                    28:94:1c:68:03:48:c4:01:c6:5b:54:14:d4:04:95:
                    1e:3d:5f:a3:59:a4:9b:23:cd:bc:80:e4:5f:2d:dc:
                    d1:f5
                Exponent: 65537 (0x10001)
        X509v3 extensions:
            X509v3 Basic Constraints: 
                CA:FALSE
            X509v3 Subject Key Identifier: 
                A5:4B:43:77:03:FA:9E:FE:54:1D:19:1F:D0:A2:9C:AA:70:D8:4A:CB
            X509v3 Authority Key Identifier: 
                keyid:37:77:FF:9E:80:0A:A0:2D:03:2E:41:2E:A7:9F:2C:08:1D:27:A7:1F
                DirName:/C=US/ST=California/L=San Francisco/O=Copyleft Certificate Co/OU=My Organizational Unit/CN=ChangeMe/emailAddress=me@example.net
                serial:8E:F4:CE:BF:34:CB:64:72

            X509v3 Extended Key Usage: 
                TLS Web Client Authentication
            X509v3 Key Usage: 
                Digital Signature
    Signature Algorithm: sha256WithRSAEncryption
         2c:c2:e7:0a:7e:62:ed:5a:25:7b:3c:bc:8d:d1:a5:d6:e5:1d:
         e4:eb:7d:9d:27:84:e2:a6:88:65:cd:db:c0:3b:21:5d:b8:28:
         b3:54:15:e9:a5:c7:ab:40:ae:db:1c:53:6e:9f:81:fb:96:1e:
         77:fe:67:8f:4b:85:df:97:0c:30:2c:61:bc:bf:57:5b:68:e9:
         f0:11:8d:dd:fd:b0:c1:46:cd:b0:86:01:e0:5b:3a:4e:37:b7:
         53:03:f8:7d:ca:dd:04:e9:0b:3f:6f:dc:95:15:4f:31:a0:14:
         82:80:d8:ec:e6:8b:6a:45:f8:7b:87:2f:62:91:aa:db:9e:2e:
         65:c8:18:ea:88:cf:94:d7:33:b8:d0:f5:6f:33:db:f7:dd:88:
         93:f3:d3:23:9e:ca:c5:73:f7:01:ba:45:dc:f8:40:8a:e0:fa:
         08:6f:f6:37:30:ca:79:1d:a8:9d:6c:ed:bc:52:62:bd:f7:5d:
         69:47:ca:2e:8d:35:58:37:cf:c2:8c:9f:fc:37:b9:4e:d5:50:
         c7:b9:fb:d8:06:63:43:de:c0:42:7b:4a:14:4f:44:0a:ec:9e:
         6e:74:3f:82:72:ef:8e:e6:e7:1a:a1:77:70:cf:bd:5c:7c:d8:
         73:bb:20:0d:be:1a:d0:5a:cf:8e:77:65:44:a8:99:d2:4d:7f:
         e2:2f:06:b4
-----BEGIN CERTIFICATE-----
MIIFNDCCBBygAwIBAgIRAPQHMoG3q9oBG2wulU2HswcwDQYJKoZIhvcNAQELBQAw
ga8xCzAJBgNVBAYTAlVTMRMwEQYDVQQIDApDYWxpZm9ybmlhMRYwFAYDVQQHDA1T
YW4gRnJhbmNpc2NvMSAwHgYDVQQKDBdDb3B5bGVmdCBDZXJ0aWZpY2F0ZSBDbzEf
MB0GA1UECwwWTXkgT3JnYW5pemF0aW9uYWwgVW5pdDERMA8GA1UEAwwIQ2hhbmdl
TWUxHTAbBgkqhkiG9w0BCQEWDm1lQGV4YW1wbGUubmV0MB4XDTIzMTExMTE0NTAy
MloXDTI0MTExMDE0NTAyMlowgb8xCzAJBgNVBAYTAlVTMQswCQYDVQQIDAJPSDET
MBEGA1UEBwwKQ2luY2lubmF0aTEjMCEGA1UECgwaVW5pdmVyc2l0eSBvZiBDaW5j
aW5uYXRpIC4xLDAqBgNVBAsMI0RlcHQuIEVsZWMuIENvbXAuIC4gRW5nLiBDb21w
LiBTY2kuMREwDwYDVQQDDAhjbGllbnQxMDEoMCYGCSqGSIb3DQEJARYZZnJhbmNv
QGdhdXNzLmVjZWNzLnVjLmVkdTCCASIwDQYJKoZIhvcNAQEBBQADggEPADCCAQoC
ggEBAK8DBujIwWSftG/w61tvHd8WvDj99tNh6SWbr5i6M3kHAU6Oo+P60lZk5Eje
w3VpymKBo2iCZvVSbN5qrDPnCSThTQ2/cpj1Klme+xFswR/PAKOWpQasvd7sAMdz
mbVTQ1l/NxVFJumRTMBQcElvb0U82m6KaQ1pxE0MINVWafd1p4owz1ujhQqTCWaf
rewjtIRW/imJzIADZORgeneJ9b/bix6vjDCfIZ5yQrMqBHJbWqvC42x2H/PexHkZ
QYFLST21U8XEE08iBs68W5Ap+aqQ5UCJTBAgLHx2+PpQZK7QKJQcaANIxAHGW1QU
1ASVHj1fo1mkmyPNvIDkXy3c0fUCAwEAAaOCATcwggEzMAkGA1UdEwQCMAAwHQYD
VR0OBBYEFKVLQ3cD+p7+VB0ZH9CinKpw2ErLMIHkBgNVHSMEgdwwgdmAFDd3/56A
CqAtAy5BLqefLAgdJ6cfoYG1pIGyMIGvMQswCQYDVQQGEwJVUzETMBEGA1UECAwK
Q2FsaWZvcm5pYTEWMBQGA1UEBwwNU2FuIEZyYW5jaXNjbzEgMB4GA1UECgwXQ29w
eWxlZnQgQ2VydGlmaWNhdGUgQ28xHzAdBgNVBAsMFk15IE9yZ2FuaXphdGlvbmFs
IFVuaXQxETAPBgNVBAMMCENoYW5nZU1lMR0wGwYJKoZIhvcNAQkBFg5tZUBleGFt
cGxlLm5ldIIJAI70zr80y2RyMBMGA1UdJQQMMAoGCCsGAQUFBwMCMAsGA1UdDwQE
AwIHgDANBgkqhkiG9w0BAQsFAAOCAQEALMLnCn5i7Volezy8jdGl1uUd5Ot9nSeE
4qaIZc3bwDshXbgos1QV6aXHq0Cu2xxTbp+B+5Yed/5nj0uF35cMMCxhvL9XW2jp
8BGN3f2wwUbNsIYB4Fs6Tje3UwP4fcrdBOkLP2/clRVPMaAUgoDY7OaLakX4e4cv
YpGq254uZcgY6ojPlNczuND1bzPb992Ik/PTI57KxXP3AbpF3PhAiuD6CG/2NzDK
eR2onWztvFJivfddaUfKLo01WDfPwoyf/De5TtVQx7n72AZjQ97AQntKFE9ECuye
bnQ/gnLvjubnGqF3cM+9XHzYc7sgDb4a0FrPjndlRKiZ0k1/4i8GtA==
-----END CERTIFICATE-----
