Certificate:
    Data:
        Version: 3 (0x2)
        Serial Number:
            f8:a5:b8:79:84:a4:72:d5:99:25:d0:8e:46:74:1b:4d
    Signature Algorithm: sha256WithRSAEncryption
        Issuer: C=US, ST=California, L=San Francisco, O=Copyleft Certificate Co, OU=My Organizational Unit, CN=ChangeMe/emailAddress=me@example.net
        Validity
            Not Before: Jan 23 18:29:14 2021 GMT
            Not After : Jan 23 18:29:14 2022 GMT
        Subject: C=US, ST=OH, L=Cincinnati, O=University of Cincinnati, OU=Dept. Electrical Eng. and Computer Sci., CN=client85/emailAddress=franco@gauss.ececs.uc.edu
        Subject Public Key Info:
            Public Key Algorithm: rsaEncryption
                Public-Key: (2048 bit)
                Modulus:
                    00:e7:24:72:93:33:2e:80:f9:a6:0b:53:3b:c8:3d:
                    49:49:0e:08:69:0b:8b:10:1b:e7:bd:48:aa:7c:93:
                    10:9f:bc:0c:64:53:3c:32:3b:fd:22:13:56:86:c6:
                    38:a5:18:92:c4:c6:c4:73:40:f1:d3:ca:01:fe:50:
                    d5:55:47:30:30:8a:db:2b:02:f5:18:84:e2:31:28:
                    89:e6:a6:8d:0e:9b:09:a5:59:47:67:c0:68:9c:dc:
                    8f:6a:f9:a3:71:ba:e8:e2:de:25:e5:63:59:32:21:
                    ba:32:8b:70:1d:26:4c:6f:57:4b:08:0b:91:ff:f1:
                    14:78:19:95:be:d4:61:b2:77:20:72:19:b1:53:95:
                    05:c1:a1:2d:c4:48:e9:31:e0:e0:5a:1b:01:4c:d5:
                    c3:17:5f:b9:cf:42:36:80:03:2e:8c:b4:5b:77:3e:
                    4c:b5:71:7d:ba:8f:ce:b4:16:08:7b:80:a3:0a:25:
                    c3:65:c2:58:55:ca:b5:b7:53:10:8c:fb:9f:cf:79:
                    0c:7f:17:5f:06:a7:10:cd:21:22:76:5d:e9:08:21:
                    12:d0:62:86:b7:cd:8c:d6:73:a0:3f:65:ae:ea:40:
                    f8:6d:6b:b8:66:fd:61:88:f8:8d:41:e6:64:bb:01:
                    8a:66:12:ae:09:5d:20:f8:96:13:45:69:45:f8:29:
                    16:59
                Exponent: 65537 (0x10001)
        X509v3 extensions:
            X509v3 Basic Constraints: 
                CA:FALSE
            X509v3 Subject Key Identifier: 
                91:74:00:96:8A:DD:80:C6:78:6B:75:16:64:41:5C:73:D0:C0:82:9B
            X509v3 Authority Key Identifier: 
                keyid:EF:DC:B6:3D:4B:FD:A7:87:05:C5:22:3D:8B:DC:BF:99:2A:EE:E4:DB
                DirName:/C=US/ST=California/L=San Francisco/O=Copyleft Certificate Co/OU=My Organizational Unit/CN=ChangeMe/emailAddress=me@example.net
                serial:87:1E:1D:DC:6B:8C:66:88

            X509v3 Extended Key Usage: 
                TLS Web Client Authentication
            X509v3 Key Usage: 
                Digital Signature
    Signature Algorithm: sha256WithRSAEncryption
         08:f3:2f:e8:48:71:25:a2:c5:41:76:bc:a8:1e:35:8f:b6:6c:
         b7:7c:ef:d6:da:78:72:fc:e0:04:0b:5c:a0:cc:b3:9a:23:26:
         22:ca:7e:a4:ce:18:6b:4c:fe:0c:76:8b:90:95:cd:c5:9d:9b:
         b2:2e:a0:c7:3c:fc:4d:52:98:77:4f:d3:48:9e:07:ee:24:82:
         a0:60:f1:fd:f9:c3:64:94:f5:81:24:89:e5:c5:ab:35:e7:9b:
         b5:ad:2a:2f:58:e8:5e:f8:d9:9f:aa:d6:16:74:68:99:45:f6:
         f8:87:fa:6f:e8:81:57:23:8c:ad:d1:0a:10:0b:63:81:e5:4e:
         71:77:5b:97:f9:5e:0e:a5:d6:41:ee:b3:4e:39:f9:7b:eb:4c:
         93:ad:5b:c5:cb:2e:2e:5f:e4:53:a5:4b:39:73:13:4b:56:32:
         b4:1c:3d:e0:74:99:c9:30:92:61:70:eb:6e:f6:e4:18:da:ab:
         60:a2:90:a1:f9:f4:7a:16:44:8e:c6:1d:c4:df:01:2e:86:63:
         cb:5d:c1:9a:e1:b8:b9:98:2a:70:4b:8c:cc:e7:1b:be:00:c3:
         5d:07:c4:db:c4:e2:ff:d9:cb:64:e2:87:c0:32:a7:5f:8a:1b:
         62:96:48:6e:af:41:3f:4e:f0:e0:d8:f1:67:66:46:e2:31:3c:
         64:f6:b5:df
-----BEGIN CERTIFICATE-----
MIIFNjCCBB6gAwIBAgIRAPiluHmEpHLVmSXQjkZ0G00wDQYJKoZIhvcNAQELBQAw
ga8xCzAJBgNVBAYTAlVTMRMwEQYDVQQIDApDYWxpZm9ybmlhMRYwFAYDVQQHDA1T
YW4gRnJhbmNpc2NvMSAwHgYDVQQKDBdDb3B5bGVmdCBDZXJ0aWZpY2F0ZSBDbzEf
MB0GA1UECwwWTXkgT3JnYW5pemF0aW9uYWwgVW5pdDERMA8GA1UEAwwIQ2hhbmdl
TWUxHTAbBgkqhkiG9w0BCQEWDm1lQGV4YW1wbGUubmV0MB4XDTIxMDEyMzE4Mjkx
NFoXDTIyMDEyMzE4MjkxNFowgcExCzAJBgNVBAYTAlVTMQswCQYDVQQIDAJPSDET
MBEGA1UEBwwKQ2luY2lubmF0aTEhMB8GA1UECgwYVW5pdmVyc2l0eSBvZiBDaW5j
aW5uYXRpMTAwLgYDVQQLDCdEZXB0LiBFbGVjdHJpY2FsIEVuZy4gYW5kIENvbXB1
dGVyIFNjaS4xETAPBgNVBAMMCGNsaWVudDg1MSgwJgYJKoZIhvcNAQkBFhlmcmFu
Y29AZ2F1c3MuZWNlY3MudWMuZWR1MIIBIjANBgkqhkiG9w0BAQEFAAOCAQ8AMIIB
CgKCAQEA5yRykzMugPmmC1M7yD1JSQ4IaQuLEBvnvUiqfJMQn7wMZFM8Mjv9IhNW
hsY4pRiSxMbEc0Dx08oB/lDVVUcwMIrbKwL1GITiMSiJ5qaNDpsJpVlHZ8BonNyP
avmjcbro4t4l5WNZMiG6MotwHSZMb1dLCAuR//EUeBmVvtRhsncgchmxU5UFwaEt
xEjpMeDgWhsBTNXDF1+5z0I2gAMujLRbdz5MtXF9uo/OtBYIe4CjCiXDZcJYVcq1
t1MQjPufz3kMfxdfBqcQzSEidl3pCCES0GKGt82M1nOgP2Wu6kD4bWu4Zv1hiPiN
QeZkuwGKZhKuCV0g+JYTRWlF+CkWWQIDAQABo4IBNzCCATMwCQYDVR0TBAIwADAd
BgNVHQ4EFgQUkXQAlordgMZ4a3UWZEFcc9DAgpswgeQGA1UdIwSB3DCB2YAU79y2
PUv9p4cFxSI9i9y/mSru5NuhgbWkgbIwga8xCzAJBgNVBAYTAlVTMRMwEQYDVQQI
DApDYWxpZm9ybmlhMRYwFAYDVQQHDA1TYW4gRnJhbmNpc2NvMSAwHgYDVQQKDBdD
b3B5bGVmdCBDZXJ0aWZpY2F0ZSBDbzEfMB0GA1UECwwWTXkgT3JnYW5pemF0aW9u
YWwgVW5pdDERMA8GA1UEAwwIQ2hhbmdlTWUxHTAbBgkqhkiG9w0BCQEWDm1lQGV4
YW1wbGUubmV0ggkAhx4d3GuMZogwEwYDVR0lBAwwCgYIKwYBBQUHAwIwCwYDVR0P
BAQDAgeAMA0GCSqGSIb3DQEBCwUAA4IBAQAI8y/oSHElosVBdryoHjWPtmy3fO/W
2nhy/OAEC1ygzLOaIyYiyn6kzhhrTP4MdouQlc3FnZuyLqDHPPxNUph3T9NIngfu
JIKgYPH9+cNklPWBJInlxas155u1rSovWOhe+NmfqtYWdGiZRfb4h/pv6IFXI4yt
0QoQC2OB5U5xd1uX+V4OpdZB7rNOOfl760yTrVvFyy4uX+RTpUs5cxNLVjK0HD3g
dJnJMJJhcOtu9uQY2qtgopCh+fR6FkSOxh3E3wEuhmPLXcGa4bi5mCpwS4zM5xu+
AMNdB8TbxOL/2ctk4ofAMqdfihtilkhur0E/TvDg2PFnZkbiMTxk9rXf
-----END CERTIFICATE-----
