Certificate:
    Data:
        Version: 3 (0x2)
        Serial Number:
            f9:5f:c7:ba:ac:c1:02:3f:79:b8:18:4e:97:30:aa:a5
    Signature Algorithm: sha256WithRSAEncryption
        Issuer: C=US, ST=California, L=San Francisco, O=Copyleft Certificate Co, OU=My Organizational Unit, CN=ChangeMe/emailAddress=me@example.net
        Validity
            Not Before: Jan 23 18:29:28 2021 GMT
            Not After : Jan 23 18:29:28 2022 GMT
        Subject: C=US, ST=OH, L=Cincinnati, O=University of Cincinnati, OU=Dept. Electrical Eng. and Computer Sci., CN=client94/emailAddress=franco@gauss.ececs.uc.edu
        Subject Public Key Info:
            Public Key Algorithm: rsaEncryption
                Public-Key: (2048 bit)
                Modulus:
                    00:97:8b:49:08:1e:58:dd:4b:dd:a0:f5:4b:e2:31:
                    fb:04:05:be:54:17:ba:a7:32:92:50:16:84:67:62:
                    9a:2c:22:d2:db:a6:40:57:48:28:14:60:ee:2b:93:
                    fb:07:06:96:57:27:15:2b:57:e5:3a:c2:c0:75:f6:
                    6a:a0:65:7f:e7:32:49:e9:ff:ec:b6:e1:a8:02:1d:
                    b3:8f:bf:dd:52:78:0f:b3:98:4e:3c:ef:4f:cb:81:
                    78:82:42:18:45:f3:df:99:51:e9:9a:fb:eb:6f:f5:
                    7e:a5:01:78:91:88:8c:c4:5c:2f:13:01:ba:db:8d:
                    8c:35:e3:04:4e:31:e8:ea:40:a0:07:02:70:33:b6:
                    27:74:da:fb:0d:de:82:dc:6a:2c:24:18:f8:dd:b0:
                    7d:e0:cc:42:25:a1:f2:ad:d4:1f:c5:34:66:24:3f:
                    88:b8:78:0c:90:7e:1e:dc:b7:84:01:17:8f:f0:e7:
                    8c:80:60:a8:f7:73:d8:ba:fb:fd:12:f6:69:33:3e:
                    7e:a0:2b:ea:dd:de:7c:fa:8d:42:54:af:27:2c:91:
                    06:9c:07:d5:c1:5a:a4:12:0b:b7:74:df:89:84:c0:
                    78:b5:f3:18:b4:f1:fe:64:4a:16:d3:75:26:7a:9d:
                    c5:d7:8c:ec:f9:0f:d8:5f:9a:a3:07:f9:98:1a:ab:
                    54:ff
                Exponent: 65537 (0x10001)
        X509v3 extensions:
            X509v3 Basic Constraints: 
                CA:FALSE
            X509v3 Subject Key Identifier: 
                98:2B:32:E4:23:96:FA:C4:4B:25:C3:32:97:C7:71:52:F0:45:BF:D0
            X509v3 Authority Key Identifier: 
                keyid:EF:DC:B6:3D:4B:FD:A7:87:05:C5:22:3D:8B:DC:BF:99:2A:EE:E4:DB
                DirName:/C=US/ST=California/L=San Francisco/O=Copyleft Certificate Co/OU=My Organizational Unit/CN=ChangeMe/emailAddress=me@example.net
                serial:87:1E:1D:DC:6B:8C:66:88

            X509v3 Extended Key Usage: 
                TLS Web Client Authentication
            X509v3 Key Usage: 
                Digital Signature
    Signature Algorithm: sha256WithRSAEncryption
         e0:66:ee:ac:a6:ec:cf:6a:37:ff:65:c9:e8:f3:48:8c:3a:fa:
         84:91:c1:9c:4a:e5:8c:66:aa:f5:e5:a1:12:eb:ff:a8:d4:10:
         74:d0:d6:d3:1b:63:b2:fc:4a:84:31:7c:15:b2:e0:a7:2e:4e:
         d6:0e:65:8b:a5:2c:63:8b:67:f9:e4:0d:f9:f5:bd:3f:41:c2:
         d1:1b:c1:79:be:da:f4:b9:a3:e9:ee:2d:da:ee:9d:9b:3f:92:
         d1:07:de:75:17:87:62:d6:b6:4a:8b:97:ff:a5:ee:c0:35:72:
         28:08:91:8c:6b:8c:49:3d:1a:74:2c:bb:45:21:ee:1c:30:a0:
         fd:e6:dd:40:65:03:33:b2:2a:ef:89:24:22:b1:c5:30:e8:fb:
         91:ca:67:d2:ac:58:93:fe:ec:ba:0f:78:af:4e:46:3a:ef:d7:
         69:a7:51:be:5e:b6:67:c2:dc:69:46:e0:ce:ce:f0:3f:4b:58:
         2d:ea:e8:d0:1b:88:b7:02:77:fe:38:7b:6d:61:7d:e1:ea:56:
         29:7f:9a:52:39:e7:54:26:e7:eb:86:1d:78:e0:7a:25:05:f9:
         85:7e:28:dc:c0:bd:08:57:1c:8b:9c:2a:f6:a6:ff:de:fb:5f:
         e5:6a:57:0e:0b:8f:3a:15:2a:11:dd:68:ec:2f:62:82:4f:3a:
         3d:88:80:f7
-----BEGIN CERTIFICATE-----
MIIFNjCCBB6gAwIBAgIRAPlfx7qswQI/ebgYTpcwqqUwDQYJKoZIhvcNAQELBQAw
ga8xCzAJBgNVBAYTAlVTMRMwEQYDVQQIDApDYWxpZm9ybmlhMRYwFAYDVQQHDA1T
YW4gRnJhbmNpc2NvMSAwHgYDVQQKDBdDb3B5bGVmdCBDZXJ0aWZpY2F0ZSBDbzEf
MB0GA1UECwwWTXkgT3JnYW5pemF0aW9uYWwgVW5pdDERMA8GA1UEAwwIQ2hhbmdl
TWUxHTAbBgkqhkiG9w0BCQEWDm1lQGV4YW1wbGUubmV0MB4XDTIxMDEyMzE4Mjky
OFoXDTIyMDEyMzE4MjkyOFowgcExCzAJBgNVBAYTAlVTMQswCQYDVQQIDAJPSDET
MBEGA1UEBwwKQ2luY2lubmF0aTEhMB8GA1UECgwYVW5pdmVyc2l0eSBvZiBDaW5j
aW5uYXRpMTAwLgYDVQQLDCdEZXB0LiBFbGVjdHJpY2FsIEVuZy4gYW5kIENvbXB1
dGVyIFNjaS4xETAPBgNVBAMMCGNsaWVudDk0MSgwJgYJKoZIhvcNAQkBFhlmcmFu
Y29AZ2F1c3MuZWNlY3MudWMuZWR1MIIBIjANBgkqhkiG9w0BAQEFAAOCAQ8AMIIB
CgKCAQEAl4tJCB5Y3UvdoPVL4jH7BAW+VBe6pzKSUBaEZ2KaLCLS26ZAV0goFGDu
K5P7BwaWVycVK1flOsLAdfZqoGV/5zJJ6f/stuGoAh2zj7/dUngPs5hOPO9Py4F4
gkIYRfPfmVHpmvvrb/V+pQF4kYiMxFwvEwG6242MNeMETjHo6kCgBwJwM7YndNr7
Dd6C3GosJBj43bB94MxCJaHyrdQfxTRmJD+IuHgMkH4e3LeEAReP8OeMgGCo93PY
uvv9EvZpMz5+oCvq3d58+o1CVK8nLJEGnAfVwVqkEgu3dN+JhMB4tfMYtPH+ZEoW
03Umep3F14zs+Q/YX5qjB/mYGqtU/wIDAQABo4IBNzCCATMwCQYDVR0TBAIwADAd
BgNVHQ4EFgQUmCsy5COW+sRLJcMyl8dxUvBFv9AwgeQGA1UdIwSB3DCB2YAU79y2
PUv9p4cFxSI9i9y/mSru5NuhgbWkgbIwga8xCzAJBgNVBAYTAlVTMRMwEQYDVQQI
DApDYWxpZm9ybmlhMRYwFAYDVQQHDA1TYW4gRnJhbmNpc2NvMSAwHgYDVQQKDBdD
b3B5bGVmdCBDZXJ0aWZpY2F0ZSBDbzEfMB0GA1UECwwWTXkgT3JnYW5pemF0aW9u
YWwgVW5pdDERMA8GA1UEAwwIQ2hhbmdlTWUxHTAbBgkqhkiG9w0BCQEWDm1lQGV4
YW1wbGUubmV0ggkAhx4d3GuMZogwEwYDVR0lBAwwCgYIKwYBBQUHAwIwCwYDVR0P
BAQDAgeAMA0GCSqGSIb3DQEBCwUAA4IBAQDgZu6spuzPajf/Zcno80iMOvqEkcGc
SuWMZqr15aES6/+o1BB00NbTG2Oy/EqEMXwVsuCnLk7WDmWLpSxji2f55A359b0/
QcLRG8F5vtr0uaPp7i3a7p2bP5LRB951F4di1rZKi5f/pe7ANXIoCJGMa4xJPRp0
LLtFIe4cMKD95t1AZQMzsirviSQiscUw6PuRymfSrFiT/uy6D3ivTkY679dpp1G+
XrZnwtxpRuDOzvA/S1gt6ujQG4i3Anf+OHttYX3h6lYpf5pSOedUJufrhh144Hol
BfmFfijcwL0IVxyLnCr2pv/e+1/lalcOC486FSoR3WjsL2KCTzo9iID3
-----END CERTIFICATE-----
