Certificate:
    Data:
        Version: 3 (0x2)
        Serial Number:
            fb:6f:61:76:07:fc:2f:6b:0a:3b:c8:73:cd:41:9f:31
    Signature Algorithm: sha256WithRSAEncryption
        Issuer: C=US, ST=California, L=San Francisco, O=Copyleft Certificate Co, OU=My Organizational Unit, CN=ChangeMe/emailAddress=me@example.net
        Validity
            Not Before: Jan 23 18:30:20 2021 GMT
            Not After : Jan 23 18:30:20 2022 GMT
        Subject: C=US, ST=OH, L=Cincinnati, O=University of Cincinnati, OU=Dept. Electrical Eng. and Computer Sci., CN=client131/emailAddress=franco@gauss.ececs.uc.edu
        Subject Public Key Info:
            Public Key Algorithm: rsaEncryption
                Public-Key: (2048 bit)
                Modulus:
                    00:d4:78:ef:88:de:08:6e:0f:ca:7f:aa:fd:0f:ed:
                    66:f0:21:b3:4c:d2:07:a6:1c:1c:a4:74:3b:e0:12:
                    ab:8b:bc:41:16:ec:c4:49:dc:76:01:ab:5f:79:ee:
                    fb:9e:76:a5:57:f0:2f:db:6b:37:b3:45:d8:85:49:
                    08:70:85:df:65:c0:7a:3e:b5:d7:51:66:be:e4:79:
                    90:66:e3:f2:27:05:52:b4:64:2d:8d:59:95:6d:ba:
                    7a:e3:5d:03:01:0b:ae:bc:3b:22:61:cc:00:e5:95:
                    13:2e:b3:60:6c:2c:6d:1f:42:cc:b8:ba:77:1f:7b:
                    f5:de:8c:90:df:b3:d9:53:96:36:1f:a5:4f:e0:96:
                    5b:1b:8e:2d:b8:2a:e1:79:63:c0:38:ed:8e:22:b1:
                    0f:0b:b2:c4:a3:e9:52:74:28:5b:c1:65:06:bf:a0:
                    8a:b5:94:23:67:c1:7d:a7:6c:1d:7b:13:16:59:44:
                    af:d1:e0:59:82:16:22:1a:50:20:47:40:3e:bc:4d:
                    01:9a:e7:81:4c:45:a4:3f:e4:ac:5a:7b:7b:19:1b:
                    93:24:75:f2:64:57:f0:4c:2c:19:3e:9a:c9:dc:d0:
                    89:0f:22:4c:91:b9:96:52:ee:51:aa:33:30:b4:c9:
                    ac:6c:e3:a3:82:cf:60:25:2d:a7:a1:ad:5d:f3:22:
                    1f:7b
                Exponent: 65537 (0x10001)
        X509v3 extensions:
            X509v3 Basic Constraints: 
                CA:FALSE
            X509v3 Subject Key Identifier: 
                CF:18:F2:F9:D5:D2:96:20:5C:E2:9B:BE:08:26:8D:84:08:97:64:E3
            X509v3 Authority Key Identifier: 
                keyid:EF:DC:B6:3D:4B:FD:A7:87:05:C5:22:3D:8B:DC:BF:99:2A:EE:E4:DB
                DirName:/C=US/ST=California/L=San Francisco/O=Copyleft Certificate Co/OU=My Organizational Unit/CN=ChangeMe/emailAddress=me@example.net
                serial:87:1E:1D:DC:6B:8C:66:88

            X509v3 Extended Key Usage: 
                TLS Web Client Authentication
            X509v3 Key Usage: 
                Digital Signature
    Signature Algorithm: sha256WithRSAEncryption
         6e:59:32:57:f1:58:0a:ce:9c:b0:fb:15:21:2a:57:1f:12:f2:
         29:97:d7:45:3c:cb:e4:6e:1c:aa:f7:48:7d:48:a4:43:e1:81:
         01:a7:29:84:01:0d:34:4e:bd:a6:63:c1:59:5b:ef:bd:f5:f2:
         fd:75:b7:15:c7:a6:c5:54:3d:a1:ee:7d:cc:75:58:f0:82:cf:
         60:06:8b:e0:9f:8e:7a:dc:41:7b:0f:3d:bb:62:43:c1:14:11:
         c4:39:a3:79:48:d1:4f:58:ed:9d:38:10:59:59:79:45:45:8f:
         ad:3a:77:53:ac:c8:3e:6b:1f:2a:2a:91:06:30:2f:f4:64:df:
         a4:80:75:f4:28:0a:c6:75:fa:99:cb:bc:63:7b:3b:6d:81:3b:
         10:5c:ab:4e:f7:c2:24:6b:43:12:af:30:e1:db:86:d1:a2:8a:
         47:ca:77:29:de:c1:d5:cc:41:89:93:4c:20:8d:b4:e6:6c:ea:
         ab:ae:9b:6b:d4:86:fe:17:a3:e9:86:c7:c3:dd:7d:f6:dd:82:
         51:88:5d:65:5f:3b:66:12:82:2e:bb:ea:47:a0:b2:6c:b6:bf:
         6e:2a:d8:41:18:d0:f6:21:a1:8e:9a:9a:6a:38:dd:e6:df:59:
         17:bd:22:74:d4:e2:f4:d6:b9:68:7a:cb:2c:c2:d1:80:8f:9a:
         b2:e9:22:a5
-----BEGIN CERTIFICATE-----
MIIFNzCCBB+gAwIBAgIRAPtvYXYH/C9rCjvIc81BnzEwDQYJKoZIhvcNAQELBQAw
ga8xCzAJBgNVBAYTAlVTMRMwEQYDVQQIDApDYWxpZm9ybmlhMRYwFAYDVQQHDA1T
YW4gRnJhbmNpc2NvMSAwHgYDVQQKDBdDb3B5bGVmdCBDZXJ0aWZpY2F0ZSBDbzEf
MB0GA1UECwwWTXkgT3JnYW5pemF0aW9uYWwgVW5pdDERMA8GA1UEAwwIQ2hhbmdl
TWUxHTAbBgkqhkiG9w0BCQEWDm1lQGV4YW1wbGUubmV0MB4XDTIxMDEyMzE4MzAy
MFoXDTIyMDEyMzE4MzAyMFowgcIxCzAJBgNVBAYTAlVTMQswCQYDVQQIDAJPSDET
MBEGA1UEBwwKQ2luY2lubmF0aTEhMB8GA1UECgwYVW5pdmVyc2l0eSBvZiBDaW5j
aW5uYXRpMTAwLgYDVQQLDCdEZXB0LiBFbGVjdHJpY2FsIEVuZy4gYW5kIENvbXB1
dGVyIFNjaS4xEjAQBgNVBAMMCWNsaWVudDEzMTEoMCYGCSqGSIb3DQEJARYZZnJh
bmNvQGdhdXNzLmVjZWNzLnVjLmVkdTCCASIwDQYJKoZIhvcNAQEBBQADggEPADCC
AQoCggEBANR474jeCG4Pyn+q/Q/tZvAhs0zSB6YcHKR0O+ASq4u8QRbsxEncdgGr
X3nu+552pVfwL9trN7NF2IVJCHCF32XAej6111FmvuR5kGbj8icFUrRkLY1ZlW26
euNdAwELrrw7ImHMAOWVEy6zYGwsbR9CzLi6dx979d6MkN+z2VOWNh+lT+CWWxuO
Lbgq4XljwDjtjiKxDwuyxKPpUnQoW8FlBr+girWUI2fBfadsHXsTFllEr9HgWYIW
IhpQIEdAPrxNAZrngUxFpD/krFp7exkbkyR18mRX8EwsGT6aydzQiQ8iTJG5llLu
UaozMLTJrGzjo4LPYCUtp6GtXfMiH3sCAwEAAaOCATcwggEzMAkGA1UdEwQCMAAw
HQYDVR0OBBYEFM8Y8vnV0pYgXOKbvggmjYQIl2TjMIHkBgNVHSMEgdwwgdmAFO/c
tj1L/aeHBcUiPYvcv5kq7uTboYG1pIGyMIGvMQswCQYDVQQGEwJVUzETMBEGA1UE
CAwKQ2FsaWZvcm5pYTEWMBQGA1UEBwwNU2FuIEZyYW5jaXNjbzEgMB4GA1UECgwX
Q29weWxlZnQgQ2VydGlmaWNhdGUgQ28xHzAdBgNVBAsMFk15IE9yZ2FuaXphdGlv
bmFsIFVuaXQxETAPBgNVBAMMCENoYW5nZU1lMR0wGwYJKoZIhvcNAQkBFg5tZUBl
eGFtcGxlLm5ldIIJAIceHdxrjGaIMBMGA1UdJQQMMAoGCCsGAQUFBwMCMAsGA1Ud
DwQEAwIHgDANBgkqhkiG9w0BAQsFAAOCAQEAblkyV/FYCs6csPsVISpXHxLyKZfX
RTzL5G4cqvdIfUikQ+GBAacphAENNE69pmPBWVvvvfXy/XW3FcemxVQ9oe59zHVY
8ILPYAaL4J+OetxBew89u2JDwRQRxDmjeUjRT1jtnTgQWVl5RUWPrTp3U6zIPmsf
KiqRBjAv9GTfpIB19CgKxnX6mcu8Y3s7bYE7EFyrTvfCJGtDEq8w4duG0aKKR8p3
Kd7B1cxBiZNMII205mzqq66ba9SG/hej6YbHw9199t2CUYhdZV87ZhKCLrvqR6Cy
bLa/birYQRjQ9iGhjpqaajjd5t9ZF70idNTi9Na5aHrLLMLRgI+asukipQ==
-----END CERTIFICATE-----
