Certificate:
    Data:
        Version: 3 (0x2)
        Serial Number:
            fb:75:18:e5:5f:1f:80:70:d3:6f:06:04:6f:40:c1:40
    Signature Algorithm: sha256WithRSAEncryption
        Issuer: C=US, ST=California, L=San Francisco, O=Copyleft Certificate Co, OU=My Organizational Unit, CN=ChangeMe/emailAddress=me@example.net
        Validity
            Not Before: Nov 11 02:00:47 2023 GMT
            Not After : Nov 10 02:00:47 2024 GMT
        Subject: C=US, ST=OH, L=Cincinnati, O=University of Cincinnati, OU=Dept. Elec. Comp. Eng. Comp. Sci., CN=client41/emailAddress=franco@gauss.ececs.uc.edu
        Subject Public Key Info:
            Public Key Algorithm: rsaEncryption
                Public-Key: (2048 bit)
                Modulus:
                    00:c9:74:61:2e:cf:2c:7e:8c:f7:9e:64:a5:6b:ee:
                    ae:ca:0a:59:69:e0:36:85:b9:c0:77:cb:11:68:94:
                    10:79:1f:d0:af:57:dc:19:ce:47:41:98:82:72:73:
                    8d:19:49:65:08:67:b5:34:eb:fe:17:7a:03:bd:0b:
                    63:75:06:9e:f0:67:54:7a:18:97:ba:c2:71:d3:54:
                    57:36:d0:b5:12:b4:9e:10:b0:bc:b5:e2:9a:87:a6:
                    f3:47:f0:c4:f7:28:2c:e7:e0:e9:59:65:e3:6a:8f:
                    79:29:98:6a:fb:58:58:c3:42:fb:4d:4c:bc:01:8a:
                    84:06:c1:ba:d5:b2:16:18:cb:81:84:ff:29:13:2c:
                    20:89:a9:b9:5b:82:63:f7:4d:aa:34:59:b6:76:ea:
                    d6:90:32:15:66:0e:75:7d:44:9a:95:8e:ad:58:ae:
                    c4:51:c0:07:cc:65:aa:68:ef:fc:63:dc:98:ba:16:
                    38:76:5e:58:fa:fe:05:40:de:fb:e6:76:e7:05:8b:
                    ed:d1:bf:40:41:da:b7:06:72:39:3f:11:17:37:88:
                    01:3f:ca:8f:7f:c5:90:3c:3c:45:4f:55:71:11:f9:
                    69:64:6e:6c:9c:79:59:6f:54:a8:96:2b:07:dd:cb:
                    8b:c5:7b:fc:4e:48:7f:48:7e:36:04:d7:f9:9e:1f:
                    5e:cb
                Exponent: 65537 (0x10001)
        X509v3 extensions:
            X509v3 Basic Constraints: 
                CA:FALSE
            X509v3 Subject Key Identifier: 
                79:D1:2B:B5:BC:71:22:7A:92:6F:2F:FF:DB:9A:13:8B:90:8D:DE:B6
            X509v3 Authority Key Identifier: 
                keyid:7B:0F:93:16:64:9F:71:41:D3:1B:FB:ED:6A:70:9B:CA:2E:70:F0:4B
                DirName:/C=US/ST=California/L=San Francisco/O=Copyleft Certificate Co/OU=My Organizational Unit/CN=ChangeMe/emailAddress=me@example.net
                serial:B9:F2:4E:2C:79:B3:D4:6C

            X509v3 Extended Key Usage: 
                TLS Web Client Authentication
            X509v3 Key Usage: 
                Digital Signature
    Signature Algorithm: sha256WithRSAEncryption
         3a:e2:55:30:4f:a9:bf:ad:ca:bc:b1:01:26:f0:6b:70:09:8a:
         ab:a6:92:3f:15:c4:f8:09:54:af:9d:5a:26:32:35:24:80:e7:
         b8:23:33:20:65:be:5e:2c:f5:99:a7:17:ef:9a:3e:4d:01:9c:
         3e:da:b6:42:f0:ed:a4:27:ee:77:49:78:d9:c2:1b:3a:42:f3:
         dd:6c:b2:a7:51:f4:85:34:d5:18:b1:02:ba:fd:09:a1:b5:1c:
         dd:9d:6a:2c:5b:68:f9:d1:ed:11:aa:b0:ba:87:23:0b:5b:47:
         fb:09:db:7a:e8:c4:1f:d5:91:58:b9:ce:22:9e:46:a7:92:df:
         68:5a:09:7b:08:00:36:31:85:df:14:9c:5b:36:66:91:27:62:
         67:88:c2:12:52:db:8a:fd:39:02:d5:b7:fd:f9:f7:42:61:f0:
         68:fe:9a:49:5b:b8:85:c8:f8:49:c6:14:6e:ee:52:1a:5c:ca:
         b2:dc:05:3b:a3:00:c6:cd:c2:3b:21:fb:f0:4f:71:03:6c:fc:
         82:d6:96:4c:74:02:ab:d3:9e:68:24:d7:ac:d3:d1:83:75:56:
         34:af:32:31:16:f0:0e:11:80:dc:ee:d4:2a:dd:13:98:d4:e1:
         6f:c2:3f:e3:37:76:6e:90:15:77:29:b7:44:88:11:3d:96:00:
         dd:d5:12:9f
-----BEGIN CERTIFICATE-----
MIIFMDCCBBigAwIBAgIRAPt1GOVfH4Bw028GBG9AwUAwDQYJKoZIhvcNAQELBQAw
ga8xCzAJBgNVBAYTAlVTMRMwEQYDVQQIDApDYWxpZm9ybmlhMRYwFAYDVQQHDA1T
YW4gRnJhbmNpc2NvMSAwHgYDVQQKDBdDb3B5bGVmdCBDZXJ0aWZpY2F0ZSBDbzEf
MB0GA1UECwwWTXkgT3JnYW5pemF0aW9uYWwgVW5pdDERMA8GA1UEAwwIQ2hhbmdl
TWUxHTAbBgkqhkiG9w0BCQEWDm1lQGV4YW1wbGUubmV0MB4XDTIzMTExMTAyMDA0
N1oXDTI0MTExMDAyMDA0N1owgbsxCzAJBgNVBAYTAlVTMQswCQYDVQQIDAJPSDET
MBEGA1UEBwwKQ2luY2lubmF0aTEhMB8GA1UECgwYVW5pdmVyc2l0eSBvZiBDaW5j
aW5uYXRpMSowKAYDVQQLDCFEZXB0LiBFbGVjLiBDb21wLiBFbmcuIENvbXAuIFNj
aS4xETAPBgNVBAMMCGNsaWVudDQxMSgwJgYJKoZIhvcNAQkBFhlmcmFuY29AZ2F1
c3MuZWNlY3MudWMuZWR1MIIBIjANBgkqhkiG9w0BAQEFAAOCAQ8AMIIBCgKCAQEA
yXRhLs8sfoz3nmSla+6uygpZaeA2hbnAd8sRaJQQeR/Qr1fcGc5HQZiCcnONGUll
CGe1NOv+F3oDvQtjdQae8GdUehiXusJx01RXNtC1ErSeELC8teKah6bzR/DE9ygs
5+DpWWXjao95KZhq+1hYw0L7TUy8AYqEBsG61bIWGMuBhP8pEywgiam5W4Jj902q
NFm2durWkDIVZg51fUSalY6tWK7EUcAHzGWqaO/8Y9yYuhY4dl5Y+v4FQN775nbn
BYvt0b9AQdq3BnI5PxEXN4gBP8qPf8WQPDxFT1VxEflpZG5snHlZb1SolisH3cuL
xXv8Tkh/SH42BNf5nh9eywIDAQABo4IBNzCCATMwCQYDVR0TBAIwADAdBgNVHQ4E
FgQUedErtbxxInqSby//25oTi5CN3rYwgeQGA1UdIwSB3DCB2YAUew+TFmSfcUHT
G/vtanCbyi5w8EuhgbWkgbIwga8xCzAJBgNVBAYTAlVTMRMwEQYDVQQIDApDYWxp
Zm9ybmlhMRYwFAYDVQQHDA1TYW4gRnJhbmNpc2NvMSAwHgYDVQQKDBdDb3B5bGVm
dCBDZXJ0aWZpY2F0ZSBDbzEfMB0GA1UECwwWTXkgT3JnYW5pemF0aW9uYWwgVW5p
dDERMA8GA1UEAwwIQ2hhbmdlTWUxHTAbBgkqhkiG9w0BCQEWDm1lQGV4YW1wbGUu
bmV0ggkAufJOLHmz1GwwEwYDVR0lBAwwCgYIKwYBBQUHAwIwCwYDVR0PBAQDAgeA
MA0GCSqGSIb3DQEBCwUAA4IBAQA64lUwT6m/rcq8sQEm8GtwCYqrppI/FcT4CVSv
nVomMjUkgOe4IzMgZb5eLPWZpxfvmj5NAZw+2rZC8O2kJ+53SXjZwhs6QvPdbLKn
UfSFNNUYsQK6/QmhtRzdnWosW2j50e0RqrC6hyMLW0f7Cdt66MQf1ZFYuc4inkan
kt9oWgl7CAA2MYXfFJxbNmaRJ2JniMISUtuK/TkC1bf9+fdCYfBo/ppJW7iFyPhJ
xhRu7lIaXMqy3AU7owDGzcI7IfvwT3EDbPyC1pZMdAKr055oJNes09GDdVY0rzIx
FvAOEYDc7tQq3ROY1OFvwj/jN3ZukBV3KbdEiBE9lgDd1RKf
-----END CERTIFICATE-----
