Certificate:
    Data:
        Version: 3 (0x2)
        Serial Number:
            fd:0e:c2:6d:7d:71:55:aa:9b:f4:7c:3f:8f:b5:1f:7c
    Signature Algorithm: sha256WithRSAEncryption
        Issuer: C=US, ST=California, L=San Francisco, O=Copyleft Certificate Co, OU=My Organizational Unit, CN=ChangeMe/emailAddress=me@example.net
        Validity
            Not Before: Nov 12 11:49:07 2023 GMT
            Not After : Nov 11 11:49:07 2024 GMT
        Subject: C=US, ST=OH, L=Cincinnati, O=University of Cincinnati, OU=Dept. Elec. Comp. Eng. Comp. Sci., CN=client43/emailAddress=franco@gauss.ececs.uc.edu
        Subject Public Key Info:
            Public Key Algorithm: rsaEncryption
                Public-Key: (2048 bit)
                Modulus:
                    00:b2:4a:62:0c:3f:0f:52:32:53:98:37:7a:f3:44:
                    57:9e:96:5a:59:c1:8a:d1:ec:e0:99:a3:e5:55:6d:
                    c6:d4:f5:dc:29:34:47:85:a1:83:b6:fc:e6:9c:37:
                    64:49:a0:a2:9c:67:0b:62:36:8d:e3:af:34:d3:1a:
                    a0:30:52:78:7f:29:eb:97:a9:7c:d9:ee:a0:2b:00:
                    ec:92:03:8c:d1:6a:9b:81:77:a0:7d:0c:3f:ce:3d:
                    ce:3b:41:f2:27:87:b0:1c:30:7c:5d:0f:ff:60:91:
                    7b:9a:eb:7a:51:b6:fb:45:85:f2:3d:c5:cc:82:91:
                    3a:e8:93:86:6d:28:c7:65:e5:b3:f7:24:28:37:85:
                    5f:cf:37:87:33:ef:23:a8:c3:8e:d2:34:5e:f3:79:
                    22:91:ad:7a:b1:a3:b9:7d:ff:3c:96:0b:ae:77:2d:
                    09:df:e3:b1:bb:b3:79:63:27:2d:e4:d2:fe:4e:27:
                    b0:ad:d3:56:58:5c:90:17:d1:ed:ff:fa:0b:d1:0d:
                    7e:06:51:a0:0a:b7:85:cb:2a:ea:53:c2:58:6e:0b:
                    ed:ba:ec:0b:d4:20:c5:2c:b3:a5:e7:19:69:23:12:
                    a8:4f:17:47:f7:0c:4f:da:8d:b6:17:5f:b4:ea:0e:
                    d3:c4:b4:1c:12:32:ca:40:d9:39:db:f6:37:f9:8b:
                    b7:1d
                Exponent: 65537 (0x10001)
        X509v3 extensions:
            X509v3 Basic Constraints: 
                CA:FALSE
            X509v3 Subject Key Identifier: 
                C2:3B:65:63:8C:B6:7A:DC:FD:2C:8C:F7:6B:D7:54:A8:08:C9:E2:64
            X509v3 Authority Key Identifier: 
                keyid:C4:46:F2:96:38:56:02:B8:9D:09:04:52:25:91:35:97:6A:D7:B1:F0
                DirName:/C=US/ST=California/L=San Francisco/O=Copyleft Certificate Co/OU=My Organizational Unit/CN=ChangeMe/emailAddress=me@example.net
                serial:D1:5A:15:1C:F0:20:95:62

            X509v3 Extended Key Usage: 
                TLS Web Client Authentication
            X509v3 Key Usage: 
                Digital Signature
    Signature Algorithm: sha256WithRSAEncryption
         b9:ba:42:4b:f0:3f:4b:bc:fc:ed:32:7d:30:d0:7f:e3:e7:39:
         85:4f:5c:a6:65:ae:42:c0:5f:20:ab:43:52:88:99:af:b7:7c:
         f4:10:f6:78:35:47:d6:c3:61:8f:20:95:4c:ff:26:f7:a0:e7:
         e5:f4:91:d2:94:95:02:cb:c1:e0:05:df:c6:c5:54:d4:e3:1f:
         41:47:89:dc:50:78:20:5e:7d:77:5e:8f:97:bb:9b:47:db:05:
         a8:53:0e:36:f6:fd:1e:b4:c6:d0:c9:45:b8:57:e1:88:0d:04:
         e3:a1:88:38:96:a1:12:b1:c3:32:c7:f1:fa:ba:73:8e:ce:d1:
         10:a4:64:c4:2b:5d:56:03:d7:3f:97:44:c6:a1:7a:06:f1:70:
         bc:b3:94:56:3d:8d:24:36:43:22:b3:a2:42:e5:72:5d:dd:ad:
         c1:cc:bb:84:a6:98:79:e1:7d:99:03:04:2e:f9:db:a5:31:cc:
         2d:a6:5d:19:6d:2f:9b:bd:66:d7:52:d4:75:45:ba:c4:e1:a0:
         6d:6a:67:34:91:1f:eb:94:79:f8:20:e0:13:30:9a:43:6f:67:
         79:39:0d:5e:83:9d:d9:61:c2:cb:fb:0d:ba:31:46:ab:f6:b4:
         4a:a2:b9:94:ff:de:9c:02:46:c9:ad:5b:98:73:7c:2b:9c:6d:
         1d:bc:fd:71
-----BEGIN CERTIFICATE-----
MIIFMDCCBBigAwIBAgIRAP0Owm19cVWqm/R8P4+1H3wwDQYJKoZIhvcNAQELBQAw
ga8xCzAJBgNVBAYTAlVTMRMwEQYDVQQIDApDYWxpZm9ybmlhMRYwFAYDVQQHDA1T
YW4gRnJhbmNpc2NvMSAwHgYDVQQKDBdDb3B5bGVmdCBDZXJ0aWZpY2F0ZSBDbzEf
MB0GA1UECwwWTXkgT3JnYW5pemF0aW9uYWwgVW5pdDERMA8GA1UEAwwIQ2hhbmdl
TWUxHTAbBgkqhkiG9w0BCQEWDm1lQGV4YW1wbGUubmV0MB4XDTIzMTExMjExNDkw
N1oXDTI0MTExMTExNDkwN1owgbsxCzAJBgNVBAYTAlVTMQswCQYDVQQIDAJPSDET
MBEGA1UEBwwKQ2luY2lubmF0aTEhMB8GA1UECgwYVW5pdmVyc2l0eSBvZiBDaW5j
aW5uYXRpMSowKAYDVQQLDCFEZXB0LiBFbGVjLiBDb21wLiBFbmcuIENvbXAuIFNj
aS4xETAPBgNVBAMMCGNsaWVudDQzMSgwJgYJKoZIhvcNAQkBFhlmcmFuY29AZ2F1
c3MuZWNlY3MudWMuZWR1MIIBIjANBgkqhkiG9w0BAQEFAAOCAQ8AMIIBCgKCAQEA
skpiDD8PUjJTmDd680RXnpZaWcGK0ezgmaPlVW3G1PXcKTRHhaGDtvzmnDdkSaCi
nGcLYjaN46800xqgMFJ4fynrl6l82e6gKwDskgOM0WqbgXegfQw/zj3OO0HyJ4ew
HDB8XQ//YJF7mut6Ubb7RYXyPcXMgpE66JOGbSjHZeWz9yQoN4VfzzeHM+8jqMOO
0jRe83kika16saO5ff88lguudy0J3+Oxu7N5Yyct5NL+TiewrdNWWFyQF9Ht//oL
0Q1+BlGgCreFyyrqU8JYbgvtuuwL1CDFLLOl5xlpIxKoTxdH9wxP2o22F1+06g7T
xLQcEjLKQNk52/Y3+Yu3HQIDAQABo4IBNzCCATMwCQYDVR0TBAIwADAdBgNVHQ4E
FgQUwjtlY4y2etz9LIz3a9dUqAjJ4mQwgeQGA1UdIwSB3DCB2YAUxEbyljhWArid
CQRSJZE1l2rXsfChgbWkgbIwga8xCzAJBgNVBAYTAlVTMRMwEQYDVQQIDApDYWxp
Zm9ybmlhMRYwFAYDVQQHDA1TYW4gRnJhbmNpc2NvMSAwHgYDVQQKDBdDb3B5bGVm
dCBDZXJ0aWZpY2F0ZSBDbzEfMB0GA1UECwwWTXkgT3JnYW5pemF0aW9uYWwgVW5p
dDERMA8GA1UEAwwIQ2hhbmdlTWUxHTAbBgkqhkiG9w0BCQEWDm1lQGV4YW1wbGUu
bmV0ggkA0VoVHPAglWIwEwYDVR0lBAwwCgYIKwYBBQUHAwIwCwYDVR0PBAQDAgeA
MA0GCSqGSIb3DQEBCwUAA4IBAQC5ukJL8D9LvPztMn0w0H/j5zmFT1ymZa5CwF8g
q0NSiJmvt3z0EPZ4NUfWw2GPIJVM/yb3oOfl9JHSlJUCy8HgBd/GxVTU4x9BR4nc
UHggXn13Xo+Xu5tH2wWoUw429v0etMbQyUW4V+GIDQTjoYg4lqESscMyx/H6unOO
ztEQpGTEK11WA9c/l0TGoXoG8XC8s5RWPY0kNkMis6JC5XJd3a3BzLuEpph54X2Z
AwQu+dulMcwtpl0ZbS+bvWbXUtR1RbrE4aBtamc0kR/rlHn4IOATMJpDb2d5OQ1e
g53ZYcLL+w26MUar9rRKormU/96cAkbJrVuYc3wrnG0dvP1x
-----END CERTIFICATE-----
