Certificate:
    Data:
        Version: 3 (0x2)
        Serial Number:
            fe:ca:b4:09:95:66:5e:0a:42:2c:1a:e0:af:c2:24:5a
    Signature Algorithm: sha256WithRSAEncryption
        Issuer: C=US, ST=California, L=San Francisco, O=Copyleft Certificate Co, OU=My Organizational Unit, CN=ChangeMe/emailAddress=me@example.net
        Validity
            Not Before: Jan 23 18:30:22 2021 GMT
            Not After : Jan 23 18:30:22 2022 GMT
        Subject: C=US, ST=OH, L=Cincinnati, O=University of Cincinnati, OU=Dept. Electrical Eng. and Computer Sci., CN=client132/emailAddress=franco@gauss.ececs.uc.edu
        Subject Public Key Info:
            Public Key Algorithm: rsaEncryption
                Public-Key: (2048 bit)
                Modulus:
                    00:ae:df:63:b7:3e:b9:21:9b:67:ee:c9:e5:cd:5e:
                    6b:ed:4d:1e:0c:cb:de:c9:23:ba:ba:8a:93:12:94:
                    74:f2:ff:f7:bb:07:38:d8:73:d3:72:2f:e7:1f:60:
                    eb:89:35:a5:37:5a:58:0f:b6:02:6e:d8:13:f0:16:
                    52:7b:c0:a0:f1:45:30:8c:df:2d:9c:f3:d6:95:04:
                    54:7c:23:03:08:d3:24:5f:64:a4:3e:69:c6:90:bd:
                    19:38:b9:23:ca:ee:02:1e:a6:ca:b6:f0:f9:54:a3:
                    fc:26:27:7d:c9:95:41:b0:75:ce:c9:a0:f2:9b:f3:
                    34:35:50:75:37:be:97:94:ce:e6:bb:6d:96:b5:2a:
                    ca:9b:fb:ed:a9:e2:99:f2:38:ec:86:77:a0:fa:f2:
                    c0:6b:01:0d:9d:53:e9:66:6f:e8:cf:78:59:7f:26:
                    60:56:45:13:26:40:fa:a8:f6:74:03:a8:d0:89:1c:
                    13:d2:65:82:54:3c:6c:1e:d3:54:a2:21:7f:a2:a3:
                    78:0a:fa:3d:ed:c9:35:c0:be:b5:90:04:9e:5b:32:
                    e7:f5:03:33:18:05:29:83:df:5d:f6:cc:1a:c7:00:
                    53:67:e5:cb:b6:7b:28:48:ef:20:f7:7f:a8:13:d8:
                    70:26:79:14:7a:58:e4:05:9c:29:41:36:3d:32:40:
                    ce:eb
                Exponent: 65537 (0x10001)
        X509v3 extensions:
            X509v3 Basic Constraints: 
                CA:FALSE
            X509v3 Subject Key Identifier: 
                1B:4A:B7:28:A5:C4:24:A0:4E:69:AD:41:DE:66:4A:5A:B6:AA:B6:32
            X509v3 Authority Key Identifier: 
                keyid:EF:DC:B6:3D:4B:FD:A7:87:05:C5:22:3D:8B:DC:BF:99:2A:EE:E4:DB
                DirName:/C=US/ST=California/L=San Francisco/O=Copyleft Certificate Co/OU=My Organizational Unit/CN=ChangeMe/emailAddress=me@example.net
                serial:87:1E:1D:DC:6B:8C:66:88

            X509v3 Extended Key Usage: 
                TLS Web Client Authentication
            X509v3 Key Usage: 
                Digital Signature
    Signature Algorithm: sha256WithRSAEncryption
         16:30:e9:b4:97:60:71:b4:55:00:67:d8:7c:52:8d:1e:86:1b:
         ad:f9:a7:98:0b:8d:02:74:da:9f:bc:df:e5:c6:0f:24:6c:78:
         77:9a:49:eb:b5:76:54:8e:74:b7:9d:80:63:e3:04:c4:89:b6:
         ac:7f:82:6b:57:6d:f5:a4:af:a3:0a:ee:07:28:77:6c:a5:82:
         61:c5:27:40:11:a5:60:3e:6e:25:27:1d:1b:7b:e9:77:77:21:
         51:d7:1a:6b:4a:20:7f:19:bc:79:20:1a:0a:b8:9a:13:e2:bb:
         d3:b7:56:21:32:b6:bc:86:2a:6f:a6:54:24:af:77:be:12:33:
         29:60:d6:99:b5:53:28:7f:c9:cf:40:4e:90:eb:4c:1b:d9:c3:
         2a:5c:54:f0:1f:2e:16:f3:bd:7f:f7:e7:c6:b0:1f:74:3d:4c:
         0b:78:82:e1:ed:96:5a:65:fc:0d:7b:c6:56:31:22:99:9e:7d:
         7a:c5:95:72:e9:ed:30:96:16:75:7b:24:3c:fd:9f:f3:d2:ec:
         5a:5c:3d:b0:6d:1e:85:38:06:1c:72:04:3b:60:68:e0:96:4a:
         3b:72:d0:7c:e4:8f:e6:5c:45:8e:c0:a5:2c:67:79:b8:4d:de:
         5a:69:dd:fc:f8:d1:e1:35:4e:e7:8b:68:d9:c3:51:0a:9b:b8:
         2e:71:10:db
-----BEGIN CERTIFICATE-----
MIIFNzCCBB+gAwIBAgIRAP7KtAmVZl4KQiwa4K/CJFowDQYJKoZIhvcNAQELBQAw
ga8xCzAJBgNVBAYTAlVTMRMwEQYDVQQIDApDYWxpZm9ybmlhMRYwFAYDVQQHDA1T
YW4gRnJhbmNpc2NvMSAwHgYDVQQKDBdDb3B5bGVmdCBDZXJ0aWZpY2F0ZSBDbzEf
MB0GA1UECwwWTXkgT3JnYW5pemF0aW9uYWwgVW5pdDERMA8GA1UEAwwIQ2hhbmdl
TWUxHTAbBgkqhkiG9w0BCQEWDm1lQGV4YW1wbGUubmV0MB4XDTIxMDEyMzE4MzAy
MloXDTIyMDEyMzE4MzAyMlowgcIxCzAJBgNVBAYTAlVTMQswCQYDVQQIDAJPSDET
MBEGA1UEBwwKQ2luY2lubmF0aTEhMB8GA1UECgwYVW5pdmVyc2l0eSBvZiBDaW5j
aW5uYXRpMTAwLgYDVQQLDCdEZXB0LiBFbGVjdHJpY2FsIEVuZy4gYW5kIENvbXB1
dGVyIFNjaS4xEjAQBgNVBAMMCWNsaWVudDEzMjEoMCYGCSqGSIb3DQEJARYZZnJh
bmNvQGdhdXNzLmVjZWNzLnVjLmVkdTCCASIwDQYJKoZIhvcNAQEBBQADggEPADCC
AQoCggEBAK7fY7c+uSGbZ+7J5c1ea+1NHgzL3skjurqKkxKUdPL/97sHONhz03Iv
5x9g64k1pTdaWA+2Am7YE/AWUnvAoPFFMIzfLZzz1pUEVHwjAwjTJF9kpD5pxpC9
GTi5I8ruAh6myrbw+VSj/CYnfcmVQbB1zsmg8pvzNDVQdTe+l5TO5rttlrUqypv7
7animfI47IZ3oPrywGsBDZ1T6WZv6M94WX8mYFZFEyZA+qj2dAOo0IkcE9JlglQ8
bB7TVKIhf6KjeAr6Pe3JNcC+tZAEnlsy5/UDMxgFKYPfXfbMGscAU2fly7Z7KEjv
IPd/qBPYcCZ5FHpY5AWcKUE2PTJAzusCAwEAAaOCATcwggEzMAkGA1UdEwQCMAAw
HQYDVR0OBBYEFBtKtyilxCSgTmmtQd5mSlq2qrYyMIHkBgNVHSMEgdwwgdmAFO/c
tj1L/aeHBcUiPYvcv5kq7uTboYG1pIGyMIGvMQswCQYDVQQGEwJVUzETMBEGA1UE
CAwKQ2FsaWZvcm5pYTEWMBQGA1UEBwwNU2FuIEZyYW5jaXNjbzEgMB4GA1UECgwX
Q29weWxlZnQgQ2VydGlmaWNhdGUgQ28xHzAdBgNVBAsMFk15IE9yZ2FuaXphdGlv
bmFsIFVuaXQxETAPBgNVBAMMCENoYW5nZU1lMR0wGwYJKoZIhvcNAQkBFg5tZUBl
eGFtcGxlLm5ldIIJAIceHdxrjGaIMBMGA1UdJQQMMAoGCCsGAQUFBwMCMAsGA1Ud
DwQEAwIHgDANBgkqhkiG9w0BAQsFAAOCAQEAFjDptJdgcbRVAGfYfFKNHoYbrfmn
mAuNAnTan7zf5cYPJGx4d5pJ67V2VI50t52AY+MExIm2rH+Ca1dt9aSvowruByh3
bKWCYcUnQBGlYD5uJScdG3vpd3chUdcaa0ogfxm8eSAaCriaE+K707dWITK2vIYq
b6ZUJK93vhIzKWDWmbVTKH/Jz0BOkOtMG9nDKlxU8B8uFvO9f/fnxrAfdD1MC3iC
4e2WWmX8DXvGVjEimZ59esWVcuntMJYWdXskPP2f89LsWlw9sG0ehTgGHHIEO2Bo
4JZKO3LQfOSP5lxFjsClLGd5uE3eWmnd/PjR4TVO54to2cNRCpu4LnEQ2w==
-----END CERTIFICATE-----
