Certificate:
    Data:
        Version: 3 (0x2)
        Serial Number:
            ff:5b:86:62:37:8a:ea:61:ef:d9:a9:30:26:a0:df:cc
    Signature Algorithm: sha256WithRSAEncryption
        Issuer: C=US, ST=California, L=San Francisco, O=Copyleft Certificate Co, OU=My Organizational Unit, CN=ChangeMe/emailAddress=me@example.net
        Validity
            Not Before: Nov 13 11:46:30 2023 GMT
            Not After : Nov 12 11:46:30 2024 GMT
        Subject: C=US, ST=OH, L=Cincinnati, O=University of Cincinnati, OU=Dept. Elec. Comp. Eng. Comp. Sci., CN=client1/emailAddress=franco@gauss.ececs.uc.edu
        Subject Public Key Info:
            Public Key Algorithm: rsaEncryption
                Public-Key: (2048 bit)
                Modulus:
                    00:c4:f4:9c:70:91:8d:e1:a8:3f:b3:de:6f:9f:af:
                    1c:09:96:d4:10:69:41:eb:dd:f0:48:29:df:19:79:
                    a4:6d:c3:9a:76:56:3b:bb:cb:e5:3c:a1:19:99:74:
                    89:ce:77:f4:29:1d:7f:47:94:29:78:21:0c:70:4c:
                    14:6a:c3:10:59:dc:d2:1a:77:03:9b:ce:5c:3c:fc:
                    cb:6f:39:83:0a:28:f2:6c:97:d4:5f:c0:ce:de:1e:
                    51:df:37:3d:8a:f9:2c:90:6d:d3:17:4a:ca:51:30:
                    3f:c1:58:4e:09:a5:9c:94:ee:0a:d8:36:d6:69:16:
                    25:75:d6:a8:f7:a7:60:a2:d4:10:64:8a:0f:6e:9d:
                    4d:a7:54:a0:77:9a:3d:47:8b:6e:e5:83:fe:da:b4:
                    15:99:31:63:d4:0b:69:b4:75:bf:e3:0c:0a:97:d0:
                    92:ed:69:2e:59:c7:97:33:8c:9b:6c:27:34:29:9c:
                    a7:51:28:6d:14:13:4a:b7:bb:1a:8a:9b:0c:70:c4:
                    d3:ba:a9:12:ef:7e:14:02:04:b7:f0:69:a4:d5:75:
                    72:d4:fe:83:8d:cf:73:c6:a1:30:92:6b:76:82:6e:
                    30:6f:c6:90:1c:0f:41:8e:28:2b:e2:8d:7b:eb:16:
                    24:f5:12:b7:43:82:d1:86:21:ea:f5:0d:49:fd:df:
                    97:3b
                Exponent: 65537 (0x10001)
        X509v3 extensions:
            X509v3 Basic Constraints: 
                CA:FALSE
            X509v3 Subject Key Identifier: 
                55:53:74:7F:11:21:82:A1:8A:8F:5D:3A:6C:89:7A:7F:9B:B6:95:75
            X509v3 Authority Key Identifier: 
                keyid:B4:AE:AB:ED:FC:ED:84:AA:AD:77:5D:7C:84:28:1C:CA:CE:AE:2A:44
                DirName:/C=US/ST=California/L=San Francisco/O=Copyleft Certificate Co/OU=My Organizational Unit/CN=ChangeMe/emailAddress=me@example.net
                serial:BD:6C:3B:F4:D3:07:C9:D1

            X509v3 Extended Key Usage: 
                TLS Web Client Authentication
            X509v3 Key Usage: 
                Digital Signature
    Signature Algorithm: sha256WithRSAEncryption
         02:cb:21:36:49:1e:7d:07:70:28:5c:c4:23:d6:c3:2f:3a:eb:
         15:c6:4a:38:7e:12:96:2f:39:ca:50:03:4d:e3:07:64:c6:38:
         3c:21:5d:11:9c:b3:3a:59:65:e5:d9:d4:ad:79:16:83:fe:ad:
         3f:3b:d1:91:1f:a1:a2:bb:40:5d:2d:05:ff:cb:e0:be:ca:16:
         60:ab:11:60:6b:fe:d9:8c:94:ad:c8:45:a4:bf:a1:36:b9:cd:
         d0:bc:42:66:27:55:c1:6f:d1:b6:15:b8:8e:b7:b0:d6:94:18:
         da:30:8d:3c:17:3c:17:11:29:5d:c1:83:80:56:48:89:6b:00:
         b5:41:79:b0:0b:31:5f:66:7b:13:bd:26:aa:0f:d9:36:ec:ea:
         98:ff:9f:fd:64:12:6c:9a:79:4a:c4:0f:0a:5f:80:d7:da:05:
         a9:cf:fa:78:fa:6d:ba:0f:8d:a4:ea:ed:2a:bc:b4:4c:6e:2b:
         78:d4:b1:d2:1e:75:dc:9a:f8:43:fb:4b:ff:d6:cf:82:2a:52:
         33:9d:b7:24:25:88:f5:3d:35:48:b9:5e:8a:0d:84:dc:33:30:
         17:70:7d:59:32:1f:51:4c:4e:3b:0c:6e:b9:77:7c:df:67:c9:
         0c:79:37:66:c8:e4:f0:c0:e6:74:11:b1:ab:67:af:9a:e6:a3:
         c6:ca:9f:09
-----BEGIN CERTIFICATE-----
MIIFLzCCBBegAwIBAgIRAP9bhmI3iuph79mpMCag38wwDQYJKoZIhvcNAQELBQAw
ga8xCzAJBgNVBAYTAlVTMRMwEQYDVQQIDApDYWxpZm9ybmlhMRYwFAYDVQQHDA1T
YW4gRnJhbmNpc2NvMSAwHgYDVQQKDBdDb3B5bGVmdCBDZXJ0aWZpY2F0ZSBDbzEf
MB0GA1UECwwWTXkgT3JnYW5pemF0aW9uYWwgVW5pdDERMA8GA1UEAwwIQ2hhbmdl
TWUxHTAbBgkqhkiG9w0BCQEWDm1lQGV4YW1wbGUubmV0MB4XDTIzMTExMzExNDYz
MFoXDTI0MTExMjExNDYzMFowgboxCzAJBgNVBAYTAlVTMQswCQYDVQQIDAJPSDET
MBEGA1UEBwwKQ2luY2lubmF0aTEhMB8GA1UECgwYVW5pdmVyc2l0eSBvZiBDaW5j
aW5uYXRpMSowKAYDVQQLDCFEZXB0LiBFbGVjLiBDb21wLiBFbmcuIENvbXAuIFNj
aS4xEDAOBgNVBAMMB2NsaWVudDExKDAmBgkqhkiG9w0BCQEWGWZyYW5jb0BnYXVz
cy5lY2Vjcy51Yy5lZHUwggEiMA0GCSqGSIb3DQEBAQUAA4IBDwAwggEKAoIBAQDE
9JxwkY3hqD+z3m+frxwJltQQaUHr3fBIKd8ZeaRtw5p2Vju7y+U8oRmZdInOd/Qp
HX9HlCl4IQxwTBRqwxBZ3NIadwObzlw8/MtvOYMKKPJsl9RfwM7eHlHfNz2K+SyQ
bdMXSspRMD/BWE4JpZyU7grYNtZpFiV11qj3p2Ci1BBkig9unU2nVKB3mj1Hi27l
g/7atBWZMWPUC2m0db/jDAqX0JLtaS5Zx5czjJtsJzQpnKdRKG0UE0q3uxqKmwxw
xNO6qRLvfhQCBLfwaaTVdXLU/oONz3PGoTCSa3aCbjBvxpAcD0GOKCvijXvrFiT1
ErdDgtGGIer1DUn935c7AgMBAAGjggE3MIIBMzAJBgNVHRMEAjAAMB0GA1UdDgQW
BBRVU3R/ESGCoYqPXTpsiXp/m7aVdTCB5AYDVR0jBIHcMIHZgBS0rqvt/O2Eqq13
XXyEKBzKzq4qRKGBtaSBsjCBrzELMAkGA1UEBhMCVVMxEzARBgNVBAgMCkNhbGlm
b3JuaWExFjAUBgNVBAcMDVNhbiBGcmFuY2lzY28xIDAeBgNVBAoMF0NvcHlsZWZ0
IENlcnRpZmljYXRlIENvMR8wHQYDVQQLDBZNeSBPcmdhbml6YXRpb25hbCBVbml0
MREwDwYDVQQDDAhDaGFuZ2VNZTEdMBsGCSqGSIb3DQEJARYObWVAZXhhbXBsZS5u
ZXSCCQC9bDv00wfJ0TATBgNVHSUEDDAKBggrBgEFBQcDAjALBgNVHQ8EBAMCB4Aw
DQYJKoZIhvcNAQELBQADggEBAALLITZJHn0HcChcxCPWwy866xXGSjh+EpYvOcpQ
A03jB2TGODwhXRGcszpZZeXZ1K15FoP+rT870ZEfoaK7QF0tBf/L4L7KFmCrEWBr
/tmMlK3IRaS/oTa5zdC8QmYnVcFv0bYVuI63sNaUGNowjTwXPBcRKV3Bg4BWSIlr
ALVBebALMV9mexO9JqoP2Tbs6pj/n/1kEmyaeUrEDwpfgNfaBanP+nj6bboPjaTq
7Sq8tExuK3jUsdIeddya+EP7S//Wz4IqUjOdtyQliPU9NUi5XooNhNwzMBdwfVky
H1FMTjsMbrl3fN9nyQx5N2bI5PDA5nQRsatnr5rmo8bKnwk=
-----END CERTIFICATE-----
