Certificate:
    Data:
        Version: 3 (0x2)
        Serial Number:
            b0:a6:ad:f9:a3:e6:42:38:95:af:7c:4c:89:ed:f9:c2
    Signature Algorithm: sha256WithRSAEncryption
        Issuer: C=US, ST=California, L=San Francisco, O=Copyleft Certificate Co, OU=My Organizational Unit, CN=ChangeMe/emailAddress=me@example.net
        Validity
            Not Before: Nov 11 01:59:39 2023 GMT
            Not After : Nov 10 01:59:39 2024 GMT
        Subject: C=US, ST=OH, L=Cincinnati, O=University of Cincinnati, OU=Dept. Elec. Comp. Eng. Comp. Sci., CN=client24/emailAddress=franco@gauss.ececs.uc.edu
        Subject Public Key Info:
            Public Key Algorithm: rsaEncryption
                Public-Key: (2048 bit)
                Modulus:
                    00:bd:24:6d:bf:ca:cf:77:11:c5:bd:85:a4:98:a9:
                    eb:6b:a7:e2:c2:a3:2c:c2:35:0d:08:82:0d:93:8e:
                    70:23:b0:32:31:92:c2:95:7e:98:c5:bb:0c:86:74:
                    65:c7:ce:ad:dd:46:76:45:73:9c:af:cb:72:bc:8c:
                    78:e9:8b:ed:f4:28:ea:2c:28:8f:59:77:cd:44:b1:
                    00:5b:87:7d:0a:44:d8:02:78:7c:76:2d:04:bf:9d:
                    f9:1f:94:11:a8:70:05:95:13:79:72:23:10:fa:e4:
                    a4:f1:26:02:93:9c:82:0a:a0:45:5d:b7:b9:15:44:
                    5b:e9:b5:29:22:e5:d7:40:2b:d0:f9:98:b2:7a:eb:
                    29:85:f5:d6:6f:d2:bd:69:8d:5a:c1:a7:c6:88:e3:
                    5a:a3:11:d8:69:85:c6:ac:7e:bc:c6:1d:52:fd:83:
                    6f:28:92:35:5e:86:8e:62:8f:8c:a4:3b:89:0a:71:
                    3f:fe:37:33:4c:d5:76:a1:54:20:64:d3:52:f0:81:
                    b7:ab:5a:1b:6e:b5:46:f9:ed:ae:37:35:55:cf:e9:
                    17:bc:fd:e3:9c:df:12:33:9b:89:ef:53:e7:ca:75:
                    68:1d:df:19:f7:b4:71:9f:40:ff:87:12:7f:2d:ec:
                    a1:c6:f3:dc:2e:9a:c6:3c:93:e9:14:09:50:5a:b1:
                    07:51
                Exponent: 65537 (0x10001)
        X509v3 extensions:
            X509v3 Basic Constraints: 
                CA:FALSE
            X509v3 Subject Key Identifier: 
                04:59:2C:51:B0:DF:9B:2E:B8:2C:E0:C7:11:29:6C:A4:42:C7:26:F0
            X509v3 Authority Key Identifier: 
                keyid:7B:0F:93:16:64:9F:71:41:D3:1B:FB:ED:6A:70:9B:CA:2E:70:F0:4B
                DirName:/C=US/ST=California/L=San Francisco/O=Copyleft Certificate Co/OU=My Organizational Unit/CN=ChangeMe/emailAddress=me@example.net
                serial:B9:F2:4E:2C:79:B3:D4:6C

            X509v3 Extended Key Usage: 
                TLS Web Client Authentication
            X509v3 Key Usage: 
                Digital Signature
    Signature Algorithm: sha256WithRSAEncryption
         43:60:b0:af:7c:68:ff:03:4d:d9:85:57:ca:cd:80:f8:25:36:
         54:98:d7:a1:ca:1b:33:82:89:59:ab:40:bd:5e:1b:67:a3:fd:
         71:d3:19:9d:f0:31:05:6b:1c:a1:4f:a3:2e:a0:81:b1:85:f5:
         f0:80:08:d5:de:22:28:1c:3b:dd:64:69:a7:37:ba:85:29:db:
         10:41:5e:c9:b0:bb:71:71:14:34:9d:d3:aa:92:c7:6b:26:50:
         ff:2b:24:ba:60:95:fb:c4:b0:0a:1b:52:86:e2:90:26:a0:01:
         9e:81:e4:13:c8:c5:2f:c8:83:d0:8e:f1:19:67:d6:03:57:a2:
         4f:61:06:bd:ec:71:13:a5:bd:2c:b0:88:ce:19:c6:54:c7:4d:
         15:b5:54:d8:4a:43:6e:8a:ab:8c:80:fe:f1:67:23:9f:26:f7:
         79:63:e6:c9:a5:26:e4:18:51:39:bf:7e:d5:86:d6:8d:8d:15:
         59:8d:ae:86:fd:86:13:c9:9b:35:28:e2:aa:93:cc:b8:eb:13:
         80:09:6e:6d:a8:62:1f:d8:41:77:70:72:7b:df:9d:cf:c7:62:
         68:34:a1:3f:7f:11:09:13:3b:24:39:a6:cb:65:2f:59:d4:d9:
         54:07:4b:60:2b:d1:67:31:05:d5:12:93:13:62:2a:53:4e:5a:
         b4:24:29:21
-----BEGIN CERTIFICATE-----
MIIFMDCCBBigAwIBAgIRALCmrfmj5kI4la98TInt+cIwDQYJKoZIhvcNAQELBQAw
ga8xCzAJBgNVBAYTAlVTMRMwEQYDVQQIDApDYWxpZm9ybmlhMRYwFAYDVQQHDA1T
YW4gRnJhbmNpc2NvMSAwHgYDVQQKDBdDb3B5bGVmdCBDZXJ0aWZpY2F0ZSBDbzEf
MB0GA1UECwwWTXkgT3JnYW5pemF0aW9uYWwgVW5pdDERMA8GA1UEAwwIQ2hhbmdl
TWUxHTAbBgkqhkiG9w0BCQEWDm1lQGV4YW1wbGUubmV0MB4XDTIzMTExMTAxNTkz
OVoXDTI0MTExMDAxNTkzOVowgbsxCzAJBgNVBAYTAlVTMQswCQYDVQQIDAJPSDET
MBEGA1UEBwwKQ2luY2lubmF0aTEhMB8GA1UECgwYVW5pdmVyc2l0eSBvZiBDaW5j
aW5uYXRpMSowKAYDVQQLDCFEZXB0LiBFbGVjLiBDb21wLiBFbmcuIENvbXAuIFNj
aS4xETAPBgNVBAMMCGNsaWVudDI0MSgwJgYJKoZIhvcNAQkBFhlmcmFuY29AZ2F1
c3MuZWNlY3MudWMuZWR1MIIBIjANBgkqhkiG9w0BAQEFAAOCAQ8AMIIBCgKCAQEA
vSRtv8rPdxHFvYWkmKnra6fiwqMswjUNCIINk45wI7AyMZLClX6YxbsMhnRlx86t
3UZ2RXOcr8tyvIx46Yvt9CjqLCiPWXfNRLEAW4d9CkTYAnh8di0Ev535H5QRqHAF
lRN5ciMQ+uSk8SYCk5yCCqBFXbe5FURb6bUpIuXXQCvQ+ZiyeusphfXWb9K9aY1a
wafGiONaoxHYaYXGrH68xh1S/YNvKJI1XoaOYo+MpDuJCnE//jczTNV2oVQgZNNS
8IG3q1obbrVG+e2uNzVVz+kXvP3jnN8SM5uJ71PnynVoHd8Z97Rxn0D/hxJ/Leyh
xvPcLprGPJPpFAlQWrEHUQIDAQABo4IBNzCCATMwCQYDVR0TBAIwADAdBgNVHQ4E
FgQUBFksUbDfmy64LODHESlspELHJvAwgeQGA1UdIwSB3DCB2YAUew+TFmSfcUHT
G/vtanCbyi5w8EuhgbWkgbIwga8xCzAJBgNVBAYTAlVTMRMwEQYDVQQIDApDYWxp
Zm9ybmlhMRYwFAYDVQQHDA1TYW4gRnJhbmNpc2NvMSAwHgYDVQQKDBdDb3B5bGVm
dCBDZXJ0aWZpY2F0ZSBDbzEfMB0GA1UECwwWTXkgT3JnYW5pemF0aW9uYWwgVW5p
dDERMA8GA1UEAwwIQ2hhbmdlTWUxHTAbBgkqhkiG9w0BCQEWDm1lQGV4YW1wbGUu
bmV0ggkAufJOLHmz1GwwEwYDVR0lBAwwCgYIKwYBBQUHAwIwCwYDVR0PBAQDAgeA
MA0GCSqGSIb3DQEBCwUAA4IBAQBDYLCvfGj/A03ZhVfKzYD4JTZUmNehyhszgolZ
q0C9Xhtno/1x0xmd8DEFaxyhT6MuoIGxhfXwgAjV3iIoHDvdZGmnN7qFKdsQQV7J
sLtxcRQ0ndOqksdrJlD/KyS6YJX7xLAKG1KG4pAmoAGegeQTyMUvyIPQjvEZZ9YD
V6JPYQa97HETpb0ssIjOGcZUx00VtVTYSkNuiquMgP7xZyOfJvd5Y+bJpSbkGFE5
v37VhtaNjRVZja6G/YYTyZs1KOKqk8y46xOACW5tqGIf2EF3cHJ7353Px2JoNKE/
fxEJEzskOabLZS9Z1NlUB0tgK9FnMQXVEpMTYipTTlq0JCkh
-----END CERTIFICATE-----
