Certificate:
    Data:
        Version: 3 (0x2)
        Serial Number:
            a4:ff:3d:f8:df:93:d4:8e:69:8b:85:ed:ba:51:57:f7
    Signature Algorithm: sha256WithRSAEncryption
        Issuer: C=US, ST=California, L=San Francisco, O=Copyleft Certificate Co, OU=My Organizational Unit, CN=ChangeMe/emailAddress=me@example.net
        Validity
            Not Before: Nov 11 01:59:59 2023 GMT
            Not After : Nov 10 01:59:59 2024 GMT
        Subject: C=US, ST=OH, L=Cincinnati, O=University of Cincinnati, OU=Dept. Elec. Comp. Eng. Comp. Sci., CN=client29/emailAddress=franco@gauss.ececs.uc.edu
        Subject Public Key Info:
            Public Key Algorithm: rsaEncryption
                Public-Key: (2048 bit)
                Modulus:
                    00:d5:41:4e:13:cd:a4:40:c5:a0:12:3c:0b:a2:72:
                    f2:99:72:ed:3e:be:c6:3e:0a:ad:68:cf:50:08:1c:
                    44:a9:2a:7c:c2:6f:54:a5:8b:2d:23:46:89:0f:19:
                    ff:c4:bc:6a:95:05:83:a2:20:6d:9d:1b:11:d1:4a:
                    46:16:c1:ab:c7:6b:87:c5:e6:b2:80:3c:87:09:33:
                    1a:46:b7:c2:af:36:05:e6:6d:2b:43:62:4e:bd:5a:
                    5c:41:a3:70:8b:5b:29:ac:3a:5a:d5:11:dd:ae:b5:
                    54:3d:78:1f:59:4c:3a:e4:61:9d:1f:7f:82:2c:d6:
                    6d:1e:9f:25:0c:bb:a1:59:26:0b:d6:66:d1:a9:e0:
                    a9:22:92:b4:33:ef:ca:f2:f8:10:a3:c5:8d:fe:de:
                    57:4d:a4:db:1d:3d:be:60:aa:e9:7a:1d:91:e6:f7:
                    40:26:43:9c:70:eb:47:d0:99:c7:67:d1:ad:a2:dc:
                    40:dc:f0:54:94:50:42:7f:92:21:e8:c7:5c:c2:77:
                    0f:e1:3f:9c:e8:52:5a:f0:2c:cb:69:c1:38:45:11:
                    31:32:9f:56:02:c4:4c:d8:d5:29:3a:af:b7:50:ef:
                    3a:96:70:35:d3:8d:81:4b:25:be:e9:13:a3:58:fc:
                    c1:24:ce:40:c1:55:ed:4c:f3:b4:0d:e6:6e:64:b4:
                    db:3b
                Exponent: 65537 (0x10001)
        X509v3 extensions:
            X509v3 Basic Constraints: 
                CA:FALSE
            X509v3 Subject Key Identifier: 
                BB:01:6E:1D:AD:F7:71:C2:0A:16:4A:B1:CA:0F:E0:DE:F2:0F:D0:F5
            X509v3 Authority Key Identifier: 
                keyid:7B:0F:93:16:64:9F:71:41:D3:1B:FB:ED:6A:70:9B:CA:2E:70:F0:4B
                DirName:/C=US/ST=California/L=San Francisco/O=Copyleft Certificate Co/OU=My Organizational Unit/CN=ChangeMe/emailAddress=me@example.net
                serial:B9:F2:4E:2C:79:B3:D4:6C

            X509v3 Extended Key Usage: 
                TLS Web Client Authentication
            X509v3 Key Usage: 
                Digital Signature
    Signature Algorithm: sha256WithRSAEncryption
         4a:7e:91:4f:59:69:4a:21:15:90:2c:f1:6b:10:99:e0:34:31:
         f9:7a:08:68:c6:ec:eb:22:64:f8:15:44:84:ca:43:87:38:8b:
         43:8f:7d:67:86:81:22:e2:ae:f5:ae:55:0e:cf:c0:d3:58:38:
         1d:c7:08:71:46:92:5f:cd:0a:58:38:d5:35:e4:29:16:5b:1a:
         f7:2f:40:6c:db:6b:5b:b8:1f:db:ad:60:54:7b:6f:7a:27:26:
         d8:b0:bd:82:02:23:4a:1e:5c:be:8a:98:a3:10:68:93:08:18:
         68:6b:9f:a9:38:cd:5e:62:df:1d:54:8c:85:99:17:a6:5e:d6:
         cd:9e:a8:74:36:94:56:0f:5c:fb:cf:ec:c6:c1:0d:36:33:98:
         96:0b:c0:2c:fb:a7:fa:ab:70:f7:39:da:d1:99:2d:d0:dd:ea:
         ca:24:c6:d8:71:41:17:46:1c:1a:f1:28:cf:65:6c:f1:cc:65:
         d2:81:3f:91:8d:a4:5f:b6:65:38:93:2e:6d:b6:1d:39:9f:04:
         a9:1d:03:d4:dd:1a:be:ba:be:19:31:18:b1:e5:b0:06:a2:1c:
         e3:3c:91:4c:5c:36:c6:78:54:67:40:8a:2f:4d:ab:cc:e4:dd:
         77:32:af:5e:76:03:6f:9a:40:4a:9e:c8:db:5b:3f:76:46:6e:
         f3:b4:c9:64
-----BEGIN CERTIFICATE-----
MIIFMDCCBBigAwIBAgIRAKT/Pfjfk9SOaYuF7bpRV/cwDQYJKoZIhvcNAQELBQAw
ga8xCzAJBgNVBAYTAlVTMRMwEQYDVQQIDApDYWxpZm9ybmlhMRYwFAYDVQQHDA1T
YW4gRnJhbmNpc2NvMSAwHgYDVQQKDBdDb3B5bGVmdCBDZXJ0aWZpY2F0ZSBDbzEf
MB0GA1UECwwWTXkgT3JnYW5pemF0aW9uYWwgVW5pdDERMA8GA1UEAwwIQ2hhbmdl
TWUxHTAbBgkqhkiG9w0BCQEWDm1lQGV4YW1wbGUubmV0MB4XDTIzMTExMTAxNTk1
OVoXDTI0MTExMDAxNTk1OVowgbsxCzAJBgNVBAYTAlVTMQswCQYDVQQIDAJPSDET
MBEGA1UEBwwKQ2luY2lubmF0aTEhMB8GA1UECgwYVW5pdmVyc2l0eSBvZiBDaW5j
aW5uYXRpMSowKAYDVQQLDCFEZXB0LiBFbGVjLiBDb21wLiBFbmcuIENvbXAuIFNj
aS4xETAPBgNVBAMMCGNsaWVudDI5MSgwJgYJKoZIhvcNAQkBFhlmcmFuY29AZ2F1
c3MuZWNlY3MudWMuZWR1MIIBIjANBgkqhkiG9w0BAQEFAAOCAQ8AMIIBCgKCAQEA
1UFOE82kQMWgEjwLonLymXLtPr7GPgqtaM9QCBxEqSp8wm9UpYstI0aJDxn/xLxq
lQWDoiBtnRsR0UpGFsGrx2uHxeaygDyHCTMaRrfCrzYF5m0rQ2JOvVpcQaNwi1sp
rDpa1RHdrrVUPXgfWUw65GGdH3+CLNZtHp8lDLuhWSYL1mbRqeCpIpK0M+/K8vgQ
o8WN/t5XTaTbHT2+YKrpeh2R5vdAJkOccOtH0JnHZ9GtotxA3PBUlFBCf5Ih6Mdc
wncP4T+c6FJa8CzLacE4RRExMp9WAsRM2NUpOq+3UO86lnA1042BSyW+6ROjWPzB
JM5AwVXtTPO0DeZuZLTbOwIDAQABo4IBNzCCATMwCQYDVR0TBAIwADAdBgNVHQ4E
FgQUuwFuHa33ccIKFkqxyg/g3vIP0PUwgeQGA1UdIwSB3DCB2YAUew+TFmSfcUHT
G/vtanCbyi5w8EuhgbWkgbIwga8xCzAJBgNVBAYTAlVTMRMwEQYDVQQIDApDYWxp
Zm9ybmlhMRYwFAYDVQQHDA1TYW4gRnJhbmNpc2NvMSAwHgYDVQQKDBdDb3B5bGVm
dCBDZXJ0aWZpY2F0ZSBDbzEfMB0GA1UECwwWTXkgT3JnYW5pemF0aW9uYWwgVW5p
dDERMA8GA1UEAwwIQ2hhbmdlTWUxHTAbBgkqhkiG9w0BCQEWDm1lQGV4YW1wbGUu
bmV0ggkAufJOLHmz1GwwEwYDVR0lBAwwCgYIKwYBBQUHAwIwCwYDVR0PBAQDAgeA
MA0GCSqGSIb3DQEBCwUAA4IBAQBKfpFPWWlKIRWQLPFrEJngNDH5eghoxuzrImT4
FUSEykOHOItDj31nhoEi4q71rlUOz8DTWDgdxwhxRpJfzQpYONU15CkWWxr3L0Bs
22tbuB/brWBUe296JybYsL2CAiNKHly+ipijEGiTCBhoa5+pOM1eYt8dVIyFmRem
XtbNnqh0NpRWD1z7z+zGwQ02M5iWC8As+6f6q3D3OdrRmS3Q3erKJMbYcUEXRhwa
8SjPZWzxzGXSgT+RjaRftmU4ky5tth05nwSpHQPU3Rq+ur4ZMRix5bAGohzjPJFM
XDbGeFRnQIovTavM5N13Mq9edgNvmkBKnsjbWz92Rm7ztMlk
-----END CERTIFICATE-----
