Certificate:
    Data:
        Version: 3 (0x2)
        Serial Number:
            41:69:c8:d4:35:19:76:1e:7b:32:78:43:eb:f9:3f:9b
    Signature Algorithm: sha256WithRSAEncryption
        Issuer: C=US, ST=California, L=San Francisco, O=Copyleft Certificate Co, OU=My Organizational Unit, CN=ChangeMe/emailAddress=me@example.net
        Validity
            Not Before: Nov 13 11:12:17 2023 GMT
            Not After : Nov 12 11:12:17 2024 GMT
        Subject: C=US, ST=OH, L=Cincinnati, O=University of Cincinnati, OU=Dept. Elec. Comp. Eng. Comp. Sci., CN=client33/emailAddress=franco@gauss.ececs.uc.edu
        Subject Public Key Info:
            Public Key Algorithm: rsaEncryption
                Public-Key: (2048 bit)
                Modulus:
                    00:e6:e4:06:eb:68:18:73:3f:6a:d9:3b:0f:7b:4f:
                    f5:56:ee:16:64:f2:d1:6b:b4:e2:fd:82:f5:bd:0d:
                    28:4a:2e:80:92:37:a8:1b:88:37:ff:14:48:3c:0e:
                    b6:32:29:0e:23:3b:95:f5:dd:17:25:10:5d:91:24:
                    e3:59:71:fc:fc:fc:a0:a0:6a:b9:e7:71:4f:da:f9:
                    5c:5e:c4:e6:ec:7d:ec:01:e7:ec:2a:85:c4:7b:df:
                    3c:e2:ae:48:ed:43:7e:0a:bf:4f:9f:2c:cb:1d:27:
                    2c:4b:3e:a5:0a:d7:a7:30:76:88:00:89:92:b0:48:
                    6f:01:85:48:a0:73:da:96:05:1c:66:4d:8d:00:a3:
                    f5:75:92:09:6a:eb:db:13:5d:27:7a:26:d3:98:c7:
                    c3:d5:c6:fd:d4:5c:cd:d5:09:0b:e1:b2:8b:88:67:
                    90:90:f3:da:f3:5c:6b:e9:d6:a3:75:ac:a1:9e:37:
                    32:2f:87:0a:bb:d1:66:d2:27:de:63:68:47:29:da:
                    f7:eb:7e:16:5f:f3:c8:e8:d6:82:36:f4:a2:45:3c:
                    7e:d6:89:4b:50:28:c3:55:dd:3b:8c:84:d9:95:df:
                    6c:ef:bb:8a:4f:60:98:8e:cc:24:5c:5e:51:29:66:
                    f1:8e:4a:a6:5f:65:1b:25:02:92:1a:31:97:91:73:
                    19:fb
                Exponent: 65537 (0x10001)
        X509v3 extensions:
            X509v3 Basic Constraints: 
                CA:FALSE
            X509v3 Subject Key Identifier: 
                29:99:B8:30:04:1A:14:DD:DA:44:87:6A:9B:13:99:30:40:1F:A3:61
            X509v3 Authority Key Identifier: 
                keyid:1A:DC:98:F2:69:C1:F7:C8:1D:21:43:B0:3C:79:50:4D:D8:2B:87:54
                DirName:/C=US/ST=California/L=San Francisco/O=Copyleft Certificate Co/OU=My Organizational Unit/CN=ChangeMe/emailAddress=me@example.net
                serial:8C:9B:8E:88:7A:AC:6D:8B

            X509v3 Extended Key Usage: 
                TLS Web Client Authentication
            X509v3 Key Usage: 
                Digital Signature
    Signature Algorithm: sha256WithRSAEncryption
         77:7c:77:9f:27:7b:71:09:e2:0c:d9:38:f5:28:8a:90:4d:01:
         74:15:54:c6:80:0a:53:be:7e:e7:9b:1e:28:f5:7e:65:8b:e7:
         03:4b:10:7c:12:bc:42:38:2e:a2:09:a0:26:70:d0:27:19:a3:
         7a:95:b2:d8:f7:2c:87:13:70:6e:40:e6:e7:ad:88:a5:34:c9:
         13:f3:ef:28:87:3d:be:55:e0:fa:ed:80:7d:ad:01:e9:cb:b0:
         19:1c:01:a8:f3:2c:4c:c5:fb:15:bf:32:02:82:4e:d5:ce:fe:
         05:77:fc:24:90:bd:a1:8b:3e:ca:3e:0e:99:7e:6e:d0:92:c6:
         58:d0:5e:fe:e8:48:04:6a:9a:4b:a0:fa:24:81:dc:d1:8d:bb:
         84:23:bd:2a:bd:b4:c3:a6:b5:b9:ec:82:06:8a:d9:e6:33:2e:
         82:f5:80:81:09:7b:ce:8c:b5:f5:03:cc:b0:3d:f1:ae:52:fe:
         4b:c6:d0:6e:4b:61:c6:22:d3:71:b4:34:6a:ef:bc:41:87:a1:
         e5:61:ed:7a:29:0a:2e:3d:84:26:f0:a6:59:29:eb:5f:29:f6:
         fe:b2:c9:ab:3e:3c:3f:1b:2f:6b:f0:bb:d9:e6:b2:9d:32:94:
         f2:bf:73:f4:1c:c3:e5:68:26:c5:52:72:a9:24:2f:13:69:d8:
         e7:00:ed:48
-----BEGIN CERTIFICATE-----
MIIFLzCCBBegAwIBAgIQQWnI1DUZdh57MnhD6/k/mzANBgkqhkiG9w0BAQsFADCB
rzELMAkGA1UEBhMCVVMxEzARBgNVBAgMCkNhbGlmb3JuaWExFjAUBgNVBAcMDVNh
biBGcmFuY2lzY28xIDAeBgNVBAoMF0NvcHlsZWZ0IENlcnRpZmljYXRlIENvMR8w
HQYDVQQLDBZNeSBPcmdhbml6YXRpb25hbCBVbml0MREwDwYDVQQDDAhDaGFuZ2VN
ZTEdMBsGCSqGSIb3DQEJARYObWVAZXhhbXBsZS5uZXQwHhcNMjMxMTEzMTExMjE3
WhcNMjQxMTEyMTExMjE3WjCBuzELMAkGA1UEBhMCVVMxCzAJBgNVBAgMAk9IMRMw
EQYDVQQHDApDaW5jaW5uYXRpMSEwHwYDVQQKDBhVbml2ZXJzaXR5IG9mIENpbmNp
bm5hdGkxKjAoBgNVBAsMIURlcHQuIEVsZWMuIENvbXAuIEVuZy4gQ29tcC4gU2Np
LjERMA8GA1UEAwwIY2xpZW50MzMxKDAmBgkqhkiG9w0BCQEWGWZyYW5jb0BnYXVz
cy5lY2Vjcy51Yy5lZHUwggEiMA0GCSqGSIb3DQEBAQUAA4IBDwAwggEKAoIBAQDm
5AbraBhzP2rZOw97T/VW7hZk8tFrtOL9gvW9DShKLoCSN6gbiDf/FEg8DrYyKQ4j
O5X13RclEF2RJONZcfz8/KCgarnncU/a+VxexObsfewB5+wqhcR73zzirkjtQ34K
v0+fLMsdJyxLPqUK16cwdogAiZKwSG8BhUigc9qWBRxmTY0Ao/V1kglq69sTXSd6
JtOYx8PVxv3UXM3VCQvhsouIZ5CQ89rzXGvp1qN1rKGeNzIvhwq70WbSJ95jaEcp
2vfrfhZf88jo1oI29KJFPH7WiUtQKMNV3TuMhNmV32zvu4pPYJiOzCRcXlEpZvGO
SqZfZRslApIaMZeRcxn7AgMBAAGjggE3MIIBMzAJBgNVHRMEAjAAMB0GA1UdDgQW
BBQpmbgwBBoU3dpEh2qbE5kwQB+jYTCB5AYDVR0jBIHcMIHZgBQa3JjyacH3yB0h
Q7A8eVBN2CuHVKGBtaSBsjCBrzELMAkGA1UEBhMCVVMxEzARBgNVBAgMCkNhbGlm
b3JuaWExFjAUBgNVBAcMDVNhbiBGcmFuY2lzY28xIDAeBgNVBAoMF0NvcHlsZWZ0
IENlcnRpZmljYXRlIENvMR8wHQYDVQQLDBZNeSBPcmdhbml6YXRpb25hbCBVbml0
MREwDwYDVQQDDAhDaGFuZ2VNZTEdMBsGCSqGSIb3DQEJARYObWVAZXhhbXBsZS5u
ZXSCCQCMm46IeqxtizATBgNVHSUEDDAKBggrBgEFBQcDAjALBgNVHQ8EBAMCB4Aw
DQYJKoZIhvcNAQELBQADggEBAHd8d58ne3EJ4gzZOPUoipBNAXQVVMaAClO+fueb
Hij1fmWL5wNLEHwSvEI4LqIJoCZw0CcZo3qVstj3LIcTcG5A5uetiKU0yRPz7yiH
Pb5V4PrtgH2tAenLsBkcAajzLEzF+xW/MgKCTtXO/gV3/CSQvaGLPso+Dpl+btCS
xljQXv7oSARqmkug+iSB3NGNu4QjvSq9tMOmtbnsggaK2eYzLoL1gIEJe86MtfUD
zLA98a5S/kvG0G5LYcYi03G0NGrvvEGHoeVh7XopCi49hCbwplkp618p9v6yyas+
PD8bL2vwu9nmsp0ylPK/c/Qcw+VoJsVScqkkLxNp2OcA7Ug=
-----END CERTIFICATE-----
