Certificate:
    Data:
        Version: 3 (0x2)
        Serial Number:
            ff:fe:9b:48:b5:56:83:eb:f4:c6:9b:c7:86:16:08:14
    Signature Algorithm: sha256WithRSAEncryption
        Issuer: C=US, ST=California, L=San Francisco, O=Copyleft Certificate Co, OU=My Organizational Unit, CN=ChangeMe/emailAddress=me@example.net
        Validity
            Not Before: Nov 10 17:25:04 2023 GMT
            Not After : Nov  9 17:25:04 2024 GMT
        Subject: C=US, ST=OH, L=Cincinnati, O=University of Cincinnati, OU=Dept_Elec_Com_ Eng_Com_Sci., CN=client10/emailAddress=franco@gauss.ececs.uc.edu
        Subject Public Key Info:
            Public Key Algorithm: rsaEncryption
                Public-Key: (2048 bit)
                Modulus:
                    00:b1:0b:d5:98:9c:e9:3b:91:3c:f4:61:8d:36:b1:
                    57:bc:83:ed:1c:6d:16:dd:30:ca:35:a0:eb:2c:85:
                    1a:43:5c:0a:19:aa:bb:d3:2b:05:9f:2f:d5:1c:fc:
                    c7:52:af:f9:27:38:75:05:c5:16:68:07:f5:cc:4f:
                    fa:79:e3:97:f0:6b:71:03:9e:36:44:f3:f4:4d:9f:
                    f8:10:60:3d:bd:37:a2:6d:a9:c4:a8:b4:23:bc:43:
                    cf:dd:73:7e:5e:ae:9d:80:c7:1d:4a:db:33:b4:02:
                    6d:f0:8a:13:b4:20:8f:c9:64:0b:4e:df:52:ec:4b:
                    dd:4f:f1:20:96:74:5a:20:cd:e0:c7:67:cc:b4:35:
                    fa:c4:e4:05:82:d0:f3:4d:d9:fc:74:8b:67:dd:03:
                    6b:20:7b:81:7d:4c:b5:b5:52:ce:d0:8a:86:41:3d:
                    8c:b8:be:71:eb:8e:93:24:c2:be:25:37:04:d5:11:
                    86:6e:b4:95:9b:98:c0:84:d5:99:cd:39:d6:03:08:
                    44:fe:00:d8:f9:b6:ff:4c:b0:5f:30:03:48:db:16:
                    c2:5f:3b:ca:19:ee:d4:da:5a:c2:bd:4e:22:d7:e3:
                    a8:92:97:4e:23:81:d1:14:05:9a:14:0f:4a:8c:fe:
                    78:41:ef:e7:43:34:a2:6a:6a:ce:ca:12:84:16:68:
                    fc:59
                Exponent: 65537 (0x10001)
        X509v3 extensions:
            X509v3 Basic Constraints: 
                CA:FALSE
            X509v3 Subject Key Identifier: 
                74:20:6E:D9:D6:C7:89:2B:B4:B4:43:2D:09:F1:1F:AD:D9:75:E7:FC
            X509v3 Authority Key Identifier: 
                keyid:D9:D4:8C:20:BC:EB:38:17:D5:4B:52:F8:AA:C5:D2:44:DD:A2:6A:3B
                DirName:/C=US/ST=California/L=San Francisco/O=Copyleft Certificate Co/OU=My Organizational Unit/CN=ChangeMe/emailAddress=me@example.net
                serial:C2:48:34:65:BF:AB:EB:AA

            X509v3 Extended Key Usage: 
                TLS Web Client Authentication
            X509v3 Key Usage: 
                Digital Signature
    Signature Algorithm: sha256WithRSAEncryption
         a8:d3:93:4b:62:0f:f4:49:de:1d:5b:72:04:be:6f:b3:b6:16:
         31:87:71:55:ed:a1:8d:fc:62:64:42:16:fe:40:c2:c6:a4:8f:
         72:48:c9:9e:3d:a8:e6:bd:95:72:9e:24:8d:f6:95:fc:ba:ac:
         2d:99:36:11:db:b0:d6:49:31:c0:e1:62:f6:7f:a3:ee:79:72:
         1e:78:17:62:08:e6:2f:79:3f:a5:89:02:38:18:13:b6:e1:81:
         d9:38:ac:4f:d1:be:7f:8f:23:17:73:26:16:63:f2:01:fa:c7:
         8c:2c:4e:80:c2:06:73:e4:f8:f4:36:e8:ae:99:31:82:19:66:
         bd:ea:f9:70:f1:9a:0c:69:41:d2:b7:76:8c:5b:17:e0:5c:63:
         21:47:94:c8:15:7c:6a:7f:0d:4f:3f:33:88:fb:b4:e4:b6:3c:
         02:a8:9a:34:5c:3c:99:7c:68:b9:5a:92:2c:81:45:a1:87:15:
         e1:dd:56:44:c6:93:25:4c:5f:b0:ec:8b:ff:e1:f1:64:66:82:
         0f:36:02:38:94:9b:16:98:2e:38:e1:bf:e3:0f:a1:b4:59:23:
         7c:e0:e4:c2:a6:a5:32:99:7b:e0:ce:c9:75:5b:61:d2:14:a2:
         41:7b:f2:33:60:d7:cd:eb:87:b5:3a:d7:0c:66:e4:e8:29:ee:
         87:5d:20:99
-----BEGIN CERTIFICATE-----
MIIFKjCCBBKgAwIBAgIRAP/+m0i1VoPr9Mabx4YWCBQwDQYJKoZIhvcNAQELBQAw
ga8xCzAJBgNVBAYTAlVTMRMwEQYDVQQIDApDYWxpZm9ybmlhMRYwFAYDVQQHDA1T
YW4gRnJhbmNpc2NvMSAwHgYDVQQKDBdDb3B5bGVmdCBDZXJ0aWZpY2F0ZSBDbzEf
MB0GA1UECwwWTXkgT3JnYW5pemF0aW9uYWwgVW5pdDERMA8GA1UEAwwIQ2hhbmdl
TWUxHTAbBgkqhkiG9w0BCQEWDm1lQGV4YW1wbGUubmV0MB4XDTIzMTExMDE3MjUw
NFoXDTI0MTEwOTE3MjUwNFowgbUxCzAJBgNVBAYTAlVTMQswCQYDVQQIDAJPSDET
MBEGA1UEBwwKQ2luY2lubmF0aTEhMB8GA1UECgwYVW5pdmVyc2l0eSBvZiBDaW5j
aW5uYXRpMSQwIgYDVQQLDBtEZXB0X0VsZWNfQ29tXyBFbmdfQ29tX1NjaS4xETAP
BgNVBAMMCGNsaWVudDEwMSgwJgYJKoZIhvcNAQkBFhlmcmFuY29AZ2F1c3MuZWNl
Y3MudWMuZWR1MIIBIjANBgkqhkiG9w0BAQEFAAOCAQ8AMIIBCgKCAQEAsQvVmJzp
O5E89GGNNrFXvIPtHG0W3TDKNaDrLIUaQ1wKGaq70ysFny/VHPzHUq/5Jzh1BcUW
aAf1zE/6eeOX8GtxA542RPP0TZ/4EGA9vTeibanEqLQjvEPP3XN+Xq6dgMcdStsz
tAJt8IoTtCCPyWQLTt9S7EvdT/EglnRaIM3gx2fMtDX6xOQFgtDzTdn8dItn3QNr
IHuBfUy1tVLO0IqGQT2MuL5x646TJMK+JTcE1RGGbrSVm5jAhNWZzTnWAwhE/gDY
+bb/TLBfMANI2xbCXzvKGe7U2lrCvU4i1+OokpdOI4HRFAWaFA9KjP54Qe/nQzSi
amrOyhKEFmj8WQIDAQABo4IBNzCCATMwCQYDVR0TBAIwADAdBgNVHQ4EFgQUdCBu
2dbHiSu0tEMtCfEfrdl15/wwgeQGA1UdIwSB3DCB2YAU2dSMILzrOBfVS1L4qsXS
RN2iajuhgbWkgbIwga8xCzAJBgNVBAYTAlVTMRMwEQYDVQQIDApDYWxpZm9ybmlh
MRYwFAYDVQQHDA1TYW4gRnJhbmNpc2NvMSAwHgYDVQQKDBdDb3B5bGVmdCBDZXJ0
aWZpY2F0ZSBDbzEfMB0GA1UECwwWTXkgT3JnYW5pemF0aW9uYWwgVW5pdDERMA8G
A1UEAwwIQ2hhbmdlTWUxHTAbBgkqhkiG9w0BCQEWDm1lQGV4YW1wbGUubmV0ggkA
wkg0Zb+r66owEwYDVR0lBAwwCgYIKwYBBQUHAwIwCwYDVR0PBAQDAgeAMA0GCSqG
SIb3DQEBCwUAA4IBAQCo05NLYg/0Sd4dW3IEvm+zthYxh3FV7aGN/GJkQhb+QMLG
pI9ySMmePajmvZVyniSN9pX8uqwtmTYR27DWSTHA4WL2f6PueXIeeBdiCOYveT+l
iQI4GBO24YHZOKxP0b5/jyMXcyYWY/IB+seMLE6AwgZz5Pj0NuiumTGCGWa96vlw
8ZoMaUHSt3aMWxfgXGMhR5TIFXxqfw1PPzOI+7TktjwCqJo0XDyZfGi5WpIsgUWh
hxXh3VZExpMlTF+w7Iv/4fFkZoIPNgI4lJsWmC444b/jD6G0WSN84OTCpqUymXvg
zsl1W2HSFKJBe/IzYNfN64e1OtcMZuToKe6HXSCZ
-----END CERTIFICATE-----
