Certificate:
    Data:
        Version: 3 (0x2)
        Serial Number:
            49:9a:c5:59:5d:63:16:ae:00:60:e2:19:25:03:72:1b
    Signature Algorithm: sha256WithRSAEncryption
        Issuer: C=US, ST=California, L=San Francisco, O=Copyleft Certificate Co, OU=My Organizational Unit, CN=ChangeMe/emailAddress=me@example.net
        Validity
            Not Before: Nov 10 17:26:48 2023 GMT
            Not After : Nov  9 17:26:48 2024 GMT
        Subject: C=US, ST=OH, L=Cincinnati, O=University of Cincinnati, OU=Dept_Elec_Com_ Eng_Com_Sci., CN=client36/emailAddress=franco@gauss.ececs.uc.edu
        Subject Public Key Info:
            Public Key Algorithm: rsaEncryption
                Public-Key: (2048 bit)
                Modulus:
                    00:a9:c0:23:cb:ba:1d:4f:42:32:a2:49:63:f3:b8:
                    64:8c:05:04:82:3b:92:b1:ea:55:c8:c0:15:e6:9b:
                    90:0c:cf:fa:7e:91:90:21:e5:eb:ef:15:47:2a:37:
                    6a:ac:2e:d9:e6:85:d6:89:da:19:71:c9:d8:4c:a5:
                    f3:c4:1b:ea:94:4d:04:4c:66:2a:a9:d7:a3:6a:ab:
                    ae:37:ea:7f:21:e5:03:b8:47:92:8c:c3:78:48:a3:
                    30:54:5f:bb:ed:2d:9d:a7:0f:d3:81:34:26:b1:0b:
                    f4:7f:02:56:6b:8d:2b:21:4f:81:47:e1:c7:da:8f:
                    f1:70:e4:5a:6a:b8:d8:15:2e:d4:3a:4c:6b:37:22:
                    25:69:1b:a5:bb:64:6f:93:a4:28:c6:a1:d5:8e:c5:
                    36:ad:48:17:14:f3:8e:1b:5c:0b:7b:a7:93:0d:54:
                    5a:8c:07:31:a6:b3:8d:f8:03:cc:dd:73:97:aa:63:
                    4f:33:93:a0:c4:6f:9c:2a:f5:14:04:b5:f1:84:65:
                    e3:17:e7:9f:db:e3:9c:3a:fa:60:95:09:ba:62:38:
                    39:84:94:8e:30:5e:39:75:b6:cf:89:23:f4:78:31:
                    b5:9f:de:43:5b:24:e2:1e:0d:72:17:29:eb:f7:6c:
                    7a:73:63:4e:e0:14:64:d4:b1:96:f5:de:6d:31:27:
                    f8:45
                Exponent: 65537 (0x10001)
        X509v3 extensions:
            X509v3 Basic Constraints: 
                CA:FALSE
            X509v3 Subject Key Identifier: 
                A7:4F:CA:3D:79:C3:1F:F4:4C:6F:A5:8E:BD:A7:AC:1A:80:41:35:AC
            X509v3 Authority Key Identifier: 
                keyid:D9:D4:8C:20:BC:EB:38:17:D5:4B:52:F8:AA:C5:D2:44:DD:A2:6A:3B
                DirName:/C=US/ST=California/L=San Francisco/O=Copyleft Certificate Co/OU=My Organizational Unit/CN=ChangeMe/emailAddress=me@example.net
                serial:C2:48:34:65:BF:AB:EB:AA

            X509v3 Extended Key Usage: 
                TLS Web Client Authentication
            X509v3 Key Usage: 
                Digital Signature
    Signature Algorithm: sha256WithRSAEncryption
         67:48:c5:3e:d2:8c:0f:b7:3e:56:d3:e1:4e:d9:7a:07:55:b8:
         94:20:7d:2a:9d:f2:b9:e7:40:94:27:12:ab:c2:88:7e:12:53:
         fe:ae:1c:db:39:52:6e:36:61:ca:e3:ae:6f:db:14:29:88:02:
         f5:0c:28:4c:7a:27:4f:4b:17:43:fa:bd:0f:33:7f:1a:a5:b6:
         fe:4e:9f:60:42:3c:be:a2:fa:d4:33:8d:6c:f0:a0:7a:f5:99:
         ad:06:2c:5e:24:de:11:aa:97:f2:e9:e1:4d:9c:7f:e1:2b:39:
         78:3c:e1:80:9d:e6:07:84:fc:01:6b:e0:7c:c7:8a:65:e0:a9:
         e0:b5:76:da:ca:e8:8e:25:ac:55:fe:9e:82:68:90:95:ac:b8:
         25:e4:0a:55:f1:a8:21:cc:54:03:15:4a:11:fd:b0:73:f6:34:
         5c:34:b2:5d:61:5f:92:6e:52:03:0c:e3:ff:70:c9:64:95:87:
         d5:a2:54:81:f5:50:54:52:d7:93:ec:c0:dd:0f:7f:cf:d9:c6:
         f1:f7:fc:35:42:f6:b0:e8:20:ce:7a:28:11:1d:c5:2b:cb:5d:
         af:34:1a:5d:1e:96:49:36:9f:51:12:34:3d:10:4c:c6:51:81:
         25:5a:22:b1:43:10:d1:b7:03:44:42:65:47:be:c4:88:0d:0f:
         d1:d9:f9:ed
-----BEGIN CERTIFICATE-----
MIIFKTCCBBGgAwIBAgIQSZrFWV1jFq4AYOIZJQNyGzANBgkqhkiG9w0BAQsFADCB
rzELMAkGA1UEBhMCVVMxEzARBgNVBAgMCkNhbGlmb3JuaWExFjAUBgNVBAcMDVNh
biBGcmFuY2lzY28xIDAeBgNVBAoMF0NvcHlsZWZ0IENlcnRpZmljYXRlIENvMR8w
HQYDVQQLDBZNeSBPcmdhbml6YXRpb25hbCBVbml0MREwDwYDVQQDDAhDaGFuZ2VN
ZTEdMBsGCSqGSIb3DQEJARYObWVAZXhhbXBsZS5uZXQwHhcNMjMxMTEwMTcyNjQ4
WhcNMjQxMTA5MTcyNjQ4WjCBtTELMAkGA1UEBhMCVVMxCzAJBgNVBAgMAk9IMRMw
EQYDVQQHDApDaW5jaW5uYXRpMSEwHwYDVQQKDBhVbml2ZXJzaXR5IG9mIENpbmNp
bm5hdGkxJDAiBgNVBAsMG0RlcHRfRWxlY19Db21fIEVuZ19Db21fU2NpLjERMA8G
A1UEAwwIY2xpZW50MzYxKDAmBgkqhkiG9w0BCQEWGWZyYW5jb0BnYXVzcy5lY2Vj
cy51Yy5lZHUwggEiMA0GCSqGSIb3DQEBAQUAA4IBDwAwggEKAoIBAQCpwCPLuh1P
QjKiSWPzuGSMBQSCO5Kx6lXIwBXmm5AMz/p+kZAh5evvFUcqN2qsLtnmhdaJ2hlx
ydhMpfPEG+qUTQRMZiqp16Nqq6436n8h5QO4R5KMw3hIozBUX7vtLZ2nD9OBNCax
C/R/AlZrjSshT4FH4cfaj/Fw5FpquNgVLtQ6TGs3IiVpG6W7ZG+TpCjGodWOxTat
SBcU844bXAt7p5MNVFqMBzGms434A8zdc5eqY08zk6DEb5wq9RQEtfGEZeMX55/b
45w6+mCVCbpiODmElI4wXjl1ts+JI/R4MbWf3kNbJOIeDXIXKev3bHpzY07gFGTU
sZb13m0xJ/hFAgMBAAGjggE3MIIBMzAJBgNVHRMEAjAAMB0GA1UdDgQWBBSnT8o9
ecMf9ExvpY69p6wagEE1rDCB5AYDVR0jBIHcMIHZgBTZ1IwgvOs4F9VLUviqxdJE
3aJqO6GBtaSBsjCBrzELMAkGA1UEBhMCVVMxEzARBgNVBAgMCkNhbGlmb3JuaWEx
FjAUBgNVBAcMDVNhbiBGcmFuY2lzY28xIDAeBgNVBAoMF0NvcHlsZWZ0IENlcnRp
ZmljYXRlIENvMR8wHQYDVQQLDBZNeSBPcmdhbml6YXRpb25hbCBVbml0MREwDwYD
VQQDDAhDaGFuZ2VNZTEdMBsGCSqGSIb3DQEJARYObWVAZXhhbXBsZS5uZXSCCQDC
SDRlv6vrqjATBgNVHSUEDDAKBggrBgEFBQcDAjALBgNVHQ8EBAMCB4AwDQYJKoZI
hvcNAQELBQADggEBAGdIxT7SjA+3PlbT4U7ZegdVuJQgfSqd8rnnQJQnEqvCiH4S
U/6uHNs5Um42Ycrjrm/bFCmIAvUMKEx6J09LF0P6vQ8zfxqltv5On2BCPL6i+tQz
jWzwoHr1ma0GLF4k3hGql/Lp4U2cf+ErOXg84YCd5geE/AFr4HzHimXgqeC1dtrK
6I4lrFX+noJokJWsuCXkClXxqCHMVAMVShH9sHP2NFw0sl1hX5JuUgMM4/9wyWSV
h9WiVIH1UFRS15PswN0Pf8/ZxvH3/DVC9rDoIM56KBEdxSvLXa80Gl0elkk2n1ES
ND0QTMZRgSVaIrFDENG3A0RCZUe+xIgND9HZ+e0=
-----END CERTIFICATE-----
