Certificate:
    Data:
        Version: 3 (0x2)
        Serial Number:
            64:4b:e9:73:fe:7c:27:c2:42:fc:ea:f6:04:e6:51:10
    Signature Algorithm: sha256WithRSAEncryption
        Issuer: C=US, ST=California, L=San Francisco, O=Copyleft Certificate Co, OU=My Organizational Unit, CN=ChangeMe/emailAddress=me@example.net
        Validity
            Not Before: Jan 23 18:29:09 2021 GMT
            Not After : Jan 23 18:29:09 2022 GMT
        Subject: C=US, ST=OH, L=Cincinnati, O=University of Cincinnati, OU=Dept. Electrical Eng. and Computer Sci., CN=client81/emailAddress=franco@gauss.ececs.uc.edu
        Subject Public Key Info:
            Public Key Algorithm: rsaEncryption
                Public-Key: (2048 bit)
                Modulus:
                    00:c9:bc:a1:81:a6:fb:03:6c:b0:a9:f5:23:79:29:
                    ab:ad:0e:53:a3:ca:dd:e8:ed:9f:99:08:9b:fe:72:
                    8f:42:6b:30:11:4c:42:9c:f5:7d:26:0a:cc:b0:97:
                    92:d3:e4:4e:21:b9:86:92:05:74:33:d5:1e:ac:80:
                    43:a4:95:c0:32:65:2a:12:15:9f:50:ef:d9:36:cb:
                    19:e6:3d:ed:b5:3a:15:72:92:11:aa:c7:f9:30:e3:
                    eb:84:5e:ee:44:9a:9a:84:dd:37:c0:49:c8:05:9c:
                    fe:60:59:11:8d:d9:13:20:f0:90:ee:71:1d:5d:af:
                    f6:a4:94:12:5c:33:bb:01:ab:6d:9f:e6:d8:6a:83:
                    9f:be:4d:2c:75:ac:3f:61:89:e2:9a:10:36:e7:31:
                    96:66:1a:4a:90:b3:59:3c:fe:a0:b9:f0:c0:83:bd:
                    3d:af:d6:13:82:30:db:24:4c:ff:26:b2:3a:59:b9:
                    33:25:6e:d9:5d:47:e7:ce:a0:fe:c0:07:78:48:5b:
                    f6:77:7d:61:9e:76:ea:0a:75:9a:6d:11:2d:14:c4:
                    80:23:22:04:7f:c8:c9:b7:75:a3:e6:f5:71:03:5d:
                    57:06:e3:b2:eb:a5:d2:07:4c:08:76:47:92:ab:ff:
                    3d:de:9c:70:71:33:20:ce:ae:ca:b7:55:0b:4d:a7:
                    d7:8f
                Exponent: 65537 (0x10001)
        X509v3 extensions:
            X509v3 Basic Constraints: 
                CA:FALSE
            X509v3 Subject Key Identifier: 
                89:9C:EC:74:8B:33:10:D3:C9:DE:B3:A5:7E:48:95:63:91:44:E4:39
            X509v3 Authority Key Identifier: 
                keyid:EF:DC:B6:3D:4B:FD:A7:87:05:C5:22:3D:8B:DC:BF:99:2A:EE:E4:DB
                DirName:/C=US/ST=California/L=San Francisco/O=Copyleft Certificate Co/OU=My Organizational Unit/CN=ChangeMe/emailAddress=me@example.net
                serial:87:1E:1D:DC:6B:8C:66:88

            X509v3 Extended Key Usage: 
                TLS Web Client Authentication
            X509v3 Key Usage: 
                Digital Signature
    Signature Algorithm: sha256WithRSAEncryption
         44:82:97:79:f6:c0:32:3e:64:71:02:ae:e1:b9:73:77:76:6f:
         bb:a7:ac:9b:8b:eb:e5:5e:59:83:db:b7:0d:29:45:85:da:0c:
         f6:b9:54:b1:b9:da:21:90:3c:42:2c:3e:b7:d9:f4:ce:60:34:
         ec:e4:cd:18:37:ae:1f:e7:6f:a2:60:29:36:7f:b4:38:12:78:
         49:08:92:98:91:3c:01:e0:05:29:da:40:66:ae:ef:97:b9:19:
         f2:95:74:db:47:22:79:b3:9b:cd:7d:fc:99:50:9e:01:75:35:
         2b:fa:81:43:28:18:e5:f9:84:7a:64:35:37:f3:05:32:55:4f:
         67:6e:6b:13:60:b9:d9:18:29:37:80:32:bd:77:e5:53:07:d5:
         0d:fa:b2:c7:90:67:a5:72:10:7b:cc:eb:88:45:fc:7d:df:d8:
         6a:33:dd:6a:42:7b:36:33:f8:9b:e8:a2:18:d7:2f:85:aa:2a:
         48:ee:15:ec:06:97:00:6a:fe:90:5f:e8:24:03:9a:4f:a4:23:
         59:b4:cf:b4:ae:8c:71:eb:5d:ea:47:64:12:3b:45:ae:d3:cd:
         f6:dd:d8:ea:5c:10:ce:2c:7c:22:06:de:ec:e4:4e:ff:4a:e4:
         74:9d:d8:c5:36:82:96:d4:01:e4:39:42:40:b2:1c:a7:34:9e:
         b6:4e:1b:ad
-----BEGIN CERTIFICATE-----
MIIFNTCCBB2gAwIBAgIQZEvpc/58J8JC/Or2BOZREDANBgkqhkiG9w0BAQsFADCB
rzELMAkGA1UEBhMCVVMxEzARBgNVBAgMCkNhbGlmb3JuaWExFjAUBgNVBAcMDVNh
biBGcmFuY2lzY28xIDAeBgNVBAoMF0NvcHlsZWZ0IENlcnRpZmljYXRlIENvMR8w
HQYDVQQLDBZNeSBPcmdhbml6YXRpb25hbCBVbml0MREwDwYDVQQDDAhDaGFuZ2VN
ZTEdMBsGCSqGSIb3DQEJARYObWVAZXhhbXBsZS5uZXQwHhcNMjEwMTIzMTgyOTA5
WhcNMjIwMTIzMTgyOTA5WjCBwTELMAkGA1UEBhMCVVMxCzAJBgNVBAgMAk9IMRMw
EQYDVQQHDApDaW5jaW5uYXRpMSEwHwYDVQQKDBhVbml2ZXJzaXR5IG9mIENpbmNp
bm5hdGkxMDAuBgNVBAsMJ0RlcHQuIEVsZWN0cmljYWwgRW5nLiBhbmQgQ29tcHV0
ZXIgU2NpLjERMA8GA1UEAwwIY2xpZW50ODExKDAmBgkqhkiG9w0BCQEWGWZyYW5j
b0BnYXVzcy5lY2Vjcy51Yy5lZHUwggEiMA0GCSqGSIb3DQEBAQUAA4IBDwAwggEK
AoIBAQDJvKGBpvsDbLCp9SN5KautDlOjyt3o7Z+ZCJv+co9CazARTEKc9X0mCsyw
l5LT5E4huYaSBXQz1R6sgEOklcAyZSoSFZ9Q79k2yxnmPe21OhVykhGqx/kw4+uE
Xu5EmpqE3TfAScgFnP5gWRGN2RMg8JDucR1dr/aklBJcM7sBq22f5thqg5++TSx1
rD9hieKaEDbnMZZmGkqQs1k8/qC58MCDvT2v1hOCMNskTP8msjpZuTMlbtldR+fO
oP7AB3hIW/Z3fWGeduoKdZptES0UxIAjIgR/yMm3daPm9XEDXVcG47LrpdIHTAh2
R5Kr/z3enHBxMyDOrsq3VQtNp9ePAgMBAAGjggE3MIIBMzAJBgNVHRMEAjAAMB0G
A1UdDgQWBBSJnOx0izMQ08nes6V+SJVjkUTkOTCB5AYDVR0jBIHcMIHZgBTv3LY9
S/2nhwXFIj2L3L+ZKu7k26GBtaSBsjCBrzELMAkGA1UEBhMCVVMxEzARBgNVBAgM
CkNhbGlmb3JuaWExFjAUBgNVBAcMDVNhbiBGcmFuY2lzY28xIDAeBgNVBAoMF0Nv
cHlsZWZ0IENlcnRpZmljYXRlIENvMR8wHQYDVQQLDBZNeSBPcmdhbml6YXRpb25h
bCBVbml0MREwDwYDVQQDDAhDaGFuZ2VNZTEdMBsGCSqGSIb3DQEJARYObWVAZXhh
bXBsZS5uZXSCCQCHHh3ca4xmiDATBgNVHSUEDDAKBggrBgEFBQcDAjALBgNVHQ8E
BAMCB4AwDQYJKoZIhvcNAQELBQADggEBAESCl3n2wDI+ZHECruG5c3d2b7unrJuL
6+VeWYPbtw0pRYXaDPa5VLG52iGQPEIsPrfZ9M5gNOzkzRg3rh/nb6JgKTZ/tDgS
eEkIkpiRPAHgBSnaQGau75e5GfKVdNtHInmzm819/JlQngF1NSv6gUMoGOX5hHpk
NTfzBTJVT2duaxNgudkYKTeAMr135VMH1Q36sseQZ6VyEHvM64hF/H3f2Goz3WpC
ezYz+JvoohjXL4WqKkjuFewGlwBq/pBf6CQDmk+kI1m0z7SujHHrXepHZBI7Ra7T
zfbd2OpcEM4sfCIG3uzkTv9K5HSd2MU2gpbUAeQ5QkCyHKc0nrZOG60=
-----END CERTIFICATE-----
