Certificate:
    Data:
        Version: 3 (0x2)
        Serial Number:
            e2:ba:89:4d:9a:79:24:7b:a5:e5:f9:6c:97:5e:2c:2f
    Signature Algorithm: sha256WithRSAEncryption
        Issuer: C=US, ST=California, L=San Francisco, O=Copyleft Certificate Co, OU=My Organizational Unit, CN=ChangeMe/emailAddress=me@example.net
        Validity
            Not Before: Nov 13 11:10:04 2023 GMT
            Not After : Nov 12 11:10:04 2024 GMT
        Subject: C=US, ST=OH, L=Cincinnati, O=University of Cincinnati, OU=Dept. Elec. Comp. Eng. Comp. Sci., CN=client0/emailAddress=franco@gauss.ececs.uc.edu
        Subject Public Key Info:
            Public Key Algorithm: rsaEncryption
                Public-Key: (2048 bit)
                Modulus:
                    00:c1:94:19:25:31:83:88:37:bf:7f:b2:e5:16:56:
                    a7:20:e4:ae:b9:dc:03:e0:99:ec:67:2b:e4:ec:e6:
                    ff:02:d2:f8:9a:98:8c:e4:b3:09:74:00:70:e1:02:
                    8c:6b:6d:b7:9c:71:0b:3c:43:43:52:de:aa:8f:ab:
                    0e:c1:aa:a0:39:e1:3a:60:fe:af:10:19:03:92:36:
                    e4:45:e5:1c:11:65:e5:43:3f:23:11:e4:ff:0a:82:
                    c0:0f:49:38:05:aa:e0:32:71:76:71:74:d1:cc:9e:
                    c2:28:be:08:1f:45:1e:70:14:94:34:04:81:7a:e0:
                    70:a1:c3:64:8b:1c:3a:08:1e:47:8a:a1:6d:d5:79:
                    d2:26:23:90:a7:66:06:1c:dc:ba:27:84:9b:7a:c8:
                    9c:55:c4:e0:b4:db:ef:af:0f:49:8d:f1:74:04:b0:
                    60:cc:c3:26:c0:54:41:33:86:67:f3:b2:83:16:fc:
                    b8:01:8a:c9:a8:a2:eb:6c:c5:fd:bd:04:69:af:a0:
                    db:e0:13:f1:6e:0e:28:64:c7:fa:1b:a3:a0:e9:c4:
                    8c:25:a8:e7:b1:cb:7f:0c:cb:c2:0c:fb:5f:90:1c:
                    61:cc:f1:03:34:5c:d1:aa:d0:22:96:f6:c8:20:2d:
                    97:ad:93:8d:2c:11:4b:cb:ad:e3:c2:2c:3a:30:bb:
                    f8:67
                Exponent: 65537 (0x10001)
        X509v3 extensions:
            X509v3 Basic Constraints: 
                CA:FALSE
            X509v3 Subject Key Identifier: 
                8F:C8:57:C5:46:C9:CA:37:6D:5E:C4:E6:74:88:2C:10:36:42:94:FD
            X509v3 Authority Key Identifier: 
                keyid:1A:DC:98:F2:69:C1:F7:C8:1D:21:43:B0:3C:79:50:4D:D8:2B:87:54
                DirName:/C=US/ST=California/L=San Francisco/O=Copyleft Certificate Co/OU=My Organizational Unit/CN=ChangeMe/emailAddress=me@example.net
                serial:8C:9B:8E:88:7A:AC:6D:8B

            X509v3 Extended Key Usage: 
                TLS Web Client Authentication
            X509v3 Key Usage: 
                Digital Signature
    Signature Algorithm: sha256WithRSAEncryption
         5b:55:49:2b:dd:60:af:f8:e5:0b:24:d9:42:12:1b:39:b7:90:
         2a:6b:78:b9:32:9f:de:34:d8:60:d5:be:53:a0:81:26:2b:17:
         b2:f4:6f:20:26:8e:92:a5:79:12:cb:d6:bd:ce:62:53:f2:f9:
         a4:fd:37:c0:50:7f:df:d1:b3:6a:18:24:63:c4:e5:97:69:81:
         bf:e2:d9:98:68:e7:71:6d:0c:54:cc:6b:ee:08:31:de:97:65:
         95:d2:21:84:aa:78:6a:32:5a:ca:ed:5b:73:13:db:32:77:8b:
         cf:eb:19:47:ae:8f:7f:6f:1d:a6:45:a0:fa:f2:d1:4c:3f:af:
         a6:74:06:b5:64:32:0e:06:48:43:3d:fe:1c:20:52:61:68:82:
         78:6d:c2:99:8a:54:97:10:f8:41:ec:20:c2:82:49:b3:7c:52:
         5f:7a:80:c2:2c:93:a3:45:14:f7:83:d7:ee:52:f4:36:4b:b5:
         68:fb:02:32:8b:29:e4:36:c2:81:54:aa:08:0e:e9:39:1c:58:
         7c:6e:83:0c:35:f6:05:e3:cf:e0:5a:fb:79:de:9f:61:e5:94:
         eb:c9:a0:86:ec:1f:04:06:7e:2f:a5:35:e9:24:a9:4d:c0:9d:
         b2:5a:ec:38:aa:8a:23:8a:79:42:33:27:5f:08:cb:03:f2:ae:
         7b:f3:5a:80
-----BEGIN CERTIFICATE-----
MIIFLzCCBBegAwIBAgIRAOK6iU2aeSR7peX5bJdeLC8wDQYJKoZIhvcNAQELBQAw
ga8xCzAJBgNVBAYTAlVTMRMwEQYDVQQIDApDYWxpZm9ybmlhMRYwFAYDVQQHDA1T
YW4gRnJhbmNpc2NvMSAwHgYDVQQKDBdDb3B5bGVmdCBDZXJ0aWZpY2F0ZSBDbzEf
MB0GA1UECwwWTXkgT3JnYW5pemF0aW9uYWwgVW5pdDERMA8GA1UEAwwIQ2hhbmdl
TWUxHTAbBgkqhkiG9w0BCQEWDm1lQGV4YW1wbGUubmV0MB4XDTIzMTExMzExMTAw
NFoXDTI0MTExMjExMTAwNFowgboxCzAJBgNVBAYTAlVTMQswCQYDVQQIDAJPSDET
MBEGA1UEBwwKQ2luY2lubmF0aTEhMB8GA1UECgwYVW5pdmVyc2l0eSBvZiBDaW5j
aW5uYXRpMSowKAYDVQQLDCFEZXB0LiBFbGVjLiBDb21wLiBFbmcuIENvbXAuIFNj
aS4xEDAOBgNVBAMMB2NsaWVudDAxKDAmBgkqhkiG9w0BCQEWGWZyYW5jb0BnYXVz
cy5lY2Vjcy51Yy5lZHUwggEiMA0GCSqGSIb3DQEBAQUAA4IBDwAwggEKAoIBAQDB
lBklMYOIN79/suUWVqcg5K653APgmexnK+Ts5v8C0viamIzkswl0AHDhAoxrbbec
cQs8Q0NS3qqPqw7BqqA54Tpg/q8QGQOSNuRF5RwRZeVDPyMR5P8KgsAPSTgFquAy
cXZxdNHMnsIovggfRR5wFJQ0BIF64HChw2SLHDoIHkeKoW3VedImI5CnZgYc3Lon
hJt6yJxVxOC02++vD0mN8XQEsGDMwybAVEEzhmfzsoMW/LgBismooutsxf29BGmv
oNvgE/FuDihkx/obo6DpxIwlqOexy38My8IM+1+QHGHM8QM0XNGq0CKW9sggLZet
k40sEUvLrePCLDowu/hnAgMBAAGjggE3MIIBMzAJBgNVHRMEAjAAMB0GA1UdDgQW
BBSPyFfFRsnKN21exOZ0iCwQNkKU/TCB5AYDVR0jBIHcMIHZgBQa3JjyacH3yB0h
Q7A8eVBN2CuHVKGBtaSBsjCBrzELMAkGA1UEBhMCVVMxEzARBgNVBAgMCkNhbGlm
b3JuaWExFjAUBgNVBAcMDVNhbiBGcmFuY2lzY28xIDAeBgNVBAoMF0NvcHlsZWZ0
IENlcnRpZmljYXRlIENvMR8wHQYDVQQLDBZNeSBPcmdhbml6YXRpb25hbCBVbml0
MREwDwYDVQQDDAhDaGFuZ2VNZTEdMBsGCSqGSIb3DQEJARYObWVAZXhhbXBsZS5u
ZXSCCQCMm46IeqxtizATBgNVHSUEDDAKBggrBgEFBQcDAjALBgNVHQ8EBAMCB4Aw
DQYJKoZIhvcNAQELBQADggEBAFtVSSvdYK/45Qsk2UISGzm3kCpreLkyn9402GDV
vlOggSYrF7L0byAmjpKleRLL1r3OYlPy+aT9N8BQf9/Rs2oYJGPE5Zdpgb/i2Zho
53FtDFTMa+4IMd6XZZXSIYSqeGoyWsrtW3MT2zJ3i8/rGUeuj39vHaZFoPry0Uw/
r6Z0BrVkMg4GSEM9/hwgUmFognhtwpmKVJcQ+EHsIMKCSbN8Ul96gMIsk6NFFPeD
1+5S9DZLtWj7AjKLKeQ2woFUqggO6TkcWHxugww19gXjz+Ba+3nen2HllOvJoIbs
HwQGfi+lNekkqU3AnbJa7DiqiiOKeUIzJ18IywPyrnvzWoA=
-----END CERTIFICATE-----
