Certificate:
    Data:
        Version: 3 (0x2)
        Serial Number:
            16:02:0a:19:1e:12:2d:9b:39:08:5d:f1:ff:c2:ac:7f
    Signature Algorithm: sha256WithRSAEncryption
        Issuer: C=US, ST=California, L=San Francisco, O=Copyleft Certificate Co, OU=My Organizational Unit, CN=ChangeMe/emailAddress=me@example.net
        Validity
            Not Before: Jan 23 18:29:17 2021 GMT
            Not After : Jan 23 18:29:17 2022 GMT
        Subject: C=US, ST=OH, L=Cincinnati, O=University of Cincinnati, OU=Dept. Electrical Eng. and Computer Sci., CN=client87/emailAddress=franco@gauss.ececs.uc.edu
        Subject Public Key Info:
            Public Key Algorithm: rsaEncryption
                Public-Key: (2048 bit)
                Modulus:
                    00:d5:fd:9b:bc:1d:c8:05:7e:47:3d:93:5a:e7:13:
                    b1:34:a2:de:31:45:2b:d6:8f:e3:41:c0:cd:59:50:
                    e3:79:5d:21:9c:d3:b2:d2:99:a1:f5:91:27:c7:36:
                    b0:7a:7f:89:69:43:bf:1f:89:a0:48:42:19:60:51:
                    fd:09:6e:35:0f:48:81:48:8a:e6:2f:65:a6:a1:b3:
                    cc:bb:ec:ce:7a:c5:f9:15:05:ce:17:7d:24:d7:51:
                    40:14:14:fc:d0:0f:9f:7c:8b:1b:a4:88:65:c1:1b:
                    73:71:e3:a3:a0:bc:90:5a:11:2d:21:e2:31:8a:6f:
                    04:dd:8b:db:3c:83:1c:d5:02:51:48:14:95:45:bc:
                    a8:ec:ec:68:14:66:a9:c2:8b:6e:cb:ea:16:58:be:
                    f0:6f:cf:45:93:c9:89:9d:87:17:a8:f3:bb:f9:56:
                    a9:27:b8:b6:53:98:28:bf:88:2d:3d:36:9f:d7:52:
                    e7:61:86:a4:92:58:f8:b1:6d:0f:55:d8:89:3b:25:
                    f5:4f:ac:5c:d4:b1:12:04:d8:63:c7:2d:c6:40:ff:
                    aa:73:e1:ea:6f:05:1d:92:88:18:f1:e9:6e:c0:2c:
                    94:4f:62:e5:03:77:4e:28:a5:53:68:f7:16:15:25:
                    bd:b7:4f:3d:e2:8c:0e:e1:e6:60:5f:57:73:37:a2:
                    68:e3
                Exponent: 65537 (0x10001)
        X509v3 extensions:
            X509v3 Basic Constraints: 
                CA:FALSE
            X509v3 Subject Key Identifier: 
                0C:A6:07:DA:64:7A:1A:80:68:41:35:05:6D:FA:BF:75:D3:5E:D2:E3
            X509v3 Authority Key Identifier: 
                keyid:EF:DC:B6:3D:4B:FD:A7:87:05:C5:22:3D:8B:DC:BF:99:2A:EE:E4:DB
                DirName:/C=US/ST=California/L=San Francisco/O=Copyleft Certificate Co/OU=My Organizational Unit/CN=ChangeMe/emailAddress=me@example.net
                serial:87:1E:1D:DC:6B:8C:66:88

            X509v3 Extended Key Usage: 
                TLS Web Client Authentication
            X509v3 Key Usage: 
                Digital Signature
    Signature Algorithm: sha256WithRSAEncryption
         8b:8d:9e:7f:bd:46:5e:b1:8b:28:ef:9e:ef:7c:d8:3e:bd:03:
         ad:1b:1e:10:b4:23:27:ff:89:cc:6a:20:60:76:ff:6f:20:eb:
         2d:3c:1e:64:d3:d4:09:f3:e6:9f:d8:2e:f9:a7:78:cb:ae:07:
         7c:33:3f:79:7f:5a:3b:db:74:a5:79:fe:a8:0c:c1:24:48:88:
         e3:6d:d0:d3:fd:68:c2:0f:db:d9:5d:0f:6f:db:be:a3:39:36:
         63:30:97:29:15:84:31:5b:3d:f6:04:66:78:82:54:d0:e3:58:
         5f:87:d3:f5:f6:a1:75:1f:c5:93:41:a5:73:39:1f:b7:1e:4a:
         83:a0:3b:e5:36:19:17:95:90:9f:49:c8:58:c8:83:c2:6f:e2:
         fb:1e:52:6a:6b:7e:88:68:8e:e8:18:de:da:02:83:d7:25:ab:
         87:98:b7:4b:85:b7:55:28:a5:81:44:33:80:3b:e7:2f:fc:d6:
         d2:ce:8d:85:97:39:35:c0:82:72:c6:8d:5d:36:c0:18:57:1e:
         ca:fc:24:3b:e9:2f:e3:d3:a6:08:dc:d2:08:f0:a0:1a:2b:de:
         b4:47:2a:8d:32:1f:42:95:98:9c:b7:a0:1b:05:b9:c6:0f:25:
         6c:a5:01:f3:bf:1d:5f:5c:35:6b:f0:77:1d:90:c8:a7:86:81:
         76:ff:78:d3
-----BEGIN CERTIFICATE-----
MIIFNTCCBB2gAwIBAgIQFgIKGR4SLZs5CF3x/8KsfzANBgkqhkiG9w0BAQsFADCB
rzELMAkGA1UEBhMCVVMxEzARBgNVBAgMCkNhbGlmb3JuaWExFjAUBgNVBAcMDVNh
biBGcmFuY2lzY28xIDAeBgNVBAoMF0NvcHlsZWZ0IENlcnRpZmljYXRlIENvMR8w
HQYDVQQLDBZNeSBPcmdhbml6YXRpb25hbCBVbml0MREwDwYDVQQDDAhDaGFuZ2VN
ZTEdMBsGCSqGSIb3DQEJARYObWVAZXhhbXBsZS5uZXQwHhcNMjEwMTIzMTgyOTE3
WhcNMjIwMTIzMTgyOTE3WjCBwTELMAkGA1UEBhMCVVMxCzAJBgNVBAgMAk9IMRMw
EQYDVQQHDApDaW5jaW5uYXRpMSEwHwYDVQQKDBhVbml2ZXJzaXR5IG9mIENpbmNp
bm5hdGkxMDAuBgNVBAsMJ0RlcHQuIEVsZWN0cmljYWwgRW5nLiBhbmQgQ29tcHV0
ZXIgU2NpLjERMA8GA1UEAwwIY2xpZW50ODcxKDAmBgkqhkiG9w0BCQEWGWZyYW5j
b0BnYXVzcy5lY2Vjcy51Yy5lZHUwggEiMA0GCSqGSIb3DQEBAQUAA4IBDwAwggEK
AoIBAQDV/Zu8HcgFfkc9k1rnE7E0ot4xRSvWj+NBwM1ZUON5XSGc07LSmaH1kSfH
NrB6f4lpQ78fiaBIQhlgUf0JbjUPSIFIiuYvZaahs8y77M56xfkVBc4XfSTXUUAU
FPzQD598ixukiGXBG3Nx46OgvJBaES0h4jGKbwTdi9s8gxzVAlFIFJVFvKjs7GgU
ZqnCi27L6hZYvvBvz0WTyYmdhxeo87v5VqknuLZTmCi/iC09Np/XUudhhqSSWPix
bQ9V2Ik7JfVPrFzUsRIE2GPHLcZA/6pz4epvBR2SiBjx6W7ALJRPYuUDd04opVNo
9xYVJb23Tz3ijA7h5mBfV3M3omjjAgMBAAGjggE3MIIBMzAJBgNVHRMEAjAAMB0G
A1UdDgQWBBQMpgfaZHoagGhBNQVt+r91017S4zCB5AYDVR0jBIHcMIHZgBTv3LY9
S/2nhwXFIj2L3L+ZKu7k26GBtaSBsjCBrzELMAkGA1UEBhMCVVMxEzARBgNVBAgM
CkNhbGlmb3JuaWExFjAUBgNVBAcMDVNhbiBGcmFuY2lzY28xIDAeBgNVBAoMF0Nv
cHlsZWZ0IENlcnRpZmljYXRlIENvMR8wHQYDVQQLDBZNeSBPcmdhbml6YXRpb25h
bCBVbml0MREwDwYDVQQDDAhDaGFuZ2VNZTEdMBsGCSqGSIb3DQEJARYObWVAZXhh
bXBsZS5uZXSCCQCHHh3ca4xmiDATBgNVHSUEDDAKBggrBgEFBQcDAjALBgNVHQ8E
BAMCB4AwDQYJKoZIhvcNAQELBQADggEBAIuNnn+9Rl6xiyjvnu982D69A60bHhC0
Iyf/icxqIGB2/28g6y08HmTT1Anz5p/YLvmneMuuB3wzP3l/WjvbdKV5/qgMwSRI
iONt0NP9aMIP29ldD2/bvqM5NmMwlykVhDFbPfYEZniCVNDjWF+H0/X2oXUfxZNB
pXM5H7ceSoOgO+U2GReVkJ9JyFjIg8Jv4vseUmprfohojugY3toCg9clq4eYt0uF
t1UopYFEM4A75y/81tLOjYWXOTXAgnLGjV02wBhXHsr8JDvpL+PTpgjc0gjwoBor
3rRHKo0yH0KVmJy3oBsFucYPJWylAfO/HV9cNWvwdx2QyKeGgXb/eNM=
-----END CERTIFICATE-----
