Certificate:
    Data:
        Version: 3 (0x2)
        Serial Number:
            89:fc:0f:91:d5:3a:e2:e7:66:08:e5:70:d2:da:01:2a
    Signature Algorithm: sha256WithRSAEncryption
        Issuer: C=US, ST=California, L=San Francisco, O=Copyleft Certificate Co, OU=My Organizational Unit, CN=ChangeMe/emailAddress=me@example.net
        Validity
            Not Before: Nov 13 11:13:05 2023 GMT
            Not After : Nov 12 11:13:05 2024 GMT
        Subject: C=US, ST=OH, L=Cincinnati, O=University of Cincinnati, OU=Dept. Elec. Comp. Eng. Comp. Sci., CN=client45/emailAddress=franco@gauss.ececs.uc.edu
        Subject Public Key Info:
            Public Key Algorithm: rsaEncryption
                Public-Key: (2048 bit)
                Modulus:
                    00:c9:d6:fd:ec:b5:24:e8:dc:af:42:31:3e:3d:6f:
                    fd:e5:6c:87:0b:c0:13:f8:13:0c:d2:68:a7:3c:3c:
                    e4:54:2d:81:6d:60:07:b9:4d:b0:7f:05:65:e4:ac:
                    e5:28:52:3c:9d:f5:25:01:4c:f6:ed:96:10:54:21:
                    91:6b:27:92:c3:3c:6a:31:af:1a:79:4c:47:86:62:
                    15:84:24:d1:12:ed:6e:72:27:e2:59:f7:21:60:50:
                    58:c7:81:a3:b9:9f:64:4b:c3:a4:bc:6b:02:a9:dc:
                    f8:39:59:0b:79:e8:8e:f0:42:73:f9:75:22:d8:79:
                    13:03:10:2e:d8:79:57:56:2b:f7:31:c9:f9:cc:5e:
                    d2:96:b1:dc:7b:8a:04:84:7b:a3:4e:e4:03:65:2e:
                    d4:b3:f6:05:a1:b7:28:e4:5c:97:2b:69:62:7d:1d:
                    a1:3f:6b:4f:12:5c:76:6d:71:b1:77:42:b9:41:83:
                    ef:67:0e:64:73:db:34:bd:6a:60:ef:7a:20:ba:e9:
                    69:aa:84:17:fc:c9:1e:df:f6:0e:77:f3:cb:7b:28:
                    6e:5b:49:e6:d6:c8:12:b1:2b:c1:56:65:ce:fc:73:
                    1f:a2:3a:03:4a:e1:51:9b:ac:f1:09:d6:50:12:04:
                    80:8a:40:65:08:b5:8f:a2:c1:ec:ae:2b:89:fa:b3:
                    f0:5f
                Exponent: 65537 (0x10001)
        X509v3 extensions:
            X509v3 Basic Constraints: 
                CA:FALSE
            X509v3 Subject Key Identifier: 
                84:5A:89:66:11:DB:1E:68:5F:41:4A:A2:4B:31:4F:95:30:21:F6:A2
            X509v3 Authority Key Identifier: 
                keyid:1A:DC:98:F2:69:C1:F7:C8:1D:21:43:B0:3C:79:50:4D:D8:2B:87:54
                DirName:/C=US/ST=California/L=San Francisco/O=Copyleft Certificate Co/OU=My Organizational Unit/CN=ChangeMe/emailAddress=me@example.net
                serial:8C:9B:8E:88:7A:AC:6D:8B

            X509v3 Extended Key Usage: 
                TLS Web Client Authentication
            X509v3 Key Usage: 
                Digital Signature
    Signature Algorithm: sha256WithRSAEncryption
         08:73:5b:01:3d:a7:cc:88:1e:39:4d:07:a6:88:36:05:e2:9f:
         24:ad:ce:2b:39:91:78:62:24:61:54:a8:b8:3b:9b:68:65:3b:
         3d:fe:b6:cf:34:68:71:57:4f:fd:26:41:79:63:aa:b0:cc:71:
         2a:d9:0c:23:75:4a:a3:35:9d:67:70:30:0f:6c:2f:ba:de:f8:
         46:22:25:ea:9d:41:34:4f:7b:de:6d:1b:b9:d4:a4:c3:95:75:
         35:51:aa:b8:c6:2b:23:c2:21:81:63:c7:3c:e8:8f:4c:bf:a8:
         1b:17:ee:62:b2:3f:8c:25:5e:b1:c1:a2:f6:b7:64:90:5a:62:
         7c:83:d5:9b:26:1a:69:24:8d:a6:fb:91:78:f5:e7:33:7b:22:
         e8:c1:67:83:61:5a:96:5b:04:8c:93:e7:2f:4c:0c:c7:61:e3:
         00:d6:c7:65:cc:97:cf:c6:fd:08:71:01:0f:f6:d1:97:a0:a0:
         60:c1:e1:32:40:bc:63:5e:ab:bc:5a:95:e6:9e:50:85:b4:e6:
         9e:76:4a:02:c0:5e:94:ca:33:5c:bd:24:5a:6b:e6:f0:42:62:
         06:cc:8f:d3:c9:01:43:49:2b:b8:d3:41:fa:e4:de:33:08:f4:
         9e:be:25:68:18:0a:34:d7:fc:92:3d:e0:12:75:b6:c7:ec:27:
         64:7f:d9:0f
-----BEGIN CERTIFICATE-----
MIIFMDCCBBigAwIBAgIRAIn8D5HVOuLnZgjlcNLaASowDQYJKoZIhvcNAQELBQAw
ga8xCzAJBgNVBAYTAlVTMRMwEQYDVQQIDApDYWxpZm9ybmlhMRYwFAYDVQQHDA1T
YW4gRnJhbmNpc2NvMSAwHgYDVQQKDBdDb3B5bGVmdCBDZXJ0aWZpY2F0ZSBDbzEf
MB0GA1UECwwWTXkgT3JnYW5pemF0aW9uYWwgVW5pdDERMA8GA1UEAwwIQ2hhbmdl
TWUxHTAbBgkqhkiG9w0BCQEWDm1lQGV4YW1wbGUubmV0MB4XDTIzMTExMzExMTMw
NVoXDTI0MTExMjExMTMwNVowgbsxCzAJBgNVBAYTAlVTMQswCQYDVQQIDAJPSDET
MBEGA1UEBwwKQ2luY2lubmF0aTEhMB8GA1UECgwYVW5pdmVyc2l0eSBvZiBDaW5j
aW5uYXRpMSowKAYDVQQLDCFEZXB0LiBFbGVjLiBDb21wLiBFbmcuIENvbXAuIFNj
aS4xETAPBgNVBAMMCGNsaWVudDQ1MSgwJgYJKoZIhvcNAQkBFhlmcmFuY29AZ2F1
c3MuZWNlY3MudWMuZWR1MIIBIjANBgkqhkiG9w0BAQEFAAOCAQ8AMIIBCgKCAQEA
ydb97LUk6NyvQjE+PW/95WyHC8AT+BMM0minPDzkVC2BbWAHuU2wfwVl5KzlKFI8
nfUlAUz27ZYQVCGRayeSwzxqMa8aeUxHhmIVhCTREu1ucifiWfchYFBYx4GjuZ9k
S8OkvGsCqdz4OVkLeeiO8EJz+XUi2HkTAxAu2HlXViv3Mcn5zF7SlrHce4oEhHuj
TuQDZS7Us/YFobco5FyXK2lifR2hP2tPElx2bXGxd0K5QYPvZw5kc9s0vWpg73og
uulpqoQX/Mke3/YOd/PLeyhuW0nm1sgSsSvBVmXO/HMfojoDSuFRm6zxCdZQEgSA
ikBlCLWPosHsriuJ+rPwXwIDAQABo4IBNzCCATMwCQYDVR0TBAIwADAdBgNVHQ4E
FgQUhFqJZhHbHmhfQUqiSzFPlTAh9qIwgeQGA1UdIwSB3DCB2YAUGtyY8mnB98gd
IUOwPHlQTdgrh1ShgbWkgbIwga8xCzAJBgNVBAYTAlVTMRMwEQYDVQQIDApDYWxp
Zm9ybmlhMRYwFAYDVQQHDA1TYW4gRnJhbmNpc2NvMSAwHgYDVQQKDBdDb3B5bGVm
dCBDZXJ0aWZpY2F0ZSBDbzEfMB0GA1UECwwWTXkgT3JnYW5pemF0aW9uYWwgVW5p
dDERMA8GA1UEAwwIQ2hhbmdlTWUxHTAbBgkqhkiG9w0BCQEWDm1lQGV4YW1wbGUu
bmV0ggkAjJuOiHqsbYswEwYDVR0lBAwwCgYIKwYBBQUHAwIwCwYDVR0PBAQDAgeA
MA0GCSqGSIb3DQEBCwUAA4IBAQAIc1sBPafMiB45TQemiDYF4p8krc4rOZF4YiRh
VKi4O5toZTs9/rbPNGhxV0/9JkF5Y6qwzHEq2QwjdUqjNZ1ncDAPbC+63vhGIiXq
nUE0T3vebRu51KTDlXU1Uaq4xisjwiGBY8c86I9Mv6gbF+5isj+MJV6xwaL2t2SQ
WmJ8g9WbJhppJI2m+5F49eczeyLowWeDYVqWWwSMk+cvTAzHYeMA1sdlzJfPxv0I
cQEP9tGXoKBgweEyQLxjXqu8WpXmnlCFtOaedkoCwF6UyjNcvSRaa+bwQmIGzI/T
yQFDSSu400H65N4zCPSeviVoGAo01/ySPeASdbbH7Cdkf9kP
-----END CERTIFICATE-----
