Certificate:
    Data:
        Version: 3 (0x2)
        Serial Number:
            47:8d:04:19:33:9f:88:b8:00:7f:b4:09:8d:5c:c6:76
    Signature Algorithm: sha256WithRSAEncryption
        Issuer: C=US, ST=California, L=San Francisco, O=Copyleft Certificate Co, OU=My Organizational Unit, CN=ChangeMe/emailAddress=me@example.net
        Validity
            Not Before: Nov 10 17:24:40 2023 GMT
            Not After : Nov  9 17:24:40 2024 GMT
        Subject: C=US, ST=OH, L=Cincinnati, O=University of Cincinnati, OU=Dept_Elec_Com_ Eng_Com_Sci., CN=client4/emailAddress=franco@gauss.ececs.uc.edu
        Subject Public Key Info:
            Public Key Algorithm: rsaEncryption
                Public-Key: (2048 bit)
                Modulus:
                    00:ec:8c:70:da:e3:ed:c4:6a:f6:5d:aa:08:b7:dc:
                    be:e6:47:f9:f4:55:b2:c8:0f:3a:52:24:8b:e4:ee:
                    f4:52:34:cc:d8:5d:61:fd:e5:2a:c8:d8:fb:02:a5:
                    40:29:b4:fc:26:ae:a4:fc:ac:a7:42:11:37:b2:5d:
                    68:46:83:68:d6:2e:8c:b0:1d:cf:e1:00:66:63:ff:
                    90:c4:07:20:c1:e7:dc:5c:92:50:e4:9b:98:f2:e5:
                    1a:be:e8:de:80:a0:8c:e8:0c:72:44:46:ce:3e:db:
                    69:a9:44:c6:a6:77:1a:bc:8d:78:a5:43:4e:eb:f0:
                    75:38:8c:aa:c8:b1:aa:f3:c0:4c:03:53:a9:30:9f:
                    3b:a6:4d:1d:a5:0d:bc:62:b2:e3:1e:cf:01:22:4d:
                    2f:1d:51:17:9a:dd:5a:0e:c2:31:4b:0e:99:28:dc:
                    c1:c2:c5:87:75:82:22:be:c8:18:06:1e:ef:56:b4:
                    c6:e6:dc:c6:ed:9b:28:26:bc:f5:8a:bb:9d:b3:a3:
                    2b:30:8f:a0:9f:5f:7a:a4:09:ac:b4:31:fe:7f:68:
                    26:e5:b2:b1:f1:2a:78:d9:54:04:35:9d:90:10:97:
                    4e:8c:db:a3:a9:eb:c6:32:9c:a1:41:c3:05:90:20:
                    23:eb:83:30:2b:78:88:61:4a:6f:83:67:4e:5f:26:
                    76:7d
                Exponent: 65537 (0x10001)
        X509v3 extensions:
            X509v3 Basic Constraints: 
                CA:FALSE
            X509v3 Subject Key Identifier: 
                AF:40:40:CB:FA:99:C9:9F:CD:53:E3:11:41:B1:EF:45:54:95:37:91
            X509v3 Authority Key Identifier: 
                keyid:D9:D4:8C:20:BC:EB:38:17:D5:4B:52:F8:AA:C5:D2:44:DD:A2:6A:3B
                DirName:/C=US/ST=California/L=San Francisco/O=Copyleft Certificate Co/OU=My Organizational Unit/CN=ChangeMe/emailAddress=me@example.net
                serial:C2:48:34:65:BF:AB:EB:AA

            X509v3 Extended Key Usage: 
                TLS Web Client Authentication
            X509v3 Key Usage: 
                Digital Signature
    Signature Algorithm: sha256WithRSAEncryption
         2b:f3:e1:b3:c6:01:81:d2:fc:50:8a:21:f9:c5:fd:65:31:d6:
         1b:1f:0f:d9:62:f3:9e:2e:eb:dc:60:0e:03:b7:f9:bc:04:7b:
         81:46:81:77:d8:3b:95:c1:6e:94:ec:5a:c6:3a:d7:42:83:43:
         c7:f8:ca:ef:b5:db:e8:00:a7:11:cc:8c:61:99:b9:76:83:ea:
         f0:17:7f:f3:8f:86:c5:be:9d:58:14:83:52:f5:a9:11:2e:a2:
         0c:bc:96:a0:b3:ae:02:32:27:29:6a:fa:95:0c:d5:63:fa:5e:
         43:b0:82:d5:8a:2c:30:ee:85:94:25:01:57:ce:c8:10:25:81:
         47:99:89:d3:b6:db:27:f2:b3:7d:db:33:cb:a0:27:39:f6:6d:
         ed:c1:85:52:34:01:24:fd:15:41:22:8b:2b:5f:7b:78:38:71:
         20:50:54:14:71:c5:8d:c6:48:18:2d:4a:bd:e5:d2:d3:48:68:
         63:cd:40:fe:44:35:50:75:18:ad:7d:a9:e0:96:42:e5:02:5a:
         4e:f3:0b:d4:bf:09:8a:77:9a:d4:03:fc:e9:fc:23:12:a4:c1:
         9d:0c:7a:df:00:2c:6d:22:e2:04:21:5b:50:6b:36:4b:68:55:
         10:8d:c9:9d:9d:ec:84:c3:55:e0:54:a1:0d:81:61:71:3c:44:
         ee:d5:34:80
-----BEGIN CERTIFICATE-----
MIIFKDCCBBCgAwIBAgIQR40EGTOfiLgAf7QJjVzGdjANBgkqhkiG9w0BAQsFADCB
rzELMAkGA1UEBhMCVVMxEzARBgNVBAgMCkNhbGlmb3JuaWExFjAUBgNVBAcMDVNh
biBGcmFuY2lzY28xIDAeBgNVBAoMF0NvcHlsZWZ0IENlcnRpZmljYXRlIENvMR8w
HQYDVQQLDBZNeSBPcmdhbml6YXRpb25hbCBVbml0MREwDwYDVQQDDAhDaGFuZ2VN
ZTEdMBsGCSqGSIb3DQEJARYObWVAZXhhbXBsZS5uZXQwHhcNMjMxMTEwMTcyNDQw
WhcNMjQxMTA5MTcyNDQwWjCBtDELMAkGA1UEBhMCVVMxCzAJBgNVBAgMAk9IMRMw
EQYDVQQHDApDaW5jaW5uYXRpMSEwHwYDVQQKDBhVbml2ZXJzaXR5IG9mIENpbmNp
bm5hdGkxJDAiBgNVBAsMG0RlcHRfRWxlY19Db21fIEVuZ19Db21fU2NpLjEQMA4G
A1UEAwwHY2xpZW50NDEoMCYGCSqGSIb3DQEJARYZZnJhbmNvQGdhdXNzLmVjZWNz
LnVjLmVkdTCCASIwDQYJKoZIhvcNAQEBBQADggEPADCCAQoCggEBAOyMcNrj7cRq
9l2qCLfcvuZH+fRVssgPOlIki+Tu9FI0zNhdYf3lKsjY+wKlQCm0/CaupPysp0IR
N7JdaEaDaNYujLAdz+EAZmP/kMQHIMHn3FySUOSbmPLlGr7o3oCgjOgMckRGzj7b
aalExqZ3GryNeKVDTuvwdTiMqsixqvPATANTqTCfO6ZNHaUNvGKy4x7PASJNLx1R
F5rdWg7CMUsOmSjcwcLFh3WCIr7IGAYe71a0xubcxu2bKCa89Yq7nbOjKzCPoJ9f
eqQJrLQx/n9oJuWysfEqeNlUBDWdkBCXTozbo6nrxjKcoUHDBZAgI+uDMCt4iGFK
b4NnTl8mdn0CAwEAAaOCATcwggEzMAkGA1UdEwQCMAAwHQYDVR0OBBYEFK9AQMv6
mcmfzVPjEUGx70VUlTeRMIHkBgNVHSMEgdwwgdmAFNnUjCC86zgX1UtS+KrF0kTd
omo7oYG1pIGyMIGvMQswCQYDVQQGEwJVUzETMBEGA1UECAwKQ2FsaWZvcm5pYTEW
MBQGA1UEBwwNU2FuIEZyYW5jaXNjbzEgMB4GA1UECgwXQ29weWxlZnQgQ2VydGlm
aWNhdGUgQ28xHzAdBgNVBAsMFk15IE9yZ2FuaXphdGlvbmFsIFVuaXQxETAPBgNV
BAMMCENoYW5nZU1lMR0wGwYJKoZIhvcNAQkBFg5tZUBleGFtcGxlLm5ldIIJAMJI
NGW/q+uqMBMGA1UdJQQMMAoGCCsGAQUFBwMCMAsGA1UdDwQEAwIHgDANBgkqhkiG
9w0BAQsFAAOCAQEAK/Phs8YBgdL8UIoh+cX9ZTHWGx8P2WLzni7r3GAOA7f5vAR7
gUaBd9g7lcFulOxaxjrXQoNDx/jK77Xb6ACnEcyMYZm5doPq8Bd/84+Gxb6dWBSD
UvWpES6iDLyWoLOuAjInKWr6lQzVY/peQ7CC1YosMO6FlCUBV87IECWBR5mJ07bb
J/Kzfdszy6AnOfZt7cGFUjQBJP0VQSKLK197eDhxIFBUFHHFjcZIGC1KveXS00ho
Y81A/kQ1UHUYrX2p4JZC5QJaTvML1L8Jinea1AP86fwjEqTBnQx63wAsbSLiBCFb
UGs2S2hVEI3JnZ3shMNV4FShDYFhcTxE7tU0gA==
-----END CERTIFICATE-----
