Certificate:
    Data:
        Version: 3 (0x2)
        Serial Number:
            de:ce:de:46:7f:91:b2:54:05:32:e5:27:8c:34:93:09
    Signature Algorithm: sha256WithRSAEncryption
        Issuer: C=US, ST=California, L=San Francisco, O=Copyleft Certificate Co, OU=My Organizational Unit, CN=ChangeMe/emailAddress=me@example.net
        Validity
            Not Before: Jan 23 18:28:43 2021 GMT
            Not After : Jan 23 18:28:43 2022 GMT
        Subject: C=US, ST=OH, L=Cincinnati, O=University of Cincinnati, OU=Dept. Electrical Eng. and Computer Sci., CN=client62/emailAddress=franco@gauss.ececs.uc.edu
        Subject Public Key Info:
            Public Key Algorithm: rsaEncryption
                Public-Key: (2048 bit)
                Modulus:
                    00:e4:92:b6:f1:2e:a2:7b:bd:a7:53:39:c6:60:12:
                    d9:77:77:72:5c:bd:f3:36:21:b8:3e:97:58:f3:0a:
                    18:d2:be:7d:69:30:4e:c2:79:77:a7:f9:9e:61:a6:
                    d2:33:4d:cc:a6:ce:97:0e:dd:70:81:e0:83:ff:4e:
                    83:d3:4e:06:9f:03:47:70:78:fe:7a:41:05:12:1e:
                    df:63:a2:fe:14:a0:4e:b2:39:c6:e0:9f:50:b1:9d:
                    3c:ce:61:f2:bd:82:c7:cf:d4:a0:66:59:07:04:ce:
                    5a:2e:ef:f0:41:31:a6:b4:29:c9:a0:e9:ae:cf:cd:
                    54:05:28:62:61:fc:29:5b:1c:40:c1:0c:4b:a1:01:
                    27:63:b0:06:89:6c:79:ee:04:35:f0:41:c9:b0:d2:
                    19:e5:d1:a9:81:29:a9:1b:80:3b:3b:eb:db:85:bd:
                    1d:fe:ad:22:7b:05:ae:78:57:15:94:8f:ba:21:49:
                    b7:42:5a:6b:04:79:ff:b4:42:ad:ec:a1:08:8f:3d:
                    a1:a0:03:92:4d:39:0b:fc:46:df:9c:0d:98:8c:9e:
                    f0:ab:e5:17:7d:2e:14:57:66:52:4e:a3:6d:ad:be:
                    eb:33:a1:35:06:c5:f3:da:f7:da:4a:86:2c:35:24:
                    9e:fa:3c:2e:5e:eb:7a:7b:47:52:aa:f3:db:19:80:
                    1c:9b
                Exponent: 65537 (0x10001)
        X509v3 extensions:
            X509v3 Basic Constraints: 
                CA:FALSE
            X509v3 Subject Key Identifier: 
                79:FF:59:27:A3:28:80:0C:E2:7C:B9:0F:61:F2:36:43:65:96:87:D5
            X509v3 Authority Key Identifier: 
                keyid:EF:DC:B6:3D:4B:FD:A7:87:05:C5:22:3D:8B:DC:BF:99:2A:EE:E4:DB
                DirName:/C=US/ST=California/L=San Francisco/O=Copyleft Certificate Co/OU=My Organizational Unit/CN=ChangeMe/emailAddress=me@example.net
                serial:87:1E:1D:DC:6B:8C:66:88

            X509v3 Extended Key Usage: 
                TLS Web Client Authentication
            X509v3 Key Usage: 
                Digital Signature
    Signature Algorithm: sha256WithRSAEncryption
         df:46:e4:a0:0a:a1:31:e2:0c:41:85:c3:93:ab:da:20:55:66:
         58:f9:be:53:f1:9d:f0:40:74:9d:40:d1:b5:9a:30:90:fa:88:
         b5:cb:1e:04:7e:7c:28:26:75:9d:2e:2c:b8:bf:a4:6f:36:f7:
         97:22:f8:14:46:8b:d7:46:c3:42:50:e2:28:79:f3:1b:0a:b4:
         39:d1:cb:e6:a0:6f:4d:72:87:d9:ea:2a:9b:cc:f5:b3:64:6a:
         88:60:d6:ec:ea:9d:42:3e:9f:31:e8:2a:8e:c4:97:a3:89:71:
         64:fd:e5:2d:b4:fe:65:2e:06:03:61:61:7a:6a:6a:49:78:2c:
         30:9d:56:dc:0c:24:30:95:35:70:be:c2:e0:22:b5:c9:b5:de:
         d6:f1:05:38:74:e2:dc:f1:0b:09:be:09:ac:7d:e0:1b:d1:19:
         2f:c3:a7:24:61:06:e4:d4:ea:c1:71:d6:7e:9e:bc:95:c9:42:
         bf:65:9d:d9:a0:b3:61:47:f2:b1:2c:b5:a6:ef:f6:50:b0:94:
         e5:7b:78:a2:8b:b6:ab:0f:9c:85:a0:0f:0c:f0:cf:fc:6e:c0:
         9c:be:7f:44:91:41:d2:99:b4:40:21:44:05:9e:7d:51:db:23:
         d1:57:f3:a4:00:a3:52:9a:13:2e:9a:37:82:34:1a:7f:e4:39:
         7e:d5:c7:8a
-----BEGIN CERTIFICATE-----
MIIFNjCCBB6gAwIBAgIRAN7O3kZ/kbJUBTLlJ4w0kwkwDQYJKoZIhvcNAQELBQAw
ga8xCzAJBgNVBAYTAlVTMRMwEQYDVQQIDApDYWxpZm9ybmlhMRYwFAYDVQQHDA1T
YW4gRnJhbmNpc2NvMSAwHgYDVQQKDBdDb3B5bGVmdCBDZXJ0aWZpY2F0ZSBDbzEf
MB0GA1UECwwWTXkgT3JnYW5pemF0aW9uYWwgVW5pdDERMA8GA1UEAwwIQ2hhbmdl
TWUxHTAbBgkqhkiG9w0BCQEWDm1lQGV4YW1wbGUubmV0MB4XDTIxMDEyMzE4Mjg0
M1oXDTIyMDEyMzE4Mjg0M1owgcExCzAJBgNVBAYTAlVTMQswCQYDVQQIDAJPSDET
MBEGA1UEBwwKQ2luY2lubmF0aTEhMB8GA1UECgwYVW5pdmVyc2l0eSBvZiBDaW5j
aW5uYXRpMTAwLgYDVQQLDCdEZXB0LiBFbGVjdHJpY2FsIEVuZy4gYW5kIENvbXB1
dGVyIFNjaS4xETAPBgNVBAMMCGNsaWVudDYyMSgwJgYJKoZIhvcNAQkBFhlmcmFu
Y29AZ2F1c3MuZWNlY3MudWMuZWR1MIIBIjANBgkqhkiG9w0BAQEFAAOCAQ8AMIIB
CgKCAQEA5JK28S6ie72nUznGYBLZd3dyXL3zNiG4PpdY8woY0r59aTBOwnl3p/me
YabSM03Mps6XDt1wgeCD/06D004GnwNHcHj+ekEFEh7fY6L+FKBOsjnG4J9QsZ08
zmHyvYLHz9SgZlkHBM5aLu/wQTGmtCnJoOmuz81UBShiYfwpWxxAwQxLoQEnY7AG
iWx57gQ18EHJsNIZ5dGpgSmpG4A7O+vbhb0d/q0iewWueFcVlI+6IUm3QlprBHn/
tEKt7KEIjz2hoAOSTTkL/EbfnA2YjJ7wq+UXfS4UV2ZSTqNtrb7rM6E1BsXz2vfa
SoYsNSSe+jwuXut6e0dSqvPbGYAcmwIDAQABo4IBNzCCATMwCQYDVR0TBAIwADAd
BgNVHQ4EFgQUef9ZJ6MogAzifLkPYfI2Q2WWh9UwgeQGA1UdIwSB3DCB2YAU79y2
PUv9p4cFxSI9i9y/mSru5NuhgbWkgbIwga8xCzAJBgNVBAYTAlVTMRMwEQYDVQQI
DApDYWxpZm9ybmlhMRYwFAYDVQQHDA1TYW4gRnJhbmNpc2NvMSAwHgYDVQQKDBdD
b3B5bGVmdCBDZXJ0aWZpY2F0ZSBDbzEfMB0GA1UECwwWTXkgT3JnYW5pemF0aW9u
YWwgVW5pdDERMA8GA1UEAwwIQ2hhbmdlTWUxHTAbBgkqhkiG9w0BCQEWDm1lQGV4
YW1wbGUubmV0ggkAhx4d3GuMZogwEwYDVR0lBAwwCgYIKwYBBQUHAwIwCwYDVR0P
BAQDAgeAMA0GCSqGSIb3DQEBCwUAA4IBAQDfRuSgCqEx4gxBhcOTq9ogVWZY+b5T
8Z3wQHSdQNG1mjCQ+oi1yx4EfnwoJnWdLiy4v6RvNveXIvgURovXRsNCUOIoefMb
CrQ50cvmoG9NcofZ6iqbzPWzZGqIYNbs6p1CPp8x6CqOxJejiXFk/eUttP5lLgYD
YWF6ampJeCwwnVbcDCQwlTVwvsLgIrXJtd7W8QU4dOLc8QsJvgmsfeAb0Rkvw6ck
YQbk1OrBcdZ+nryVyUK/ZZ3ZoLNhR/KxLLWm7/ZQsJTle3iii7arD5yFoA8M8M/8
bsCcvn9EkUHSmbRAIUQFnn1R2yPRV/OkAKNSmhMumjeCNBp/5Dl+1ceK
-----END CERTIFICATE-----
