Certificate:
    Data:
        Version: 3 (0x2)
        Serial Number:
            c5:73:ac:da:96:93:4a:93:5a:9c:cd:16:0a:50:0d:60
    Signature Algorithm: sha256WithRSAEncryption
        Issuer: C=US, ST=California, L=San Francisco, O=Copyleft Certificate Co, OU=My Organizational Unit, CN=ChangeMe/emailAddress=me@example.net
        Validity
            Not Before: Jan 23 18:28:12 2021 GMT
            Not After : Jan 23 18:28:12 2022 GMT
        Subject: C=US, ST=OH, L=Cincinnati, O=University of Cincinnati, OU=Dept. Electrical Eng. and Computer Sci., CN=client39/emailAddress=franco@gauss.ececs.uc.edu
        Subject Public Key Info:
            Public Key Algorithm: rsaEncryption
                Public-Key: (2048 bit)
                Modulus:
                    00:a2:2f:2b:a6:f3:e2:db:b9:54:e2:e3:e4:62:4d:
                    10:67:ab:46:2a:1f:fa:16:8c:20:89:ac:07:2c:69:
                    85:e0:d3:70:5d:0f:0f:86:d9:08:30:07:72:2c:c9:
                    d7:d2:2b:dd:df:58:81:2b:90:a8:1f:0e:f4:19:31:
                    2f:60:c3:b3:48:fe:f5:e3:b8:9a:0f:4a:5d:bf:63:
                    42:79:45:c9:2e:fb:cd:e5:75:46:bf:48:44:ad:ce:
                    a7:1b:21:2e:ab:55:c4:ed:9b:92:5b:56:74:fe:90:
                    3b:31:17:b8:be:1b:ee:3a:b4:34:f6:e4:a8:3c:37:
                    05:3d:86:9d:ee:b0:0b:23:79:3d:0c:50:27:bd:9d:
                    e6:57:de:cb:46:f7:aa:ce:ed:e5:79:bd:49:7f:1f:
                    0c:19:2b:3f:3d:29:2c:88:d4:6c:62:cf:54:f3:9a:
                    09:73:ed:3a:f1:7c:57:07:f4:19:47:c2:75:10:9c:
                    f4:64:7a:5e:f2:62:b5:32:4c:27:46:b0:87:80:5b:
                    5a:ba:26:72:b0:08:56:0c:50:6c:d4:52:1c:d2:12:
                    83:c5:04:2b:0a:9b:d2:3a:7f:c7:09:f5:30:ca:49:
                    76:ce:aa:f3:af:4f:00:80:95:18:85:b6:6c:90:e7:
                    ca:7c:73:23:57:f4:1c:87:50:c7:9b:5a:13:f1:e6:
                    65:fb
                Exponent: 65537 (0x10001)
        X509v3 extensions:
            X509v3 Basic Constraints: 
                CA:FALSE
            X509v3 Subject Key Identifier: 
                4A:72:10:F6:2D:58:2A:6E:08:59:11:51:98:9E:04:42:F4:C3:A6:EC
            X509v3 Authority Key Identifier: 
                keyid:EF:DC:B6:3D:4B:FD:A7:87:05:C5:22:3D:8B:DC:BF:99:2A:EE:E4:DB
                DirName:/C=US/ST=California/L=San Francisco/O=Copyleft Certificate Co/OU=My Organizational Unit/CN=ChangeMe/emailAddress=me@example.net
                serial:87:1E:1D:DC:6B:8C:66:88

            X509v3 Extended Key Usage: 
                TLS Web Client Authentication
            X509v3 Key Usage: 
                Digital Signature
    Signature Algorithm: sha256WithRSAEncryption
         a2:64:00:8b:2c:06:16:65:8b:1b:9e:9a:4c:4e:dc:5f:be:a7:
         9f:de:47:98:88:f2:7f:af:b6:ff:df:fa:1d:59:50:70:5a:28:
         d5:69:7c:e7:49:b7:f2:c0:4d:85:82:03:34:18:c9:ed:d8:b4:
         a7:34:0e:7b:b0:fa:24:91:51:c7:cd:de:e1:4c:01:85:e7:a7:
         40:1a:60:0e:7c:ae:e7:28:b5:7a:03:08:bf:d2:0d:21:89:30:
         36:88:e8:51:6d:a9:6e:b9:c7:b2:53:7c:95:8c:a6:a9:d8:f0:
         3a:e3:fd:30:c5:2d:17:c6:bf:06:63:49:a5:8a:7b:01:6e:ab:
         6f:29:82:c8:c6:0d:47:3d:16:4a:b6:1e:a0:2d:4b:3e:03:f5:
         60:56:2e:3f:fa:98:ec:76:d5:a0:23:45:35:bc:57:e8:cb:f0:
         76:2a:4c:45:2c:5b:7d:94:d9:c7:b0:f5:af:67:09:73:1d:30:
         9b:ff:8b:2e:43:63:1d:f6:f9:59:71:94:12:aa:d8:a8:05:5b:
         da:e3:d3:51:ca:97:d8:68:e0:e7:31:38:8c:51:9d:6a:d4:56:
         db:26:00:b4:24:34:85:5e:10:f6:cc:b7:8a:57:58:b5:15:e7:
         0a:d7:79:3b:5b:04:f6:26:0c:b6:3e:e5:ac:d3:36:09:ef:4f:
         ba:9c:89:73
-----BEGIN CERTIFICATE-----
MIIFNjCCBB6gAwIBAgIRAMVzrNqWk0qTWpzNFgpQDWAwDQYJKoZIhvcNAQELBQAw
ga8xCzAJBgNVBAYTAlVTMRMwEQYDVQQIDApDYWxpZm9ybmlhMRYwFAYDVQQHDA1T
YW4gRnJhbmNpc2NvMSAwHgYDVQQKDBdDb3B5bGVmdCBDZXJ0aWZpY2F0ZSBDbzEf
MB0GA1UECwwWTXkgT3JnYW5pemF0aW9uYWwgVW5pdDERMA8GA1UEAwwIQ2hhbmdl
TWUxHTAbBgkqhkiG9w0BCQEWDm1lQGV4YW1wbGUubmV0MB4XDTIxMDEyMzE4Mjgx
MloXDTIyMDEyMzE4MjgxMlowgcExCzAJBgNVBAYTAlVTMQswCQYDVQQIDAJPSDET
MBEGA1UEBwwKQ2luY2lubmF0aTEhMB8GA1UECgwYVW5pdmVyc2l0eSBvZiBDaW5j
aW5uYXRpMTAwLgYDVQQLDCdEZXB0LiBFbGVjdHJpY2FsIEVuZy4gYW5kIENvbXB1
dGVyIFNjaS4xETAPBgNVBAMMCGNsaWVudDM5MSgwJgYJKoZIhvcNAQkBFhlmcmFu
Y29AZ2F1c3MuZWNlY3MudWMuZWR1MIIBIjANBgkqhkiG9w0BAQEFAAOCAQ8AMIIB
CgKCAQEAoi8rpvPi27lU4uPkYk0QZ6tGKh/6FowgiawHLGmF4NNwXQ8PhtkIMAdy
LMnX0ivd31iBK5CoHw70GTEvYMOzSP7147iaD0pdv2NCeUXJLvvN5XVGv0hErc6n
GyEuq1XE7ZuSW1Z0/pA7MRe4vhvuOrQ09uSoPDcFPYad7rALI3k9DFAnvZ3mV97L
Rveqzu3leb1Jfx8MGSs/PSksiNRsYs9U85oJc+068XxXB/QZR8J1EJz0ZHpe8mK1
MkwnRrCHgFtauiZysAhWDFBs1FIc0hKDxQQrCpvSOn/HCfUwykl2zqrzr08AgJUY
hbZskOfKfHMjV/Qch1DHm1oT8eZl+wIDAQABo4IBNzCCATMwCQYDVR0TBAIwADAd
BgNVHQ4EFgQUSnIQ9i1YKm4IWRFRmJ4EQvTDpuwwgeQGA1UdIwSB3DCB2YAU79y2
PUv9p4cFxSI9i9y/mSru5NuhgbWkgbIwga8xCzAJBgNVBAYTAlVTMRMwEQYDVQQI
DApDYWxpZm9ybmlhMRYwFAYDVQQHDA1TYW4gRnJhbmNpc2NvMSAwHgYDVQQKDBdD
b3B5bGVmdCBDZXJ0aWZpY2F0ZSBDbzEfMB0GA1UECwwWTXkgT3JnYW5pemF0aW9u
YWwgVW5pdDERMA8GA1UEAwwIQ2hhbmdlTWUxHTAbBgkqhkiG9w0BCQEWDm1lQGV4
YW1wbGUubmV0ggkAhx4d3GuMZogwEwYDVR0lBAwwCgYIKwYBBQUHAwIwCwYDVR0P
BAQDAgeAMA0GCSqGSIb3DQEBCwUAA4IBAQCiZACLLAYWZYsbnppMTtxfvqef3keY
iPJ/r7b/3/odWVBwWijVaXznSbfywE2FggM0GMnt2LSnNA57sPokkVHHzd7hTAGF
56dAGmAOfK7nKLV6Awi/0g0hiTA2iOhRbaluuceyU3yVjKap2PA64/0wxS0Xxr8G
Y0mlinsBbqtvKYLIxg1HPRZKth6gLUs+A/VgVi4/+pjsdtWgI0U1vFfoy/B2KkxF
LFt9lNnHsPWvZwlzHTCb/4suQ2Md9vlZcZQSqtioBVva49NRypfYaODnMTiMUZ1q
1FbbJgC0JDSFXhD2zLeKV1i1FecK13k7WwT2Jgy2PuWs0zYJ70+6nIlz
-----END CERTIFICATE-----
