Certificate:
    Data:
        Version: 3 (0x2)
        Serial Number:
            67:a0:20:b7:10:ce:44:d6:92:66:30:9f:10:6d:7e:fc
    Signature Algorithm: sha256WithRSAEncryption
        Issuer: C=US, ST=California, L=San Francisco, O=Copyleft Certificate Co, OU=My Organizational Unit, CN=ChangeMe/emailAddress=me@example.net
        Validity
            Not Before: Nov 13 11:13:13 2023 GMT
            Not After : Nov 12 11:13:13 2024 GMT
        Subject: C=US, ST=OH, L=Cincinnati, O=University of Cincinnati, OU=Dept. Elec. Comp. Eng. Comp. Sci., CN=client47/emailAddress=franco@gauss.ececs.uc.edu
        Subject Public Key Info:
            Public Key Algorithm: rsaEncryption
                Public-Key: (2048 bit)
                Modulus:
                    00:c8:a9:1b:3a:5f:55:60:8f:0c:59:86:55:0e:90:
                    89:b2:4c:f9:fa:b5:79:3d:c6:4b:79:7a:0a:f5:45:
                    96:10:78:a4:3e:a0:4c:0d:de:78:46:a8:fe:f7:95:
                    c6:af:7e:b4:5a:8f:44:9e:75:cc:a0:3a:4a:cb:89:
                    37:c0:41:16:65:66:1c:9f:87:b7:6c:9d:ed:af:e4:
                    6d:84:c9:4d:43:fe:ae:07:8a:79:f0:49:ad:47:66:
                    68:f2:90:bf:db:2b:b2:b6:32:02:64:85:c3:3d:a4:
                    17:2e:2a:8d:d5:2d:85:c3:f6:f9:2d:16:07:93:64:
                    e0:6f:48:9d:1a:99:fd:16:5e:14:af:77:b9:3b:1f:
                    5d:97:94:d8:ed:a2:66:0b:ee:92:00:0d:3b:5d:6b:
                    90:99:52:14:98:64:22:ff:cc:5e:f1:b6:6e:ff:6c:
                    77:1d:af:5b:b6:7d:de:47:c2:48:13:20:14:ec:e1:
                    50:00:7d:51:fe:cc:54:20:2c:1c:9f:75:f2:8a:00:
                    91:0b:5e:7c:97:2b:37:fd:31:66:70:ca:f0:ce:41:
                    be:e8:cd:d7:0e:6d:32:37:dc:ab:36:46:8f:7f:26:
                    2b:09:bc:a5:0c:9a:5a:64:08:1b:58:7e:77:2a:14:
                    3c:2f:07:74:e2:b1:ff:09:fc:54:4e:e7:34:b5:f3:
                    29:79
                Exponent: 65537 (0x10001)
        X509v3 extensions:
            X509v3 Basic Constraints: 
                CA:FALSE
            X509v3 Subject Key Identifier: 
                04:34:B8:85:A5:9A:AE:7F:00:89:94:E4:76:EE:F5:11:90:4C:DF:1A
            X509v3 Authority Key Identifier: 
                keyid:1A:DC:98:F2:69:C1:F7:C8:1D:21:43:B0:3C:79:50:4D:D8:2B:87:54
                DirName:/C=US/ST=California/L=San Francisco/O=Copyleft Certificate Co/OU=My Organizational Unit/CN=ChangeMe/emailAddress=me@example.net
                serial:8C:9B:8E:88:7A:AC:6D:8B

            X509v3 Extended Key Usage: 
                TLS Web Client Authentication
            X509v3 Key Usage: 
                Digital Signature
    Signature Algorithm: sha256WithRSAEncryption
         41:6e:06:9c:75:b7:d7:e4:5e:5e:e5:e0:df:65:50:6b:2a:b2:
         52:4e:78:3e:c4:4e:28:a1:6b:fa:4d:83:23:2a:80:49:3b:8c:
         e1:c9:cb:aa:5d:5e:4d:98:6b:e9:25:74:f2:4a:b7:ef:7b:b4:
         dd:24:74:71:36:5e:a0:72:1b:85:73:cb:9f:a7:9f:2d:7b:42:
         47:16:27:bd:2d:05:50:72:b6:b8:90:ff:7f:d4:8a:40:41:43:
         77:d5:63:6b:bc:04:ad:08:57:27:68:b2:ea:8f:b5:9c:96:00:
         8c:57:f8:c1:ac:94:0b:8d:63:91:d7:11:91:e9:b4:05:6b:d2:
         3f:15:09:13:b6:19:b7:50:ff:ef:ac:92:9e:ab:e0:d1:b4:fb:
         53:b8:bc:a8:eb:a9:12:2c:4c:0a:0b:50:2b:ee:01:16:61:0f:
         4c:bb:f0:4c:f4:95:68:b5:3b:a6:2f:66:10:75:c6:dc:7a:3b:
         c2:4f:ec:c1:fe:a6:12:45:fe:01:76:2d:77:f9:7a:50:ff:3b:
         6f:08:f2:5d:a5:a6:50:dd:89:fb:20:bc:37:7a:cd:dc:99:c0:
         51:82:8c:87:e7:5f:ff:f0:ac:c6:03:63:5a:ef:69:6e:78:77:
         3d:6c:6e:c8:5c:ea:2d:27:41:91:31:6f:64:d8:89:af:bc:99:
         3c:3b:18:77
-----BEGIN CERTIFICATE-----
MIIFLzCCBBegAwIBAgIQZ6AgtxDORNaSZjCfEG1+/DANBgkqhkiG9w0BAQsFADCB
rzELMAkGA1UEBhMCVVMxEzARBgNVBAgMCkNhbGlmb3JuaWExFjAUBgNVBAcMDVNh
biBGcmFuY2lzY28xIDAeBgNVBAoMF0NvcHlsZWZ0IENlcnRpZmljYXRlIENvMR8w
HQYDVQQLDBZNeSBPcmdhbml6YXRpb25hbCBVbml0MREwDwYDVQQDDAhDaGFuZ2VN
ZTEdMBsGCSqGSIb3DQEJARYObWVAZXhhbXBsZS5uZXQwHhcNMjMxMTEzMTExMzEz
WhcNMjQxMTEyMTExMzEzWjCBuzELMAkGA1UEBhMCVVMxCzAJBgNVBAgMAk9IMRMw
EQYDVQQHDApDaW5jaW5uYXRpMSEwHwYDVQQKDBhVbml2ZXJzaXR5IG9mIENpbmNp
bm5hdGkxKjAoBgNVBAsMIURlcHQuIEVsZWMuIENvbXAuIEVuZy4gQ29tcC4gU2Np
LjERMA8GA1UEAwwIY2xpZW50NDcxKDAmBgkqhkiG9w0BCQEWGWZyYW5jb0BnYXVz
cy5lY2Vjcy51Yy5lZHUwggEiMA0GCSqGSIb3DQEBAQUAA4IBDwAwggEKAoIBAQDI
qRs6X1VgjwxZhlUOkImyTPn6tXk9xkt5egr1RZYQeKQ+oEwN3nhGqP73lcavfrRa
j0SedcygOkrLiTfAQRZlZhyfh7dsne2v5G2EyU1D/q4HinnwSa1HZmjykL/bK7K2
MgJkhcM9pBcuKo3VLYXD9vktFgeTZOBvSJ0amf0WXhSvd7k7H12XlNjtomYL7pIA
DTtda5CZUhSYZCL/zF7xtm7/bHcdr1u2fd5HwkgTIBTs4VAAfVH+zFQgLByfdfKK
AJELXnyXKzf9MWZwyvDOQb7ozdcObTI33Ks2Ro9/JisJvKUMmlpkCBtYfncqFDwv
B3Tisf8J/FRO5zS18yl5AgMBAAGjggE3MIIBMzAJBgNVHRMEAjAAMB0GA1UdDgQW
BBQENLiFpZqufwCJlOR27vURkEzfGjCB5AYDVR0jBIHcMIHZgBQa3JjyacH3yB0h
Q7A8eVBN2CuHVKGBtaSBsjCBrzELMAkGA1UEBhMCVVMxEzARBgNVBAgMCkNhbGlm
b3JuaWExFjAUBgNVBAcMDVNhbiBGcmFuY2lzY28xIDAeBgNVBAoMF0NvcHlsZWZ0
IENlcnRpZmljYXRlIENvMR8wHQYDVQQLDBZNeSBPcmdhbml6YXRpb25hbCBVbml0
MREwDwYDVQQDDAhDaGFuZ2VNZTEdMBsGCSqGSIb3DQEJARYObWVAZXhhbXBsZS5u
ZXSCCQCMm46IeqxtizATBgNVHSUEDDAKBggrBgEFBQcDAjALBgNVHQ8EBAMCB4Aw
DQYJKoZIhvcNAQELBQADggEBAEFuBpx1t9fkXl7l4N9lUGsqslJOeD7ETiiha/pN
gyMqgEk7jOHJy6pdXk2Ya+kldPJKt+97tN0kdHE2XqByG4Vzy5+nny17QkcWJ70t
BVBytriQ/3/UikBBQ3fVY2u8BK0IVydosuqPtZyWAIxX+MGslAuNY5HXEZHptAVr
0j8VCRO2GbdQ/++skp6r4NG0+1O4vKjrqRIsTAoLUCvuARZhD0y78Ez0lWi1O6Yv
ZhB1xtx6O8JP7MH+phJF/gF2LXf5elD/O28I8l2lplDdifsgvDd6zdyZwFGCjIfn
X//wrMYDY1rvaW54dz1sbshc6i0nQZExb2TYia+8mTw7GHc=
-----END CERTIFICATE-----
