Certificate:
    Data:
        Version: 3 (0x2)
        Serial Number:
            af:de:c7:f3:1d:30:5d:48:95:79:da:70:a4:51:d0:d9
    Signature Algorithm: sha256WithRSAEncryption
        Issuer: C=US, ST=California, L=San Francisco, O=Copyleft Certificate Co, OU=My Organizational Unit, CN=ChangeMe/emailAddress=me@example.net
        Validity
            Not Before: Nov 10 17:25:28 2023 GMT
            Not After : Nov  9 17:25:28 2024 GMT
        Subject: C=US, ST=OH, L=Cincinnati, O=University of Cincinnati, OU=Dept_Elec_Com_ Eng_Com_Sci., CN=client16/emailAddress=franco@gauss.ececs.uc.edu
        Subject Public Key Info:
            Public Key Algorithm: rsaEncryption
                Public-Key: (2048 bit)
                Modulus:
                    00:c3:32:ae:67:53:82:94:f9:a1:e4:16:54:06:cb:
                    74:1e:16:e5:f0:c5:24:39:dc:52:b2:88:f5:14:db:
                    43:26:08:56:00:b6:4c:ae:99:8e:ce:14:0b:b4:75:
                    a9:ec:32:78:1d:27:b0:7e:99:fd:19:d2:97:ca:6a:
                    3a:59:94:d4:5b:ce:bc:cb:f8:e8:86:28:68:40:4f:
                    54:09:6a:c1:98:55:4d:4f:fc:da:16:d6:5a:4b:99:
                    f9:05:79:cc:9e:29:56:fe:95:a5:85:25:38:ee:f8:
                    b4:00:73:5c:1d:6e:c7:5f:65:aa:5b:78:88:e5:cc:
                    1f:96:3a:e8:0f:25:28:51:82:1d:74:ab:ff:56:d7:
                    bf:ad:6e:ae:cb:ed:b5:63:ca:f5:8f:50:48:c9:87:
                    6a:33:38:24:fc:4b:bd:4b:ef:99:33:2b:55:92:72:
                    3e:ac:16:59:6d:b4:ea:a2:5e:29:f9:29:9a:9f:d3:
                    2a:21:74:c3:fc:16:7f:f7:50:8d:ee:b3:08:94:8c:
                    68:5a:f5:4e:9d:3b:d3:b2:26:ee:b7:c6:bc:7a:d2:
                    b4:4a:33:23:e7:f7:19:b2:da:45:d9:ad:c0:b0:f5:
                    39:81:ed:ef:70:8d:c1:1b:82:ba:81:37:98:94:1e:
                    67:52:d3:34:e4:e8:89:72:0f:d4:ac:23:16:2a:5a:
                    89:f9
                Exponent: 65537 (0x10001)
        X509v3 extensions:
            X509v3 Basic Constraints: 
                CA:FALSE
            X509v3 Subject Key Identifier: 
                85:04:79:34:52:E8:8A:0D:A4:B3:19:EB:DB:5F:DA:22:36:39:2D:A7
            X509v3 Authority Key Identifier: 
                keyid:D9:D4:8C:20:BC:EB:38:17:D5:4B:52:F8:AA:C5:D2:44:DD:A2:6A:3B
                DirName:/C=US/ST=California/L=San Francisco/O=Copyleft Certificate Co/OU=My Organizational Unit/CN=ChangeMe/emailAddress=me@example.net
                serial:C2:48:34:65:BF:AB:EB:AA

            X509v3 Extended Key Usage: 
                TLS Web Client Authentication
            X509v3 Key Usage: 
                Digital Signature
    Signature Algorithm: sha256WithRSAEncryption
         3a:27:52:23:d9:0d:25:23:13:0e:b7:ff:85:08:54:c5:fb:3b:
         71:63:c6:66:9d:d9:d9:4d:65:53:ae:3a:17:08:8c:5c:49:60:
         c2:cf:7a:a1:d0:c9:8b:4a:35:19:1b:11:8c:3b:c9:07:f4:67:
         92:3e:c4:89:4b:69:8b:54:75:a0:e2:cd:9d:42:dc:e7:32:a5:
         91:e4:be:70:77:c0:80:68:e0:18:38:e2:d9:3d:98:7a:f4:99:
         6e:36:64:d5:ba:fe:1e:2b:72:8a:15:d4:27:bf:ac:87:73:e2:
         e4:4a:e2:4e:80:d2:42:4c:d6:4a:a7:0a:43:ae:f5:b4:7a:1b:
         7b:41:85:aa:65:45:5d:01:10:bc:37:6d:12:c5:0e:96:50:55:
         fc:aa:18:ba:61:8b:e3:68:4e:40:a1:05:25:dd:a5:54:27:30:
         42:3a:d3:93:d2:70:d0:c2:3b:32:8f:44:74:b8:a7:4c:c4:67:
         5f:1f:49:83:a8:0a:94:81:07:1a:cf:83:57:c4:fa:c6:7e:5e:
         1a:92:d3:ec:d7:74:3d:9b:5c:97:0e:c1:eb:2c:48:a6:e2:06:
         bd:6b:ab:21:73:69:86:10:4e:9e:0b:24:00:94:29:cc:a3:cf:
         80:93:02:60:f9:8c:27:e8:76:ca:18:77:da:20:a2:0b:50:05:
         54:43:61:62
-----BEGIN CERTIFICATE-----
MIIFKjCCBBKgAwIBAgIRAK/ex/MdMF1IlXnacKRR0NkwDQYJKoZIhvcNAQELBQAw
ga8xCzAJBgNVBAYTAlVTMRMwEQYDVQQIDApDYWxpZm9ybmlhMRYwFAYDVQQHDA1T
YW4gRnJhbmNpc2NvMSAwHgYDVQQKDBdDb3B5bGVmdCBDZXJ0aWZpY2F0ZSBDbzEf
MB0GA1UECwwWTXkgT3JnYW5pemF0aW9uYWwgVW5pdDERMA8GA1UEAwwIQ2hhbmdl
TWUxHTAbBgkqhkiG9w0BCQEWDm1lQGV4YW1wbGUubmV0MB4XDTIzMTExMDE3MjUy
OFoXDTI0MTEwOTE3MjUyOFowgbUxCzAJBgNVBAYTAlVTMQswCQYDVQQIDAJPSDET
MBEGA1UEBwwKQ2luY2lubmF0aTEhMB8GA1UECgwYVW5pdmVyc2l0eSBvZiBDaW5j
aW5uYXRpMSQwIgYDVQQLDBtEZXB0X0VsZWNfQ29tXyBFbmdfQ29tX1NjaS4xETAP
BgNVBAMMCGNsaWVudDE2MSgwJgYJKoZIhvcNAQkBFhlmcmFuY29AZ2F1c3MuZWNl
Y3MudWMuZWR1MIIBIjANBgkqhkiG9w0BAQEFAAOCAQ8AMIIBCgKCAQEAwzKuZ1OC
lPmh5BZUBst0Hhbl8MUkOdxSsoj1FNtDJghWALZMrpmOzhQLtHWp7DJ4HSewfpn9
GdKXymo6WZTUW868y/johihoQE9UCWrBmFVNT/zaFtZaS5n5BXnMnilW/pWlhSU4
7vi0AHNcHW7HX2WqW3iI5cwfljroDyUoUYIddKv/Vte/rW6uy+21Y8r1j1BIyYdq
Mzgk/Eu9S++ZMytVknI+rBZZbbTqol4p+Sman9MqIXTD/BZ/91CN7rMIlIxoWvVO
nTvTsibut8a8etK0SjMj5/cZstpF2a3AsPU5ge3vcI3BG4K6gTeYlB5nUtM05OiJ
cg/UrCMWKlqJ+QIDAQABo4IBNzCCATMwCQYDVR0TBAIwADAdBgNVHQ4EFgQUhQR5
NFLoig2ksxnr21/aIjY5LacwgeQGA1UdIwSB3DCB2YAU2dSMILzrOBfVS1L4qsXS
RN2iajuhgbWkgbIwga8xCzAJBgNVBAYTAlVTMRMwEQYDVQQIDApDYWxpZm9ybmlh
MRYwFAYDVQQHDA1TYW4gRnJhbmNpc2NvMSAwHgYDVQQKDBdDb3B5bGVmdCBDZXJ0
aWZpY2F0ZSBDbzEfMB0GA1UECwwWTXkgT3JnYW5pemF0aW9uYWwgVW5pdDERMA8G
A1UEAwwIQ2hhbmdlTWUxHTAbBgkqhkiG9w0BCQEWDm1lQGV4YW1wbGUubmV0ggkA
wkg0Zb+r66owEwYDVR0lBAwwCgYIKwYBBQUHAwIwCwYDVR0PBAQDAgeAMA0GCSqG
SIb3DQEBCwUAA4IBAQA6J1Ij2Q0lIxMOt/+FCFTF+ztxY8ZmndnZTWVTrjoXCIxc
SWDCz3qh0MmLSjUZGxGMO8kH9GeSPsSJS2mLVHWg4s2dQtznMqWR5L5wd8CAaOAY
OOLZPZh69JluNmTVuv4eK3KKFdQnv6yHc+LkSuJOgNJCTNZKpwpDrvW0eht7QYWq
ZUVdARC8N20SxQ6WUFX8qhi6YYvjaE5AoQUl3aVUJzBCOtOT0nDQwjsyj0R0uKdM
xGdfH0mDqAqUgQcaz4NXxPrGfl4aktPs13Q9m1yXDsHrLEim4ga9a6shc2mGEE6e
CyQAlCnMo8+AkwJg+Ywn6HbKGHfaIKILUAVUQ2Fi
-----END CERTIFICATE-----
