Certificate:
    Data:
        Version: 3 (0x2)
        Serial Number:
            e7:79:a6:fb:00:49:29:1f:1b:ec:64:5c:ca:fb:c0:1a
    Signature Algorithm: sha256WithRSAEncryption
        Issuer: C=US, ST=California, L=San Francisco, O=Copyleft Certificate Co, OU=My Organizational Unit, CN=ChangeMe/emailAddress=me@example.net
        Validity
            Not Before: Jan 23 18:27:59 2021 GMT
            Not After : Jan 23 18:27:59 2022 GMT
        Subject: C=US, ST=OH, L=Cincinnati, O=University of Cincinnati, OU=Dept. Electrical Eng. and Computer Sci., CN=client30/emailAddress=franco@gauss.ececs.uc.edu
        Subject Public Key Info:
            Public Key Algorithm: rsaEncryption
                Public-Key: (2048 bit)
                Modulus:
                    00:9b:c4:7e:37:8d:ea:cd:bc:6b:1c:04:5a:41:84:
                    ef:53:65:3a:56:26:98:af:47:45:47:f5:9e:b7:f4:
                    08:ff:c8:bd:2c:76:fd:35:22:ea:79:58:ca:c8:f7:
                    6d:38:55:66:df:0d:57:c2:fd:9b:54:39:e6:f2:e5:
                    7a:f9:c4:08:cf:c7:fe:8a:86:29:4b:57:e6:68:d9:
                    32:57:b3:7e:e1:26:3d:7d:66:6c:a1:22:10:7b:5b:
                    e9:4f:e1:4a:6e:51:b3:36:c4:22:ab:1b:0a:65:18:
                    b0:0d:6f:dc:07:95:35:e6:b5:10:af:4f:80:cb:99:
                    10:2f:50:f6:81:2d:3b:81:e9:23:77:2b:f2:db:20:
                    70:68:6c:15:df:ca:a6:9f:65:49:97:03:0e:ca:02:
                    88:68:8b:14:fe:14:5d:ea:7a:f9:d0:06:2d:2d:f3:
                    bf:d8:d2:e9:fa:41:11:b8:4b:7e:4d:27:ee:43:8b:
                    f5:c0:e2:53:46:06:49:34:a2:17:9a:4e:27:9e:ac:
                    30:df:66:38:7b:cb:d1:b1:e2:a1:22:9a:71:8e:9b:
                    e0:44:06:6c:e4:85:82:4e:ba:5a:2b:4f:ce:60:73:
                    41:1d:62:51:26:ee:71:5f:eb:f9:03:37:46:97:06:
                    7d:e2:db:dd:7e:cd:76:11:30:bb:97:fa:3a:cc:0f:
                    36:05
                Exponent: 65537 (0x10001)
        X509v3 extensions:
            X509v3 Basic Constraints: 
                CA:FALSE
            X509v3 Subject Key Identifier: 
                49:7D:50:56:C6:67:6B:92:16:61:3E:10:33:82:A3:30:02:A9:48:54
            X509v3 Authority Key Identifier: 
                keyid:EF:DC:B6:3D:4B:FD:A7:87:05:C5:22:3D:8B:DC:BF:99:2A:EE:E4:DB
                DirName:/C=US/ST=California/L=San Francisco/O=Copyleft Certificate Co/OU=My Organizational Unit/CN=ChangeMe/emailAddress=me@example.net
                serial:87:1E:1D:DC:6B:8C:66:88

            X509v3 Extended Key Usage: 
                TLS Web Client Authentication
            X509v3 Key Usage: 
                Digital Signature
    Signature Algorithm: sha256WithRSAEncryption
         62:59:19:3d:61:a0:69:1b:c7:62:e8:34:b8:6a:4a:d4:52:c5:
         1b:8a:57:c6:48:cb:e0:d5:e2:d1:75:b1:36:96:1a:35:2f:a4:
         8c:3f:87:f0:eb:58:b7:28:dd:bd:a6:ea:4d:94:a1:bb:0c:74:
         dc:16:6c:7b:42:40:91:da:97:c3:99:75:d7:da:33:c0:a3:2e:
         2d:30:44:fd:61:5f:d7:a2:04:32:07:89:e3:4c:1d:b1:ec:64:
         91:d5:f4:28:a7:b5:e4:8f:ed:e7:a2:ef:8a:d1:eb:19:8a:e7:
         fb:e4:b1:42:5f:67:aa:e2:7e:1a:26:71:3c:42:5d:17:bb:7a:
         3c:83:b0:db:ee:b5:09:79:48:c5:88:2b:cb:2a:44:ed:4e:24:
         8d:9c:31:73:19:e8:15:6e:3e:8a:8b:86:3d:f1:5c:44:8b:53:
         34:46:50:98:9b:81:84:54:68:06:b9:1d:0a:32:60:e3:38:4b:
         89:28:85:04:8e:32:09:3b:e2:53:90:04:bd:57:bd:08:83:fb:
         eb:0c:26:68:2e:29:68:30:ca:92:5c:e3:a1:ca:96:6e:ca:57:
         6b:16:ef:2e:ab:53:44:7b:bc:a9:ec:ce:3f:4e:ae:e9:cd:18:
         6a:4e:c7:0c:f8:cd:53:c3:ae:df:11:24:d4:ea:eb:d7:bb:26:
         b8:25:e0:e0
-----BEGIN CERTIFICATE-----
MIIFNjCCBB6gAwIBAgIRAOd5pvsASSkfG+xkXMr7wBowDQYJKoZIhvcNAQELBQAw
ga8xCzAJBgNVBAYTAlVTMRMwEQYDVQQIDApDYWxpZm9ybmlhMRYwFAYDVQQHDA1T
YW4gRnJhbmNpc2NvMSAwHgYDVQQKDBdDb3B5bGVmdCBDZXJ0aWZpY2F0ZSBDbzEf
MB0GA1UECwwWTXkgT3JnYW5pemF0aW9uYWwgVW5pdDERMA8GA1UEAwwIQ2hhbmdl
TWUxHTAbBgkqhkiG9w0BCQEWDm1lQGV4YW1wbGUubmV0MB4XDTIxMDEyMzE4Mjc1
OVoXDTIyMDEyMzE4Mjc1OVowgcExCzAJBgNVBAYTAlVTMQswCQYDVQQIDAJPSDET
MBEGA1UEBwwKQ2luY2lubmF0aTEhMB8GA1UECgwYVW5pdmVyc2l0eSBvZiBDaW5j
aW5uYXRpMTAwLgYDVQQLDCdEZXB0LiBFbGVjdHJpY2FsIEVuZy4gYW5kIENvbXB1
dGVyIFNjaS4xETAPBgNVBAMMCGNsaWVudDMwMSgwJgYJKoZIhvcNAQkBFhlmcmFu
Y29AZ2F1c3MuZWNlY3MudWMuZWR1MIIBIjANBgkqhkiG9w0BAQEFAAOCAQ8AMIIB
CgKCAQEAm8R+N43qzbxrHARaQYTvU2U6ViaYr0dFR/Wet/QI/8i9LHb9NSLqeVjK
yPdtOFVm3w1Xwv2bVDnm8uV6+cQIz8f+ioYpS1fmaNkyV7N+4SY9fWZsoSIQe1vp
T+FKblGzNsQiqxsKZRiwDW/cB5U15rUQr0+Ay5kQL1D2gS07gekjdyvy2yBwaGwV
38qmn2VJlwMOygKIaIsU/hRd6nr50AYtLfO/2NLp+kERuEt+TSfuQ4v1wOJTRgZJ
NKIXmk4nnqww32Y4e8vRseKhIppxjpvgRAZs5IWCTrpaK0/OYHNBHWJRJu5xX+v5
AzdGlwZ94tvdfs12ETC7l/o6zA82BQIDAQABo4IBNzCCATMwCQYDVR0TBAIwADAd
BgNVHQ4EFgQUSX1QVsZna5IWYT4QM4KjMAKpSFQwgeQGA1UdIwSB3DCB2YAU79y2
PUv9p4cFxSI9i9y/mSru5NuhgbWkgbIwga8xCzAJBgNVBAYTAlVTMRMwEQYDVQQI
DApDYWxpZm9ybmlhMRYwFAYDVQQHDA1TYW4gRnJhbmNpc2NvMSAwHgYDVQQKDBdD
b3B5bGVmdCBDZXJ0aWZpY2F0ZSBDbzEfMB0GA1UECwwWTXkgT3JnYW5pemF0aW9u
YWwgVW5pdDERMA8GA1UEAwwIQ2hhbmdlTWUxHTAbBgkqhkiG9w0BCQEWDm1lQGV4
YW1wbGUubmV0ggkAhx4d3GuMZogwEwYDVR0lBAwwCgYIKwYBBQUHAwIwCwYDVR0P
BAQDAgeAMA0GCSqGSIb3DQEBCwUAA4IBAQBiWRk9YaBpG8di6DS4akrUUsUbilfG
SMvg1eLRdbE2lho1L6SMP4fw61i3KN29pupNlKG7DHTcFmx7QkCR2pfDmXXX2jPA
oy4tMET9YV/XogQyB4njTB2x7GSR1fQop7Xkj+3nou+K0esZiuf75LFCX2eq4n4a
JnE8Ql0Xu3o8g7Db7rUJeUjFiCvLKkTtTiSNnDFzGegVbj6Ki4Y98VxEi1M0RlCY
m4GEVGgGuR0KMmDjOEuJKIUEjjIJO+JTkAS9V70Ig/vrDCZoLiloMMqSXOOhypZu
yldrFu8uq1NEe7yp7M4/Tq7pzRhqTscM+M1Tw67fESTU6uvXuya4JeDg
-----END CERTIFICATE-----
