Certificate:
    Data:
        Version: 3 (0x2)
        Serial Number:
            37:9d:be:2b:e5:16:5c:5b:a9:8a:8d:c2:ff:b0:ea:c4
    Signature Algorithm: sha256WithRSAEncryption
        Issuer: C=US, ST=California, L=San Francisco, O=Copyleft Certificate Co, OU=My Organizational Unit, CN=ChangeMe/emailAddress=me@example.net
        Validity
            Not Before: Nov 10 17:27:12 2023 GMT
            Not After : Nov  9 17:27:12 2024 GMT
        Subject: C=US, ST=OH, L=Cincinnati, O=University of Cincinnati, OU=Dept_Elec_Com_ Eng_Com_Sci., CN=client42/emailAddress=franco@gauss.ececs.uc.edu
        Subject Public Key Info:
            Public Key Algorithm: rsaEncryption
                Public-Key: (2048 bit)
                Modulus:
                    00:c7:95:a8:22:9c:45:70:50:cd:cf:e0:d6:59:4e:
                    06:b9:8a:f0:9e:c0:0b:c6:5b:84:d2:d3:46:9e:ab:
                    be:2c:16:96:90:b9:84:50:78:ce:1e:e6:6e:5b:68:
                    e8:ad:44:b5:20:32:05:c8:ab:40:dd:f3:66:0f:17:
                    fa:fb:a5:18:b6:be:64:1a:f7:f9:be:63:53:a4:a1:
                    26:9e:6c:d6:b2:2d:3b:53:e6:21:78:05:06:26:03:
                    72:56:03:27:17:97:29:ae:13:7b:6a:d7:8d:72:20:
                    75:72:1a:4a:9b:8e:b0:a6:c4:8d:4c:a2:f7:1a:63:
                    f3:07:37:f4:26:94:0d:da:a0:25:7d:87:f5:04:ba:
                    e0:d8:09:a0:e1:96:6a:ad:e7:ea:5f:86:18:73:f3:
                    b8:3e:7e:3c:56:68:58:3d:65:f9:d1:f2:bf:61:0c:
                    de:bf:64:a2:bf:db:53:88:a4:a5:1f:48:ca:ec:b4:
                    65:54:6a:b8:c3:c2:09:26:76:99:45:6e:98:3f:16:
                    e7:3a:5b:af:78:12:8a:62:53:28:ac:9f:30:a6:06:
                    b4:f2:da:19:0b:6f:e2:4b:40:7e:61:38:12:eb:af:
                    65:f2:b9:19:8d:66:92:35:c1:4e:89:c0:17:78:24:
                    58:d9:b5:1c:e9:19:c8:14:ca:ab:ed:1a:f3:cc:9c:
                    70:07
                Exponent: 65537 (0x10001)
        X509v3 extensions:
            X509v3 Basic Constraints: 
                CA:FALSE
            X509v3 Subject Key Identifier: 
                3D:88:35:90:81:F7:BC:13:CA:2E:36:37:A2:AA:DA:0F:B8:E4:01:D7
            X509v3 Authority Key Identifier: 
                keyid:D9:D4:8C:20:BC:EB:38:17:D5:4B:52:F8:AA:C5:D2:44:DD:A2:6A:3B
                DirName:/C=US/ST=California/L=San Francisco/O=Copyleft Certificate Co/OU=My Organizational Unit/CN=ChangeMe/emailAddress=me@example.net
                serial:C2:48:34:65:BF:AB:EB:AA

            X509v3 Extended Key Usage: 
                TLS Web Client Authentication
            X509v3 Key Usage: 
                Digital Signature
    Signature Algorithm: sha256WithRSAEncryption
         25:8b:c9:0a:ed:57:3c:2e:48:35:08:55:26:ac:c7:77:e8:d3:
         06:a3:e4:99:ad:d7:bf:3b:ae:65:1f:d4:09:b7:c3:66:e1:89:
         f9:76:f2:c8:86:8d:a1:80:bf:7b:8e:27:b4:26:3d:e8:0c:7a:
         f8:2e:4f:c8:3e:07:3c:f2:0b:f0:66:16:2e:74:ff:3f:6e:59:
         65:ca:98:39:30:6f:26:f1:ad:38:71:08:9f:53:a7:53:17:05:
         ab:76:bf:5d:f7:f2:1d:49:13:81:9d:87:1c:90:09:4d:06:b1:
         03:9b:27:53:9d:24:29:1e:fc:d7:2f:54:78:cd:94:d9:e1:be:
         56:6c:77:8a:fc:13:6d:18:08:19:61:d5:81:59:ae:0b:13:b4:
         bb:23:0c:ea:54:5f:6e:35:ff:77:bd:0e:b4:ba:65:15:77:e8:
         8d:e3:bb:e0:c7:0a:a4:33:63:f2:7a:36:19:5d:58:07:20:89:
         4b:00:20:a5:94:d2:29:4b:9f:33:87:a9:9c:1d:b3:e2:6b:33:
         0b:d3:51:d6:bd:12:a5:1c:7e:55:6a:79:4c:f1:ac:d4:49:c3:
         0b:04:a4:a2:d9:4a:3f:02:0c:73:4b:8d:6c:db:6e:9e:4e:f0:
         88:a0:2f:bd:02:61:46:ac:f3:aa:3f:3e:de:dd:4e:78:c9:40:
         89:0b:53:d3
-----BEGIN CERTIFICATE-----
MIIFKTCCBBGgAwIBAgIQN52+K+UWXFupio3C/7DqxDANBgkqhkiG9w0BAQsFADCB
rzELMAkGA1UEBhMCVVMxEzARBgNVBAgMCkNhbGlmb3JuaWExFjAUBgNVBAcMDVNh
biBGcmFuY2lzY28xIDAeBgNVBAoMF0NvcHlsZWZ0IENlcnRpZmljYXRlIENvMR8w
HQYDVQQLDBZNeSBPcmdhbml6YXRpb25hbCBVbml0MREwDwYDVQQDDAhDaGFuZ2VN
ZTEdMBsGCSqGSIb3DQEJARYObWVAZXhhbXBsZS5uZXQwHhcNMjMxMTEwMTcyNzEy
WhcNMjQxMTA5MTcyNzEyWjCBtTELMAkGA1UEBhMCVVMxCzAJBgNVBAgMAk9IMRMw
EQYDVQQHDApDaW5jaW5uYXRpMSEwHwYDVQQKDBhVbml2ZXJzaXR5IG9mIENpbmNp
bm5hdGkxJDAiBgNVBAsMG0RlcHRfRWxlY19Db21fIEVuZ19Db21fU2NpLjERMA8G
A1UEAwwIY2xpZW50NDIxKDAmBgkqhkiG9w0BCQEWGWZyYW5jb0BnYXVzcy5lY2Vj
cy51Yy5lZHUwggEiMA0GCSqGSIb3DQEBAQUAA4IBDwAwggEKAoIBAQDHlaginEVw
UM3P4NZZTga5ivCewAvGW4TS00aeq74sFpaQuYRQeM4e5m5baOitRLUgMgXIq0Dd
82YPF/r7pRi2vmQa9/m+Y1OkoSaebNayLTtT5iF4BQYmA3JWAycXlymuE3tq141y
IHVyGkqbjrCmxI1MovcaY/MHN/QmlA3aoCV9h/UEuuDYCaDhlmqt5+pfhhhz87g+
fjxWaFg9ZfnR8r9hDN6/ZKK/21OIpKUfSMrstGVUarjDwgkmdplFbpg/Fuc6W694
EopiUyisnzCmBrTy2hkLb+JLQH5hOBLrr2XyuRmNZpI1wU6JwBd4JFjZtRzpGcgU
yqvtGvPMnHAHAgMBAAGjggE3MIIBMzAJBgNVHRMEAjAAMB0GA1UdDgQWBBQ9iDWQ
gfe8E8ouNjeiqtoPuOQB1zCB5AYDVR0jBIHcMIHZgBTZ1IwgvOs4F9VLUviqxdJE
3aJqO6GBtaSBsjCBrzELMAkGA1UEBhMCVVMxEzARBgNVBAgMCkNhbGlmb3JuaWEx
FjAUBgNVBAcMDVNhbiBGcmFuY2lzY28xIDAeBgNVBAoMF0NvcHlsZWZ0IENlcnRp
ZmljYXRlIENvMR8wHQYDVQQLDBZNeSBPcmdhbml6YXRpb25hbCBVbml0MREwDwYD
VQQDDAhDaGFuZ2VNZTEdMBsGCSqGSIb3DQEJARYObWVAZXhhbXBsZS5uZXSCCQDC
SDRlv6vrqjATBgNVHSUEDDAKBggrBgEFBQcDAjALBgNVHQ8EBAMCB4AwDQYJKoZI
hvcNAQELBQADggEBACWLyQrtVzwuSDUIVSasx3fo0waj5Jmt1787rmUf1Am3w2bh
ifl28siGjaGAv3uOJ7QmPegMevguT8g+BzzyC/BmFi50/z9uWWXKmDkwbybxrThx
CJ9Tp1MXBat2v1338h1JE4GdhxyQCU0GsQObJ1OdJCke/NcvVHjNlNnhvlZsd4r8
E20YCBlh1YFZrgsTtLsjDOpUX241/3e9DrS6ZRV36I3ju+DHCqQzY/J6NhldWAcg
iUsAIKWU0ilLnzOHqZwds+JrMwvTUda9EqUcflVqeUzxrNRJwwsEpKLZSj8CDHNL
jWzbbp5O8IigL70CYUas86o/Pt7dTnjJQIkLU9M=
-----END CERTIFICATE-----
