Certificate:
    Data:
        Version: 3 (0x2)
        Serial Number:
            c3:ef:9d:51:87:54:d3:cc:08:4f:a4:4c:07:b1:41:2b
    Signature Algorithm: sha256WithRSAEncryption
        Issuer: C=US, ST=California, L=San Francisco, O=Copyleft Certificate Co, OU=My Organizational Unit, CN=ChangeMe/emailAddress=me@example.net
        Validity
            Not Before: Jan 23 18:29:13 2021 GMT
            Not After : Jan 23 18:29:13 2022 GMT
        Subject: C=US, ST=OH, L=Cincinnati, O=University of Cincinnati, OU=Dept. Electrical Eng. and Computer Sci., CN=client84/emailAddress=franco@gauss.ececs.uc.edu
        Subject Public Key Info:
            Public Key Algorithm: rsaEncryption
                Public-Key: (2048 bit)
                Modulus:
                    00:ec:1b:5b:97:a3:55:3c:01:63:60:8b:de:fd:04:
                    a5:32:4c:b1:63:9e:c1:d8:5b:0a:dc:85:ab:14:ad:
                    06:d0:a7:e7:45:67:02:d2:b4:e7:67:e8:6a:19:82:
                    35:70:0e:2e:15:e9:7e:f1:4a:d7:4c:c2:10:43:a9:
                    40:a0:9e:58:45:0d:aa:cd:f4:ac:85:7f:be:4a:ed:
                    e6:26:42:a0:6c:4b:d0:70:93:8b:62:8c:d9:9d:b8:
                    62:7d:1c:a1:a7:c6:9e:80:0d:6e:8a:89:7d:09:8e:
                    0a:fe:60:49:e5:74:99:38:6b:c2:61:5f:46:7d:8b:
                    6c:bf:99:b7:04:fb:3f:68:7b:c4:5c:f1:1d:db:ab:
                    60:60:2f:f6:89:63:67:51:dd:8f:b7:4c:48:36:2d:
                    4d:ba:59:40:4b:dd:fb:9b:6d:df:52:0c:2b:2b:b0:
                    30:27:50:c4:f6:8f:9c:ff:77:39:90:90:b5:84:4d:
                    1f:a0:00:60:02:d6:f6:e7:e8:6d:db:1e:46:9e:5b:
                    db:af:ca:c6:c3:50:fa:14:67:15:8b:23:f5:ec:d8:
                    d3:78:b4:54:b9:93:9d:d3:49:5d:50:0a:23:25:a0:
                    12:42:1e:83:e1:b6:ec:24:98:27:f0:2b:dd:f9:c4:
                    1d:3b:50:f6:06:d6:5c:68:ca:40:5c:6a:f7:4a:b2:
                    2a:dd
                Exponent: 65537 (0x10001)
        X509v3 extensions:
            X509v3 Basic Constraints: 
                CA:FALSE
            X509v3 Subject Key Identifier: 
                58:65:52:FA:37:AC:3D:FC:AE:F4:50:77:FD:62:D3:D0:16:28:8F:D5
            X509v3 Authority Key Identifier: 
                keyid:EF:DC:B6:3D:4B:FD:A7:87:05:C5:22:3D:8B:DC:BF:99:2A:EE:E4:DB
                DirName:/C=US/ST=California/L=San Francisco/O=Copyleft Certificate Co/OU=My Organizational Unit/CN=ChangeMe/emailAddress=me@example.net
                serial:87:1E:1D:DC:6B:8C:66:88

            X509v3 Extended Key Usage: 
                TLS Web Client Authentication
            X509v3 Key Usage: 
                Digital Signature
    Signature Algorithm: sha256WithRSAEncryption
         96:d3:68:ed:1c:9e:69:55:84:5d:ee:b4:97:0b:bb:e0:21:8e:
         90:cc:6a:1f:06:05:2e:15:26:76:66:a6:3e:c6:c8:97:c9:ad:
         3c:c4:59:2f:cb:2a:a8:2b:aa:b5:59:22:6d:20:d5:ff:25:45:
         78:c8:89:6c:75:fe:49:98:21:6e:b0:11:a1:1b:32:36:af:fe:
         54:e3:22:85:14:5c:db:45:f6:bf:b6:75:a4:13:1e:72:3d:f9:
         ac:61:60:fd:ce:de:f5:a9:1e:31:fb:8b:cf:1f:43:0d:c7:1c:
         b1:5c:83:1b:ca:4c:30:1c:09:05:ae:bd:5e:e5:9b:92:79:62:
         52:e2:4d:8c:a0:1c:8a:d1:5b:d7:5e:7e:1a:97:48:24:25:c3:
         b4:96:eb:08:72:c0:da:49:1d:f3:e7:50:f5:fb:cb:0b:b5:ae:
         56:c7:95:18:27:80:e2:d1:bb:a7:24:9b:74:1e:3c:69:1d:c0:
         d0:1b:74:31:b9:dd:11:3e:bf:fd:39:91:f0:aa:9c:81:1c:fa:
         bf:90:76:09:8e:0d:ca:4c:66:90:ae:ce:fd:a1:2f:d4:42:30:
         26:df:3a:38:94:ee:e4:2c:9a:5b:41:06:31:cd:45:ff:b4:7f:
         d4:d4:f9:b7:14:66:f2:b0:3f:40:4c:e0:6d:ce:e8:09:49:6a:
         76:82:ec:f9
-----BEGIN CERTIFICATE-----
MIIFNjCCBB6gAwIBAgIRAMPvnVGHVNPMCE+kTAexQSswDQYJKoZIhvcNAQELBQAw
ga8xCzAJBgNVBAYTAlVTMRMwEQYDVQQIDApDYWxpZm9ybmlhMRYwFAYDVQQHDA1T
YW4gRnJhbmNpc2NvMSAwHgYDVQQKDBdDb3B5bGVmdCBDZXJ0aWZpY2F0ZSBDbzEf
MB0GA1UECwwWTXkgT3JnYW5pemF0aW9uYWwgVW5pdDERMA8GA1UEAwwIQ2hhbmdl
TWUxHTAbBgkqhkiG9w0BCQEWDm1lQGV4YW1wbGUubmV0MB4XDTIxMDEyMzE4Mjkx
M1oXDTIyMDEyMzE4MjkxM1owgcExCzAJBgNVBAYTAlVTMQswCQYDVQQIDAJPSDET
MBEGA1UEBwwKQ2luY2lubmF0aTEhMB8GA1UECgwYVW5pdmVyc2l0eSBvZiBDaW5j
aW5uYXRpMTAwLgYDVQQLDCdEZXB0LiBFbGVjdHJpY2FsIEVuZy4gYW5kIENvbXB1
dGVyIFNjaS4xETAPBgNVBAMMCGNsaWVudDg0MSgwJgYJKoZIhvcNAQkBFhlmcmFu
Y29AZ2F1c3MuZWNlY3MudWMuZWR1MIIBIjANBgkqhkiG9w0BAQEFAAOCAQ8AMIIB
CgKCAQEA7Btbl6NVPAFjYIve/QSlMkyxY57B2FsK3IWrFK0G0KfnRWcC0rTnZ+hq
GYI1cA4uFel+8UrXTMIQQ6lAoJ5YRQ2qzfSshX++Su3mJkKgbEvQcJOLYozZnbhi
fRyhp8aegA1uiol9CY4K/mBJ5XSZOGvCYV9GfYtsv5m3BPs/aHvEXPEd26tgYC/2
iWNnUd2Pt0xINi1NullAS937m23fUgwrK7AwJ1DE9o+c/3c5kJC1hE0foABgAtb2
5+ht2x5Gnlvbr8rGw1D6FGcViyP17NjTeLRUuZOd00ldUAojJaASQh6D4bbsJJgn
8Cvd+cQdO1D2BtZcaMpAXGr3SrIq3QIDAQABo4IBNzCCATMwCQYDVR0TBAIwADAd
BgNVHQ4EFgQUWGVS+jesPfyu9FB3/WLT0BYoj9UwgeQGA1UdIwSB3DCB2YAU79y2
PUv9p4cFxSI9i9y/mSru5NuhgbWkgbIwga8xCzAJBgNVBAYTAlVTMRMwEQYDVQQI
DApDYWxpZm9ybmlhMRYwFAYDVQQHDA1TYW4gRnJhbmNpc2NvMSAwHgYDVQQKDBdD
b3B5bGVmdCBDZXJ0aWZpY2F0ZSBDbzEfMB0GA1UECwwWTXkgT3JnYW5pemF0aW9u
YWwgVW5pdDERMA8GA1UEAwwIQ2hhbmdlTWUxHTAbBgkqhkiG9w0BCQEWDm1lQGV4
YW1wbGUubmV0ggkAhx4d3GuMZogwEwYDVR0lBAwwCgYIKwYBBQUHAwIwCwYDVR0P
BAQDAgeAMA0GCSqGSIb3DQEBCwUAA4IBAQCW02jtHJ5pVYRd7rSXC7vgIY6QzGof
BgUuFSZ2ZqY+xsiXya08xFkvyyqoK6q1WSJtINX/JUV4yIlsdf5JmCFusBGhGzI2
r/5U4yKFFFzbRfa/tnWkEx5yPfmsYWD9zt71qR4x+4vPH0MNxxyxXIMbykwwHAkF
rr1e5ZuSeWJS4k2MoByK0VvXXn4al0gkJcO0lusIcsDaSR3z51D1+8sLta5Wx5UY
J4Di0bunJJt0HjxpHcDQG3Qxud0RPr/9OZHwqpyBHPq/kHYJjg3KTGaQrs79oS/U
QjAm3zo4lO7kLJpbQQYxzUX/tH/U1Pm3FGbysD9ATOBtzugJSWp2guz5
-----END CERTIFICATE-----
