Certificate:
    Data:
        Version: 3 (0x2)
        Serial Number:
            57:99:9e:c9:75:b4:74:36:45:28:99:11:f8:48:d5:bb
    Signature Algorithm: sha256WithRSAEncryption
        Issuer: C=US, ST=California, L=San Francisco, O=Copyleft Certificate Co, OU=My Organizational Unit, CN=ChangeMe/emailAddress=me@example.net
        Validity
            Not Before: Nov 10 17:24:56 2023 GMT
            Not After : Nov  9 17:24:56 2024 GMT
        Subject: C=US, ST=OH, L=Cincinnati, O=University of Cincinnati, OU=Dept_Elec_Com_ Eng_Com_Sci., CN=client8/emailAddress=franco@gauss.ececs.uc.edu
        Subject Public Key Info:
            Public Key Algorithm: rsaEncryption
                Public-Key: (2048 bit)
                Modulus:
                    00:aa:03:a9:1c:a3:77:71:95:e4:d8:05:d9:2d:f0:
                    d0:92:cb:d5:34:30:c5:a6:33:06:37:0e:ca:ae:d9:
                    88:1e:58:9b:d9:e9:ed:8b:91:ea:ac:d4:89:15:aa:
                    16:26:e3:85:aa:ce:4f:a0:a1:d3:2e:ae:1d:f8:99:
                    12:5b:36:35:24:fc:8d:90:fd:3f:8b:0e:b1:e9:b4:
                    1a:19:26:cb:36:80:ff:ff:d0:da:5c:3b:78:2f:55:
                    b3:3f:68:a7:e1:24:55:8b:2a:42:ad:24:c4:c8:49:
                    13:d1:7c:36:8f:eb:cf:df:e8:9a:1f:38:ac:d5:4b:
                    1d:d5:b1:5b:5c:da:0a:28:63:22:68:2c:17:a8:39:
                    49:e5:aa:f1:d6:ce:62:39:28:8e:c7:46:29:9d:77:
                    0f:74:ff:16:8c:c1:e2:dd:ce:c4:09:2d:8c:a1:66:
                    f9:4a:bc:24:37:63:0f:c8:4a:94:ef:a4:be:7c:96:
                    10:e5:4e:08:a9:a4:d8:2a:6a:61:9a:b0:d3:a9:b6:
                    4e:a2:d9:e7:0f:e8:7b:e2:26:d3:61:40:89:26:c6:
                    62:9c:d1:1b:57:f0:6d:a2:71:e6:ce:2d:0d:a6:5e:
                    60:cc:c3:89:22:50:10:14:4d:9c:52:4c:48:75:24:
                    8a:ff:85:48:cb:e6:63:2f:78:03:bd:82:ad:76:f4:
                    9b:c7
                Exponent: 65537 (0x10001)
        X509v3 extensions:
            X509v3 Basic Constraints: 
                CA:FALSE
            X509v3 Subject Key Identifier: 
                D8:6E:77:29:13:F2:A4:CF:6A:D1:74:EF:CA:2B:67:63:5F:92:E5:84
            X509v3 Authority Key Identifier: 
                keyid:D9:D4:8C:20:BC:EB:38:17:D5:4B:52:F8:AA:C5:D2:44:DD:A2:6A:3B
                DirName:/C=US/ST=California/L=San Francisco/O=Copyleft Certificate Co/OU=My Organizational Unit/CN=ChangeMe/emailAddress=me@example.net
                serial:C2:48:34:65:BF:AB:EB:AA

            X509v3 Extended Key Usage: 
                TLS Web Client Authentication
            X509v3 Key Usage: 
                Digital Signature
    Signature Algorithm: sha256WithRSAEncryption
         22:73:f1:86:03:dd:8c:fe:e4:43:88:7e:f1:bc:51:7c:1d:ce:
         71:b4:72:b6:b8:f6:d5:27:63:00:24:02:95:68:70:fc:b0:1b:
         5a:60:c4:95:19:e5:6f:91:ee:44:e1:6c:97:e2:65:a2:dd:61:
         d2:1d:71:1f:11:36:59:da:36:41:c5:e5:8d:4d:cd:19:98:5b:
         1c:48:ed:02:8d:9f:61:dc:4d:93:22:55:65:1a:6c:97:0f:55:
         9e:c9:1a:2b:20:89:74:c3:d1:4e:8e:3e:f1:82:af:5a:3d:bc:
         98:a6:e3:14:ee:d0:38:e2:75:52:9f:97:94:2e:22:4d:59:14:
         46:fe:93:f8:bf:f1:4f:d3:8c:0e:1b:60:8c:e4:8e:79:b3:53:
         27:81:9d:6b:75:d7:a2:4b:c4:75:b0:46:34:7a:9d:32:23:8c:
         4d:fa:52:f9:56:20:e4:06:11:a5:23:ab:ba:b8:ae:78:bc:2b:
         96:f9:6f:02:31:0f:c3:09:51:74:2f:7f:7a:b1:ab:09:a6:f5:
         e8:d5:9d:c8:3e:94:84:5d:e7:26:83:3c:8b:c2:38:69:c8:e3:
         78:95:d6:d1:4e:3f:06:ba:58:90:5f:09:0e:bb:96:67:57:04:
         3e:7d:c1:c0:63:00:36:24:e1:18:1c:f3:1c:48:df:1f:5f:ec:
         59:ae:d8:64
-----BEGIN CERTIFICATE-----
MIIFKDCCBBCgAwIBAgIQV5meyXW0dDZFKJkR+EjVuzANBgkqhkiG9w0BAQsFADCB
rzELMAkGA1UEBhMCVVMxEzARBgNVBAgMCkNhbGlmb3JuaWExFjAUBgNVBAcMDVNh
biBGcmFuY2lzY28xIDAeBgNVBAoMF0NvcHlsZWZ0IENlcnRpZmljYXRlIENvMR8w
HQYDVQQLDBZNeSBPcmdhbml6YXRpb25hbCBVbml0MREwDwYDVQQDDAhDaGFuZ2VN
ZTEdMBsGCSqGSIb3DQEJARYObWVAZXhhbXBsZS5uZXQwHhcNMjMxMTEwMTcyNDU2
WhcNMjQxMTA5MTcyNDU2WjCBtDELMAkGA1UEBhMCVVMxCzAJBgNVBAgMAk9IMRMw
EQYDVQQHDApDaW5jaW5uYXRpMSEwHwYDVQQKDBhVbml2ZXJzaXR5IG9mIENpbmNp
bm5hdGkxJDAiBgNVBAsMG0RlcHRfRWxlY19Db21fIEVuZ19Db21fU2NpLjEQMA4G
A1UEAwwHY2xpZW50ODEoMCYGCSqGSIb3DQEJARYZZnJhbmNvQGdhdXNzLmVjZWNz
LnVjLmVkdTCCASIwDQYJKoZIhvcNAQEBBQADggEPADCCAQoCggEBAKoDqRyjd3GV
5NgF2S3w0JLL1TQwxaYzBjcOyq7ZiB5Ym9np7YuR6qzUiRWqFibjharOT6Ch0y6u
HfiZEls2NST8jZD9P4sOsem0GhkmyzaA///Q2lw7eC9Vsz9op+EkVYsqQq0kxMhJ
E9F8No/rz9/omh84rNVLHdWxW1zaCihjImgsF6g5SeWq8dbOYjkojsdGKZ13D3T/
FozB4t3OxAktjKFm+Uq8JDdjD8hKlO+kvnyWEOVOCKmk2CpqYZqw06m2TqLZ5w/o
e+Im02FAiSbGYpzRG1fwbaJx5s4tDaZeYMzDiSJQEBRNnFJMSHUkiv+FSMvmYy94
A72CrXb0m8cCAwEAAaOCATcwggEzMAkGA1UdEwQCMAAwHQYDVR0OBBYEFNhudykT
8qTPatF078orZ2NfkuWEMIHkBgNVHSMEgdwwgdmAFNnUjCC86zgX1UtS+KrF0kTd
omo7oYG1pIGyMIGvMQswCQYDVQQGEwJVUzETMBEGA1UECAwKQ2FsaWZvcm5pYTEW
MBQGA1UEBwwNU2FuIEZyYW5jaXNjbzEgMB4GA1UECgwXQ29weWxlZnQgQ2VydGlm
aWNhdGUgQ28xHzAdBgNVBAsMFk15IE9yZ2FuaXphdGlvbmFsIFVuaXQxETAPBgNV
BAMMCENoYW5nZU1lMR0wGwYJKoZIhvcNAQkBFg5tZUBleGFtcGxlLm5ldIIJAMJI
NGW/q+uqMBMGA1UdJQQMMAoGCCsGAQUFBwMCMAsGA1UdDwQEAwIHgDANBgkqhkiG
9w0BAQsFAAOCAQEAInPxhgPdjP7kQ4h+8bxRfB3OcbRytrj21SdjACQClWhw/LAb
WmDElRnlb5HuROFsl+Jlot1h0h1xHxE2Wdo2QcXljU3NGZhbHEjtAo2fYdxNkyJV
ZRpslw9VnskaKyCJdMPRTo4+8YKvWj28mKbjFO7QOOJ1Up+XlC4iTVkURv6T+L/x
T9OMDhtgjOSOebNTJ4Gda3XXokvEdbBGNHqdMiOMTfpS+VYg5AYRpSOruriueLwr
lvlvAjEPwwlRdC9/erGrCab16NWdyD6UhF3nJoM8i8I4acjjeJXW0U4/BrpYkF8J
DruWZ1cEPn3BwGMANiThGBzzHEjfH1/sWa7YZA==
-----END CERTIFICATE-----
