Certificate:
    Data:
        Version: 3 (0x2)
        Serial Number:
            d9:77:85:e0:ab:e0:dd:c3:3d:bd:0e:5b:cc:87:62:52
    Signature Algorithm: sha256WithRSAEncryption
        Issuer: C=US, ST=California, L=San Francisco, O=Copyleft Certificate Co, OU=My Organizational Unit, CN=ChangeMe/emailAddress=me@example.net
        Validity
            Not Before: Nov 10 17:26:24 2023 GMT
            Not After : Nov  9 17:26:24 2024 GMT
        Subject: C=US, ST=OH, L=Cincinnati, O=University of Cincinnati, OU=Dept_Elec_Com_ Eng_Com_Sci., CN=client30/emailAddress=franco@gauss.ececs.uc.edu
        Subject Public Key Info:
            Public Key Algorithm: rsaEncryption
                Public-Key: (2048 bit)
                Modulus:
                    00:b5:3e:77:a5:e3:e4:28:9c:13:e4:5d:1d:f1:1c:
                    f0:bd:c3:f9:7e:4e:78:d4:91:64:15:24:4f:aa:0d:
                    d9:8e:94:d5:b2:90:19:fe:ef:f9:83:bc:0e:00:a0:
                    84:81:45:71:2b:47:a6:6c:4b:95:32:94:ea:d0:28:
                    7d:f5:a6:06:14:0f:30:11:3b:4f:fd:57:20:32:5f:
                    8e:d9:7e:01:1a:fd:55:70:ad:d2:61:83:6e:39:c8:
                    30:60:2f:46:79:0f:9c:0a:27:0d:45:e8:83:f5:71:
                    cd:66:4a:86:1d:74:96:b3:0d:13:8e:5b:1b:e4:1d:
                    2a:b5:f6:5d:57:bb:98:d4:6a:04:5a:9e:c6:08:39:
                    db:a7:3a:5f:25:26:a4:eb:2d:f7:aa:45:de:3a:ee:
                    de:db:97:b8:70:91:ec:29:dd:8d:4a:3a:f9:0c:00:
                    58:ec:4c:ec:66:ab:cf:55:d9:b5:34:4e:85:17:cc:
                    06:f2:55:1d:f6:64:26:f9:75:ae:6f:6c:57:ff:1e:
                    eb:9f:00:12:b1:a9:8b:22:b7:03:55:71:12:3b:b5:
                    c4:d5:ab:21:50:2f:1b:cb:bd:61:a2:07:68:91:60:
                    de:ee:c0:0b:aa:4e:24:37:4b:31:e2:b7:cf:08:82:
                    3d:c3:47:3b:73:6c:82:37:a5:d5:d9:77:4d:4d:eb:
                    b7:ad
                Exponent: 65537 (0x10001)
        X509v3 extensions:
            X509v3 Basic Constraints: 
                CA:FALSE
            X509v3 Subject Key Identifier: 
                EB:C1:A9:D2:B9:A2:1D:F8:97:30:D1:8B:C6:C3:91:C5:54:5B:AD:B9
            X509v3 Authority Key Identifier: 
                keyid:D9:D4:8C:20:BC:EB:38:17:D5:4B:52:F8:AA:C5:D2:44:DD:A2:6A:3B
                DirName:/C=US/ST=California/L=San Francisco/O=Copyleft Certificate Co/OU=My Organizational Unit/CN=ChangeMe/emailAddress=me@example.net
                serial:C2:48:34:65:BF:AB:EB:AA

            X509v3 Extended Key Usage: 
                TLS Web Client Authentication
            X509v3 Key Usage: 
                Digital Signature
    Signature Algorithm: sha256WithRSAEncryption
         b1:73:76:90:61:c7:7b:90:bb:b0:c2:fe:24:56:16:ca:3f:2f:
         1b:bf:cf:2c:d3:3e:86:7a:9b:07:e0:b7:14:27:4a:bb:f6:46:
         f2:13:50:e5:cb:21:0a:f0:e2:2d:d0:e7:5a:31:c0:63:4d:55:
         30:97:4d:8b:14:3a:22:c0:43:0d:5f:e1:63:35:71:d3:d7:74:
         29:d1:e6:fc:7c:e4:07:d8:99:4f:09:88:d5:f2:4f:bb:ee:b6:
         4f:ce:d2:bb:8f:d6:70:b8:0f:cf:a1:76:3c:d5:ea:75:7b:db:
         a9:88:9f:b4:6c:bf:96:05:64:8c:e2:64:cc:b7:14:3a:6b:75:
         87:55:eb:2c:38:14:42:d7:ff:ad:c6:68:71:99:5d:b0:97:f4:
         e5:4e:06:5e:02:05:f1:80:ad:95:a0:fa:ed:14:01:8c:ec:8b:
         ed:4f:40:b3:46:40:73:b3:37:ce:b1:0c:6b:86:63:d3:05:e1:
         a0:a6:c9:6c:43:e6:7c:6e:cc:94:da:34:04:72:c9:a9:60:13:
         1a:4e:e2:1e:f8:35:a9:a4:42:5d:02:94:e1:aa:75:7b:8e:98:
         c2:31:76:ee:11:c4:29:82:72:b8:1f:f1:50:e9:38:11:e0:47:
         0a:46:7a:9b:f1:09:32:8a:4f:e8:cd:de:95:6d:1a:0e:78:7d:
         f7:ce:fd:c6
-----BEGIN CERTIFICATE-----
MIIFKjCCBBKgAwIBAgIRANl3heCr4N3DPb0OW8yHYlIwDQYJKoZIhvcNAQELBQAw
ga8xCzAJBgNVBAYTAlVTMRMwEQYDVQQIDApDYWxpZm9ybmlhMRYwFAYDVQQHDA1T
YW4gRnJhbmNpc2NvMSAwHgYDVQQKDBdDb3B5bGVmdCBDZXJ0aWZpY2F0ZSBDbzEf
MB0GA1UECwwWTXkgT3JnYW5pemF0aW9uYWwgVW5pdDERMA8GA1UEAwwIQ2hhbmdl
TWUxHTAbBgkqhkiG9w0BCQEWDm1lQGV4YW1wbGUubmV0MB4XDTIzMTExMDE3MjYy
NFoXDTI0MTEwOTE3MjYyNFowgbUxCzAJBgNVBAYTAlVTMQswCQYDVQQIDAJPSDET
MBEGA1UEBwwKQ2luY2lubmF0aTEhMB8GA1UECgwYVW5pdmVyc2l0eSBvZiBDaW5j
aW5uYXRpMSQwIgYDVQQLDBtEZXB0X0VsZWNfQ29tXyBFbmdfQ29tX1NjaS4xETAP
BgNVBAMMCGNsaWVudDMwMSgwJgYJKoZIhvcNAQkBFhlmcmFuY29AZ2F1c3MuZWNl
Y3MudWMuZWR1MIIBIjANBgkqhkiG9w0BAQEFAAOCAQ8AMIIBCgKCAQEAtT53pePk
KJwT5F0d8RzwvcP5fk541JFkFSRPqg3ZjpTVspAZ/u/5g7wOAKCEgUVxK0embEuV
MpTq0Ch99aYGFA8wETtP/VcgMl+O2X4BGv1VcK3SYYNuOcgwYC9GeQ+cCicNReiD
9XHNZkqGHXSWsw0Tjlsb5B0qtfZdV7uY1GoEWp7GCDnbpzpfJSak6y33qkXeOu7e
25e4cJHsKd2NSjr5DABY7EzsZqvPVdm1NE6FF8wG8lUd9mQm+XWub2xX/x7rnwAS
samLIrcDVXESO7XE1ashUC8by71hogdokWDe7sALqk4kN0sx4rfPCII9w0c7c2yC
N6XV2XdNTeu3rQIDAQABo4IBNzCCATMwCQYDVR0TBAIwADAdBgNVHQ4EFgQU68Gp
0rmiHfiXMNGLxsORxVRbrbkwgeQGA1UdIwSB3DCB2YAU2dSMILzrOBfVS1L4qsXS
RN2iajuhgbWkgbIwga8xCzAJBgNVBAYTAlVTMRMwEQYDVQQIDApDYWxpZm9ybmlh
MRYwFAYDVQQHDA1TYW4gRnJhbmNpc2NvMSAwHgYDVQQKDBdDb3B5bGVmdCBDZXJ0
aWZpY2F0ZSBDbzEfMB0GA1UECwwWTXkgT3JnYW5pemF0aW9uYWwgVW5pdDERMA8G
A1UEAwwIQ2hhbmdlTWUxHTAbBgkqhkiG9w0BCQEWDm1lQGV4YW1wbGUubmV0ggkA
wkg0Zb+r66owEwYDVR0lBAwwCgYIKwYBBQUHAwIwCwYDVR0PBAQDAgeAMA0GCSqG
SIb3DQEBCwUAA4IBAQCxc3aQYcd7kLuwwv4kVhbKPy8bv88s0z6GepsH4LcUJ0q7
9kbyE1DlyyEK8OIt0OdaMcBjTVUwl02LFDoiwEMNX+FjNXHT13Qp0eb8fOQH2JlP
CYjV8k+77rZPztK7j9ZwuA/PoXY81ep1e9upiJ+0bL+WBWSM4mTMtxQ6a3WHVess
OBRC1/+txmhxmV2wl/TlTgZeAgXxgK2VoPrtFAGM7IvtT0CzRkBzszfOsQxrhmPT
BeGgpslsQ+Z8bsyU2jQEcsmpYBMaTuIe+DWppEJdApThqnV7jpjCMXbuEcQpgnK4
H/FQ6TgR4EcKRnqb8Qkyik/ozd6VbRoOeH33zv3G
-----END CERTIFICATE-----
