Certificate:
    Data:
        Version: 3 (0x2)
        Serial Number:
            60:f1:85:b9:dd:b9:99:07:37:1d:e5:8b:cb:b1:b2:7d
    Signature Algorithm: sha256WithRSAEncryption
        Issuer: C=US, ST=California, L=San Francisco, O=Copyleft Certificate Co, OU=My Organizational Unit, CN=ChangeMe/emailAddress=me@example.net
        Validity
            Not Before: Nov 13 11:10:45 2023 GMT
            Not After : Nov 12 11:10:45 2024 GMT
        Subject: C=US, ST=OH, L=Cincinnati, O=University of Cincinnati, OU=Dept. Elec. Comp. Eng. Comp. Sci., CN=client10/emailAddress=franco@gauss.ececs.uc.edu
        Subject Public Key Info:
            Public Key Algorithm: rsaEncryption
                Public-Key: (2048 bit)
                Modulus:
                    00:b5:86:60:6e:10:b2:f8:26:22:5d:96:5b:5e:68:
                    f1:79:fc:70:71:a0:fa:63:c3:7b:93:72:f0:7b:48:
                    6f:0c:fb:0d:a6:e1:03:5d:13:44:ab:3f:69:88:4e:
                    72:89:12:28:0c:3e:05:d1:16:bb:e7:cd:e2:47:2b:
                    2b:17:50:e9:1a:df:23:d2:8e:a7:d0:47:cc:67:b7:
                    54:c8:f6:c8:f5:7a:13:57:15:85:a5:af:88:96:4c:
                    56:47:24:7e:2c:d8:e0:3c:b1:8c:b1:7b:a0:17:3e:
                    b5:88:a6:60:b7:2c:f0:68:5a:a8:f2:75:37:10:b9:
                    24:e3:17:a0:e5:12:9d:bb:ec:a6:7e:24:5d:7b:d7:
                    eb:7b:9c:62:d0:d5:3c:cd:32:1c:e3:cf:74:65:89:
                    bd:98:84:bd:7f:70:9d:53:12:f0:e6:38:d6:de:a5:
                    fb:3e:40:92:de:00:77:54:32:dc:6a:67:b4:1b:30:
                    9b:1e:08:0e:c4:86:8a:f7:48:15:de:25:8f:0f:fb:
                    37:f0:44:e5:e4:ca:53:4d:a7:c9:90:26:eb:ff:89:
                    2c:ab:c0:db:17:ad:da:6c:a8:c4:75:2c:48:9f:7e:
                    03:00:ec:6d:84:c2:be:d9:a0:79:d5:81:4f:4b:58:
                    92:f5:41:5a:b1:f3:1f:3a:4b:bd:ec:78:ee:d0:1a:
                    49:11
                Exponent: 65537 (0x10001)
        X509v3 extensions:
            X509v3 Basic Constraints: 
                CA:FALSE
            X509v3 Subject Key Identifier: 
                BB:F8:37:51:54:8C:CF:08:AA:39:47:94:46:0C:4B:EE:42:E9:2B:37
            X509v3 Authority Key Identifier: 
                keyid:1A:DC:98:F2:69:C1:F7:C8:1D:21:43:B0:3C:79:50:4D:D8:2B:87:54
                DirName:/C=US/ST=California/L=San Francisco/O=Copyleft Certificate Co/OU=My Organizational Unit/CN=ChangeMe/emailAddress=me@example.net
                serial:8C:9B:8E:88:7A:AC:6D:8B

            X509v3 Extended Key Usage: 
                TLS Web Client Authentication
            X509v3 Key Usage: 
                Digital Signature
    Signature Algorithm: sha256WithRSAEncryption
         57:ee:29:34:f1:a0:3b:10:aa:e0:b8:c2:cb:03:03:b7:06:b3:
         c7:89:5f:90:e1:6e:dc:0b:f3:27:10:a5:28:57:fa:7f:b0:18:
         d7:05:7b:8f:7b:a9:e4:68:16:1b:9d:61:b6:91:0b:f0:4c:87:
         a9:59:cb:ca:fc:23:92:3a:34:4d:0c:16:73:d8:60:41:ef:14:
         e4:95:3f:9f:bc:ce:53:2a:57:4d:dc:8d:05:74:e6:79:02:9f:
         a5:0a:bd:13:5c:48:5b:ff:0a:e2:c3:d1:bd:26:33:90:d7:6a:
         99:e3:3e:ef:6c:61:8a:95:4b:e1:21:f6:6e:a5:78:a6:92:a1:
         f3:9f:53:f8:9d:b8:b1:62:60:4b:e2:27:77:49:e7:79:28:c7:
         ec:42:c6:f2:21:de:22:bf:02:73:28:a3:a1:44:a5:8e:6b:b4:
         9e:00:f9:e1:9b:38:f3:24:61:8d:cd:54:ff:97:1b:bc:d4:cd:
         bf:4f:f2:08:b5:8b:65:22:92:ee:4c:4a:1e:be:a6:de:d6:0e:
         30:ed:46:5c:27:53:06:a6:45:28:68:8d:41:01:d0:d6:a9:1a:
         e2:95:07:57:80:08:ed:52:d2:3d:93:a8:5b:3a:42:14:4f:53:
         61:b6:89:fc:ae:88:34:89:91:ea:0d:72:c9:22:31:b4:82:d6:
         6d:0d:d1:43
-----BEGIN CERTIFICATE-----
MIIFLzCCBBegAwIBAgIQYPGFud25mQc3HeWLy7GyfTANBgkqhkiG9w0BAQsFADCB
rzELMAkGA1UEBhMCVVMxEzARBgNVBAgMCkNhbGlmb3JuaWExFjAUBgNVBAcMDVNh
biBGcmFuY2lzY28xIDAeBgNVBAoMF0NvcHlsZWZ0IENlcnRpZmljYXRlIENvMR8w
HQYDVQQLDBZNeSBPcmdhbml6YXRpb25hbCBVbml0MREwDwYDVQQDDAhDaGFuZ2VN
ZTEdMBsGCSqGSIb3DQEJARYObWVAZXhhbXBsZS5uZXQwHhcNMjMxMTEzMTExMDQ1
WhcNMjQxMTEyMTExMDQ1WjCBuzELMAkGA1UEBhMCVVMxCzAJBgNVBAgMAk9IMRMw
EQYDVQQHDApDaW5jaW5uYXRpMSEwHwYDVQQKDBhVbml2ZXJzaXR5IG9mIENpbmNp
bm5hdGkxKjAoBgNVBAsMIURlcHQuIEVsZWMuIENvbXAuIEVuZy4gQ29tcC4gU2Np
LjERMA8GA1UEAwwIY2xpZW50MTAxKDAmBgkqhkiG9w0BCQEWGWZyYW5jb0BnYXVz
cy5lY2Vjcy51Yy5lZHUwggEiMA0GCSqGSIb3DQEBAQUAA4IBDwAwggEKAoIBAQC1
hmBuELL4JiJdllteaPF5/HBxoPpjw3uTcvB7SG8M+w2m4QNdE0SrP2mITnKJEigM
PgXRFrvnzeJHKysXUOka3yPSjqfQR8xnt1TI9sj1ehNXFYWlr4iWTFZHJH4s2OA8
sYyxe6AXPrWIpmC3LPBoWqjydTcQuSTjF6DlEp277KZ+JF171+t7nGLQ1TzNMhzj
z3Rlib2YhL1/cJ1TEvDmONbepfs+QJLeAHdUMtxqZ7QbMJseCA7Ehor3SBXeJY8P
+zfwROXkylNNp8mQJuv/iSyrwNsXrdpsqMR1LEiffgMA7G2Ewr7ZoHnVgU9LWJL1
QVqx8x86S73seO7QGkkRAgMBAAGjggE3MIIBMzAJBgNVHRMEAjAAMB0GA1UdDgQW
BBS7+DdRVIzPCKo5R5RGDEvuQukrNzCB5AYDVR0jBIHcMIHZgBQa3JjyacH3yB0h
Q7A8eVBN2CuHVKGBtaSBsjCBrzELMAkGA1UEBhMCVVMxEzARBgNVBAgMCkNhbGlm
b3JuaWExFjAUBgNVBAcMDVNhbiBGcmFuY2lzY28xIDAeBgNVBAoMF0NvcHlsZWZ0
IENlcnRpZmljYXRlIENvMR8wHQYDVQQLDBZNeSBPcmdhbml6YXRpb25hbCBVbml0
MREwDwYDVQQDDAhDaGFuZ2VNZTEdMBsGCSqGSIb3DQEJARYObWVAZXhhbXBsZS5u
ZXSCCQCMm46IeqxtizATBgNVHSUEDDAKBggrBgEFBQcDAjALBgNVHQ8EBAMCB4Aw
DQYJKoZIhvcNAQELBQADggEBAFfuKTTxoDsQquC4wssDA7cGs8eJX5DhbtwL8ycQ
pShX+n+wGNcFe497qeRoFhudYbaRC/BMh6lZy8r8I5I6NE0MFnPYYEHvFOSVP5+8
zlMqV03cjQV05nkCn6UKvRNcSFv/CuLD0b0mM5DXapnjPu9sYYqVS+Eh9m6leKaS
ofOfU/iduLFiYEviJ3dJ53kox+xCxvIh3iK/AnMoo6FEpY5rtJ4A+eGbOPMkYY3N
VP+XG7zUzb9P8gi1i2Uiku5MSh6+pt7WDjDtRlwnUwamRShojUEB0NapGuKVB1eA
CO1S0j2TqFs6QhRPU2G2ifyuiDSJkeoNcskiMbSC1m0N0UM=
-----END CERTIFICATE-----
