Certificate:
    Data:
        Version: 3 (0x2)
        Serial Number:
            72:87:24:54:af:54:b6:81:65:10:fb:55:29:f0:c9:ec
    Signature Algorithm: sha256WithRSAEncryption
        Issuer: C=US, ST=California, L=San Francisco, O=Copyleft Certificate Co, OU=My Organizational Unit, CN=ChangeMe/emailAddress=me@example.net
        Validity
            Not Before: Nov 10 17:27:16 2023 GMT
            Not After : Nov  9 17:27:16 2024 GMT
        Subject: C=US, ST=OH, L=Cincinnati, O=University of Cincinnati, OU=Dept_Elec_Com_ Eng_Com_Sci., CN=client43/emailAddress=franco@gauss.ececs.uc.edu
        Subject Public Key Info:
            Public Key Algorithm: rsaEncryption
                Public-Key: (2048 bit)
                Modulus:
                    00:af:36:3d:1f:fe:fb:fb:02:e0:05:5a:de:e9:ff:
                    d6:7c:d5:51:a0:e3:d2:0a:eb:0a:3c:c9:b8:96:9d:
                    90:90:bc:48:4b:34:88:4a:e1:6c:bc:2b:f6:91:8b:
                    9f:27:12:98:60:5b:d4:22:a0:ab:4f:af:4b:94:fe:
                    f2:38:5a:ca:e3:6f:e4:e5:e4:b2:d6:52:9d:d8:a7:
                    c6:2b:f0:90:68:b1:a0:9d:ab:02:e4:7e:ac:72:ae:
                    ca:80:1e:a3:64:df:c6:2d:0f:bf:1c:b2:e4:d6:70:
                    f4:51:8e:c4:a7:e0:24:66:12:01:01:6f:66:bd:1d:
                    da:aa:4f:17:c7:43:2a:21:67:cf:70:89:a6:65:56:
                    44:5c:ca:87:84:59:ba:37:2c:30:45:cd:04:3b:1c:
                    e1:b6:d7:a2:11:8f:00:40:11:ec:bc:53:77:f0:d5:
                    22:d1:64:56:be:e4:01:f9:3c:a6:03:df:2f:46:c4:
                    04:b5:63:8b:81:fc:d6:87:2c:51:d4:4f:75:16:09:
                    71:55:93:2e:9c:82:56:7a:85:80:8e:79:49:dd:df:
                    9f:e4:8b:8d:a4:ea:e9:2c:0a:1a:6e:b7:ce:3a:48:
                    69:08:4b:98:d2:52:e5:90:cf:c2:8b:20:83:fd:4c:
                    f9:51:ff:1a:ff:9a:f1:76:72:98:5b:22:30:94:80:
                    e5:f3
                Exponent: 65537 (0x10001)
        X509v3 extensions:
            X509v3 Basic Constraints: 
                CA:FALSE
            X509v3 Subject Key Identifier: 
                E4:92:0F:9F:EB:AA:DA:E2:EA:EF:06:8E:4E:DA:55:57:87:FA:D9:A8
            X509v3 Authority Key Identifier: 
                keyid:D9:D4:8C:20:BC:EB:38:17:D5:4B:52:F8:AA:C5:D2:44:DD:A2:6A:3B
                DirName:/C=US/ST=California/L=San Francisco/O=Copyleft Certificate Co/OU=My Organizational Unit/CN=ChangeMe/emailAddress=me@example.net
                serial:C2:48:34:65:BF:AB:EB:AA

            X509v3 Extended Key Usage: 
                TLS Web Client Authentication
            X509v3 Key Usage: 
                Digital Signature
    Signature Algorithm: sha256WithRSAEncryption
         b7:a4:92:3b:0a:64:b4:b6:e0:75:17:68:6a:71:f0:85:8a:db:
         1d:5c:2e:56:29:e5:24:34:a3:e9:de:16:36:58:b4:81:33:9a:
         1b:cc:f9:13:59:fe:53:87:fd:ae:93:d7:4b:b4:7c:b7:b7:e9:
         63:74:5a:73:c9:42:d0:e5:91:b1:fd:bb:f4:33:03:c1:59:39:
         d6:b7:62:93:a1:d3:af:a0:22:4c:30:ec:82:20:46:82:05:fc:
         9f:c2:16:53:65:59:fb:ce:4d:fa:b6:87:1d:5f:28:da:11:d3:
         66:50:cb:72:19:ae:d0:8f:31:a9:b9:2f:ed:6f:70:dd:88:51:
         be:51:bb:7d:c2:e2:e2:4a:b1:1d:7b:a3:cf:7a:a5:bb:d2:8e:
         00:1e:f2:48:09:75:a6:6b:7c:43:a3:8c:f5:9a:56:46:63:fa:
         2f:d3:ee:c3:f0:21:60:14:1c:e5:c6:67:b1:a7:64:73:00:8c:
         1f:c3:31:88:88:bc:0b:77:e8:f6:c0:2e:f8:1a:e1:a3:ca:5b:
         a9:50:20:bc:77:d6:52:87:06:d9:f7:45:be:a9:f8:e9:d4:ee:
         da:98:94:93:14:cc:ee:7c:77:b1:3f:3c:19:f1:2b:c3:eb:9e:
         fd:da:db:64:58:fa:35:8a:61:4e:49:bb:ce:40:88:d8:dd:ad:
         89:c1:c3:fd
-----BEGIN CERTIFICATE-----
MIIFKTCCBBGgAwIBAgIQcockVK9UtoFlEPtVKfDJ7DANBgkqhkiG9w0BAQsFADCB
rzELMAkGA1UEBhMCVVMxEzARBgNVBAgMCkNhbGlmb3JuaWExFjAUBgNVBAcMDVNh
biBGcmFuY2lzY28xIDAeBgNVBAoMF0NvcHlsZWZ0IENlcnRpZmljYXRlIENvMR8w
HQYDVQQLDBZNeSBPcmdhbml6YXRpb25hbCBVbml0MREwDwYDVQQDDAhDaGFuZ2VN
ZTEdMBsGCSqGSIb3DQEJARYObWVAZXhhbXBsZS5uZXQwHhcNMjMxMTEwMTcyNzE2
WhcNMjQxMTA5MTcyNzE2WjCBtTELMAkGA1UEBhMCVVMxCzAJBgNVBAgMAk9IMRMw
EQYDVQQHDApDaW5jaW5uYXRpMSEwHwYDVQQKDBhVbml2ZXJzaXR5IG9mIENpbmNp
bm5hdGkxJDAiBgNVBAsMG0RlcHRfRWxlY19Db21fIEVuZ19Db21fU2NpLjERMA8G
A1UEAwwIY2xpZW50NDMxKDAmBgkqhkiG9w0BCQEWGWZyYW5jb0BnYXVzcy5lY2Vj
cy51Yy5lZHUwggEiMA0GCSqGSIb3DQEBAQUAA4IBDwAwggEKAoIBAQCvNj0f/vv7
AuAFWt7p/9Z81VGg49IK6wo8ybiWnZCQvEhLNIhK4Wy8K/aRi58nEphgW9QioKtP
r0uU/vI4Wsrjb+Tl5LLWUp3Yp8Yr8JBosaCdqwLkfqxyrsqAHqNk38YtD78csuTW
cPRRjsSn4CRmEgEBb2a9HdqqTxfHQyohZ89wiaZlVkRcyoeEWbo3LDBFzQQ7HOG2
16IRjwBAEey8U3fw1SLRZFa+5AH5PKYD3y9GxAS1Y4uB/NaHLFHUT3UWCXFVky6c
glZ6hYCOeUnd35/ki42k6uksChput846SGkIS5jSUuWQz8KLIIP9TPlR/xr/mvF2
cphbIjCUgOXzAgMBAAGjggE3MIIBMzAJBgNVHRMEAjAAMB0GA1UdDgQWBBTkkg+f
66ra4urvBo5O2lVXh/rZqDCB5AYDVR0jBIHcMIHZgBTZ1IwgvOs4F9VLUviqxdJE
3aJqO6GBtaSBsjCBrzELMAkGA1UEBhMCVVMxEzARBgNVBAgMCkNhbGlmb3JuaWEx
FjAUBgNVBAcMDVNhbiBGcmFuY2lzY28xIDAeBgNVBAoMF0NvcHlsZWZ0IENlcnRp
ZmljYXRlIENvMR8wHQYDVQQLDBZNeSBPcmdhbml6YXRpb25hbCBVbml0MREwDwYD
VQQDDAhDaGFuZ2VNZTEdMBsGCSqGSIb3DQEJARYObWVAZXhhbXBsZS5uZXSCCQDC
SDRlv6vrqjATBgNVHSUEDDAKBggrBgEFBQcDAjALBgNVHQ8EBAMCB4AwDQYJKoZI
hvcNAQELBQADggEBALekkjsKZLS24HUXaGpx8IWK2x1cLlYp5SQ0o+neFjZYtIEz
mhvM+RNZ/lOH/a6T10u0fLe36WN0WnPJQtDlkbH9u/QzA8FZOda3YpOh06+gIkww
7IIgRoIF/J/CFlNlWfvOTfq2hx1fKNoR02ZQy3IZrtCPMam5L+1vcN2IUb5Ru33C
4uJKsR17o896pbvSjgAe8kgJdaZrfEOjjPWaVkZj+i/T7sPwIWAUHOXGZ7GnZHMA
jB/DMYiIvAt36PbALvga4aPKW6lQILx31lKHBtn3Rb6p+OnU7tqYlJMUzO58d7E/
PBnxK8Prnv3a22RY+jWKYU5Ju85AiNjdrYnBw/0=
-----END CERTIFICATE-----
