Certificate:
    Data:
        Version: 3 (0x2)
        Serial Number:
            22:7f:65:f1:e4:58:88:82:3f:b9:5d:c2:42:89:48:09
    Signature Algorithm: sha256WithRSAEncryption
        Issuer: C=US, ST=California, L=San Francisco, O=Copyleft Certificate Co, OU=My Organizational Unit, CN=ChangeMe/emailAddress=me@example.net
        Validity
            Not Before: Nov 13 11:10:17 2023 GMT
            Not After : Nov 12 11:10:17 2024 GMT
        Subject: C=US, ST=OH, L=Cincinnati, O=University of Cincinnati, OU=Dept. Elec. Comp. Eng. Comp. Sci., CN=client3/emailAddress=franco@gauss.ececs.uc.edu
        Subject Public Key Info:
            Public Key Algorithm: rsaEncryption
                Public-Key: (2048 bit)
                Modulus:
                    00:e9:50:06:be:50:4a:31:f2:c8:d3:21:d0:cb:d0:
                    14:a3:81:06:31:9b:be:cd:b0:c8:15:c3:12:bc:b7:
                    79:5d:3c:09:3b:8f:db:75:71:61:96:77:8e:37:a7:
                    0c:b4:e0:8a:67:42:0e:ce:2c:e6:09:95:74:66:73:
                    58:69:fb:7a:4b:db:d9:93:65:60:0c:2c:37:dc:3b:
                    db:f3:5a:e9:95:01:39:d1:a9:c8:3f:04:89:60:4c:
                    f2:9a:4e:c4:24:3f:d0:e5:f2:22:e9:7c:42:bb:ec:
                    69:0a:23:ea:9c:d5:b8:e9:e9:8d:44:58:a0:3c:21:
                    03:d2:d8:3f:9e:aa:bb:c7:29:29:a8:73:17:08:bf:
                    29:66:df:75:ca:44:e1:7b:e6:5d:39:91:05:a3:67:
                    49:be:cb:cc:fc:03:95:45:0c:d3:dd:a3:6e:63:f4:
                    ec:69:ae:59:74:d9:09:21:fd:4b:80:90:79:a9:a3:
                    6d:42:b4:ad:6a:92:1a:59:4c:3a:aa:88:01:20:1e:
                    9b:dd:cb:03:28:48:54:58:cb:ba:d9:9f:85:3a:a0:
                    51:4d:44:c2:2e:3a:63:5a:94:6d:e5:a7:bb:ae:e6:
                    7d:ac:be:6f:6c:dd:29:a9:76:75:e9:26:f5:de:aa:
                    ab:ec:9a:57:3f:1a:08:1c:15:14:dc:52:be:a5:c2:
                    49:39
                Exponent: 65537 (0x10001)
        X509v3 extensions:
            X509v3 Basic Constraints: 
                CA:FALSE
            X509v3 Subject Key Identifier: 
                FA:81:1F:AC:CF:C9:80:D5:8F:6F:12:E1:46:88:03:D2:CB:1D:FF:36
            X509v3 Authority Key Identifier: 
                keyid:1A:DC:98:F2:69:C1:F7:C8:1D:21:43:B0:3C:79:50:4D:D8:2B:87:54
                DirName:/C=US/ST=California/L=San Francisco/O=Copyleft Certificate Co/OU=My Organizational Unit/CN=ChangeMe/emailAddress=me@example.net
                serial:8C:9B:8E:88:7A:AC:6D:8B

            X509v3 Extended Key Usage: 
                TLS Web Client Authentication
            X509v3 Key Usage: 
                Digital Signature
    Signature Algorithm: sha256WithRSAEncryption
         28:7b:53:83:71:3d:63:2a:1a:d3:80:3f:81:0e:da:e0:14:af:
         18:84:a4:9d:22:be:ec:9d:a3:1d:82:af:60:97:6d:50:14:8c:
         63:09:fd:a3:b9:bb:be:ac:0b:f0:ac:b5:95:3b:e5:07:20:f3:
         a6:b9:30:54:79:4e:cc:3d:3d:10:2b:91:27:5d:2d:8a:73:e4:
         3e:ae:68:71:e1:c1:dc:78:f1:8d:59:a9:7c:ab:4b:2d:09:30:
         14:09:45:86:d6:b4:ad:f7:20:78:6d:90:44:10:24:a6:1a:e6:
         e6:6c:ea:30:00:20:a0:3a:4f:bc:8c:66:01:52:da:7e:df:4d:
         99:88:e5:8e:a3:b3:47:26:b7:92:d4:ba:2b:f1:11:12:43:70:
         2e:fe:50:8b:00:fb:16:0d:b5:99:90:6d:2a:f4:8c:7a:ca:6f:
         89:c2:21:e6:ec:71:d6:b9:52:ef:42:a7:3c:a1:35:67:48:b7:
         20:b8:c0:1c:cc:ff:1e:08:d3:b2:f4:3a:73:d6:a2:87:db:01:
         b5:3d:de:d4:5f:28:84:5b:28:c3:13:60:12:dc:0f:b5:90:64:
         38:9e:b0:08:1c:a5:7b:16:a3:12:48:62:4a:c6:15:43:66:5c:
         f6:cd:9a:a9:0a:d5:95:83:7a:14:1d:42:ac:64:ae:86:6c:1d:
         b0:a8:53:6e
-----BEGIN CERTIFICATE-----
MIIFLjCCBBagAwIBAgIQIn9l8eRYiII/uV3CQolICTANBgkqhkiG9w0BAQsFADCB
rzELMAkGA1UEBhMCVVMxEzARBgNVBAgMCkNhbGlmb3JuaWExFjAUBgNVBAcMDVNh
biBGcmFuY2lzY28xIDAeBgNVBAoMF0NvcHlsZWZ0IENlcnRpZmljYXRlIENvMR8w
HQYDVQQLDBZNeSBPcmdhbml6YXRpb25hbCBVbml0MREwDwYDVQQDDAhDaGFuZ2VN
ZTEdMBsGCSqGSIb3DQEJARYObWVAZXhhbXBsZS5uZXQwHhcNMjMxMTEzMTExMDE3
WhcNMjQxMTEyMTExMDE3WjCBujELMAkGA1UEBhMCVVMxCzAJBgNVBAgMAk9IMRMw
EQYDVQQHDApDaW5jaW5uYXRpMSEwHwYDVQQKDBhVbml2ZXJzaXR5IG9mIENpbmNp
bm5hdGkxKjAoBgNVBAsMIURlcHQuIEVsZWMuIENvbXAuIEVuZy4gQ29tcC4gU2Np
LjEQMA4GA1UEAwwHY2xpZW50MzEoMCYGCSqGSIb3DQEJARYZZnJhbmNvQGdhdXNz
LmVjZWNzLnVjLmVkdTCCASIwDQYJKoZIhvcNAQEBBQADggEPADCCAQoCggEBAOlQ
Br5QSjHyyNMh0MvQFKOBBjGbvs2wyBXDEry3eV08CTuP23VxYZZ3jjenDLTgimdC
Ds4s5gmVdGZzWGn7ekvb2ZNlYAwsN9w72/Na6ZUBOdGpyD8EiWBM8ppOxCQ/0OXy
Iul8QrvsaQoj6pzVuOnpjURYoDwhA9LYP56qu8cpKahzFwi/KWbfdcpE4XvmXTmR
BaNnSb7LzPwDlUUM092jbmP07GmuWXTZCSH9S4CQeamjbUK0rWqSGllMOqqIASAe
m93LAyhIVFjLutmfhTqgUU1Ewi46Y1qUbeWnu67mfay+b2zdKal2dekm9d6qq+ya
Vz8aCBwVFNxSvqXCSTkCAwEAAaOCATcwggEzMAkGA1UdEwQCMAAwHQYDVR0OBBYE
FPqBH6zPyYDVj28S4UaIA9LLHf82MIHkBgNVHSMEgdwwgdmAFBrcmPJpwffIHSFD
sDx5UE3YK4dUoYG1pIGyMIGvMQswCQYDVQQGEwJVUzETMBEGA1UECAwKQ2FsaWZv
cm5pYTEWMBQGA1UEBwwNU2FuIEZyYW5jaXNjbzEgMB4GA1UECgwXQ29weWxlZnQg
Q2VydGlmaWNhdGUgQ28xHzAdBgNVBAsMFk15IE9yZ2FuaXphdGlvbmFsIFVuaXQx
ETAPBgNVBAMMCENoYW5nZU1lMR0wGwYJKoZIhvcNAQkBFg5tZUBleGFtcGxlLm5l
dIIJAIybjoh6rG2LMBMGA1UdJQQMMAoGCCsGAQUFBwMCMAsGA1UdDwQEAwIHgDAN
BgkqhkiG9w0BAQsFAAOCAQEAKHtTg3E9Yyoa04A/gQ7a4BSvGISknSK+7J2jHYKv
YJdtUBSMYwn9o7m7vqwL8Ky1lTvlByDzprkwVHlOzD09ECuRJ10tinPkPq5oceHB
3HjxjVmpfKtLLQkwFAlFhta0rfcgeG2QRBAkphrm5mzqMAAgoDpPvIxmAVLaft9N
mYjljqOzRya3ktS6K/EREkNwLv5QiwD7Fg21mZBtKvSMespvicIh5uxx1rlS70Kn
PKE1Z0i3ILjAHMz/HgjTsvQ6c9aih9sBtT3e1F8ohFsowxNgEtwPtZBkOJ6wCByl
exajEkhiSsYVQ2Zc9s2aqQrVlYN6FB1CrGSuhmwdsKhTbg==
-----END CERTIFICATE-----
