Certificate:
    Data:
        Version: 3 (0x2)
        Serial Number:
            80:3e:b7:9b:fd:72:6c:62:89:3b:06:f9:bb:ef:c7:69
    Signature Algorithm: sha256WithRSAEncryption
        Issuer: C=US, ST=California, L=San Francisco, O=Copyleft Certificate Co, OU=My Organizational Unit, CN=ChangeMe/emailAddress=me@example.net
        Validity
            Not Before: Jan 23 18:29:55 2021 GMT
            Not After : Jan 23 18:29:55 2022 GMT
        Subject: C=US, ST=OH, L=Cincinnati, O=University of Cincinnati, OU=Dept. Electrical Eng. and Computer Sci., CN=client112/emailAddress=franco@gauss.ececs.uc.edu
        Subject Public Key Info:
            Public Key Algorithm: rsaEncryption
                Public-Key: (2048 bit)
                Modulus:
                    00:a7:e0:1d:2b:68:0d:49:1c:23:87:bf:d4:23:23:
                    06:20:46:5b:e9:a4:b5:66:6f:a8:63:63:58:e3:86:
                    db:73:fe:c4:3c:b4:83:2a:6a:c0:d4:02:e4:49:70:
                    1f:7c:41:b5:62:20:fe:18:81:ac:55:34:86:eb:f7:
                    db:8d:d6:a2:99:33:6d:38:a3:d0:00:62:4d:95:ad:
                    9f:14:ab:29:ae:ab:30:c5:04:aa:02:ff:48:d3:b7:
                    02:0a:74:8c:ef:9c:13:2b:4a:19:22:3b:4a:40:11:
                    9c:63:0e:29:76:c8:90:5e:f6:a3:45:d5:47:d9:36:
                    de:db:56:63:6e:91:4b:6c:cd:af:8c:61:67:fd:ec:
                    9f:4e:5c:6a:77:fc:38:23:38:cf:a1:82:a9:8f:bc:
                    b4:a5:58:3a:fa:55:c7:b9:b7:ee:03:db:84:52:c2:
                    c3:65:fb:2d:d3:eb:f3:12:c6:c7:cd:36:3b:6e:cd:
                    2d:b4:8c:f8:73:8d:03:e4:2f:09:55:b0:16:f2:c9:
                    b3:aa:bd:53:e2:00:23:1d:3f:a8:01:de:5d:4e:cd:
                    3c:40:89:c3:7d:82:ca:b4:ce:8f:8f:5b:e4:89:b2:
                    6c:b0:4c:b2:06:55:c0:01:03:e1:e8:80:c5:7d:78:
                    ee:81:78:99:a6:0a:d1:52:cc:27:e3:af:61:5f:7e:
                    f3:cd
                Exponent: 65537 (0x10001)
        X509v3 extensions:
            X509v3 Basic Constraints: 
                CA:FALSE
            X509v3 Subject Key Identifier: 
                A3:40:CD:21:BD:D4:BD:0D:C4:93:25:3C:10:09:DD:D7:41:A3:2E:C3
            X509v3 Authority Key Identifier: 
                keyid:EF:DC:B6:3D:4B:FD:A7:87:05:C5:22:3D:8B:DC:BF:99:2A:EE:E4:DB
                DirName:/C=US/ST=California/L=San Francisco/O=Copyleft Certificate Co/OU=My Organizational Unit/CN=ChangeMe/emailAddress=me@example.net
                serial:87:1E:1D:DC:6B:8C:66:88

            X509v3 Extended Key Usage: 
                TLS Web Client Authentication
            X509v3 Key Usage: 
                Digital Signature
    Signature Algorithm: sha256WithRSAEncryption
         11:34:f9:a3:8c:1b:69:8b:0d:f9:18:77:51:b1:04:2f:8e:da:
         c7:e8:dc:dc:82:bc:9b:80:bc:89:b8:0b:a1:97:fa:4a:94:ef:
         43:d8:92:e5:6d:3d:89:49:3c:02:e8:67:98:87:be:6e:f8:bf:
         ee:48:a5:a2:22:cb:e5:8e:b9:db:3c:ca:da:3d:4a:12:9d:90:
         98:11:6d:0b:2f:5b:22:10:b9:ef:3e:9f:35:c7:de:27:1d:6f:
         e9:bf:33:05:5b:ac:7b:18:70:6b:38:09:fb:68:44:fa:b7:1a:
         bb:2d:66:fc:ef:da:69:8e:d7:9c:6b:69:fe:77:a7:02:23:9f:
         78:c4:16:a5:3b:42:9b:f2:aa:d2:f8:c2:aa:9e:69:99:06:b3:
         e3:d5:7c:14:41:a9:19:7c:53:ef:fa:f2:45:9f:5a:01:05:c2:
         93:57:8d:88:9f:5e:41:bc:89:f9:e7:96:0f:69:72:a1:52:bc:
         3e:51:7e:06:00:83:d6:1f:60:71:2d:82:94:9d:e5:8f:21:67:
         f6:62:1c:49:85:72:f9:c6:f9:99:5d:b4:97:dd:79:c6:f9:0d:
         64:fd:29:0e:4c:81:a7:f7:03:39:e8:1a:8d:67:4b:a6:bc:dc:
         70:77:6b:bf:13:3d:45:2a:d7:42:ed:de:1e:d7:7c:c2:22:b9:
         fe:85:77:be
-----BEGIN CERTIFICATE-----
MIIFNzCCBB+gAwIBAgIRAIA+t5v9cmxiiTsG+bvvx2kwDQYJKoZIhvcNAQELBQAw
ga8xCzAJBgNVBAYTAlVTMRMwEQYDVQQIDApDYWxpZm9ybmlhMRYwFAYDVQQHDA1T
YW4gRnJhbmNpc2NvMSAwHgYDVQQKDBdDb3B5bGVmdCBDZXJ0aWZpY2F0ZSBDbzEf
MB0GA1UECwwWTXkgT3JnYW5pemF0aW9uYWwgVW5pdDERMA8GA1UEAwwIQ2hhbmdl
TWUxHTAbBgkqhkiG9w0BCQEWDm1lQGV4YW1wbGUubmV0MB4XDTIxMDEyMzE4Mjk1
NVoXDTIyMDEyMzE4Mjk1NVowgcIxCzAJBgNVBAYTAlVTMQswCQYDVQQIDAJPSDET
MBEGA1UEBwwKQ2luY2lubmF0aTEhMB8GA1UECgwYVW5pdmVyc2l0eSBvZiBDaW5j
aW5uYXRpMTAwLgYDVQQLDCdEZXB0LiBFbGVjdHJpY2FsIEVuZy4gYW5kIENvbXB1
dGVyIFNjaS4xEjAQBgNVBAMMCWNsaWVudDExMjEoMCYGCSqGSIb3DQEJARYZZnJh
bmNvQGdhdXNzLmVjZWNzLnVjLmVkdTCCASIwDQYJKoZIhvcNAQEBBQADggEPADCC
AQoCggEBAKfgHStoDUkcI4e/1CMjBiBGW+mktWZvqGNjWOOG23P+xDy0gypqwNQC
5ElwH3xBtWIg/hiBrFU0huv3243WopkzbTij0ABiTZWtnxSrKa6rMMUEqgL/SNO3
Agp0jO+cEytKGSI7SkARnGMOKXbIkF72o0XVR9k23ttWY26RS2zNr4xhZ/3sn05c
anf8OCM4z6GCqY+8tKVYOvpVx7m37gPbhFLCw2X7LdPr8xLGx802O27NLbSM+HON
A+QvCVWwFvLJs6q9U+IAIx0/qAHeXU7NPECJw32CyrTOj49b5ImybLBMsgZVwAED
4eiAxX147oF4maYK0VLMJ+OvYV9+880CAwEAAaOCATcwggEzMAkGA1UdEwQCMAAw
HQYDVR0OBBYEFKNAzSG91L0NxJMlPBAJ3ddBoy7DMIHkBgNVHSMEgdwwgdmAFO/c
tj1L/aeHBcUiPYvcv5kq7uTboYG1pIGyMIGvMQswCQYDVQQGEwJVUzETMBEGA1UE
CAwKQ2FsaWZvcm5pYTEWMBQGA1UEBwwNU2FuIEZyYW5jaXNjbzEgMB4GA1UECgwX
Q29weWxlZnQgQ2VydGlmaWNhdGUgQ28xHzAdBgNVBAsMFk15IE9yZ2FuaXphdGlv
bmFsIFVuaXQxETAPBgNVBAMMCENoYW5nZU1lMR0wGwYJKoZIhvcNAQkBFg5tZUBl
eGFtcGxlLm5ldIIJAIceHdxrjGaIMBMGA1UdJQQMMAoGCCsGAQUFBwMCMAsGA1Ud
DwQEAwIHgDANBgkqhkiG9w0BAQsFAAOCAQEAETT5o4wbaYsN+Rh3UbEEL47ax+jc
3IK8m4C8ibgLoZf6SpTvQ9iS5W09iUk8AuhnmIe+bvi/7kiloiLL5Y652zzK2j1K
Ep2QmBFtCy9bIhC57z6fNcfeJx1v6b8zBVusexhwazgJ+2hE+rcauy1m/O/aaY7X
nGtp/nenAiOfeMQWpTtCm/Kq0vjCqp5pmQaz49V8FEGpGXxT7/ryRZ9aAQXCk1eN
iJ9eQbyJ+eeWD2lyoVK8PlF+BgCD1h9gcS2ClJ3ljyFn9mIcSYVy+cb5mV20l915
xvkNZP0pDkyBp/cDOegajWdLprzccHdrvxM9RSrXQu3eHtd8wiK5/oV3vg==
-----END CERTIFICATE-----
