Certificate:
    Data:
        Version: 3 (0x2)
        Serial Number:
            36:9a:01:de:73:38:18:70:57:6a:23:0a:a0:0d:d2:17
    Signature Algorithm: sha256WithRSAEncryption
        Issuer: C=US, ST=California, L=San Francisco, O=Copyleft Certificate Co, OU=My Organizational Unit, CN=ChangeMe/emailAddress=me@example.net
        Validity
            Not Before: Nov 10 17:25:40 2023 GMT
            Not After : Nov  9 17:25:40 2024 GMT
        Subject: C=US, ST=OH, L=Cincinnati, O=University of Cincinnati, OU=Dept_Elec_Com_ Eng_Com_Sci., CN=client19/emailAddress=franco@gauss.ececs.uc.edu
        Subject Public Key Info:
            Public Key Algorithm: rsaEncryption
                Public-Key: (2048 bit)
                Modulus:
                    00:b6:58:26:c1:e8:eb:5c:49:4a:02:27:e9:f1:59:
                    9a:b4:89:2b:e6:57:9e:7b:7e:f2:ef:ee:94:df:46:
                    db:f6:cb:94:11:83:75:88:d3:91:b6:a1:db:d9:1d:
                    a6:95:d1:64:68:05:5f:e9:8f:54:40:df:01:6c:31:
                    eb:8f:f4:c9:37:09:3c:e7:fd:be:cd:c4:82:b7:18:
                    65:78:11:a2:cd:d4:f1:96:23:fe:30:71:b0:c5:3b:
                    84:e7:9d:49:7f:85:46:a6:08:4f:c7:49:86:e9:97:
                    8e:d8:4f:bd:24:66:06:fe:9b:1f:e1:26:97:45:5c:
                    74:6f:20:e6:10:9c:7a:9a:43:81:ee:a9:56:7f:ab:
                    bf:87:09:b3:2b:d7:f0:96:3e:85:06:60:3b:82:75:
                    fc:c2:9c:8b:20:b9:0f:4a:1b:84:7d:2f:8e:20:be:
                    b0:79:7e:dc:18:72:a3:94:6c:ea:c1:8e:3d:42:b0:
                    47:fa:c3:92:a3:39:12:b1:6f:50:32:2e:88:f6:c2:
                    8b:52:b5:41:12:c2:5e:84:6a:79:b3:cf:98:c5:82:
                    be:62:0c:0a:aa:f1:16:85:e7:2e:81:7f:29:9a:bb:
                    a9:ad:4b:20:90:8e:4a:0c:9e:28:30:a1:5c:b7:8c:
                    d3:fd:01:f8:d3:29:b4:45:a5:f9:45:e3:0b:3d:8e:
                    15:ff
                Exponent: 65537 (0x10001)
        X509v3 extensions:
            X509v3 Basic Constraints: 
                CA:FALSE
            X509v3 Subject Key Identifier: 
                D3:69:B7:10:5B:6C:9D:66:E1:6C:12:56:32:C3:8E:86:B3:A6:A0:2C
            X509v3 Authority Key Identifier: 
                keyid:D9:D4:8C:20:BC:EB:38:17:D5:4B:52:F8:AA:C5:D2:44:DD:A2:6A:3B
                DirName:/C=US/ST=California/L=San Francisco/O=Copyleft Certificate Co/OU=My Organizational Unit/CN=ChangeMe/emailAddress=me@example.net
                serial:C2:48:34:65:BF:AB:EB:AA

            X509v3 Extended Key Usage: 
                TLS Web Client Authentication
            X509v3 Key Usage: 
                Digital Signature
    Signature Algorithm: sha256WithRSAEncryption
         3e:b6:3b:a9:16:63:99:bf:cd:c3:17:c7:9c:de:b6:65:1b:a0:
         91:03:c1:3c:ea:8c:29:2a:92:e7:3f:48:b9:ac:4f:04:9c:c2:
         95:b5:fe:94:1a:ea:41:72:ab:f0:f5:41:73:e9:18:a3:06:84:
         f4:59:67:b0:10:df:29:01:c6:6e:68:de:e6:91:9c:3b:cb:5b:
         ca:3f:19:91:ad:a5:1e:13:0e:b6:a0:dd:c1:e8:9e:df:43:08:
         02:dd:85:8c:3a:0b:ca:01:ae:60:ed:36:6a:81:1a:4c:43:12:
         fd:31:40:91:8d:4d:85:8a:c2:94:ec:1a:4a:fe:db:eb:b4:40:
         fe:ed:4b:55:9b:4d:42:e6:9e:3b:ea:34:be:8a:cc:38:4b:a5:
         55:b7:7c:8c:b5:b2:2c:2e:41:b3:d6:d5:da:2f:59:f3:0f:91:
         c8:30:71:e9:15:3b:a4:26:8d:d3:e1:58:19:84:da:2f:0a:1e:
         40:6e:3f:9f:51:d2:b0:54:1a:ee:5a:a1:ac:02:e5:c1:f4:17:
         0d:4f:33:e5:74:3e:a9:56:2e:ce:dd:2b:d4:3c:6c:e2:10:87:
         79:48:b7:70:c9:a6:2b:0d:63:59:ad:e6:76:b7:a5:32:3b:27:
         8d:67:fb:8d:2f:80:64:c7:b1:d8:87:ad:c8:eb:b2:5f:1a:d2:
         1e:4f:3f:5d
-----BEGIN CERTIFICATE-----
MIIFKTCCBBGgAwIBAgIQNpoB3nM4GHBXaiMKoA3SFzANBgkqhkiG9w0BAQsFADCB
rzELMAkGA1UEBhMCVVMxEzARBgNVBAgMCkNhbGlmb3JuaWExFjAUBgNVBAcMDVNh
biBGcmFuY2lzY28xIDAeBgNVBAoMF0NvcHlsZWZ0IENlcnRpZmljYXRlIENvMR8w
HQYDVQQLDBZNeSBPcmdhbml6YXRpb25hbCBVbml0MREwDwYDVQQDDAhDaGFuZ2VN
ZTEdMBsGCSqGSIb3DQEJARYObWVAZXhhbXBsZS5uZXQwHhcNMjMxMTEwMTcyNTQw
WhcNMjQxMTA5MTcyNTQwWjCBtTELMAkGA1UEBhMCVVMxCzAJBgNVBAgMAk9IMRMw
EQYDVQQHDApDaW5jaW5uYXRpMSEwHwYDVQQKDBhVbml2ZXJzaXR5IG9mIENpbmNp
bm5hdGkxJDAiBgNVBAsMG0RlcHRfRWxlY19Db21fIEVuZ19Db21fU2NpLjERMA8G
A1UEAwwIY2xpZW50MTkxKDAmBgkqhkiG9w0BCQEWGWZyYW5jb0BnYXVzcy5lY2Vj
cy51Yy5lZHUwggEiMA0GCSqGSIb3DQEBAQUAA4IBDwAwggEKAoIBAQC2WCbB6Otc
SUoCJ+nxWZq0iSvmV557fvLv7pTfRtv2y5QRg3WI05G2odvZHaaV0WRoBV/pj1RA
3wFsMeuP9Mk3CTzn/b7NxIK3GGV4EaLN1PGWI/4wcbDFO4TnnUl/hUamCE/HSYbp
l47YT70kZgb+mx/hJpdFXHRvIOYQnHqaQ4HuqVZ/q7+HCbMr1/CWPoUGYDuCdfzC
nIsguQ9KG4R9L44gvrB5ftwYcqOUbOrBjj1CsEf6w5KjORKxb1AyLoj2wotStUES
wl6Eanmzz5jFgr5iDAqq8RaF5y6Bfymau6mtSyCQjkoMnigwoVy3jNP9AfjTKbRF
pflF4ws9jhX/AgMBAAGjggE3MIIBMzAJBgNVHRMEAjAAMB0GA1UdDgQWBBTTabcQ
W2ydZuFsElYyw46Gs6agLDCB5AYDVR0jBIHcMIHZgBTZ1IwgvOs4F9VLUviqxdJE
3aJqO6GBtaSBsjCBrzELMAkGA1UEBhMCVVMxEzARBgNVBAgMCkNhbGlmb3JuaWEx
FjAUBgNVBAcMDVNhbiBGcmFuY2lzY28xIDAeBgNVBAoMF0NvcHlsZWZ0IENlcnRp
ZmljYXRlIENvMR8wHQYDVQQLDBZNeSBPcmdhbml6YXRpb25hbCBVbml0MREwDwYD
VQQDDAhDaGFuZ2VNZTEdMBsGCSqGSIb3DQEJARYObWVAZXhhbXBsZS5uZXSCCQDC
SDRlv6vrqjATBgNVHSUEDDAKBggrBgEFBQcDAjALBgNVHQ8EBAMCB4AwDQYJKoZI
hvcNAQELBQADggEBAD62O6kWY5m/zcMXx5zetmUboJEDwTzqjCkqkuc/SLmsTwSc
wpW1/pQa6kFyq/D1QXPpGKMGhPRZZ7AQ3ykBxm5o3uaRnDvLW8o/GZGtpR4TDrag
3cHont9DCALdhYw6C8oBrmDtNmqBGkxDEv0xQJGNTYWKwpTsGkr+2+u0QP7tS1Wb
TULmnjvqNL6KzDhLpVW3fIy1siwuQbPW1dovWfMPkcgwcekVO6QmjdPhWBmE2i8K
HkBuP59R0rBUGu5aoawC5cH0Fw1PM+V0PqlWLs7dK9Q8bOIQh3lIt3DJpisNY1mt
5na3pTI7J41n+40vgGTHsdiHrcjrsl8a0h5PP10=
-----END CERTIFICATE-----
