Certificate:
    Data:
        Version: 3 (0x2)
        Serial Number:
            2b:f2:89:eb:50:be:f7:84:99:b3:a6:b9:18:b3:cd:d6
    Signature Algorithm: sha256WithRSAEncryption
        Issuer: C=US, ST=California, L=San Francisco, O=Copyleft Certificate Co, OU=My Organizational Unit, CN=ChangeMe/emailAddress=me@example.net
        Validity
            Not Before: Nov 13 11:11:13 2023 GMT
            Not After : Nov 12 11:11:13 2024 GMT
        Subject: C=US, ST=OH, L=Cincinnati, O=University of Cincinnati, OU=Dept. Elec. Comp. Eng. Comp. Sci., CN=client17/emailAddress=franco@gauss.ececs.uc.edu
        Subject Public Key Info:
            Public Key Algorithm: rsaEncryption
                Public-Key: (2048 bit)
                Modulus:
                    00:df:fa:23:17:fe:bf:a7:40:3a:27:a1:33:3c:05:
                    2f:a0:5c:0b:1a:13:1e:cc:6f:a1:ca:92:b0:54:9b:
                    49:58:ac:23:75:61:3d:d5:3f:b7:6e:96:63:97:10:
                    df:ce:d9:db:f9:b1:30:36:07:d5:15:d0:6a:62:61:
                    cb:04:a4:6d:c9:b8:84:bc:ba:1c:eb:3f:97:3c:39:
                    9c:f1:79:01:70:04:cd:f5:d7:f1:17:b9:ef:3d:8f:
                    36:bb:d7:5f:4d:28:a7:17:47:d9:e2:a4:08:0f:53:
                    33:94:f8:97:5c:03:fa:4e:09:90:4f:e7:1b:df:7b:
                    f6:bd:e0:5f:26:da:5b:0c:05:01:77:6e:57:61:6d:
                    5e:a9:48:34:4c:52:37:41:25:48:07:3d:df:c9:3d:
                    c2:ca:70:d6:3d:6f:32:92:8e:ef:fe:50:c4:e0:5c:
                    e4:ce:c1:76:77:80:02:e9:6c:c5:76:ec:56:99:05:
                    6e:0f:73:83:ee:13:a5:3b:86:f3:48:27:b6:39:43:
                    2e:d4:47:da:fc:34:13:73:2e:71:1e:89:96:fc:cb:
                    6b:f9:d5:a3:19:46:17:4c:6e:5b:37:45:99:92:d2:
                    88:bf:f4:78:a5:59:ac:7a:b4:ff:b3:bd:fa:34:e4:
                    e5:1c:2a:52:c3:06:43:7e:6a:b8:ff:92:e7:b4:ad:
                    46:2b
                Exponent: 65537 (0x10001)
        X509v3 extensions:
            X509v3 Basic Constraints: 
                CA:FALSE
            X509v3 Subject Key Identifier: 
                93:FB:20:78:53:23:A0:1E:DB:97:0B:E2:45:0C:0D:7F:45:DA:33:B3
            X509v3 Authority Key Identifier: 
                keyid:1A:DC:98:F2:69:C1:F7:C8:1D:21:43:B0:3C:79:50:4D:D8:2B:87:54
                DirName:/C=US/ST=California/L=San Francisco/O=Copyleft Certificate Co/OU=My Organizational Unit/CN=ChangeMe/emailAddress=me@example.net
                serial:8C:9B:8E:88:7A:AC:6D:8B

            X509v3 Extended Key Usage: 
                TLS Web Client Authentication
            X509v3 Key Usage: 
                Digital Signature
    Signature Algorithm: sha256WithRSAEncryption
         96:4c:58:5d:bc:70:be:c9:0d:40:47:94:3e:b7:b1:75:2b:ec:
         77:b3:2c:42:e6:75:46:92:5f:18:5a:56:5c:6a:e4:9c:6d:a9:
         3d:45:30:76:a7:63:ad:e5:5f:b5:3f:47:a8:f6:f4:9b:4f:5b:
         14:79:fc:33:74:f3:de:3b:78:63:9e:73:88:e4:83:3c:d5:03:
         3a:3e:ee:07:5f:92:13:a9:e0:ef:8a:48:ff:a7:05:e5:46:f2:
         17:36:b2:6f:00:c5:05:24:e8:fa:6e:a5:2f:e1:e1:39:8b:4d:
         f7:ce:dd:1a:e1:d7:f0:77:49:31:e2:b9:22:9b:f9:d2:27:b2:
         12:3f:6f:94:d8:5f:7b:7f:52:fa:3d:89:2f:e4:35:31:de:85:
         9e:82:9d:a1:27:9f:18:a9:d6:15:74:39:dd:5a:74:bd:8b:68:
         11:7f:57:6a:27:02:0c:1c:e3:12:7f:04:97:8e:d3:d9:cd:1d:
         73:85:2b:70:e4:08:a4:43:24:a9:0a:1b:52:73:5e:10:db:f4:
         ec:18:66:39:a8:e1:1c:3c:b1:21:ef:51:20:6c:c1:0a:6e:f4:
         17:b2:dc:db:3a:04:e5:14:41:0e:09:4e:84:6b:3b:9f:2f:4e:
         3e:e8:7d:31:a3:59:e5:1b:f0:5c:ee:62:73:8b:2d:89:8a:cd:
         8a:ea:75:2b
-----BEGIN CERTIFICATE-----
MIIFLzCCBBegAwIBAgIQK/KJ61C+94SZs6a5GLPN1jANBgkqhkiG9w0BAQsFADCB
rzELMAkGA1UEBhMCVVMxEzARBgNVBAgMCkNhbGlmb3JuaWExFjAUBgNVBAcMDVNh
biBGcmFuY2lzY28xIDAeBgNVBAoMF0NvcHlsZWZ0IENlcnRpZmljYXRlIENvMR8w
HQYDVQQLDBZNeSBPcmdhbml6YXRpb25hbCBVbml0MREwDwYDVQQDDAhDaGFuZ2VN
ZTEdMBsGCSqGSIb3DQEJARYObWVAZXhhbXBsZS5uZXQwHhcNMjMxMTEzMTExMTEz
WhcNMjQxMTEyMTExMTEzWjCBuzELMAkGA1UEBhMCVVMxCzAJBgNVBAgMAk9IMRMw
EQYDVQQHDApDaW5jaW5uYXRpMSEwHwYDVQQKDBhVbml2ZXJzaXR5IG9mIENpbmNp
bm5hdGkxKjAoBgNVBAsMIURlcHQuIEVsZWMuIENvbXAuIEVuZy4gQ29tcC4gU2Np
LjERMA8GA1UEAwwIY2xpZW50MTcxKDAmBgkqhkiG9w0BCQEWGWZyYW5jb0BnYXVz
cy5lY2Vjcy51Yy5lZHUwggEiMA0GCSqGSIb3DQEBAQUAA4IBDwAwggEKAoIBAQDf
+iMX/r+nQDonoTM8BS+gXAsaEx7Mb6HKkrBUm0lYrCN1YT3VP7dulmOXEN/O2dv5
sTA2B9UV0GpiYcsEpG3JuIS8uhzrP5c8OZzxeQFwBM311/EXue89jza7119NKKcX
R9nipAgPUzOU+JdcA/pOCZBP5xvfe/a94F8m2lsMBQF3bldhbV6pSDRMUjdBJUgH
Pd/JPcLKcNY9bzKSju/+UMTgXOTOwXZ3gALpbMV27FaZBW4Pc4PuE6U7hvNIJ7Y5
Qy7UR9r8NBNzLnEeiZb8y2v51aMZRhdMbls3RZmS0oi/9HilWax6tP+zvfo05OUc
KlLDBkN+arj/kue0rUYrAgMBAAGjggE3MIIBMzAJBgNVHRMEAjAAMB0GA1UdDgQW
BBST+yB4UyOgHtuXC+JFDA1/RdozszCB5AYDVR0jBIHcMIHZgBQa3JjyacH3yB0h
Q7A8eVBN2CuHVKGBtaSBsjCBrzELMAkGA1UEBhMCVVMxEzARBgNVBAgMCkNhbGlm
b3JuaWExFjAUBgNVBAcMDVNhbiBGcmFuY2lzY28xIDAeBgNVBAoMF0NvcHlsZWZ0
IENlcnRpZmljYXRlIENvMR8wHQYDVQQLDBZNeSBPcmdhbml6YXRpb25hbCBVbml0
MREwDwYDVQQDDAhDaGFuZ2VNZTEdMBsGCSqGSIb3DQEJARYObWVAZXhhbXBsZS5u
ZXSCCQCMm46IeqxtizATBgNVHSUEDDAKBggrBgEFBQcDAjALBgNVHQ8EBAMCB4Aw
DQYJKoZIhvcNAQELBQADggEBAJZMWF28cL7JDUBHlD63sXUr7HezLELmdUaSXxha
Vlxq5JxtqT1FMHanY63lX7U/R6j29JtPWxR5/DN08947eGOec4jkgzzVAzo+7gdf
khOp4O+KSP+nBeVG8hc2sm8AxQUk6PpupS/h4TmLTffO3Rrh1/B3STHiuSKb+dIn
shI/b5TYX3t/Uvo9iS/kNTHehZ6CnaEnnxip1hV0Od1adL2LaBF/V2onAgwc4xJ/
BJeO09nNHXOFK3DkCKRDJKkKG1JzXhDb9OwYZjmo4Rw8sSHvUSBswQpu9Bey3Ns6
BOUUQQ4JToRrO58vTj7ofTGjWeUb8FzuYnOLLYmKzYrqdSs=
-----END CERTIFICATE-----
