Certificate:
    Data:
        Version: 3 (0x2)
        Serial Number:
            63:fa:a6:b6:5e:9f:60:15:08:bd:c3:2b:66:a3:2f:15
    Signature Algorithm: sha256WithRSAEncryption
        Issuer: C=US, ST=California, L=San Francisco, O=Copyleft Certificate Co, OU=My Organizational Unit, CN=ChangeMe/emailAddress=me@example.net
        Validity
            Not Before: Jan 23 18:30:34 2021 GMT
            Not After : Jan 23 18:30:34 2022 GMT
        Subject: C=US, ST=OH, L=Cincinnati, O=University of Cincinnati, OU=Dept. Electrical Eng. and Computer Sci., CN=client141/emailAddress=franco@gauss.ececs.uc.edu
        Subject Public Key Info:
            Public Key Algorithm: rsaEncryption
                Public-Key: (2048 bit)
                Modulus:
                    00:b6:e6:13:a1:54:8c:f9:bd:55:7e:29:ab:07:69:
                    b8:dc:95:a2:be:a3:5b:13:ff:7c:00:93:df:98:ae:
                    9b:2f:4c:23:b3:62:d9:c6:9a:94:01:c8:8c:f2:1d:
                    81:56:0a:ae:74:3e:47:7a:35:1b:02:7a:fe:9d:9e:
                    97:75:a2:95:07:af:1f:42:c7:41:14:7c:6b:3d:fe:
                    1c:a9:e6:46:1e:76:0a:90:25:d0:09:b7:57:2e:7f:
                    65:c6:93:fb:7a:12:81:ad:c8:73:0a:a9:fa:96:89:
                    c1:dd:51:1a:9b:2c:f6:96:f4:97:e8:26:f2:01:c9:
                    8b:16:df:e1:bf:07:06:39:3e:81:a1:12:f2:59:c4:
                    2e:7c:ee:c4:38:d4:46:11:9c:ba:9f:6b:df:3c:1d:
                    cd:19:07:7f:d0:c3:b6:2d:14:76:60:47:5d:27:95:
                    06:fc:b5:d1:8f:d9:1c:ea:32:7d:7c:8e:59:1f:23:
                    80:bc:4b:86:52:17:3d:c2:ef:d1:57:2e:a4:b3:c8:
                    97:17:af:26:ae:86:4f:85:e4:b2:be:5e:64:d7:9d:
                    d0:00:96:21:64:09:42:b1:8c:e5:2d:d7:b9:02:12:
                    1a:6c:67:8c:a1:76:0c:81:35:c2:ba:3b:ef:42:87:
                    96:9b:3f:12:9f:df:06:37:df:82:33:2e:d0:8f:98:
                    4b:d9
                Exponent: 65537 (0x10001)
        X509v3 extensions:
            X509v3 Basic Constraints: 
                CA:FALSE
            X509v3 Subject Key Identifier: 
                A2:2C:28:FF:91:B5:78:48:76:E9:82:8F:97:D0:82:03:D1:78:A7:10
            X509v3 Authority Key Identifier: 
                keyid:EF:DC:B6:3D:4B:FD:A7:87:05:C5:22:3D:8B:DC:BF:99:2A:EE:E4:DB
                DirName:/C=US/ST=California/L=San Francisco/O=Copyleft Certificate Co/OU=My Organizational Unit/CN=ChangeMe/emailAddress=me@example.net
                serial:87:1E:1D:DC:6B:8C:66:88

            X509v3 Extended Key Usage: 
                TLS Web Client Authentication
            X509v3 Key Usage: 
                Digital Signature
    Signature Algorithm: sha256WithRSAEncryption
         09:76:79:8e:fe:e9:e7:af:bd:a8:77:15:7f:63:5c:ff:2d:e8:
         02:12:f2:49:e5:fb:16:89:e7:e1:05:c8:5d:64:80:f6:49:aa:
         f0:36:57:64:1a:3d:72:e2:8f:8f:29:15:a9:a9:07:99:86:1d:
         f1:14:42:65:31:9a:bc:94:df:89:52:fd:48:40:f8:ac:43:38:
         91:f1:48:91:b3:94:b9:a0:b5:45:b3:ba:77:f4:64:e7:30:fd:
         7e:f6:36:e4:8d:20:0a:94:42:0f:1a:2e:4c:9f:a6:33:b5:a8:
         c6:6b:52:dc:87:d9:3e:34:16:2e:af:b0:ad:6a:15:67:ff:b0:
         b7:bc:69:ff:6f:34:14:8e:4d:a9:40:7d:6f:dc:90:09:df:3c:
         a1:d2:66:5a:64:7c:3a:76:18:76:11:c2:2b:c5:b4:86:15:1e:
         8f:60:5d:45:87:b9:2d:e0:cc:dc:39:30:cd:12:45:10:45:fd:
         36:b8:bb:5d:1c:cf:19:65:a1:bc:6d:75:59:4d:29:3c:ab:d1:
         ab:00:71:ef:fe:52:cf:2b:7e:3e:13:20:6a:74:1c:b8:b5:3d:
         02:40:97:4c:4c:8f:a3:27:03:af:41:3d:b8:25:f9:ee:bb:ac:
         3c:51:9b:b3:7d:27:58:dd:e4:00:f1:8d:d6:94:d8:43:fa:68:
         1d:11:65:a1
-----BEGIN CERTIFICATE-----
MIIFNjCCBB6gAwIBAgIQY/qmtl6fYBUIvcMrZqMvFTANBgkqhkiG9w0BAQsFADCB
rzELMAkGA1UEBhMCVVMxEzARBgNVBAgMCkNhbGlmb3JuaWExFjAUBgNVBAcMDVNh
biBGcmFuY2lzY28xIDAeBgNVBAoMF0NvcHlsZWZ0IENlcnRpZmljYXRlIENvMR8w
HQYDVQQLDBZNeSBPcmdhbml6YXRpb25hbCBVbml0MREwDwYDVQQDDAhDaGFuZ2VN
ZTEdMBsGCSqGSIb3DQEJARYObWVAZXhhbXBsZS5uZXQwHhcNMjEwMTIzMTgzMDM0
WhcNMjIwMTIzMTgzMDM0WjCBwjELMAkGA1UEBhMCVVMxCzAJBgNVBAgMAk9IMRMw
EQYDVQQHDApDaW5jaW5uYXRpMSEwHwYDVQQKDBhVbml2ZXJzaXR5IG9mIENpbmNp
bm5hdGkxMDAuBgNVBAsMJ0RlcHQuIEVsZWN0cmljYWwgRW5nLiBhbmQgQ29tcHV0
ZXIgU2NpLjESMBAGA1UEAwwJY2xpZW50MTQxMSgwJgYJKoZIhvcNAQkBFhlmcmFu
Y29AZ2F1c3MuZWNlY3MudWMuZWR1MIIBIjANBgkqhkiG9w0BAQEFAAOCAQ8AMIIB
CgKCAQEAtuYToVSM+b1VfimrB2m43JWivqNbE/98AJPfmK6bL0wjs2LZxpqUAciM
8h2BVgqudD5HejUbAnr+nZ6XdaKVB68fQsdBFHxrPf4cqeZGHnYKkCXQCbdXLn9l
xpP7ehKBrchzCqn6lonB3VEamyz2lvSX6CbyAcmLFt/hvwcGOT6BoRLyWcQufO7E
ONRGEZy6n2vfPB3NGQd/0MO2LRR2YEddJ5UG/LXRj9kc6jJ9fI5ZHyOAvEuGUhc9
wu/RVy6ks8iXF68mroZPheSyvl5k153QAJYhZAlCsYzlLde5AhIabGeMoXYMgTXC
ujvvQoeWmz8Sn98GN9+CMy7Qj5hL2QIDAQABo4IBNzCCATMwCQYDVR0TBAIwADAd
BgNVHQ4EFgQUoiwo/5G1eEh26YKPl9CCA9F4pxAwgeQGA1UdIwSB3DCB2YAU79y2
PUv9p4cFxSI9i9y/mSru5NuhgbWkgbIwga8xCzAJBgNVBAYTAlVTMRMwEQYDVQQI
DApDYWxpZm9ybmlhMRYwFAYDVQQHDA1TYW4gRnJhbmNpc2NvMSAwHgYDVQQKDBdD
b3B5bGVmdCBDZXJ0aWZpY2F0ZSBDbzEfMB0GA1UECwwWTXkgT3JnYW5pemF0aW9u
YWwgVW5pdDERMA8GA1UEAwwIQ2hhbmdlTWUxHTAbBgkqhkiG9w0BCQEWDm1lQGV4
YW1wbGUubmV0ggkAhx4d3GuMZogwEwYDVR0lBAwwCgYIKwYBBQUHAwIwCwYDVR0P
BAQDAgeAMA0GCSqGSIb3DQEBCwUAA4IBAQAJdnmO/unnr72odxV/Y1z/LegCEvJJ
5fsWiefhBchdZID2SarwNldkGj1y4o+PKRWpqQeZhh3xFEJlMZq8lN+JUv1IQPis
QziR8UiRs5S5oLVFs7p39GTnMP1+9jbkjSAKlEIPGi5Mn6YztajGa1Lch9k+NBYu
r7CtahVn/7C3vGn/bzQUjk2pQH1v3JAJ3zyh0mZaZHw6dhh2EcIrxbSGFR6PYF1F
h7kt4MzcOTDNEkUQRf02uLtdHM8ZZaG8bXVZTSk8q9GrAHHv/lLPK34+EyBqdBy4
tT0CQJdMTI+jJwOvQT24Jfnuu6w8UZuzfSdY3eQA8Y3WlNhD+mgdEWWh
-----END CERTIFICATE-----
