Certificate:
    Data:
        Version: 3 (0x2)
        Serial Number:
            fa:e7:bb:e3:a7:13:78:b8:c8:7e:1a:34:43:5a:e6:0c
    Signature Algorithm: sha256WithRSAEncryption
        Issuer: C=US, ST=California, L=San Francisco, O=Copyleft Certificate Co, OU=My Organizational Unit, CN=ChangeMe/emailAddress=me@example.net
        Validity
            Not Before: Nov 10 17:26:44 2023 GMT
            Not After : Nov  9 17:26:44 2024 GMT
        Subject: C=US, ST=OH, L=Cincinnati, O=University of Cincinnati, OU=Dept_Elec_Com_ Eng_Com_Sci., CN=client35/emailAddress=franco@gauss.ececs.uc.edu
        Subject Public Key Info:
            Public Key Algorithm: rsaEncryption
                Public-Key: (2048 bit)
                Modulus:
                    00:d5:2c:52:17:8d:4d:e4:ba:7d:1a:66:15:76:fe:
                    00:29:18:df:cc:bf:80:16:7d:22:8c:59:77:11:36:
                    74:0e:7c:f8:a5:9d:ff:29:6f:75:2b:8d:ca:c6:59:
                    7d:81:53:02:02:40:ad:34:e5:43:11:39:02:b9:ad:
                    fa:1e:17:35:51:13:8f:77:49:f9:34:44:24:c8:a0:
                    90:a5:a4:73:17:0f:cb:dc:ca:64:10:c6:0e:8b:30:
                    08:c4:dc:de:8a:9c:d5:06:41:e3:fa:3d:ef:b3:8b:
                    71:d9:ab:cc:d9:eb:03:ab:ba:55:c1:a8:13:71:4d:
                    6e:49:07:8b:60:93:b7:db:1d:b3:a9:35:10:ed:33:
                    c3:fe:04:ea:ac:00:e3:f5:83:b9:55:32:10:35:82:
                    62:05:43:3c:59:77:a4:6b:ab:48:f1:7f:a1:e9:a1:
                    98:99:b1:e3:71:55:9a:5d:da:4b:fe:47:4b:ec:85:
                    5f:f7:fb:9d:d6:65:69:81:34:84:1e:ef:ca:3f:c5:
                    a6:01:b8:ad:5a:bf:7f:23:fc:d9:18:d8:45:54:9a:
                    27:26:b0:89:09:b1:86:dc:b6:fe:b8:3d:3b:5a:78:
                    5c:8b:e6:57:7a:70:2d:c4:d0:8a:99:32:6e:72:4a:
                    d0:65:75:93:8e:38:ea:bf:45:17:4c:2d:d0:d7:64:
                    0c:b9
                Exponent: 65537 (0x10001)
        X509v3 extensions:
            X509v3 Basic Constraints: 
                CA:FALSE
            X509v3 Subject Key Identifier: 
                E2:F7:42:BF:07:3E:89:A7:42:66:B2:86:B9:97:5E:69:13:FB:14:68
            X509v3 Authority Key Identifier: 
                keyid:D9:D4:8C:20:BC:EB:38:17:D5:4B:52:F8:AA:C5:D2:44:DD:A2:6A:3B
                DirName:/C=US/ST=California/L=San Francisco/O=Copyleft Certificate Co/OU=My Organizational Unit/CN=ChangeMe/emailAddress=me@example.net
                serial:C2:48:34:65:BF:AB:EB:AA

            X509v3 Extended Key Usage: 
                TLS Web Client Authentication
            X509v3 Key Usage: 
                Digital Signature
    Signature Algorithm: sha256WithRSAEncryption
         1a:74:eb:a6:f3:f0:2d:e2:86:3f:7f:03:55:64:63:c8:fb:bf:
         85:8a:ab:61:cf:c9:85:4a:a2:37:8a:dd:60:07:8a:94:bd:30:
         e0:d5:75:f9:c9:67:70:0a:c9:a9:bd:af:91:35:1e:7d:8f:ce:
         ae:7a:85:b7:2b:de:1a:a8:f1:c4:a5:4b:ce:67:c4:82:d1:a1:
         ce:a6:d4:fd:d1:c4:06:a0:ff:53:dc:d2:d3:b4:96:5e:1c:02:
         cd:43:2c:a5:50:94:df:49:84:89:0e:16:3f:36:e9:a3:4a:4b:
         39:13:b1:6d:1a:e0:21:40:1f:c3:4b:51:ad:da:48:e7:cb:1d:
         40:e7:f9:04:02:0e:04:f7:8f:7c:7f:11:33:fd:dc:0f:72:c8:
         99:d1:77:87:b8:d6:45:7f:89:13:72:aa:cf:fb:d4:6e:df:f2:
         d2:e0:5d:3e:fb:24:dd:19:14:c8:ab:03:24:a3:e7:c4:59:e6:
         b5:8e:74:52:9b:79:f1:cc:82:12:69:c4:dd:be:87:8f:66:ed:
         28:6d:e7:7a:28:ef:0a:db:f6:08:02:61:9a:c5:c4:39:f9:c1:
         91:58:b7:f6:24:0e:e6:02:00:ef:2c:0e:fa:fd:c1:e8:77:98:
         49:d9:ab:64:65:87:f2:73:40:8a:11:34:c0:46:89:2a:16:36:
         9d:6b:10:ab
-----BEGIN CERTIFICATE-----
MIIFKjCCBBKgAwIBAgIRAPrnu+OnE3i4yH4aNENa5gwwDQYJKoZIhvcNAQELBQAw
ga8xCzAJBgNVBAYTAlVTMRMwEQYDVQQIDApDYWxpZm9ybmlhMRYwFAYDVQQHDA1T
YW4gRnJhbmNpc2NvMSAwHgYDVQQKDBdDb3B5bGVmdCBDZXJ0aWZpY2F0ZSBDbzEf
MB0GA1UECwwWTXkgT3JnYW5pemF0aW9uYWwgVW5pdDERMA8GA1UEAwwIQ2hhbmdl
TWUxHTAbBgkqhkiG9w0BCQEWDm1lQGV4YW1wbGUubmV0MB4XDTIzMTExMDE3MjY0
NFoXDTI0MTEwOTE3MjY0NFowgbUxCzAJBgNVBAYTAlVTMQswCQYDVQQIDAJPSDET
MBEGA1UEBwwKQ2luY2lubmF0aTEhMB8GA1UECgwYVW5pdmVyc2l0eSBvZiBDaW5j
aW5uYXRpMSQwIgYDVQQLDBtEZXB0X0VsZWNfQ29tXyBFbmdfQ29tX1NjaS4xETAP
BgNVBAMMCGNsaWVudDM1MSgwJgYJKoZIhvcNAQkBFhlmcmFuY29AZ2F1c3MuZWNl
Y3MudWMuZWR1MIIBIjANBgkqhkiG9w0BAQEFAAOCAQ8AMIIBCgKCAQEA1SxSF41N
5Lp9GmYVdv4AKRjfzL+AFn0ijFl3ETZ0Dnz4pZ3/KW91K43Kxll9gVMCAkCtNOVD
ETkCua36Hhc1UROPd0n5NEQkyKCQpaRzFw/L3MpkEMYOizAIxNzeipzVBkHj+j3v
s4tx2avM2esDq7pVwagTcU1uSQeLYJO32x2zqTUQ7TPD/gTqrADj9YO5VTIQNYJi
BUM8WXeka6tI8X+h6aGYmbHjcVWaXdpL/kdL7IVf9/ud1mVpgTSEHu/KP8WmAbit
Wr9/I/zZGNhFVJonJrCJCbGG3Lb+uD07Wnhci+ZXenAtxNCKmTJuckrQZXWTjjjq
v0UXTC3Q12QMuQIDAQABo4IBNzCCATMwCQYDVR0TBAIwADAdBgNVHQ4EFgQU4vdC
vwc+iadCZrKGuZdeaRP7FGgwgeQGA1UdIwSB3DCB2YAU2dSMILzrOBfVS1L4qsXS
RN2iajuhgbWkgbIwga8xCzAJBgNVBAYTAlVTMRMwEQYDVQQIDApDYWxpZm9ybmlh
MRYwFAYDVQQHDA1TYW4gRnJhbmNpc2NvMSAwHgYDVQQKDBdDb3B5bGVmdCBDZXJ0
aWZpY2F0ZSBDbzEfMB0GA1UECwwWTXkgT3JnYW5pemF0aW9uYWwgVW5pdDERMA8G
A1UEAwwIQ2hhbmdlTWUxHTAbBgkqhkiG9w0BCQEWDm1lQGV4YW1wbGUubmV0ggkA
wkg0Zb+r66owEwYDVR0lBAwwCgYIKwYBBQUHAwIwCwYDVR0PBAQDAgeAMA0GCSqG
SIb3DQEBCwUAA4IBAQAadOum8/At4oY/fwNVZGPI+7+Fiqthz8mFSqI3it1gB4qU
vTDg1XX5yWdwCsmpva+RNR59j86ueoW3K94aqPHEpUvOZ8SC0aHOptT90cQGoP9T
3NLTtJZeHALNQyylUJTfSYSJDhY/NumjSks5E7FtGuAhQB/DS1Gt2kjnyx1A5/kE
Ag4E9498fxEz/dwPcsiZ0XeHuNZFf4kTcqrP+9Ru3/LS4F0++yTdGRTIqwMko+fE
Wea1jnRSm3nxzIISacTdvoePZu0obed6KO8K2/YIAmGaxcQ5+cGRWLf2JA7mAgDv
LA76/cHod5hJ2atkZYfyc0CKETTARokqFjadaxCr
-----END CERTIFICATE-----
