Certificate:
    Data:
        Version: 3 (0x2)
        Serial Number:
            5a:2c:15:01:d0:22:50:57:85:9b:92:ee:d4:0d:89:05
    Signature Algorithm: sha256WithRSAEncryption
        Issuer: C=US, ST=California, L=San Francisco, O=Copyleft Certificate Co, OU=My Organizational Unit, CN=ChangeMe/emailAddress=me@example.net
        Validity
            Not Before: Nov 13 11:12:29 2023 GMT
            Not After : Nov 12 11:12:29 2024 GMT
        Subject: C=US, ST=OH, L=Cincinnati, O=University of Cincinnati, OU=Dept. Elec. Comp. Eng. Comp. Sci., CN=client36/emailAddress=franco@gauss.ececs.uc.edu
        Subject Public Key Info:
            Public Key Algorithm: rsaEncryption
                Public-Key: (2048 bit)
                Modulus:
                    00:c3:33:97:b5:67:9d:73:69:d7:40:df:6b:0d:d9:
                    65:bb:10:b9:54:a6:48:9b:6a:6b:3a:49:a8:83:79:
                    6a:98:76:eb:d5:09:08:f6:4c:77:91:0a:77:17:02:
                    8b:55:45:65:21:67:d6:cb:44:47:e7:48:e2:d6:07:
                    a6:78:dd:08:b5:e4:7b:9d:0b:ac:51:f3:c7:fc:27:
                    20:6f:0f:a4:1c:87:12:ba:7c:01:b1:63:2a:7b:b9:
                    76:91:3a:28:82:b5:a7:fe:a5:4a:9c:0a:83:30:b3:
                    f7:34:5e:1d:5a:dd:0c:44:c4:de:31:bd:72:e1:e4:
                    13:3a:16:8f:1a:8b:c0:d9:53:ab:e9:f6:57:00:0d:
                    22:42:23:e1:93:5a:fe:47:f0:b7:0b:08:f1:06:af:
                    ec:3b:96:30:45:83:de:84:61:92:71:ec:2f:98:84:
                    e1:e8:2e:3e:0a:be:d7:ee:b5:b8:cf:62:cb:e7:09:
                    99:da:1a:32:5d:00:0d:15:ec:cc:26:94:88:05:f6:
                    45:07:c6:e9:b8:f6:11:6f:0d:08:21:fa:f4:30:89:
                    0e:7c:a6:6d:52:46:48:68:d5:a4:57:68:ab:2e:4a:
                    f2:81:4e:b8:3a:88:bc:bb:05:4a:5a:3b:00:53:e2:
                    db:ab:e2:05:21:5e:16:40:ee:c2:7b:94:9b:b3:c4:
                    71:47
                Exponent: 65537 (0x10001)
        X509v3 extensions:
            X509v3 Basic Constraints: 
                CA:FALSE
            X509v3 Subject Key Identifier: 
                DF:A5:2F:A7:71:C0:6D:09:A7:85:EF:67:F6:C1:54:30:EC:6A:20:DA
            X509v3 Authority Key Identifier: 
                keyid:1A:DC:98:F2:69:C1:F7:C8:1D:21:43:B0:3C:79:50:4D:D8:2B:87:54
                DirName:/C=US/ST=California/L=San Francisco/O=Copyleft Certificate Co/OU=My Organizational Unit/CN=ChangeMe/emailAddress=me@example.net
                serial:8C:9B:8E:88:7A:AC:6D:8B

            X509v3 Extended Key Usage: 
                TLS Web Client Authentication
            X509v3 Key Usage: 
                Digital Signature
    Signature Algorithm: sha256WithRSAEncryption
         08:b4:b6:d2:92:bf:e5:1c:17:d0:d5:04:9c:7b:a7:27:be:8a:
         aa:06:cd:ad:8c:b8:5b:e3:2b:9b:f0:08:15:67:4e:fe:10:3e:
         a0:e9:8b:ee:b0:c3:5f:56:0b:5d:29:c1:da:ef:3a:e4:11:ae:
         40:45:af:0c:a4:a1:ca:2f:e2:d0:ac:dc:84:c3:3c:92:52:8b:
         63:1e:d0:78:14:16:ae:32:a9:b6:b1:b7:05:73:db:ba:f2:f6:
         79:77:7e:96:f3:d1:60:be:a3:67:aa:74:c2:ed:0d:3b:61:56:
         c4:0e:96:91:ca:52:45:80:2c:07:06:d3:66:73:da:01:a0:ea:
         de:2d:8e:cd:0c:f2:03:6a:dd:a8:04:b9:c1:a6:88:3a:81:c9:
         b7:6b:6f:ac:8c:66:04:c9:b8:a3:50:f3:7f:de:20:6b:a2:c8:
         9c:56:ea:2d:7a:21:fc:c7:01:1f:a4:61:71:18:f1:9b:0d:c4:
         73:0c:08:e0:54:cc:c1:53:e3:a0:56:9a:d1:25:c7:ec:7f:9d:
         4f:4f:b3:e5:00:db:d0:72:59:85:43:c0:b0:c8:f5:6e:be:b5:
         c1:5f:6e:74:00:cb:cb:3e:b0:ef:c7:02:4f:37:06:bd:e7:db:
         58:f6:c5:43:26:2e:0c:52:36:34:84:df:64:42:27:9a:81:f3:
         3e:6e:a2:e9
-----BEGIN CERTIFICATE-----
MIIFLzCCBBegAwIBAgIQWiwVAdAiUFeFm5Lu1A2JBTANBgkqhkiG9w0BAQsFADCB
rzELMAkGA1UEBhMCVVMxEzARBgNVBAgMCkNhbGlmb3JuaWExFjAUBgNVBAcMDVNh
biBGcmFuY2lzY28xIDAeBgNVBAoMF0NvcHlsZWZ0IENlcnRpZmljYXRlIENvMR8w
HQYDVQQLDBZNeSBPcmdhbml6YXRpb25hbCBVbml0MREwDwYDVQQDDAhDaGFuZ2VN
ZTEdMBsGCSqGSIb3DQEJARYObWVAZXhhbXBsZS5uZXQwHhcNMjMxMTEzMTExMjI5
WhcNMjQxMTEyMTExMjI5WjCBuzELMAkGA1UEBhMCVVMxCzAJBgNVBAgMAk9IMRMw
EQYDVQQHDApDaW5jaW5uYXRpMSEwHwYDVQQKDBhVbml2ZXJzaXR5IG9mIENpbmNp
bm5hdGkxKjAoBgNVBAsMIURlcHQuIEVsZWMuIENvbXAuIEVuZy4gQ29tcC4gU2Np
LjERMA8GA1UEAwwIY2xpZW50MzYxKDAmBgkqhkiG9w0BCQEWGWZyYW5jb0BnYXVz
cy5lY2Vjcy51Yy5lZHUwggEiMA0GCSqGSIb3DQEBAQUAA4IBDwAwggEKAoIBAQDD
M5e1Z51zaddA32sN2WW7ELlUpkibams6SaiDeWqYduvVCQj2THeRCncXAotVRWUh
Z9bLREfnSOLWB6Z43Qi15HudC6xR88f8JyBvD6QchxK6fAGxYyp7uXaROiiCtaf+
pUqcCoMws/c0Xh1a3QxExN4xvXLh5BM6Fo8ai8DZU6vp9lcADSJCI+GTWv5H8LcL
CPEGr+w7ljBFg96EYZJx7C+YhOHoLj4KvtfutbjPYsvnCZnaGjJdAA0V7MwmlIgF
9kUHxum49hFvDQgh+vQwiQ58pm1SRkho1aRXaKsuSvKBTrg6iLy7BUpaOwBT4tur
4gUhXhZA7sJ7lJuzxHFHAgMBAAGjggE3MIIBMzAJBgNVHRMEAjAAMB0GA1UdDgQW
BBTfpS+nccBtCaeF72f2wVQw7Gog2jCB5AYDVR0jBIHcMIHZgBQa3JjyacH3yB0h
Q7A8eVBN2CuHVKGBtaSBsjCBrzELMAkGA1UEBhMCVVMxEzARBgNVBAgMCkNhbGlm
b3JuaWExFjAUBgNVBAcMDVNhbiBGcmFuY2lzY28xIDAeBgNVBAoMF0NvcHlsZWZ0
IENlcnRpZmljYXRlIENvMR8wHQYDVQQLDBZNeSBPcmdhbml6YXRpb25hbCBVbml0
MREwDwYDVQQDDAhDaGFuZ2VNZTEdMBsGCSqGSIb3DQEJARYObWVAZXhhbXBsZS5u
ZXSCCQCMm46IeqxtizATBgNVHSUEDDAKBggrBgEFBQcDAjALBgNVHQ8EBAMCB4Aw
DQYJKoZIhvcNAQELBQADggEBAAi0ttKSv+UcF9DVBJx7pye+iqoGza2MuFvjK5vw
CBVnTv4QPqDpi+6ww19WC10pwdrvOuQRrkBFrwykocov4tCs3ITDPJJSi2Me0HgU
Fq4yqbaxtwVz27ry9nl3fpbz0WC+o2eqdMLtDTthVsQOlpHKUkWALAcG02Zz2gGg
6t4tjs0M8gNq3agEucGmiDqBybdrb6yMZgTJuKNQ83/eIGuiyJxW6i16IfzHAR+k
YXEY8ZsNxHMMCOBUzMFT46BWmtElx+x/nU9Ps+UA29ByWYVDwLDI9W6+tcFfbnQA
y8s+sO/HAk83Br3n21j2xUMmLgxSNjSE32RCJ5qB8z5uouk=
-----END CERTIFICATE-----
