Certificate:
    Data:
        Version: 3 (0x2)
        Serial Number:
            a7:f0:43:cd:54:35:8c:16:db:ea:9c:a3:c2:89:1d:ab
    Signature Algorithm: sha256WithRSAEncryption
        Issuer: C=US, ST=California, L=San Francisco, O=Copyleft Certificate Co, OU=My Organizational Unit, CN=ChangeMe/emailAddress=me@example.net
        Validity
            Not Before: Nov 13 11:12:49 2023 GMT
            Not After : Nov 12 11:12:49 2024 GMT
        Subject: C=US, ST=OH, L=Cincinnati, O=University of Cincinnati, OU=Dept. Elec. Comp. Eng. Comp. Sci., CN=client41/emailAddress=franco@gauss.ececs.uc.edu
        Subject Public Key Info:
            Public Key Algorithm: rsaEncryption
                Public-Key: (2048 bit)
                Modulus:
                    00:c5:ad:64:c4:a2:cd:bf:13:ff:d2:fa:40:00:5b:
                    6e:60:34:9b:60:16:4f:f8:a4:f1:12:1a:ce:97:86:
                    ae:19:82:58:f9:b1:66:d7:60:ed:78:e1:37:aa:5e:
                    ec:12:13:42:c9:32:4a:54:ba:5d:2e:8e:dc:d8:33:
                    3f:96:ea:42:72:cd:57:62:89:45:84:c5:ec:01:76:
                    51:42:44:f3:ac:f4:fc:29:b0:4f:60:3d:25:7c:83:
                    61:32:cf:37:6e:99:d2:4f:f6:95:80:94:2c:4e:df:
                    3f:c8:54:8a:d9:f3:72:13:e3:de:7d:41:97:72:27:
                    85:a9:64:b9:db:0c:13:42:b7:a5:db:23:b4:ea:a7:
                    fe:67:6b:2e:7f:2e:d8:77:3c:a1:d9:cf:bb:48:45:
                    32:7b:07:44:42:96:a3:4f:fa:88:dd:91:c3:b9:e2:
                    2a:8f:53:46:34:f7:d0:71:ce:49:b9:47:a8:67:f1:
                    b2:06:8d:3b:d7:97:7b:94:ac:b4:33:59:13:0b:13:
                    8a:7f:82:3c:7c:51:2c:b7:d1:86:79:68:68:78:3f:
                    eb:6a:65:6e:64:13:3c:d6:1d:33:db:1f:5c:49:f8:
                    90:a4:57:34:ae:69:46:73:b2:4b:c3:a5:9f:b1:e9:
                    9b:1d:24:d9:07:90:39:f5:c9:20:78:9c:b1:f2:cb:
                    ba:17
                Exponent: 65537 (0x10001)
        X509v3 extensions:
            X509v3 Basic Constraints: 
                CA:FALSE
            X509v3 Subject Key Identifier: 
                ED:04:79:FF:DB:2C:D8:E8:26:4B:96:BA:01:64:41:F3:03:62:13:4E
            X509v3 Authority Key Identifier: 
                keyid:1A:DC:98:F2:69:C1:F7:C8:1D:21:43:B0:3C:79:50:4D:D8:2B:87:54
                DirName:/C=US/ST=California/L=San Francisco/O=Copyleft Certificate Co/OU=My Organizational Unit/CN=ChangeMe/emailAddress=me@example.net
                serial:8C:9B:8E:88:7A:AC:6D:8B

            X509v3 Extended Key Usage: 
                TLS Web Client Authentication
            X509v3 Key Usage: 
                Digital Signature
    Signature Algorithm: sha256WithRSAEncryption
         c9:dd:56:0a:94:ce:7f:ac:0f:38:9d:6f:c9:8d:c0:50:f2:78:
         73:39:5b:61:3c:7e:41:de:7a:50:b3:39:fd:c0:e9:42:07:22:
         10:72:45:29:20:8d:ea:f6:78:c1:8a:39:54:2a:8f:9f:f6:76:
         80:ad:52:ee:67:ae:b9:9f:82:5d:20:e2:e5:b9:9f:a2:94:1a:
         3f:d4:b9:42:8e:ce:87:00:15:a0:97:be:1b:1a:b9:c4:67:61:
         6d:b6:86:50:a6:ff:cd:ca:7f:d4:e0:94:e1:07:dd:f3:03:2a:
         4e:df:12:76:8a:4f:e7:44:29:00:47:c8:7d:0e:36:90:99:58:
         1b:91:96:43:98:c3:2e:66:c2:6e:d3:18:bf:2e:25:21:df:52:
         04:3e:e9:49:63:31:9f:bf:3e:49:e8:d1:6b:76:47:c8:5d:b7:
         52:08:ad:15:3f:62:89:84:fc:4d:27:cf:98:b9:9d:8d:fc:c3:
         88:19:93:55:43:0e:84:f3:c1:55:fe:58:ec:1a:cc:23:a6:9a:
         64:55:da:b2:c8:81:e5:e4:da:49:7f:25:18:4e:92:f6:3b:51:
         be:f9:ec:4f:1f:3e:21:b9:76:7b:75:4c:28:bc:36:f6:b8:97:
         1f:ca:a0:8f:0e:91:0a:df:fe:a9:dc:8e:9d:ef:f3:aa:43:7e:
         e9:39:d3:4e
-----BEGIN CERTIFICATE-----
MIIFMDCCBBigAwIBAgIRAKfwQ81UNYwW2+qco8KJHaswDQYJKoZIhvcNAQELBQAw
ga8xCzAJBgNVBAYTAlVTMRMwEQYDVQQIDApDYWxpZm9ybmlhMRYwFAYDVQQHDA1T
YW4gRnJhbmNpc2NvMSAwHgYDVQQKDBdDb3B5bGVmdCBDZXJ0aWZpY2F0ZSBDbzEf
MB0GA1UECwwWTXkgT3JnYW5pemF0aW9uYWwgVW5pdDERMA8GA1UEAwwIQ2hhbmdl
TWUxHTAbBgkqhkiG9w0BCQEWDm1lQGV4YW1wbGUubmV0MB4XDTIzMTExMzExMTI0
OVoXDTI0MTExMjExMTI0OVowgbsxCzAJBgNVBAYTAlVTMQswCQYDVQQIDAJPSDET
MBEGA1UEBwwKQ2luY2lubmF0aTEhMB8GA1UECgwYVW5pdmVyc2l0eSBvZiBDaW5j
aW5uYXRpMSowKAYDVQQLDCFEZXB0LiBFbGVjLiBDb21wLiBFbmcuIENvbXAuIFNj
aS4xETAPBgNVBAMMCGNsaWVudDQxMSgwJgYJKoZIhvcNAQkBFhlmcmFuY29AZ2F1
c3MuZWNlY3MudWMuZWR1MIIBIjANBgkqhkiG9w0BAQEFAAOCAQ8AMIIBCgKCAQEA
xa1kxKLNvxP/0vpAAFtuYDSbYBZP+KTxEhrOl4auGYJY+bFm12DteOE3ql7sEhNC
yTJKVLpdLo7c2DM/lupCcs1XYolFhMXsAXZRQkTzrPT8KbBPYD0lfINhMs83bpnS
T/aVgJQsTt8/yFSK2fNyE+PefUGXcieFqWS52wwTQrel2yO06qf+Z2sufy7Ydzyh
2c+7SEUyewdEQpajT/qI3ZHDueIqj1NGNPfQcc5JuUeoZ/GyBo0715d7lKy0M1kT
CxOKf4I8fFEst9GGeWhoeD/ramVuZBM81h0z2x9cSfiQpFc0rmlGc7JLw6Wfsemb
HSTZB5A59ckgeJyx8su6FwIDAQABo4IBNzCCATMwCQYDVR0TBAIwADAdBgNVHQ4E
FgQU7QR5/9ss2OgmS5a6AWRB8wNiE04wgeQGA1UdIwSB3DCB2YAUGtyY8mnB98gd
IUOwPHlQTdgrh1ShgbWkgbIwga8xCzAJBgNVBAYTAlVTMRMwEQYDVQQIDApDYWxp
Zm9ybmlhMRYwFAYDVQQHDA1TYW4gRnJhbmNpc2NvMSAwHgYDVQQKDBdDb3B5bGVm
dCBDZXJ0aWZpY2F0ZSBDbzEfMB0GA1UECwwWTXkgT3JnYW5pemF0aW9uYWwgVW5p
dDERMA8GA1UEAwwIQ2hhbmdlTWUxHTAbBgkqhkiG9w0BCQEWDm1lQGV4YW1wbGUu
bmV0ggkAjJuOiHqsbYswEwYDVR0lBAwwCgYIKwYBBQUHAwIwCwYDVR0PBAQDAgeA
MA0GCSqGSIb3DQEBCwUAA4IBAQDJ3VYKlM5/rA84nW/JjcBQ8nhzOVthPH5B3npQ
szn9wOlCByIQckUpII3q9njBijlUKo+f9naArVLuZ665n4JdIOLluZ+ilBo/1LlC
js6HABWgl74bGrnEZ2FttoZQpv/Nyn/U4JThB93zAypO3xJ2ik/nRCkAR8h9DjaQ
mVgbkZZDmMMuZsJu0xi/LiUh31IEPulJYzGfvz5J6NFrdkfIXbdSCK0VP2KJhPxN
J8+YuZ2N/MOIGZNVQw6E88FV/ljsGswjpppkVdqyyIHl5NpJfyUYTpL2O1G++exP
Hz4huXZ7dUwovDb2uJcfyqCPDpEK3/6p3I6d7/OqQ37pOdNO
-----END CERTIFICATE-----
