Certificate:
    Data:
        Version: 3 (0x2)
        Serial Number:
            1b:74:7a:b4:da:0d:5a:d9:15:b8:c1:f4:49:50:45:48
    Signature Algorithm: sha256WithRSAEncryption
        Issuer: C=US, ST=California, L=San Francisco, O=Copyleft Certificate Co, OU=My Organizational Unit, CN=ChangeMe/emailAddress=me@example.net
        Validity
            Not Before: Nov 13 11:10:37 2023 GMT
            Not After : Nov 12 11:10:37 2024 GMT
        Subject: C=US, ST=OH, L=Cincinnati, O=University of Cincinnati, OU=Dept. Elec. Comp. Eng. Comp. Sci., CN=client8/emailAddress=franco@gauss.ececs.uc.edu
        Subject Public Key Info:
            Public Key Algorithm: rsaEncryption
                Public-Key: (2048 bit)
                Modulus:
                    00:e3:f7:b5:ef:c2:1d:b5:dc:a3:59:38:58:78:aa:
                    5b:7e:45:60:9b:5f:99:f4:39:44:3b:cf:6f:02:63:
                    00:4a:39:93:4c:c4:07:74:b5:48:b3:02:7a:fe:f1:
                    2c:ca:97:9c:ff:63:8d:8a:df:a2:7d:76:7d:b9:e6:
                    51:9d:eb:2b:80:2a:76:78:2d:75:ae:1f:93:9e:c4:
                    b5:5f:2d:45:30:a3:f9:92:0a:e1:79:7d:3c:36:69:
                    69:e0:ce:dd:a3:f2:70:b3:4b:d3:3c:2f:fa:f3:f8:
                    80:1b:52:f8:e9:6b:7e:5b:22:50:d1:45:2b:e7:26:
                    a6:78:e1:0c:87:fb:a6:4c:96:5b:1b:78:7d:02:fe:
                    3c:40:85:23:60:f9:69:57:70:05:f8:8e:ea:1b:ad:
                    65:71:29:8c:61:23:ec:8e:71:98:c8:dc:13:fd:09:
                    31:92:33:d6:cd:70:fb:2b:6a:f0:bb:d2:42:7c:4d:
                    bc:79:21:3e:18:a7:7d:16:53:cd:dd:93:61:74:07:
                    1b:ba:1e:2e:e6:00:f1:cc:00:fb:67:81:ce:27:58:
                    ef:8d:44:22:27:df:91:a7:66:31:1f:d7:24:e7:00:
                    49:7d:84:b9:2a:a2:f0:55:0b:4b:ec:87:b8:a3:8f:
                    e1:cc:86:cf:46:64:60:04:7d:86:a7:9a:8a:fb:bd:
                    ce:91
                Exponent: 65537 (0x10001)
        X509v3 extensions:
            X509v3 Basic Constraints: 
                CA:FALSE
            X509v3 Subject Key Identifier: 
                5A:6B:D1:36:79:C1:66:3B:14:1E:5B:0C:70:50:F0:80:76:0D:30:92
            X509v3 Authority Key Identifier: 
                keyid:1A:DC:98:F2:69:C1:F7:C8:1D:21:43:B0:3C:79:50:4D:D8:2B:87:54
                DirName:/C=US/ST=California/L=San Francisco/O=Copyleft Certificate Co/OU=My Organizational Unit/CN=ChangeMe/emailAddress=me@example.net
                serial:8C:9B:8E:88:7A:AC:6D:8B

            X509v3 Extended Key Usage: 
                TLS Web Client Authentication
            X509v3 Key Usage: 
                Digital Signature
    Signature Algorithm: sha256WithRSAEncryption
         80:57:91:c1:08:57:17:28:38:f0:fb:f1:1e:e8:91:1c:82:56:
         a8:df:8b:98:b3:c0:6d:ce:80:90:8b:60:ae:ec:47:cc:a2:3f:
         54:02:fa:66:b8:ce:ea:10:f9:21:a9:ea:f5:a9:4b:b8:90:44:
         c2:a8:ba:80:82:69:24:bf:be:d2:a2:0e:96:e9:47:ee:09:c7:
         5d:d5:2c:77:b1:f3:57:3b:4a:80:89:e0:25:65:6a:b6:d8:fb:
         3c:57:dc:0c:4d:0b:a9:ab:e2:0f:94:3f:cb:4b:9a:83:f5:18:
         ac:11:fb:01:c6:1b:b1:8a:64:bf:38:56:a1:00:db:63:ab:dc:
         c5:5b:bc:58:8c:b5:e9:ce:e6:5f:a5:71:ab:5d:c2:c6:d1:ea:
         99:cf:6c:47:eb:76:9e:ad:5f:53:93:11:32:ea:6e:ac:fd:59:
         7d:25:72:8e:e6:d9:3d:de:0e:ad:b0:6b:ad:3f:1a:f8:a5:c6:
         6a:c6:dc:50:8e:e1:3b:a6:ad:68:6b:fb:27:fd:d0:6a:ea:a9:
         3a:bb:2b:dc:b6:1f:24:0d:22:3b:e8:ac:9f:0c:5b:b6:b1:fe:
         30:89:fc:19:9e:65:9a:e5:ce:0a:a8:b0:fb:35:d6:bd:7e:4a:
         83:03:f8:30:7d:1d:d1:fb:54:27:d3:06:da:0a:8f:4c:df:db:
         b1:22:7d:f8
-----BEGIN CERTIFICATE-----
MIIFLjCCBBagAwIBAgIQG3R6tNoNWtkVuMH0SVBFSDANBgkqhkiG9w0BAQsFADCB
rzELMAkGA1UEBhMCVVMxEzARBgNVBAgMCkNhbGlmb3JuaWExFjAUBgNVBAcMDVNh
biBGcmFuY2lzY28xIDAeBgNVBAoMF0NvcHlsZWZ0IENlcnRpZmljYXRlIENvMR8w
HQYDVQQLDBZNeSBPcmdhbml6YXRpb25hbCBVbml0MREwDwYDVQQDDAhDaGFuZ2VN
ZTEdMBsGCSqGSIb3DQEJARYObWVAZXhhbXBsZS5uZXQwHhcNMjMxMTEzMTExMDM3
WhcNMjQxMTEyMTExMDM3WjCBujELMAkGA1UEBhMCVVMxCzAJBgNVBAgMAk9IMRMw
EQYDVQQHDApDaW5jaW5uYXRpMSEwHwYDVQQKDBhVbml2ZXJzaXR5IG9mIENpbmNp
bm5hdGkxKjAoBgNVBAsMIURlcHQuIEVsZWMuIENvbXAuIEVuZy4gQ29tcC4gU2Np
LjEQMA4GA1UEAwwHY2xpZW50ODEoMCYGCSqGSIb3DQEJARYZZnJhbmNvQGdhdXNz
LmVjZWNzLnVjLmVkdTCCASIwDQYJKoZIhvcNAQEBBQADggEPADCCAQoCggEBAOP3
te/CHbXco1k4WHiqW35FYJtfmfQ5RDvPbwJjAEo5k0zEB3S1SLMCev7xLMqXnP9j
jYrfon12fbnmUZ3rK4Aqdngtda4fk57EtV8tRTCj+ZIK4Xl9PDZpaeDO3aPycLNL
0zwv+vP4gBtS+OlrflsiUNFFK+cmpnjhDIf7pkyWWxt4fQL+PECFI2D5aVdwBfiO
6hutZXEpjGEj7I5xmMjcE/0JMZIz1s1w+ytq8LvSQnxNvHkhPhinfRZTzd2TYXQH
G7oeLuYA8cwA+2eBzidY741EIiffkadmMR/XJOcASX2EuSqi8FULS+yHuKOP4cyG
z0ZkYAR9hqeaivu9zpECAwEAAaOCATcwggEzMAkGA1UdEwQCMAAwHQYDVR0OBBYE
FFpr0TZ5wWY7FB5bDHBQ8IB2DTCSMIHkBgNVHSMEgdwwgdmAFBrcmPJpwffIHSFD
sDx5UE3YK4dUoYG1pIGyMIGvMQswCQYDVQQGEwJVUzETMBEGA1UECAwKQ2FsaWZv
cm5pYTEWMBQGA1UEBwwNU2FuIEZyYW5jaXNjbzEgMB4GA1UECgwXQ29weWxlZnQg
Q2VydGlmaWNhdGUgQ28xHzAdBgNVBAsMFk15IE9yZ2FuaXphdGlvbmFsIFVuaXQx
ETAPBgNVBAMMCENoYW5nZU1lMR0wGwYJKoZIhvcNAQkBFg5tZUBleGFtcGxlLm5l
dIIJAIybjoh6rG2LMBMGA1UdJQQMMAoGCCsGAQUFBwMCMAsGA1UdDwQEAwIHgDAN
BgkqhkiG9w0BAQsFAAOCAQEAgFeRwQhXFyg48PvxHuiRHIJWqN+LmLPAbc6AkItg
ruxHzKI/VAL6ZrjO6hD5Ianq9alLuJBEwqi6gIJpJL++0qIOlulH7gnHXdUsd7Hz
VztKgIngJWVqttj7PFfcDE0LqaviD5Q/y0uag/UYrBH7AcYbsYpkvzhWoQDbY6vc
xVu8WIy16c7mX6Vxq13CxtHqmc9sR+t2nq1fU5MRMupurP1ZfSVyjubZPd4OrbBr
rT8a+KXGasbcUI7hO6ataGv7J/3QauqpOrsr3LYfJA0iO+isnwxbtrH+MIn8GZ5l
muXOCqiw+zXWvX5KgwP4MH0d0ftUJ9MG2gqPTN/bsSJ9+A==
-----END CERTIFICATE-----
