Certificate:
    Data:
        Version: 3 (0x2)
        Serial Number:
            b9:46:6a:bc:68:90:1e:3b:11:28:63:96:be:99:03:11
    Signature Algorithm: sha256WithRSAEncryption
        Issuer: C=US, ST=California, L=San Francisco, O=Copyleft Certificate Co, OU=My Organizational Unit, CN=ChangeMe/emailAddress=me@example.net
        Validity
            Not Before: Jan 23 18:29:26 2021 GMT
            Not After : Jan 23 18:29:26 2022 GMT
        Subject: C=US, ST=OH, L=Cincinnati, O=University of Cincinnati, OU=Dept. Electrical Eng. and Computer Sci., CN=client93/emailAddress=franco@gauss.ececs.uc.edu
        Subject Public Key Info:
            Public Key Algorithm: rsaEncryption
                Public-Key: (2048 bit)
                Modulus:
                    00:c5:08:33:d6:f7:58:4b:a0:be:47:23:75:93:b5:
                    93:5e:f4:26:bd:4a:40:e1:71:7c:a3:04:33:87:25:
                    30:4d:7c:f7:b1:f0:77:f3:e6:1d:e0:3e:00:29:11:
                    cb:c9:28:cf:8e:e7:c7:82:8c:eb:a2:c1:41:e4:ac:
                    76:f6:99:26:2d:a3:eb:6a:94:be:ff:00:0f:95:e8:
                    c1:c7:94:ec:c6:b3:2e:d1:37:59:fc:a8:64:fc:64:
                    de:f3:bc:ba:7c:2b:71:67:9a:cd:11:8c:2d:97:b4:
                    83:b9:18:b1:0d:37:04:60:5b:ad:c0:9c:08:f0:49:
                    23:ca:66:1c:1d:e8:9f:63:a6:06:97:9c:0e:94:f1:
                    f8:ac:b4:71:d6:31:30:34:aa:02:45:20:90:43:43:
                    f8:5e:c6:4c:44:fa:91:11:14:1b:51:67:5f:fe:1b:
                    43:d9:c3:a2:c3:a1:c0:22:42:97:16:17:f5:c7:7e:
                    99:3a:69:88:f6:6d:b7:3f:05:8d:e9:50:d1:90:1d:
                    fd:02:b9:9c:8a:da:ac:c0:6c:9a:f7:92:ad:09:f7:
                    5e:23:a8:03:28:16:b9:54:5b:36:9c:d4:61:37:1d:
                    5d:e5:1b:71:da:65:7c:0b:25:f3:16:ba:40:38:ae:
                    01:d3:d0:9c:98:e7:b5:69:e2:10:a6:1b:46:86:b0:
                    95:9b
                Exponent: 65537 (0x10001)
        X509v3 extensions:
            X509v3 Basic Constraints: 
                CA:FALSE
            X509v3 Subject Key Identifier: 
                54:F5:04:B6:21:CB:92:40:E3:2A:1B:2D:CE:CD:18:D4:E0:42:76:F8
            X509v3 Authority Key Identifier: 
                keyid:EF:DC:B6:3D:4B:FD:A7:87:05:C5:22:3D:8B:DC:BF:99:2A:EE:E4:DB
                DirName:/C=US/ST=California/L=San Francisco/O=Copyleft Certificate Co/OU=My Organizational Unit/CN=ChangeMe/emailAddress=me@example.net
                serial:87:1E:1D:DC:6B:8C:66:88

            X509v3 Extended Key Usage: 
                TLS Web Client Authentication
            X509v3 Key Usage: 
                Digital Signature
    Signature Algorithm: sha256WithRSAEncryption
         02:b2:f0:1f:5d:a6:59:46:f9:b0:a6:e1:46:1e:0c:3d:b8:59:
         fb:67:96:96:06:b3:e7:6d:fd:66:39:d8:09:3a:29:63:69:9c:
         43:28:f4:23:2c:03:58:b0:00:52:5f:63:ae:03:08:64:b6:30:
         17:fc:10:90:db:52:69:07:65:c6:ff:f4:04:c8:90:f4:22:bd:
         47:c7:61:8d:ce:f2:76:be:7a:07:dc:9d:8f:81:95:5f:01:54:
         bf:ec:15:a5:86:d9:e5:18:56:f9:23:ef:e6:32:bd:3b:31:c6:
         8d:06:82:f0:48:ad:ce:7f:93:c2:71:87:7e:34:98:50:8c:88:
         98:84:9c:53:14:b1:4e:2e:a8:9d:a8:5a:d7:8d:89:b1:cb:17:
         7a:88:0d:61:de:5a:2f:92:5e:c7:f2:7e:dd:9a:cc:fe:72:27:
         c7:dc:44:28:3b:71:0f:f1:30:97:4c:f4:e4:1d:78:7c:82:0f:
         d2:df:97:a0:46:a4:14:6f:6a:03:3b:21:a3:a5:8d:a6:11:89:
         b0:ff:83:98:41:51:59:93:fd:69:c1:ca:58:30:b0:f4:59:e6:
         aa:63:d0:f3:20:0e:6d:57:d0:27:50:89:6d:36:45:7b:0d:d2:
         4e:74:7e:04:bd:51:2e:93:c3:2a:cc:2e:df:8c:21:c4:d4:12:
         c6:c8:aa:a2
-----BEGIN CERTIFICATE-----
MIIFNjCCBB6gAwIBAgIRALlGarxokB47EShjlr6ZAxEwDQYJKoZIhvcNAQELBQAw
ga8xCzAJBgNVBAYTAlVTMRMwEQYDVQQIDApDYWxpZm9ybmlhMRYwFAYDVQQHDA1T
YW4gRnJhbmNpc2NvMSAwHgYDVQQKDBdDb3B5bGVmdCBDZXJ0aWZpY2F0ZSBDbzEf
MB0GA1UECwwWTXkgT3JnYW5pemF0aW9uYWwgVW5pdDERMA8GA1UEAwwIQ2hhbmdl
TWUxHTAbBgkqhkiG9w0BCQEWDm1lQGV4YW1wbGUubmV0MB4XDTIxMDEyMzE4Mjky
NloXDTIyMDEyMzE4MjkyNlowgcExCzAJBgNVBAYTAlVTMQswCQYDVQQIDAJPSDET
MBEGA1UEBwwKQ2luY2lubmF0aTEhMB8GA1UECgwYVW5pdmVyc2l0eSBvZiBDaW5j
aW5uYXRpMTAwLgYDVQQLDCdEZXB0LiBFbGVjdHJpY2FsIEVuZy4gYW5kIENvbXB1
dGVyIFNjaS4xETAPBgNVBAMMCGNsaWVudDkzMSgwJgYJKoZIhvcNAQkBFhlmcmFu
Y29AZ2F1c3MuZWNlY3MudWMuZWR1MIIBIjANBgkqhkiG9w0BAQEFAAOCAQ8AMIIB
CgKCAQEAxQgz1vdYS6C+RyN1k7WTXvQmvUpA4XF8owQzhyUwTXz3sfB38+Yd4D4A
KRHLySjPjufHgozrosFB5Kx29pkmLaPrapS+/wAPlejBx5TsxrMu0TdZ/Khk/GTe
87y6fCtxZ5rNEYwtl7SDuRixDTcEYFutwJwI8EkjymYcHeifY6YGl5wOlPH4rLRx
1jEwNKoCRSCQQ0P4XsZMRPqRERQbUWdf/htD2cOiw6HAIkKXFhf1x36ZOmmI9m23
PwWN6VDRkB39ArmcitqswGya95KtCfdeI6gDKBa5VFs2nNRhNx1d5Rtx2mV8CyXz
FrpAOK4B09CcmOe1aeIQphtGhrCVmwIDAQABo4IBNzCCATMwCQYDVR0TBAIwADAd
BgNVHQ4EFgQUVPUEtiHLkkDjKhstzs0Y1OBCdvgwgeQGA1UdIwSB3DCB2YAU79y2
PUv9p4cFxSI9i9y/mSru5NuhgbWkgbIwga8xCzAJBgNVBAYTAlVTMRMwEQYDVQQI
DApDYWxpZm9ybmlhMRYwFAYDVQQHDA1TYW4gRnJhbmNpc2NvMSAwHgYDVQQKDBdD
b3B5bGVmdCBDZXJ0aWZpY2F0ZSBDbzEfMB0GA1UECwwWTXkgT3JnYW5pemF0aW9u
YWwgVW5pdDERMA8GA1UEAwwIQ2hhbmdlTWUxHTAbBgkqhkiG9w0BCQEWDm1lQGV4
YW1wbGUubmV0ggkAhx4d3GuMZogwEwYDVR0lBAwwCgYIKwYBBQUHAwIwCwYDVR0P
BAQDAgeAMA0GCSqGSIb3DQEBCwUAA4IBAQACsvAfXaZZRvmwpuFGHgw9uFn7Z5aW
BrPnbf1mOdgJOiljaZxDKPQjLANYsABSX2OuAwhktjAX/BCQ21JpB2XG//QEyJD0
Ir1Hx2GNzvJ2vnoH3J2PgZVfAVS/7BWlhtnlGFb5I+/mMr07McaNBoLwSK3Of5PC
cYd+NJhQjIiYhJxTFLFOLqidqFrXjYmxyxd6iA1h3lovkl7H8n7dmsz+cifH3EQo
O3EP8TCXTPTkHXh8gg/S35egRqQUb2oDOyGjpY2mEYmw/4OYQVFZk/1pwcpYMLD0
WeaqY9DzIA5tV9AnUIltNkV7DdJOdH4EvVEuk8MqzC7fjCHE1BLGyKqi
-----END CERTIFICATE-----
