Certificate:
    Data:
        Version: 3 (0x2)
        Serial Number:
            ca:0c:66:41:7d:da:f9:b2:cd:a0:d0:b5:80:06:e3:c6
    Signature Algorithm: sha256WithRSAEncryption
        Issuer: C=US, ST=California, L=San Francisco, O=Copyleft Certificate Co, OU=My Organizational Unit, CN=ChangeMe/emailAddress=me@example.net
        Validity
            Not Before: Jan 23 18:27:39 2021 GMT
            Not After : Jan 23 18:27:39 2022 GMT
        Subject: C=US, ST=OH, L=Cincinnati, O=University of Cincinnati, OU=Dept. Electrical Eng. and Computer Sci., CN=client16/emailAddress=franco@gauss.ececs.uc.edu
        Subject Public Key Info:
            Public Key Algorithm: rsaEncryption
                Public-Key: (2048 bit)
                Modulus:
                    00:b8:dc:a4:6b:08:28:9a:19:f9:e0:ae:61:14:ae:
                    c2:1f:4e:14:06:23:93:ac:57:2d:ef:b0:e9:7d:13:
                    9d:13:8d:a4:3c:bf:13:1e:6a:15:c5:3b:c2:b4:76:
                    2a:77:fe:7e:fc:29:26:ed:ba:ae:52:e3:af:42:67:
                    8d:49:78:b1:e2:5b:c1:19:83:33:6b:c1:90:f5:f1:
                    b8:b3:d8:20:b7:d2:9f:2e:e3:eb:54:4e:49:32:d6:
                    0e:88:99:cc:75:e2:76:b0:83:f2:30:ba:88:9f:e8:
                    48:ed:23:7b:0e:df:d6:b9:4f:65:ac:04:33:f8:55:
                    5c:41:10:29:f8:a2:ea:a1:16:4b:77:f2:ad:40:60:
                    af:29:2d:f4:e1:60:45:e4:fd:56:4a:71:93:55:72:
                    70:c5:ed:03:e5:18:3b:73:ae:84:65:98:fb:f8:57:
                    d9:c1:4c:f1:5d:2a:a0:73:25:7a:5c:98:d0:b7:1a:
                    93:4f:ca:1b:a9:9a:0c:d3:76:4e:e5:d5:5b:18:ab:
                    79:79:7c:f5:ee:1f:59:77:cd:71:3b:73:2b:c8:f1:
                    ca:e3:19:7d:2b:2d:c2:94:ab:90:8c:59:eb:e3:da:
                    ea:ac:79:b2:53:72:10:60:e9:a3:31:56:9e:4d:46:
                    ea:2b:fb:f5:d4:b7:bf:da:b2:08:1b:1c:37:83:fa:
                    02:fd
                Exponent: 65537 (0x10001)
        X509v3 extensions:
            X509v3 Basic Constraints: 
                CA:FALSE
            X509v3 Subject Key Identifier: 
                11:B0:2B:AC:E4:FD:8C:90:1E:49:C2:E4:0A:B0:84:56:89:3A:33:3F
            X509v3 Authority Key Identifier: 
                keyid:EF:DC:B6:3D:4B:FD:A7:87:05:C5:22:3D:8B:DC:BF:99:2A:EE:E4:DB
                DirName:/C=US/ST=California/L=San Francisco/O=Copyleft Certificate Co/OU=My Organizational Unit/CN=ChangeMe/emailAddress=me@example.net
                serial:87:1E:1D:DC:6B:8C:66:88

            X509v3 Extended Key Usage: 
                TLS Web Client Authentication
            X509v3 Key Usage: 
                Digital Signature
    Signature Algorithm: sha256WithRSAEncryption
         28:84:4a:b2:f5:0f:ed:86:8d:c7:44:ef:e5:86:06:f3:05:c6:
         e5:db:f6:bf:ba:f2:6f:f4:98:43:d6:a2:36:f3:d7:92:ee:25:
         46:b9:fd:a7:d9:9c:f2:7d:aa:33:e2:93:ad:b6:b8:9a:37:35:
         4f:48:7d:69:77:3f:51:fd:4e:dd:7a:25:63:5a:84:23:95:e4:
         49:75:7d:86:48:d3:4a:12:a1:d9:b3:69:f8:fc:f9:6a:a1:8c:
         71:3f:74:5e:26:33:6b:3f:6b:66:99:96:0f:0c:3f:3d:ea:78:
         f8:cf:ab:50:c9:14:59:7c:ef:98:77:e4:27:17:06:89:e5:96:
         0d:79:a0:e8:3b:dd:11:ec:e0:2b:8e:7c:2c:3e:55:bd:ed:d6:
         22:fc:d8:46:13:c4:53:88:b7:48:a9:d4:d3:ce:2d:f8:9a:af:
         bd:28:fb:ce:21:89:ae:7a:69:a8:a8:dc:aa:27:f1:cc:99:6b:
         cd:bf:3c:69:7f:a9:e6:81:f0:95:84:c4:08:e9:61:50:f1:3b:
         6b:d8:11:c0:35:b1:c2:4d:32:fb:bc:bd:a1:af:ea:89:52:55:
         ee:6d:a0:2c:08:f6:36:d5:65:1b:11:cf:37:fa:42:1e:75:66:
         74:06:1d:c3:0c:5c:0b:75:77:05:dc:7a:14:d6:3c:1b:69:6e:
         9c:3b:3b:8a
-----BEGIN CERTIFICATE-----
MIIFNjCCBB6gAwIBAgIRAMoMZkF92vmyzaDQtYAG48YwDQYJKoZIhvcNAQELBQAw
ga8xCzAJBgNVBAYTAlVTMRMwEQYDVQQIDApDYWxpZm9ybmlhMRYwFAYDVQQHDA1T
YW4gRnJhbmNpc2NvMSAwHgYDVQQKDBdDb3B5bGVmdCBDZXJ0aWZpY2F0ZSBDbzEf
MB0GA1UECwwWTXkgT3JnYW5pemF0aW9uYWwgVW5pdDERMA8GA1UEAwwIQ2hhbmdl
TWUxHTAbBgkqhkiG9w0BCQEWDm1lQGV4YW1wbGUubmV0MB4XDTIxMDEyMzE4Mjcz
OVoXDTIyMDEyMzE4MjczOVowgcExCzAJBgNVBAYTAlVTMQswCQYDVQQIDAJPSDET
MBEGA1UEBwwKQ2luY2lubmF0aTEhMB8GA1UECgwYVW5pdmVyc2l0eSBvZiBDaW5j
aW5uYXRpMTAwLgYDVQQLDCdEZXB0LiBFbGVjdHJpY2FsIEVuZy4gYW5kIENvbXB1
dGVyIFNjaS4xETAPBgNVBAMMCGNsaWVudDE2MSgwJgYJKoZIhvcNAQkBFhlmcmFu
Y29AZ2F1c3MuZWNlY3MudWMuZWR1MIIBIjANBgkqhkiG9w0BAQEFAAOCAQ8AMIIB
CgKCAQEAuNykawgomhn54K5hFK7CH04UBiOTrFct77DpfROdE42kPL8THmoVxTvC
tHYqd/5+/Ckm7bquUuOvQmeNSXix4lvBGYMza8GQ9fG4s9ggt9KfLuPrVE5JMtYO
iJnMdeJ2sIPyMLqIn+hI7SN7Dt/WuU9lrAQz+FVcQRAp+KLqoRZLd/KtQGCvKS30
4WBF5P1WSnGTVXJwxe0D5Rg7c66EZZj7+FfZwUzxXSqgcyV6XJjQtxqTT8obqZoM
03ZO5dVbGKt5eXz17h9Zd81xO3MryPHK4xl9Ky3ClKuQjFnr49rqrHmyU3IQYOmj
MVaeTUbqK/v11Le/2rIIGxw3g/oC/QIDAQABo4IBNzCCATMwCQYDVR0TBAIwADAd
BgNVHQ4EFgQUEbArrOT9jJAeScLkCrCEVok6Mz8wgeQGA1UdIwSB3DCB2YAU79y2
PUv9p4cFxSI9i9y/mSru5NuhgbWkgbIwga8xCzAJBgNVBAYTAlVTMRMwEQYDVQQI
DApDYWxpZm9ybmlhMRYwFAYDVQQHDA1TYW4gRnJhbmNpc2NvMSAwHgYDVQQKDBdD
b3B5bGVmdCBDZXJ0aWZpY2F0ZSBDbzEfMB0GA1UECwwWTXkgT3JnYW5pemF0aW9u
YWwgVW5pdDERMA8GA1UEAwwIQ2hhbmdlTWUxHTAbBgkqhkiG9w0BCQEWDm1lQGV4
YW1wbGUubmV0ggkAhx4d3GuMZogwEwYDVR0lBAwwCgYIKwYBBQUHAwIwCwYDVR0P
BAQDAgeAMA0GCSqGSIb3DQEBCwUAA4IBAQAohEqy9Q/tho3HRO/lhgbzBcbl2/a/
uvJv9JhD1qI289eS7iVGuf2n2Zzyfaoz4pOttriaNzVPSH1pdz9R/U7deiVjWoQj
leRJdX2GSNNKEqHZs2n4/PlqoYxxP3ReJjNrP2tmmZYPDD896nj4z6tQyRRZfO+Y
d+QnFwaJ5ZYNeaDoO90R7OArjnwsPlW97dYi/NhGE8RTiLdIqdTTzi34mq+9KPvO
IYmuemmoqNyqJ/HMmWvNvzxpf6nmgfCVhMQI6WFQ8Ttr2BHANbHCTTL7vL2hr+qJ
UlXubaAsCPY21WUbEc83+kIedWZ0Bh3DDFwLdXcF3HoU1jwbaW6cOzuK
-----END CERTIFICATE-----
