Certificate:
    Data:
        Version: 3 (0x2)
        Serial Number:
            cc:ee:1b:0c:60:69:d2:db:48:c4:c9:1a:64:c4:0e:8d
    Signature Algorithm: sha256WithRSAEncryption
        Issuer: C=US, ST=California, L=San Francisco, O=Copyleft Certificate Co, OU=My Organizational Unit, CN=ChangeMe/emailAddress=me@example.net
        Validity
            Not Before: Jan 23 18:29:16 2021 GMT
            Not After : Jan 23 18:29:16 2022 GMT
        Subject: C=US, ST=OH, L=Cincinnati, O=University of Cincinnati, OU=Dept. Electrical Eng. and Computer Sci., CN=client86/emailAddress=franco@gauss.ececs.uc.edu
        Subject Public Key Info:
            Public Key Algorithm: rsaEncryption
                Public-Key: (2048 bit)
                Modulus:
                    00:d1:0b:85:32:56:ea:f7:4b:20:86:61:2c:e2:7c:
                    d6:a9:67:06:03:86:18:35:2c:5f:b4:85:6d:33:c9:
                    e5:05:b7:f0:25:df:b1:e4:e3:3b:27:b7:4a:68:ed:
                    b8:29:3c:ab:45:49:ba:74:f6:cc:6b:46:04:2b:85:
                    65:66:d2:08:de:97:e7:e4:2a:c2:87:f3:3f:5d:ab:
                    a8:79:9d:4c:ad:20:c4:a0:39:22:44:a2:8d:c1:ce:
                    b4:0c:63:0e:98:1a:7c:0a:7d:36:36:fd:f3:aa:d6:
                    38:60:f5:01:24:76:e0:88:e9:67:7c:56:17:0e:21:
                    5b:a0:34:d5:2e:4c:01:b0:35:76:86:c1:cb:55:8c:
                    34:f5:6e:0f:38:3b:db:d3:cd:a0:1f:8c:73:16:25:
                    dd:62:30:a1:06:da:a4:6c:7d:f5:2b:c7:c4:b3:0f:
                    70:aa:bd:31:56:2f:48:d3:38:a7:ab:60:46:2c:94:
                    4d:00:7e:26:4f:6f:66:d4:2c:c8:82:40:f8:19:91:
                    71:e8:6d:c1:2a:9b:1f:e0:8d:86:ff:71:5f:59:5a:
                    d0:00:f1:74:e9:88:b1:7c:ef:62:40:94:04:30:8c:
                    f0:95:09:4d:d3:38:e2:01:ad:37:45:ec:3a:9e:b7:
                    c8:5e:92:26:c1:df:fc:51:a8:5f:a5:af:63:f4:6e:
                    ea:3b
                Exponent: 65537 (0x10001)
        X509v3 extensions:
            X509v3 Basic Constraints: 
                CA:FALSE
            X509v3 Subject Key Identifier: 
                10:69:C2:7F:2E:AB:D4:7D:1F:41:3B:95:CD:4E:5E:8E:ED:BD:DE:1C
            X509v3 Authority Key Identifier: 
                keyid:EF:DC:B6:3D:4B:FD:A7:87:05:C5:22:3D:8B:DC:BF:99:2A:EE:E4:DB
                DirName:/C=US/ST=California/L=San Francisco/O=Copyleft Certificate Co/OU=My Organizational Unit/CN=ChangeMe/emailAddress=me@example.net
                serial:87:1E:1D:DC:6B:8C:66:88

            X509v3 Extended Key Usage: 
                TLS Web Client Authentication
            X509v3 Key Usage: 
                Digital Signature
    Signature Algorithm: sha256WithRSAEncryption
         3e:93:35:a3:87:1c:b5:e3:c3:f7:d9:b5:27:7d:28:be:04:ef:
         c5:c2:f4:a2:87:9c:51:25:5b:4f:96:bf:87:fc:1c:86:36:4c:
         a0:54:96:04:93:0c:4d:07:e9:0a:b7:84:8f:1a:e6:c6:16:f5:
         e0:26:83:05:c0:72:0b:70:3d:e7:48:50:a4:28:ed:54:5e:b3:
         4b:cb:41:9a:d9:9f:ab:77:1c:33:be:a1:03:00:e0:da:4d:1b:
         41:e9:1d:c0:ac:1b:bc:6d:14:09:e6:94:90:64:d9:51:64:e1:
         e4:8d:f1:9e:b0:0e:ce:e6:84:b3:65:af:bc:f7:48:f2:64:f7:
         cf:1a:67:ad:dd:68:ba:a2:13:e1:97:33:2c:78:84:54:b7:db:
         32:72:97:72:f4:cf:b7:3c:cc:d5:72:79:d9:d2:7a:63:44:f9:
         2a:37:fc:f2:9d:3e:89:81:4f:a2:38:4c:ec:8b:ae:26:e4:b1:
         b5:9b:09:0a:1b:60:ee:d4:f2:67:4d:78:bf:c1:48:2e:be:08:
         87:20:68:ac:6a:4e:e9:4c:3f:de:98:18:37:50:0a:99:bf:90:
         5e:3e:e2:9f:3e:6e:b5:30:f8:a7:94:bb:d4:e6:a5:f5:92:37:
         40:b7:78:cd:f5:1b:dc:98:36:94:fb:13:3f:5e:9e:6e:4f:8a:
         79:85:5f:a5
-----BEGIN CERTIFICATE-----
MIIFNjCCBB6gAwIBAgIRAMzuGwxgadLbSMTJGmTEDo0wDQYJKoZIhvcNAQELBQAw
ga8xCzAJBgNVBAYTAlVTMRMwEQYDVQQIDApDYWxpZm9ybmlhMRYwFAYDVQQHDA1T
YW4gRnJhbmNpc2NvMSAwHgYDVQQKDBdDb3B5bGVmdCBDZXJ0aWZpY2F0ZSBDbzEf
MB0GA1UECwwWTXkgT3JnYW5pemF0aW9uYWwgVW5pdDERMA8GA1UEAwwIQ2hhbmdl
TWUxHTAbBgkqhkiG9w0BCQEWDm1lQGV4YW1wbGUubmV0MB4XDTIxMDEyMzE4Mjkx
NloXDTIyMDEyMzE4MjkxNlowgcExCzAJBgNVBAYTAlVTMQswCQYDVQQIDAJPSDET
MBEGA1UEBwwKQ2luY2lubmF0aTEhMB8GA1UECgwYVW5pdmVyc2l0eSBvZiBDaW5j
aW5uYXRpMTAwLgYDVQQLDCdEZXB0LiBFbGVjdHJpY2FsIEVuZy4gYW5kIENvbXB1
dGVyIFNjaS4xETAPBgNVBAMMCGNsaWVudDg2MSgwJgYJKoZIhvcNAQkBFhlmcmFu
Y29AZ2F1c3MuZWNlY3MudWMuZWR1MIIBIjANBgkqhkiG9w0BAQEFAAOCAQ8AMIIB
CgKCAQEA0QuFMlbq90sghmEs4nzWqWcGA4YYNSxftIVtM8nlBbfwJd+x5OM7J7dK
aO24KTyrRUm6dPbMa0YEK4VlZtII3pfn5CrCh/M/XauoeZ1MrSDEoDkiRKKNwc60
DGMOmBp8Cn02Nv3zqtY4YPUBJHbgiOlnfFYXDiFboDTVLkwBsDV2hsHLVYw09W4P
ODvb082gH4xzFiXdYjChBtqkbH31K8fEsw9wqr0xVi9I0zinq2BGLJRNAH4mT29m
1CzIgkD4GZFx6G3BKpsf4I2G/3FfWVrQAPF06YixfO9iQJQEMIzwlQlN0zjiAa03
Rew6nrfIXpImwd/8Uahfpa9j9G7qOwIDAQABo4IBNzCCATMwCQYDVR0TBAIwADAd
BgNVHQ4EFgQUEGnCfy6r1H0fQTuVzU5eju293hwwgeQGA1UdIwSB3DCB2YAU79y2
PUv9p4cFxSI9i9y/mSru5NuhgbWkgbIwga8xCzAJBgNVBAYTAlVTMRMwEQYDVQQI
DApDYWxpZm9ybmlhMRYwFAYDVQQHDA1TYW4gRnJhbmNpc2NvMSAwHgYDVQQKDBdD
b3B5bGVmdCBDZXJ0aWZpY2F0ZSBDbzEfMB0GA1UECwwWTXkgT3JnYW5pemF0aW9u
YWwgVW5pdDERMA8GA1UEAwwIQ2hhbmdlTWUxHTAbBgkqhkiG9w0BCQEWDm1lQGV4
YW1wbGUubmV0ggkAhx4d3GuMZogwEwYDVR0lBAwwCgYIKwYBBQUHAwIwCwYDVR0P
BAQDAgeAMA0GCSqGSIb3DQEBCwUAA4IBAQA+kzWjhxy148P32bUnfSi+BO/FwvSi
h5xRJVtPlr+H/ByGNkygVJYEkwxNB+kKt4SPGubGFvXgJoMFwHILcD3nSFCkKO1U
XrNLy0Ga2Z+rdxwzvqEDAODaTRtB6R3ArBu8bRQJ5pSQZNlRZOHkjfGesA7O5oSz
Za+890jyZPfPGmet3Wi6ohPhlzMseIRUt9sycpdy9M+3PMzVcnnZ0npjRPkqN/zy
nT6JgU+iOEzsi64m5LG1mwkKG2Du1PJnTXi/wUguvgiHIGisak7pTD/emBg3UAqZ
v5BePuKfPm61MPinlLvU5qX1kjdAt3jN9RvcmDaU+xM/Xp5uT4p5hV+l
-----END CERTIFICATE-----
