Certificate:
    Data:
        Version: 3 (0x2)
        Serial Number:
            4c:63:8d:f5:bf:78:0d:40:0a:0a:78:be:9a:ea:72:6c
    Signature Algorithm: sha256WithRSAEncryption
        Issuer: C=US, ST=California, L=San Francisco, O=Copyleft Certificate Co, OU=My Organizational Unit, CN=ChangeMe/emailAddress=me@example.net
        Validity
            Not Before: Nov 10 17:25:00 2023 GMT
            Not After : Nov  9 17:25:00 2024 GMT
        Subject: C=US, ST=OH, L=Cincinnati, O=University of Cincinnati, OU=Dept_Elec_Com_ Eng_Com_Sci., CN=client9/emailAddress=franco@gauss.ececs.uc.edu
        Subject Public Key Info:
            Public Key Algorithm: rsaEncryption
                Public-Key: (2048 bit)
                Modulus:
                    00:c4:68:62:c9:bd:a6:d6:17:67:b0:8c:65:1b:84:
                    7a:9a:63:23:0b:a6:b4:3f:70:0a:33:d7:ca:8e:90:
                    0d:10:06:ca:65:51:cb:55:7f:2a:5a:57:da:6f:05:
                    c1:f2:6d:16:21:36:06:a4:bd:24:c9:90:1f:61:db:
                    48:cf:4c:62:28:89:0e:64:34:38:3c:d5:cb:e3:c3:
                    99:bc:b5:a5:39:45:6d:4e:c1:fa:5b:84:6b:c2:42:
                    fa:7d:64:cd:17:3c:8e:4a:af:91:b1:12:5e:1b:57:
                    1c:e9:8d:52:71:ad:e3:4c:c7:a5:e0:42:98:39:d4:
                    67:fb:47:5d:40:83:c8:47:4a:12:78:68:97:b1:2c:
                    e7:f7:45:ac:c0:04:bf:44:57:5f:c0:6f:02:c5:60:
                    1a:bb:63:d2:bc:e6:85:33:3f:34:2b:5f:cd:07:67:
                    f5:fc:e4:aa:3a:55:e1:4c:d3:ba:c1:89:36:c5:05:
                    ef:7d:5e:25:f9:f1:f1:da:71:ac:6f:36:f5:f0:77:
                    e6:5f:0d:47:72:d3:3c:5c:c8:fe:08:6a:67:c6:ed:
                    07:53:54:1a:96:1c:42:c7:c3:b0:62:3f:b4:2a:f8:
                    8b:2c:2f:69:8f:5a:5c:68:51:00:8f:38:10:13:fe:
                    72:dc:98:b7:7f:e1:40:17:c8:1c:e1:5a:02:e1:f4:
                    56:ef
                Exponent: 65537 (0x10001)
        X509v3 extensions:
            X509v3 Basic Constraints: 
                CA:FALSE
            X509v3 Subject Key Identifier: 
                BC:14:27:60:E9:9F:95:51:CC:50:83:44:4E:62:C2:7B:94:76:47:77
            X509v3 Authority Key Identifier: 
                keyid:D9:D4:8C:20:BC:EB:38:17:D5:4B:52:F8:AA:C5:D2:44:DD:A2:6A:3B
                DirName:/C=US/ST=California/L=San Francisco/O=Copyleft Certificate Co/OU=My Organizational Unit/CN=ChangeMe/emailAddress=me@example.net
                serial:C2:48:34:65:BF:AB:EB:AA

            X509v3 Extended Key Usage: 
                TLS Web Client Authentication
            X509v3 Key Usage: 
                Digital Signature
    Signature Algorithm: sha256WithRSAEncryption
         05:83:db:a6:9b:44:cf:f9:e1:76:55:e0:58:4a:b8:b5:8d:5b:
         1b:63:dd:4b:12:a9:7c:16:67:d2:d0:e0:7a:9e:70:a0:82:7a:
         eb:3f:e6:64:8f:fa:bc:37:fe:65:93:1b:0b:4d:ea:c4:0e:d1:
         33:f7:dd:e0:78:63:fa:39:0c:92:63:57:70:f2:f4:cc:b9:51:
         96:d4:68:36:ba:27:4e:00:1a:b5:c7:59:d6:e7:9b:88:f8:ef:
         a6:70:03:53:fa:a9:07:4e:a8:8e:90:7a:d4:b9:c5:fe:40:e2:
         c9:97:32:fb:8b:b8:a4:c1:1c:d1:6f:f8:4b:50:8e:d0:a8:ce:
         2d:1c:7d:d9:2d:9b:23:c3:81:0e:14:43:29:99:75:af:44:2b:
         6c:66:02:52:a7:3d:7e:26:84:7b:c8:cb:06:00:ef:83:40:b0:
         d5:07:8d:b5:9b:02:2d:df:5b:c8:83:9e:a6:da:49:0e:24:b9:
         c1:ec:ba:61:97:51:00:92:1b:5a:ba:af:8e:04:a1:ea:ed:61:
         1d:27:37:9b:62:11:e6:63:79:d5:93:89:0c:98:e6:b3:c7:84:
         f4:57:6d:9d:b9:e1:1f:29:df:45:6d:75:6a:fe:60:45:f0:38:
         53:26:53:84:74:4b:c0:e9:ef:c9:70:3a:10:2c:07:b1:7e:57:
         97:8b:b4:7d
-----BEGIN CERTIFICATE-----
MIIFKDCCBBCgAwIBAgIQTGON9b94DUAKCni+mupybDANBgkqhkiG9w0BAQsFADCB
rzELMAkGA1UEBhMCVVMxEzARBgNVBAgMCkNhbGlmb3JuaWExFjAUBgNVBAcMDVNh
biBGcmFuY2lzY28xIDAeBgNVBAoMF0NvcHlsZWZ0IENlcnRpZmljYXRlIENvMR8w
HQYDVQQLDBZNeSBPcmdhbml6YXRpb25hbCBVbml0MREwDwYDVQQDDAhDaGFuZ2VN
ZTEdMBsGCSqGSIb3DQEJARYObWVAZXhhbXBsZS5uZXQwHhcNMjMxMTEwMTcyNTAw
WhcNMjQxMTA5MTcyNTAwWjCBtDELMAkGA1UEBhMCVVMxCzAJBgNVBAgMAk9IMRMw
EQYDVQQHDApDaW5jaW5uYXRpMSEwHwYDVQQKDBhVbml2ZXJzaXR5IG9mIENpbmNp
bm5hdGkxJDAiBgNVBAsMG0RlcHRfRWxlY19Db21fIEVuZ19Db21fU2NpLjEQMA4G
A1UEAwwHY2xpZW50OTEoMCYGCSqGSIb3DQEJARYZZnJhbmNvQGdhdXNzLmVjZWNz
LnVjLmVkdTCCASIwDQYJKoZIhvcNAQEBBQADggEPADCCAQoCggEBAMRoYsm9ptYX
Z7CMZRuEeppjIwumtD9wCjPXyo6QDRAGymVRy1V/KlpX2m8FwfJtFiE2BqS9JMmQ
H2HbSM9MYiiJDmQ0ODzVy+PDmby1pTlFbU7B+luEa8JC+n1kzRc8jkqvkbESXhtX
HOmNUnGt40zHpeBCmDnUZ/tHXUCDyEdKEnhol7Es5/dFrMAEv0RXX8BvAsVgGrtj
0rzmhTM/NCtfzQdn9fzkqjpV4UzTusGJNsUF731eJfnx8dpxrG829fB35l8NR3LT
PFzI/ghqZ8btB1NUGpYcQsfDsGI/tCr4iywvaY9aXGhRAI84EBP+ctyYt3/hQBfI
HOFaAuH0Vu8CAwEAAaOCATcwggEzMAkGA1UdEwQCMAAwHQYDVR0OBBYEFLwUJ2Dp
n5VRzFCDRE5iwnuUdkd3MIHkBgNVHSMEgdwwgdmAFNnUjCC86zgX1UtS+KrF0kTd
omo7oYG1pIGyMIGvMQswCQYDVQQGEwJVUzETMBEGA1UECAwKQ2FsaWZvcm5pYTEW
MBQGA1UEBwwNU2FuIEZyYW5jaXNjbzEgMB4GA1UECgwXQ29weWxlZnQgQ2VydGlm
aWNhdGUgQ28xHzAdBgNVBAsMFk15IE9yZ2FuaXphdGlvbmFsIFVuaXQxETAPBgNV
BAMMCENoYW5nZU1lMR0wGwYJKoZIhvcNAQkBFg5tZUBleGFtcGxlLm5ldIIJAMJI
NGW/q+uqMBMGA1UdJQQMMAoGCCsGAQUFBwMCMAsGA1UdDwQEAwIHgDANBgkqhkiG
9w0BAQsFAAOCAQEABYPbpptEz/nhdlXgWEq4tY1bG2PdSxKpfBZn0tDgep5woIJ6
6z/mZI/6vDf+ZZMbC03qxA7RM/fd4Hhj+jkMkmNXcPL0zLlRltRoNronTgAatcdZ
1uebiPjvpnADU/qpB06ojpB61LnF/kDiyZcy+4u4pMEc0W/4S1CO0KjOLRx92S2b
I8OBDhRDKZl1r0QrbGYCUqc9fiaEe8jLBgDvg0Cw1QeNtZsCLd9byIOeptpJDiS5
wey6YZdRAJIbWrqvjgSh6u1hHSc3m2IR5mN51ZOJDJjms8eE9FdtnbnhHynfRW11
av5gRfA4UyZThHRLwOnvyXA6ECwHsX5Xl4u0fQ==
-----END CERTIFICATE-----
