Certificate:
    Data:
        Version: 3 (0x2)
        Serial Number:
            71:a9:fc:1e:94:35:b4:17:9b:be:df:4b:87:00:a7:22
    Signature Algorithm: sha256WithRSAEncryption
        Issuer: C=US, ST=California, L=San Francisco, O=Copyleft Certificate Co, OU=My Organizational Unit, CN=ChangeMe/emailAddress=me@example.net
        Validity
            Not Before: Nov 13 11:12:53 2023 GMT
            Not After : Nov 12 11:12:53 2024 GMT
        Subject: C=US, ST=OH, L=Cincinnati, O=University of Cincinnati, OU=Dept. Elec. Comp. Eng. Comp. Sci., CN=client42/emailAddress=franco@gauss.ececs.uc.edu
        Subject Public Key Info:
            Public Key Algorithm: rsaEncryption
                Public-Key: (2048 bit)
                Modulus:
                    00:b5:b6:8a:48:3b:76:c5:cf:07:3d:94:03:20:f1:
                    8b:80:c4:4e:f3:14:be:f5:73:3d:09:39:a7:a7:12:
                    d1:85:6d:d1:58:25:cd:7f:99:1e:63:74:7f:6d:d2:
                    44:77:eb:59:dd:78:d3:0c:8b:a7:37:4d:01:81:10:
                    bc:5f:e3:7b:26:d5:75:10:0a:c9:12:41:3d:87:09:
                    23:1c:ba:5b:77:7a:09:1b:73:ba:54:64:4b:83:51:
                    27:a9:c6:96:c6:48:fe:23:1c:64:ea:7d:b6:c6:0d:
                    c6:72:3c:e3:9b:c9:5b:95:93:45:cf:bd:15:d4:d2:
                    66:87:cb:70:7c:2c:0f:81:e3:f2:20:a6:45:4c:65:
                    e0:59:28:14:85:17:80:0a:2b:84:2a:08:94:d3:5d:
                    4f:b9:fc:1f:6a:15:44:e7:09:82:f6:42:58:25:f9:
                    91:00:ea:92:94:94:c7:7e:b4:d2:78:2c:65:cf:0c:
                    3f:b9:3c:33:65:7b:d0:65:cb:da:48:33:cd:bd:60:
                    f2:2c:61:04:aa:7d:eb:72:09:94:4f:92:62:97:e0:
                    b1:d8:de:f6:18:3c:52:c9:17:8d:64:6b:70:db:bd:
                    82:dd:08:cc:d6:bb:25:d2:d4:3e:bb:d4:37:d5:26:
                    bc:f4:cf:39:a6:10:be:76:27:ae:d1:c2:a0:09:86:
                    73:5f
                Exponent: 65537 (0x10001)
        X509v3 extensions:
            X509v3 Basic Constraints: 
                CA:FALSE
            X509v3 Subject Key Identifier: 
                45:91:B7:20:F9:49:36:9D:00:B2:63:34:15:98:C6:D2:5E:4B:C6:E2
            X509v3 Authority Key Identifier: 
                keyid:1A:DC:98:F2:69:C1:F7:C8:1D:21:43:B0:3C:79:50:4D:D8:2B:87:54
                DirName:/C=US/ST=California/L=San Francisco/O=Copyleft Certificate Co/OU=My Organizational Unit/CN=ChangeMe/emailAddress=me@example.net
                serial:8C:9B:8E:88:7A:AC:6D:8B

            X509v3 Extended Key Usage: 
                TLS Web Client Authentication
            X509v3 Key Usage: 
                Digital Signature
    Signature Algorithm: sha256WithRSAEncryption
         1e:5a:71:a9:48:0d:24:e6:7f:54:17:e7:78:14:77:42:6e:46:
         05:79:29:bc:82:42:71:a4:55:a0:7d:25:21:47:1f:1b:92:ef:
         86:28:f2:02:a2:2c:b2:7c:08:55:7e:1a:54:e2:8f:dc:78:98:
         0b:5e:28:fe:ce:fa:c4:88:73:aa:95:1a:6d:10:f8:3f:58:8b:
         a8:fc:f5:a2:f1:29:38:bc:c5:46:aa:87:ea:02:05:75:bc:8f:
         ca:94:b7:b3:c4:09:de:d6:a5:2a:24:83:93:54:05:c9:33:3c:
         5e:da:e7:a7:91:74:19:85:1f:34:47:4b:df:23:a0:4e:f6:cc:
         9b:a2:79:83:3e:5f:1e:96:4e:9a:22:85:26:ed:b9:2f:f6:94:
         7f:21:74:b6:44:5c:d9:d9:45:5e:6e:f6:b7:39:b8:51:6a:a4:
         d0:84:8d:6d:f1:bf:8f:e4:9c:88:08:c5:df:d4:a6:9c:2a:a3:
         02:55:6a:ae:58:0a:3f:df:91:13:06:80:30:fb:69:3f:bf:9f:
         c7:9f:30:9b:e6:3d:8d:0e:e8:b9:05:f4:c4:25:81:f7:d1:72:
         df:60:1b:56:f9:b2:50:94:3a:f0:0a:7b:da:08:6f:2f:9d:c9:
         38:e5:50:1e:93:4a:c4:77:6b:6e:c9:b2:00:56:eb:69:eb:ae:
         aa:a7:a5:7f
-----BEGIN CERTIFICATE-----
MIIFLzCCBBegAwIBAgIQcan8HpQ1tBebvt9LhwCnIjANBgkqhkiG9w0BAQsFADCB
rzELMAkGA1UEBhMCVVMxEzARBgNVBAgMCkNhbGlmb3JuaWExFjAUBgNVBAcMDVNh
biBGcmFuY2lzY28xIDAeBgNVBAoMF0NvcHlsZWZ0IENlcnRpZmljYXRlIENvMR8w
HQYDVQQLDBZNeSBPcmdhbml6YXRpb25hbCBVbml0MREwDwYDVQQDDAhDaGFuZ2VN
ZTEdMBsGCSqGSIb3DQEJARYObWVAZXhhbXBsZS5uZXQwHhcNMjMxMTEzMTExMjUz
WhcNMjQxMTEyMTExMjUzWjCBuzELMAkGA1UEBhMCVVMxCzAJBgNVBAgMAk9IMRMw
EQYDVQQHDApDaW5jaW5uYXRpMSEwHwYDVQQKDBhVbml2ZXJzaXR5IG9mIENpbmNp
bm5hdGkxKjAoBgNVBAsMIURlcHQuIEVsZWMuIENvbXAuIEVuZy4gQ29tcC4gU2Np
LjERMA8GA1UEAwwIY2xpZW50NDIxKDAmBgkqhkiG9w0BCQEWGWZyYW5jb0BnYXVz
cy5lY2Vjcy51Yy5lZHUwggEiMA0GCSqGSIb3DQEBAQUAA4IBDwAwggEKAoIBAQC1
topIO3bFzwc9lAMg8YuAxE7zFL71cz0JOaenEtGFbdFYJc1/mR5jdH9t0kR361nd
eNMMi6c3TQGBELxf43sm1XUQCskSQT2HCSMcult3egkbc7pUZEuDUSepxpbGSP4j
HGTqfbbGDcZyPOObyVuVk0XPvRXU0maHy3B8LA+B4/IgpkVMZeBZKBSFF4AKK4Qq
CJTTXU+5/B9qFUTnCYL2Qlgl+ZEA6pKUlMd+tNJ4LGXPDD+5PDNle9Bly9pIM829
YPIsYQSqfetyCZRPkmKX4LHY3vYYPFLJF41ka3DbvYLdCMzWuyXS1D671DfVJrz0
zzmmEL52J67RwqAJhnNfAgMBAAGjggE3MIIBMzAJBgNVHRMEAjAAMB0GA1UdDgQW
BBRFkbcg+Uk2nQCyYzQVmMbSXkvG4jCB5AYDVR0jBIHcMIHZgBQa3JjyacH3yB0h
Q7A8eVBN2CuHVKGBtaSBsjCBrzELMAkGA1UEBhMCVVMxEzARBgNVBAgMCkNhbGlm
b3JuaWExFjAUBgNVBAcMDVNhbiBGcmFuY2lzY28xIDAeBgNVBAoMF0NvcHlsZWZ0
IENlcnRpZmljYXRlIENvMR8wHQYDVQQLDBZNeSBPcmdhbml6YXRpb25hbCBVbml0
MREwDwYDVQQDDAhDaGFuZ2VNZTEdMBsGCSqGSIb3DQEJARYObWVAZXhhbXBsZS5u
ZXSCCQCMm46IeqxtizATBgNVHSUEDDAKBggrBgEFBQcDAjALBgNVHQ8EBAMCB4Aw
DQYJKoZIhvcNAQELBQADggEBAB5acalIDSTmf1QX53gUd0JuRgV5KbyCQnGkVaB9
JSFHHxuS74Yo8gKiLLJ8CFV+GlTij9x4mAteKP7O+sSIc6qVGm0Q+D9Yi6j89aLx
KTi8xUaqh+oCBXW8j8qUt7PECd7WpSokg5NUBckzPF7a56eRdBmFHzRHS98joE72
zJuieYM+Xx6WTpoihSbtuS/2lH8hdLZEXNnZRV5u9rc5uFFqpNCEjW3xv4/knIgI
xd/UppwqowJVaq5YCj/fkRMGgDD7aT+/n8efMJvmPY0O6LkF9MQlgffRct9gG1b5
slCUOvAKe9oIby+dyTjlUB6TSsR3a27JsgBW62nrrqqnpX8=
-----END CERTIFICATE-----
