Certificate:
    Data:
        Version: 3 (0x2)
        Serial Number:
            a6:87:fa:b2:19:90:27:c6:4c:74:a2:71:f7:7d:3a:3e
    Signature Algorithm: sha256WithRSAEncryption
        Issuer: C=US, ST=California, L=San Francisco, O=Copyleft Certificate Co, OU=My Organizational Unit, CN=ChangeMe/emailAddress=me@example.net
        Validity
            Not Before: Nov 13 11:11:49 2023 GMT
            Not After : Nov 12 11:11:49 2024 GMT
        Subject: C=US, ST=OH, L=Cincinnati, O=University of Cincinnati, OU=Dept. Elec. Comp. Eng. Comp. Sci., CN=client26/emailAddress=franco@gauss.ececs.uc.edu
        Subject Public Key Info:
            Public Key Algorithm: rsaEncryption
                Public-Key: (2048 bit)
                Modulus:
                    00:d0:13:02:96:44:6a:61:00:19:df:be:8d:ca:2c:
                    db:50:48:da:00:9a:14:fd:f1:84:b4:29:9d:d3:d8:
                    e4:15:5b:d5:17:3f:53:ab:29:48:d6:c2:45:2a:d2:
                    ed:77:93:b1:ce:5c:f3:53:49:70:f6:eb:12:da:fc:
                    f7:f0:0a:54:8f:21:db:e5:bf:48:8a:e4:c8:c3:71:
                    f5:2c:20:21:df:48:16:62:20:42:1d:63:9f:41:ec:
                    f0:d0:33:52:5b:61:c9:d8:24:18:56:c8:8c:b2:10:
                    6b:eb:aa:58:cf:e1:55:69:b3:55:08:26:f8:8b:ab:
                    16:14:9f:35:64:6d:76:b1:be:22:f2:5c:3b:b8:e4:
                    49:7a:5a:af:40:80:f5:80:31:41:97:ad:ab:3d:c8:
                    98:fb:f0:bd:78:d0:73:28:96:31:c1:74:7b:a2:18:
                    b2:ed:5e:b1:6b:dd:3d:30:bc:27:da:8b:eb:b9:ad:
                    b8:7f:18:cf:bb:75:d0:b5:9d:fc:f5:b2:2f:86:2b:
                    72:cb:31:43:22:8d:c3:cc:c0:c9:fa:2a:00:33:f0:
                    4d:37:f1:2a:72:29:bf:3d:bc:53:0a:b2:0e:16:1a:
                    4e:8f:6d:75:83:6c:bc:80:26:33:3b:6f:31:14:ae:
                    15:4a:f5:a0:58:de:f2:7d:c6:ef:37:4a:80:8b:d0:
                    a0:85
                Exponent: 65537 (0x10001)
        X509v3 extensions:
            X509v3 Basic Constraints: 
                CA:FALSE
            X509v3 Subject Key Identifier: 
                B8:9A:5C:39:5A:39:16:F9:A2:B0:AF:B9:5A:65:25:30:1A:D0:68:3D
            X509v3 Authority Key Identifier: 
                keyid:1A:DC:98:F2:69:C1:F7:C8:1D:21:43:B0:3C:79:50:4D:D8:2B:87:54
                DirName:/C=US/ST=California/L=San Francisco/O=Copyleft Certificate Co/OU=My Organizational Unit/CN=ChangeMe/emailAddress=me@example.net
                serial:8C:9B:8E:88:7A:AC:6D:8B

            X509v3 Extended Key Usage: 
                TLS Web Client Authentication
            X509v3 Key Usage: 
                Digital Signature
    Signature Algorithm: sha256WithRSAEncryption
         86:a2:0f:a8:f8:dc:49:5e:ac:5d:a0:ca:7c:2e:24:64:63:c6:
         ac:ab:aa:51:0c:15:e0:24:50:2d:da:d8:11:05:64:31:e6:22:
         12:f3:e4:02:36:6d:6d:c0:a7:24:d3:a0:df:5c:88:e4:a4:bc:
         26:78:bd:18:98:4e:d8:50:e6:53:97:85:12:07:63:62:73:42:
         58:79:89:47:d6:56:b6:6c:fc:0a:65:3b:26:8b:ae:47:af:a2:
         5f:d8:62:a0:47:15:15:f8:4f:05:df:3e:94:44:99:ad:1c:1c:
         d1:1c:0b:cb:5f:49:0f:70:70:c9:8a:4d:bc:ab:8d:b6:6e:aa:
         bc:15:a3:c5:fd:71:1d:b4:b2:de:47:31:51:b9:0c:6a:b7:bd:
         bc:30:41:a7:e8:f0:7f:11:8f:12:5c:75:85:e8:d8:5b:fe:66:
         23:65:0b:76:3a:ff:b7:80:60:93:1f:3b:de:ac:02:84:a8:cf:
         ff:3f:9f:e4:c2:d1:41:7f:d4:d5:8a:d8:fe:c0:35:20:00:ad:
         7b:80:e0:be:0b:66:cd:e3:90:44:31:99:17:5c:8b:6d:a1:4c:
         c0:8a:68:ba:df:95:28:7a:f2:bf:73:9d:1e:61:1f:f8:d9:74:
         2e:45:a9:6c:fb:46:1e:59:f9:b5:2a:bc:fd:a4:e9:30:a2:5b:
         73:e7:91:12
-----BEGIN CERTIFICATE-----
MIIFMDCCBBigAwIBAgIRAKaH+rIZkCfGTHSicfd9Oj4wDQYJKoZIhvcNAQELBQAw
ga8xCzAJBgNVBAYTAlVTMRMwEQYDVQQIDApDYWxpZm9ybmlhMRYwFAYDVQQHDA1T
YW4gRnJhbmNpc2NvMSAwHgYDVQQKDBdDb3B5bGVmdCBDZXJ0aWZpY2F0ZSBDbzEf
MB0GA1UECwwWTXkgT3JnYW5pemF0aW9uYWwgVW5pdDERMA8GA1UEAwwIQ2hhbmdl
TWUxHTAbBgkqhkiG9w0BCQEWDm1lQGV4YW1wbGUubmV0MB4XDTIzMTExMzExMTE0
OVoXDTI0MTExMjExMTE0OVowgbsxCzAJBgNVBAYTAlVTMQswCQYDVQQIDAJPSDET
MBEGA1UEBwwKQ2luY2lubmF0aTEhMB8GA1UECgwYVW5pdmVyc2l0eSBvZiBDaW5j
aW5uYXRpMSowKAYDVQQLDCFEZXB0LiBFbGVjLiBDb21wLiBFbmcuIENvbXAuIFNj
aS4xETAPBgNVBAMMCGNsaWVudDI2MSgwJgYJKoZIhvcNAQkBFhlmcmFuY29AZ2F1
c3MuZWNlY3MudWMuZWR1MIIBIjANBgkqhkiG9w0BAQEFAAOCAQ8AMIIBCgKCAQEA
0BMClkRqYQAZ376NyizbUEjaAJoU/fGEtCmd09jkFVvVFz9TqylI1sJFKtLtd5Ox
zlzzU0lw9usS2vz38ApUjyHb5b9IiuTIw3H1LCAh30gWYiBCHWOfQezw0DNSW2HJ
2CQYVsiMshBr66pYz+FVabNVCCb4i6sWFJ81ZG12sb4i8lw7uORJelqvQID1gDFB
l62rPciY+/C9eNBzKJYxwXR7ohiy7V6xa909MLwn2ovrua24fxjPu3XQtZ389bIv
hityyzFDIo3DzMDJ+ioAM/BNN/Eqcim/PbxTCrIOFhpOj211g2y8gCYzO28xFK4V
SvWgWN7yfcbvN0qAi9CghQIDAQABo4IBNzCCATMwCQYDVR0TBAIwADAdBgNVHQ4E
FgQUuJpcOVo5FvmisK+5WmUlMBrQaD0wgeQGA1UdIwSB3DCB2YAUGtyY8mnB98gd
IUOwPHlQTdgrh1ShgbWkgbIwga8xCzAJBgNVBAYTAlVTMRMwEQYDVQQIDApDYWxp
Zm9ybmlhMRYwFAYDVQQHDA1TYW4gRnJhbmNpc2NvMSAwHgYDVQQKDBdDb3B5bGVm
dCBDZXJ0aWZpY2F0ZSBDbzEfMB0GA1UECwwWTXkgT3JnYW5pemF0aW9uYWwgVW5p
dDERMA8GA1UEAwwIQ2hhbmdlTWUxHTAbBgkqhkiG9w0BCQEWDm1lQGV4YW1wbGUu
bmV0ggkAjJuOiHqsbYswEwYDVR0lBAwwCgYIKwYBBQUHAwIwCwYDVR0PBAQDAgeA
MA0GCSqGSIb3DQEBCwUAA4IBAQCGog+o+NxJXqxdoMp8LiRkY8asq6pRDBXgJFAt
2tgRBWQx5iIS8+QCNm1twKck06DfXIjkpLwmeL0YmE7YUOZTl4USB2Nic0JYeYlH
1la2bPwKZTsmi65Hr6Jf2GKgRxUV+E8F3z6URJmtHBzRHAvLX0kPcHDJik28q422
bqq8FaPF/XEdtLLeRzFRuQxqt728MEGn6PB/EY8SXHWF6Nhb/mYjZQt2Ov+3gGCT
HzverAKEqM//P5/kwtFBf9TVitj+wDUgAK17gOC+C2bN45BEMZkXXIttoUzAimi6
35UoevK/c50eYR/42XQuRals+0YeWfm1Krz9pOkwoltz55ES
-----END CERTIFICATE-----
