Certificate:
    Data:
        Version: 3 (0x2)
        Serial Number:
            5e:86:c3:89:8c:ed:1d:8d:2d:84:d5:a1:6e:60:58:9e
    Signature Algorithm: sha256WithRSAEncryption
        Issuer: C=US, ST=California, L=San Francisco, O=Copyleft Certificate Co, OU=My Organizational Unit, CN=ChangeMe/emailAddress=me@example.net
        Validity
            Not Before: Nov 13 11:13:21 2023 GMT
            Not After : Nov 12 11:13:21 2024 GMT
        Subject: C=US, ST=OH, L=Cincinnati, O=University of Cincinnati, OU=Dept. Elec. Comp. Eng. Comp. Sci., CN=client49/emailAddress=franco@gauss.ececs.uc.edu
        Subject Public Key Info:
            Public Key Algorithm: rsaEncryption
                Public-Key: (2048 bit)
                Modulus:
                    00:bc:f0:9e:1b:86:d5:1d:96:a2:2d:cf:38:82:1c:
                    a0:5e:58:c0:6a:19:ba:9a:2d:bf:38:f7:ab:50:36:
                    9d:64:72:6c:98:e4:a5:01:d9:80:4c:cd:bc:72:ae:
                    bb:77:e5:45:be:c1:23:a9:52:28:a7:fa:d1:da:cb:
                    18:c5:37:b8:71:7c:2e:a8:5f:f8:c2:46:31:b0:df:
                    bd:81:20:29:35:50:6c:c8:2e:16:7f:de:09:df:4b:
                    3f:2e:9e:e3:d6:05:d8:cc:14:52:ac:85:0c:5c:6f:
                    0e:6c:84:94:21:67:3a:4b:e3:28:74:e7:62:ab:4e:
                    27:ee:a6:3f:9d:38:4b:95:0e:cd:6f:a1:75:ea:09:
                    fa:f1:ce:8b:44:b1:2b:3f:a9:2d:7c:1f:17:9f:3b:
                    97:8b:24:c8:d0:39:35:8b:de:54:39:3d:df:68:6d:
                    db:e9:a3:18:74:88:ee:fc:8c:fa:08:b1:f9:c8:d9:
                    00:ca:16:1b:16:b8:2b:85:5c:52:2e:12:34:02:fa:
                    b8:65:f4:50:e2:5a:f4:14:74:21:eb:1e:d9:2c:1b:
                    47:d9:33:90:23:69:bf:a4:8d:36:b3:1e:3a:48:7a:
                    38:59:08:ac:54:5a:f4:68:9d:e2:fd:d2:00:26:21:
                    4a:58:dc:3a:aa:d8:a8:12:fe:3f:25:31:4e:d6:a8:
                    14:d1
                Exponent: 65537 (0x10001)
        X509v3 extensions:
            X509v3 Basic Constraints: 
                CA:FALSE
            X509v3 Subject Key Identifier: 
                83:50:90:1C:52:85:0A:69:1E:3B:20:E9:7A:C6:5E:D4:CB:F8:9D:C2
            X509v3 Authority Key Identifier: 
                keyid:1A:DC:98:F2:69:C1:F7:C8:1D:21:43:B0:3C:79:50:4D:D8:2B:87:54
                DirName:/C=US/ST=California/L=San Francisco/O=Copyleft Certificate Co/OU=My Organizational Unit/CN=ChangeMe/emailAddress=me@example.net
                serial:8C:9B:8E:88:7A:AC:6D:8B

            X509v3 Extended Key Usage: 
                TLS Web Client Authentication
            X509v3 Key Usage: 
                Digital Signature
    Signature Algorithm: sha256WithRSAEncryption
         d1:09:ef:93:ec:04:b3:7c:e2:aa:d1:c1:c3:28:19:f1:99:88:
         87:6a:0c:06:33:b8:b6:68:c7:b0:7b:d7:57:65:25:fa:58:42:
         44:4e:4a:6e:19:57:3c:2a:33:da:ba:60:4e:c2:a3:9d:64:fa:
         ef:3f:dd:35:5f:70:7c:41:6e:69:75:36:31:2f:6f:54:9b:f6:
         ed:e3:5c:1c:b7:60:2c:9d:6d:5d:c9:0c:b4:70:2f:96:88:78:
         14:dc:54:d1:fb:6e:80:44:9b:7b:73:29:0a:75:da:ba:7b:e1:
         ad:ba:de:85:46:06:c4:79:96:20:d6:a8:d1:c3:36:81:3f:35:
         14:de:fa:7e:8b:f5:0b:c0:3f:5a:14:d2:4a:b0:4d:07:49:d4:
         4c:f1:9d:29:26:2f:ec:e2:83:1f:bd:fa:81:b4:9b:b4:0f:50:
         7d:13:86:96:5a:57:ab:c5:6a:cd:b7:d0:5b:b0:37:db:f9:92:
         3a:af:9a:fa:83:74:4a:c4:a6:a8:7a:7c:eb:ba:36:0e:d1:db:
         36:6d:04:73:f9:65:73:eb:88:a1:39:ac:c4:02:aa:42:ba:57:
         ea:ef:84:70:e5:dc:a9:dc:77:e8:8b:b3:8f:b0:15:3c:55:ff:
         75:d4:66:a7:d5:0b:0d:6e:a9:7b:d3:62:bc:b6:11:f7:3d:55:
         8c:5d:54:e8
-----BEGIN CERTIFICATE-----
MIIFLzCCBBegAwIBAgIQXobDiYztHY0thNWhbmBYnjANBgkqhkiG9w0BAQsFADCB
rzELMAkGA1UEBhMCVVMxEzARBgNVBAgMCkNhbGlmb3JuaWExFjAUBgNVBAcMDVNh
biBGcmFuY2lzY28xIDAeBgNVBAoMF0NvcHlsZWZ0IENlcnRpZmljYXRlIENvMR8w
HQYDVQQLDBZNeSBPcmdhbml6YXRpb25hbCBVbml0MREwDwYDVQQDDAhDaGFuZ2VN
ZTEdMBsGCSqGSIb3DQEJARYObWVAZXhhbXBsZS5uZXQwHhcNMjMxMTEzMTExMzIx
WhcNMjQxMTEyMTExMzIxWjCBuzELMAkGA1UEBhMCVVMxCzAJBgNVBAgMAk9IMRMw
EQYDVQQHDApDaW5jaW5uYXRpMSEwHwYDVQQKDBhVbml2ZXJzaXR5IG9mIENpbmNp
bm5hdGkxKjAoBgNVBAsMIURlcHQuIEVsZWMuIENvbXAuIEVuZy4gQ29tcC4gU2Np
LjERMA8GA1UEAwwIY2xpZW50NDkxKDAmBgkqhkiG9w0BCQEWGWZyYW5jb0BnYXVz
cy5lY2Vjcy51Yy5lZHUwggEiMA0GCSqGSIb3DQEBAQUAA4IBDwAwggEKAoIBAQC8
8J4bhtUdlqItzziCHKBeWMBqGbqaLb8496tQNp1kcmyY5KUB2YBMzbxyrrt35UW+
wSOpUiin+tHayxjFN7hxfC6oX/jCRjGw372BICk1UGzILhZ/3gnfSz8unuPWBdjM
FFKshQxcbw5shJQhZzpL4yh052KrTifupj+dOEuVDs1voXXqCfrxzotEsSs/qS18
HxefO5eLJMjQOTWL3lQ5Pd9obdvpoxh0iO78jPoIsfnI2QDKFhsWuCuFXFIuEjQC
+rhl9FDiWvQUdCHrHtksG0fZM5Ajab+kjTazHjpIejhZCKxUWvRoneL90gAmIUpY
3Dqq2KgS/j8lMU7WqBTRAgMBAAGjggE3MIIBMzAJBgNVHRMEAjAAMB0GA1UdDgQW
BBSDUJAcUoUKaR47IOl6xl7Uy/idwjCB5AYDVR0jBIHcMIHZgBQa3JjyacH3yB0h
Q7A8eVBN2CuHVKGBtaSBsjCBrzELMAkGA1UEBhMCVVMxEzARBgNVBAgMCkNhbGlm
b3JuaWExFjAUBgNVBAcMDVNhbiBGcmFuY2lzY28xIDAeBgNVBAoMF0NvcHlsZWZ0
IENlcnRpZmljYXRlIENvMR8wHQYDVQQLDBZNeSBPcmdhbml6YXRpb25hbCBVbml0
MREwDwYDVQQDDAhDaGFuZ2VNZTEdMBsGCSqGSIb3DQEJARYObWVAZXhhbXBsZS5u
ZXSCCQCMm46IeqxtizATBgNVHSUEDDAKBggrBgEFBQcDAjALBgNVHQ8EBAMCB4Aw
DQYJKoZIhvcNAQELBQADggEBANEJ75PsBLN84qrRwcMoGfGZiIdqDAYzuLZox7B7
11dlJfpYQkROSm4ZVzwqM9q6YE7Co51k+u8/3TVfcHxBbml1NjEvb1Sb9u3jXBy3
YCydbV3JDLRwL5aIeBTcVNH7boBEm3tzKQp12rp74a263oVGBsR5liDWqNHDNoE/
NRTe+n6L9QvAP1oU0kqwTQdJ1EzxnSkmL+zigx+9+oG0m7QPUH0ThpZaV6vFas23
0FuwN9v5kjqvmvqDdErEpqh6fOu6Ng7R2zZtBHP5ZXPriKE5rMQCqkK6V+rvhHDl
3Kncd+iLs4+wFTxV/3XUZqfVCw1uqXvTYry2Efc9VYxdVOg=
-----END CERTIFICATE-----
