Certificate:
    Data:
        Version: 3 (0x2)
        Serial Number:
            2d:54:8a:0e:56:7e:dd:19:70:a0:87:ab:55:a2:e8:7e
    Signature Algorithm: sha256WithRSAEncryption
        Issuer: C=US, ST=California, L=San Francisco, O=Copyleft Certificate Co, OU=My Organizational Unit, CN=ChangeMe/emailAddress=me@example.net
        Validity
            Not Before: Nov 10 17:26:20 2023 GMT
            Not After : Nov  9 17:26:20 2024 GMT
        Subject: C=US, ST=OH, L=Cincinnati, O=University of Cincinnati, OU=Dept_Elec_Com_ Eng_Com_Sci., CN=client29/emailAddress=franco@gauss.ececs.uc.edu
        Subject Public Key Info:
            Public Key Algorithm: rsaEncryption
                Public-Key: (2048 bit)
                Modulus:
                    00:cc:5b:42:77:2a:14:7d:c9:fe:13:2b:e4:36:d5:
                    fa:ec:44:42:dd:58:b4:cd:38:be:5b:27:c4:ed:74:
                    2e:35:5b:39:6a:36:32:f9:ec:a1:61:31:df:61:c6:
                    c1:e7:96:a7:0e:ed:5e:4b:d5:97:0d:54:40:41:69:
                    72:ea:56:84:e4:93:fd:a7:c1:2c:91:cc:02:94:14:
                    25:91:2f:f4:7e:5c:39:61:07:61:25:ca:57:8c:0d:
                    2d:3e:2a:a0:b0:c7:ce:f8:18:50:d3:e8:23:b0:b6:
                    71:37:c1:9e:1f:32:82:db:57:64:75:35:61:58:19:
                    bb:af:32:8a:b3:0a:f9:04:f8:90:8e:00:8d:f3:a0:
                    72:cd:dd:61:dc:69:85:b5:3c:3d:e9:6a:5f:71:e4:
                    37:b0:0a:e0:11:62:21:bd:2a:ce:46:88:fc:09:c2:
                    88:5c:bc:36:a8:d7:76:5e:76:69:76:3b:67:b4:9e:
                    32:de:54:68:10:54:51:5d:84:97:18:6b:cb:1f:6b:
                    9a:d6:cf:70:a5:fd:f4:0c:d1:81:eb:20:e3:40:7c:
                    36:f8:66:55:2f:e9:f2:95:73:54:48:dd:74:2d:0e:
                    cc:7d:57:1d:39:49:80:a9:c0:38:2b:c5:08:49:fc:
                    10:33:5a:46:4e:4a:f3:37:7c:5e:0f:6e:95:76:92:
                    b1:4f
                Exponent: 65537 (0x10001)
        X509v3 extensions:
            X509v3 Basic Constraints: 
                CA:FALSE
            X509v3 Subject Key Identifier: 
                68:A0:A2:15:DE:31:5D:FB:28:42:73:41:56:38:D9:AD:81:6C:48:65
            X509v3 Authority Key Identifier: 
                keyid:D9:D4:8C:20:BC:EB:38:17:D5:4B:52:F8:AA:C5:D2:44:DD:A2:6A:3B
                DirName:/C=US/ST=California/L=San Francisco/O=Copyleft Certificate Co/OU=My Organizational Unit/CN=ChangeMe/emailAddress=me@example.net
                serial:C2:48:34:65:BF:AB:EB:AA

            X509v3 Extended Key Usage: 
                TLS Web Client Authentication
            X509v3 Key Usage: 
                Digital Signature
    Signature Algorithm: sha256WithRSAEncryption
         ca:26:7b:e6:d7:f6:fe:55:12:7b:67:a4:a8:5c:1f:4d:81:a3:
         b3:9b:9a:61:6d:c7:42:1e:d8:b6:48:9d:74:ae:57:48:22:91:
         5d:f4:83:26:fd:b9:79:e8:28:bb:bf:42:62:ed:7a:44:51:5f:
         01:d8:d3:a5:8b:a2:bc:eb:b6:1a:1b:3c:c4:52:7f:1f:ab:15:
         53:f3:d0:aa:18:5e:2c:54:1f:1f:66:60:02:c0:70:20:43:fd:
         80:5c:f1:57:70:44:ad:db:76:05:ab:98:5e:df:7a:59:b6:49:
         4c:50:af:78:c9:5a:5a:2b:c2:84:fb:6b:66:70:e5:d7:7a:bd:
         2e:72:b6:4d:28:96:b2:8d:f6:12:3b:9f:97:48:82:1f:c8:ca:
         7a:bc:81:88:08:38:82:22:1f:90:38:76:44:05:e4:19:58:3b:
         1a:f1:bf:fe:54:89:18:f7:9c:f6:68:ea:59:9b:88:45:75:3b:
         e7:a9:03:7d:43:cc:d0:3d:b0:53:07:60:cd:0a:8d:7e:88:02:
         5d:9d:bd:87:a2:66:3b:ee:b2:fb:4b:a4:14:d6:8a:74:f8:10:
         f9:c0:d7:ae:c9:f9:0e:ad:0d:ca:92:b1:7c:6a:c9:73:e4:ae:
         eb:8b:87:bc:3d:e9:78:23:3a:64:ee:01:26:80:20:8a:11:61:
         f1:78:45:82
-----BEGIN CERTIFICATE-----
MIIFKTCCBBGgAwIBAgIQLVSKDlZ+3RlwoIerVaLofjANBgkqhkiG9w0BAQsFADCB
rzELMAkGA1UEBhMCVVMxEzARBgNVBAgMCkNhbGlmb3JuaWExFjAUBgNVBAcMDVNh
biBGcmFuY2lzY28xIDAeBgNVBAoMF0NvcHlsZWZ0IENlcnRpZmljYXRlIENvMR8w
HQYDVQQLDBZNeSBPcmdhbml6YXRpb25hbCBVbml0MREwDwYDVQQDDAhDaGFuZ2VN
ZTEdMBsGCSqGSIb3DQEJARYObWVAZXhhbXBsZS5uZXQwHhcNMjMxMTEwMTcyNjIw
WhcNMjQxMTA5MTcyNjIwWjCBtTELMAkGA1UEBhMCVVMxCzAJBgNVBAgMAk9IMRMw
EQYDVQQHDApDaW5jaW5uYXRpMSEwHwYDVQQKDBhVbml2ZXJzaXR5IG9mIENpbmNp
bm5hdGkxJDAiBgNVBAsMG0RlcHRfRWxlY19Db21fIEVuZ19Db21fU2NpLjERMA8G
A1UEAwwIY2xpZW50MjkxKDAmBgkqhkiG9w0BCQEWGWZyYW5jb0BnYXVzcy5lY2Vj
cy51Yy5lZHUwggEiMA0GCSqGSIb3DQEBAQUAA4IBDwAwggEKAoIBAQDMW0J3KhR9
yf4TK+Q21frsRELdWLTNOL5bJ8TtdC41WzlqNjL57KFhMd9hxsHnlqcO7V5L1ZcN
VEBBaXLqVoTkk/2nwSyRzAKUFCWRL/R+XDlhB2ElyleMDS0+KqCwx874GFDT6COw
tnE3wZ4fMoLbV2R1NWFYGbuvMoqzCvkE+JCOAI3zoHLN3WHcaYW1PD3pal9x5Dew
CuARYiG9Ks5GiPwJwohcvDao13Zedml2O2e0njLeVGgQVFFdhJcYa8sfa5rWz3Cl
/fQM0YHrIONAfDb4ZlUv6fKVc1RI3XQtDsx9Vx05SYCpwDgrxQhJ/BAzWkZOSvM3
fF4PbpV2krFPAgMBAAGjggE3MIIBMzAJBgNVHRMEAjAAMB0GA1UdDgQWBBRooKIV
3jFd+yhCc0FWONmtgWxIZTCB5AYDVR0jBIHcMIHZgBTZ1IwgvOs4F9VLUviqxdJE
3aJqO6GBtaSBsjCBrzELMAkGA1UEBhMCVVMxEzARBgNVBAgMCkNhbGlmb3JuaWEx
FjAUBgNVBAcMDVNhbiBGcmFuY2lzY28xIDAeBgNVBAoMF0NvcHlsZWZ0IENlcnRp
ZmljYXRlIENvMR8wHQYDVQQLDBZNeSBPcmdhbml6YXRpb25hbCBVbml0MREwDwYD
VQQDDAhDaGFuZ2VNZTEdMBsGCSqGSIb3DQEJARYObWVAZXhhbXBsZS5uZXSCCQDC
SDRlv6vrqjATBgNVHSUEDDAKBggrBgEFBQcDAjALBgNVHQ8EBAMCB4AwDQYJKoZI
hvcNAQELBQADggEBAMome+bX9v5VEntnpKhcH02Bo7ObmmFtx0Ie2LZInXSuV0gi
kV30gyb9uXnoKLu/QmLtekRRXwHY06WLorzrthobPMRSfx+rFVPz0KoYXixUHx9m
YALAcCBD/YBc8VdwRK3bdgWrmF7felm2SUxQr3jJWlorwoT7a2Zw5dd6vS5ytk0o
lrKN9hI7n5dIgh/Iynq8gYgIOIIiH5A4dkQF5BlYOxrxv/5UiRj3nPZo6lmbiEV1
O+epA31DzNA9sFMHYM0KjX6IAl2dvYeiZjvusvtLpBTWinT4EPnA167J+Q6tDcqS
sXxqyXPkruuLh7w96XgjOmTuASaAIIoRYfF4RYI=
-----END CERTIFICATE-----
