Certificate:
    Data:
        Version: 3 (0x2)
        Serial Number:
            2e:a8:47:78:86:ee:83:8e:f6:5d:c6:85:53:2e:12:31
    Signature Algorithm: sha256WithRSAEncryption
        Issuer: C=US, ST=California, L=San Francisco, O=Copyleft Certificate Co, OU=My Organizational Unit, CN=ChangeMe/emailAddress=me@example.net
        Validity
            Not Before: Nov 13 11:11:09 2023 GMT
            Not After : Nov 12 11:11:09 2024 GMT
        Subject: C=US, ST=OH, L=Cincinnati, O=University of Cincinnati, OU=Dept. Elec. Comp. Eng. Comp. Sci., CN=client16/emailAddress=franco@gauss.ececs.uc.edu
        Subject Public Key Info:
            Public Key Algorithm: rsaEncryption
                Public-Key: (2048 bit)
                Modulus:
                    00:e7:6d:f8:33:91:98:b3:22:62:de:25:8c:20:4c:
                    10:e8:b0:f5:e1:1c:66:70:33:a9:42:28:f1:94:88:
                    06:c1:52:04:d8:58:1e:e2:ae:01:c4:db:30:aa:9e:
                    c1:f9:dd:6a:a7:b7:ba:a4:8f:18:a4:6c:b1:42:6f:
                    58:ad:64:93:8e:0b:71:a5:07:c1:50:60:4c:03:17:
                    89:38:22:e9:47:99:c6:47:ce:30:cf:eb:4a:cb:a5:
                    1b:dc:de:02:d5:f6:be:77:a3:d6:95:15:a9:ff:f8:
                    ba:57:36:bc:30:14:76:94:8a:d1:1c:9c:46:55:27:
                    07:82:65:b7:78:d8:e7:a7:6b:57:cb:5c:a1:ca:a5:
                    38:00:a4:40:ff:5d:ea:ff:5c:37:48:63:a3:4b:90:
                    86:02:8b:99:17:e2:d0:88:54:7c:08:80:c8:7c:63:
                    91:b8:bb:1a:15:87:41:68:23:bd:e7:f6:0d:4d:b4:
                    12:ca:89:2c:0c:ea:8a:de:f0:0a:8c:04:cf:4d:3d:
                    a0:2d:e6:c1:15:0e:5c:70:c0:fb:c2:5b:a6:ab:0e:
                    d7:55:fc:e3:2e:dd:99:29:6a:08:5e:39:ec:24:57:
                    e8:39:10:f4:3b:03:8f:73:4e:53:28:a7:a7:46:37:
                    cb:77:85:2e:13:5a:c9:13:30:6f:27:a3:c6:78:59:
                    35:a7
                Exponent: 65537 (0x10001)
        X509v3 extensions:
            X509v3 Basic Constraints: 
                CA:FALSE
            X509v3 Subject Key Identifier: 
                8D:B9:AE:3C:70:36:B3:1E:F8:13:C7:5B:3E:1E:70:FA:F2:6C:B4:74
            X509v3 Authority Key Identifier: 
                keyid:1A:DC:98:F2:69:C1:F7:C8:1D:21:43:B0:3C:79:50:4D:D8:2B:87:54
                DirName:/C=US/ST=California/L=San Francisco/O=Copyleft Certificate Co/OU=My Organizational Unit/CN=ChangeMe/emailAddress=me@example.net
                serial:8C:9B:8E:88:7A:AC:6D:8B

            X509v3 Extended Key Usage: 
                TLS Web Client Authentication
            X509v3 Key Usage: 
                Digital Signature
    Signature Algorithm: sha256WithRSAEncryption
         39:a0:50:88:a2:3b:6e:a7:b0:48:0c:d1:4a:63:ea:8b:91:fc:
         d5:21:63:d2:e0:5e:fb:aa:84:e1:78:82:bd:e7:41:d5:01:6b:
         d3:28:48:ab:1b:40:20:21:27:a3:81:12:c3:64:8d:92:72:89:
         2b:7c:d1:fa:74:8f:ee:c2:4a:72:a8:11:99:95:80:44:53:61:
         00:80:0c:17:0a:12:03:d5:a5:df:c2:f4:ed:2d:d4:19:e0:50:
         0d:bf:38:7d:8c:8b:31:d2:ab:88:0f:81:3b:7a:ba:52:6f:e9:
         5d:a7:f9:16:89:cd:59:f6:b2:df:da:81:28:df:d3:2e:87:01:
         fe:85:15:b9:96:8d:03:4d:81:04:bd:dc:99:f7:9a:48:32:54:
         f7:da:a4:a4:be:3e:2f:27:d9:a6:cf:26:a5:3a:03:4d:9d:5e:
         14:6d:bc:f6:5c:af:70:2e:e2:05:19:5c:f5:dc:b5:57:fd:db:
         5b:35:a3:4e:2e:d4:61:25:60:6b:72:64:91:99:d3:36:bd:de:
         d9:c0:f6:8f:cb:aa:29:a9:3a:7c:26:6d:75:a8:a0:20:42:bb:
         e1:c1:d2:3f:63:7c:3e:6d:f0:32:fe:ca:1f:04:cf:72:88:cd:
         d8:38:9a:05:28:84:19:51:07:f4:7d:f7:90:54:8f:f3:70:3e:
         0d:dd:ba:6b
-----BEGIN CERTIFICATE-----
MIIFLzCCBBegAwIBAgIQLqhHeIbug472XcaFUy4SMTANBgkqhkiG9w0BAQsFADCB
rzELMAkGA1UEBhMCVVMxEzARBgNVBAgMCkNhbGlmb3JuaWExFjAUBgNVBAcMDVNh
biBGcmFuY2lzY28xIDAeBgNVBAoMF0NvcHlsZWZ0IENlcnRpZmljYXRlIENvMR8w
HQYDVQQLDBZNeSBPcmdhbml6YXRpb25hbCBVbml0MREwDwYDVQQDDAhDaGFuZ2VN
ZTEdMBsGCSqGSIb3DQEJARYObWVAZXhhbXBsZS5uZXQwHhcNMjMxMTEzMTExMTA5
WhcNMjQxMTEyMTExMTA5WjCBuzELMAkGA1UEBhMCVVMxCzAJBgNVBAgMAk9IMRMw
EQYDVQQHDApDaW5jaW5uYXRpMSEwHwYDVQQKDBhVbml2ZXJzaXR5IG9mIENpbmNp
bm5hdGkxKjAoBgNVBAsMIURlcHQuIEVsZWMuIENvbXAuIEVuZy4gQ29tcC4gU2Np
LjERMA8GA1UEAwwIY2xpZW50MTYxKDAmBgkqhkiG9w0BCQEWGWZyYW5jb0BnYXVz
cy5lY2Vjcy51Yy5lZHUwggEiMA0GCSqGSIb3DQEBAQUAA4IBDwAwggEKAoIBAQDn
bfgzkZizImLeJYwgTBDosPXhHGZwM6lCKPGUiAbBUgTYWB7irgHE2zCqnsH53Wqn
t7qkjxikbLFCb1itZJOOC3GlB8FQYEwDF4k4IulHmcZHzjDP60rLpRvc3gLV9r53
o9aVFan/+LpXNrwwFHaUitEcnEZVJweCZbd42Oena1fLXKHKpTgApED/Xer/XDdI
Y6NLkIYCi5kX4tCIVHwIgMh8Y5G4uxoVh0FoI73n9g1NtBLKiSwM6ore8AqMBM9N
PaAt5sEVDlxwwPvCW6arDtdV/OMu3ZkpagheOewkV+g5EPQ7A49zTlMop6dGN8t3
hS4TWskTMG8no8Z4WTWnAgMBAAGjggE3MIIBMzAJBgNVHRMEAjAAMB0GA1UdDgQW
BBSNua48cDazHvgTx1s+HnD68my0dDCB5AYDVR0jBIHcMIHZgBQa3JjyacH3yB0h
Q7A8eVBN2CuHVKGBtaSBsjCBrzELMAkGA1UEBhMCVVMxEzARBgNVBAgMCkNhbGlm
b3JuaWExFjAUBgNVBAcMDVNhbiBGcmFuY2lzY28xIDAeBgNVBAoMF0NvcHlsZWZ0
IENlcnRpZmljYXRlIENvMR8wHQYDVQQLDBZNeSBPcmdhbml6YXRpb25hbCBVbml0
MREwDwYDVQQDDAhDaGFuZ2VNZTEdMBsGCSqGSIb3DQEJARYObWVAZXhhbXBsZS5u
ZXSCCQCMm46IeqxtizATBgNVHSUEDDAKBggrBgEFBQcDAjALBgNVHQ8EBAMCB4Aw
DQYJKoZIhvcNAQELBQADggEBADmgUIiiO26nsEgM0Upj6ouR/NUhY9LgXvuqhOF4
gr3nQdUBa9MoSKsbQCAhJ6OBEsNkjZJyiSt80fp0j+7CSnKoEZmVgERTYQCADBcK
EgPVpd/C9O0t1BngUA2/OH2MizHSq4gPgTt6ulJv6V2n+RaJzVn2st/agSjf0y6H
Af6FFbmWjQNNgQS93Jn3mkgyVPfapKS+Pi8n2abPJqU6A02dXhRtvPZcr3Au4gUZ
XPXctVf921s1o04u1GElYGtyZJGZ0za93tnA9o/LqimpOnwmbXWooCBCu+HB0j9j
fD5t8DL+yh8Ez3KIzdg4mgUohBlRB/R995BUj/NwPg3dums=
-----END CERTIFICATE-----
