Certificate:
    Data:
        Version: 3 (0x2)
        Serial Number:
            53:5c:38:f2:17:d2:7a:dc:65:27:78:87:72:c7:4c:de
    Signature Algorithm: sha256WithRSAEncryption
        Issuer: C=US, ST=California, L=San Francisco, O=Copyleft Certificate Co, OU=My Organizational Unit, CN=ChangeMe/emailAddress=me@example.net
        Validity
            Not Before: Nov 13 11:12:57 2023 GMT
            Not After : Nov 12 11:12:57 2024 GMT
        Subject: C=US, ST=OH, L=Cincinnati, O=University of Cincinnati, OU=Dept. Elec. Comp. Eng. Comp. Sci., CN=client43/emailAddress=franco@gauss.ececs.uc.edu
        Subject Public Key Info:
            Public Key Algorithm: rsaEncryption
                Public-Key: (2048 bit)
                Modulus:
                    00:c8:0c:a8:53:34:86:f8:36:34:66:73:97:0a:3e:
                    ae:15:a8:41:31:73:f9:2c:e9:aa:8c:62:3b:b4:e4:
                    05:4e:2f:41:c1:69:a8:fb:2b:e3:f1:8d:b9:f0:45:
                    50:60:99:40:dc:e0:92:c9:96:31:7d:49:64:94:b9:
                    17:0d:8c:8d:da:03:c2:a0:02:1d:bf:23:34:50:ae:
                    1b:97:fe:9a:e9:76:0f:6e:b4:58:38:dc:81:1f:df:
                    f4:d0:1a:b1:bd:8f:bc:3c:ab:ea:22:2d:60:a2:4d:
                    1e:11:28:5e:44:8d:79:73:5d:35:b9:f6:cb:44:db:
                    80:c3:da:dd:7c:43:9e:e3:a6:d2:45:5f:da:e3:6f:
                    ff:8a:74:d6:10:3b:02:4d:2a:29:5d:43:65:e0:b9:
                    ae:61:2c:fd:b1:ef:81:5d:53:7f:f2:45:e9:1e:14:
                    07:0c:da:f0:90:3d:d1:8f:26:41:a4:20:74:04:a8:
                    da:69:80:22:6c:3a:b8:00:ae:d3:14:89:42:a9:98:
                    22:11:76:5e:28:84:2d:41:9e:c7:b8:df:97:f9:9b:
                    9f:89:bf:86:bd:80:4f:db:c8:7e:7d:06:a0:b0:36:
                    c0:9f:07:be:99:f9:7e:b1:f0:93:60:0f:fd:a5:aa:
                    10:ec:49:5f:90:a6:71:f2:c8:03:51:54:1a:46:bc:
                    5d:bb
                Exponent: 65537 (0x10001)
        X509v3 extensions:
            X509v3 Basic Constraints: 
                CA:FALSE
            X509v3 Subject Key Identifier: 
                E6:82:AB:5F:7B:49:7F:66:41:9F:A2:80:71:F1:E0:26:31:3E:DD:2B
            X509v3 Authority Key Identifier: 
                keyid:1A:DC:98:F2:69:C1:F7:C8:1D:21:43:B0:3C:79:50:4D:D8:2B:87:54
                DirName:/C=US/ST=California/L=San Francisco/O=Copyleft Certificate Co/OU=My Organizational Unit/CN=ChangeMe/emailAddress=me@example.net
                serial:8C:9B:8E:88:7A:AC:6D:8B

            X509v3 Extended Key Usage: 
                TLS Web Client Authentication
            X509v3 Key Usage: 
                Digital Signature
    Signature Algorithm: sha256WithRSAEncryption
         9f:42:01:6d:ef:5f:c0:7e:0b:0d:3e:a0:7a:ec:9e:93:0c:e0:
         88:23:77:a5:33:61:2a:27:ae:8d:eb:00:53:ca:5c:6e:5d:7b:
         86:4d:57:4b:9f:4a:f0:b8:3b:bb:19:05:f0:2a:e3:38:ed:6a:
         fa:a6:79:a5:54:04:c3:8f:05:a7:ef:aa:fa:8c:45:44:da:6a:
         5e:b9:27:03:07:29:9f:63:81:98:a5:ab:71:f9:22:c4:be:64:
         9b:cc:cc:cb:87:c6:6e:26:66:ed:a9:08:01:05:49:c9:56:0b:
         71:8e:f0:a8:6c:56:40:6b:0c:80:02:d2:cd:26:0d:39:d7:85:
         fc:03:77:d4:71:55:46:db:e4:1d:d3:01:a4:c7:4f:70:74:f2:
         e3:5a:fa:43:e4:20:e2:a5:e2:f1:d9:f4:12:fc:9f:75:4a:c7:
         49:33:dd:9a:a9:96:79:dc:26:03:89:7e:73:4f:c2:67:57:c2:
         b3:54:86:0a:26:76:07:b4:67:40:58:a1:75:60:5b:75:ab:3a:
         2f:a7:7a:60:88:09:30:3b:40:67:ba:61:55:f5:cf:66:61:1b:
         d7:1c:8a:7c:59:a5:a3:2c:fc:5c:91:37:94:a2:19:0a:ff:cd:
         71:d6:dc:ed:e0:36:37:d9:68:94:75:bb:02:b2:63:0a:43:35:
         07:1b:cc:d8
-----BEGIN CERTIFICATE-----
MIIFLzCCBBegAwIBAgIQU1w48hfSetxlJ3iHcsdM3jANBgkqhkiG9w0BAQsFADCB
rzELMAkGA1UEBhMCVVMxEzARBgNVBAgMCkNhbGlmb3JuaWExFjAUBgNVBAcMDVNh
biBGcmFuY2lzY28xIDAeBgNVBAoMF0NvcHlsZWZ0IENlcnRpZmljYXRlIENvMR8w
HQYDVQQLDBZNeSBPcmdhbml6YXRpb25hbCBVbml0MREwDwYDVQQDDAhDaGFuZ2VN
ZTEdMBsGCSqGSIb3DQEJARYObWVAZXhhbXBsZS5uZXQwHhcNMjMxMTEzMTExMjU3
WhcNMjQxMTEyMTExMjU3WjCBuzELMAkGA1UEBhMCVVMxCzAJBgNVBAgMAk9IMRMw
EQYDVQQHDApDaW5jaW5uYXRpMSEwHwYDVQQKDBhVbml2ZXJzaXR5IG9mIENpbmNp
bm5hdGkxKjAoBgNVBAsMIURlcHQuIEVsZWMuIENvbXAuIEVuZy4gQ29tcC4gU2Np
LjERMA8GA1UEAwwIY2xpZW50NDMxKDAmBgkqhkiG9w0BCQEWGWZyYW5jb0BnYXVz
cy5lY2Vjcy51Yy5lZHUwggEiMA0GCSqGSIb3DQEBAQUAA4IBDwAwggEKAoIBAQDI
DKhTNIb4NjRmc5cKPq4VqEExc/ks6aqMYju05AVOL0HBaaj7K+PxjbnwRVBgmUDc
4JLJljF9SWSUuRcNjI3aA8KgAh2/IzRQrhuX/prpdg9utFg43IEf3/TQGrG9j7w8
q+oiLWCiTR4RKF5EjXlzXTW59stE24DD2t18Q57jptJFX9rjb/+KdNYQOwJNKild
Q2Xgua5hLP2x74FdU3/yRekeFAcM2vCQPdGPJkGkIHQEqNppgCJsOrgArtMUiUKp
mCIRdl4ohC1Bnse435f5m5+Jv4a9gE/byH59BqCwNsCfB76Z+X6x8JNgD/2lqhDs
SV+QpnHyyANRVBpGvF27AgMBAAGjggE3MIIBMzAJBgNVHRMEAjAAMB0GA1UdDgQW
BBTmgqtfe0l/ZkGfooBx8eAmMT7dKzCB5AYDVR0jBIHcMIHZgBQa3JjyacH3yB0h
Q7A8eVBN2CuHVKGBtaSBsjCBrzELMAkGA1UEBhMCVVMxEzARBgNVBAgMCkNhbGlm
b3JuaWExFjAUBgNVBAcMDVNhbiBGcmFuY2lzY28xIDAeBgNVBAoMF0NvcHlsZWZ0
IENlcnRpZmljYXRlIENvMR8wHQYDVQQLDBZNeSBPcmdhbml6YXRpb25hbCBVbml0
MREwDwYDVQQDDAhDaGFuZ2VNZTEdMBsGCSqGSIb3DQEJARYObWVAZXhhbXBsZS5u
ZXSCCQCMm46IeqxtizATBgNVHSUEDDAKBggrBgEFBQcDAjALBgNVHQ8EBAMCB4Aw
DQYJKoZIhvcNAQELBQADggEBAJ9CAW3vX8B+Cw0+oHrsnpMM4Igjd6UzYSonro3r
AFPKXG5de4ZNV0ufSvC4O7sZBfAq4zjtavqmeaVUBMOPBafvqvqMRUTaal65JwMH
KZ9jgZilq3H5IsS+ZJvMzMuHxm4mZu2pCAEFSclWC3GO8KhsVkBrDIAC0s0mDTnX
hfwDd9RxVUbb5B3TAaTHT3B08uNa+kPkIOKl4vHZ9BL8n3VKx0kz3ZqplnncJgOJ
fnNPwmdXwrNUhgomdge0Z0BYoXVgW3WrOi+nemCICTA7QGe6YVX1z2ZhG9ccinxZ
paMs/FyRN5SiGQr/zXHW3O3gNjfZaJR1uwKyYwpDNQcbzNg=
-----END CERTIFICATE-----
