Certificate:
    Data:
        Version: 3 (0x2)
        Serial Number:
            f8:e2:53:fa:ac:6d:89:31:48:25:f8:e8:6b:c2:dc:fb
    Signature Algorithm: sha256WithRSAEncryption
        Issuer: C=US, ST=California, L=San Francisco, O=Copyleft Certificate Co, OU=My Organizational Unit, CN=ChangeMe/emailAddress=me@example.net
        Validity
            Not Before: Nov 13 11:10:21 2023 GMT
            Not After : Nov 12 11:10:21 2024 GMT
        Subject: C=US, ST=OH, L=Cincinnati, O=University of Cincinnati, OU=Dept. Elec. Comp. Eng. Comp. Sci., CN=client4/emailAddress=franco@gauss.ececs.uc.edu
        Subject Public Key Info:
            Public Key Algorithm: rsaEncryption
                Public-Key: (2048 bit)
                Modulus:
                    00:c9:7d:db:e1:f9:11:1e:06:2f:98:b4:af:59:a5:
                    00:c7:70:0d:de:c5:0e:ce:e6:93:2a:75:78:59:d0:
                    11:c2:14:37:a1:5f:77:0e:87:fe:c0:b8:8c:da:cf:
                    e3:ea:dc:b3:d8:90:4e:08:09:44:dc:4e:42:74:2d:
                    84:c4:e8:c3:b7:75:2b:6a:30:02:0f:77:13:33:1f:
                    bd:b5:c3:30:42:e8:40:aa:26:d8:50:18:9a:1e:0b:
                    78:98:20:7e:4c:01:65:62:cd:f9:b1:e7:df:9c:d7:
                    7c:a6:15:ba:f7:3c:6d:37:0e:4e:ba:f1:d8:d3:2d:
                    7d:90:e2:81:0d:aa:44:78:ca:36:09:b3:2a:7d:8d:
                    22:cd:34:80:47:69:da:11:16:ce:46:90:ee:f3:16:
                    d8:5b:c8:ae:24:22:10:da:cd:1a:4d:26:d2:1f:2a:
                    cf:0e:83:dc:7c:d5:ea:62:b5:a6:79:ae:58:3e:3e:
                    e7:3b:3d:24:75:8c:1b:12:66:84:3c:f3:6d:54:b3:
                    b8:cf:65:41:45:0e:a9:7d:61:d1:83:55:e8:7a:ce:
                    e5:86:a6:c2:16:4d:ea:04:94:ee:b2:7c:a6:d5:9e:
                    36:97:e4:02:ce:63:25:a4:c8:b6:0f:8f:d0:82:20:
                    4e:ca:a7:69:6a:5b:84:e4:46:8c:04:15:a6:58:d6:
                    0b:eb
                Exponent: 65537 (0x10001)
        X509v3 extensions:
            X509v3 Basic Constraints: 
                CA:FALSE
            X509v3 Subject Key Identifier: 
                EF:B8:7F:16:EC:4C:6D:C1:C5:AA:4C:C6:35:E5:B8:11:AA:61:20:77
            X509v3 Authority Key Identifier: 
                keyid:1A:DC:98:F2:69:C1:F7:C8:1D:21:43:B0:3C:79:50:4D:D8:2B:87:54
                DirName:/C=US/ST=California/L=San Francisco/O=Copyleft Certificate Co/OU=My Organizational Unit/CN=ChangeMe/emailAddress=me@example.net
                serial:8C:9B:8E:88:7A:AC:6D:8B

            X509v3 Extended Key Usage: 
                TLS Web Client Authentication
            X509v3 Key Usage: 
                Digital Signature
    Signature Algorithm: sha256WithRSAEncryption
         81:3d:6c:c7:33:d5:5c:a5:8f:fc:d1:18:ad:2e:68:f5:5c:59:
         12:8e:d9:14:1d:1e:cd:90:06:51:7a:67:8f:cb:56:dd:9e:eb:
         48:00:46:6d:be:e5:02:d7:e8:31:02:d4:2b:e7:bb:a6:e8:fe:
         ba:51:af:80:b5:2c:05:da:77:bd:f5:bc:ab:38:ad:d0:e6:e6:
         ef:e7:36:50:20:e5:c7:e9:83:a8:99:17:6f:a1:50:34:18:3d:
         08:31:29:c5:61:f3:df:0b:92:0a:63:94:24:c3:98:0f:ab:83:
         f1:82:a3:97:bc:b4:2d:9c:3d:33:fa:be:e5:8c:26:0c:af:a8:
         7a:6c:ce:b9:96:66:3e:aa:cf:db:5d:d9:3d:7e:f9:aa:1a:59:
         d5:a2:fa:59:ac:16:d0:1c:88:bc:50:34:9d:0e:ac:c4:d6:68:
         ab:cf:36:61:80:10:7c:8f:52:5e:ae:6e:ef:b8:12:b4:a5:2b:
         68:da:02:b2:11:cc:e1:24:6c:db:44:e6:f2:43:a8:6e:72:e4:
         09:49:76:1f:a3:73:6e:07:5b:8e:bc:3f:a3:32:63:27:7e:a0:
         a1:35:a9:3a:e8:b5:8f:a9:a6:c1:f8:39:3c:df:1d:f6:ba:00:
         af:e0:3c:0d:36:96:f5:ac:d9:24:dd:71:87:9c:4e:92:34:92:
         2f:16:1c:43
-----BEGIN CERTIFICATE-----
MIIFLzCCBBegAwIBAgIRAPjiU/qsbYkxSCX46GvC3PswDQYJKoZIhvcNAQELBQAw
ga8xCzAJBgNVBAYTAlVTMRMwEQYDVQQIDApDYWxpZm9ybmlhMRYwFAYDVQQHDA1T
YW4gRnJhbmNpc2NvMSAwHgYDVQQKDBdDb3B5bGVmdCBDZXJ0aWZpY2F0ZSBDbzEf
MB0GA1UECwwWTXkgT3JnYW5pemF0aW9uYWwgVW5pdDERMA8GA1UEAwwIQ2hhbmdl
TWUxHTAbBgkqhkiG9w0BCQEWDm1lQGV4YW1wbGUubmV0MB4XDTIzMTExMzExMTAy
MVoXDTI0MTExMjExMTAyMVowgboxCzAJBgNVBAYTAlVTMQswCQYDVQQIDAJPSDET
MBEGA1UEBwwKQ2luY2lubmF0aTEhMB8GA1UECgwYVW5pdmVyc2l0eSBvZiBDaW5j
aW5uYXRpMSowKAYDVQQLDCFEZXB0LiBFbGVjLiBDb21wLiBFbmcuIENvbXAuIFNj
aS4xEDAOBgNVBAMMB2NsaWVudDQxKDAmBgkqhkiG9w0BCQEWGWZyYW5jb0BnYXVz
cy5lY2Vjcy51Yy5lZHUwggEiMA0GCSqGSIb3DQEBAQUAA4IBDwAwggEKAoIBAQDJ
fdvh+REeBi+YtK9ZpQDHcA3exQ7O5pMqdXhZ0BHCFDehX3cOh/7AuIzaz+Pq3LPY
kE4ICUTcTkJ0LYTE6MO3dStqMAIPdxMzH721wzBC6ECqJthQGJoeC3iYIH5MAWVi
zfmx59+c13ymFbr3PG03Dk668djTLX2Q4oENqkR4yjYJsyp9jSLNNIBHadoRFs5G
kO7zFthbyK4kIhDazRpNJtIfKs8Og9x81epitaZ5rlg+Puc7PSR1jBsSZoQ8821U
s7jPZUFFDql9YdGDVeh6zuWGpsIWTeoElO6yfKbVnjaX5ALOYyWkyLYPj9CCIE7K
p2lqW4TkRowEFaZY1gvrAgMBAAGjggE3MIIBMzAJBgNVHRMEAjAAMB0GA1UdDgQW
BBTvuH8W7ExtwcWqTMY15bgRqmEgdzCB5AYDVR0jBIHcMIHZgBQa3JjyacH3yB0h
Q7A8eVBN2CuHVKGBtaSBsjCBrzELMAkGA1UEBhMCVVMxEzARBgNVBAgMCkNhbGlm
b3JuaWExFjAUBgNVBAcMDVNhbiBGcmFuY2lzY28xIDAeBgNVBAoMF0NvcHlsZWZ0
IENlcnRpZmljYXRlIENvMR8wHQYDVQQLDBZNeSBPcmdhbml6YXRpb25hbCBVbml0
MREwDwYDVQQDDAhDaGFuZ2VNZTEdMBsGCSqGSIb3DQEJARYObWVAZXhhbXBsZS5u
ZXSCCQCMm46IeqxtizATBgNVHSUEDDAKBggrBgEFBQcDAjALBgNVHQ8EBAMCB4Aw
DQYJKoZIhvcNAQELBQADggEBAIE9bMcz1Vylj/zRGK0uaPVcWRKO2RQdHs2QBlF6
Z4/LVt2e60gARm2+5QLX6DEC1Cvnu6bo/rpRr4C1LAXad731vKs4rdDm5u/nNlAg
5cfpg6iZF2+hUDQYPQgxKcVh898LkgpjlCTDmA+rg/GCo5e8tC2cPTP6vuWMJgyv
qHpszrmWZj6qz9td2T1++aoaWdWi+lmsFtAciLxQNJ0OrMTWaKvPNmGAEHyPUl6u
bu+4ErSlK2jaArIRzOEkbNtE5vJDqG5y5AlJdh+jc24HW468P6MyYyd+oKE1qTro
tY+ppsH4OTzfHfa6AK/gPA02lvWs2STdcYecTpI0ki8WHEM=
-----END CERTIFICATE-----
