Certificate:
    Data:
        Version: 3 (0x2)
        Serial Number:
            a3:7b:09:d6:3e:0a:a8:e7:58:00:83:c7:2f:97:c0:46
    Signature Algorithm: sha256WithRSAEncryption
        Issuer: C=US, ST=California, L=San Francisco, O=Copyleft Certificate Co, OU=My Organizational Unit, CN=ChangeMe/emailAddress=me@example.net
        Validity
            Not Before: Nov 10 17:26:32 2023 GMT
            Not After : Nov  9 17:26:32 2024 GMT
        Subject: C=US, ST=OH, L=Cincinnati, O=University of Cincinnati, OU=Dept_Elec_Com_ Eng_Com_Sci., CN=client32/emailAddress=franco@gauss.ececs.uc.edu
        Subject Public Key Info:
            Public Key Algorithm: rsaEncryption
                Public-Key: (2048 bit)
                Modulus:
                    00:b0:d0:07:22:0c:ca:2e:a0:50:b1:f4:a6:fd:0a:
                    07:a3:aa:44:0a:5a:f7:78:33:5e:1a:40:61:9d:6f:
                    7b:bd:c1:62:36:09:ae:33:2f:6c:56:29:96:4d:00:
                    ec:62:2f:e1:29:97:b2:63:a6:de:17:f5:87:91:ac:
                    01:2a:36:09:75:58:d5:d1:8e:f6:42:14:e8:76:87:
                    dd:9e:4b:bc:07:f8:63:4e:35:64:b7:41:79:ef:b2:
                    41:a0:1b:21:e6:64:f2:71:46:84:f6:ad:d9:21:0e:
                    8e:ed:4f:e4:15:8c:a7:85:b9:88:6d:b8:f1:8d:fe:
                    e8:68:ba:f4:02:eb:49:10:f9:39:2b:dd:78:a8:29:
                    77:d7:d5:9a:d1:e4:a4:9f:17:b5:ff:65:ac:d4:f4:
                    57:ee:57:ad:dc:37:c9:7e:db:8b:35:5b:bc:33:c6:
                    19:8b:a8:0b:3b:b5:ea:b4:32:29:84:4d:df:74:f6:
                    4c:2f:e2:9e:7d:46:5b:3d:49:71:a0:5e:b4:16:17:
                    f9:8b:55:b5:c0:eb:a2:e3:24:3e:55:be:54:28:f4:
                    27:24:9b:c8:31:ec:bd:30:f6:ea:1f:98:9a:53:c8:
                    71:21:5c:ea:70:39:40:8a:d4:36:67:33:82:91:fc:
                    79:3f:ae:cc:4f:67:f5:0d:45:74:3c:bf:94:f1:68:
                    9b:01
                Exponent: 65537 (0x10001)
        X509v3 extensions:
            X509v3 Basic Constraints: 
                CA:FALSE
            X509v3 Subject Key Identifier: 
                8E:A8:5B:82:5D:39:BE:45:07:87:95:F8:34:CB:B1:36:00:44:27:A1
            X509v3 Authority Key Identifier: 
                keyid:D9:D4:8C:20:BC:EB:38:17:D5:4B:52:F8:AA:C5:D2:44:DD:A2:6A:3B
                DirName:/C=US/ST=California/L=San Francisco/O=Copyleft Certificate Co/OU=My Organizational Unit/CN=ChangeMe/emailAddress=me@example.net
                serial:C2:48:34:65:BF:AB:EB:AA

            X509v3 Extended Key Usage: 
                TLS Web Client Authentication
            X509v3 Key Usage: 
                Digital Signature
    Signature Algorithm: sha256WithRSAEncryption
         3f:f7:b5:6d:26:6a:2f:f6:e9:fb:86:33:3c:02:ef:ad:7e:3a:
         1c:6e:ac:d9:40:87:f9:3c:1b:f4:3a:fd:11:5e:2c:ed:37:38:
         53:cd:c7:65:29:17:40:1a:6b:c1:37:bc:e4:c0:e6:c4:ca:e7:
         b2:f7:cd:4f:d6:d4:53:2c:23:d2:5b:a9:93:1c:58:bc:06:1c:
         8e:ab:1f:b2:a5:fd:a2:f2:7c:c7:80:0b:66:51:f1:2b:88:a8:
         06:e6:a2:4f:02:90:06:be:7b:79:8a:8b:70:08:27:7b:80:df:
         9b:12:27:e4:fc:fc:3b:12:7c:f6:7b:03:13:1f:eb:76:04:7c:
         85:03:79:c3:d5:57:dd:44:88:fe:c0:9a:cf:2e:ec:29:9e:19:
         57:f9:36:00:44:0d:5d:b5:df:dd:c2:f4:78:33:e7:6e:41:bf:
         10:fc:3a:9f:b9:b3:dd:97:1b:4d:74:92:43:8e:d0:4c:b3:a7:
         b8:a1:e6:e2:79:2c:77:15:7f:11:c8:d0:1a:2e:0c:a2:e8:7a:
         1e:d6:5a:d6:61:a6:ad:a5:95:0e:fb:e0:20:0e:3a:f2:a1:5d:
         e9:3b:45:46:00:1b:37:38:14:37:44:95:f7:08:d3:55:c7:89:
         77:5f:b6:87:75:a3:9c:27:cf:75:27:3e:ec:db:43:fd:9e:c9:
         5e:0b:8e:dc
-----BEGIN CERTIFICATE-----
MIIFKjCCBBKgAwIBAgIRAKN7CdY+CqjnWACDxy+XwEYwDQYJKoZIhvcNAQELBQAw
ga8xCzAJBgNVBAYTAlVTMRMwEQYDVQQIDApDYWxpZm9ybmlhMRYwFAYDVQQHDA1T
YW4gRnJhbmNpc2NvMSAwHgYDVQQKDBdDb3B5bGVmdCBDZXJ0aWZpY2F0ZSBDbzEf
MB0GA1UECwwWTXkgT3JnYW5pemF0aW9uYWwgVW5pdDERMA8GA1UEAwwIQ2hhbmdl
TWUxHTAbBgkqhkiG9w0BCQEWDm1lQGV4YW1wbGUubmV0MB4XDTIzMTExMDE3MjYz
MloXDTI0MTEwOTE3MjYzMlowgbUxCzAJBgNVBAYTAlVTMQswCQYDVQQIDAJPSDET
MBEGA1UEBwwKQ2luY2lubmF0aTEhMB8GA1UECgwYVW5pdmVyc2l0eSBvZiBDaW5j
aW5uYXRpMSQwIgYDVQQLDBtEZXB0X0VsZWNfQ29tXyBFbmdfQ29tX1NjaS4xETAP
BgNVBAMMCGNsaWVudDMyMSgwJgYJKoZIhvcNAQkBFhlmcmFuY29AZ2F1c3MuZWNl
Y3MudWMuZWR1MIIBIjANBgkqhkiG9w0BAQEFAAOCAQ8AMIIBCgKCAQEAsNAHIgzK
LqBQsfSm/QoHo6pEClr3eDNeGkBhnW97vcFiNgmuMy9sVimWTQDsYi/hKZeyY6be
F/WHkawBKjYJdVjV0Y72QhTodofdnku8B/hjTjVkt0F577JBoBsh5mTycUaE9q3Z
IQ6O7U/kFYynhbmIbbjxjf7oaLr0AutJEPk5K914qCl319Wa0eSknxe1/2Ws1PRX
7let3DfJftuLNVu8M8YZi6gLO7XqtDIphE3fdPZML+KefUZbPUlxoF60Fhf5i1W1
wOui4yQ+Vb5UKPQnJJvIMey9MPbqH5iaU8hxIVzqcDlAitQ2ZzOCkfx5P67MT2f1
DUV0PL+U8WibAQIDAQABo4IBNzCCATMwCQYDVR0TBAIwADAdBgNVHQ4EFgQUjqhb
gl05vkUHh5X4NMuxNgBEJ6EwgeQGA1UdIwSB3DCB2YAU2dSMILzrOBfVS1L4qsXS
RN2iajuhgbWkgbIwga8xCzAJBgNVBAYTAlVTMRMwEQYDVQQIDApDYWxpZm9ybmlh
MRYwFAYDVQQHDA1TYW4gRnJhbmNpc2NvMSAwHgYDVQQKDBdDb3B5bGVmdCBDZXJ0
aWZpY2F0ZSBDbzEfMB0GA1UECwwWTXkgT3JnYW5pemF0aW9uYWwgVW5pdDERMA8G
A1UEAwwIQ2hhbmdlTWUxHTAbBgkqhkiG9w0BCQEWDm1lQGV4YW1wbGUubmV0ggkA
wkg0Zb+r66owEwYDVR0lBAwwCgYIKwYBBQUHAwIwCwYDVR0PBAQDAgeAMA0GCSqG
SIb3DQEBCwUAA4IBAQA/97VtJmov9un7hjM8Au+tfjocbqzZQIf5PBv0Ov0RXizt
NzhTzcdlKRdAGmvBN7zkwObEyuey981P1tRTLCPSW6mTHFi8BhyOqx+ypf2i8nzH
gAtmUfEriKgG5qJPApAGvnt5iotwCCd7gN+bEifk/Pw7Enz2ewMTH+t2BHyFA3nD
1VfdRIj+wJrPLuwpnhlX+TYARA1dtd/dwvR4M+duQb8Q/DqfubPdlxtNdJJDjtBM
s6e4oebieSx3FX8RyNAaLgyi6Hoe1lrWYaatpZUO++AgDjryoV3pO0VGABs3OBQ3
RJX3CNNVx4l3X7aHdaOcJ891Jz7s20P9nsleC47c
-----END CERTIFICATE-----
