Certificate:
    Data:
        Version: 3 (0x2)
        Serial Number:
            2a:1a:88:09:73:3a:75:48:07:fd:20:7c:d0:13:ce:40
    Signature Algorithm: sha256WithRSAEncryption
        Issuer: C=US, ST=California, L=San Francisco, O=Copyleft Certificate Co, OU=My Organizational Unit, CN=ChangeMe/emailAddress=me@example.net
        Validity
            Not Before: Nov 10 17:26:36 2023 GMT
            Not After : Nov  9 17:26:36 2024 GMT
        Subject: C=US, ST=OH, L=Cincinnati, O=University of Cincinnati, OU=Dept_Elec_Com_ Eng_Com_Sci., CN=client33/emailAddress=franco@gauss.ececs.uc.edu
        Subject Public Key Info:
            Public Key Algorithm: rsaEncryption
                Public-Key: (2048 bit)
                Modulus:
                    00:ca:fa:a3:ae:a0:2e:9b:67:cd:77:e7:9a:86:0a:
                    cc:ab:ea:b3:15:9e:ab:d1:62:ef:52:08:d4:b2:2b:
                    3e:4a:c7:90:f1:58:c1:bf:95:11:5c:02:74:d0:88:
                    c1:bc:71:8c:c1:b4:23:64:b7:ed:d9:1d:1f:52:86:
                    41:04:a9:a4:b8:f5:5c:e8:16:2c:5f:c7:ab:78:f3:
                    ae:e2:ab:60:86:96:2d:42:bc:91:33:66:0d:ad:02:
                    ee:d2:55:96:f7:c5:00:d5:87:e3:e3:c0:eb:1e:5f:
                    d3:c1:c4:4c:35:7d:c3:29:26:83:a4:db:48:d1:4f:
                    79:ea:69:0c:70:fe:83:dd:d5:24:1b:89:6b:13:e8:
                    e7:ce:18:0e:66:4f:df:13:21:14:72:41:3f:49:74:
                    6d:d7:15:1c:7c:0e:d5:e4:78:46:f5:65:6d:0a:6e:
                    2f:fa:f9:d7:c0:c8:55:b8:62:3d:ed:24:1c:bc:97:
                    37:21:80:16:a9:3e:4a:10:9d:d3:54:1e:7b:9e:2b:
                    b4:a3:b7:94:4c:a9:f5:ac:75:96:55:e4:8b:49:14:
                    74:06:ae:5f:b4:35:34:19:2c:7b:6e:50:94:6f:ef:
                    a6:c9:9d:cb:93:a2:09:fc:22:1a:b9:43:7a:e7:5e:
                    f5:ad:86:d6:54:a6:4b:8e:85:2a:b2:ef:66:2e:dd:
                    ea:69
                Exponent: 65537 (0x10001)
        X509v3 extensions:
            X509v3 Basic Constraints: 
                CA:FALSE
            X509v3 Subject Key Identifier: 
                18:A3:D1:FD:EC:F0:59:07:18:98:5E:95:FC:FE:E8:D9:25:BB:59:42
            X509v3 Authority Key Identifier: 
                keyid:D9:D4:8C:20:BC:EB:38:17:D5:4B:52:F8:AA:C5:D2:44:DD:A2:6A:3B
                DirName:/C=US/ST=California/L=San Francisco/O=Copyleft Certificate Co/OU=My Organizational Unit/CN=ChangeMe/emailAddress=me@example.net
                serial:C2:48:34:65:BF:AB:EB:AA

            X509v3 Extended Key Usage: 
                TLS Web Client Authentication
            X509v3 Key Usage: 
                Digital Signature
    Signature Algorithm: sha256WithRSAEncryption
         28:a2:b6:aa:10:dc:ba:ea:ff:0c:4e:af:e8:00:dd:8e:b2:16:
         12:5f:7d:a1:7f:69:5d:33:54:fa:b3:94:81:e1:30:87:37:41:
         1c:5c:ff:01:e3:70:a5:85:6d:ac:f1:7b:c5:93:a7:78:c9:3a:
         20:03:6c:89:48:fd:03:20:84:d7:4d:f9:b3:a1:09:ac:f7:f6:
         de:a2:e9:4c:c9:c8:29:a9:6b:58:d8:1d:ec:5a:34:18:f7:2c:
         24:47:d7:65:48:c7:f9:73:c6:da:5e:05:2b:88:47:02:36:36:
         f6:a4:57:74:cd:7b:dc:a9:3c:79:26:4b:91:19:2b:33:35:b9:
         ba:ff:f4:21:e2:af:61:09:7c:ba:de:8c:8d:a9:6a:7d:c0:a0:
         63:fe:3d:9c:61:66:d0:f2:86:6f:8c:a6:3f:12:dc:66:fc:cf:
         ab:c7:e2:f8:4e:71:60:73:b3:6d:91:9b:15:1e:37:96:86:07:
         de:1e:6d:84:fc:f7:7b:84:a8:10:a4:c4:2b:ef:30:c9:f6:44:
         cd:30:36:df:2f:12:e3:7e:3a:3d:0a:21:5b:97:68:db:f5:9e:
         4c:8f:2e:40:3e:3b:2a:3f:37:89:2b:28:8e:e4:22:16:f9:29:
         fa:27:6b:96:ca:08:a2:84:8f:70:f1:c3:f3:e0:9d:9d:55:c8:
         1f:a7:dc:08
-----BEGIN CERTIFICATE-----
MIIFKTCCBBGgAwIBAgIQKhqICXM6dUgH/SB80BPOQDANBgkqhkiG9w0BAQsFADCB
rzELMAkGA1UEBhMCVVMxEzARBgNVBAgMCkNhbGlmb3JuaWExFjAUBgNVBAcMDVNh
biBGcmFuY2lzY28xIDAeBgNVBAoMF0NvcHlsZWZ0IENlcnRpZmljYXRlIENvMR8w
HQYDVQQLDBZNeSBPcmdhbml6YXRpb25hbCBVbml0MREwDwYDVQQDDAhDaGFuZ2VN
ZTEdMBsGCSqGSIb3DQEJARYObWVAZXhhbXBsZS5uZXQwHhcNMjMxMTEwMTcyNjM2
WhcNMjQxMTA5MTcyNjM2WjCBtTELMAkGA1UEBhMCVVMxCzAJBgNVBAgMAk9IMRMw
EQYDVQQHDApDaW5jaW5uYXRpMSEwHwYDVQQKDBhVbml2ZXJzaXR5IG9mIENpbmNp
bm5hdGkxJDAiBgNVBAsMG0RlcHRfRWxlY19Db21fIEVuZ19Db21fU2NpLjERMA8G
A1UEAwwIY2xpZW50MzMxKDAmBgkqhkiG9w0BCQEWGWZyYW5jb0BnYXVzcy5lY2Vj
cy51Yy5lZHUwggEiMA0GCSqGSIb3DQEBAQUAA4IBDwAwggEKAoIBAQDK+qOuoC6b
Z81355qGCsyr6rMVnqvRYu9SCNSyKz5Kx5DxWMG/lRFcAnTQiMG8cYzBtCNkt+3Z
HR9ShkEEqaS49VzoFixfx6t4867iq2CGli1CvJEzZg2tAu7SVZb3xQDVh+PjwOse
X9PBxEw1fcMpJoOk20jRT3nqaQxw/oPd1SQbiWsT6OfOGA5mT98TIRRyQT9JdG3X
FRx8DtXkeEb1ZW0Kbi/6+dfAyFW4Yj3tJBy8lzchgBapPkoQndNUHnueK7Sjt5RM
qfWsdZZV5ItJFHQGrl+0NTQZLHtuUJRv76bJncuTogn8Ihq5Q3rnXvWthtZUpkuO
hSqy72Yu3eppAgMBAAGjggE3MIIBMzAJBgNVHRMEAjAAMB0GA1UdDgQWBBQYo9H9
7PBZBxiYXpX8/ujZJbtZQjCB5AYDVR0jBIHcMIHZgBTZ1IwgvOs4F9VLUviqxdJE
3aJqO6GBtaSBsjCBrzELMAkGA1UEBhMCVVMxEzARBgNVBAgMCkNhbGlmb3JuaWEx
FjAUBgNVBAcMDVNhbiBGcmFuY2lzY28xIDAeBgNVBAoMF0NvcHlsZWZ0IENlcnRp
ZmljYXRlIENvMR8wHQYDVQQLDBZNeSBPcmdhbml6YXRpb25hbCBVbml0MREwDwYD
VQQDDAhDaGFuZ2VNZTEdMBsGCSqGSIb3DQEJARYObWVAZXhhbXBsZS5uZXSCCQDC
SDRlv6vrqjATBgNVHSUEDDAKBggrBgEFBQcDAjALBgNVHQ8EBAMCB4AwDQYJKoZI
hvcNAQELBQADggEBACiitqoQ3Lrq/wxOr+gA3Y6yFhJffaF/aV0zVPqzlIHhMIc3
QRxc/wHjcKWFbazxe8WTp3jJOiADbIlI/QMghNdN+bOhCaz39t6i6UzJyCmpa1jY
HexaNBj3LCRH12VIx/lzxtpeBSuIRwI2NvakV3TNe9ypPHkmS5EZKzM1ubr/9CHi
r2EJfLrejI2pan3AoGP+PZxhZtDyhm+Mpj8S3Gb8z6vH4vhOcWBzs22RmxUeN5aG
B94ebYT893uEqBCkxCvvMMn2RM0wNt8vEuN+Oj0KIVuXaNv1nkyPLkA+Oyo/N4kr
KI7kIhb5Kfona5bKCKKEj3Dxw/PgnZ1VyB+n3Ag=
-----END CERTIFICATE-----
