Certificate:
    Data:
        Version: 3 (0x2)
        Serial Number:
            64:03:61:fe:82:bb:cb:78:47:da:5a:7d:47:c1:b8:a4
    Signature Algorithm: sha256WithRSAEncryption
        Issuer: C=US, ST=California, L=San Francisco, O=Copyleft Certificate Co, OU=My Organizational Unit, CN=ChangeMe/emailAddress=me@example.net
        Validity
            Not Before: Nov 10 17:25:32 2023 GMT
            Not After : Nov  9 17:25:32 2024 GMT
        Subject: C=US, ST=OH, L=Cincinnati, O=University of Cincinnati, OU=Dept_Elec_Com_ Eng_Com_Sci., CN=client17/emailAddress=franco@gauss.ececs.uc.edu
        Subject Public Key Info:
            Public Key Algorithm: rsaEncryption
                Public-Key: (2048 bit)
                Modulus:
                    00:a1:36:c9:78:63:09:e3:55:25:46:d1:18:7f:cd:
                    be:b1:68:25:79:7d:df:1a:38:b8:17:dc:a8:9f:1d:
                    c5:a2:23:6a:53:35:cb:6d:13:a8:cf:93:8a:b0:f6:
                    8a:32:bf:a0:e2:e9:6a:8b:49:21:51:ca:a4:3c:3f:
                    ae:e7:c7:86:26:ad:02:f8:32:55:ba:65:89:7e:d5:
                    5c:72:52:92:48:8e:87:a2:47:4a:55:e0:da:db:e0:
                    cf:ec:9c:c1:4d:e7:f1:ce:c2:4a:92:dc:7c:13:44:
                    ef:5a:ca:50:0f:ca:13:e3:e0:12:b1:6a:68:3c:0f:
                    7f:cf:5b:14:6d:08:98:6f:84:91:fa:64:e1:25:40:
                    66:8e:d6:2d:da:3f:a6:86:12:f8:2c:1c:5e:19:89:
                    6f:15:53:d6:af:82:11:73:e4:cd:d2:66:6c:8a:50:
                    1a:ba:de:67:ea:0f:42:28:df:eb:3e:27:eb:ed:25:
                    ad:f5:a5:84:5a:e8:86:39:cf:b4:d4:f2:f0:90:2c:
                    f6:42:ac:15:d2:d3:07:a9:11:b8:0e:f5:27:85:ae:
                    32:ad:a6:06:27:3c:c8:87:2c:7e:ec:b5:83:40:8c:
                    88:38:93:f7:b1:f7:1d:ac:54:88:35:e6:18:44:43:
                    40:a6:14:7d:21:c8:2a:98:90:ac:94:d2:1e:55:0c:
                    36:d1
                Exponent: 65537 (0x10001)
        X509v3 extensions:
            X509v3 Basic Constraints: 
                CA:FALSE
            X509v3 Subject Key Identifier: 
                AD:9E:B1:EF:97:F4:54:85:11:AB:B5:D1:CE:C8:DF:E4:4C:D6:7C:47
            X509v3 Authority Key Identifier: 
                keyid:D9:D4:8C:20:BC:EB:38:17:D5:4B:52:F8:AA:C5:D2:44:DD:A2:6A:3B
                DirName:/C=US/ST=California/L=San Francisco/O=Copyleft Certificate Co/OU=My Organizational Unit/CN=ChangeMe/emailAddress=me@example.net
                serial:C2:48:34:65:BF:AB:EB:AA

            X509v3 Extended Key Usage: 
                TLS Web Client Authentication
            X509v3 Key Usage: 
                Digital Signature
    Signature Algorithm: sha256WithRSAEncryption
         27:4d:57:c1:15:f2:73:10:57:5e:71:0e:38:ed:89:f7:64:11:
         03:29:d2:00:5b:90:38:a1:ac:83:7b:fa:b9:d6:43:84:b7:3f:
         29:77:2f:7e:b3:19:f3:4e:eb:b4:36:23:ff:38:4d:be:c9:d4:
         1a:0f:b7:84:69:34:bc:e2:b4:d6:bc:65:e3:0b:4b:ca:60:fa:
         47:27:73:60:06:9f:80:00:65:1d:0f:59:dc:47:f0:0a:65:15:
         37:09:e9:f2:08:ba:b9:91:1c:e2:36:d0:90:1d:cf:7e:e2:66:
         fc:c7:9c:cb:58:e3:f5:9c:0d:38:23:6f:96:8e:2d:df:a2:53:
         26:33:84:a9:04:c4:f0:1a:50:b8:74:92:a4:a3:f3:1e:a2:31:
         71:f9:0f:97:84:56:45:0e:7b:f7:61:e3:6e:d6:b2:47:49:87:
         a9:13:4d:c1:58:0e:3b:b1:e8:c8:d9:d3:a0:10:cf:d8:57:98:
         a3:ef:84:9a:a6:7f:5f:7a:56:fb:94:c0:a9:60:33:96:21:03:
         4d:19:13:39:17:ef:92:de:30:cb:be:8c:a9:97:4c:ae:9d:58:
         be:12:cc:09:1b:6c:a9:72:3b:f1:d9:54:4d:01:85:09:38:84:
         51:89:d5:2b:28:01:d2:80:3a:fb:16:aa:8e:09:18:db:28:a8:
         43:cc:b0:c2
-----BEGIN CERTIFICATE-----
MIIFKTCCBBGgAwIBAgIQZANh/oK7y3hH2lp9R8G4pDANBgkqhkiG9w0BAQsFADCB
rzELMAkGA1UEBhMCVVMxEzARBgNVBAgMCkNhbGlmb3JuaWExFjAUBgNVBAcMDVNh
biBGcmFuY2lzY28xIDAeBgNVBAoMF0NvcHlsZWZ0IENlcnRpZmljYXRlIENvMR8w
HQYDVQQLDBZNeSBPcmdhbml6YXRpb25hbCBVbml0MREwDwYDVQQDDAhDaGFuZ2VN
ZTEdMBsGCSqGSIb3DQEJARYObWVAZXhhbXBsZS5uZXQwHhcNMjMxMTEwMTcyNTMy
WhcNMjQxMTA5MTcyNTMyWjCBtTELMAkGA1UEBhMCVVMxCzAJBgNVBAgMAk9IMRMw
EQYDVQQHDApDaW5jaW5uYXRpMSEwHwYDVQQKDBhVbml2ZXJzaXR5IG9mIENpbmNp
bm5hdGkxJDAiBgNVBAsMG0RlcHRfRWxlY19Db21fIEVuZ19Db21fU2NpLjERMA8G
A1UEAwwIY2xpZW50MTcxKDAmBgkqhkiG9w0BCQEWGWZyYW5jb0BnYXVzcy5lY2Vj
cy51Yy5lZHUwggEiMA0GCSqGSIb3DQEBAQUAA4IBDwAwggEKAoIBAQChNsl4Ywnj
VSVG0Rh/zb6xaCV5fd8aOLgX3KifHcWiI2pTNcttE6jPk4qw9ooyv6Di6WqLSSFR
yqQ8P67nx4YmrQL4MlW6ZYl+1VxyUpJIjoeiR0pV4Nrb4M/snMFN5/HOwkqS3HwT
RO9aylAPyhPj4BKxamg8D3/PWxRtCJhvhJH6ZOElQGaO1i3aP6aGEvgsHF4ZiW8V
U9avghFz5M3SZmyKUBq63mfqD0Io3+s+J+vtJa31pYRa6IY5z7TU8vCQLPZCrBXS
0wepEbgO9SeFrjKtpgYnPMiHLH7stYNAjIg4k/ex9x2sVIg15hhEQ0CmFH0hyCqY
kKyU0h5VDDbRAgMBAAGjggE3MIIBMzAJBgNVHRMEAjAAMB0GA1UdDgQWBBStnrHv
l/RUhRGrtdHOyN/kTNZ8RzCB5AYDVR0jBIHcMIHZgBTZ1IwgvOs4F9VLUviqxdJE
3aJqO6GBtaSBsjCBrzELMAkGA1UEBhMCVVMxEzARBgNVBAgMCkNhbGlmb3JuaWEx
FjAUBgNVBAcMDVNhbiBGcmFuY2lzY28xIDAeBgNVBAoMF0NvcHlsZWZ0IENlcnRp
ZmljYXRlIENvMR8wHQYDVQQLDBZNeSBPcmdhbml6YXRpb25hbCBVbml0MREwDwYD
VQQDDAhDaGFuZ2VNZTEdMBsGCSqGSIb3DQEJARYObWVAZXhhbXBsZS5uZXSCCQDC
SDRlv6vrqjATBgNVHSUEDDAKBggrBgEFBQcDAjALBgNVHQ8EBAMCB4AwDQYJKoZI
hvcNAQELBQADggEBACdNV8EV8nMQV15xDjjtifdkEQMp0gBbkDihrIN7+rnWQ4S3
Pyl3L36zGfNO67Q2I/84Tb7J1BoPt4RpNLzitNa8ZeMLS8pg+kcnc2AGn4AAZR0P
WdxH8AplFTcJ6fIIurmRHOI20JAdz37iZvzHnMtY4/WcDTgjb5aOLd+iUyYzhKkE
xPAaULh0kqSj8x6iMXH5D5eEVkUOe/dh427WskdJh6kTTcFYDjux6MjZ06AQz9hX
mKPvhJqmf196VvuUwKlgM5YhA00ZEzkX75LeMMu+jKmXTK6dWL4SzAkbbKlyO/HZ
VE0BhQk4hFGJ1SsoAdKAOvsWqo4JGNsoqEPMsMI=
-----END CERTIFICATE-----
