Certificate:
    Data:
        Version: 3 (0x2)
        Serial Number:
            f7:43:b6:ab:75:5c:52:b0:6f:d7:93:d4:f5:b3:68:ed
    Signature Algorithm: sha256WithRSAEncryption
        Issuer: C=US, ST=California, L=San Francisco, O=Copyleft Certificate Co, OU=My Organizational Unit, CN=ChangeMe/emailAddress=me@example.net
        Validity
            Not Before: Nov 13 11:10:49 2023 GMT
            Not After : Nov 12 11:10:49 2024 GMT
        Subject: C=US, ST=OH, L=Cincinnati, O=University of Cincinnati, OU=Dept. Elec. Comp. Eng. Comp. Sci., CN=client11/emailAddress=franco@gauss.ececs.uc.edu
        Subject Public Key Info:
            Public Key Algorithm: rsaEncryption
                Public-Key: (2048 bit)
                Modulus:
                    00:c6:a2:69:fe:60:6c:4c:96:95:e4:34:51:05:8f:
                    84:53:9a:71:d9:41:96:e8:e6:b1:1f:b9:ca:f0:fc:
                    a3:cf:3b:34:53:ff:bc:15:48:ad:c3:e3:bc:01:ad:
                    f1:50:e9:60:c6:4d:b8:1e:8c:ff:b8:20:e0:a9:10:
                    c0:0e:fe:a5:24:ba:41:70:74:ad:bd:af:a2:de:dd:
                    93:f2:8a:81:81:cf:4e:49:d4:07:08:89:ea:c1:04:
                    7e:23:f8:ff:8b:b9:b7:af:54:e5:b1:b9:dc:99:bf:
                    84:55:41:18:48:0d:34:d4:1a:f9:00:f4:16:78:20:
                    2a:10:37:f5:d9:9a:77:03:ab:78:cd:ca:f0:25:b3:
                    3c:12:5d:0e:93:be:97:c9:97:ef:77:3c:3f:7d:af:
                    58:74:d1:21:2d:12:23:72:7e:70:04:b8:ba:d5:79:
                    95:a1:c9:c1:55:b4:b2:2b:f2:3d:3c:92:b7:ae:23:
                    6e:c9:55:09:5e:5a:af:b9:8d:70:3f:f1:96:9d:03:
                    c5:90:8c:f8:80:ef:47:15:99:13:e6:f3:ec:db:2d:
                    11:ab:05:3f:a3:3f:22:d3:14:59:de:a5:d1:d8:65:
                    82:72:07:87:31:cc:ac:fc:bf:8e:9b:5b:ad:c7:b4:
                    d7:a2:ca:df:68:8b:7e:09:54:a3:91:e4:90:bb:99:
                    db:13
                Exponent: 65537 (0x10001)
        X509v3 extensions:
            X509v3 Basic Constraints: 
                CA:FALSE
            X509v3 Subject Key Identifier: 
                2C:B5:80:73:F0:A2:0E:7E:86:1A:87:79:E8:E1:6C:7A:49:38:00:24
            X509v3 Authority Key Identifier: 
                keyid:1A:DC:98:F2:69:C1:F7:C8:1D:21:43:B0:3C:79:50:4D:D8:2B:87:54
                DirName:/C=US/ST=California/L=San Francisco/O=Copyleft Certificate Co/OU=My Organizational Unit/CN=ChangeMe/emailAddress=me@example.net
                serial:8C:9B:8E:88:7A:AC:6D:8B

            X509v3 Extended Key Usage: 
                TLS Web Client Authentication
            X509v3 Key Usage: 
                Digital Signature
    Signature Algorithm: sha256WithRSAEncryption
         9f:d3:fc:b6:ae:10:94:66:50:7e:85:af:85:f4:c9:64:ea:59:
         ee:db:77:24:16:47:84:f8:1e:bf:f2:23:29:a4:ec:bd:58:30:
         16:2e:eb:29:f5:4d:3e:be:0f:03:d5:9f:a8:31:19:5a:1c:47:
         12:25:d9:b3:81:e7:23:dd:7e:75:49:07:33:e7:ba:ad:ed:c4:
         f1:30:bd:e7:65:70:fc:d1:7d:52:5f:8b:27:16:99:2a:16:12:
         ea:ad:8c:15:c1:95:c6:02:62:99:37:a1:73:40:72:27:85:3d:
         90:c3:1b:5c:4f:a8:79:63:86:24:6b:86:73:c9:f3:95:89:e7:
         fc:fe:07:12:83:58:2a:83:25:f9:03:77:a7:82:31:c0:58:f0:
         19:ad:ae:40:4e:13:6e:04:65:b3:86:61:55:0d:11:f1:dd:21:
         e8:4a:2d:05:b9:dd:32:c9:50:be:9f:2b:f4:6a:b9:00:8b:f5:
         6a:23:f8:52:58:50:34:7b:25:56:38:87:8c:48:4f:cb:30:6d:
         37:fb:71:69:6c:2e:3a:7c:14:cc:f6:4d:d3:1c:5d:0d:52:4e:
         8b:5f:20:4c:e9:c9:15:66:7e:2f:8d:83:bb:92:a3:91:0f:71:
         93:70:59:51:bd:81:29:7e:9a:2f:49:53:75:46:01:4a:3e:1c:
         62:98:69:28
-----BEGIN CERTIFICATE-----
MIIFMDCCBBigAwIBAgIRAPdDtqt1XFKwb9eT1PWzaO0wDQYJKoZIhvcNAQELBQAw
ga8xCzAJBgNVBAYTAlVTMRMwEQYDVQQIDApDYWxpZm9ybmlhMRYwFAYDVQQHDA1T
YW4gRnJhbmNpc2NvMSAwHgYDVQQKDBdDb3B5bGVmdCBDZXJ0aWZpY2F0ZSBDbzEf
MB0GA1UECwwWTXkgT3JnYW5pemF0aW9uYWwgVW5pdDERMA8GA1UEAwwIQ2hhbmdl
TWUxHTAbBgkqhkiG9w0BCQEWDm1lQGV4YW1wbGUubmV0MB4XDTIzMTExMzExMTA0
OVoXDTI0MTExMjExMTA0OVowgbsxCzAJBgNVBAYTAlVTMQswCQYDVQQIDAJPSDET
MBEGA1UEBwwKQ2luY2lubmF0aTEhMB8GA1UECgwYVW5pdmVyc2l0eSBvZiBDaW5j
aW5uYXRpMSowKAYDVQQLDCFEZXB0LiBFbGVjLiBDb21wLiBFbmcuIENvbXAuIFNj
aS4xETAPBgNVBAMMCGNsaWVudDExMSgwJgYJKoZIhvcNAQkBFhlmcmFuY29AZ2F1
c3MuZWNlY3MudWMuZWR1MIIBIjANBgkqhkiG9w0BAQEFAAOCAQ8AMIIBCgKCAQEA
xqJp/mBsTJaV5DRRBY+EU5px2UGW6OaxH7nK8Pyjzzs0U/+8FUitw+O8Aa3xUOlg
xk24Hoz/uCDgqRDADv6lJLpBcHStva+i3t2T8oqBgc9OSdQHCInqwQR+I/j/i7m3
r1Tlsbncmb+EVUEYSA001Br5APQWeCAqEDf12Zp3A6t4zcrwJbM8El0Ok76XyZfv
dzw/fa9YdNEhLRIjcn5wBLi61XmVocnBVbSyK/I9PJK3riNuyVUJXlqvuY1wP/GW
nQPFkIz4gO9HFZkT5vPs2y0RqwU/oz8i0xRZ3qXR2GWCcgeHMcys/L+Om1utx7TX
osrfaIt+CVSjkeSQu5nbEwIDAQABo4IBNzCCATMwCQYDVR0TBAIwADAdBgNVHQ4E
FgQULLWAc/CiDn6GGod56OFsekk4ACQwgeQGA1UdIwSB3DCB2YAUGtyY8mnB98gd
IUOwPHlQTdgrh1ShgbWkgbIwga8xCzAJBgNVBAYTAlVTMRMwEQYDVQQIDApDYWxp
Zm9ybmlhMRYwFAYDVQQHDA1TYW4gRnJhbmNpc2NvMSAwHgYDVQQKDBdDb3B5bGVm
dCBDZXJ0aWZpY2F0ZSBDbzEfMB0GA1UECwwWTXkgT3JnYW5pemF0aW9uYWwgVW5p
dDERMA8GA1UEAwwIQ2hhbmdlTWUxHTAbBgkqhkiG9w0BCQEWDm1lQGV4YW1wbGUu
bmV0ggkAjJuOiHqsbYswEwYDVR0lBAwwCgYIKwYBBQUHAwIwCwYDVR0PBAQDAgeA
MA0GCSqGSIb3DQEBCwUAA4IBAQCf0/y2rhCUZlB+ha+F9Mlk6lnu23ckFkeE+B6/
8iMppOy9WDAWLusp9U0+vg8D1Z+oMRlaHEcSJdmzgecj3X51SQcz57qt7cTxML3n
ZXD80X1SX4snFpkqFhLqrYwVwZXGAmKZN6FzQHInhT2QwxtcT6h5Y4Yka4ZzyfOV
ief8/gcSg1gqgyX5A3engjHAWPAZra5AThNuBGWzhmFVDRHx3SHoSi0Fud0yyVC+
nyv0arkAi/VqI/hSWFA0eyVWOIeMSE/LMG03+3FpbC46fBTM9k3THF0NUk6LXyBM
6ckVZn4vjYO7kqORD3GTcFlRvYEpfpovSVN1RgFKPhximGko
-----END CERTIFICATE-----
