Certificate:
    Data:
        Version: 3 (0x2)
        Serial Number:
            a5:a5:4c:65:e6:7c:0a:9c:f1:fa:fe:69:cb:9e:d1:1e
    Signature Algorithm: sha256WithRSAEncryption
        Issuer: C=US, ST=California, L=San Francisco, O=Copyleft Certificate Co, OU=My Organizational Unit, CN=ChangeMe/emailAddress=me@example.net
        Validity
            Not Before: Jan 23 18:29:59 2021 GMT
            Not After : Jan 23 18:29:59 2022 GMT
        Subject: C=US, ST=OH, L=Cincinnati, O=University of Cincinnati, OU=Dept. Electrical Eng. and Computer Sci., CN=client115/emailAddress=franco@gauss.ececs.uc.edu
        Subject Public Key Info:
            Public Key Algorithm: rsaEncryption
                Public-Key: (2048 bit)
                Modulus:
                    00:98:2e:1c:d7:1c:37:39:c4:88:2e:bb:df:f5:e1:
                    5a:26:2d:be:3f:17:0e:3f:0a:74:67:4e:36:0e:26:
                    5d:59:26:cd:5e:dc:6b:2d:04:0e:4a:80:02:42:44:
                    c9:d3:fb:ff:c6:bf:c9:35:6b:c7:95:73:50:fa:cb:
                    c4:fc:33:ec:88:4e:4f:33:cd:75:fd:e2:02:76:2f:
                    f1:10:93:cf:bc:15:1d:98:3a:91:fe:e1:5c:fe:ef:
                    5f:35:46:68:4e:5a:7a:0d:08:0b:01:ff:c0:e1:4f:
                    8d:37:bf:7b:aa:1e:05:dc:b0:26:f6:3c:6d:51:57:
                    83:38:e3:64:08:2b:3b:9e:be:e0:ea:68:3b:42:b5:
                    b1:f0:9c:66:56:35:ee:8e:f0:89:f0:d1:be:40:b8:
                    b2:b6:2e:76:17:7e:3b:5d:05:58:6b:ae:a4:9c:95:
                    fb:1c:d5:e1:b4:a1:c3:2c:0f:3a:ae:cf:3a:dd:49:
                    76:9e:34:b8:4a:12:b3:67:3c:97:a9:0e:08:8f:f0:
                    00:1c:61:de:ba:82:17:72:5f:63:4e:1f:1b:28:59:
                    9a:07:d5:f5:fa:4f:54:6d:e3:13:01:c8:89:a1:22:
                    42:81:10:d4:70:73:e1:06:bb:d8:fe:e9:c5:a5:d4:
                    39:73:2c:9f:b4:a0:92:2a:35:45:8d:12:60:a8:5c:
                    09:85
                Exponent: 65537 (0x10001)
        X509v3 extensions:
            X509v3 Basic Constraints: 
                CA:FALSE
            X509v3 Subject Key Identifier: 
                6D:1E:38:1A:31:20:C3:FA:B4:29:C8:A4:14:29:A2:D5:D2:D1:32:33
            X509v3 Authority Key Identifier: 
                keyid:EF:DC:B6:3D:4B:FD:A7:87:05:C5:22:3D:8B:DC:BF:99:2A:EE:E4:DB
                DirName:/C=US/ST=California/L=San Francisco/O=Copyleft Certificate Co/OU=My Organizational Unit/CN=ChangeMe/emailAddress=me@example.net
                serial:87:1E:1D:DC:6B:8C:66:88

            X509v3 Extended Key Usage: 
                TLS Web Client Authentication
            X509v3 Key Usage: 
                Digital Signature
    Signature Algorithm: sha256WithRSAEncryption
         17:44:12:0a:a7:b2:07:6b:be:4e:93:37:73:2b:c9:5a:ab:d2:
         bb:18:5b:d6:6e:89:ba:2d:02:7b:13:d0:e4:71:d3:3f:da:e6:
         36:de:2b:d3:cc:5b:67:c6:4b:76:99:0f:03:2e:85:9f:9e:51:
         c1:1c:ca:70:e4:18:29:4a:9e:75:db:da:34:ca:5b:6f:03:76:
         5f:ec:b0:85:da:da:d5:3c:ba:e5:9b:12:b6:2b:70:c1:08:70:
         c6:85:d7:bc:ed:58:ae:58:19:ca:67:f1:c9:12:ee:ef:34:02:
         d3:c9:04:0c:6b:ea:d6:a5:80:80:00:30:a6:90:fe:e4:d6:05:
         4c:3c:1c:53:8a:7a:f3:1e:37:6f:1c:6f:7d:6c:b9:d2:60:56:
         bd:75:f0:f3:e6:39:8b:b7:d1:4f:fd:f2:d5:36:7f:e1:ac:d5:
         fd:59:40:e7:67:1c:c7:97:51:fc:fb:db:60:78:53:b9:db:21:
         2b:0a:9c:73:25:6c:99:13:38:fb:4b:7e:b5:d5:79:07:22:f8:
         b7:fc:09:22:2a:0f:25:0c:8c:8b:3c:93:02:18:72:99:62:07:
         44:82:6a:bd:ec:fc:77:4c:ae:1c:57:c3:2b:f3:0b:be:3d:30:
         2a:67:48:28:53:8a:9d:4b:8b:f8:4b:9d:19:93:b7:9c:9c:93:
         bc:e6:d8:37
-----BEGIN CERTIFICATE-----
MIIFNzCCBB+gAwIBAgIRAKWlTGXmfAqc8fr+acue0R4wDQYJKoZIhvcNAQELBQAw
ga8xCzAJBgNVBAYTAlVTMRMwEQYDVQQIDApDYWxpZm9ybmlhMRYwFAYDVQQHDA1T
YW4gRnJhbmNpc2NvMSAwHgYDVQQKDBdDb3B5bGVmdCBDZXJ0aWZpY2F0ZSBDbzEf
MB0GA1UECwwWTXkgT3JnYW5pemF0aW9uYWwgVW5pdDERMA8GA1UEAwwIQ2hhbmdl
TWUxHTAbBgkqhkiG9w0BCQEWDm1lQGV4YW1wbGUubmV0MB4XDTIxMDEyMzE4Mjk1
OVoXDTIyMDEyMzE4Mjk1OVowgcIxCzAJBgNVBAYTAlVTMQswCQYDVQQIDAJPSDET
MBEGA1UEBwwKQ2luY2lubmF0aTEhMB8GA1UECgwYVW5pdmVyc2l0eSBvZiBDaW5j
aW5uYXRpMTAwLgYDVQQLDCdEZXB0LiBFbGVjdHJpY2FsIEVuZy4gYW5kIENvbXB1
dGVyIFNjaS4xEjAQBgNVBAMMCWNsaWVudDExNTEoMCYGCSqGSIb3DQEJARYZZnJh
bmNvQGdhdXNzLmVjZWNzLnVjLmVkdTCCASIwDQYJKoZIhvcNAQEBBQADggEPADCC
AQoCggEBAJguHNccNznEiC673/XhWiYtvj8XDj8KdGdONg4mXVkmzV7cay0EDkqA
AkJEydP7/8a/yTVrx5VzUPrLxPwz7IhOTzPNdf3iAnYv8RCTz7wVHZg6kf7hXP7v
XzVGaE5aeg0ICwH/wOFPjTe/e6oeBdywJvY8bVFXgzjjZAgrO56+4OpoO0K1sfCc
ZlY17o7wifDRvkC4srYudhd+O10FWGuupJyV+xzV4bShwywPOq7POt1Jdp40uEoS
s2c8l6kOCI/wABxh3rqCF3JfY04fGyhZmgfV9fpPVG3jEwHIiaEiQoEQ1HBz4Qa7
2P7pxaXUOXMsn7Sgkio1RY0SYKhcCYUCAwEAAaOCATcwggEzMAkGA1UdEwQCMAAw
HQYDVR0OBBYEFG0eOBoxIMP6tCnIpBQpotXS0TIzMIHkBgNVHSMEgdwwgdmAFO/c
tj1L/aeHBcUiPYvcv5kq7uTboYG1pIGyMIGvMQswCQYDVQQGEwJVUzETMBEGA1UE
CAwKQ2FsaWZvcm5pYTEWMBQGA1UEBwwNU2FuIEZyYW5jaXNjbzEgMB4GA1UECgwX
Q29weWxlZnQgQ2VydGlmaWNhdGUgQ28xHzAdBgNVBAsMFk15IE9yZ2FuaXphdGlv
bmFsIFVuaXQxETAPBgNVBAMMCENoYW5nZU1lMR0wGwYJKoZIhvcNAQkBFg5tZUBl
eGFtcGxlLm5ldIIJAIceHdxrjGaIMBMGA1UdJQQMMAoGCCsGAQUFBwMCMAsGA1Ud
DwQEAwIHgDANBgkqhkiG9w0BAQsFAAOCAQEAF0QSCqeyB2u+TpM3cyvJWqvSuxhb
1m6Jui0CexPQ5HHTP9rmNt4r08xbZ8ZLdpkPAy6Fn55RwRzKcOQYKUqeddvaNMpb
bwN2X+ywhdra1Ty65ZsStitwwQhwxoXXvO1YrlgZymfxyRLu7zQC08kEDGvq1qWA
gAAwppD+5NYFTDwcU4p68x43bxxvfWy50mBWvXXw8+Y5i7fRT/3y1TZ/4azV/VlA
52ccx5dR/PvbYHhTudshKwqccyVsmRM4+0t+tdV5ByL4t/wJIioPJQyMizyTAhhy
mWIHRIJqvez8d0yuHFfDK/MLvj0wKmdIKFOKnUuL+EudGZO3nJyTvObYNw==
-----END CERTIFICATE-----
