Certificate:
    Data:
        Version: 3 (0x2)
        Serial Number:
            c7:e3:f4:d9:16:31:6e:29:a5:2d:71:20:c9:e6:b9:1a
    Signature Algorithm: sha256WithRSAEncryption
        Issuer: C=US, ST=California, L=San Francisco, O=Copyleft Certificate Co, OU=My Organizational Unit, CN=ChangeMe/emailAddress=me@example.net
        Validity
            Not Before: Nov 10 17:24:36 2023 GMT
            Not After : Nov  9 17:24:36 2024 GMT
        Subject: C=US, ST=OH, L=Cincinnati, O=University of Cincinnati, OU=Dept_Elec_Com_ Eng_Com_Sci., CN=client3/emailAddress=franco@gauss.ececs.uc.edu
        Subject Public Key Info:
            Public Key Algorithm: rsaEncryption
                Public-Key: (2048 bit)
                Modulus:
                    00:cb:63:81:36:41:4a:df:c8:e0:e1:c1:90:a5:f6:
                    f8:f9:5b:a6:79:7d:1e:66:41:0d:47:40:8d:b1:5f:
                    5a:a4:f3:38:70:b2:2e:25:66:3b:63:d5:8d:fe:25:
                    15:04:14:f4:e6:8e:9f:9f:a9:dd:46:94:4c:1a:18:
                    d3:4a:b6:a5:a6:59:82:81:3f:29:f0:57:b6:7d:38:
                    f8:24:f7:aa:9b:b8:0e:ac:14:cd:55:6d:18:c5:a3:
                    b7:5f:82:e4:72:25:39:fb:0e:28:dc:7f:a4:39:5b:
                    54:13:a9:a7:16:cc:6c:23:6e:f8:c5:a9:71:c1:4e:
                    e3:f9:29:15:b9:a9:ac:07:39:79:7e:cf:18:2c:6e:
                    24:8c:1b:44:68:7e:eb:fe:ec:95:0e:80:91:5b:67:
                    70:6c:0f:ce:a3:5f:7a:d4:fd:7a:b7:b5:f0:03:86:
                    7d:cb:42:99:a6:63:89:22:a8:32:f8:32:57:06:cc:
                    9c:64:f7:42:ea:fb:77:a9:cb:05:6f:cd:19:f9:58:
                    59:4d:a2:48:a1:b7:4c:95:08:98:ed:f1:28:21:fa:
                    02:92:4c:70:6f:ca:08:5a:11:84:f2:29:89:1c:7b:
                    1c:47:f4:8e:8a:75:9e:a6:98:5d:3e:c7:74:38:fe:
                    87:b2:5d:d5:b7:f2:91:7d:45:ac:eb:77:2a:61:5a:
                    3f:07
                Exponent: 65537 (0x10001)
        X509v3 extensions:
            X509v3 Basic Constraints: 
                CA:FALSE
            X509v3 Subject Key Identifier: 
                08:DF:99:8F:BB:C0:A9:1B:F8:3A:64:51:D0:4F:08:F8:7D:0D:1A:E7
            X509v3 Authority Key Identifier: 
                keyid:D9:D4:8C:20:BC:EB:38:17:D5:4B:52:F8:AA:C5:D2:44:DD:A2:6A:3B
                DirName:/C=US/ST=California/L=San Francisco/O=Copyleft Certificate Co/OU=My Organizational Unit/CN=ChangeMe/emailAddress=me@example.net
                serial:C2:48:34:65:BF:AB:EB:AA

            X509v3 Extended Key Usage: 
                TLS Web Client Authentication
            X509v3 Key Usage: 
                Digital Signature
    Signature Algorithm: sha256WithRSAEncryption
         93:3a:4f:f4:ce:fc:9a:5e:cd:3f:76:ac:c6:bc:49:0c:f5:5b:
         ee:fd:b5:90:69:8f:a6:2c:b2:5b:5e:df:3d:59:3b:76:f1:28:
         b9:a0:59:cc:fa:01:90:f7:7c:71:40:c2:ea:3e:7c:5c:83:73:
         39:a9:30:74:81:99:e6:18:eb:f9:c3:c7:18:f5:bb:df:e9:89:
         79:65:e2:ee:3f:ff:f3:54:be:ef:d0:c0:0e:c9:19:90:44:12:
         44:95:41:60:ab:f2:8d:2d:56:29:db:f8:53:7a:23:13:b1:77:
         7a:e7:d5:f3:31:67:d1:90:e7:ec:e2:4d:78:16:9e:c9:26:0a:
         22:31:1e:58:cf:20:d9:90:24:8e:2a:7c:26:15:c5:e7:ea:b3:
         ec:f5:b2:5f:2d:b9:54:d2:73:95:2d:62:97:5d:d8:12:45:b5:
         3f:13:f5:c2:9d:21:9b:59:24:06:10:ef:a0:af:a0:72:c0:f1:
         93:4b:82:bb:89:8a:9e:c4:fb:97:94:6d:8f:9a:8c:bf:45:36:
         9a:62:57:bc:26:27:ee:89:09:cf:e0:d4:9b:69:b4:20:c8:b1:
         61:33:41:e6:c2:5e:6d:38:34:98:71:30:98:a7:b2:87:b8:7a:
         d2:14:89:30:ab:dd:d3:45:ae:e9:f1:9d:88:88:cd:6b:f3:9a:
         43:ba:8c:2f
-----BEGIN CERTIFICATE-----
MIIFKTCCBBGgAwIBAgIRAMfj9NkWMW4ppS1xIMnmuRowDQYJKoZIhvcNAQELBQAw
ga8xCzAJBgNVBAYTAlVTMRMwEQYDVQQIDApDYWxpZm9ybmlhMRYwFAYDVQQHDA1T
YW4gRnJhbmNpc2NvMSAwHgYDVQQKDBdDb3B5bGVmdCBDZXJ0aWZpY2F0ZSBDbzEf
MB0GA1UECwwWTXkgT3JnYW5pemF0aW9uYWwgVW5pdDERMA8GA1UEAwwIQ2hhbmdl
TWUxHTAbBgkqhkiG9w0BCQEWDm1lQGV4YW1wbGUubmV0MB4XDTIzMTExMDE3MjQz
NloXDTI0MTEwOTE3MjQzNlowgbQxCzAJBgNVBAYTAlVTMQswCQYDVQQIDAJPSDET
MBEGA1UEBwwKQ2luY2lubmF0aTEhMB8GA1UECgwYVW5pdmVyc2l0eSBvZiBDaW5j
aW5uYXRpMSQwIgYDVQQLDBtEZXB0X0VsZWNfQ29tXyBFbmdfQ29tX1NjaS4xEDAO
BgNVBAMMB2NsaWVudDMxKDAmBgkqhkiG9w0BCQEWGWZyYW5jb0BnYXVzcy5lY2Vj
cy51Yy5lZHUwggEiMA0GCSqGSIb3DQEBAQUAA4IBDwAwggEKAoIBAQDLY4E2QUrf
yODhwZCl9vj5W6Z5fR5mQQ1HQI2xX1qk8zhwsi4lZjtj1Y3+JRUEFPTmjp+fqd1G
lEwaGNNKtqWmWYKBPynwV7Z9OPgk96qbuA6sFM1VbRjFo7dfguRyJTn7Dijcf6Q5
W1QTqacWzGwjbvjFqXHBTuP5KRW5qawHOXl+zxgsbiSMG0Rofuv+7JUOgJFbZ3Bs
D86jX3rU/Xq3tfADhn3LQpmmY4kiqDL4MlcGzJxk90Lq+3epywVvzRn5WFlNokih
t0yVCJjt8Sgh+gKSTHBvyghaEYTyKYkcexxH9I6KdZ6mmF0+x3Q4/oeyXdW38pF9
RazrdyphWj8HAgMBAAGjggE3MIIBMzAJBgNVHRMEAjAAMB0GA1UdDgQWBBQI35mP
u8CpG/g6ZFHQTwj4fQ0a5zCB5AYDVR0jBIHcMIHZgBTZ1IwgvOs4F9VLUviqxdJE
3aJqO6GBtaSBsjCBrzELMAkGA1UEBhMCVVMxEzARBgNVBAgMCkNhbGlmb3JuaWEx
FjAUBgNVBAcMDVNhbiBGcmFuY2lzY28xIDAeBgNVBAoMF0NvcHlsZWZ0IENlcnRp
ZmljYXRlIENvMR8wHQYDVQQLDBZNeSBPcmdhbml6YXRpb25hbCBVbml0MREwDwYD
VQQDDAhDaGFuZ2VNZTEdMBsGCSqGSIb3DQEJARYObWVAZXhhbXBsZS5uZXSCCQDC
SDRlv6vrqjATBgNVHSUEDDAKBggrBgEFBQcDAjALBgNVHQ8EBAMCB4AwDQYJKoZI
hvcNAQELBQADggEBAJM6T/TO/JpezT92rMa8SQz1W+79tZBpj6Ysslte3z1ZO3bx
KLmgWcz6AZD3fHFAwuo+fFyDczmpMHSBmeYY6/nDxxj1u9/piXll4u4///NUvu/Q
wA7JGZBEEkSVQWCr8o0tVinb+FN6IxOxd3rn1fMxZ9GQ5+ziTXgWnskmCiIxHljP
INmQJI4qfCYVxefqs+z1sl8tuVTSc5UtYpdd2BJFtT8T9cKdIZtZJAYQ76CvoHLA
8ZNLgruJip7E+5eUbY+ajL9FNppiV7wmJ+6JCc/g1JtptCDIsWEzQebCXm04NJhx
MJinsoe4etIUiTCr3dNFrunxnYiIzWvzmkO6jC8=
-----END CERTIFICATE-----
