Certificate:
    Data:
        Version: 3 (0x2)
        Serial Number:
            98:e2:0c:35:4e:6f:78:cd:fa:4b:54:93:b5:db:d6:49
    Signature Algorithm: sha256WithRSAEncryption
        Issuer: C=US, ST=California, L=San Francisco, O=Copyleft Certificate Co, OU=My Organizational Unit, CN=ChangeMe/emailAddress=me@example.net
        Validity
            Not Before: Nov 10 17:25:36 2023 GMT
            Not After : Nov  9 17:25:36 2024 GMT
        Subject: C=US, ST=OH, L=Cincinnati, O=University of Cincinnati, OU=Dept_Elec_Com_ Eng_Com_Sci., CN=client18/emailAddress=franco@gauss.ececs.uc.edu
        Subject Public Key Info:
            Public Key Algorithm: rsaEncryption
                Public-Key: (2048 bit)
                Modulus:
                    00:bb:a4:f0:b3:f6:31:bf:52:73:a3:ec:d6:24:fd:
                    24:15:4a:89:eb:ba:12:c6:3b:c4:97:49:78:87:80:
                    23:82:ae:53:1b:3a:75:3d:57:0d:44:92:ca:bb:75:
                    79:4e:50:65:ce:f9:8a:d4:a9:71:a1:16:68:24:09:
                    58:e6:09:d8:ec:fc:bf:14:00:ae:f7:48:07:6a:27:
                    2a:9b:0b:c1:69:c0:6b:bd:bf:2c:11:16:01:fb:03:
                    18:71:dc:36:84:21:e2:ba:f0:22:ce:1c:7d:54:a2:
                    12:cf:9b:99:fd:45:55:e9:47:cd:d6:c8:a8:3f:35:
                    57:b4:b1:38:70:aa:31:36:b6:7a:8a:65:a2:68:60:
                    48:56:c9:e3:c9:13:fc:90:54:e9:27:c2:76:72:fa:
                    21:1a:dd:67:a9:87:56:09:02:fd:fb:b9:4a:d6:cb:
                    5c:aa:37:19:65:32:07:7f:b4:e2:c5:8b:97:ad:58:
                    59:2c:f9:be:80:c4:ea:5d:91:f9:c3:72:bb:6e:12:
                    7b:32:31:b3:85:b7:4f:85:ba:47:74:ff:4e:54:d1:
                    aa:78:9a:db:7b:37:d9:51:7b:8c:21:3f:8b:b6:91:
                    f1:90:d6:aa:fd:fd:fa:4e:c6:fb:80:7e:31:6e:32:
                    20:d5:15:89:1f:47:35:d1:6c:a3:d0:27:74:25:aa:
                    cb:85
                Exponent: 65537 (0x10001)
        X509v3 extensions:
            X509v3 Basic Constraints: 
                CA:FALSE
            X509v3 Subject Key Identifier: 
                EB:0E:FD:33:66:5F:38:59:63:0C:D3:3D:13:B3:31:EA:46:E7:EB:EC
            X509v3 Authority Key Identifier: 
                keyid:D9:D4:8C:20:BC:EB:38:17:D5:4B:52:F8:AA:C5:D2:44:DD:A2:6A:3B
                DirName:/C=US/ST=California/L=San Francisco/O=Copyleft Certificate Co/OU=My Organizational Unit/CN=ChangeMe/emailAddress=me@example.net
                serial:C2:48:34:65:BF:AB:EB:AA

            X509v3 Extended Key Usage: 
                TLS Web Client Authentication
            X509v3 Key Usage: 
                Digital Signature
    Signature Algorithm: sha256WithRSAEncryption
         35:13:84:08:40:e4:b9:f4:9c:a5:a2:62:eb:58:af:40:46:2e:
         c9:4b:f3:62:56:55:d7:73:02:09:6e:c1:17:41:57:8f:53:19:
         59:f4:f1:b9:9e:06:69:0f:5f:a0:3f:c9:60:6a:ec:d3:08:aa:
         49:41:83:8e:7a:29:bf:eb:1f:ca:23:00:bd:d7:53:3b:b9:20:
         68:d1:16:ff:9c:51:ee:df:b8:45:cb:a6:e2:c9:b2:cf:33:94:
         9a:8d:93:05:1b:cd:71:9f:96:0f:43:49:53:e8:41:43:02:53:
         ba:5e:50:c2:34:13:96:b2:65:09:e3:37:66:fb:23:23:79:48:
         70:07:a6:48:79:38:8a:5b:19:91:f3:74:81:e1:0e:42:2a:72:
         ec:dd:7b:e0:38:45:d1:55:ff:3a:59:7f:83:90:c6:7e:5c:4c:
         d0:a3:a6:23:d8:8c:49:dd:e0:00:55:73:6e:55:c4:af:7d:6f:
         3a:0a:16:36:02:bd:85:f8:a8:4f:a8:e0:d2:7e:4c:6f:2a:80:
         c1:bf:4c:19:e5:18:73:94:25:c2:0d:cc:4a:75:a0:cb:55:d8:
         10:63:41:d6:ac:45:40:34:7d:51:ae:32:98:1c:6e:bd:88:a6:
         fb:c3:a4:6d:52:ec:b9:ff:66:4a:fd:9f:bb:b1:ad:a5:91:19:
         c7:df:9d:34
-----BEGIN CERTIFICATE-----
MIIFKjCCBBKgAwIBAgIRAJjiDDVOb3jN+ktUk7Xb1kkwDQYJKoZIhvcNAQELBQAw
ga8xCzAJBgNVBAYTAlVTMRMwEQYDVQQIDApDYWxpZm9ybmlhMRYwFAYDVQQHDA1T
YW4gRnJhbmNpc2NvMSAwHgYDVQQKDBdDb3B5bGVmdCBDZXJ0aWZpY2F0ZSBDbzEf
MB0GA1UECwwWTXkgT3JnYW5pemF0aW9uYWwgVW5pdDERMA8GA1UEAwwIQ2hhbmdl
TWUxHTAbBgkqhkiG9w0BCQEWDm1lQGV4YW1wbGUubmV0MB4XDTIzMTExMDE3MjUz
NloXDTI0MTEwOTE3MjUzNlowgbUxCzAJBgNVBAYTAlVTMQswCQYDVQQIDAJPSDET
MBEGA1UEBwwKQ2luY2lubmF0aTEhMB8GA1UECgwYVW5pdmVyc2l0eSBvZiBDaW5j
aW5uYXRpMSQwIgYDVQQLDBtEZXB0X0VsZWNfQ29tXyBFbmdfQ29tX1NjaS4xETAP
BgNVBAMMCGNsaWVudDE4MSgwJgYJKoZIhvcNAQkBFhlmcmFuY29AZ2F1c3MuZWNl
Y3MudWMuZWR1MIIBIjANBgkqhkiG9w0BAQEFAAOCAQ8AMIIBCgKCAQEAu6Tws/Yx
v1Jzo+zWJP0kFUqJ67oSxjvEl0l4h4Ajgq5TGzp1PVcNRJLKu3V5TlBlzvmK1Klx
oRZoJAlY5gnY7Py/FACu90gHaicqmwvBacBrvb8sERYB+wMYcdw2hCHiuvAizhx9
VKISz5uZ/UVV6UfN1sioPzVXtLE4cKoxNrZ6imWiaGBIVsnjyRP8kFTpJ8J2cvoh
Gt1nqYdWCQL9+7lK1stcqjcZZTIHf7TixYuXrVhZLPm+gMTqXZH5w3K7bhJ7MjGz
hbdPhbpHdP9OVNGqeJrbezfZUXuMIT+LtpHxkNaq/f36Tsb7gH4xbjIg1RWJH0c1
0Wyj0Cd0JarLhQIDAQABo4IBNzCCATMwCQYDVR0TBAIwADAdBgNVHQ4EFgQU6w79
M2ZfOFljDNM9E7Mx6kbn6+wwgeQGA1UdIwSB3DCB2YAU2dSMILzrOBfVS1L4qsXS
RN2iajuhgbWkgbIwga8xCzAJBgNVBAYTAlVTMRMwEQYDVQQIDApDYWxpZm9ybmlh
MRYwFAYDVQQHDA1TYW4gRnJhbmNpc2NvMSAwHgYDVQQKDBdDb3B5bGVmdCBDZXJ0
aWZpY2F0ZSBDbzEfMB0GA1UECwwWTXkgT3JnYW5pemF0aW9uYWwgVW5pdDERMA8G
A1UEAwwIQ2hhbmdlTWUxHTAbBgkqhkiG9w0BCQEWDm1lQGV4YW1wbGUubmV0ggkA
wkg0Zb+r66owEwYDVR0lBAwwCgYIKwYBBQUHAwIwCwYDVR0PBAQDAgeAMA0GCSqG
SIb3DQEBCwUAA4IBAQA1E4QIQOS59JylomLrWK9ARi7JS/NiVlXXcwIJbsEXQVeP
UxlZ9PG5ngZpD1+gP8lgauzTCKpJQYOOeim/6x/KIwC911M7uSBo0Rb/nFHu37hF
y6biybLPM5SajZMFG81xn5YPQ0lT6EFDAlO6XlDCNBOWsmUJ4zdm+yMjeUhwB6ZI
eTiKWxmR83SB4Q5CKnLs3XvgOEXRVf86WX+DkMZ+XEzQo6Yj2IxJ3eAAVXNuVcSv
fW86ChY2Ar2F+KhPqODSfkxvKoDBv0wZ5RhzlCXCDcxKdaDLVdgQY0HWrEVANH1R
rjKYHG69iKb7w6RtUuy5/2ZK/Z+7sa2lkRnH3500
-----END CERTIFICATE-----
