Certificate:
    Data:
        Version: 3 (0x2)
        Serial Number:
            a9:9f:93:c1:b2:60:8a:e3:0f:e2:6c:11:88:1f:5c:e9
    Signature Algorithm: sha256WithRSAEncryption
        Issuer: C=US, ST=California, L=San Francisco, O=Copyleft Certificate Co, OU=My Organizational Unit, CN=ChangeMe/emailAddress=me@example.net
        Validity
            Not Before: Nov 10 17:27:36 2023 GMT
            Not After : Nov  9 17:27:36 2024 GMT
        Subject: C=US, ST=OH, L=Cincinnati, O=University of Cincinnati, OU=Dept_Elec_Com_ Eng_Com_Sci., CN=client48/emailAddress=franco@gauss.ececs.uc.edu
        Subject Public Key Info:
            Public Key Algorithm: rsaEncryption
                Public-Key: (2048 bit)
                Modulus:
                    00:cb:b2:ac:f0:04:4c:8e:d0:07:1c:3b:27:55:b5:
                    a5:97:44:cc:fd:a3:31:1a:aa:bf:3c:64:f6:b2:3b:
                    5b:f0:17:6e:a4:54:5a:1e:23:ff:9d:57:75:ed:8b:
                    c0:a8:b6:d5:6d:90:92:9d:ea:c5:f9:f5:54:2e:0f:
                    95:6a:b1:8f:55:fc:91:a2:49:73:65:cf:38:f5:43:
                    61:d0:03:b0:15:d1:e8:3e:25:eb:4e:a2:16:1d:15:
                    3a:78:65:fc:08:20:71:ba:d7:4f:e2:f8:92:80:b8:
                    f5:eb:e3:f0:1a:da:3c:85:f1:d0:1c:6e:f8:35:15:
                    36:da:91:3e:2c:20:c9:bb:7a:ad:21:37:8f:0f:7f:
                    5c:5e:69:f2:b4:1a:7e:c3:ca:35:7d:12:90:83:65:
                    21:d3:c6:22:be:79:8c:21:df:39:f0:50:06:ca:42:
                    b9:f2:3f:e8:f7:f4:30:af:34:12:27:0e:ec:d6:5c:
                    2b:44:34:21:8a:b0:d3:ea:b7:c6:28:ad:2a:9a:de:
                    06:31:6f:89:23:7d:d8:29:9a:e0:6c:ac:3e:ca:2e:
                    a5:2f:d0:bf:03:6a:2b:61:b3:0e:c9:aa:7d:c5:36:
                    53:d8:c8:c7:8e:0e:02:62:c1:76:57:ae:8e:f2:f8:
                    5d:aa:95:0d:68:38:e1:04:45:7f:6c:a9:af:ca:af:
                    89:05
                Exponent: 65537 (0x10001)
        X509v3 extensions:
            X509v3 Basic Constraints: 
                CA:FALSE
            X509v3 Subject Key Identifier: 
                2F:3B:38:56:C5:91:75:65:CC:A9:3A:7F:87:60:EA:4F:D5:44:F9:52
            X509v3 Authority Key Identifier: 
                keyid:D9:D4:8C:20:BC:EB:38:17:D5:4B:52:F8:AA:C5:D2:44:DD:A2:6A:3B
                DirName:/C=US/ST=California/L=San Francisco/O=Copyleft Certificate Co/OU=My Organizational Unit/CN=ChangeMe/emailAddress=me@example.net
                serial:C2:48:34:65:BF:AB:EB:AA

            X509v3 Extended Key Usage: 
                TLS Web Client Authentication
            X509v3 Key Usage: 
                Digital Signature
    Signature Algorithm: sha256WithRSAEncryption
         ce:c4:6e:01:4d:8e:41:9d:49:55:12:f2:d3:38:e9:56:34:09:
         44:f2:b2:9f:ac:f0:02:83:fc:54:05:fe:84:96:7b:60:54:c5:
         3c:75:59:60:47:c0:53:53:5d:ab:2f:2c:a5:09:cb:a2:8d:41:
         e4:e2:10:f2:68:56:16:29:30:fd:d8:f4:d4:c4:51:56:01:09:
         8e:1e:b2:14:70:47:30:2e:55:a9:51:9f:8b:61:8d:dd:58:01:
         12:36:c0:1d:85:e7:3f:c9:c4:1b:53:08:ef:aa:17:38:f3:f2:
         aa:17:c4:27:f4:37:0d:7c:5b:4c:f6:8f:d0:73:b4:e9:aa:60:
         b9:3c:73:7d:2f:25:f3:5a:ef:0d:81:f2:e3:82:cc:97:2e:bb:
         37:b2:80:69:a0:7d:38:35:bd:d0:68:8c:5e:fc:75:58:14:51:
         c5:e4:84:ee:bc:05:70:e8:dc:ca:78:d6:5f:ba:25:30:43:e8:
         64:88:f9:76:dd:4f:a1:94:8d:43:79:07:82:2e:bd:25:27:8b:
         10:0d:79:ed:76:d4:19:52:14:07:7f:f6:4a:8f:d1:1f:12:5b:
         1b:9f:45:5e:56:fc:ae:86:ff:de:f2:17:91:9a:7b:5f:d2:26:
         bc:3b:4d:57:a6:13:cc:ba:56:21:e5:62:40:3b:8a:a8:95:93:
         9e:00:28:68
-----BEGIN CERTIFICATE-----
MIIFKjCCBBKgAwIBAgIRAKmfk8GyYIrjD+JsEYgfXOkwDQYJKoZIhvcNAQELBQAw
ga8xCzAJBgNVBAYTAlVTMRMwEQYDVQQIDApDYWxpZm9ybmlhMRYwFAYDVQQHDA1T
YW4gRnJhbmNpc2NvMSAwHgYDVQQKDBdDb3B5bGVmdCBDZXJ0aWZpY2F0ZSBDbzEf
MB0GA1UECwwWTXkgT3JnYW5pemF0aW9uYWwgVW5pdDERMA8GA1UEAwwIQ2hhbmdl
TWUxHTAbBgkqhkiG9w0BCQEWDm1lQGV4YW1wbGUubmV0MB4XDTIzMTExMDE3Mjcz
NloXDTI0MTEwOTE3MjczNlowgbUxCzAJBgNVBAYTAlVTMQswCQYDVQQIDAJPSDET
MBEGA1UEBwwKQ2luY2lubmF0aTEhMB8GA1UECgwYVW5pdmVyc2l0eSBvZiBDaW5j
aW5uYXRpMSQwIgYDVQQLDBtEZXB0X0VsZWNfQ29tXyBFbmdfQ29tX1NjaS4xETAP
BgNVBAMMCGNsaWVudDQ4MSgwJgYJKoZIhvcNAQkBFhlmcmFuY29AZ2F1c3MuZWNl
Y3MudWMuZWR1MIIBIjANBgkqhkiG9w0BAQEFAAOCAQ8AMIIBCgKCAQEAy7Ks8ARM
jtAHHDsnVbWll0TM/aMxGqq/PGT2sjtb8BdupFRaHiP/nVd17YvAqLbVbZCSnerF
+fVULg+VarGPVfyRoklzZc849UNh0AOwFdHoPiXrTqIWHRU6eGX8CCBxutdP4viS
gLj16+PwGto8hfHQHG74NRU22pE+LCDJu3qtITePD39cXmnytBp+w8o1fRKQg2Uh
08YivnmMId858FAGykK58j/o9/QwrzQSJw7s1lwrRDQhirDT6rfGKK0qmt4GMW+J
I33YKZrgbKw+yi6lL9C/A2orYbMOyap9xTZT2MjHjg4CYsF2V66O8vhdqpUNaDjh
BEV/bKmvyq+JBQIDAQABo4IBNzCCATMwCQYDVR0TBAIwADAdBgNVHQ4EFgQULzs4
VsWRdWXMqTp/h2DqT9VE+VIwgeQGA1UdIwSB3DCB2YAU2dSMILzrOBfVS1L4qsXS
RN2iajuhgbWkgbIwga8xCzAJBgNVBAYTAlVTMRMwEQYDVQQIDApDYWxpZm9ybmlh
MRYwFAYDVQQHDA1TYW4gRnJhbmNpc2NvMSAwHgYDVQQKDBdDb3B5bGVmdCBDZXJ0
aWZpY2F0ZSBDbzEfMB0GA1UECwwWTXkgT3JnYW5pemF0aW9uYWwgVW5pdDERMA8G
A1UEAwwIQ2hhbmdlTWUxHTAbBgkqhkiG9w0BCQEWDm1lQGV4YW1wbGUubmV0ggkA
wkg0Zb+r66owEwYDVR0lBAwwCgYIKwYBBQUHAwIwCwYDVR0PBAQDAgeAMA0GCSqG
SIb3DQEBCwUAA4IBAQDOxG4BTY5BnUlVEvLTOOlWNAlE8rKfrPACg/xUBf6Elntg
VMU8dVlgR8BTU12rLyylCcuijUHk4hDyaFYWKTD92PTUxFFWAQmOHrIUcEcwLlWp
UZ+LYY3dWAESNsAdhec/ycQbUwjvqhc48/KqF8Qn9DcNfFtM9o/Qc7TpqmC5PHN9
LyXzWu8NgfLjgsyXLrs3soBpoH04Nb3QaIxe/HVYFFHF5ITuvAVw6NzKeNZfuiUw
Q+hkiPl23U+hlI1DeQeCLr0lJ4sQDXntdtQZUhQHf/ZKj9EfElsbn0VeVvyuhv/e
8heRmntf0ia8O01XphPMulYh5WJAO4qolZOeACho
-----END CERTIFICATE-----
