Certificate:
    Data:
        Version: 3 (0x2)
        Serial Number:
            f5:08:76:cc:2f:e5:97:57:42:4b:0d:18:26:d2:af:10
    Signature Algorithm: sha256WithRSAEncryption
        Issuer: C=US, ST=California, L=San Francisco, O=Copyleft Certificate Co, OU=My Organizational Unit, CN=ChangeMe/emailAddress=me@example.net
        Validity
            Not Before: Nov 13 11:10:25 2023 GMT
            Not After : Nov 12 11:10:25 2024 GMT
        Subject: C=US, ST=OH, L=Cincinnati, O=University of Cincinnati, OU=Dept. Elec. Comp. Eng. Comp. Sci., CN=client5/emailAddress=franco@gauss.ececs.uc.edu
        Subject Public Key Info:
            Public Key Algorithm: rsaEncryption
                Public-Key: (2048 bit)
                Modulus:
                    00:b4:b5:64:d7:f3:5f:8e:08:a8:88:d1:6c:e0:42:
                    49:2b:d9:ab:31:6b:5c:f0:15:a2:13:10:c5:15:25:
                    99:57:a7:40:95:f5:48:8e:85:a4:97:c0:d5:db:3d:
                    c7:ab:7f:93:8f:8a:ab:d2:0b:5c:fb:27:bf:a0:95:
                    4a:f1:b9:ad:0b:21:d3:e7:a3:d7:ad:02:b3:5e:a4:
                    4f:8b:cd:5c:6e:4e:56:e7:c8:17:88:ae:1c:8b:7e:
                    dd:1a:d9:8d:4f:fa:ab:ed:3c:6e:06:48:06:34:68:
                    bb:21:d3:35:73:64:2e:aa:ed:4c:41:3a:d4:0c:3a:
                    33:c7:06:c0:7f:2e:ca:6c:96:1f:5d:36:94:22:9b:
                    66:50:4c:de:08:d3:7c:f3:e3:82:b8:9e:f1:f9:d0:
                    cd:4e:83:e6:ed:b0:9a:33:7c:d3:65:62:12:82:53:
                    ff:aa:60:5b:d2:43:12:0b:90:c4:18:eb:2d:b4:63:
                    58:e5:95:f0:e9:ef:89:9b:dd:12:43:e8:d4:7f:87:
                    7f:8b:55:97:16:8c:42:02:84:be:5e:be:72:cb:af:
                    6f:bd:e7:d0:83:d4:4b:7e:ed:09:29:78:13:9b:63:
                    5e:f3:9b:f6:07:97:a2:b6:5a:58:0f:1a:2f:8f:2c:
                    0c:15:23:97:2a:61:b4:15:c3:53:e9:b1:0b:73:80:
                    2a:a9
                Exponent: 65537 (0x10001)
        X509v3 extensions:
            X509v3 Basic Constraints: 
                CA:FALSE
            X509v3 Subject Key Identifier: 
                A1:48:A5:F1:15:04:FA:C6:C8:2B:C2:AF:80:38:DC:A7:88:38:AC:5B
            X509v3 Authority Key Identifier: 
                keyid:1A:DC:98:F2:69:C1:F7:C8:1D:21:43:B0:3C:79:50:4D:D8:2B:87:54
                DirName:/C=US/ST=California/L=San Francisco/O=Copyleft Certificate Co/OU=My Organizational Unit/CN=ChangeMe/emailAddress=me@example.net
                serial:8C:9B:8E:88:7A:AC:6D:8B

            X509v3 Extended Key Usage: 
                TLS Web Client Authentication
            X509v3 Key Usage: 
                Digital Signature
    Signature Algorithm: sha256WithRSAEncryption
         4d:21:f3:5d:b6:ac:4b:bf:47:c2:78:aa:77:76:1c:38:9b:b9:
         f2:53:0f:3e:07:1b:45:37:e3:38:31:80:fa:72:a5:35:7a:67:
         9e:44:e0:dc:4b:d8:e3:70:5e:fc:f5:af:1c:9d:2d:b0:47:d1:
         40:f6:83:ed:dc:75:9f:42:8a:59:85:70:b7:3a:f8:b0:bd:8a:
         28:b6:7d:72:98:5e:56:3f:02:42:90:db:05:24:c0:24:e8:2a:
         9a:c2:30:d2:57:65:bd:93:18:27:2e:10:41:f9:cd:bb:75:47:
         c8:4f:72:6b:34:21:1e:1f:6a:1d:fc:13:c5:8f:4e:fc:7c:5a:
         18:05:be:b7:2e:c3:05:94:c1:7b:5a:be:ee:d7:f7:af:70:2d:
         31:52:c9:c2:0c:a1:49:d0:6c:5c:e7:cb:36:7d:c7:f2:f3:03:
         00:e3:cf:e7:a2:73:8d:58:19:19:3c:a2:04:1c:c2:7e:e7:ec:
         41:ec:0a:a6:23:d7:c2:b1:6c:69:5a:35:e3:4c:60:07:7a:41:
         36:cf:ac:d3:27:80:cc:73:a7:fd:82:0f:9c:a2:1d:c4:78:d0:
         11:51:07:8d:69:a5:5e:d1:97:3c:2f:cb:8d:f0:85:2d:a8:38:
         84:54:19:c4:3e:8b:e6:98:33:b9:d7:af:62:68:40:71:2d:e3:
         46:de:0a:92
-----BEGIN CERTIFICATE-----
MIIFLzCCBBegAwIBAgIRAPUIdswv5ZdXQksNGCbSrxAwDQYJKoZIhvcNAQELBQAw
ga8xCzAJBgNVBAYTAlVTMRMwEQYDVQQIDApDYWxpZm9ybmlhMRYwFAYDVQQHDA1T
YW4gRnJhbmNpc2NvMSAwHgYDVQQKDBdDb3B5bGVmdCBDZXJ0aWZpY2F0ZSBDbzEf
MB0GA1UECwwWTXkgT3JnYW5pemF0aW9uYWwgVW5pdDERMA8GA1UEAwwIQ2hhbmdl
TWUxHTAbBgkqhkiG9w0BCQEWDm1lQGV4YW1wbGUubmV0MB4XDTIzMTExMzExMTAy
NVoXDTI0MTExMjExMTAyNVowgboxCzAJBgNVBAYTAlVTMQswCQYDVQQIDAJPSDET
MBEGA1UEBwwKQ2luY2lubmF0aTEhMB8GA1UECgwYVW5pdmVyc2l0eSBvZiBDaW5j
aW5uYXRpMSowKAYDVQQLDCFEZXB0LiBFbGVjLiBDb21wLiBFbmcuIENvbXAuIFNj
aS4xEDAOBgNVBAMMB2NsaWVudDUxKDAmBgkqhkiG9w0BCQEWGWZyYW5jb0BnYXVz
cy5lY2Vjcy51Yy5lZHUwggEiMA0GCSqGSIb3DQEBAQUAA4IBDwAwggEKAoIBAQC0
tWTX81+OCKiI0WzgQkkr2asxa1zwFaITEMUVJZlXp0CV9UiOhaSXwNXbPcerf5OP
iqvSC1z7J7+glUrxua0LIdPno9etArNepE+LzVxuTlbnyBeIrhyLft0a2Y1P+qvt
PG4GSAY0aLsh0zVzZC6q7UxBOtQMOjPHBsB/Lspslh9dNpQim2ZQTN4I03zz44K4
nvH50M1Og+btsJozfNNlYhKCU/+qYFvSQxILkMQY6y20Y1jllfDp74mb3RJD6NR/
h3+LVZcWjEIChL5evnLLr2+959CD1Et+7QkpeBObY17zm/YHl6K2WlgPGi+PLAwV
I5cqYbQVw1PpsQtzgCqpAgMBAAGjggE3MIIBMzAJBgNVHRMEAjAAMB0GA1UdDgQW
BBShSKXxFQT6xsgrwq+AONyniDisWzCB5AYDVR0jBIHcMIHZgBQa3JjyacH3yB0h
Q7A8eVBN2CuHVKGBtaSBsjCBrzELMAkGA1UEBhMCVVMxEzARBgNVBAgMCkNhbGlm
b3JuaWExFjAUBgNVBAcMDVNhbiBGcmFuY2lzY28xIDAeBgNVBAoMF0NvcHlsZWZ0
IENlcnRpZmljYXRlIENvMR8wHQYDVQQLDBZNeSBPcmdhbml6YXRpb25hbCBVbml0
MREwDwYDVQQDDAhDaGFuZ2VNZTEdMBsGCSqGSIb3DQEJARYObWVAZXhhbXBsZS5u
ZXSCCQCMm46IeqxtizATBgNVHSUEDDAKBggrBgEFBQcDAjALBgNVHQ8EBAMCB4Aw
DQYJKoZIhvcNAQELBQADggEBAE0h8122rEu/R8J4qnd2HDibufJTDz4HG0U34zgx
gPpypTV6Z55E4NxL2ONwXvz1rxydLbBH0UD2g+3cdZ9CilmFcLc6+LC9iii2fXKY
XlY/AkKQ2wUkwCToKprCMNJXZb2TGCcuEEH5zbt1R8hPcms0IR4fah38E8WPTvx8
WhgFvrcuwwWUwXtavu7X969wLTFSycIMoUnQbFznyzZ9x/LzAwDjz+eic41YGRk8
ogQcwn7n7EHsCqYj18KxbGlaNeNMYAd6QTbPrNMngMxzp/2CD5yiHcR40BFRB41p
pV7Rlzwvy43whS2oOIRUGcQ+i+aYM7nXr2JoQHEt40beCpI=
-----END CERTIFICATE-----
