Certificate:
    Data:
        Version: 3 (0x2)
        Serial Number:
            a5:5d:e1:28:74:fd:a2:f9:4f:3e:84:30:e0:33:4a:9d
    Signature Algorithm: sha256WithRSAEncryption
        Issuer: C=US, ST=California, L=San Francisco, O=Copyleft Certificate Co, OU=My Organizational Unit, CN=ChangeMe/emailAddress=me@example.net
        Validity
            Not Before: Nov 10 17:24:24 2023 GMT
            Not After : Nov  9 17:24:24 2024 GMT
        Subject: C=US, ST=OH, L=Cincinnati, O=University of Cincinnati, OU=Dept_Elec_Com_ Eng_Com_Sci., CN=client0/emailAddress=franco@gauss.ececs.uc.edu
        Subject Public Key Info:
            Public Key Algorithm: rsaEncryption
                Public-Key: (2048 bit)
                Modulus:
                    00:e6:bf:8d:2d:ff:54:b6:0e:18:b7:8c:ca:b3:b6:
                    2c:d6:59:1d:7a:7f:85:c7:84:45:d7:d3:66:d5:29:
                    14:dc:9c:e2:87:b0:6e:10:a9:c8:20:65:d6:9b:27:
                    28:63:86:57:7b:35:94:a7:ed:84:8c:61:1d:c5:f2:
                    c8:45:00:9d:0c:3f:23:9a:6c:87:1c:fb:03:b7:71:
                    7e:a5:2b:49:62:9a:ea:9f:db:9f:a4:c6:a6:b8:97:
                    63:7c:a4:27:d2:17:4a:74:b5:be:88:44:c7:75:7c:
                    a0:11:bc:04:fb:70:fb:e9:78:1c:8f:12:ec:c4:04:
                    14:45:2a:ab:90:c4:6d:47:a1:93:36:f7:a3:36:39:
                    6b:45:dc:a1:89:17:22:bc:82:80:68:7e:6e:c7:10:
                    2a:e5:cb:ea:d2:16:0b:04:95:25:4b:59:e5:8e:60:
                    fc:3e:24:1c:66:a4:74:f7:34:8a:11:a5:0c:9f:64:
                    8b:68:40:03:40:91:3c:52:cd:75:31:b4:09:84:48:
                    6e:15:29:0b:a1:6a:8e:94:6b:60:c2:6a:11:81:ce:
                    f2:d1:0d:45:ca:73:f8:55:9b:88:ea:1c:b9:16:37:
                    8d:8f:f1:a3:09:3f:af:c0:39:35:d5:d6:90:9e:8a:
                    be:77:7a:fe:a2:25:a4:d2:1a:a9:f1:e5:fe:9f:b7:
                    bc:df
                Exponent: 65537 (0x10001)
        X509v3 extensions:
            X509v3 Basic Constraints: 
                CA:FALSE
            X509v3 Subject Key Identifier: 
                C6:D1:6B:05:ED:08:A4:E3:96:F8:D8:95:2A:C0:DE:5B:0F:8D:B1:7C
            X509v3 Authority Key Identifier: 
                keyid:D9:D4:8C:20:BC:EB:38:17:D5:4B:52:F8:AA:C5:D2:44:DD:A2:6A:3B
                DirName:/C=US/ST=California/L=San Francisco/O=Copyleft Certificate Co/OU=My Organizational Unit/CN=ChangeMe/emailAddress=me@example.net
                serial:C2:48:34:65:BF:AB:EB:AA

            X509v3 Extended Key Usage: 
                TLS Web Client Authentication
            X509v3 Key Usage: 
                Digital Signature
    Signature Algorithm: sha256WithRSAEncryption
         33:e9:4e:1d:70:c2:61:b3:e3:09:ad:22:e1:8b:3e:7c:1f:2d:
         36:fd:7b:7f:5e:fb:62:c8:81:99:65:5a:42:0f:85:07:1f:96:
         98:5c:c6:9a:f8:a0:04:7b:c6:1e:51:70:2c:4c:22:e4:18:e9:
         ba:a6:31:46:89:20:6c:94:9f:be:fb:98:aa:a2:40:31:7b:9d:
         88:89:84:22:a9:54:6d:7d:bc:be:ec:c0:e2:c1:ae:15:cc:e0:
         39:8c:69:24:07:bf:b0:43:be:82:c9:f6:4c:d8:a7:ae:b0:b3:
         2e:7f:60:a3:5c:a5:b2:01:c3:7c:76:2b:bf:f1:0b:72:8c:04:
         d0:0e:66:a2:b4:1b:18:9b:de:b9:0e:4c:de:c9:21:5a:eb:4a:
         0a:15:34:0c:1a:c0:9c:b0:de:41:38:15:e9:64:cb:91:1e:e6:
         18:15:1e:ac:6c:8e:ac:77:0f:db:eb:6d:5b:50:82:2f:87:2e:
         97:d6:ab:d3:08:23:f9:ca:1b:2b:10:f6:ac:19:e8:78:44:e2:
         c8:9e:ef:05:40:af:57:e6:e5:a3:79:1a:99:16:31:62:07:6e:
         dd:3a:d8:ed:4b:12:76:eb:c8:e4:c5:23:4a:93:04:a6:0b:29:
         37:b4:5c:2c:c6:35:3b:ef:00:f4:28:9e:45:80:c4:02:ca:37:
         30:25:55:5b
-----BEGIN CERTIFICATE-----
MIIFKTCCBBGgAwIBAgIRAKVd4Sh0/aL5Tz6EMOAzSp0wDQYJKoZIhvcNAQELBQAw
ga8xCzAJBgNVBAYTAlVTMRMwEQYDVQQIDApDYWxpZm9ybmlhMRYwFAYDVQQHDA1T
YW4gRnJhbmNpc2NvMSAwHgYDVQQKDBdDb3B5bGVmdCBDZXJ0aWZpY2F0ZSBDbzEf
MB0GA1UECwwWTXkgT3JnYW5pemF0aW9uYWwgVW5pdDERMA8GA1UEAwwIQ2hhbmdl
TWUxHTAbBgkqhkiG9w0BCQEWDm1lQGV4YW1wbGUubmV0MB4XDTIzMTExMDE3MjQy
NFoXDTI0MTEwOTE3MjQyNFowgbQxCzAJBgNVBAYTAlVTMQswCQYDVQQIDAJPSDET
MBEGA1UEBwwKQ2luY2lubmF0aTEhMB8GA1UECgwYVW5pdmVyc2l0eSBvZiBDaW5j
aW5uYXRpMSQwIgYDVQQLDBtEZXB0X0VsZWNfQ29tXyBFbmdfQ29tX1NjaS4xEDAO
BgNVBAMMB2NsaWVudDAxKDAmBgkqhkiG9w0BCQEWGWZyYW5jb0BnYXVzcy5lY2Vj
cy51Yy5lZHUwggEiMA0GCSqGSIb3DQEBAQUAA4IBDwAwggEKAoIBAQDmv40t/1S2
Dhi3jMqztizWWR16f4XHhEXX02bVKRTcnOKHsG4QqcggZdabJyhjhld7NZSn7YSM
YR3F8shFAJ0MPyOabIcc+wO3cX6lK0limuqf25+kxqa4l2N8pCfSF0p0tb6IRMd1
fKARvAT7cPvpeByPEuzEBBRFKquQxG1HoZM296M2OWtF3KGJFyK8goBofm7HECrl
y+rSFgsElSVLWeWOYPw+JBxmpHT3NIoRpQyfZItoQANAkTxSzXUxtAmESG4VKQuh
ao6Ua2DCahGBzvLRDUXKc/hVm4jqHLkWN42P8aMJP6/AOTXV1pCeir53ev6iJaTS
Gqnx5f6ft7zfAgMBAAGjggE3MIIBMzAJBgNVHRMEAjAAMB0GA1UdDgQWBBTG0WsF
7Qik45b42JUqwN5bD42xfDCB5AYDVR0jBIHcMIHZgBTZ1IwgvOs4F9VLUviqxdJE
3aJqO6GBtaSBsjCBrzELMAkGA1UEBhMCVVMxEzARBgNVBAgMCkNhbGlmb3JuaWEx
FjAUBgNVBAcMDVNhbiBGcmFuY2lzY28xIDAeBgNVBAoMF0NvcHlsZWZ0IENlcnRp
ZmljYXRlIENvMR8wHQYDVQQLDBZNeSBPcmdhbml6YXRpb25hbCBVbml0MREwDwYD
VQQDDAhDaGFuZ2VNZTEdMBsGCSqGSIb3DQEJARYObWVAZXhhbXBsZS5uZXSCCQDC
SDRlv6vrqjATBgNVHSUEDDAKBggrBgEFBQcDAjALBgNVHQ8EBAMCB4AwDQYJKoZI
hvcNAQELBQADggEBADPpTh1wwmGz4wmtIuGLPnwfLTb9e39e+2LIgZllWkIPhQcf
lphcxpr4oAR7xh5RcCxMIuQY6bqmMUaJIGyUn777mKqiQDF7nYiJhCKpVG19vL7s
wOLBrhXM4DmMaSQHv7BDvoLJ9kzYp66wsy5/YKNcpbIBw3x2K7/xC3KMBNAOZqK0
Gxib3rkOTN7JIVrrSgoVNAwawJyw3kE4Felky5Ee5hgVHqxsjqx3D9vrbVtQgi+H
LpfWq9MII/nKGysQ9qwZ6HhE4sie7wVAr1fm5aN5GpkWMWIHbt062O1LEnbryOTF
I0qTBKYLKTe0XCzGNTvvAPQonkWAxALKNzAlVVs=
-----END CERTIFICATE-----
