Certificate:
    Data:
        Version: 3 (0x2)
        Serial Number:
            c4:01:34:0d:cd:d3:da:b9:50:d1:d4:70:34:da:61:15
    Signature Algorithm: sha256WithRSAEncryption
        Issuer: C=US, ST=California, L=San Francisco, O=Copyleft Certificate Co, OU=My Organizational Unit, CN=ChangeMe/emailAddress=me@example.net
        Validity
            Not Before: Nov 13 11:12:37 2023 GMT
            Not After : Nov 12 11:12:37 2024 GMT
        Subject: C=US, ST=OH, L=Cincinnati, O=University of Cincinnati, OU=Dept. Elec. Comp. Eng. Comp. Sci., CN=client38/emailAddress=franco@gauss.ececs.uc.edu
        Subject Public Key Info:
            Public Key Algorithm: rsaEncryption
                Public-Key: (2048 bit)
                Modulus:
                    00:e6:f2:b5:bb:4c:3e:df:ab:d7:aa:37:5e:67:4e:
                    94:9e:69:9b:dd:d4:3a:b3:51:8c:37:89:60:8b:c6:
                    f1:06:ec:0b:1b:7b:e3:54:17:c0:19:34:ed:b8:c5:
                    0f:07:0a:56:66:80:a6:80:25:e5:98:84:3c:23:80:
                    61:7c:99:42:04:88:61:e7:8a:8a:b6:f1:a6:5b:4c:
                    fc:cf:d5:29:c8:0b:90:93:97:9b:04:92:c0:01:93:
                    3f:6b:ac:01:28:77:4e:9a:42:87:1c:bf:72:16:e8:
                    82:a6:d4:55:4e:46:43:72:a9:aa:8d:e5:bd:56:bb:
                    d7:58:93:e4:fb:07:cb:cd:67:4f:91:83:c0:b9:72:
                    8f:aa:f9:72:16:e5:ea:07:37:86:fc:27:6d:bf:0d:
                    d0:8f:b4:ac:60:10:1d:6f:46:cc:90:d0:84:c9:0f:
                    4d:dc:49:41:4d:82:dc:07:d0:1a:67:ef:a9:65:ff:
                    53:e2:ce:17:49:44:1b:bf:c7:ea:2f:7b:62:84:3d:
                    3b:14:6e:39:da:37:51:81:6e:d5:08:24:0e:da:d8:
                    cf:aa:6d:3f:8c:b7:2a:35:ae:c9:96:12:20:59:9c:
                    8f:45:7b:70:9f:e4:d7:f5:29:a8:3f:6b:13:4a:37:
                    f3:47:25:e6:cb:76:9d:f5:12:49:16:8e:0d:83:3c:
                    f2:21
                Exponent: 65537 (0x10001)
        X509v3 extensions:
            X509v3 Basic Constraints: 
                CA:FALSE
            X509v3 Subject Key Identifier: 
                78:1B:D6:DB:0B:B3:A0:77:FF:57:EF:FE:C6:A0:2C:8D:FA:FB:98:E4
            X509v3 Authority Key Identifier: 
                keyid:1A:DC:98:F2:69:C1:F7:C8:1D:21:43:B0:3C:79:50:4D:D8:2B:87:54
                DirName:/C=US/ST=California/L=San Francisco/O=Copyleft Certificate Co/OU=My Organizational Unit/CN=ChangeMe/emailAddress=me@example.net
                serial:8C:9B:8E:88:7A:AC:6D:8B

            X509v3 Extended Key Usage: 
                TLS Web Client Authentication
            X509v3 Key Usage: 
                Digital Signature
    Signature Algorithm: sha256WithRSAEncryption
         0e:e3:7b:41:50:2a:e9:18:79:fd:e6:58:6c:12:84:1c:ea:ec:
         dd:2c:74:c1:61:ad:b6:38:55:fe:97:0e:db:06:c0:27:e8:54:
         a0:1f:b7:af:35:ba:9b:26:d9:08:e0:88:bb:46:f0:03:72:f2:
         0a:92:f9:02:0a:12:a1:75:0a:f3:2c:ea:ee:df:1b:3e:04:26:
         c5:cc:4b:1e:d6:75:3a:0b:55:70:9e:46:07:5d:a3:58:6f:dd:
         81:95:0c:5c:09:6d:f7:b3:03:af:2d:35:45:93:9e:c3:ef:68:
         ca:3d:81:97:56:87:c9:ff:73:61:57:c3:34:1f:49:54:e5:04:
         63:bf:55:b3:d4:11:1e:a3:88:2f:d0:9c:8b:f4:26:f4:a6:1a:
         ef:ac:8f:65:a0:09:3c:96:5c:f0:d2:5a:10:48:2f:c5:b4:81:
         c8:74:8f:4a:21:60:d7:e4:d3:ce:96:e6:56:75:e5:ac:fb:a5:
         20:c9:1b:d8:fa:d4:d2:09:17:93:cc:33:30:e3:54:32:ce:a1:
         c2:45:9d:8c:ec:32:22:d8:f1:c2:1c:5a:98:c6:52:69:20:55:
         b5:89:26:d5:f4:fd:5c:d1:df:1c:e9:a6:c9:7b:46:75:a1:43:
         26:77:39:9b:ac:c7:ef:31:2d:3e:d1:dc:35:fc:ce:be:e9:e0:
         30:32:ab:8b
-----BEGIN CERTIFICATE-----
MIIFMDCCBBigAwIBAgIRAMQBNA3N09q5UNHUcDTaYRUwDQYJKoZIhvcNAQELBQAw
ga8xCzAJBgNVBAYTAlVTMRMwEQYDVQQIDApDYWxpZm9ybmlhMRYwFAYDVQQHDA1T
YW4gRnJhbmNpc2NvMSAwHgYDVQQKDBdDb3B5bGVmdCBDZXJ0aWZpY2F0ZSBDbzEf
MB0GA1UECwwWTXkgT3JnYW5pemF0aW9uYWwgVW5pdDERMA8GA1UEAwwIQ2hhbmdl
TWUxHTAbBgkqhkiG9w0BCQEWDm1lQGV4YW1wbGUubmV0MB4XDTIzMTExMzExMTIz
N1oXDTI0MTExMjExMTIzN1owgbsxCzAJBgNVBAYTAlVTMQswCQYDVQQIDAJPSDET
MBEGA1UEBwwKQ2luY2lubmF0aTEhMB8GA1UECgwYVW5pdmVyc2l0eSBvZiBDaW5j
aW5uYXRpMSowKAYDVQQLDCFEZXB0LiBFbGVjLiBDb21wLiBFbmcuIENvbXAuIFNj
aS4xETAPBgNVBAMMCGNsaWVudDM4MSgwJgYJKoZIhvcNAQkBFhlmcmFuY29AZ2F1
c3MuZWNlY3MudWMuZWR1MIIBIjANBgkqhkiG9w0BAQEFAAOCAQ8AMIIBCgKCAQEA
5vK1u0w+36vXqjdeZ06Unmmb3dQ6s1GMN4lgi8bxBuwLG3vjVBfAGTTtuMUPBwpW
ZoCmgCXlmIQ8I4BhfJlCBIhh54qKtvGmW0z8z9UpyAuQk5ebBJLAAZM/a6wBKHdO
mkKHHL9yFuiCptRVTkZDcqmqjeW9VrvXWJPk+wfLzWdPkYPAuXKPqvlyFuXqBzeG
/Cdtvw3Qj7SsYBAdb0bMkNCEyQ9N3ElBTYLcB9AaZ++pZf9T4s4XSUQbv8fqL3ti
hD07FG452jdRgW7VCCQO2tjPqm0/jLcqNa7JlhIgWZyPRXtwn+TX9SmoP2sTSjfz
RyXmy3ad9RJJFo4NgzzyIQIDAQABo4IBNzCCATMwCQYDVR0TBAIwADAdBgNVHQ4E
FgQUeBvW2wuzoHf/V+/+xqAsjfr7mOQwgeQGA1UdIwSB3DCB2YAUGtyY8mnB98gd
IUOwPHlQTdgrh1ShgbWkgbIwga8xCzAJBgNVBAYTAlVTMRMwEQYDVQQIDApDYWxp
Zm9ybmlhMRYwFAYDVQQHDA1TYW4gRnJhbmNpc2NvMSAwHgYDVQQKDBdDb3B5bGVm
dCBDZXJ0aWZpY2F0ZSBDbzEfMB0GA1UECwwWTXkgT3JnYW5pemF0aW9uYWwgVW5p
dDERMA8GA1UEAwwIQ2hhbmdlTWUxHTAbBgkqhkiG9w0BCQEWDm1lQGV4YW1wbGUu
bmV0ggkAjJuOiHqsbYswEwYDVR0lBAwwCgYIKwYBBQUHAwIwCwYDVR0PBAQDAgeA
MA0GCSqGSIb3DQEBCwUAA4IBAQAO43tBUCrpGHn95lhsEoQc6uzdLHTBYa22OFX+
lw7bBsAn6FSgH7evNbqbJtkI4Ii7RvADcvIKkvkCChKhdQrzLOru3xs+BCbFzEse
1nU6C1VwnkYHXaNYb92BlQxcCW33swOvLTVFk57D72jKPYGXVofJ/3NhV8M0H0lU
5QRjv1Wz1BEeo4gv0JyL9Cb0phrvrI9loAk8llzw0loQSC/FtIHIdI9KIWDX5NPO
luZWdeWs+6UgyRvY+tTSCReTzDMw41QyzqHCRZ2M7DIi2PHCHFqYxlJpIFW1iSbV
9P1c0d8c6abJe0Z1oUMmdzmbrMfvMS0+0dw1/M6+6eAwMquL
-----END CERTIFICATE-----
