Certificate:
    Data:
        Version: 3 (0x2)
        Serial Number:
            86:51:c8:43:90:7f:90:8a:74:73:16:f1:66:6e:28:0f
    Signature Algorithm: sha256WithRSAEncryption
        Issuer: C=US, ST=California, L=San Francisco, O=Copyleft Certificate Co, OU=My Organizational Unit, CN=ChangeMe/emailAddress=me@example.net
        Validity
            Not Before: Nov 10 17:25:56 2023 GMT
            Not After : Nov  9 17:25:56 2024 GMT
        Subject: C=US, ST=OH, L=Cincinnati, O=University of Cincinnati, OU=Dept_Elec_Com_ Eng_Com_Sci., CN=client23/emailAddress=franco@gauss.ececs.uc.edu
        Subject Public Key Info:
            Public Key Algorithm: rsaEncryption
                Public-Key: (2048 bit)
                Modulus:
                    00:a6:73:f7:d9:c9:b9:a0:3b:d4:1d:35:80:f5:01:
                    b2:09:7b:be:56:f2:ee:29:19:2c:09:fd:29:2b:b4:
                    6e:19:a4:a7:1c:cc:a8:a4:fa:b9:a8:15:f9:7c:62:
                    57:c2:ef:ce:1a:97:9d:14:7b:ae:f4:ce:56:88:24:
                    22:09:58:dc:7e:3b:a8:56:6d:84:7d:70:b1:ee:8d:
                    35:a2:f4:e1:15:e0:5a:2f:0c:d0:4b:42:20:cc:89:
                    71:e5:26:a3:d7:16:f5:a4:70:4e:97:c1:02:fe:89:
                    10:8d:26:4a:03:2f:10:f8:78:52:83:c7:a9:f4:f2:
                    ab:76:71:0e:e0:ec:36:b7:6a:0a:22:51:e6:31:04:
                    ba:b9:6d:73:c2:ff:77:72:6b:2a:5a:0b:ee:61:f0:
                    e3:da:50:c7:87:a9:25:2f:74:6d:d4:2a:5c:e1:8e:
                    48:a6:61:de:89:e7:e6:e0:81:fa:e3:d5:d5:b8:e8:
                    ff:49:00:1c:b6:79:ca:d2:72:27:04:51:ec:7c:bd:
                    32:6b:a1:08:24:42:84:7f:16:cc:e2:5c:05:98:10:
                    49:d0:3a:66:e6:ff:da:c8:f1:d8:b1:b6:d3:f6:e7:
                    27:10:75:1a:77:55:c6:8c:6a:15:7a:b8:68:20:ac:
                    76:76:4b:09:81:bb:c9:5b:97:17:46:bb:d0:de:bd:
                    2f:2f
                Exponent: 65537 (0x10001)
        X509v3 extensions:
            X509v3 Basic Constraints: 
                CA:FALSE
            X509v3 Subject Key Identifier: 
                80:5B:29:BC:97:E4:91:09:FE:89:A8:DC:D2:75:7E:90:17:D3:00:C8
            X509v3 Authority Key Identifier: 
                keyid:D9:D4:8C:20:BC:EB:38:17:D5:4B:52:F8:AA:C5:D2:44:DD:A2:6A:3B
                DirName:/C=US/ST=California/L=San Francisco/O=Copyleft Certificate Co/OU=My Organizational Unit/CN=ChangeMe/emailAddress=me@example.net
                serial:C2:48:34:65:BF:AB:EB:AA

            X509v3 Extended Key Usage: 
                TLS Web Client Authentication
            X509v3 Key Usage: 
                Digital Signature
    Signature Algorithm: sha256WithRSAEncryption
         9b:0d:58:7f:ed:e4:27:f4:7e:aa:15:7a:f9:f4:5a:2b:2b:be:
         e7:35:b5:65:0b:eb:1f:94:4a:77:53:8d:8b:5c:6d:fa:48:ae:
         9f:ae:d9:ed:0b:5a:81:03:7c:a9:22:d5:2a:ac:7a:57:2d:bc:
         4b:e9:42:52:2e:e3:03:bc:b2:1f:d8:6c:ca:2b:95:e6:c6:d7:
         5c:d8:f7:bd:02:4a:23:87:df:9d:e0:19:e4:df:68:d7:3e:49:
         da:7a:d5:81:75:b8:7d:39:8e:be:6b:ca:12:5e:79:23:3d:76:
         0c:b3:dc:14:9d:5d:4a:77:74:eb:63:8d:7a:dd:c6:a6:73:21:
         37:de:e0:f7:57:63:5e:09:04:d2:47:9d:89:42:31:93:19:11:
         5b:d7:aa:f4:a5:f2:3a:6b:9f:ba:d6:48:4e:a5:5d:61:20:b2:
         d6:28:5c:1c:24:dd:03:98:1b:c0:b5:b8:2d:78:0b:06:8c:82:
         bc:90:c0:23:ec:be:63:ae:5e:3a:e5:96:a6:53:17:6c:66:5d:
         9b:a9:57:fc:a3:6b:d6:42:d5:77:bd:9d:8b:2e:12:92:d5:fa:
         72:3e:f5:92:d9:a2:af:f0:75:57:ba:07:fc:f0:9a:cc:ff:cf:
         7f:02:71:4b:92:ac:3a:24:5b:cc:5f:32:dd:26:fc:65:0c:56:
         a5:ae:80:d7
-----BEGIN CERTIFICATE-----
MIIFKjCCBBKgAwIBAgIRAIZRyEOQf5CKdHMW8WZuKA8wDQYJKoZIhvcNAQELBQAw
ga8xCzAJBgNVBAYTAlVTMRMwEQYDVQQIDApDYWxpZm9ybmlhMRYwFAYDVQQHDA1T
YW4gRnJhbmNpc2NvMSAwHgYDVQQKDBdDb3B5bGVmdCBDZXJ0aWZpY2F0ZSBDbzEf
MB0GA1UECwwWTXkgT3JnYW5pemF0aW9uYWwgVW5pdDERMA8GA1UEAwwIQ2hhbmdl
TWUxHTAbBgkqhkiG9w0BCQEWDm1lQGV4YW1wbGUubmV0MB4XDTIzMTExMDE3MjU1
NloXDTI0MTEwOTE3MjU1NlowgbUxCzAJBgNVBAYTAlVTMQswCQYDVQQIDAJPSDET
MBEGA1UEBwwKQ2luY2lubmF0aTEhMB8GA1UECgwYVW5pdmVyc2l0eSBvZiBDaW5j
aW5uYXRpMSQwIgYDVQQLDBtEZXB0X0VsZWNfQ29tXyBFbmdfQ29tX1NjaS4xETAP
BgNVBAMMCGNsaWVudDIzMSgwJgYJKoZIhvcNAQkBFhlmcmFuY29AZ2F1c3MuZWNl
Y3MudWMuZWR1MIIBIjANBgkqhkiG9w0BAQEFAAOCAQ8AMIIBCgKCAQEApnP32cm5
oDvUHTWA9QGyCXu+VvLuKRksCf0pK7RuGaSnHMyopPq5qBX5fGJXwu/OGpedFHuu
9M5WiCQiCVjcfjuoVm2EfXCx7o01ovThFeBaLwzQS0IgzIlx5Saj1xb1pHBOl8EC
/okQjSZKAy8Q+HhSg8ep9PKrdnEO4Ow2t2oKIlHmMQS6uW1zwv93cmsqWgvuYfDj
2lDHh6klL3Rt1Cpc4Y5IpmHeiefm4IH649XVuOj/SQActnnK0nInBFHsfL0ya6EI
JEKEfxbM4lwFmBBJ0Dpm5v/ayPHYsbbT9ucnEHUad1XGjGoVerhoIKx2dksJgbvJ
W5cXRrvQ3r0vLwIDAQABo4IBNzCCATMwCQYDVR0TBAIwADAdBgNVHQ4EFgQUgFsp
vJfkkQn+iajc0nV+kBfTAMgwgeQGA1UdIwSB3DCB2YAU2dSMILzrOBfVS1L4qsXS
RN2iajuhgbWkgbIwga8xCzAJBgNVBAYTAlVTMRMwEQYDVQQIDApDYWxpZm9ybmlh
MRYwFAYDVQQHDA1TYW4gRnJhbmNpc2NvMSAwHgYDVQQKDBdDb3B5bGVmdCBDZXJ0
aWZpY2F0ZSBDbzEfMB0GA1UECwwWTXkgT3JnYW5pemF0aW9uYWwgVW5pdDERMA8G
A1UEAwwIQ2hhbmdlTWUxHTAbBgkqhkiG9w0BCQEWDm1lQGV4YW1wbGUubmV0ggkA
wkg0Zb+r66owEwYDVR0lBAwwCgYIKwYBBQUHAwIwCwYDVR0PBAQDAgeAMA0GCSqG
SIb3DQEBCwUAA4IBAQCbDVh/7eQn9H6qFXr59ForK77nNbVlC+sflEp3U42LXG36
SK6frtntC1qBA3ypItUqrHpXLbxL6UJSLuMDvLIf2GzKK5Xmxtdc2Pe9Akojh9+d
4Bnk32jXPknaetWBdbh9OY6+a8oSXnkjPXYMs9wUnV1Kd3TrY4163camcyE33uD3
V2NeCQTSR52JQjGTGRFb16r0pfI6a5+61khOpV1hILLWKFwcJN0DmBvAtbgteAsG
jIK8kMAj7L5jrl465ZamUxdsZl2bqVf8o2vWQtV3vZ2LLhKS1fpyPvWS2aKv8HVX
ugf88JrM/89/AnFLkqw6JFvMXzLdJvxlDFalroDX
-----END CERTIFICATE-----
