Certificate:
    Data:
        Version: 3 (0x2)
        Serial Number:
            75:f6:b6:44:4a:e6:14:fc:5a:73:b6:f8:d4:c4:97:4d
    Signature Algorithm: sha256WithRSAEncryption
        Issuer: C=US, ST=California, L=San Francisco, O=Copyleft Certificate Co, OU=My Organizational Unit, CN=ChangeMe/emailAddress=me@example.net
        Validity
            Not Before: Jan 23 18:27:52 2021 GMT
            Not After : Jan 23 18:27:52 2022 GMT
        Subject: C=US, ST=OH, L=Cincinnati, O=University of Cincinnati, OU=Dept. Electrical Eng. and Computer Sci., CN=client25/emailAddress=franco@gauss.ececs.uc.edu
        Subject Public Key Info:
            Public Key Algorithm: rsaEncryption
                Public-Key: (2048 bit)
                Modulus:
                    00:d0:3e:45:9f:0d:71:bb:36:9b:b6:0d:3c:e7:29:
                    11:86:e5:7b:08:8b:4a:b6:5b:85:74:fa:69:f4:38:
                    7e:83:02:c2:34:2c:2c:03:c1:f5:ce:f3:37:4c:30:
                    1a:65:76:9b:ef:f8:24:9a:d8:6e:e0:1c:45:92:be:
                    a4:aa:55:0c:24:0a:65:e1:a6:97:2a:9a:3b:c5:d2:
                    65:b3:12:b9:9d:47:d1:52:8f:3e:f2:ce:b9:02:0d:
                    1f:cc:c1:44:d2:29:7c:a5:9b:60:9a:b0:4e:38:6b:
                    f3:47:2c:6f:f8:85:2e:3f:0e:f6:92:f0:0b:d3:49:
                    42:5c:fb:ae:54:a7:e0:9c:3e:6e:9e:22:25:19:d3:
                    68:71:a0:e0:f1:d6:3d:36:f8:52:9a:b8:9a:83:e3:
                    74:22:97:c5:ac:fe:43:fb:ad:8f:67:f1:8f:f8:10:
                    3d:ad:24:ae:f8:0d:2a:a1:a0:f3:64:40:15:fe:7b:
                    6f:8a:50:a9:bd:6c:c5:01:20:42:96:37:af:2a:01:
                    c6:95:48:a5:69:d5:42:25:65:0a:56:b5:15:8d:7d:
                    36:04:f3:27:d3:24:95:9b:00:00:5e:35:83:cb:b7:
                    ec:8d:07:71:a2:22:58:90:64:1d:65:fe:33:ed:44:
                    d7:3e:9f:9f:5b:fb:89:a0:b0:9c:78:a9:8b:83:a3:
                    50:df
                Exponent: 65537 (0x10001)
        X509v3 extensions:
            X509v3 Basic Constraints: 
                CA:FALSE
            X509v3 Subject Key Identifier: 
                0F:74:EF:D8:F7:C9:86:B3:13:EC:CA:4C:CB:5B:3F:CA:E6:75:7B:FE
            X509v3 Authority Key Identifier: 
                keyid:EF:DC:B6:3D:4B:FD:A7:87:05:C5:22:3D:8B:DC:BF:99:2A:EE:E4:DB
                DirName:/C=US/ST=California/L=San Francisco/O=Copyleft Certificate Co/OU=My Organizational Unit/CN=ChangeMe/emailAddress=me@example.net
                serial:87:1E:1D:DC:6B:8C:66:88

            X509v3 Extended Key Usage: 
                TLS Web Client Authentication
            X509v3 Key Usage: 
                Digital Signature
    Signature Algorithm: sha256WithRSAEncryption
         b8:48:9b:f2:cc:1b:44:43:90:16:8c:ce:04:a1:6b:0d:26:08:
         87:8e:d3:1b:93:8c:1d:9b:77:9b:fc:03:43:48:45:50:6b:64:
         09:b5:a0:ad:32:df:44:7d:71:fc:61:31:73:7d:b5:c7:bb:a3:
         ef:70:91:bd:2b:fa:f1:3d:4c:be:98:ce:43:63:02:46:1b:0f:
         d5:18:d4:45:7e:47:2e:71:cc:b9:bf:1b:4e:f6:9f:c7:e2:62:
         25:fb:b6:7d:47:59:87:dc:22:35:f1:b2:9c:ea:9c:00:42:49:
         99:6a:58:43:1c:6b:3b:01:45:fa:e9:f0:9c:b4:81:df:a8:35:
         b2:91:ce:b0:c9:6d:cf:ec:28:90:6f:be:5f:ce:74:89:5d:cc:
         1f:0e:ef:d6:b0:15:cd:d7:2b:39:32:9b:8e:bf:7f:1e:08:72:
         0b:a8:c1:b7:ad:46:5f:fc:cc:59:1d:24:ac:89:9b:47:8f:f8:
         e3:08:f8:08:2f:c1:50:63:ab:45:b7:02:e2:4a:ea:1d:f5:6f:
         7e:3b:da:93:b6:b3:c5:5e:84:06:f2:f2:52:a1:f6:2b:b7:11:
         b0:ec:88:d6:1e:9a:2d:89:8e:cd:f2:0f:83:de:f3:e5:c4:0d:
         bb:fd:77:1d:fe:4d:ab:6a:67:53:37:c6:e4:12:d8:45:4c:4f:
         c8:44:d3:fa
-----BEGIN CERTIFICATE-----
MIIFNTCCBB2gAwIBAgIQdfa2RErmFPxac7b41MSXTTANBgkqhkiG9w0BAQsFADCB
rzELMAkGA1UEBhMCVVMxEzARBgNVBAgMCkNhbGlmb3JuaWExFjAUBgNVBAcMDVNh
biBGcmFuY2lzY28xIDAeBgNVBAoMF0NvcHlsZWZ0IENlcnRpZmljYXRlIENvMR8w
HQYDVQQLDBZNeSBPcmdhbml6YXRpb25hbCBVbml0MREwDwYDVQQDDAhDaGFuZ2VN
ZTEdMBsGCSqGSIb3DQEJARYObWVAZXhhbXBsZS5uZXQwHhcNMjEwMTIzMTgyNzUy
WhcNMjIwMTIzMTgyNzUyWjCBwTELMAkGA1UEBhMCVVMxCzAJBgNVBAgMAk9IMRMw
EQYDVQQHDApDaW5jaW5uYXRpMSEwHwYDVQQKDBhVbml2ZXJzaXR5IG9mIENpbmNp
bm5hdGkxMDAuBgNVBAsMJ0RlcHQuIEVsZWN0cmljYWwgRW5nLiBhbmQgQ29tcHV0
ZXIgU2NpLjERMA8GA1UEAwwIY2xpZW50MjUxKDAmBgkqhkiG9w0BCQEWGWZyYW5j
b0BnYXVzcy5lY2Vjcy51Yy5lZHUwggEiMA0GCSqGSIb3DQEBAQUAA4IBDwAwggEK
AoIBAQDQPkWfDXG7Npu2DTznKRGG5XsIi0q2W4V0+mn0OH6DAsI0LCwDwfXO8zdM
MBpldpvv+CSa2G7gHEWSvqSqVQwkCmXhppcqmjvF0mWzErmdR9FSjz7yzrkCDR/M
wUTSKXylm2CasE44a/NHLG/4hS4/DvaS8AvTSUJc+65Up+CcPm6eIiUZ02hxoODx
1j02+FKauJqD43Qil8Ws/kP7rY9n8Y/4ED2tJK74DSqhoPNkQBX+e2+KUKm9bMUB
IEKWN68qAcaVSKVp1UIlZQpWtRWNfTYE8yfTJJWbAABeNYPLt+yNB3GiIliQZB1l
/jPtRNc+n59b+4mgsJx4qYuDo1DfAgMBAAGjggE3MIIBMzAJBgNVHRMEAjAAMB0G
A1UdDgQWBBQPdO/Y98mGsxPsykzLWz/K5nV7/jCB5AYDVR0jBIHcMIHZgBTv3LY9
S/2nhwXFIj2L3L+ZKu7k26GBtaSBsjCBrzELMAkGA1UEBhMCVVMxEzARBgNVBAgM
CkNhbGlmb3JuaWExFjAUBgNVBAcMDVNhbiBGcmFuY2lzY28xIDAeBgNVBAoMF0Nv
cHlsZWZ0IENlcnRpZmljYXRlIENvMR8wHQYDVQQLDBZNeSBPcmdhbml6YXRpb25h
bCBVbml0MREwDwYDVQQDDAhDaGFuZ2VNZTEdMBsGCSqGSIb3DQEJARYObWVAZXhh
bXBsZS5uZXSCCQCHHh3ca4xmiDATBgNVHSUEDDAKBggrBgEFBQcDAjALBgNVHQ8E
BAMCB4AwDQYJKoZIhvcNAQELBQADggEBALhIm/LMG0RDkBaMzgShaw0mCIeO0xuT
jB2bd5v8A0NIRVBrZAm1oK0y30R9cfxhMXN9tce7o+9wkb0r+vE9TL6YzkNjAkYb
D9UY1EV+Ry5xzLm/G072n8fiYiX7tn1HWYfcIjXxspzqnABCSZlqWEMcazsBRfrp
8Jy0gd+oNbKRzrDJbc/sKJBvvl/OdIldzB8O79awFc3XKzkym46/fx4Icguowbet
Rl/8zFkdJKyJm0eP+OMI+AgvwVBjq0W3AuJK6h31b3472pO2s8VehAby8lKh9iu3
EbDsiNYemi2Jjs3yD4Pe8+XEDbv9dx3+TatqZ1M3xuQS2EVMT8hE0/o=
-----END CERTIFICATE-----
