Certificate:
    Data:
        Version: 3 (0x2)
        Serial Number:
            0b:8a:43:01:9f:ba:76:5f:b7:a3:7d:43:a9:a2:63:2b
    Signature Algorithm: sha256WithRSAEncryption
        Issuer: C=US, ST=California, L=San Francisco, O=Copyleft Certificate Co, OU=My Organizational Unit, CN=ChangeMe/emailAddress=me@example.net
        Validity
            Not Before: Jan 23 18:29:22 2021 GMT
            Not After : Jan 23 18:29:22 2022 GMT
        Subject: C=US, ST=OH, L=Cincinnati, O=University of Cincinnati, OU=Dept. Electrical Eng. and Computer Sci., CN=client90/emailAddress=franco@gauss.ececs.uc.edu
        Subject Public Key Info:
            Public Key Algorithm: rsaEncryption
                Public-Key: (2048 bit)
                Modulus:
                    00:cf:2f:fa:1e:a1:54:bb:8d:c1:93:4d:9f:16:98:
                    f0:4d:55:c6:40:3b:23:be:95:7b:2f:67:c5:ce:17:
                    c4:dc:b0:7a:04:2d:3f:83:b4:c1:d8:a7:c3:1c:00:
                    60:cc:a2:b7:5c:63:28:77:50:2f:2d:52:e4:94:a6:
                    1f:a1:2d:41:a4:ed:e9:e2:3f:6f:4f:36:53:03:fe:
                    c1:4a:60:a6:43:2e:57:fc:25:b5:f9:9e:00:3e:04:
                    77:95:88:6b:90:ff:07:0e:74:12:da:2b:16:cc:99:
                    3c:4f:04:f2:cf:59:62:a9:90:7e:be:2f:41:84:e3:
                    f3:12:68:da:84:0a:fc:f4:a1:09:8a:d4:0c:4d:c9:
                    b7:4b:46:a0:94:31:ba:c4:3f:b6:91:ce:12:a6:db:
                    35:af:9a:9d:0c:79:3f:98:b0:a1:c0:15:27:cd:43:
                    ed:58:32:fb:5b:2d:f8:9a:5c:6a:26:1d:d5:3e:17:
                    56:65:fc:f6:44:f4:a8:0d:53:b9:a2:c5:51:35:9d:
                    bf:92:97:a3:f7:1d:13:52:5b:27:f6:4b:17:c6:8d:
                    93:fb:65:cf:7f:53:1b:8d:75:1f:96:34:fd:95:01:
                    6b:82:c1:d4:ca:c2:ee:55:44:d8:0d:d2:e0:e9:38:
                    78:a7:4f:70:e3:9f:12:75:e2:50:89:05:58:50:65:
                    e3:b5
                Exponent: 65537 (0x10001)
        X509v3 extensions:
            X509v3 Basic Constraints: 
                CA:FALSE
            X509v3 Subject Key Identifier: 
                2C:01:52:BA:47:D9:5B:65:0E:CF:77:D9:22:0E:10:AA:BF:87:41:AE
            X509v3 Authority Key Identifier: 
                keyid:EF:DC:B6:3D:4B:FD:A7:87:05:C5:22:3D:8B:DC:BF:99:2A:EE:E4:DB
                DirName:/C=US/ST=California/L=San Francisco/O=Copyleft Certificate Co/OU=My Organizational Unit/CN=ChangeMe/emailAddress=me@example.net
                serial:87:1E:1D:DC:6B:8C:66:88

            X509v3 Extended Key Usage: 
                TLS Web Client Authentication
            X509v3 Key Usage: 
                Digital Signature
    Signature Algorithm: sha256WithRSAEncryption
         24:41:2d:0c:16:e5:99:4b:dd:27:4e:51:0c:4b:b9:7b:be:83:
         c6:65:74:fe:e4:81:75:ae:33:be:f9:fb:2d:da:6c:08:57:8e:
         2a:ff:da:7e:b2:06:7e:fe:0c:4d:64:ed:3e:17:b3:05:2c:60:
         5d:9e:07:a0:29:bb:62:46:59:ff:9e:7a:8e:9b:b3:65:24:e5:
         7c:a2:72:25:58:84:f1:28:8f:66:25:42:a6:09:c0:2f:1e:9d:
         3e:1f:1c:7e:b9:4c:7f:2f:7b:e6:8b:cc:02:c3:dc:b3:cd:f6:
         0e:1e:49:7c:b5:6b:f6:a9:3b:8c:c4:79:38:bc:25:8c:56:ce:
         85:1a:78:26:a0:ad:fd:5d:be:07:49:41:10:19:9a:f9:60:44:
         97:06:f9:e1:2c:2c:a1:80:fe:8c:f2:8e:6e:42:2b:db:e9:07:
         b2:25:f0:f9:e8:f2:2b:e6:6e:47:2c:e5:13:1a:2d:c7:6d:47:
         6e:e7:0a:76:f7:ab:54:0a:5f:ed:74:c0:00:85:a7:76:6b:97:
         50:3c:72:3c:6d:78:54:70:52:cf:dc:44:ec:10:37:30:e4:1d:
         71:fe:1e:df:78:44:01:09:e2:05:4e:0c:42:97:39:f6:b1:5d:
         38:c3:de:50:22:df:33:56:37:b1:f6:31:4f:d9:82:d3:e5:2e:
         5d:f1:18:14
-----BEGIN CERTIFICATE-----
MIIFNTCCBB2gAwIBAgIQC4pDAZ+6dl+3o31DqaJjKzANBgkqhkiG9w0BAQsFADCB
rzELMAkGA1UEBhMCVVMxEzARBgNVBAgMCkNhbGlmb3JuaWExFjAUBgNVBAcMDVNh
biBGcmFuY2lzY28xIDAeBgNVBAoMF0NvcHlsZWZ0IENlcnRpZmljYXRlIENvMR8w
HQYDVQQLDBZNeSBPcmdhbml6YXRpb25hbCBVbml0MREwDwYDVQQDDAhDaGFuZ2VN
ZTEdMBsGCSqGSIb3DQEJARYObWVAZXhhbXBsZS5uZXQwHhcNMjEwMTIzMTgyOTIy
WhcNMjIwMTIzMTgyOTIyWjCBwTELMAkGA1UEBhMCVVMxCzAJBgNVBAgMAk9IMRMw
EQYDVQQHDApDaW5jaW5uYXRpMSEwHwYDVQQKDBhVbml2ZXJzaXR5IG9mIENpbmNp
bm5hdGkxMDAuBgNVBAsMJ0RlcHQuIEVsZWN0cmljYWwgRW5nLiBhbmQgQ29tcHV0
ZXIgU2NpLjERMA8GA1UEAwwIY2xpZW50OTAxKDAmBgkqhkiG9w0BCQEWGWZyYW5j
b0BnYXVzcy5lY2Vjcy51Yy5lZHUwggEiMA0GCSqGSIb3DQEBAQUAA4IBDwAwggEK
AoIBAQDPL/oeoVS7jcGTTZ8WmPBNVcZAOyO+lXsvZ8XOF8TcsHoELT+DtMHYp8Mc
AGDMordcYyh3UC8tUuSUph+hLUGk7eniP29PNlMD/sFKYKZDLlf8JbX5ngA+BHeV
iGuQ/wcOdBLaKxbMmTxPBPLPWWKpkH6+L0GE4/MSaNqECvz0oQmK1AxNybdLRqCU
MbrEP7aRzhKm2zWvmp0MeT+YsKHAFSfNQ+1YMvtbLfiaXGomHdU+F1Zl/PZE9KgN
U7mixVE1nb+Sl6P3HRNSWyf2SxfGjZP7Zc9/UxuNdR+WNP2VAWuCwdTKwu5VRNgN
0uDpOHinT3DjnxJ14lCJBVhQZeO1AgMBAAGjggE3MIIBMzAJBgNVHRMEAjAAMB0G
A1UdDgQWBBQsAVK6R9lbZQ7Pd9kiDhCqv4dBrjCB5AYDVR0jBIHcMIHZgBTv3LY9
S/2nhwXFIj2L3L+ZKu7k26GBtaSBsjCBrzELMAkGA1UEBhMCVVMxEzARBgNVBAgM
CkNhbGlmb3JuaWExFjAUBgNVBAcMDVNhbiBGcmFuY2lzY28xIDAeBgNVBAoMF0Nv
cHlsZWZ0IENlcnRpZmljYXRlIENvMR8wHQYDVQQLDBZNeSBPcmdhbml6YXRpb25h
bCBVbml0MREwDwYDVQQDDAhDaGFuZ2VNZTEdMBsGCSqGSIb3DQEJARYObWVAZXhh
bXBsZS5uZXSCCQCHHh3ca4xmiDATBgNVHSUEDDAKBggrBgEFBQcDAjALBgNVHQ8E
BAMCB4AwDQYJKoZIhvcNAQELBQADggEBACRBLQwW5ZlL3SdOUQxLuXu+g8ZldP7k
gXWuM775+y3abAhXjir/2n6yBn7+DE1k7T4XswUsYF2eB6Apu2JGWf+eeo6bs2Uk
5XyiciVYhPEoj2YlQqYJwC8enT4fHH65TH8ve+aLzALD3LPN9g4eSXy1a/apO4zE
eTi8JYxWzoUaeCagrf1dvgdJQRAZmvlgRJcG+eEsLKGA/ozyjm5CK9vpB7Il8Pno
8ivmbkcs5RMaLcdtR27nCnb3q1QKX+10wACFp3Zrl1A8cjxteFRwUs/cROwQNzDk
HXH+Ht94RAEJ4gVODEKXOfaxXTjD3lAi3zNWN7H2MU/ZgtPlLl3xGBQ=
-----END CERTIFICATE-----
