Certificate:
    Data:
        Version: 3 (0x2)
        Serial Number:
            a9:80:e9:82:94:ea:5a:d8:03:ae:f8:53:23:44:51:a5
    Signature Algorithm: sha256WithRSAEncryption
        Issuer: C=US, ST=California, L=San Francisco, O=Copyleft Certificate Co, OU=My Organizational Unit, CN=ChangeMe/emailAddress=me@example.net
        Validity
            Not Before: Nov 13 11:11:37 2023 GMT
            Not After : Nov 12 11:11:37 2024 GMT
        Subject: C=US, ST=OH, L=Cincinnati, O=University of Cincinnati, OU=Dept. Elec. Comp. Eng. Comp. Sci., CN=client23/emailAddress=franco@gauss.ececs.uc.edu
        Subject Public Key Info:
            Public Key Algorithm: rsaEncryption
                Public-Key: (2048 bit)
                Modulus:
                    00:c9:21:e1:32:98:b4:89:21:cf:4e:b7:58:d9:04:
                    02:20:c7:90:54:2e:ad:ea:64:45:fa:f4:65:13:28:
                    20:35:e4:8b:1d:86:01:a1:5d:8f:36:80:8f:87:53:
                    a1:a4:67:67:2b:f0:27:40:67:19:25:0e:9d:cd:46:
                    29:fe:29:39:43:11:5b:51:98:be:e4:15:27:e0:60:
                    1d:bb:b2:46:5c:0e:86:bd:41:a3:f6:19:02:fa:3b:
                    56:a6:b3:87:f3:51:36:d0:a4:4a:ca:2b:2d:aa:ba:
                    fa:af:ca:77:b6:d5:a4:b9:4b:94:22:23:4b:94:48:
                    cb:4c:9d:75:46:c7:a0:9d:d9:cd:54:f1:08:65:26:
                    c2:d1:66:fd:32:5d:d8:5b:3a:5b:4f:9c:ba:de:12:
                    55:7e:47:9b:09:52:b4:81:8c:b6:27:b1:5a:2f:7d:
                    7e:2e:8b:a3:31:70:3a:9d:dc:f2:70:00:c4:d1:0f:
                    62:ef:e8:4f:6f:5d:81:3c:73:d2:ec:52:9d:af:c5:
                    b0:95:c9:f4:84:6e:9d:f0:4d:47:58:a5:4c:76:39:
                    e5:11:c7:82:22:c7:09:d2:97:58:0a:0c:19:4b:8e:
                    f7:6a:5a:c7:72:69:d4:03:90:00:ac:0d:ca:ae:51:
                    65:15:7c:9b:fe:b5:c1:b6:7b:2a:26:8e:1a:e3:93:
                    e3:e7
                Exponent: 65537 (0x10001)
        X509v3 extensions:
            X509v3 Basic Constraints: 
                CA:FALSE
            X509v3 Subject Key Identifier: 
                0A:6D:11:F6:8B:85:57:65:F5:E5:5F:09:91:03:6E:C3:FC:EB:94:49
            X509v3 Authority Key Identifier: 
                keyid:1A:DC:98:F2:69:C1:F7:C8:1D:21:43:B0:3C:79:50:4D:D8:2B:87:54
                DirName:/C=US/ST=California/L=San Francisco/O=Copyleft Certificate Co/OU=My Organizational Unit/CN=ChangeMe/emailAddress=me@example.net
                serial:8C:9B:8E:88:7A:AC:6D:8B

            X509v3 Extended Key Usage: 
                TLS Web Client Authentication
            X509v3 Key Usage: 
                Digital Signature
    Signature Algorithm: sha256WithRSAEncryption
         37:82:0d:93:56:c1:ac:61:a1:b7:35:b4:76:ff:dc:92:da:71:
         46:8b:84:a4:d1:92:49:60:ae:6f:d5:79:2a:29:f0:a3:01:6a:
         94:53:78:07:be:da:b7:34:40:ff:d0:af:7c:1d:84:0e:ef:46:
         a3:41:d0:32:cf:5d:c6:2e:9f:4b:45:30:39:d7:32:e1:0b:dc:
         d8:d4:aa:f3:56:c7:dd:60:4b:7e:52:d0:2b:ea:bd:c3:ad:7c:
         9a:31:d9:e0:39:e5:81:ba:7e:a3:fd:a3:33:c8:cf:57:50:b0:
         67:d4:ef:0c:49:ae:21:77:e3:28:73:09:c5:a1:43:f4:d8:b4:
         52:47:c0:98:01:cf:32:12:e9:eb:b7:72:c3:c7:07:cb:bc:c2:
         0a:fe:9c:22:e5:e9:ba:09:c7:49:19:7e:d1:d5:fd:86:46:b7:
         d5:9a:6e:9f:df:63:15:0a:86:5b:b7:53:11:66:d5:3c:e2:d2:
         0e:f5:1a:7a:a0:49:7d:13:5a:c7:fd:9c:51:13:da:45:18:a5:
         97:18:b3:ed:ad:39:0c:13:6a:e4:71:e1:93:77:99:56:59:78:
         3a:ef:ba:d1:ff:57:4e:1e:6a:35:09:88:33:9b:90:76:1b:c9:
         d4:82:cf:e8:de:58:5d:0d:95:5c:2f:4b:c5:6e:48:9d:0e:f7:
         51:80:5d:5e
-----BEGIN CERTIFICATE-----
MIIFMDCCBBigAwIBAgIRAKmA6YKU6lrYA674UyNEUaUwDQYJKoZIhvcNAQELBQAw
ga8xCzAJBgNVBAYTAlVTMRMwEQYDVQQIDApDYWxpZm9ybmlhMRYwFAYDVQQHDA1T
YW4gRnJhbmNpc2NvMSAwHgYDVQQKDBdDb3B5bGVmdCBDZXJ0aWZpY2F0ZSBDbzEf
MB0GA1UECwwWTXkgT3JnYW5pemF0aW9uYWwgVW5pdDERMA8GA1UEAwwIQ2hhbmdl
TWUxHTAbBgkqhkiG9w0BCQEWDm1lQGV4YW1wbGUubmV0MB4XDTIzMTExMzExMTEz
N1oXDTI0MTExMjExMTEzN1owgbsxCzAJBgNVBAYTAlVTMQswCQYDVQQIDAJPSDET
MBEGA1UEBwwKQ2luY2lubmF0aTEhMB8GA1UECgwYVW5pdmVyc2l0eSBvZiBDaW5j
aW5uYXRpMSowKAYDVQQLDCFEZXB0LiBFbGVjLiBDb21wLiBFbmcuIENvbXAuIFNj
aS4xETAPBgNVBAMMCGNsaWVudDIzMSgwJgYJKoZIhvcNAQkBFhlmcmFuY29AZ2F1
c3MuZWNlY3MudWMuZWR1MIIBIjANBgkqhkiG9w0BAQEFAAOCAQ8AMIIBCgKCAQEA
ySHhMpi0iSHPTrdY2QQCIMeQVC6t6mRF+vRlEyggNeSLHYYBoV2PNoCPh1OhpGdn
K/AnQGcZJQ6dzUYp/ik5QxFbUZi+5BUn4GAdu7JGXA6GvUGj9hkC+jtWprOH81E2
0KRKyistqrr6r8p3ttWkuUuUIiNLlEjLTJ11RsegndnNVPEIZSbC0Wb9Ml3YWzpb
T5y63hJVfkebCVK0gYy2J7FaL31+LoujMXA6ndzycADE0Q9i7+hPb12BPHPS7FKd
r8Wwlcn0hG6d8E1HWKVMdjnlEceCIscJ0pdYCgwZS473alrHcmnUA5AArA3KrlFl
FXyb/rXBtnsqJo4a45Pj5wIDAQABo4IBNzCCATMwCQYDVR0TBAIwADAdBgNVHQ4E
FgQUCm0R9ouFV2X15V8JkQNuw/zrlEkwgeQGA1UdIwSB3DCB2YAUGtyY8mnB98gd
IUOwPHlQTdgrh1ShgbWkgbIwga8xCzAJBgNVBAYTAlVTMRMwEQYDVQQIDApDYWxp
Zm9ybmlhMRYwFAYDVQQHDA1TYW4gRnJhbmNpc2NvMSAwHgYDVQQKDBdDb3B5bGVm
dCBDZXJ0aWZpY2F0ZSBDbzEfMB0GA1UECwwWTXkgT3JnYW5pemF0aW9uYWwgVW5p
dDERMA8GA1UEAwwIQ2hhbmdlTWUxHTAbBgkqhkiG9w0BCQEWDm1lQGV4YW1wbGUu
bmV0ggkAjJuOiHqsbYswEwYDVR0lBAwwCgYIKwYBBQUHAwIwCwYDVR0PBAQDAgeA
MA0GCSqGSIb3DQEBCwUAA4IBAQA3gg2TVsGsYaG3NbR2/9yS2nFGi4Sk0ZJJYK5v
1XkqKfCjAWqUU3gHvtq3NED/0K98HYQO70ajQdAyz13GLp9LRTA51zLhC9zY1Krz
VsfdYEt+UtAr6r3DrXyaMdngOeWBun6j/aMzyM9XULBn1O8MSa4hd+MocwnFoUP0
2LRSR8CYAc8yEunrt3LDxwfLvMIK/pwi5em6CcdJGX7R1f2GRrfVmm6f32MVCoZb
t1MRZtU84tIO9Rp6oEl9E1rH/ZxRE9pFGKWXGLPtrTkME2rkceGTd5lWWXg677rR
/1dOHmo1CYgzm5B2G8nUgs/o3lhdDZVcL0vFbkidDvdRgF1e
-----END CERTIFICATE-----
