Certificate:
    Data:
        Version: 3 (0x2)
        Serial Number:
            de:eb:76:ef:da:69:03:03:8f:e3:fc:d6:01:5d:6a:29
    Signature Algorithm: sha256WithRSAEncryption
        Issuer: C=US, ST=California, L=San Francisco, O=Copyleft Certificate Co, OU=My Organizational Unit, CN=ChangeMe/emailAddress=me@example.net
        Validity
            Not Before: Nov 13 11:11:01 2023 GMT
            Not After : Nov 12 11:11:01 2024 GMT
        Subject: C=US, ST=OH, L=Cincinnati, O=University of Cincinnati, OU=Dept. Elec. Comp. Eng. Comp. Sci., CN=client14/emailAddress=franco@gauss.ececs.uc.edu
        Subject Public Key Info:
            Public Key Algorithm: rsaEncryption
                Public-Key: (2048 bit)
                Modulus:
                    00:c2:eb:0c:86:54:4e:11:e2:19:31:f3:cf:e0:44:
                    90:0f:33:ee:d9:36:b8:eb:d1:33:43:1c:dc:d8:a0:
                    8c:ce:50:ae:c9:f0:38:2c:77:85:39:75:5b:c7:a0:
                    34:76:30:11:c0:4b:76:91:3f:c0:eb:af:e7:0c:ed:
                    a9:a4:05:42:79:7a:7a:2c:70:e3:e6:73:6a:be:9d:
                    15:67:ce:a7:77:21:04:1d:e2:32:dd:27:6f:03:c1:
                    73:ae:9d:6a:a6:93:4a:6b:c9:50:9b:91:df:a9:63:
                    a7:54:64:9d:68:8b:40:3e:9c:10:aa:ed:51:c4:4f:
                    30:2f:f7:90:53:79:48:c8:27:60:93:d8:be:4f:ab:
                    fa:1a:3d:93:34:03:62:19:56:10:4c:e1:64:d7:9b:
                    17:ec:19:fc:83:d9:e0:80:ce:2e:ba:ea:c7:e2:f6:
                    93:21:47:22:d5:3c:57:31:b1:8a:bb:aa:9f:16:b5:
                    fa:f6:cd:ba:a9:dd:c5:19:c4:a8:2a:e4:37:e9:fe:
                    22:40:62:d7:3d:52:c1:02:8d:9e:d2:ff:10:95:48:
                    12:af:02:e8:3a:00:27:75:8c:0a:45:27:38:c4:45:
                    a2:61:b7:e1:c5:63:23:b0:c2:b7:84:82:f8:a7:0f:
                    78:52:e3:e7:2f:c2:c4:b8:f8:bd:7b:d2:7f:19:da:
                    7d:8b
                Exponent: 65537 (0x10001)
        X509v3 extensions:
            X509v3 Basic Constraints: 
                CA:FALSE
            X509v3 Subject Key Identifier: 
                A0:36:CE:BE:42:7F:38:C8:E6:13:1B:C7:5E:DE:F5:F7:CB:00:5F:EC
            X509v3 Authority Key Identifier: 
                keyid:1A:DC:98:F2:69:C1:F7:C8:1D:21:43:B0:3C:79:50:4D:D8:2B:87:54
                DirName:/C=US/ST=California/L=San Francisco/O=Copyleft Certificate Co/OU=My Organizational Unit/CN=ChangeMe/emailAddress=me@example.net
                serial:8C:9B:8E:88:7A:AC:6D:8B

            X509v3 Extended Key Usage: 
                TLS Web Client Authentication
            X509v3 Key Usage: 
                Digital Signature
    Signature Algorithm: sha256WithRSAEncryption
         d1:27:75:55:00:a1:9c:87:f1:fc:5c:42:56:92:c4:dc:b1:31:
         9c:b2:79:04:0d:50:ec:c6:be:1f:c1:b0:07:cb:8f:7c:5b:7e:
         29:0c:68:7c:fb:df:65:2c:4a:89:7f:88:48:54:26:46:21:4c:
         f8:0c:d2:ef:4d:b2:cc:79:88:c0:47:6a:58:dc:3f:45:b4:d3:
         e8:da:88:e8:13:69:51:aa:e8:a9:c1:ce:c7:70:72:a1:f7:08:
         a7:5b:f4:12:cc:3d:5b:80:d0:12:8a:44:16:54:b4:eb:ed:96:
         55:ea:3c:28:f1:c8:d2:f7:8b:0b:27:72:57:1f:d2:fd:b4:04:
         cc:83:ac:eb:6b:c7:eb:73:74:84:fc:95:f0:79:d9:b6:32:58:
         62:3c:ae:8a:fc:13:1a:ff:3f:e1:95:d5:7d:6b:a3:5a:03:45:
         e9:70:33:a2:38:05:ff:4c:e4:65:79:c8:72:77:6b:e2:f5:d8:
         54:e4:db:11:a2:1a:b0:89:b1:c7:15:e6:ee:70:df:3b:f2:2d:
         f3:39:8b:ca:18:56:69:90:e5:4e:77:24:be:d6:a3:5f:8a:f4:
         86:0f:41:42:87:ba:16:68:f5:c3:7e:18:43:d8:b7:5f:4a:b6:
         b3:6e:71:ce:34:fb:8c:3b:45:08:e6:c7:11:da:3f:0d:25:d1:
         e6:3f:d1:11
-----BEGIN CERTIFICATE-----
MIIFMDCCBBigAwIBAgIRAN7rdu/aaQMDj+P81gFdaikwDQYJKoZIhvcNAQELBQAw
ga8xCzAJBgNVBAYTAlVTMRMwEQYDVQQIDApDYWxpZm9ybmlhMRYwFAYDVQQHDA1T
YW4gRnJhbmNpc2NvMSAwHgYDVQQKDBdDb3B5bGVmdCBDZXJ0aWZpY2F0ZSBDbzEf
MB0GA1UECwwWTXkgT3JnYW5pemF0aW9uYWwgVW5pdDERMA8GA1UEAwwIQ2hhbmdl
TWUxHTAbBgkqhkiG9w0BCQEWDm1lQGV4YW1wbGUubmV0MB4XDTIzMTExMzExMTEw
MVoXDTI0MTExMjExMTEwMVowgbsxCzAJBgNVBAYTAlVTMQswCQYDVQQIDAJPSDET
MBEGA1UEBwwKQ2luY2lubmF0aTEhMB8GA1UECgwYVW5pdmVyc2l0eSBvZiBDaW5j
aW5uYXRpMSowKAYDVQQLDCFEZXB0LiBFbGVjLiBDb21wLiBFbmcuIENvbXAuIFNj
aS4xETAPBgNVBAMMCGNsaWVudDE0MSgwJgYJKoZIhvcNAQkBFhlmcmFuY29AZ2F1
c3MuZWNlY3MudWMuZWR1MIIBIjANBgkqhkiG9w0BAQEFAAOCAQ8AMIIBCgKCAQEA
wusMhlROEeIZMfPP4ESQDzPu2Ta469EzQxzc2KCMzlCuyfA4LHeFOXVbx6A0djAR
wEt2kT/A66/nDO2ppAVCeXp6LHDj5nNqvp0VZ86ndyEEHeIy3SdvA8Fzrp1qppNK
a8lQm5HfqWOnVGSdaItAPpwQqu1RxE8wL/eQU3lIyCdgk9i+T6v6Gj2TNANiGVYQ
TOFk15sX7Bn8g9nggM4uuurH4vaTIUci1TxXMbGKu6qfFrX69s26qd3FGcSoKuQ3
6f4iQGLXPVLBAo2e0v8QlUgSrwLoOgAndYwKRSc4xEWiYbfhxWMjsMK3hIL4pw94
UuPnL8LEuPi9e9J/Gdp9iwIDAQABo4IBNzCCATMwCQYDVR0TBAIwADAdBgNVHQ4E
FgQUoDbOvkJ/OMjmExvHXt7198sAX+wwgeQGA1UdIwSB3DCB2YAUGtyY8mnB98gd
IUOwPHlQTdgrh1ShgbWkgbIwga8xCzAJBgNVBAYTAlVTMRMwEQYDVQQIDApDYWxp
Zm9ybmlhMRYwFAYDVQQHDA1TYW4gRnJhbmNpc2NvMSAwHgYDVQQKDBdDb3B5bGVm
dCBDZXJ0aWZpY2F0ZSBDbzEfMB0GA1UECwwWTXkgT3JnYW5pemF0aW9uYWwgVW5p
dDERMA8GA1UEAwwIQ2hhbmdlTWUxHTAbBgkqhkiG9w0BCQEWDm1lQGV4YW1wbGUu
bmV0ggkAjJuOiHqsbYswEwYDVR0lBAwwCgYIKwYBBQUHAwIwCwYDVR0PBAQDAgeA
MA0GCSqGSIb3DQEBCwUAA4IBAQDRJ3VVAKGch/H8XEJWksTcsTGcsnkEDVDsxr4f
wbAHy498W34pDGh8+99lLEqJf4hIVCZGIUz4DNLvTbLMeYjAR2pY3D9FtNPo2ojo
E2lRquipwc7HcHKh9winW/QSzD1bgNASikQWVLTr7ZZV6jwo8cjS94sLJ3JXH9L9
tATMg6zra8frc3SE/JXwedm2MlhiPK6K/BMa/z/hldV9a6NaA0XpcDOiOAX/TORl
echyd2vi9dhU5NsRohqwibHHFebucN878i3zOYvKGFZpkOVOdyS+1qNfivSGD0FC
h7oWaPXDfhhD2LdfSrazbnHONPuMO0UI5scR2j8NJdHmP9ER
-----END CERTIFICATE-----
