Certificate:
    Data:
        Version: 3 (0x2)
        Serial Number:
            07:ee:11:70:bf:39:11:55:3d:04:af:51:d0:cf:f4:21
    Signature Algorithm: sha256WithRSAEncryption
        Issuer: C=US, ST=California, L=San Francisco, O=Copyleft Certificate Co, OU=My Organizational Unit, CN=ChangeMe/emailAddress=me@example.net
        Validity
            Not Before: Nov 13 11:12:21 2023 GMT
            Not After : Nov 12 11:12:21 2024 GMT
        Subject: C=US, ST=OH, L=Cincinnati, O=University of Cincinnati, OU=Dept. Elec. Comp. Eng. Comp. Sci., CN=client34/emailAddress=franco@gauss.ececs.uc.edu
        Subject Public Key Info:
            Public Key Algorithm: rsaEncryption
                Public-Key: (2048 bit)
                Modulus:
                    00:f7:c9:56:19:70:ff:19:92:ac:e3:db:56:16:61:
                    d5:00:49:ce:ab:db:59:bb:06:34:8a:8f:42:39:9c:
                    33:60:bc:ce:da:ce:35:14:e4:f4:71:6b:8a:72:b9:
                    78:eb:79:67:86:c0:82:bb:ec:97:a4:91:4a:bc:e2:
                    b8:d2:3f:ee:95:74:bf:1c:7f:d4:e5:84:ff:d3:7a:
                    a2:16:9a:ba:b6:9f:5a:93:9b:5e:6d:e6:ae:c8:8d:
                    8c:d0:7c:82:02:26:ab:4e:e2:50:79:44:89:1d:c9:
                    5a:d1:d1:79:b7:3f:95:56:d9:a5:66:c5:9d:53:6f:
                    11:81:46:a7:e0:67:b3:15:c7:23:be:9b:9f:28:19:
                    a7:d3:d4:84:39:1c:d5:ff:d1:49:f7:72:8f:fb:0f:
                    87:3c:66:87:da:2f:e1:0d:9a:03:48:a7:da:ed:aa:
                    aa:87:10:b8:c8:45:d1:22:f4:bb:fe:6a:65:a7:06:
                    11:ab:b3:68:ce:98:13:cd:97:be:ac:c4:e7:ac:48:
                    3a:83:86:e3:26:b9:80:5f:49:28:ce:bc:3c:96:73:
                    b8:d5:4e:9d:d8:78:c9:96:66:4e:7f:9b:97:8e:ea:
                    b1:8a:7d:85:38:bb:65:50:12:99:26:a0:90:71:8e:
                    4a:69:36:ee:78:e5:c5:d3:fa:97:8a:71:8d:3b:57:
                    08:57
                Exponent: 65537 (0x10001)
        X509v3 extensions:
            X509v3 Basic Constraints: 
                CA:FALSE
            X509v3 Subject Key Identifier: 
                92:73:7D:7C:24:76:B4:BE:03:49:74:7A:23:71:0A:07:69:6D:91:8F
            X509v3 Authority Key Identifier: 
                keyid:1A:DC:98:F2:69:C1:F7:C8:1D:21:43:B0:3C:79:50:4D:D8:2B:87:54
                DirName:/C=US/ST=California/L=San Francisco/O=Copyleft Certificate Co/OU=My Organizational Unit/CN=ChangeMe/emailAddress=me@example.net
                serial:8C:9B:8E:88:7A:AC:6D:8B

            X509v3 Extended Key Usage: 
                TLS Web Client Authentication
            X509v3 Key Usage: 
                Digital Signature
    Signature Algorithm: sha256WithRSAEncryption
         0a:5c:6a:8f:e5:24:0e:c1:d8:ca:79:8b:74:61:d2:64:59:58:
         62:02:8b:ba:96:06:68:64:d6:00:ed:5e:08:c2:53:44:59:ca:
         d3:96:06:31:f8:a2:12:c3:62:56:da:9b:6d:9a:95:15:29:f0:
         45:a8:d3:e2:b7:b1:8e:ff:80:19:28:c4:22:1d:40:4f:52:b0:
         6f:07:07:1c:f5:26:b8:e7:f3:51:67:7d:c9:db:ed:af:72:61:
         f8:4a:18:66:7e:33:71:5a:7a:3a:f6:6a:76:d9:74:f4:41:8e:
         58:ab:ad:d1:cc:89:22:48:6a:9f:ae:0d:86:e0:7c:05:24:53:
         8a:5a:b5:b2:55:85:ed:42:42:29:ac:86:94:5c:b8:74:38:d6:
         cf:e2:5d:d4:f3:a0:03:4d:8b:65:a8:69:17:7a:36:e9:7f:c8:
         d5:cf:0a:11:72:d9:5b:56:fb:f9:97:3d:ad:24:19:18:a7:07:
         76:73:03:94:99:cb:59:b3:d5:9a:33:ab:5e:e1:d1:2b:62:db:
         c8:b3:b4:20:c4:5e:cd:38:f9:0e:1e:5f:0f:53:e1:d4:53:58:
         c3:fb:fb:b5:69:31:70:ed:19:29:77:67:37:17:3a:20:df:e4:
         b1:38:50:fc:c6:10:59:76:a2:65:c9:d8:79:cc:9f:36:78:f5:
         b2:ad:fc:a2
-----BEGIN CERTIFICATE-----
MIIFLzCCBBegAwIBAgIQB+4RcL85EVU9BK9R0M/0ITANBgkqhkiG9w0BAQsFADCB
rzELMAkGA1UEBhMCVVMxEzARBgNVBAgMCkNhbGlmb3JuaWExFjAUBgNVBAcMDVNh
biBGcmFuY2lzY28xIDAeBgNVBAoMF0NvcHlsZWZ0IENlcnRpZmljYXRlIENvMR8w
HQYDVQQLDBZNeSBPcmdhbml6YXRpb25hbCBVbml0MREwDwYDVQQDDAhDaGFuZ2VN
ZTEdMBsGCSqGSIb3DQEJARYObWVAZXhhbXBsZS5uZXQwHhcNMjMxMTEzMTExMjIx
WhcNMjQxMTEyMTExMjIxWjCBuzELMAkGA1UEBhMCVVMxCzAJBgNVBAgMAk9IMRMw
EQYDVQQHDApDaW5jaW5uYXRpMSEwHwYDVQQKDBhVbml2ZXJzaXR5IG9mIENpbmNp
bm5hdGkxKjAoBgNVBAsMIURlcHQuIEVsZWMuIENvbXAuIEVuZy4gQ29tcC4gU2Np
LjERMA8GA1UEAwwIY2xpZW50MzQxKDAmBgkqhkiG9w0BCQEWGWZyYW5jb0BnYXVz
cy5lY2Vjcy51Yy5lZHUwggEiMA0GCSqGSIb3DQEBAQUAA4IBDwAwggEKAoIBAQD3
yVYZcP8Zkqzj21YWYdUASc6r21m7BjSKj0I5nDNgvM7azjUU5PRxa4pyuXjreWeG
wIK77JekkUq84rjSP+6VdL8cf9TlhP/TeqIWmrq2n1qTm15t5q7IjYzQfIICJqtO
4lB5RIkdyVrR0Xm3P5VW2aVmxZ1TbxGBRqfgZ7MVxyO+m58oGafT1IQ5HNX/0Un3
co/7D4c8ZofaL+ENmgNIp9rtqqqHELjIRdEi9Lv+amWnBhGrs2jOmBPNl76sxOes
SDqDhuMmuYBfSSjOvDyWc7jVTp3YeMmWZk5/m5eO6rGKfYU4u2VQEpkmoJBxjkpp
Nu545cXT+peKcY07VwhXAgMBAAGjggE3MIIBMzAJBgNVHRMEAjAAMB0GA1UdDgQW
BBSSc318JHa0vgNJdHojcQoHaW2RjzCB5AYDVR0jBIHcMIHZgBQa3JjyacH3yB0h
Q7A8eVBN2CuHVKGBtaSBsjCBrzELMAkGA1UEBhMCVVMxEzARBgNVBAgMCkNhbGlm
b3JuaWExFjAUBgNVBAcMDVNhbiBGcmFuY2lzY28xIDAeBgNVBAoMF0NvcHlsZWZ0
IENlcnRpZmljYXRlIENvMR8wHQYDVQQLDBZNeSBPcmdhbml6YXRpb25hbCBVbml0
MREwDwYDVQQDDAhDaGFuZ2VNZTEdMBsGCSqGSIb3DQEJARYObWVAZXhhbXBsZS5u
ZXSCCQCMm46IeqxtizATBgNVHSUEDDAKBggrBgEFBQcDAjALBgNVHQ8EBAMCB4Aw
DQYJKoZIhvcNAQELBQADggEBAApcao/lJA7B2Mp5i3Rh0mRZWGICi7qWBmhk1gDt
XgjCU0RZytOWBjH4ohLDYlbam22alRUp8EWo0+K3sY7/gBkoxCIdQE9SsG8HBxz1
Jrjn81Fnfcnb7a9yYfhKGGZ+M3Faejr2anbZdPRBjlirrdHMiSJIap+uDYbgfAUk
U4patbJVhe1CQimshpRcuHQ41s/iXdTzoANNi2WoaRd6Nul/yNXPChFy2VtW+/mX
Pa0kGRinB3ZzA5SZy1mz1Zozq17h0Sti28iztCDEXs04+Q4eXw9T4dRTWMP7+7Vp
MXDtGSl3ZzcXOiDf5LE4UPzGEFl2omXJ2HnMnzZ49bKt/KI=
-----END CERTIFICATE-----
