Certificate:
    Data:
        Version: 3 (0x2)
        Serial Number:
            6e:4c:e0:aa:1c:c6:a3:a5:fa:b0:9d:da:7e:37:9d:d6
    Signature Algorithm: sha256WithRSAEncryption
        Issuer: C=US, ST=California, L=San Francisco, O=Copyleft Certificate Co, OU=My Organizational Unit, CN=ChangeMe/emailAddress=me@example.net
        Validity
            Not Before: Jan 23 18:27:57 2021 GMT
            Not After : Jan 23 18:27:57 2022 GMT
        Subject: C=US, ST=OH, L=Cincinnati, O=University of Cincinnati, OU=Dept. Electrical Eng. and Computer Sci., CN=client29/emailAddress=franco@gauss.ececs.uc.edu
        Subject Public Key Info:
            Public Key Algorithm: rsaEncryption
                Public-Key: (2048 bit)
                Modulus:
                    00:a7:f4:80:36:6d:17:99:aa:16:09:36:ee:9a:c5:
                    2f:58:35:32:80:e6:69:38:5b:68:e6:38:29:13:95:
                    9b:5e:f9:b9:41:45:56:d9:7d:a8:0d:5f:d6:d9:30:
                    87:15:d8:49:18:c5:e0:26:64:50:b5:ba:57:27:9b:
                    f1:02:38:96:d9:c2:27:75:c4:9f:20:92:82:57:65:
                    a0:6a:df:cb:f7:6f:93:83:b8:d6:97:28:0a:55:a9:
                    48:53:5e:16:0d:27:1c:f3:6e:af:f4:f1:f2:1c:e9:
                    b2:5e:ae:c1:74:6b:ce:16:63:92:8b:6c:78:64:9f:
                    ca:14:46:ce:0e:43:c2:a3:4c:7f:c5:73:20:7b:72:
                    07:4f:f8:88:01:46:93:af:a9:4c:77:c8:2f:88:2f:
                    1e:cf:a0:06:27:5d:fe:19:4a:63:d1:fa:21:82:7a:
                    cb:98:8f:13:72:cf:b8:de:db:ff:70:ac:ce:d7:43:
                    c1:c5:1e:1e:ca:39:e3:fd:5d:ea:5e:a9:13:7d:61:
                    4d:51:f9:40:d8:e7:cb:da:56:db:55:bf:99:09:57:
                    a0:25:4d:ae:6a:a9:52:c4:d9:d5:c6:ff:55:07:cc:
                    fb:61:34:e3:06:bb:ec:7f:25:3d:54:aa:26:e4:43:
                    93:5a:d3:54:e1:11:9a:e7:3d:60:57:b1:18:14:20:
                    10:b7
                Exponent: 65537 (0x10001)
        X509v3 extensions:
            X509v3 Basic Constraints: 
                CA:FALSE
            X509v3 Subject Key Identifier: 
                89:EF:75:B8:70:30:18:5B:C1:4D:A0:E8:3B:8A:E7:AF:54:D3:BF:E4
            X509v3 Authority Key Identifier: 
                keyid:EF:DC:B6:3D:4B:FD:A7:87:05:C5:22:3D:8B:DC:BF:99:2A:EE:E4:DB
                DirName:/C=US/ST=California/L=San Francisco/O=Copyleft Certificate Co/OU=My Organizational Unit/CN=ChangeMe/emailAddress=me@example.net
                serial:87:1E:1D:DC:6B:8C:66:88

            X509v3 Extended Key Usage: 
                TLS Web Client Authentication
            X509v3 Key Usage: 
                Digital Signature
    Signature Algorithm: sha256WithRSAEncryption
         c6:58:77:3a:d1:d3:6d:f8:fe:15:f1:d7:e0:86:dc:f3:c3:70:
         98:91:8c:ea:b5:5b:7f:c7:67:1a:d1:13:0d:9a:ce:b2:c3:d3:
         68:65:b7:74:ea:df:f9:d8:d6:d3:12:a3:aa:41:73:22:dc:33:
         f0:48:04:32:67:e8:00:0f:de:35:ee:d9:1c:ac:3f:a8:38:06:
         33:6e:1a:17:70:48:bc:a0:d2:62:be:d1:d1:8a:95:f7:be:3a:
         1c:27:11:c0:11:29:16:1f:2a:4f:42:9e:9d:83:9b:ff:61:81:
         b7:cf:04:b0:3c:e6:ff:c2:8f:a6:f8:90:c9:73:0b:8a:0d:ee:
         7b:6b:d9:5d:74:81:58:21:cc:f9:7f:b9:2a:d4:4a:0d:1b:cd:
         ac:f3:45:8c:37:9b:14:57:a9:dd:36:d3:5a:da:6c:2d:23:80:
         cb:77:cc:ee:81:1d:28:d6:71:5f:d7:fb:b4:e7:ce:70:4c:6a:
         4b:4e:32:a4:f2:bb:1d:13:5a:71:3d:87:a0:1a:76:b6:f6:9c:
         cd:3f:e0:14:c0:5d:db:69:4f:42:76:1f:57:dd:22:2d:cb:a9:
         e0:00:93:30:84:c0:ea:8a:91:79:d8:5e:69:f8:09:e9:cf:09:
         3b:b7:2a:66:2b:d9:f5:1f:1f:3c:6e:56:f3:00:3e:f5:5c:55:
         01:db:7c:f0
-----BEGIN CERTIFICATE-----
MIIFNTCCBB2gAwIBAgIQbkzgqhzGo6X6sJ3afjed1jANBgkqhkiG9w0BAQsFADCB
rzELMAkGA1UEBhMCVVMxEzARBgNVBAgMCkNhbGlmb3JuaWExFjAUBgNVBAcMDVNh
biBGcmFuY2lzY28xIDAeBgNVBAoMF0NvcHlsZWZ0IENlcnRpZmljYXRlIENvMR8w
HQYDVQQLDBZNeSBPcmdhbml6YXRpb25hbCBVbml0MREwDwYDVQQDDAhDaGFuZ2VN
ZTEdMBsGCSqGSIb3DQEJARYObWVAZXhhbXBsZS5uZXQwHhcNMjEwMTIzMTgyNzU3
WhcNMjIwMTIzMTgyNzU3WjCBwTELMAkGA1UEBhMCVVMxCzAJBgNVBAgMAk9IMRMw
EQYDVQQHDApDaW5jaW5uYXRpMSEwHwYDVQQKDBhVbml2ZXJzaXR5IG9mIENpbmNp
bm5hdGkxMDAuBgNVBAsMJ0RlcHQuIEVsZWN0cmljYWwgRW5nLiBhbmQgQ29tcHV0
ZXIgU2NpLjERMA8GA1UEAwwIY2xpZW50MjkxKDAmBgkqhkiG9w0BCQEWGWZyYW5j
b0BnYXVzcy5lY2Vjcy51Yy5lZHUwggEiMA0GCSqGSIb3DQEBAQUAA4IBDwAwggEK
AoIBAQCn9IA2bReZqhYJNu6axS9YNTKA5mk4W2jmOCkTlZte+blBRVbZfagNX9bZ
MIcV2EkYxeAmZFC1ulcnm/ECOJbZwid1xJ8gkoJXZaBq38v3b5ODuNaXKApVqUhT
XhYNJxzzbq/08fIc6bJersF0a84WY5KLbHhkn8oURs4OQ8KjTH/FcyB7cgdP+IgB
RpOvqUx3yC+ILx7PoAYnXf4ZSmPR+iGCesuYjxNyz7je2/9wrM7XQ8HFHh7KOeP9
XepeqRN9YU1R+UDY58vaVttVv5kJV6AlTa5qqVLE2dXG/1UHzPthNOMGu+x/JT1U
qibkQ5Na01ThEZrnPWBXsRgUIBC3AgMBAAGjggE3MIIBMzAJBgNVHRMEAjAAMB0G
A1UdDgQWBBSJ73W4cDAYW8FNoOg7iuevVNO/5DCB5AYDVR0jBIHcMIHZgBTv3LY9
S/2nhwXFIj2L3L+ZKu7k26GBtaSBsjCBrzELMAkGA1UEBhMCVVMxEzARBgNVBAgM
CkNhbGlmb3JuaWExFjAUBgNVBAcMDVNhbiBGcmFuY2lzY28xIDAeBgNVBAoMF0Nv
cHlsZWZ0IENlcnRpZmljYXRlIENvMR8wHQYDVQQLDBZNeSBPcmdhbml6YXRpb25h
bCBVbml0MREwDwYDVQQDDAhDaGFuZ2VNZTEdMBsGCSqGSIb3DQEJARYObWVAZXhh
bXBsZS5uZXSCCQCHHh3ca4xmiDATBgNVHSUEDDAKBggrBgEFBQcDAjALBgNVHQ8E
BAMCB4AwDQYJKoZIhvcNAQELBQADggEBAMZYdzrR0234/hXx1+CG3PPDcJiRjOq1
W3/HZxrREw2azrLD02hlt3Tq3/nY1tMSo6pBcyLcM/BIBDJn6AAP3jXu2RysP6g4
BjNuGhdwSLyg0mK+0dGKlfe+OhwnEcARKRYfKk9Cnp2Dm/9hgbfPBLA85v/Cj6b4
kMlzC4oN7ntr2V10gVghzPl/uSrUSg0bzazzRYw3mxRXqd0201rabC0jgMt3zO6B
HSjWcV/X+7TnznBMaktOMqTyux0TWnE9h6Aadrb2nM0/4BTAXdtpT0J2H1fdIi3L
qeAAkzCEwOqKkXnYXmn4CenPCTu3KmYr2fUfHzxuVvMAPvVcVQHbfPA=
-----END CERTIFICATE-----
