Certificate:
    Data:
        Version: 3 (0x2)
        Serial Number:
            eb:cd:d0:57:5a:41:ad:72:8e:d3:ab:9f:92:45:31:ab
    Signature Algorithm: sha256WithRSAEncryption
        Issuer: C=US, ST=California, L=San Francisco, O=Copyleft Certificate Co, OU=My Organizational Unit, CN=ChangeMe/emailAddress=me@example.net
        Validity
            Not Before: Nov 13 11:13:09 2023 GMT
            Not After : Nov 12 11:13:09 2024 GMT
        Subject: C=US, ST=OH, L=Cincinnati, O=University of Cincinnati, OU=Dept. Elec. Comp. Eng. Comp. Sci., CN=client46/emailAddress=franco@gauss.ececs.uc.edu
        Subject Public Key Info:
            Public Key Algorithm: rsaEncryption
                Public-Key: (2048 bit)
                Modulus:
                    00:d1:d2:4b:eb:68:ca:1c:db:e3:cc:51:38:07:83:
                    ed:b9:99:a4:40:5a:4e:eb:d1:58:46:c0:51:e6:b6:
                    79:8b:af:94:51:40:f9:5f:8e:30:1a:33:ec:ba:ab:
                    12:d0:c5:5e:b4:38:27:3e:f1:29:41:82:6d:78:34:
                    3c:d6:76:00:e1:ac:d3:28:e8:c9:34:82:07:bc:bb:
                    6e:46:cc:99:95:6c:c5:ed:27:ed:70:17:cc:82:f0:
                    89:8f:d5:d2:67:2b:f2:74:85:c8:39:14:fb:7e:3c:
                    74:58:dd:05:5a:c4:95:ae:18:f3:d9:05:22:85:2b:
                    dc:e6:f4:61:f8:9f:b4:a1:bb:30:fb:8f:e2:95:77:
                    1b:9a:e5:1d:6c:21:ae:11:1f:39:66:9c:37:a0:71:
                    14:00:11:ae:16:4f:5f:44:50:27:23:1f:fb:f4:6c:
                    d7:87:44:7a:1f:93:04:79:12:04:d6:80:8b:cb:3b:
                    cf:56:79:c6:74:62:2b:36:6c:f5:b2:b4:7b:5f:c3:
                    f7:a5:ad:1f:ee:a9:8e:c0:25:7a:2e:1d:e2:e0:c8:
                    95:f8:d3:7d:ee:7f:86:04:95:e6:17:f2:83:3a:9e:
                    45:77:e0:57:9b:4d:ba:df:da:fc:72:48:2a:1c:72:
                    f8:58:df:4d:d8:fa:e9:dd:1d:bc:5f:a1:8d:4a:33:
                    88:21
                Exponent: 65537 (0x10001)
        X509v3 extensions:
            X509v3 Basic Constraints: 
                CA:FALSE
            X509v3 Subject Key Identifier: 
                24:CC:CD:41:B8:75:E5:00:D3:90:C6:7A:53:1E:E4:13:DA:FF:F0:87
            X509v3 Authority Key Identifier: 
                keyid:1A:DC:98:F2:69:C1:F7:C8:1D:21:43:B0:3C:79:50:4D:D8:2B:87:54
                DirName:/C=US/ST=California/L=San Francisco/O=Copyleft Certificate Co/OU=My Organizational Unit/CN=ChangeMe/emailAddress=me@example.net
                serial:8C:9B:8E:88:7A:AC:6D:8B

            X509v3 Extended Key Usage: 
                TLS Web Client Authentication
            X509v3 Key Usage: 
                Digital Signature
    Signature Algorithm: sha256WithRSAEncryption
         b9:04:f3:94:42:3e:f9:b7:30:28:d0:2d:7e:43:55:f4:6b:9c:
         9f:9b:43:5f:a4:16:66:0d:12:e6:9c:fa:35:41:10:f0:bf:c1:
         f8:6b:9a:25:45:f5:bc:15:03:57:2c:83:f0:f2:24:bd:0e:31:
         7d:99:20:08:d2:6d:ac:42:ff:0a:2a:ef:0c:8e:9e:50:32:59:
         d8:6b:84:f5:0c:5c:08:40:f9:a6:5c:55:14:3d:c7:28:06:c3:
         2e:0f:ec:f2:0d:34:69:4b:40:6b:a0:9e:d0:b9:00:13:06:21:
         a8:ff:40:ab:4a:c7:ca:c0:7b:07:81:4d:c8:d8:59:8e:8c:83:
         69:07:e4:92:cf:48:11:b0:91:a4:3a:8a:42:22:ce:9c:d2:b2:
         f2:0a:3a:86:81:7d:a0:43:5d:54:73:0a:95:3d:56:25:0a:1a:
         2b:77:6c:83:b0:81:9b:42:5e:73:f5:b5:19:27:f5:7e:33:e4:
         10:21:11:b6:c0:e7:45:31:9d:e3:7f:95:f9:bb:8a:7e:44:92:
         9c:48:a9:df:c3:e7:c6:a4:37:56:f4:5e:34:81:06:8b:19:81:
         0d:bf:4e:e2:ca:db:ad:10:92:ab:df:fb:99:99:49:ed:fb:59:
         ab:a7:8c:98:0f:20:d1:80:0b:f6:fc:2e:ac:74:1e:2a:e7:ab:
         95:4b:47:6f
-----BEGIN CERTIFICATE-----
MIIFMDCCBBigAwIBAgIRAOvN0FdaQa1yjtOrn5JFMaswDQYJKoZIhvcNAQELBQAw
ga8xCzAJBgNVBAYTAlVTMRMwEQYDVQQIDApDYWxpZm9ybmlhMRYwFAYDVQQHDA1T
YW4gRnJhbmNpc2NvMSAwHgYDVQQKDBdDb3B5bGVmdCBDZXJ0aWZpY2F0ZSBDbzEf
MB0GA1UECwwWTXkgT3JnYW5pemF0aW9uYWwgVW5pdDERMA8GA1UEAwwIQ2hhbmdl
TWUxHTAbBgkqhkiG9w0BCQEWDm1lQGV4YW1wbGUubmV0MB4XDTIzMTExMzExMTMw
OVoXDTI0MTExMjExMTMwOVowgbsxCzAJBgNVBAYTAlVTMQswCQYDVQQIDAJPSDET
MBEGA1UEBwwKQ2luY2lubmF0aTEhMB8GA1UECgwYVW5pdmVyc2l0eSBvZiBDaW5j
aW5uYXRpMSowKAYDVQQLDCFEZXB0LiBFbGVjLiBDb21wLiBFbmcuIENvbXAuIFNj
aS4xETAPBgNVBAMMCGNsaWVudDQ2MSgwJgYJKoZIhvcNAQkBFhlmcmFuY29AZ2F1
c3MuZWNlY3MudWMuZWR1MIIBIjANBgkqhkiG9w0BAQEFAAOCAQ8AMIIBCgKCAQEA
0dJL62jKHNvjzFE4B4PtuZmkQFpO69FYRsBR5rZ5i6+UUUD5X44wGjPsuqsS0MVe
tDgnPvEpQYJteDQ81nYA4azTKOjJNIIHvLtuRsyZlWzF7SftcBfMgvCJj9XSZyvy
dIXIORT7fjx0WN0FWsSVrhjz2QUihSvc5vRh+J+0obsw+4/ilXcbmuUdbCGuER85
Zpw3oHEUABGuFk9fRFAnIx/79GzXh0R6H5MEeRIE1oCLyzvPVnnGdGIrNmz1srR7
X8P3pa0f7qmOwCV6Lh3i4MiV+NN97n+GBJXmF/KDOp5Fd+BXm02639r8ckgqHHL4
WN9N2Prp3R28X6GNSjOIIQIDAQABo4IBNzCCATMwCQYDVR0TBAIwADAdBgNVHQ4E
FgQUJMzNQbh15QDTkMZ6Ux7kE9r/8IcwgeQGA1UdIwSB3DCB2YAUGtyY8mnB98gd
IUOwPHlQTdgrh1ShgbWkgbIwga8xCzAJBgNVBAYTAlVTMRMwEQYDVQQIDApDYWxp
Zm9ybmlhMRYwFAYDVQQHDA1TYW4gRnJhbmNpc2NvMSAwHgYDVQQKDBdDb3B5bGVm
dCBDZXJ0aWZpY2F0ZSBDbzEfMB0GA1UECwwWTXkgT3JnYW5pemF0aW9uYWwgVW5p
dDERMA8GA1UEAwwIQ2hhbmdlTWUxHTAbBgkqhkiG9w0BCQEWDm1lQGV4YW1wbGUu
bmV0ggkAjJuOiHqsbYswEwYDVR0lBAwwCgYIKwYBBQUHAwIwCwYDVR0PBAQDAgeA
MA0GCSqGSIb3DQEBCwUAA4IBAQC5BPOUQj75tzAo0C1+Q1X0a5yfm0NfpBZmDRLm
nPo1QRDwv8H4a5olRfW8FQNXLIPw8iS9DjF9mSAI0m2sQv8KKu8Mjp5QMlnYa4T1
DFwIQPmmXFUUPccoBsMuD+zyDTRpS0BroJ7QuQATBiGo/0CrSsfKwHsHgU3I2FmO
jINpB+SSz0gRsJGkOopCIs6c0rLyCjqGgX2gQ11UcwqVPVYlChord2yDsIGbQl5z
9bUZJ/V+M+QQIRG2wOdFMZ3jf5X5u4p+RJKcSKnfw+fGpDdW9F40gQaLGYENv07i
ytutEJKr3/uZmUnt+1mrp4yYDyDRgAv2/C6sdB4q56uVS0dv
-----END CERTIFICATE-----
