Certificate:
    Data:
        Version: 3 (0x2)
        Serial Number:
            b2:fb:c4:16:d3:1b:c2:9c:51:3f:31:3b:3e:48:aa:ef
    Signature Algorithm: sha256WithRSAEncryption
        Issuer: C=US, ST=California, L=San Francisco, O=Copyleft Certificate Co, OU=My Organizational Unit, CN=ChangeMe/emailAddress=me@example.net
        Validity
            Not Before: Jan 23 18:27:24 2021 GMT
            Not After : Jan 23 18:27:24 2022 GMT
        Subject: C=US, ST=OH, L=Cincinnati, O=University of Cincinnati, OU=Dept. Electrical Eng. and Computer Sci., CN=client5/emailAddress=franco@gauss.ececs.uc.edu
        Subject Public Key Info:
            Public Key Algorithm: rsaEncryption
                Public-Key: (2048 bit)
                Modulus:
                    00:b9:6e:c9:b0:7e:d2:5c:08:15:ba:11:a3:9d:f8:
                    93:fe:98:3b:0f:29:9e:d1:36:92:3f:73:28:09:69:
                    f9:94:8b:57:9b:ab:c1:d5:ce:59:89:f0:0a:95:c6:
                    35:9f:46:a5:34:79:46:39:40:52:06:29:bb:07:27:
                    67:ee:47:ed:9c:ca:a2:01:5e:33:56:1c:a1:ba:0a:
                    fb:19:97:a1:ad:ea:29:8e:fe:dd:9d:aa:80:cf:a6:
                    38:56:9c:c1:21:89:19:7d:58:32:75:7f:b3:85:a1:
                    50:ff:da:40:8b:cd:7f:5f:ed:0b:82:4f:8c:80:0b:
                    fb:b1:92:e2:3e:52:b7:36:9f:86:7d:26:e9:68:80:
                    4d:71:96:5a:d5:5f:fa:16:af:df:78:e1:56:8f:04:
                    77:43:42:ff:fb:49:87:65:de:4e:7d:29:5b:fb:a6:
                    8b:39:b2:31:af:52:2b:18:c0:e4:0a:c8:5f:86:65:
                    0b:d7:c1:89:67:bf:f2:38:d5:1e:78:98:6a:61:fa:
                    63:34:87:6c:82:3c:f3:9f:d0:3a:aa:52:3a:58:a2:
                    4c:c9:ae:c8:ad:44:e0:31:c1:45:0d:2f:bb:21:77:
                    74:1b:ff:b3:81:3b:64:cf:8d:92:01:41:aa:f6:7c:
                    19:25:c8:c0:a0:df:ed:5e:06:94:19:5b:67:1c:b5:
                    70:bd
                Exponent: 65537 (0x10001)
        X509v3 extensions:
            X509v3 Basic Constraints: 
                CA:FALSE
            X509v3 Subject Key Identifier: 
                5B:1A:0F:73:C4:91:A9:5D:3C:EF:09:1E:C0:4D:BB:78:35:69:A2:4E
            X509v3 Authority Key Identifier: 
                keyid:EF:DC:B6:3D:4B:FD:A7:87:05:C5:22:3D:8B:DC:BF:99:2A:EE:E4:DB
                DirName:/C=US/ST=California/L=San Francisco/O=Copyleft Certificate Co/OU=My Organizational Unit/CN=ChangeMe/emailAddress=me@example.net
                serial:87:1E:1D:DC:6B:8C:66:88

            X509v3 Extended Key Usage: 
                TLS Web Client Authentication
            X509v3 Key Usage: 
                Digital Signature
    Signature Algorithm: sha256WithRSAEncryption
         80:ea:2b:c1:17:11:85:c0:58:d2:df:4d:ac:86:14:24:dd:ce:
         02:6c:14:4d:f6:6e:0f:78:f9:56:6d:61:8a:e1:b7:dd:b6:88:
         2c:ed:26:c6:95:41:83:b7:66:3d:a1:95:74:1b:b7:c6:5f:b5:
         b7:7e:18:59:ba:d0:86:9b:01:57:3b:64:f0:0e:35:15:d6:ef:
         80:b4:1f:f2:60:08:d6:81:9c:71:92:86:4d:1f:b0:2d:61:60:
         7c:84:58:bf:22:ff:a6:90:ae:d8:cc:84:e9:da:92:43:88:64:
         70:10:6f:e8:73:05:ba:9b:63:bf:0f:9b:8a:18:56:2e:3a:bc:
         2c:ae:9e:89:98:7c:22:88:74:61:02:2f:e5:d5:ca:04:ab:ab:
         c8:1d:c8:2c:89:a9:66:9e:4a:bd:84:c5:2c:4b:ce:ff:04:64:
         f3:cc:aa:d1:c2:a2:04:7e:81:03:39:0f:a1:ab:47:1f:68:3f:
         6c:1b:83:5c:96:95:65:71:8d:1d:8e:61:eb:af:7b:75:65:da:
         ad:d7:fa:d6:62:ff:c1:d8:48:b9:b1:e3:27:c5:cc:09:13:fd:
         ae:32:76:ef:39:59:0c:de:7f:1f:42:08:ee:bb:6b:98:7c:b7:
         ba:2e:50:77:3c:15:5b:fd:a5:e8:03:cf:7a:27:bf:85:b6:bd:
         24:e8:e5:0d
-----BEGIN CERTIFICATE-----
MIIFNTCCBB2gAwIBAgIRALL7xBbTG8KcUT8xOz5Iqu8wDQYJKoZIhvcNAQELBQAw
ga8xCzAJBgNVBAYTAlVTMRMwEQYDVQQIDApDYWxpZm9ybmlhMRYwFAYDVQQHDA1T
YW4gRnJhbmNpc2NvMSAwHgYDVQQKDBdDb3B5bGVmdCBDZXJ0aWZpY2F0ZSBDbzEf
MB0GA1UECwwWTXkgT3JnYW5pemF0aW9uYWwgVW5pdDERMA8GA1UEAwwIQ2hhbmdl
TWUxHTAbBgkqhkiG9w0BCQEWDm1lQGV4YW1wbGUubmV0MB4XDTIxMDEyMzE4Mjcy
NFoXDTIyMDEyMzE4MjcyNFowgcAxCzAJBgNVBAYTAlVTMQswCQYDVQQIDAJPSDET
MBEGA1UEBwwKQ2luY2lubmF0aTEhMB8GA1UECgwYVW5pdmVyc2l0eSBvZiBDaW5j
aW5uYXRpMTAwLgYDVQQLDCdEZXB0LiBFbGVjdHJpY2FsIEVuZy4gYW5kIENvbXB1
dGVyIFNjaS4xEDAOBgNVBAMMB2NsaWVudDUxKDAmBgkqhkiG9w0BCQEWGWZyYW5j
b0BnYXVzcy5lY2Vjcy51Yy5lZHUwggEiMA0GCSqGSIb3DQEBAQUAA4IBDwAwggEK
AoIBAQC5bsmwftJcCBW6EaOd+JP+mDsPKZ7RNpI/cygJafmUi1ebq8HVzlmJ8AqV
xjWfRqU0eUY5QFIGKbsHJ2fuR+2cyqIBXjNWHKG6CvsZl6Gt6imO/t2dqoDPpjhW
nMEhiRl9WDJ1f7OFoVD/2kCLzX9f7QuCT4yAC/uxkuI+Urc2n4Z9JulogE1xllrV
X/oWr9944VaPBHdDQv/7SYdl3k59KVv7pos5sjGvUisYwOQKyF+GZQvXwYlnv/I4
1R54mGph+mM0h2yCPPOf0DqqUjpYokzJrsitROAxwUUNL7shd3Qb/7OBO2TPjZIB
Qar2fBklyMCg3+1eBpQZW2cctXC9AgMBAAGjggE3MIIBMzAJBgNVHRMEAjAAMB0G
A1UdDgQWBBRbGg9zxJGpXTzvCR7ATbt4NWmiTjCB5AYDVR0jBIHcMIHZgBTv3LY9
S/2nhwXFIj2L3L+ZKu7k26GBtaSBsjCBrzELMAkGA1UEBhMCVVMxEzARBgNVBAgM
CkNhbGlmb3JuaWExFjAUBgNVBAcMDVNhbiBGcmFuY2lzY28xIDAeBgNVBAoMF0Nv
cHlsZWZ0IENlcnRpZmljYXRlIENvMR8wHQYDVQQLDBZNeSBPcmdhbml6YXRpb25h
bCBVbml0MREwDwYDVQQDDAhDaGFuZ2VNZTEdMBsGCSqGSIb3DQEJARYObWVAZXhh
bXBsZS5uZXSCCQCHHh3ca4xmiDATBgNVHSUEDDAKBggrBgEFBQcDAjALBgNVHQ8E
BAMCB4AwDQYJKoZIhvcNAQELBQADggEBAIDqK8EXEYXAWNLfTayGFCTdzgJsFE32
bg94+VZtYYrht922iCztJsaVQYO3Zj2hlXQbt8Zftbd+GFm60IabAVc7ZPAONRXW
74C0H/JgCNaBnHGShk0fsC1hYHyEWL8i/6aQrtjMhOnakkOIZHAQb+hzBbqbY78P
m4oYVi46vCyunomYfCKIdGECL+XVygSrq8gdyCyJqWaeSr2ExSxLzv8EZPPMqtHC
ogR+gQM5D6GrRx9oP2wbg1yWlWVxjR2OYeuve3Vl2q3X+tZi/8HYSLmx4yfFzAkT
/a4ydu85WQzefx9CCO67a5h8t7ouUHc8FVv9pegDz3onv4W2vSTo5Q0=
-----END CERTIFICATE-----
