Certificate:
    Data:
        Version: 3 (0x2)
        Serial Number:
            5e:57:6d:af:ea:eb:14:62:54:a0:c7:26:be:e7:21
    Signature Algorithm: sha256WithRSAEncryption
        Issuer: C=US, ST=California, L=San Francisco, O=Copyleft Certificate Co, OU=My Organizational Unit, CN=ChangeMe/emailAddress=me@example.net
        Validity
            Not Before: Jan 23 18:27:45 2021 GMT
            Not After : Jan 23 18:27:45 2022 GMT
        Subject: C=US, ST=OH, L=Cincinnati, O=University of Cincinnati, OU=Dept. Electrical Eng. and Computer Sci., CN=client20/emailAddress=franco@gauss.ececs.uc.edu
        Subject Public Key Info:
            Public Key Algorithm: rsaEncryption
                Public-Key: (2048 bit)
                Modulus:
                    00:f9:4e:1e:0a:63:38:b7:4d:ab:7e:6a:67:ff:26:
                    64:5e:57:43:0c:0b:9a:03:b9:bf:3c:df:62:47:2d:
                    e3:87:2d:20:25:76:82:1c:46:d0:b2:76:c0:be:f3:
                    b9:f2:68:01:ec:20:b8:35:81:62:88:fc:c8:0b:e5:
                    81:23:08:06:19:ab:a2:b6:89:9a:94:43:36:72:5a:
                    b6:5c:4b:d5:3f:c8:21:23:35:21:50:88:ac:58:6e:
                    13:01:31:05:17:70:14:57:1e:23:4e:34:76:b6:6e:
                    30:56:21:5b:65:89:a8:21:57:c2:7c:ce:2b:d1:eb:
                    18:1c:41:31:49:1c:55:00:cc:74:48:f7:4d:63:e3:
                    c0:46:fb:d4:64:48:19:29:c7:37:8a:e0:e7:8d:c2:
                    df:87:bf:40:84:19:06:67:60:fe:e5:d5:01:ba:f9:
                    f5:f3:a5:ef:0f:63:bc:8e:27:c6:8c:5e:17:23:cb:
                    23:7c:fe:3e:08:b2:de:fe:b2:e3:d1:a9:fc:9a:8b:
                    9c:63:43:16:de:a0:51:e7:d5:46:6c:62:60:a1:78:
                    12:9f:d6:5e:6f:ca:96:96:da:af:fc:a6:fc:b1:d7:
                    c9:ea:9b:d8:ee:18:d2:fc:99:fb:8f:a8:63:fd:93:
                    a9:63:93:5e:bf:ab:42:29:c9:86:79:d0:57:6a:51:
                    e6:39
                Exponent: 65537 (0x10001)
        X509v3 extensions:
            X509v3 Basic Constraints: 
                CA:FALSE
            X509v3 Subject Key Identifier: 
                FA:52:54:E2:6F:F7:21:4E:3D:DD:BB:5A:8C:12:B5:C4:55:79:4E:AA
            X509v3 Authority Key Identifier: 
                keyid:EF:DC:B6:3D:4B:FD:A7:87:05:C5:22:3D:8B:DC:BF:99:2A:EE:E4:DB
                DirName:/C=US/ST=California/L=San Francisco/O=Copyleft Certificate Co/OU=My Organizational Unit/CN=ChangeMe/emailAddress=me@example.net
                serial:87:1E:1D:DC:6B:8C:66:88

            X509v3 Extended Key Usage: 
                TLS Web Client Authentication
            X509v3 Key Usage: 
                Digital Signature
    Signature Algorithm: sha256WithRSAEncryption
         8b:a8:b5:0f:f1:e0:ab:62:2c:66:e6:dc:ab:cf:5c:29:e6:e3:
         6b:29:d3:b9:f7:c4:11:40:0f:f1:8c:18:5d:50:9b:21:88:47:
         38:26:1b:d5:9f:42:06:9d:33:84:d8:b0:47:7a:4e:13:a6:81:
         31:f1:76:be:60:18:f3:9c:ed:ac:fb:0d:94:10:7f:95:5b:90:
         0b:d7:03:72:8f:8f:19:f3:f3:9a:ac:7b:8a:05:0a:09:11:bb:
         d1:24:1a:c5:4e:c1:fd:cb:69:5e:5a:30:7c:1a:39:78:35:65:
         26:2c:7b:f4:14:36:43:7e:37:44:1c:3c:28:00:16:43:f2:f9:
         bf:da:bf:0a:71:e4:04:73:9d:bc:a4:08:81:1e:f4:7f:07:b9:
         99:20:2d:6e:ce:36:e5:6e:4d:3e:04:11:6c:cb:f0:72:f4:7e:
         3a:42:9f:f7:76:ad:21:26:da:16:66:e8:e8:d1:50:4a:78:a8:
         14:75:8e:89:f2:6c:c9:56:04:2c:67:2c:83:78:3f:1a:b9:9c:
         9f:0b:2f:e4:02:bb:38:95:60:8c:97:3b:00:2b:2d:a9:44:c7:
         7a:b2:a9:15:78:9f:7a:7d:2d:d6:30:14:14:2b:99:00:30:ab:
         25:01:41:ea:cb:8f:b4:e4:7e:4e:c0:5c:69:49:1e:83:91:ba:
         0c:64:5b:40
-----BEGIN CERTIFICATE-----
MIIFNDCCBBygAwIBAgIPXldtr+rrFGJUoMcmvuchMA0GCSqGSIb3DQEBCwUAMIGv
MQswCQYDVQQGEwJVUzETMBEGA1UECAwKQ2FsaWZvcm5pYTEWMBQGA1UEBwwNU2Fu
IEZyYW5jaXNjbzEgMB4GA1UECgwXQ29weWxlZnQgQ2VydGlmaWNhdGUgQ28xHzAd
BgNVBAsMFk15IE9yZ2FuaXphdGlvbmFsIFVuaXQxETAPBgNVBAMMCENoYW5nZU1l
MR0wGwYJKoZIhvcNAQkBFg5tZUBleGFtcGxlLm5ldDAeFw0yMTAxMjMxODI3NDVa
Fw0yMjAxMjMxODI3NDVaMIHBMQswCQYDVQQGEwJVUzELMAkGA1UECAwCT0gxEzAR
BgNVBAcMCkNpbmNpbm5hdGkxITAfBgNVBAoMGFVuaXZlcnNpdHkgb2YgQ2luY2lu
bmF0aTEwMC4GA1UECwwnRGVwdC4gRWxlY3RyaWNhbCBFbmcuIGFuZCBDb21wdXRl
ciBTY2kuMREwDwYDVQQDDAhjbGllbnQyMDEoMCYGCSqGSIb3DQEJARYZZnJhbmNv
QGdhdXNzLmVjZWNzLnVjLmVkdTCCASIwDQYJKoZIhvcNAQEBBQADggEPADCCAQoC
ggEBAPlOHgpjOLdNq35qZ/8mZF5XQwwLmgO5vzzfYkct44ctICV2ghxG0LJ2wL7z
ufJoAewguDWBYoj8yAvlgSMIBhmroraJmpRDNnJatlxL1T/IISM1IVCIrFhuEwEx
BRdwFFceI040drZuMFYhW2WJqCFXwnzOK9HrGBxBMUkcVQDMdEj3TWPjwEb71GRI
GSnHN4rg543C34e/QIQZBmdg/uXVAbr59fOl7w9jvI4nxoxeFyPLI3z+Pgiy3v6y
49Gp/JqLnGNDFt6gUefVRmxiYKF4Ep/WXm/Klpbar/ym/LHXyeqb2O4Y0vyZ+4+o
Y/2TqWOTXr+rQinJhnnQV2pR5jkCAwEAAaOCATcwggEzMAkGA1UdEwQCMAAwHQYD
VR0OBBYEFPpSVOJv9yFOPd27WowStcRVeU6qMIHkBgNVHSMEgdwwgdmAFO/ctj1L
/aeHBcUiPYvcv5kq7uTboYG1pIGyMIGvMQswCQYDVQQGEwJVUzETMBEGA1UECAwK
Q2FsaWZvcm5pYTEWMBQGA1UEBwwNU2FuIEZyYW5jaXNjbzEgMB4GA1UECgwXQ29w
eWxlZnQgQ2VydGlmaWNhdGUgQ28xHzAdBgNVBAsMFk15IE9yZ2FuaXphdGlvbmFs
IFVuaXQxETAPBgNVBAMMCENoYW5nZU1lMR0wGwYJKoZIhvcNAQkBFg5tZUBleGFt
cGxlLm5ldIIJAIceHdxrjGaIMBMGA1UdJQQMMAoGCCsGAQUFBwMCMAsGA1UdDwQE
AwIHgDANBgkqhkiG9w0BAQsFAAOCAQEAi6i1D/Hgq2IsZubcq89cKebjaynTuffE
EUAP8YwYXVCbIYhHOCYb1Z9CBp0zhNiwR3pOE6aBMfF2vmAY85ztrPsNlBB/lVuQ
C9cDco+PGfPzmqx7igUKCRG70SQaxU7B/ctpXlowfBo5eDVlJix79BQ2Q343RBw8
KAAWQ/L5v9q/CnHkBHOdvKQIgR70fwe5mSAtbs425W5NPgQRbMvwcvR+OkKf93at
ISbaFmbo6NFQSnioFHWOifJsyVYELGcsg3g/Grmcnwsv5AK7OJVgjJc7ACstqUTH
erKpFXifen0t1jAUFCuZADCrJQFB6suPtOR+TsBcaUkeg5G6DGRbQA==
-----END CERTIFICATE-----
