Certificate:
    Data:
        Version: 3 (0x2)
        Serial Number:
            61:09:2e:16:6f:83:5a:b8:2f:34:77:c8:93:65:25:1b
    Signature Algorithm: sha256WithRSAEncryption
        Issuer: C=US, ST=California, L=San Francisco, O=Copyleft Certificate Co, OU=My Organizational Unit, CN=ChangeMe/emailAddress=me@example.net
        Validity
            Not Before: Nov 13 11:12:41 2023 GMT
            Not After : Nov 12 11:12:41 2024 GMT
        Subject: C=US, ST=OH, L=Cincinnati, O=University of Cincinnati, OU=Dept. Elec. Comp. Eng. Comp. Sci., CN=client39/emailAddress=franco@gauss.ececs.uc.edu
        Subject Public Key Info:
            Public Key Algorithm: rsaEncryption
                Public-Key: (2048 bit)
                Modulus:
                    00:ae:57:fc:25:cb:c3:86:62:5c:95:b2:a7:26:70:
                    d8:4b:55:75:5e:79:80:b9:f1:2a:fa:12:b4:3a:2e:
                    e4:63:42:bc:1b:fa:8b:aa:a7:e6:ad:9b:65:9d:9f:
                    0e:48:5d:2d:c4:92:15:e9:da:f4:6c:28:4b:23:c9:
                    43:ad:09:bf:3d:5e:6d:47:4a:15:8c:90:67:61:5c:
                    69:ae:b2:ae:16:4c:17:a9:d0:29:f1:72:cb:ac:74:
                    e1:47:e3:e8:92:04:af:fc:e8:ce:a3:4b:60:6a:77:
                    91:3e:ac:96:84:3f:60:24:5b:01:ed:c7:29:eb:4a:
                    73:24:b7:9e:c1:76:f7:47:f4:09:70:d8:67:75:c2:
                    b5:0a:c8:f9:6f:2b:33:b7:3e:ef:fd:c5:1b:69:d6:
                    68:b6:ac:ed:69:0b:4e:f2:4c:37:9c:14:5a:00:3f:
                    4e:5b:bc:c6:de:29:dd:83:dc:0a:e2:65:4d:19:ab:
                    0f:0b:2d:e2:96:63:6d:f6:9d:44:d6:69:b1:19:e5:
                    22:02:a5:fb:b9:c1:ff:02:7b:70:5f:95:2c:27:4b:
                    72:07:73:96:e9:8c:12:fc:44:f5:b7:c3:cd:b9:c4:
                    47:97:05:e9:71:ff:f3:38:29:5b:12:ee:f5:da:67:
                    9f:eb:51:17:52:ed:02:d8:93:08:46:18:fc:4c:63:
                    6f:01
                Exponent: 65537 (0x10001)
        X509v3 extensions:
            X509v3 Basic Constraints: 
                CA:FALSE
            X509v3 Subject Key Identifier: 
                78:54:E6:C5:1A:0B:2C:B8:93:55:1A:1E:EB:EF:21:54:A3:17:58:86
            X509v3 Authority Key Identifier: 
                keyid:1A:DC:98:F2:69:C1:F7:C8:1D:21:43:B0:3C:79:50:4D:D8:2B:87:54
                DirName:/C=US/ST=California/L=San Francisco/O=Copyleft Certificate Co/OU=My Organizational Unit/CN=ChangeMe/emailAddress=me@example.net
                serial:8C:9B:8E:88:7A:AC:6D:8B

            X509v3 Extended Key Usage: 
                TLS Web Client Authentication
            X509v3 Key Usage: 
                Digital Signature
    Signature Algorithm: sha256WithRSAEncryption
         3a:6e:ca:ca:f2:52:23:3d:24:7e:42:ab:3c:b9:b9:44:a8:8e:
         62:79:32:5a:42:de:15:80:f7:b4:49:d8:9b:e2:21:f6:37:61:
         85:b7:3d:9d:0b:ad:f2:80:87:27:b2:13:f1:12:fa:e9:27:12:
         15:47:67:3a:54:1e:65:c5:83:46:86:b2:f2:81:84:b0:17:b1:
         82:2c:b4:d1:0b:1c:0a:52:b6:8e:49:9e:32:07:e4:44:e8:c6:
         e5:a3:73:37:b1:d6:3d:03:80:2a:e2:d2:cf:34:51:25:e9:c3:
         fa:6e:38:f7:c1:64:ae:f3:d5:db:4f:24:fc:bb:91:e8:b6:2f:
         98:6a:a4:b0:52:81:0f:b0:9d:ba:7d:99:7c:29:e9:81:0c:16:
         4c:af:61:57:b7:41:5b:8a:f7:67:1d:1f:a2:73:33:ab:a2:06:
         26:65:9f:44:67:69:0b:43:f3:84:49:cc:1b:ae:1f:bc:8f:ee:
         62:96:08:66:82:54:64:96:bc:4d:74:38:99:ed:97:f7:a6:2d:
         84:b5:c3:c1:72:69:f4:f5:39:87:3e:14:49:c4:85:e3:07:7d:
         78:65:71:0a:46:68:17:49:b5:a7:24:16:8a:a8:cd:8b:19:63:
         68:fc:21:fa:e6:da:72:b7:c1:7c:73:82:6b:fe:78:fe:f7:5b:
         7a:a4:be:4c
-----BEGIN CERTIFICATE-----
MIIFLzCCBBegAwIBAgIQYQkuFm+DWrgvNHfIk2UlGzANBgkqhkiG9w0BAQsFADCB
rzELMAkGA1UEBhMCVVMxEzARBgNVBAgMCkNhbGlmb3JuaWExFjAUBgNVBAcMDVNh
biBGcmFuY2lzY28xIDAeBgNVBAoMF0NvcHlsZWZ0IENlcnRpZmljYXRlIENvMR8w
HQYDVQQLDBZNeSBPcmdhbml6YXRpb25hbCBVbml0MREwDwYDVQQDDAhDaGFuZ2VN
ZTEdMBsGCSqGSIb3DQEJARYObWVAZXhhbXBsZS5uZXQwHhcNMjMxMTEzMTExMjQx
WhcNMjQxMTEyMTExMjQxWjCBuzELMAkGA1UEBhMCVVMxCzAJBgNVBAgMAk9IMRMw
EQYDVQQHDApDaW5jaW5uYXRpMSEwHwYDVQQKDBhVbml2ZXJzaXR5IG9mIENpbmNp
bm5hdGkxKjAoBgNVBAsMIURlcHQuIEVsZWMuIENvbXAuIEVuZy4gQ29tcC4gU2Np
LjERMA8GA1UEAwwIY2xpZW50MzkxKDAmBgkqhkiG9w0BCQEWGWZyYW5jb0BnYXVz
cy5lY2Vjcy51Yy5lZHUwggEiMA0GCSqGSIb3DQEBAQUAA4IBDwAwggEKAoIBAQCu
V/wly8OGYlyVsqcmcNhLVXVeeYC58Sr6ErQ6LuRjQrwb+ouqp+atm2Wdnw5IXS3E
khXp2vRsKEsjyUOtCb89Xm1HShWMkGdhXGmusq4WTBep0CnxcsusdOFH4+iSBK/8
6M6jS2Bqd5E+rJaEP2AkWwHtxynrSnMkt57BdvdH9Alw2Gd1wrUKyPlvKzO3Pu/9
xRtp1mi2rO1pC07yTDecFFoAP05bvMbeKd2D3AriZU0Zqw8LLeKWY232nUTWabEZ
5SICpfu5wf8Ce3BflSwnS3IHc5bpjBL8RPW3w825xEeXBelx//M4KVsS7vXaZ5/r
URdS7QLYkwhGGPxMY28BAgMBAAGjggE3MIIBMzAJBgNVHRMEAjAAMB0GA1UdDgQW
BBR4VObFGgssuJNVGh7r7yFUoxdYhjCB5AYDVR0jBIHcMIHZgBQa3JjyacH3yB0h
Q7A8eVBN2CuHVKGBtaSBsjCBrzELMAkGA1UEBhMCVVMxEzARBgNVBAgMCkNhbGlm
b3JuaWExFjAUBgNVBAcMDVNhbiBGcmFuY2lzY28xIDAeBgNVBAoMF0NvcHlsZWZ0
IENlcnRpZmljYXRlIENvMR8wHQYDVQQLDBZNeSBPcmdhbml6YXRpb25hbCBVbml0
MREwDwYDVQQDDAhDaGFuZ2VNZTEdMBsGCSqGSIb3DQEJARYObWVAZXhhbXBsZS5u
ZXSCCQCMm46IeqxtizATBgNVHSUEDDAKBggrBgEFBQcDAjALBgNVHQ8EBAMCB4Aw
DQYJKoZIhvcNAQELBQADggEBADpuysryUiM9JH5Cqzy5uUSojmJ5MlpC3hWA97RJ
2JviIfY3YYW3PZ0LrfKAhyeyE/ES+uknEhVHZzpUHmXFg0aGsvKBhLAXsYIstNEL
HApSto5JnjIH5EToxuWjczex1j0DgCri0s80USXpw/puOPfBZK7z1dtPJPy7kei2
L5hqpLBSgQ+wnbp9mXwp6YEMFkyvYVe3QVuK92cdH6JzM6uiBiZln0RnaQtD84RJ
zBuuH7yP7mKWCGaCVGSWvE10OJntl/emLYS1w8FyafT1OYc+FEnEheMHfXhlcQpG
aBdJtackFoqozYsZY2j8Ifrm2nK3wXxzgmv+eP73W3qkvkw=
-----END CERTIFICATE-----
