Certificate:
    Data:
        Version: 3 (0x2)
        Serial Number:
            72:ef:a7:9d:79:11:88:26:95:ee:bf:7b:01:73:44:74
    Signature Algorithm: sha256WithRSAEncryption
        Issuer: C=US, ST=California, L=San Francisco, O=Copyleft Certificate Co, OU=My Organizational Unit, CN=ChangeMe/emailAddress=me@example.net
        Validity
            Not Before: Jan 23 18:30:02 2021 GMT
            Not After : Jan 23 18:30:02 2022 GMT
        Subject: C=US, ST=OH, L=Cincinnati, O=University of Cincinnati, OU=Dept. Electrical Eng. and Computer Sci., CN=client117/emailAddress=franco@gauss.ececs.uc.edu
        Subject Public Key Info:
            Public Key Algorithm: rsaEncryption
                Public-Key: (2048 bit)
                Modulus:
                    00:a2:51:cb:08:fe:54:ae:6e:6d:2e:66:68:95:d3:
                    b7:63:eb:aa:39:df:3c:c9:47:ed:13:45:cc:85:eb:
                    70:13:23:cf:c1:88:f1:d4:65:b8:ed:54:31:5a:a8:
                    dc:d9:b8:31:38:a8:65:55:ab:cd:05:9e:46:29:4f:
                    8d:b1:76:5a:d8:c4:e9:27:f6:c7:16:84:d1:31:ff:
                    41:7e:5d:f0:9b:60:95:c5:ac:86:5f:4d:75:3f:5d:
                    70:14:c2:e5:e9:49:61:64:db:6e:46:d6:63:58:8d:
                    cd:4b:71:ce:23:f9:75:9b:8f:b8:53:76:24:96:a4:
                    18:89:98:bb:4b:21:bb:ef:ad:b3:f5:1a:a9:e4:b2:
                    f3:08:22:d4:03:86:f4:1b:46:75:a2:d9:59:64:8a:
                    a2:83:16:0c:5c:78:8a:cd:71:3b:70:e9:a3:27:c0:
                    a3:30:9a:bc:2f:0a:a1:f2:e6:e6:ca:7e:24:4f:b0:
                    df:6d:18:97:fc:40:43:ce:d2:30:a6:e8:39:43:54:
                    b1:c2:c4:1c:68:99:a7:ad:ab:76:4a:d9:73:8a:eb:
                    ec:42:62:2d:11:60:f0:83:06:a5:96:c8:7b:9b:fe:
                    da:03:ef:91:bc:e0:19:9d:1f:34:38:36:86:3a:71:
                    68:0d:af:90:27:2c:ba:e4:e7:bc:c3:72:8b:ce:88:
                    e8:cd
                Exponent: 65537 (0x10001)
        X509v3 extensions:
            X509v3 Basic Constraints: 
                CA:FALSE
            X509v3 Subject Key Identifier: 
                21:60:3C:03:91:D4:8E:DE:9E:0E:B0:8D:8A:89:E7:6B:0F:EA:AF:96
            X509v3 Authority Key Identifier: 
                keyid:EF:DC:B6:3D:4B:FD:A7:87:05:C5:22:3D:8B:DC:BF:99:2A:EE:E4:DB
                DirName:/C=US/ST=California/L=San Francisco/O=Copyleft Certificate Co/OU=My Organizational Unit/CN=ChangeMe/emailAddress=me@example.net
                serial:87:1E:1D:DC:6B:8C:66:88

            X509v3 Extended Key Usage: 
                TLS Web Client Authentication
            X509v3 Key Usage: 
                Digital Signature
    Signature Algorithm: sha256WithRSAEncryption
         31:53:16:df:45:3d:f1:3e:89:ce:8a:f9:25:73:06:6c:4f:65:
         4d:bb:55:bd:2c:f3:9d:6b:8d:b0:2b:59:9d:07:3d:2f:38:53:
         90:5f:6f:b8:11:59:d1:c2:5f:0f:13:39:46:3e:9b:3e:63:06:
         62:bf:9e:59:8e:90:1b:ec:3d:71:61:d9:56:3b:a2:b5:12:91:
         10:9b:e2:e9:d3:e0:ad:4f:63:c9:ed:17:3c:77:a2:89:be:dc:
         a8:74:b2:6d:88:5a:0f:ca:a8:63:5e:57:17:ef:09:dd:82:12:
         4e:fc:76:42:9e:f9:d1:03:fa:39:b8:12:68:c5:af:4d:11:6d:
         39:7a:b7:87:93:cf:34:36:e7:0f:44:93:70:1b:ea:1b:ee:dd:
         83:34:4b:52:36:93:cb:22:91:c2:e4:e5:34:25:80:b0:d3:4d:
         08:84:e5:f8:bf:a4:c7:02:97:bb:8c:71:39:03:79:b3:02:b5:
         0c:4d:b0:4e:f5:39:7e:cd:1d:f4:91:76:9c:3c:78:56:f1:5a:
         82:ef:f4:2c:c2:91:90:9c:00:d2:c1:cb:6a:31:d8:19:7a:39:
         03:4d:50:c5:48:b5:26:65:0b:99:8a:7e:14:90:9f:ca:07:21:
         70:28:cf:ac:40:d7:07:ae:06:5a:d4:29:c7:48:d0:fd:b1:0e:
         97:82:cc:25
-----BEGIN CERTIFICATE-----
MIIFNjCCBB6gAwIBAgIQcu+nnXkRiCaV7r97AXNEdDANBgkqhkiG9w0BAQsFADCB
rzELMAkGA1UEBhMCVVMxEzARBgNVBAgMCkNhbGlmb3JuaWExFjAUBgNVBAcMDVNh
biBGcmFuY2lzY28xIDAeBgNVBAoMF0NvcHlsZWZ0IENlcnRpZmljYXRlIENvMR8w
HQYDVQQLDBZNeSBPcmdhbml6YXRpb25hbCBVbml0MREwDwYDVQQDDAhDaGFuZ2VN
ZTEdMBsGCSqGSIb3DQEJARYObWVAZXhhbXBsZS5uZXQwHhcNMjEwMTIzMTgzMDAy
WhcNMjIwMTIzMTgzMDAyWjCBwjELMAkGA1UEBhMCVVMxCzAJBgNVBAgMAk9IMRMw
EQYDVQQHDApDaW5jaW5uYXRpMSEwHwYDVQQKDBhVbml2ZXJzaXR5IG9mIENpbmNp
bm5hdGkxMDAuBgNVBAsMJ0RlcHQuIEVsZWN0cmljYWwgRW5nLiBhbmQgQ29tcHV0
ZXIgU2NpLjESMBAGA1UEAwwJY2xpZW50MTE3MSgwJgYJKoZIhvcNAQkBFhlmcmFu
Y29AZ2F1c3MuZWNlY3MudWMuZWR1MIIBIjANBgkqhkiG9w0BAQEFAAOCAQ8AMIIB
CgKCAQEAolHLCP5Urm5tLmZoldO3Y+uqOd88yUftE0XMhetwEyPPwYjx1GW47VQx
Wqjc2bgxOKhlVavNBZ5GKU+NsXZa2MTpJ/bHFoTRMf9Bfl3wm2CVxayGX011P11w
FMLl6UlhZNtuRtZjWI3NS3HOI/l1m4+4U3YklqQYiZi7SyG7762z9Rqp5LLzCCLU
A4b0G0Z1otlZZIqigxYMXHiKzXE7cOmjJ8CjMJq8Lwqh8ubmyn4kT7DfbRiX/EBD
ztIwpug5Q1SxwsQcaJmnrat2StlziuvsQmItEWDwgwallsh7m/7aA++RvOAZnR80
ODaGOnFoDa+QJyy65Oe8w3KLzojozQIDAQABo4IBNzCCATMwCQYDVR0TBAIwADAd
BgNVHQ4EFgQUIWA8A5HUjt6eDrCNionnaw/qr5YwgeQGA1UdIwSB3DCB2YAU79y2
PUv9p4cFxSI9i9y/mSru5NuhgbWkgbIwga8xCzAJBgNVBAYTAlVTMRMwEQYDVQQI
DApDYWxpZm9ybmlhMRYwFAYDVQQHDA1TYW4gRnJhbmNpc2NvMSAwHgYDVQQKDBdD
b3B5bGVmdCBDZXJ0aWZpY2F0ZSBDbzEfMB0GA1UECwwWTXkgT3JnYW5pemF0aW9u
YWwgVW5pdDERMA8GA1UEAwwIQ2hhbmdlTWUxHTAbBgkqhkiG9w0BCQEWDm1lQGV4
YW1wbGUubmV0ggkAhx4d3GuMZogwEwYDVR0lBAwwCgYIKwYBBQUHAwIwCwYDVR0P
BAQDAgeAMA0GCSqGSIb3DQEBCwUAA4IBAQAxUxbfRT3xPonOivklcwZsT2VNu1W9
LPOda42wK1mdBz0vOFOQX2+4EVnRwl8PEzlGPps+YwZiv55ZjpAb7D1xYdlWO6K1
EpEQm+Lp0+CtT2PJ7Rc8d6KJvtyodLJtiFoPyqhjXlcX7wndghJO/HZCnvnRA/o5
uBJoxa9NEW05ereHk880NucPRJNwG+ob7t2DNEtSNpPLIpHC5OU0JYCw000IhOX4
v6THApe7jHE5A3mzArUMTbBO9Tl+zR30kXacPHhW8VqC7/QswpGQnADSwctqMdgZ
ejkDTVDFSLUmZQuZin4UkJ/KByFwKM+sQNcHrgZa1CnHSND9sQ6Xgswl
-----END CERTIFICATE-----
