Certificate:
    Data:
        Version: 3 (0x2)
        Serial Number:
            98:11:2a:c9:dd:de:bf:73:c3:eb:61:25:24:10:e5:4a
    Signature Algorithm: sha256WithRSAEncryption
        Issuer: C=US, ST=California, L=San Francisco, O=Copyleft Certificate Co, OU=My Organizational Unit, CN=ChangeMe/emailAddress=me@example.net
        Validity
            Not Before: Nov 13 11:13:17 2023 GMT
            Not After : Nov 12 11:13:17 2024 GMT
        Subject: C=US, ST=OH, L=Cincinnati, O=University of Cincinnati, OU=Dept. Elec. Comp. Eng. Comp. Sci., CN=client48/emailAddress=franco@gauss.ececs.uc.edu
        Subject Public Key Info:
            Public Key Algorithm: rsaEncryption
                Public-Key: (2048 bit)
                Modulus:
                    00:af:cc:f8:b0:4a:bb:76:5b:01:b8:fa:6c:85:93:
                    77:40:68:50:ff:a6:d6:3b:d2:49:58:8e:bd:9f:6e:
                    f6:b1:f4:d6:a9:4c:22:8d:64:2b:c3:7d:25:ea:09:
                    fe:ac:ca:ae:af:a1:96:89:67:50:a4:a8:0f:7a:f8:
                    a4:40:2d:14:a9:0e:c5:ba:b0:82:33:2e:c2:3a:99:
                    1e:2a:b6:9e:b2:f5:f9:71:09:21:6f:20:f3:92:12:
                    97:f3:64:30:94:d4:14:53:5d:c9:1e:37:d8:e6:50:
                    63:73:4c:c6:73:a5:db:4e:a9:a6:a1:7b:39:e0:22:
                    2e:28:38:a5:81:4f:f6:9c:c5:b5:8c:98:4e:7e:22:
                    62:29:5a:41:2f:04:d9:32:fe:5b:f4:8f:65:9f:3b:
                    82:21:a3:7d:d9:d3:81:20:b5:8b:6f:04:3a:39:cd:
                    41:96:9d:27:fc:4f:d8:d1:2f:7d:e5:01:41:e8:72:
                    0b:50:6b:99:35:93:db:5c:b2:0b:f2:1e:20:96:13:
                    ed:ec:30:93:28:4c:fc:91:8a:f4:29:db:80:84:89:
                    91:8a:30:75:b7:2d:46:3b:02:22:eb:b8:5b:33:9c:
                    e3:11:27:9b:88:ab:b9:20:72:3d:15:ec:37:0b:25:
                    c4:e9:43:47:9c:c5:44:f1:c1:24:8f:d0:de:09:38:
                    18:1b
                Exponent: 65537 (0x10001)
        X509v3 extensions:
            X509v3 Basic Constraints: 
                CA:FALSE
            X509v3 Subject Key Identifier: 
                95:24:93:11:8A:74:93:EE:DD:45:8A:DC:BE:B5:D6:05:13:66:4C:7A
            X509v3 Authority Key Identifier: 
                keyid:1A:DC:98:F2:69:C1:F7:C8:1D:21:43:B0:3C:79:50:4D:D8:2B:87:54
                DirName:/C=US/ST=California/L=San Francisco/O=Copyleft Certificate Co/OU=My Organizational Unit/CN=ChangeMe/emailAddress=me@example.net
                serial:8C:9B:8E:88:7A:AC:6D:8B

            X509v3 Extended Key Usage: 
                TLS Web Client Authentication
            X509v3 Key Usage: 
                Digital Signature
    Signature Algorithm: sha256WithRSAEncryption
         82:b7:b5:fa:4b:09:5c:74:fe:cb:28:57:2e:83:3d:30:10:48:
         1e:7f:0e:fc:e5:28:74:c4:e7:71:c4:fa:cf:d7:8d:9a:78:f6:
         f1:69:b9:ea:29:84:bb:b9:e9:b2:c1:f7:d6:d6:99:bf:a3:80:
         64:92:8c:23:42:cf:59:46:a0:0d:78:c2:a5:8a:de:84:87:31:
         f6:c2:af:6d:f6:b4:8c:96:13:89:fe:5e:e6:bf:8f:4b:37:7e:
         7b:b6:7a:d2:82:97:02:d7:a2:ec:a2:96:a9:e7:5b:d8:bb:10:
         06:db:fa:ec:2f:73:7e:40:c6:97:59:93:00:6f:7f:80:6d:a9:
         a0:45:7e:e1:b0:5d:df:0e:28:f6:47:59:e5:10:d6:fb:f4:f3:
         51:3e:ac:8f:e1:ab:a0:ab:15:ab:03:6b:bc:67:c3:1a:26:52:
         95:dc:54:bd:c9:ae:6a:bd:3f:d6:21:36:aa:65:3f:17:a7:0c:
         ee:72:4b:6a:8b:4c:e6:0c:40:60:53:72:d2:4c:fc:cb:54:5b:
         e7:3b:a3:f2:6c:49:af:eb:21:de:63:99:7b:b1:de:6c:fc:bc:
         08:94:2c:e9:76:99:66:a1:a3:56:04:eb:86:7c:fa:e8:68:c6:
         99:6e:c8:da:d3:6c:f3:b6:a7:63:f2:4b:cb:40:05:fa:cb:6a:
         d3:69:b7:ee
-----BEGIN CERTIFICATE-----
MIIFMDCCBBigAwIBAgIRAJgRKsnd3r9zw+thJSQQ5UowDQYJKoZIhvcNAQELBQAw
ga8xCzAJBgNVBAYTAlVTMRMwEQYDVQQIDApDYWxpZm9ybmlhMRYwFAYDVQQHDA1T
YW4gRnJhbmNpc2NvMSAwHgYDVQQKDBdDb3B5bGVmdCBDZXJ0aWZpY2F0ZSBDbzEf
MB0GA1UECwwWTXkgT3JnYW5pemF0aW9uYWwgVW5pdDERMA8GA1UEAwwIQ2hhbmdl
TWUxHTAbBgkqhkiG9w0BCQEWDm1lQGV4YW1wbGUubmV0MB4XDTIzMTExMzExMTMx
N1oXDTI0MTExMjExMTMxN1owgbsxCzAJBgNVBAYTAlVTMQswCQYDVQQIDAJPSDET
MBEGA1UEBwwKQ2luY2lubmF0aTEhMB8GA1UECgwYVW5pdmVyc2l0eSBvZiBDaW5j
aW5uYXRpMSowKAYDVQQLDCFEZXB0LiBFbGVjLiBDb21wLiBFbmcuIENvbXAuIFNj
aS4xETAPBgNVBAMMCGNsaWVudDQ4MSgwJgYJKoZIhvcNAQkBFhlmcmFuY29AZ2F1
c3MuZWNlY3MudWMuZWR1MIIBIjANBgkqhkiG9w0BAQEFAAOCAQ8AMIIBCgKCAQEA
r8z4sEq7dlsBuPpshZN3QGhQ/6bWO9JJWI69n272sfTWqUwijWQrw30l6gn+rMqu
r6GWiWdQpKgPevikQC0UqQ7FurCCMy7COpkeKraesvX5cQkhbyDzkhKX82QwlNQU
U13JHjfY5lBjc0zGc6XbTqmmoXs54CIuKDilgU/2nMW1jJhOfiJiKVpBLwTZMv5b
9I9lnzuCIaN92dOBILWLbwQ6Oc1Blp0n/E/Y0S995QFB6HILUGuZNZPbXLIL8h4g
lhPt7DCTKEz8kYr0KduAhImRijB1ty1GOwIi67hbM5zjESebiKu5IHI9Few3CyXE
6UNHnMVE8cEkj9DeCTgYGwIDAQABo4IBNzCCATMwCQYDVR0TBAIwADAdBgNVHQ4E
FgQUlSSTEYp0k+7dRYrcvrXWBRNmTHowgeQGA1UdIwSB3DCB2YAUGtyY8mnB98gd
IUOwPHlQTdgrh1ShgbWkgbIwga8xCzAJBgNVBAYTAlVTMRMwEQYDVQQIDApDYWxp
Zm9ybmlhMRYwFAYDVQQHDA1TYW4gRnJhbmNpc2NvMSAwHgYDVQQKDBdDb3B5bGVm
dCBDZXJ0aWZpY2F0ZSBDbzEfMB0GA1UECwwWTXkgT3JnYW5pemF0aW9uYWwgVW5p
dDERMA8GA1UEAwwIQ2hhbmdlTWUxHTAbBgkqhkiG9w0BCQEWDm1lQGV4YW1wbGUu
bmV0ggkAjJuOiHqsbYswEwYDVR0lBAwwCgYIKwYBBQUHAwIwCwYDVR0PBAQDAgeA
MA0GCSqGSIb3DQEBCwUAA4IBAQCCt7X6SwlcdP7LKFcugz0wEEgefw785Sh0xOdx
xPrP142aePbxabnqKYS7uemywffW1pm/o4BkkowjQs9ZRqANeMKlit6EhzH2wq9t
9rSMlhOJ/l7mv49LN357tnrSgpcC16Lsopap51vYuxAG2/rsL3N+QMaXWZMAb3+A
bamgRX7hsF3fDij2R1nlENb79PNRPqyP4augqxWrA2u8Z8MaJlKV3FS9ya5qvT/W
ITaqZT8Xpwzucktqi0zmDEBgU3LSTPzLVFvnO6PybEmv6yHeY5l7sd5s/LwIlCzp
dplmoaNWBOuGfProaMaZbsja02zztqdj8kvLQAX6y2rTabfu
-----END CERTIFICATE-----
