Certificate:
    Data:
        Version: 3 (0x2)
        Serial Number:
            d1:36:54:ab:00:e7:71:0f:89:e4:f4:79:b0:28:80:2e
    Signature Algorithm: sha256WithRSAEncryption
        Issuer: C=US, ST=California, L=San Francisco, O=Copyleft Certificate Co, OU=My Organizational Unit, CN=ChangeMe/emailAddress=me@example.net
        Validity
            Not Before: Nov 13 11:12:05 2023 GMT
            Not After : Nov 12 11:12:05 2024 GMT
        Subject: C=US, ST=OH, L=Cincinnati, O=University of Cincinnati, OU=Dept. Elec. Comp. Eng. Comp. Sci., CN=client30/emailAddress=franco@gauss.ececs.uc.edu
        Subject Public Key Info:
            Public Key Algorithm: rsaEncryption
                Public-Key: (2048 bit)
                Modulus:
                    00:bd:a4:de:ce:0c:5c:dc:9f:f8:ce:30:09:a0:93:
                    fd:aa:0c:b8:45:bf:1a:ec:49:87:84:91:cc:f5:9c:
                    8e:c5:f2:84:2d:a0:dc:9d:82:6f:ee:9b:df:83:30:
                    48:21:2a:5c:82:d4:04:32:81:9f:8f:8a:55:7d:90:
                    fa:f5:ad:99:6c:9c:6c:f4:83:be:23:c2:f4:c9:59:
                    1e:fa:43:a0:b7:f1:04:1b:e1:f2:b2:1f:b0:fa:db:
                    2c:cf:85:9b:46:de:09:6b:53:7e:f7:55:53:7b:1a:
                    6c:29:b7:c7:a8:29:e6:47:e9:ad:9a:91:da:12:b5:
                    91:8a:df:dc:13:a7:d4:97:25:8e:59:5f:84:1e:0f:
                    c9:28:07:0c:b9:fb:f6:91:36:5f:b7:f2:f9:db:12:
                    77:5d:d3:3d:6e:ee:70:df:a5:65:c7:b6:47:27:d9:
                    d8:75:1f:45:66:c2:b7:3c:e9:12:84:30:38:5a:b9:
                    06:9f:4e:31:83:27:be:84:ac:f4:88:d6:3d:be:e3:
                    17:2d:f3:e2:33:55:e7:3b:72:dc:a0:b5:bd:82:f4:
                    5c:20:c2:31:a8:e9:f4:25:08:77:db:37:32:ba:29:
                    b9:b9:52:33:55:3d:f3:e8:77:58:58:e0:a5:86:12:
                    40:1a:04:46:5f:54:47:5e:1d:1f:c0:60:8a:d6:35:
                    34:cf
                Exponent: 65537 (0x10001)
        X509v3 extensions:
            X509v3 Basic Constraints: 
                CA:FALSE
            X509v3 Subject Key Identifier: 
                24:2A:86:D7:43:C4:E6:24:88:6C:50:B1:19:43:15:62:D1:0F:19:DB
            X509v3 Authority Key Identifier: 
                keyid:1A:DC:98:F2:69:C1:F7:C8:1D:21:43:B0:3C:79:50:4D:D8:2B:87:54
                DirName:/C=US/ST=California/L=San Francisco/O=Copyleft Certificate Co/OU=My Organizational Unit/CN=ChangeMe/emailAddress=me@example.net
                serial:8C:9B:8E:88:7A:AC:6D:8B

            X509v3 Extended Key Usage: 
                TLS Web Client Authentication
            X509v3 Key Usage: 
                Digital Signature
    Signature Algorithm: sha256WithRSAEncryption
         b6:e4:04:c9:dd:55:5c:57:e2:d9:7b:3a:05:ea:f2:52:57:28:
         3b:0f:ed:6f:6d:d1:a7:3d:2d:a4:c8:9b:a3:ac:b0:17:8c:05:
         35:18:af:e3:3f:a5:b0:49:eb:fb:69:99:55:83:8e:37:32:db:
         1b:51:f0:d3:e4:b9:81:49:c8:96:86:88:e8:ea:f5:9f:0d:f5:
         22:5d:92:ed:6b:ff:4e:88:61:18:bb:96:d2:21:03:3d:a3:24:
         b9:9b:b5:b5:4e:74:0c:48:cc:f6:17:97:07:e8:c4:79:cb:3b:
         8c:18:15:eb:ee:6d:57:86:58:b1:bb:e2:b5:c7:39:1d:24:24:
         25:d8:02:0d:f8:e6:6a:48:07:b9:9f:b7:99:75:01:47:83:be:
         a3:72:83:dd:6d:8d:28:5c:93:dd:ac:b3:20:ff:88:ab:c9:39:
         01:72:5b:96:1d:f0:24:87:57:04:06:68:dc:39:cf:d3:ef:47:
         f5:a8:ec:41:9a:bf:87:44:fd:03:d4:c2:0a:2f:ed:16:cd:e5:
         12:52:d3:fa:80:0e:cb:56:fd:93:e8:fb:50:4c:0d:9a:46:2c:
         a8:93:7d:bc:b7:23:1f:7b:8b:26:f8:a5:5c:d2:49:cc:e0:63:
         72:c8:37:e4:55:50:56:bc:2b:2c:b1:23:6d:85:52:da:26:0a:
         d3:f4:d2:fb
-----BEGIN CERTIFICATE-----
MIIFMDCCBBigAwIBAgIRANE2VKsA53EPieT0ebAogC4wDQYJKoZIhvcNAQELBQAw
ga8xCzAJBgNVBAYTAlVTMRMwEQYDVQQIDApDYWxpZm9ybmlhMRYwFAYDVQQHDA1T
YW4gRnJhbmNpc2NvMSAwHgYDVQQKDBdDb3B5bGVmdCBDZXJ0aWZpY2F0ZSBDbzEf
MB0GA1UECwwWTXkgT3JnYW5pemF0aW9uYWwgVW5pdDERMA8GA1UEAwwIQ2hhbmdl
TWUxHTAbBgkqhkiG9w0BCQEWDm1lQGV4YW1wbGUubmV0MB4XDTIzMTExMzExMTIw
NVoXDTI0MTExMjExMTIwNVowgbsxCzAJBgNVBAYTAlVTMQswCQYDVQQIDAJPSDET
MBEGA1UEBwwKQ2luY2lubmF0aTEhMB8GA1UECgwYVW5pdmVyc2l0eSBvZiBDaW5j
aW5uYXRpMSowKAYDVQQLDCFEZXB0LiBFbGVjLiBDb21wLiBFbmcuIENvbXAuIFNj
aS4xETAPBgNVBAMMCGNsaWVudDMwMSgwJgYJKoZIhvcNAQkBFhlmcmFuY29AZ2F1
c3MuZWNlY3MudWMuZWR1MIIBIjANBgkqhkiG9w0BAQEFAAOCAQ8AMIIBCgKCAQEA
vaTezgxc3J/4zjAJoJP9qgy4Rb8a7EmHhJHM9ZyOxfKELaDcnYJv7pvfgzBIISpc
gtQEMoGfj4pVfZD69a2ZbJxs9IO+I8L0yVke+kOgt/EEG+Hysh+w+tssz4WbRt4J
a1N+91VTexpsKbfHqCnmR+mtmpHaErWRit/cE6fUlyWOWV+EHg/JKAcMufv2kTZf
t/L52xJ3XdM9bu5w36Vlx7ZHJ9nYdR9FZsK3POkShDA4WrkGn04xgye+hKz0iNY9
vuMXLfPiM1XnO3LcoLW9gvRcIMIxqOn0JQh32zcyuim5uVIzVT3z6HdYWOClhhJA
GgRGX1RHXh0fwGCK1jU0zwIDAQABo4IBNzCCATMwCQYDVR0TBAIwADAdBgNVHQ4E
FgQUJCqG10PE5iSIbFCxGUMVYtEPGdswgeQGA1UdIwSB3DCB2YAUGtyY8mnB98gd
IUOwPHlQTdgrh1ShgbWkgbIwga8xCzAJBgNVBAYTAlVTMRMwEQYDVQQIDApDYWxp
Zm9ybmlhMRYwFAYDVQQHDA1TYW4gRnJhbmNpc2NvMSAwHgYDVQQKDBdDb3B5bGVm
dCBDZXJ0aWZpY2F0ZSBDbzEfMB0GA1UECwwWTXkgT3JnYW5pemF0aW9uYWwgVW5p
dDERMA8GA1UEAwwIQ2hhbmdlTWUxHTAbBgkqhkiG9w0BCQEWDm1lQGV4YW1wbGUu
bmV0ggkAjJuOiHqsbYswEwYDVR0lBAwwCgYIKwYBBQUHAwIwCwYDVR0PBAQDAgeA
MA0GCSqGSIb3DQEBCwUAA4IBAQC25ATJ3VVcV+LZezoF6vJSVyg7D+1vbdGnPS2k
yJujrLAXjAU1GK/jP6WwSev7aZlVg443MtsbUfDT5LmBSciWhojo6vWfDfUiXZLt
a/9OiGEYu5bSIQM9oyS5m7W1TnQMSMz2F5cH6MR5yzuMGBXr7m1Xhlixu+K1xzkd
JCQl2AIN+OZqSAe5n7eZdQFHg76jcoPdbY0oXJPdrLMg/4iryTkBcluWHfAkh1cE
BmjcOc/T70f1qOxBmr+HRP0D1MIKL+0WzeUSUtP6gA7LVv2T6PtQTA2aRiyok328
tyMfe4sm+KVc0knM4GNyyDfkVVBWvCsssSNthVLaJgrT9NL7
-----END CERTIFICATE-----
