Certificate:
    Data:
        Version: 3 (0x2)
        Serial Number:
            01:7b:d6:9a:78:ba:d1:df:7a:8a:b6:31:fc:c2:c8:33
    Signature Algorithm: sha256WithRSAEncryption
        Issuer: C=US, ST=California, L=San Francisco, O=Copyleft Certificate Co, OU=My Organizational Unit, CN=ChangeMe/emailAddress=me@example.net
        Validity
            Not Before: Nov 10 17:27:00 2023 GMT
            Not After : Nov  9 17:27:00 2024 GMT
        Subject: C=US, ST=OH, L=Cincinnati, O=University of Cincinnati, OU=Dept_Elec_Com_ Eng_Com_Sci., CN=client39/emailAddress=franco@gauss.ececs.uc.edu
        Subject Public Key Info:
            Public Key Algorithm: rsaEncryption
                Public-Key: (2048 bit)
                Modulus:
                    00:c5:3f:f5:04:df:de:f5:e8:31:9b:fd:2e:8e:03:
                    8d:1c:95:fa:8d:86:1b:6d:8b:e9:3b:8f:4f:cd:32:
                    ad:b6:72:3b:26:ec:e6:8d:26:d8:0a:8d:ad:f9:c6:
                    d9:79:66:08:a7:df:40:ed:b5:ed:aa:8b:21:6a:e4:
                    02:07:8d:36:bf:00:03:7a:1a:db:0a:f0:b4:8d:f0:
                    5e:92:9c:c7:fe:a1:a9:5d:d8:c0:b2:ef:79:83:89:
                    f3:9d:be:06:dd:90:07:c1:15:64:e6:49:32:b2:ca:
                    7f:ca:1c:f8:80:1e:9b:b6:24:9d:af:3d:a2:40:43:
                    de:a9:46:b0:0b:6d:32:c9:10:3f:e6:7f:8c:7d:75:
                    89:68:7d:5f:85:e2:1b:48:47:90:75:6a:72:46:2f:
                    20:a1:86:b8:eb:d5:b2:57:88:80:90:f6:ff:68:81:
                    04:ed:e8:5a:07:df:16:f7:c7:d7:ba:b6:30:a4:df:
                    23:a4:d6:2f:ce:5d:10:1d:dc:c6:63:32:e3:4d:be:
                    f7:8a:45:02:0c:d1:40:f0:4d:a3:f8:c1:8c:93:a4:
                    b5:4f:c4:dd:79:21:e9:79:c9:7e:df:24:1f:64:b1:
                    30:36:1a:c6:a8:c5:e7:ac:b1:c9:ec:c6:f9:21:d6:
                    bc:04:20:29:b6:b3:b6:b9:37:b4:93:68:9f:46:c5:
                    3a:39
                Exponent: 65537 (0x10001)
        X509v3 extensions:
            X509v3 Basic Constraints: 
                CA:FALSE
            X509v3 Subject Key Identifier: 
                17:18:72:36:EC:09:B7:A8:1D:46:B5:A1:56:1B:9A:7B:78:3A:BB:46
            X509v3 Authority Key Identifier: 
                keyid:D9:D4:8C:20:BC:EB:38:17:D5:4B:52:F8:AA:C5:D2:44:DD:A2:6A:3B
                DirName:/C=US/ST=California/L=San Francisco/O=Copyleft Certificate Co/OU=My Organizational Unit/CN=ChangeMe/emailAddress=me@example.net
                serial:C2:48:34:65:BF:AB:EB:AA

            X509v3 Extended Key Usage: 
                TLS Web Client Authentication
            X509v3 Key Usage: 
                Digital Signature
    Signature Algorithm: sha256WithRSAEncryption
         7a:ae:57:35:ad:3e:fc:51:b1:49:bc:86:a3:28:62:63:db:e0:
         0f:a1:87:47:a7:57:33:ca:4d:45:9c:3c:c3:31:9b:31:a8:07:
         40:21:a1:fd:5a:a2:6e:ab:30:f2:6e:d8:64:ba:c8:e3:90:40:
         dd:ae:6e:0b:45:9d:c7:6e:1c:d9:a3:f9:34:d9:a2:f6:06:53:
         df:3f:22:6f:69:0e:51:41:09:15:b1:de:e1:35:a5:10:88:2c:
         05:72:2e:0b:24:71:28:7b:08:71:f4:12:98:01:75:f7:01:64:
         8d:9c:88:24:b7:ac:96:23:29:7d:e5:7c:67:b2:48:51:96:19:
         18:9c:25:57:9a:ad:33:46:a3:42:b6:ed:5a:35:ac:b2:8e:80:
         b9:05:5b:94:1b:06:15:0c:cf:80:ee:39:4e:f7:3c:b4:17:68:
         3d:e5:cf:1e:2d:c8:b8:25:64:c9:bb:b2:7a:ef:56:f7:03:81:
         39:5a:9d:65:dc:67:54:09:09:46:9f:b9:b4:c7:a8:60:98:35:
         bb:26:e7:93:0a:ae:fa:80:05:7f:f8:a0:fc:8a:ab:3f:de:59:
         1c:91:4a:51:5c:a8:09:ef:4b:22:8d:2d:60:37:f9:a2:d2:5e:
         86:db:8e:7c:92:dd:c3:53:db:60:56:41:b4:63:3f:19:7a:7f:
         fe:d4:f5:f1
-----BEGIN CERTIFICATE-----
MIIFKTCCBBGgAwIBAgIQAXvWmni60d96irYx/MLIMzANBgkqhkiG9w0BAQsFADCB
rzELMAkGA1UEBhMCVVMxEzARBgNVBAgMCkNhbGlmb3JuaWExFjAUBgNVBAcMDVNh
biBGcmFuY2lzY28xIDAeBgNVBAoMF0NvcHlsZWZ0IENlcnRpZmljYXRlIENvMR8w
HQYDVQQLDBZNeSBPcmdhbml6YXRpb25hbCBVbml0MREwDwYDVQQDDAhDaGFuZ2VN
ZTEdMBsGCSqGSIb3DQEJARYObWVAZXhhbXBsZS5uZXQwHhcNMjMxMTEwMTcyNzAw
WhcNMjQxMTA5MTcyNzAwWjCBtTELMAkGA1UEBhMCVVMxCzAJBgNVBAgMAk9IMRMw
EQYDVQQHDApDaW5jaW5uYXRpMSEwHwYDVQQKDBhVbml2ZXJzaXR5IG9mIENpbmNp
bm5hdGkxJDAiBgNVBAsMG0RlcHRfRWxlY19Db21fIEVuZ19Db21fU2NpLjERMA8G
A1UEAwwIY2xpZW50MzkxKDAmBgkqhkiG9w0BCQEWGWZyYW5jb0BnYXVzcy5lY2Vj
cy51Yy5lZHUwggEiMA0GCSqGSIb3DQEBAQUAA4IBDwAwggEKAoIBAQDFP/UE3971
6DGb/S6OA40clfqNhhtti+k7j0/NMq22cjsm7OaNJtgKja35xtl5Zgin30Dtte2q
iyFq5AIHjTa/AAN6GtsK8LSN8F6SnMf+oald2MCy73mDifOdvgbdkAfBFWTmSTKy
yn/KHPiAHpu2JJ2vPaJAQ96pRrALbTLJED/mf4x9dYlofV+F4htIR5B1anJGLyCh
hrjr1bJXiICQ9v9ogQTt6FoH3xb3x9e6tjCk3yOk1i/OXRAd3MZjMuNNvveKRQIM
0UDwTaP4wYyTpLVPxN15Iel5yX7fJB9ksTA2Gsaoxeesscnsxvkh1rwEICm2s7a5
N7STaJ9GxTo5AgMBAAGjggE3MIIBMzAJBgNVHRMEAjAAMB0GA1UdDgQWBBQXGHI2
7Am3qB1GtaFWG5p7eDq7RjCB5AYDVR0jBIHcMIHZgBTZ1IwgvOs4F9VLUviqxdJE
3aJqO6GBtaSBsjCBrzELMAkGA1UEBhMCVVMxEzARBgNVBAgMCkNhbGlmb3JuaWEx
FjAUBgNVBAcMDVNhbiBGcmFuY2lzY28xIDAeBgNVBAoMF0NvcHlsZWZ0IENlcnRp
ZmljYXRlIENvMR8wHQYDVQQLDBZNeSBPcmdhbml6YXRpb25hbCBVbml0MREwDwYD
VQQDDAhDaGFuZ2VNZTEdMBsGCSqGSIb3DQEJARYObWVAZXhhbXBsZS5uZXSCCQDC
SDRlv6vrqjATBgNVHSUEDDAKBggrBgEFBQcDAjALBgNVHQ8EBAMCB4AwDQYJKoZI
hvcNAQELBQADggEBAHquVzWtPvxRsUm8hqMoYmPb4A+hh0enVzPKTUWcPMMxmzGo
B0Ahof1aom6rMPJu2GS6yOOQQN2ubgtFncduHNmj+TTZovYGU98/Im9pDlFBCRWx
3uE1pRCILAVyLgskcSh7CHH0EpgBdfcBZI2ciCS3rJYjKX3lfGeySFGWGRicJVea
rTNGo0K27Vo1rLKOgLkFW5QbBhUMz4DuOU73PLQXaD3lzx4tyLglZMm7snrvVvcD
gTlanWXcZ1QJCUafubTHqGCYNbsm55MKrvqABX/4oPyKqz/eWRyRSlFcqAnvSyKN
LWA3+aLSXobbjnyS3cNT22BWQbRjPxl6f/7U9fE=
-----END CERTIFICATE-----
