Certificate:
    Data:
        Version: 3 (0x2)
        Serial Number:
            2a:5f:c9:ae:55:bc:69:a2:b1:90:42:fc:9c:c8:07:ff
    Signature Algorithm: sha256WithRSAEncryption
        Issuer: C=US, ST=California, L=San Francisco, O=Copyleft Certificate Co, OU=My Organizational Unit, CN=ChangeMe/emailAddress=me@example.net
        Validity
            Not Before: Jan 23 18:28:52 2021 GMT
            Not After : Jan 23 18:28:52 2022 GMT
        Subject: C=US, ST=OH, L=Cincinnati, O=University of Cincinnati, OU=Dept. Electrical Eng. and Computer Sci., CN=client68/emailAddress=franco@gauss.ececs.uc.edu
        Subject Public Key Info:
            Public Key Algorithm: rsaEncryption
                Public-Key: (2048 bit)
                Modulus:
                    00:a7:06:a6:16:90:2d:cd:5f:72:2d:84:0a:63:39:
                    7b:82:e6:1f:42:28:b3:ff:ae:3a:80:fb:a4:f9:0b:
                    96:80:3b:33:6d:47:5c:8e:7e:7a:9b:78:09:7b:27:
                    18:3d:cf:26:d5:89:72:a2:b7:a8:27:d8:7e:05:05:
                    43:2c:65:96:0b:ba:24:43:d0:49:e3:fd:83:d7:89:
                    66:58:87:5b:ba:57:80:d7:18:e3:75:a2:83:f2:51:
                    bb:b3:5d:65:62:56:db:05:1c:b9:a9:9c:53:58:28:
                    66:24:8e:24:de:6a:ee:40:e7:6c:b4:9b:9d:9f:77:
                    5c:48:6d:de:1a:36:49:47:f5:c5:80:e7:7b:51:46:
                    c5:c9:18:10:ae:bb:d9:ec:32:d2:1d:f1:5e:30:12:
                    4c:8d:8a:e5:66:39:0e:7f:ae:36:1f:11:ab:9d:6b:
                    99:08:19:e4:13:a6:58:69:26:c8:49:67:18:77:80:
                    67:7a:93:68:48:94:96:53:07:27:ba:57:de:d6:e0:
                    9e:96:6d:37:b3:b9:14:19:aa:d3:5f:64:f3:70:d9:
                    9a:64:2f:92:41:08:5b:65:ae:b3:a2:33:46:6e:6d:
                    d9:0b:d6:bd:e8:c7:77:ac:3d:7e:60:6c:5c:92:95:
                    42:ef:dc:f3:16:61:90:71:92:14:4a:ed:2b:a6:f0:
                    2e:eb
                Exponent: 65537 (0x10001)
        X509v3 extensions:
            X509v3 Basic Constraints: 
                CA:FALSE
            X509v3 Subject Key Identifier: 
                F7:1B:0D:0C:54:95:61:E6:C5:6A:55:DA:A2:F6:B9:D2:DB:CF:30:62
            X509v3 Authority Key Identifier: 
                keyid:EF:DC:B6:3D:4B:FD:A7:87:05:C5:22:3D:8B:DC:BF:99:2A:EE:E4:DB
                DirName:/C=US/ST=California/L=San Francisco/O=Copyleft Certificate Co/OU=My Organizational Unit/CN=ChangeMe/emailAddress=me@example.net
                serial:87:1E:1D:DC:6B:8C:66:88

            X509v3 Extended Key Usage: 
                TLS Web Client Authentication
            X509v3 Key Usage: 
                Digital Signature
    Signature Algorithm: sha256WithRSAEncryption
         59:b5:84:d7:5e:7d:a2:ae:0f:8d:81:ab:d3:bf:39:0e:0e:91:
         ba:a3:39:05:fc:02:6a:6b:a2:72:f8:f0:14:bb:5d:87:4a:1b:
         80:c8:33:d8:65:43:92:a9:b8:c6:c2:6d:04:1b:c9:06:44:da:
         75:ec:b1:7b:23:03:00:91:65:11:07:57:ad:8f:6b:b7:16:95:
         3f:ca:b5:03:11:40:5f:12:b6:f2:b1:bb:07:0f:c5:6e:8b:47:
         29:b8:3c:87:c0:9d:7a:29:51:3e:3b:9a:ee:4a:22:20:9f:dd:
         5c:58:da:ca:0c:14:1a:eb:d5:a5:94:44:71:1f:ac:b9:f8:d1:
         73:4c:d2:fb:dc:70:48:5f:36:63:82:53:48:b5:0c:13:33:db:
         67:5a:8a:1b:e2:61:3b:c9:8f:b5:97:dd:0b:65:93:34:79:c8:
         5d:45:6f:87:3b:ee:1b:de:1f:d2:ed:e8:b2:48:f4:22:ab:5f:
         f2:1c:a5:7c:63:e6:6a:e3:af:cb:b6:69:f5:3c:c3:b6:19:f8:
         38:b3:dc:ac:5b:7c:09:62:dd:75:31:fb:07:db:ce:5a:1b:bf:
         c6:30:74:bd:32:69:83:f0:57:e9:09:3e:e1:f5:43:d7:5e:a2:
         8b:ff:f8:1b:5c:5d:d5:5a:80:3c:e5:81:69:44:06:f3:13:50:
         f6:84:f9:63
-----BEGIN CERTIFICATE-----
MIIFNTCCBB2gAwIBAgIQKl/JrlW8aaKxkEL8nMgH/zANBgkqhkiG9w0BAQsFADCB
rzELMAkGA1UEBhMCVVMxEzARBgNVBAgMCkNhbGlmb3JuaWExFjAUBgNVBAcMDVNh
biBGcmFuY2lzY28xIDAeBgNVBAoMF0NvcHlsZWZ0IENlcnRpZmljYXRlIENvMR8w
HQYDVQQLDBZNeSBPcmdhbml6YXRpb25hbCBVbml0MREwDwYDVQQDDAhDaGFuZ2VN
ZTEdMBsGCSqGSIb3DQEJARYObWVAZXhhbXBsZS5uZXQwHhcNMjEwMTIzMTgyODUy
WhcNMjIwMTIzMTgyODUyWjCBwTELMAkGA1UEBhMCVVMxCzAJBgNVBAgMAk9IMRMw
EQYDVQQHDApDaW5jaW5uYXRpMSEwHwYDVQQKDBhVbml2ZXJzaXR5IG9mIENpbmNp
bm5hdGkxMDAuBgNVBAsMJ0RlcHQuIEVsZWN0cmljYWwgRW5nLiBhbmQgQ29tcHV0
ZXIgU2NpLjERMA8GA1UEAwwIY2xpZW50NjgxKDAmBgkqhkiG9w0BCQEWGWZyYW5j
b0BnYXVzcy5lY2Vjcy51Yy5lZHUwggEiMA0GCSqGSIb3DQEBAQUAA4IBDwAwggEK
AoIBAQCnBqYWkC3NX3IthApjOXuC5h9CKLP/rjqA+6T5C5aAOzNtR1yOfnqbeAl7
Jxg9zybViXKit6gn2H4FBUMsZZYLuiRD0Enj/YPXiWZYh1u6V4DXGON1ooPyUbuz
XWViVtsFHLmpnFNYKGYkjiTeau5A52y0m52fd1xIbd4aNklH9cWA53tRRsXJGBCu
u9nsMtId8V4wEkyNiuVmOQ5/rjYfEauda5kIGeQTplhpJshJZxh3gGd6k2hIlJZT
Bye6V97W4J6WbTezuRQZqtNfZPNw2ZpkL5JBCFtlrrOiM0ZubdkL1r3ox3esPX5g
bFySlULv3PMWYZBxkhRK7Sum8C7rAgMBAAGjggE3MIIBMzAJBgNVHRMEAjAAMB0G
A1UdDgQWBBT3Gw0MVJVh5sVqVdqi9rnS288wYjCB5AYDVR0jBIHcMIHZgBTv3LY9
S/2nhwXFIj2L3L+ZKu7k26GBtaSBsjCBrzELMAkGA1UEBhMCVVMxEzARBgNVBAgM
CkNhbGlmb3JuaWExFjAUBgNVBAcMDVNhbiBGcmFuY2lzY28xIDAeBgNVBAoMF0Nv
cHlsZWZ0IENlcnRpZmljYXRlIENvMR8wHQYDVQQLDBZNeSBPcmdhbml6YXRpb25h
bCBVbml0MREwDwYDVQQDDAhDaGFuZ2VNZTEdMBsGCSqGSIb3DQEJARYObWVAZXhh
bXBsZS5uZXSCCQCHHh3ca4xmiDATBgNVHSUEDDAKBggrBgEFBQcDAjALBgNVHQ8E
BAMCB4AwDQYJKoZIhvcNAQELBQADggEBAFm1hNdefaKuD42Bq9O/OQ4OkbqjOQX8
AmpronL48BS7XYdKG4DIM9hlQ5KpuMbCbQQbyQZE2nXssXsjAwCRZREHV62Pa7cW
lT/KtQMRQF8StvKxuwcPxW6LRym4PIfAnXopUT47mu5KIiCf3VxY2soMFBrr1aWU
RHEfrLn40XNM0vvccEhfNmOCU0i1DBMz22daihviYTvJj7WX3QtlkzR5yF1Fb4c7
7hveH9Lt6LJI9CKrX/IcpXxj5mrjr8u2afU8w7YZ+Diz3KxbfAli3XUx+wfbzlob
v8YwdL0yaYPwV+kJPuH1Q9deoov/+BtcXdVagDzlgWlEBvMTUPaE+WM=
-----END CERTIFICATE-----
