Certificate:
    Data:
        Version: 3 (0x2)
        Serial Number:
            57:57:15:54:47:75:b1:12:6c:cb:6b:49:5d:05:97:66
    Signature Algorithm: sha256WithRSAEncryption
        Issuer: C=US, ST=California, L=San Francisco, O=Copyleft Certificate Co, OU=My Organizational Unit, CN=ChangeMe/emailAddress=me@example.net
        Validity
            Not Before: Nov 10 17:26:00 2023 GMT
            Not After : Nov  9 17:26:00 2024 GMT
        Subject: C=US, ST=OH, L=Cincinnati, O=University of Cincinnati, OU=Dept_Elec_Com_ Eng_Com_Sci., CN=client24/emailAddress=franco@gauss.ececs.uc.edu
        Subject Public Key Info:
            Public Key Algorithm: rsaEncryption
                Public-Key: (2048 bit)
                Modulus:
                    00:b3:9f:b7:d0:37:7f:f9:02:24:a1:28:30:a3:fc:
                    bb:af:a6:d4:13:6d:7f:df:be:56:4d:51:4c:1b:d2:
                    09:b2:5e:47:2e:18:91:e0:c1:86:4d:f2:82:52:04:
                    6e:e1:e4:e4:5f:9c:00:e3:50:97:d0:dd:b1:96:c5:
                    91:bb:d5:ae:19:e0:d0:84:16:f9:01:d8:59:ea:0e:
                    44:e4:0c:71:dc:5b:bd:64:b1:9d:44:47:f3:74:cc:
                    02:b5:f3:e8:e8:1d:c2:9b:86:99:f6:dd:f7:2b:da:
                    af:e8:9c:c2:75:83:f0:98:cb:45:c5:9f:aa:32:a3:
                    03:6e:c0:6d:6e:da:26:2a:36:b8:90:65:cc:d6:75:
                    b8:87:38:df:17:c7:cf:e8:ae:9b:b4:94:3c:8b:d0:
                    cf:64:6d:83:5d:f5:19:0d:20:22:54:76:89:00:26:
                    7a:16:23:34:14:db:df:fc:1c:70:c9:9c:40:00:29:
                    ad:03:38:b6:14:f7:94:5a:f5:28:6b:88:72:40:ce:
                    3e:41:ed:3d:0e:14:74:5f:64:bd:c0:a3:62:9b:53:
                    a3:f4:a0:18:93:9f:27:0c:c1:dc:de:cd:cf:f1:d7:
                    98:7d:7b:9a:dc:d6:d8:61:5a:47:6c:91:9d:1b:55:
                    30:15:e6:17:02:23:db:fe:4c:5e:2c:27:12:96:f2:
                    6d:13
                Exponent: 65537 (0x10001)
        X509v3 extensions:
            X509v3 Basic Constraints: 
                CA:FALSE
            X509v3 Subject Key Identifier: 
                4F:04:FF:30:D1:0F:E6:A5:37:3D:4C:90:AC:F4:F1:2C:BD:43:8C:17
            X509v3 Authority Key Identifier: 
                keyid:D9:D4:8C:20:BC:EB:38:17:D5:4B:52:F8:AA:C5:D2:44:DD:A2:6A:3B
                DirName:/C=US/ST=California/L=San Francisco/O=Copyleft Certificate Co/OU=My Organizational Unit/CN=ChangeMe/emailAddress=me@example.net
                serial:C2:48:34:65:BF:AB:EB:AA

            X509v3 Extended Key Usage: 
                TLS Web Client Authentication
            X509v3 Key Usage: 
                Digital Signature
    Signature Algorithm: sha256WithRSAEncryption
         bd:3f:e5:c2:32:42:e9:0c:ae:14:6c:58:ba:e5:c7:f1:b4:91:
         84:3a:ca:f0:7d:69:f8:24:13:6a:01:54:31:6d:d3:77:93:a3:
         24:1e:a8:97:71:7d:61:a7:2e:a3:72:92:e9:c2:1a:69:a8:b0:
         1b:6e:0e:97:97:36:85:4d:dd:a6:8d:a6:08:8e:0c:c8:d0:28:
         39:6a:35:b8:86:e6:75:7e:92:30:44:25:32:ec:62:78:21:75:
         75:d9:ce:a1:de:1f:46:7f:7d:d1:34:32:06:14:12:9e:60:d0:
         5d:8c:3e:c3:f5:49:c3:1d:8b:da:65:dc:b7:41:40:37:63:a0:
         ef:25:eb:5c:36:17:58:4e:a4:64:df:4e:5d:56:34:c6:75:4b:
         d8:69:da:f6:9d:e9:47:76:f0:c4:de:cf:82:4d:e0:95:81:e8:
         be:8e:9e:2b:25:74:f5:c9:0d:42:93:2a:41:51:1e:e0:96:e1:
         76:5a:b4:3c:ed:a6:ed:89:6f:2b:0b:23:91:b4:c4:9c:51:a4:
         83:96:08:1a:00:e9:63:4e:9c:8e:89:b1:5c:76:2d:cc:c3:b8:
         4b:28:54:22:ec:9e:77:4d:0f:79:2a:71:e5:c1:13:11:b1:58:
         10:d5:7d:cb:a6:45:8a:f5:7f:88:f1:92:37:d9:3f:46:50:a0:
         a9:33:b9:0b
-----BEGIN CERTIFICATE-----
MIIFKTCCBBGgAwIBAgIQV1cVVEd1sRJsy2tJXQWXZjANBgkqhkiG9w0BAQsFADCB
rzELMAkGA1UEBhMCVVMxEzARBgNVBAgMCkNhbGlmb3JuaWExFjAUBgNVBAcMDVNh
biBGcmFuY2lzY28xIDAeBgNVBAoMF0NvcHlsZWZ0IENlcnRpZmljYXRlIENvMR8w
HQYDVQQLDBZNeSBPcmdhbml6YXRpb25hbCBVbml0MREwDwYDVQQDDAhDaGFuZ2VN
ZTEdMBsGCSqGSIb3DQEJARYObWVAZXhhbXBsZS5uZXQwHhcNMjMxMTEwMTcyNjAw
WhcNMjQxMTA5MTcyNjAwWjCBtTELMAkGA1UEBhMCVVMxCzAJBgNVBAgMAk9IMRMw
EQYDVQQHDApDaW5jaW5uYXRpMSEwHwYDVQQKDBhVbml2ZXJzaXR5IG9mIENpbmNp
bm5hdGkxJDAiBgNVBAsMG0RlcHRfRWxlY19Db21fIEVuZ19Db21fU2NpLjERMA8G
A1UEAwwIY2xpZW50MjQxKDAmBgkqhkiG9w0BCQEWGWZyYW5jb0BnYXVzcy5lY2Vj
cy51Yy5lZHUwggEiMA0GCSqGSIb3DQEBAQUAA4IBDwAwggEKAoIBAQCzn7fQN3/5
AiShKDCj/LuvptQTbX/fvlZNUUwb0gmyXkcuGJHgwYZN8oJSBG7h5ORfnADjUJfQ
3bGWxZG71a4Z4NCEFvkB2FnqDkTkDHHcW71ksZ1ER/N0zAK18+joHcKbhpn23fcr
2q/onMJ1g/CYy0XFn6oyowNuwG1u2iYqNriQZczWdbiHON8Xx8/orpu0lDyL0M9k
bYNd9RkNICJUdokAJnoWIzQU29/8HHDJnEAAKa0DOLYU95Ra9ShriHJAzj5B7T0O
FHRfZL3Ao2KbU6P0oBiTnycMwdzezc/x15h9e5rc1thhWkdskZ0bVTAV5hcCI9v+
TF4sJxKW8m0TAgMBAAGjggE3MIIBMzAJBgNVHRMEAjAAMB0GA1UdDgQWBBRPBP8w
0Q/mpTc9TJCs9PEsvUOMFzCB5AYDVR0jBIHcMIHZgBTZ1IwgvOs4F9VLUviqxdJE
3aJqO6GBtaSBsjCBrzELMAkGA1UEBhMCVVMxEzARBgNVBAgMCkNhbGlmb3JuaWEx
FjAUBgNVBAcMDVNhbiBGcmFuY2lzY28xIDAeBgNVBAoMF0NvcHlsZWZ0IENlcnRp
ZmljYXRlIENvMR8wHQYDVQQLDBZNeSBPcmdhbml6YXRpb25hbCBVbml0MREwDwYD
VQQDDAhDaGFuZ2VNZTEdMBsGCSqGSIb3DQEJARYObWVAZXhhbXBsZS5uZXSCCQDC
SDRlv6vrqjATBgNVHSUEDDAKBggrBgEFBQcDAjALBgNVHQ8EBAMCB4AwDQYJKoZI
hvcNAQELBQADggEBAL0/5cIyQukMrhRsWLrlx/G0kYQ6yvB9afgkE2oBVDFt03eT
oyQeqJdxfWGnLqNykunCGmmosBtuDpeXNoVN3aaNpgiODMjQKDlqNbiG5nV+kjBE
JTLsYnghdXXZzqHeH0Z/fdE0MgYUEp5g0F2MPsP1ScMdi9pl3LdBQDdjoO8l61w2
F1hOpGTfTl1WNMZ1S9hp2vad6Ud28MTez4JN4JWB6L6OnisldPXJDUKTKkFRHuCW
4XZatDztpu2JbysLI5G0xJxRpIOWCBoA6WNOnI6JsVx2LczDuEsoVCLsnndND3kq
ceXBExGxWBDVfcumRYr1f4jxkjfZP0ZQoKkzuQs=
-----END CERTIFICATE-----
