Certificate:
    Data:
        Version: 3 (0x2)
        Serial Number:
            38:bf:72:39:01:53:9e:2b:a2:b6:02:7a:e8:d1:0a:3f
    Signature Algorithm: sha256WithRSAEncryption
        Issuer: C=US, ST=California, L=San Francisco, O=Copyleft Certificate Co, OU=My Organizational Unit, CN=ChangeMe/emailAddress=me@example.net
        Validity
            Not Before: Nov 13 11:12:33 2023 GMT
            Not After : Nov 12 11:12:33 2024 GMT
        Subject: C=US, ST=OH, L=Cincinnati, O=University of Cincinnati, OU=Dept. Elec. Comp. Eng. Comp. Sci., CN=client37/emailAddress=franco@gauss.ececs.uc.edu
        Subject Public Key Info:
            Public Key Algorithm: rsaEncryption
                Public-Key: (2048 bit)
                Modulus:
                    00:e3:bb:ff:0c:84:5a:45:f7:b9:ef:8f:c6:b4:74:
                    d2:88:2c:85:85:3c:5f:55:c4:3f:dd:6a:92:a9:f8:
                    ee:e2:05:cf:a2:78:ef:a6:34:42:a9:64:74:96:4f:
                    23:03:ce:97:d7:1a:c9:9a:ce:31:70:3a:8d:b0:e2:
                    60:b2:05:81:49:f9:0e:ac:cb:28:1c:42:05:2b:d2:
                    7e:df:30:0a:44:a8:ae:67:57:88:12:fb:eb:21:f1:
                    54:ac:4c:0a:c7:d0:2b:47:dc:d6:3d:68:7b:cf:f4:
                    10:ac:62:9c:86:df:03:c3:e8:e8:46:aa:7b:03:c5:
                    78:39:a9:0c:ef:82:16:d2:57:37:c9:b3:24:be:18:
                    16:07:13:7f:0b:ea:f9:7a:cf:52:b2:fe:44:9b:99:
                    c1:dd:fa:88:e7:ac:3b:21:77:af:a6:0d:2b:ac:8c:
                    bb:51:85:2d:fb:63:83:e8:65:d4:9f:68:29:06:b9:
                    c3:13:81:0a:16:6e:34:0e:50:12:eb:24:6e:d0:da:
                    52:5c:b4:aa:e4:28:43:50:cd:bf:33:82:af:72:e5:
                    ca:23:ce:02:f9:16:f0:02:8b:f6:74:e3:a7:57:b8:
                    41:79:46:0f:43:0d:59:53:fc:d1:36:a8:d4:74:cb:
                    89:8c:80:5d:1f:61:a7:75:f8:cd:90:4c:0c:60:c9:
                    a2:79
                Exponent: 65537 (0x10001)
        X509v3 extensions:
            X509v3 Basic Constraints: 
                CA:FALSE
            X509v3 Subject Key Identifier: 
                9E:11:72:13:D1:EA:61:65:6B:5A:5A:88:30:80:56:8B:AF:C8:0D:DB
            X509v3 Authority Key Identifier: 
                keyid:1A:DC:98:F2:69:C1:F7:C8:1D:21:43:B0:3C:79:50:4D:D8:2B:87:54
                DirName:/C=US/ST=California/L=San Francisco/O=Copyleft Certificate Co/OU=My Organizational Unit/CN=ChangeMe/emailAddress=me@example.net
                serial:8C:9B:8E:88:7A:AC:6D:8B

            X509v3 Extended Key Usage: 
                TLS Web Client Authentication
            X509v3 Key Usage: 
                Digital Signature
    Signature Algorithm: sha256WithRSAEncryption
         5f:51:cc:c8:ed:8d:eb:55:f9:8f:ad:0c:9c:ab:81:f1:cb:9f:
         95:ec:9b:49:78:a7:46:59:6c:d9:a4:70:6e:9b:8e:fa:c7:88:
         05:40:6d:08:e5:af:57:8b:d1:1f:38:16:eb:6e:d2:2a:e9:87:
         d2:58:f3:df:69:a1:20:c6:4d:8e:6a:5e:9e:ec:cb:f5:4f:5f:
         e5:c2:9d:98:30:c7:f4:fc:3b:4d:81:ff:9b:d2:c3:e0:59:ac:
         5b:0f:6a:4f:ed:a6:db:3f:a6:0b:c3:40:6a:bd:f0:b4:8d:e7:
         a3:32:82:ce:ee:a3:bf:79:0d:c1:e4:12:6c:ab:71:01:08:3f:
         e1:de:f1:a0:77:de:5a:60:27:5f:1c:2d:a0:fc:4d:be:f4:2b:
         fb:4f:8c:58:94:64:db:46:ee:b6:72:03:69:b8:6a:86:b0:b2:
         e6:06:76:95:46:07:e2:df:df:4b:9a:f9:a2:ac:6b:7e:14:a2:
         ba:67:fd:62:04:55:16:e9:94:8e:06:21:d4:ce:a6:d8:aa:cd:
         78:99:9b:c4:42:07:b5:80:a4:2c:74:e6:d2:0d:9e:b8:5f:a8:
         93:91:b2:13:38:ef:f8:d1:c8:27:09:60:5d:d0:5c:37:04:82:
         ad:5e:10:88:e4:2b:8d:97:27:1f:d7:df:2e:f6:65:fa:3d:4c:
         fa:c2:48:01
-----BEGIN CERTIFICATE-----
MIIFLzCCBBegAwIBAgIQOL9yOQFTniuitgJ66NEKPzANBgkqhkiG9w0BAQsFADCB
rzELMAkGA1UEBhMCVVMxEzARBgNVBAgMCkNhbGlmb3JuaWExFjAUBgNVBAcMDVNh
biBGcmFuY2lzY28xIDAeBgNVBAoMF0NvcHlsZWZ0IENlcnRpZmljYXRlIENvMR8w
HQYDVQQLDBZNeSBPcmdhbml6YXRpb25hbCBVbml0MREwDwYDVQQDDAhDaGFuZ2VN
ZTEdMBsGCSqGSIb3DQEJARYObWVAZXhhbXBsZS5uZXQwHhcNMjMxMTEzMTExMjMz
WhcNMjQxMTEyMTExMjMzWjCBuzELMAkGA1UEBhMCVVMxCzAJBgNVBAgMAk9IMRMw
EQYDVQQHDApDaW5jaW5uYXRpMSEwHwYDVQQKDBhVbml2ZXJzaXR5IG9mIENpbmNp
bm5hdGkxKjAoBgNVBAsMIURlcHQuIEVsZWMuIENvbXAuIEVuZy4gQ29tcC4gU2Np
LjERMA8GA1UEAwwIY2xpZW50MzcxKDAmBgkqhkiG9w0BCQEWGWZyYW5jb0BnYXVz
cy5lY2Vjcy51Yy5lZHUwggEiMA0GCSqGSIb3DQEBAQUAA4IBDwAwggEKAoIBAQDj
u/8MhFpF97nvj8a0dNKILIWFPF9VxD/dapKp+O7iBc+ieO+mNEKpZHSWTyMDzpfX
GsmazjFwOo2w4mCyBYFJ+Q6syygcQgUr0n7fMApEqK5nV4gS++sh8VSsTArH0CtH
3NY9aHvP9BCsYpyG3wPD6OhGqnsDxXg5qQzvghbSVzfJsyS+GBYHE38L6vl6z1Ky
/kSbmcHd+ojnrDshd6+mDSusjLtRhS37Y4PoZdSfaCkGucMTgQoWbjQOUBLrJG7Q
2lJctKrkKENQzb8zgq9y5cojzgL5FvACi/Z046dXuEF5Rg9DDVlT/NE2qNR0y4mM
gF0fYad1+M2QTAxgyaJ5AgMBAAGjggE3MIIBMzAJBgNVHRMEAjAAMB0GA1UdDgQW
BBSeEXIT0ephZWtaWogwgFaLr8gN2zCB5AYDVR0jBIHcMIHZgBQa3JjyacH3yB0h
Q7A8eVBN2CuHVKGBtaSBsjCBrzELMAkGA1UEBhMCVVMxEzARBgNVBAgMCkNhbGlm
b3JuaWExFjAUBgNVBAcMDVNhbiBGcmFuY2lzY28xIDAeBgNVBAoMF0NvcHlsZWZ0
IENlcnRpZmljYXRlIENvMR8wHQYDVQQLDBZNeSBPcmdhbml6YXRpb25hbCBVbml0
MREwDwYDVQQDDAhDaGFuZ2VNZTEdMBsGCSqGSIb3DQEJARYObWVAZXhhbXBsZS5u
ZXSCCQCMm46IeqxtizATBgNVHSUEDDAKBggrBgEFBQcDAjALBgNVHQ8EBAMCB4Aw
DQYJKoZIhvcNAQELBQADggEBAF9RzMjtjetV+Y+tDJyrgfHLn5Xsm0l4p0ZZbNmk
cG6bjvrHiAVAbQjlr1eL0R84Futu0irph9JY899poSDGTY5qXp7sy/VPX+XCnZgw
x/T8O02B/5vSw+BZrFsPak/tpts/pgvDQGq98LSN56Mygs7uo795DcHkEmyrcQEI
P+He8aB33lpgJ18cLaD8Tb70K/tPjFiUZNtG7rZyA2m4aoawsuYGdpVGB+Lf30ua
+aKsa34Uorpn/WIEVRbplI4GIdTOptiqzXiZm8RCB7WApCx05tINnrhfqJORshM4
7/jRyCcJYF3QXDcEgq1eEIjkK42XJx/X3y72Zfo9TPrCSAE=
-----END CERTIFICATE-----
