Certificate:
    Data:
        Version: 3 (0x2)
        Serial Number:
            45:f8:9b:9c:96:ff:0e:1b:85:97:c0:b0:f1:6e:14:99
    Signature Algorithm: sha256WithRSAEncryption
        Issuer: C=US, ST=California, L=San Francisco, O=Copyleft Certificate Co, OU=My Organizational Unit, CN=ChangeMe/emailAddress=me@example.net
        Validity
            Not Before: Nov 13 11:10:13 2023 GMT
            Not After : Nov 12 11:10:13 2024 GMT
        Subject: C=US, ST=OH, L=Cincinnati, O=University of Cincinnati, OU=Dept. Elec. Comp. Eng. Comp. Sci., CN=client2/emailAddress=franco@gauss.ececs.uc.edu
        Subject Public Key Info:
            Public Key Algorithm: rsaEncryption
                Public-Key: (2048 bit)
                Modulus:
                    00:b4:39:d5:d0:4e:88:97:c3:1e:63:d7:27:86:ad:
                    f1:7c:d2:88:44:45:32:c3:53:07:a1:66:48:f2:47:
                    14:fa:68:d3:fd:e2:b4:06:2d:26:b6:81:48:b0:9c:
                    c4:d1:03:0b:82:29:bd:fc:6a:10:d9:25:71:fb:26:
                    5a:f3:f1:f4:44:b1:a7:94:0a:37:ea:a3:69:28:58:
                    5b:bd:22:10:47:f5:2a:50:f9:67:f3:8b:6d:50:7a:
                    63:db:f1:cd:9a:19:4c:22:2f:1d:59:54:df:d9:51:
                    cf:1d:97:9e:ed:69:35:9c:1d:52:87:d8:f0:29:8e:
                    84:63:be:4f:c7:1f:8c:84:ea:3a:ee:e0:61:c2:b6:
                    13:ec:ee:d1:9d:52:d3:ab:7d:05:04:fc:26:d7:04:
                    15:4a:8b:85:57:3f:64:8e:2a:52:64:ba:5e:ea:64:
                    0f:ab:bd:d1:c8:43:65:42:4d:68:42:56:63:8b:f7:
                    0a:d4:c2:a8:b1:a9:a2:ba:1d:b4:dd:b9:70:10:a3:
                    43:d1:4f:99:ec:61:67:1e:d7:51:01:5b:58:2e:89:
                    5c:0b:43:45:b9:26:fc:4c:da:b5:b4:90:f2:e8:b9:
                    61:87:8d:e8:1c:be:aa:63:93:7b:9e:3c:30:fa:a3:
                    10:25:56:81:b7:b3:ee:61:a9:cb:f2:8f:4b:5d:3e:
                    13:0b
                Exponent: 65537 (0x10001)
        X509v3 extensions:
            X509v3 Basic Constraints: 
                CA:FALSE
            X509v3 Subject Key Identifier: 
                1A:F9:7E:D9:31:D8:EF:AE:A2:FF:6C:61:E4:65:89:5F:B9:D2:C6:1E
            X509v3 Authority Key Identifier: 
                keyid:1A:DC:98:F2:69:C1:F7:C8:1D:21:43:B0:3C:79:50:4D:D8:2B:87:54
                DirName:/C=US/ST=California/L=San Francisco/O=Copyleft Certificate Co/OU=My Organizational Unit/CN=ChangeMe/emailAddress=me@example.net
                serial:8C:9B:8E:88:7A:AC:6D:8B

            X509v3 Extended Key Usage: 
                TLS Web Client Authentication
            X509v3 Key Usage: 
                Digital Signature
    Signature Algorithm: sha256WithRSAEncryption
         71:13:52:4c:37:f6:c9:3a:79:f3:62:50:c6:60:d4:6e:e4:98:
         5f:48:18:3b:2d:91:70:e9:5f:e3:76:30:8b:37:81:5a:64:78:
         3b:53:80:59:d3:2a:7b:75:d5:ce:1f:b8:d6:c5:9a:20:9e:41:
         10:81:90:2f:55:b9:71:01:9c:46:cf:59:fc:ca:12:21:49:d5:
         42:1e:06:54:e3:60:f0:b3:16:d8:24:63:a8:8a:ed:c3:8f:ca:
         ee:19:ad:38:64:62:4a:52:01:72:57:4a:a1:59:37:e9:db:37:
         09:64:f0:80:39:aa:b9:97:50:91:81:37:ca:6e:cf:fd:25:7f:
         af:79:39:fc:8b:cb:32:5d:e7:8c:4e:ae:7c:f3:9e:a0:dd:ea:
         88:a4:2b:48:fe:01:a5:56:ac:ab:ac:b0:56:95:05:05:c7:54:
         c2:31:93:f2:f3:ae:5a:a8:64:0f:ba:d2:5d:56:58:ef:21:fd:
         ff:e7:4c:90:90:0c:e4:0b:e3:21:9d:f9:e9:d7:b6:ab:7d:12:
         f6:c1:29:8a:d9:53:7d:0b:23:0d:da:ff:50:94:8b:48:cf:b5:
         98:13:92:f8:48:f4:87:26:e3:3b:6a:ad:64:9b:49:74:1e:db:
         5a:2e:3a:dc:cc:05:b9:26:46:f9:2f:1e:82:75:35:17:49:da:
         be:38:1b:aa
-----BEGIN CERTIFICATE-----
MIIFLjCCBBagAwIBAgIQRfibnJb/DhuFl8Cw8W4UmTANBgkqhkiG9w0BAQsFADCB
rzELMAkGA1UEBhMCVVMxEzARBgNVBAgMCkNhbGlmb3JuaWExFjAUBgNVBAcMDVNh
biBGcmFuY2lzY28xIDAeBgNVBAoMF0NvcHlsZWZ0IENlcnRpZmljYXRlIENvMR8w
HQYDVQQLDBZNeSBPcmdhbml6YXRpb25hbCBVbml0MREwDwYDVQQDDAhDaGFuZ2VN
ZTEdMBsGCSqGSIb3DQEJARYObWVAZXhhbXBsZS5uZXQwHhcNMjMxMTEzMTExMDEz
WhcNMjQxMTEyMTExMDEzWjCBujELMAkGA1UEBhMCVVMxCzAJBgNVBAgMAk9IMRMw
EQYDVQQHDApDaW5jaW5uYXRpMSEwHwYDVQQKDBhVbml2ZXJzaXR5IG9mIENpbmNp
bm5hdGkxKjAoBgNVBAsMIURlcHQuIEVsZWMuIENvbXAuIEVuZy4gQ29tcC4gU2Np
LjEQMA4GA1UEAwwHY2xpZW50MjEoMCYGCSqGSIb3DQEJARYZZnJhbmNvQGdhdXNz
LmVjZWNzLnVjLmVkdTCCASIwDQYJKoZIhvcNAQEBBQADggEPADCCAQoCggEBALQ5
1dBOiJfDHmPXJ4at8XzSiERFMsNTB6FmSPJHFPpo0/3itAYtJraBSLCcxNEDC4Ip
vfxqENklcfsmWvPx9ESxp5QKN+qjaShYW70iEEf1KlD5Z/OLbVB6Y9vxzZoZTCIv
HVlU39lRzx2Xnu1pNZwdUofY8CmOhGO+T8cfjITqOu7gYcK2E+zu0Z1S06t9BQT8
JtcEFUqLhVc/ZI4qUmS6XupkD6u90chDZUJNaEJWY4v3CtTCqLGporodtN25cBCj
Q9FPmexhZx7XUQFbWC6JXAtDRbkm/EzatbSQ8ui5YYeN6By+qmOTe548MPqjECVW
gbez7mGpy/KPS10+EwsCAwEAAaOCATcwggEzMAkGA1UdEwQCMAAwHQYDVR0OBBYE
FBr5ftkx2O+uov9sYeRliV+50sYeMIHkBgNVHSMEgdwwgdmAFBrcmPJpwffIHSFD
sDx5UE3YK4dUoYG1pIGyMIGvMQswCQYDVQQGEwJVUzETMBEGA1UECAwKQ2FsaWZv
cm5pYTEWMBQGA1UEBwwNU2FuIEZyYW5jaXNjbzEgMB4GA1UECgwXQ29weWxlZnQg
Q2VydGlmaWNhdGUgQ28xHzAdBgNVBAsMFk15IE9yZ2FuaXphdGlvbmFsIFVuaXQx
ETAPBgNVBAMMCENoYW5nZU1lMR0wGwYJKoZIhvcNAQkBFg5tZUBleGFtcGxlLm5l
dIIJAIybjoh6rG2LMBMGA1UdJQQMMAoGCCsGAQUFBwMCMAsGA1UdDwQEAwIHgDAN
BgkqhkiG9w0BAQsFAAOCAQEAcRNSTDf2yTp582JQxmDUbuSYX0gYOy2RcOlf43Yw
izeBWmR4O1OAWdMqe3XVzh+41sWaIJ5BEIGQL1W5cQGcRs9Z/MoSIUnVQh4GVONg
8LMW2CRjqIrtw4/K7hmtOGRiSlIBcldKoVk36ds3CWTwgDmquZdQkYE3ym7P/SV/
r3k5/IvLMl3njE6ufPOeoN3qiKQrSP4BpVasq6ywVpUFBcdUwjGT8vOuWqhkD7rS
XVZY7yH9/+dMkJAM5AvjIZ356de2q30S9sEpitlTfQsjDdr/UJSLSM+1mBOS+Ej0
hybjO2qtZJtJdB7bWi463MwFuSZG+S8egnU1F0navjgbqg==
-----END CERTIFICATE-----
