Certificate:
    Data:
        Version: 3 (0x2)
        Serial Number:
            b6:74:26:f3:99:ea:ab:51:d8:14:9d:ad:f4:35:7b:a7
    Signature Algorithm: sha256WithRSAEncryption
        Issuer: C=US, ST=California, L=San Francisco, O=Copyleft Certificate Co, OU=My Organizational Unit, CN=ChangeMe/emailAddress=me@example.net
        Validity
            Not Before: Nov 13 11:12:09 2023 GMT
            Not After : Nov 12 11:12:09 2024 GMT
        Subject: C=US, ST=OH, L=Cincinnati, O=University of Cincinnati, OU=Dept. Elec. Comp. Eng. Comp. Sci., CN=client31/emailAddress=franco@gauss.ececs.uc.edu
        Subject Public Key Info:
            Public Key Algorithm: rsaEncryption
                Public-Key: (2048 bit)
                Modulus:
                    00:c4:b8:7e:8d:f8:49:2e:41:63:a4:8d:d8:72:ff:
                    82:2b:04:62:20:37:9a:40:cf:f3:1f:16:0f:f3:78:
                    31:8f:cf:12:ec:86:60:67:30:0d:ef:6d:76:cb:b2:
                    dc:0c:39:3e:a4:3d:20:30:15:5f:87:50:4e:8d:07:
                    7f:33:ff:59:76:3c:b2:af:3f:d5:ab:84:95:ea:4d:
                    72:37:8a:d8:6f:11:23:e2:f3:3e:a0:da:54:50:01:
                    45:0a:34:df:9f:4b:9b:73:be:c2:7f:75:44:cb:ba:
                    52:21:41:61:12:65:50:53:0c:b7:b8:46:de:6c:8f:
                    86:39:78:61:66:23:82:6d:a7:42:6d:e7:ae:48:c0:
                    a1:29:b0:7f:57:74:6a:57:be:5d:0c:eb:14:be:7d:
                    5a:5d:13:98:33:80:e1:e7:ca:f7:c5:4d:d6:a7:b9:
                    35:dd:2c:4c:f0:66:5b:7d:fe:67:c9:d2:3f:54:26:
                    49:4a:31:f1:25:78:35:3e:8f:07:12:a8:37:e4:b3:
                    e7:02:3f:e7:42:aa:80:da:b9:6e:87:61:fe:c1:1c:
                    8f:fd:08:d4:d1:f8:a6:16:14:18:73:b7:be:65:f5:
                    1e:b3:bc:95:2d:7c:ca:a8:ba:81:07:a7:36:61:ab:
                    c6:49:79:0d:ca:55:f9:d2:5f:48:37:11:1e:0c:37:
                    7f:83
                Exponent: 65537 (0x10001)
        X509v3 extensions:
            X509v3 Basic Constraints: 
                CA:FALSE
            X509v3 Subject Key Identifier: 
                1B:C8:F3:90:17:1C:7C:A0:A8:16:1A:7B:04:92:97:4A:77:D4:CF:49
            X509v3 Authority Key Identifier: 
                keyid:1A:DC:98:F2:69:C1:F7:C8:1D:21:43:B0:3C:79:50:4D:D8:2B:87:54
                DirName:/C=US/ST=California/L=San Francisco/O=Copyleft Certificate Co/OU=My Organizational Unit/CN=ChangeMe/emailAddress=me@example.net
                serial:8C:9B:8E:88:7A:AC:6D:8B

            X509v3 Extended Key Usage: 
                TLS Web Client Authentication
            X509v3 Key Usage: 
                Digital Signature
    Signature Algorithm: sha256WithRSAEncryption
         10:00:29:9f:d2:2d:68:1a:40:b6:2b:88:63:62:06:b4:b2:f3:
         c2:2e:71:79:ee:6d:68:b9:4f:9d:cd:06:0a:cd:61:0f:57:ac:
         f7:84:f3:8a:29:c6:bd:95:a6:cb:be:01:eb:1b:d2:2c:48:90:
         b5:aa:87:12:f0:3c:7d:e3:fb:fb:89:6b:a6:4b:94:32:3c:ac:
         7f:15:ae:f0:d9:f1:8a:af:b9:4f:af:05:d6:23:cd:24:f4:0d:
         2d:9a:93:ef:46:22:1c:f2:6a:19:d1:7f:4f:dd:06:f5:cc:3b:
         0b:65:29:9b:f5:52:bf:dd:e4:4e:28:5b:25:52:a9:3f:03:ef:
         70:7c:2d:3b:df:33:3c:f3:6b:9b:28:ed:ae:93:16:3a:bd:b1:
         9d:cb:2b:27:8a:31:85:0f:1a:d7:77:34:d0:89:34:b8:10:62:
         d8:d4:90:28:6f:37:bd:7b:c9:f0:95:e3:bd:45:19:b6:10:92:
         c0:dc:28:db:27:29:8d:00:3a:8c:3e:92:ee:4a:e7:c0:37:f5:
         f5:11:8f:9f:18:df:c3:b9:1c:c7:d1:95:51:53:1f:a1:50:1f:
         07:f3:59:da:76:9d:4f:e6:6e:7f:c3:48:a6:a2:6f:2f:06:52:
         1e:3d:62:92:f9:09:44:a6:d7:76:8c:17:f0:17:e1:e7:36:2a:
         a7:9e:a6:9c
-----BEGIN CERTIFICATE-----
MIIFMDCCBBigAwIBAgIRALZ0JvOZ6qtR2BSdrfQ1e6cwDQYJKoZIhvcNAQELBQAw
ga8xCzAJBgNVBAYTAlVTMRMwEQYDVQQIDApDYWxpZm9ybmlhMRYwFAYDVQQHDA1T
YW4gRnJhbmNpc2NvMSAwHgYDVQQKDBdDb3B5bGVmdCBDZXJ0aWZpY2F0ZSBDbzEf
MB0GA1UECwwWTXkgT3JnYW5pemF0aW9uYWwgVW5pdDERMA8GA1UEAwwIQ2hhbmdl
TWUxHTAbBgkqhkiG9w0BCQEWDm1lQGV4YW1wbGUubmV0MB4XDTIzMTExMzExMTIw
OVoXDTI0MTExMjExMTIwOVowgbsxCzAJBgNVBAYTAlVTMQswCQYDVQQIDAJPSDET
MBEGA1UEBwwKQ2luY2lubmF0aTEhMB8GA1UECgwYVW5pdmVyc2l0eSBvZiBDaW5j
aW5uYXRpMSowKAYDVQQLDCFEZXB0LiBFbGVjLiBDb21wLiBFbmcuIENvbXAuIFNj
aS4xETAPBgNVBAMMCGNsaWVudDMxMSgwJgYJKoZIhvcNAQkBFhlmcmFuY29AZ2F1
c3MuZWNlY3MudWMuZWR1MIIBIjANBgkqhkiG9w0BAQEFAAOCAQ8AMIIBCgKCAQEA
xLh+jfhJLkFjpI3Ycv+CKwRiIDeaQM/zHxYP83gxj88S7IZgZzAN7212y7LcDDk+
pD0gMBVfh1BOjQd/M/9Zdjyyrz/Vq4SV6k1yN4rYbxEj4vM+oNpUUAFFCjTfn0ub
c77Cf3VEy7pSIUFhEmVQUwy3uEbebI+GOXhhZiOCbadCbeeuSMChKbB/V3RqV75d
DOsUvn1aXROYM4Dh58r3xU3Wp7k13SxM8GZbff5nydI/VCZJSjHxJXg1Po8HEqg3
5LPnAj/nQqqA2rluh2H+wRyP/QjU0fimFhQYc7e+ZfUes7yVLXzKqLqBB6c2YavG
SXkNylX50l9INxEeDDd/gwIDAQABo4IBNzCCATMwCQYDVR0TBAIwADAdBgNVHQ4E
FgQUG8jzkBccfKCoFhp7BJKXSnfUz0kwgeQGA1UdIwSB3DCB2YAUGtyY8mnB98gd
IUOwPHlQTdgrh1ShgbWkgbIwga8xCzAJBgNVBAYTAlVTMRMwEQYDVQQIDApDYWxp
Zm9ybmlhMRYwFAYDVQQHDA1TYW4gRnJhbmNpc2NvMSAwHgYDVQQKDBdDb3B5bGVm
dCBDZXJ0aWZpY2F0ZSBDbzEfMB0GA1UECwwWTXkgT3JnYW5pemF0aW9uYWwgVW5p
dDERMA8GA1UEAwwIQ2hhbmdlTWUxHTAbBgkqhkiG9w0BCQEWDm1lQGV4YW1wbGUu
bmV0ggkAjJuOiHqsbYswEwYDVR0lBAwwCgYIKwYBBQUHAwIwCwYDVR0PBAQDAgeA
MA0GCSqGSIb3DQEBCwUAA4IBAQAQACmf0i1oGkC2K4hjYga0svPCLnF57m1ouU+d
zQYKzWEPV6z3hPOKKca9labLvgHrG9IsSJC1qocS8Dx94/v7iWumS5QyPKx/Fa7w
2fGKr7lPrwXWI80k9A0tmpPvRiIc8moZ0X9P3Qb1zDsLZSmb9VK/3eROKFslUqk/
A+9wfC073zM882ubKO2ukxY6vbGdyysnijGFDxrXdzTQiTS4EGLY1JAobze9e8nw
leO9RRm2EJLA3CjbJymNADqMPpLuSufAN/X1EY+fGN/DuRzH0ZVRUx+hUB8H81na
dp1P5m5/w0imom8vBlIePWKS+QlEptd2jBfwF+HnNiqnnqac
-----END CERTIFICATE-----
