Certificate:
    Data:
        Version: 3 (0x2)
        Serial Number:
            3c:c4:a1:d4:e9:5f:73:4a:aa:79:6a:f9:85:75:a8:1e
    Signature Algorithm: sha256WithRSAEncryption
        Issuer: C=US, ST=California, L=San Francisco, O=Copyleft Certificate Co, OU=My Organizational Unit, CN=ChangeMe/emailAddress=me@example.net
        Validity
            Not Before: Jan 23 18:27:54 2021 GMT
            Not After : Jan 23 18:27:54 2022 GMT
        Subject: C=US, ST=OH, L=Cincinnati, O=University of Cincinnati, OU=Dept. Electrical Eng. and Computer Sci., CN=client26/emailAddress=franco@gauss.ececs.uc.edu
        Subject Public Key Info:
            Public Key Algorithm: rsaEncryption
                Public-Key: (2048 bit)
                Modulus:
                    00:c7:92:da:85:18:64:14:5d:97:36:9f:db:bd:60:
                    10:ba:0e:e1:d5:46:75:11:9e:69:3a:cf:a8:d3:64:
                    e3:49:91:f0:12:34:5b:89:4e:76:49:e4:3d:31:45:
                    99:7e:67:8f:42:d8:70:14:6b:85:1b:88:08:15:b1:
                    54:57:1b:68:5d:b1:3f:6a:dc:4a:5f:f8:85:6a:d6:
                    74:87:ea:d6:72:72:d5:e2:61:15:b3:8d:ac:f6:b9:
                    ef:c5:44:cc:94:6e:87:1d:26:e4:8c:3a:bf:a5:2c:
                    94:67:ff:02:8f:ad:23:5d:63:2c:95:d7:19:98:ab:
                    8b:b4:47:1f:07:c7:cb:ed:04:8c:31:60:b3:11:2a:
                    3e:ee:72:c1:53:c1:f7:c2:23:5c:4a:64:49:6d:b1:
                    e9:a8:bc:37:0e:d8:b1:89:92:78:d2:fe:47:d8:b2:
                    3b:21:41:6f:9d:87:e2:72:4b:65:45:b9:53:b7:3a:
                    9f:4e:6c:41:81:ef:ce:b5:1c:94:a8:b3:73:63:2d:
                    80:9d:e6:96:48:68:1b:48:15:f8:d3:67:64:a1:ad:
                    13:56:a0:17:37:e4:65:a3:66:4a:da:ea:f0:32:be:
                    08:e4:f0:14:87:10:eb:a3:ab:c9:ca:2c:dd:9c:17:
                    a5:e5:20:81:a9:8b:99:17:c5:a5:6d:d6:ed:76:5a:
                    bd:dd
                Exponent: 65537 (0x10001)
        X509v3 extensions:
            X509v3 Basic Constraints: 
                CA:FALSE
            X509v3 Subject Key Identifier: 
                6D:DE:4A:9D:5D:50:AD:F8:9D:DE:EF:2F:C4:BE:05:7D:B7:79:01:86
            X509v3 Authority Key Identifier: 
                keyid:EF:DC:B6:3D:4B:FD:A7:87:05:C5:22:3D:8B:DC:BF:99:2A:EE:E4:DB
                DirName:/C=US/ST=California/L=San Francisco/O=Copyleft Certificate Co/OU=My Organizational Unit/CN=ChangeMe/emailAddress=me@example.net
                serial:87:1E:1D:DC:6B:8C:66:88

            X509v3 Extended Key Usage: 
                TLS Web Client Authentication
            X509v3 Key Usage: 
                Digital Signature
    Signature Algorithm: sha256WithRSAEncryption
         c6:40:26:e2:32:8d:7a:43:ec:6f:be:30:3a:41:f0:35:e2:63:
         44:57:6e:d7:45:fd:e3:bd:20:fb:18:12:ab:a8:d0:0d:59:19:
         7b:5b:6c:6d:71:95:2a:e5:0c:f6:06:c0:e3:df:eb:16:08:03:
         42:83:6f:a5:53:c7:e2:fe:db:cf:ef:27:0a:0b:ba:bb:29:50:
         6f:33:8d:fd:d9:2a:95:db:5b:20:59:a6:50:69:38:55:05:7e:
         8f:70:0b:99:e5:67:5a:f7:4e:dc:74:f6:9f:e1:12:8f:2a:b6:
         ed:de:d7:2d:64:74:00:d0:72:b7:63:63:63:e7:23:d4:e8:7a:
         bd:9b:23:01:58:35:60:58:b1:ff:7e:a2:88:7c:a9:91:a2:fe:
         ee:a6:5c:47:eb:f3:ce:46:c4:0d:33:b8:6b:3d:35:84:cd:3c:
         66:b2:6e:8f:79:67:0a:8b:0c:55:99:1d:49:14:85:b3:99:c8:
         2d:9d:68:90:e3:4c:06:e7:e5:0a:15:c9:81:d8:7e:bb:a1:3b:
         8d:f8:2e:05:0a:b4:7e:67:80:bb:2d:a2:3a:fa:97:20:c1:8b:
         54:cc:92:29:ab:af:a2:57:c5:c7:33:fa:3a:9a:10:d8:34:31:
         e1:2a:5e:a2:a7:cd:86:70:63:e5:77:73:c7:b7:68:ac:4e:20:
         fb:66:8b:89
-----BEGIN CERTIFICATE-----
MIIFNTCCBB2gAwIBAgIQPMSh1Olfc0qqeWr5hXWoHjANBgkqhkiG9w0BAQsFADCB
rzELMAkGA1UEBhMCVVMxEzARBgNVBAgMCkNhbGlmb3JuaWExFjAUBgNVBAcMDVNh
biBGcmFuY2lzY28xIDAeBgNVBAoMF0NvcHlsZWZ0IENlcnRpZmljYXRlIENvMR8w
HQYDVQQLDBZNeSBPcmdhbml6YXRpb25hbCBVbml0MREwDwYDVQQDDAhDaGFuZ2VN
ZTEdMBsGCSqGSIb3DQEJARYObWVAZXhhbXBsZS5uZXQwHhcNMjEwMTIzMTgyNzU0
WhcNMjIwMTIzMTgyNzU0WjCBwTELMAkGA1UEBhMCVVMxCzAJBgNVBAgMAk9IMRMw
EQYDVQQHDApDaW5jaW5uYXRpMSEwHwYDVQQKDBhVbml2ZXJzaXR5IG9mIENpbmNp
bm5hdGkxMDAuBgNVBAsMJ0RlcHQuIEVsZWN0cmljYWwgRW5nLiBhbmQgQ29tcHV0
ZXIgU2NpLjERMA8GA1UEAwwIY2xpZW50MjYxKDAmBgkqhkiG9w0BCQEWGWZyYW5j
b0BnYXVzcy5lY2Vjcy51Yy5lZHUwggEiMA0GCSqGSIb3DQEBAQUAA4IBDwAwggEK
AoIBAQDHktqFGGQUXZc2n9u9YBC6DuHVRnURnmk6z6jTZONJkfASNFuJTnZJ5D0x
RZl+Z49C2HAUa4UbiAgVsVRXG2hdsT9q3Epf+IVq1nSH6tZyctXiYRWzjaz2ue/F
RMyUbocdJuSMOr+lLJRn/wKPrSNdYyyV1xmYq4u0Rx8Hx8vtBIwxYLMRKj7ucsFT
wffCI1xKZEltsemovDcO2LGJknjS/kfYsjshQW+dh+JyS2VFuVO3Op9ObEGB7861
HJSos3NjLYCd5pZIaBtIFfjTZ2ShrRNWoBc35GWjZkra6vAyvgjk8BSHEOujq8nK
LN2cF6XlIIGpi5kXxaVt1u12Wr3dAgMBAAGjggE3MIIBMzAJBgNVHRMEAjAAMB0G
A1UdDgQWBBRt3kqdXVCt+J3e7y/EvgV9t3kBhjCB5AYDVR0jBIHcMIHZgBTv3LY9
S/2nhwXFIj2L3L+ZKu7k26GBtaSBsjCBrzELMAkGA1UEBhMCVVMxEzARBgNVBAgM
CkNhbGlmb3JuaWExFjAUBgNVBAcMDVNhbiBGcmFuY2lzY28xIDAeBgNVBAoMF0Nv
cHlsZWZ0IENlcnRpZmljYXRlIENvMR8wHQYDVQQLDBZNeSBPcmdhbml6YXRpb25h
bCBVbml0MREwDwYDVQQDDAhDaGFuZ2VNZTEdMBsGCSqGSIb3DQEJARYObWVAZXhh
bXBsZS5uZXSCCQCHHh3ca4xmiDATBgNVHSUEDDAKBggrBgEFBQcDAjALBgNVHQ8E
BAMCB4AwDQYJKoZIhvcNAQELBQADggEBAMZAJuIyjXpD7G++MDpB8DXiY0RXbtdF
/eO9IPsYEquo0A1ZGXtbbG1xlSrlDPYGwOPf6xYIA0KDb6VTx+L+28/vJwoLursp
UG8zjf3ZKpXbWyBZplBpOFUFfo9wC5nlZ1r3Ttx09p/hEo8qtu3e1y1kdADQcrdj
Y2PnI9Toer2bIwFYNWBYsf9+ooh8qZGi/u6mXEfr885GxA0zuGs9NYTNPGaybo95
ZwqLDFWZHUkUhbOZyC2daJDjTAbn5QoVyYHYfruhO434LgUKtH5ngLstojr6lyDB
i1TMkimrr6JXxccz+jqaENg0MeEqXqKnzYZwY+V3c8e3aKxOIPtmi4k=
-----END CERTIFICATE-----
