Certificate:
    Data:
        Version: 3 (0x2)
        Serial Number:
            8d:12:c9:d3:74:69:0a:93:c4:68:29:95:1f:c2:8c:f6
    Signature Algorithm: sha256WithRSAEncryption
        Issuer: C=US, ST=California, L=San Francisco, O=Copyleft Certificate Co, OU=My Organizational Unit, CN=ChangeMe/emailAddress=me@example.net
        Validity
            Not Before: Nov 13 11:10:57 2023 GMT
            Not After : Nov 12 11:10:57 2024 GMT
        Subject: C=US, ST=OH, L=Cincinnati, O=University of Cincinnati, OU=Dept. Elec. Comp. Eng. Comp. Sci., CN=client13/emailAddress=franco@gauss.ececs.uc.edu
        Subject Public Key Info:
            Public Key Algorithm: rsaEncryption
                Public-Key: (2048 bit)
                Modulus:
                    00:bb:95:94:1f:f2:51:3e:7a:67:cd:32:bc:59:e0:
                    3f:2f:73:ab:98:17:69:90:5a:5c:48:9f:ef:8c:26:
                    2b:76:c1:76:a7:e2:73:0a:e5:59:f7:bb:0f:46:26:
                    a3:26:7a:3c:24:5b:1c:5c:59:54:06:e1:da:2a:7c:
                    a3:ec:19:14:3d:e7:e7:e4:8e:c5:91:20:af:e1:96:
                    75:37:32:73:bc:b6:28:5d:a7:a0:ce:90:6e:c0:be:
                    78:66:33:4e:03:06:e2:0b:57:28:e2:93:f5:a6:d4:
                    33:09:3a:d6:a0:c1:45:67:c2:b2:0f:88:e3:ab:8c:
                    e1:47:fb:43:11:49:43:b0:1f:f3:4a:05:8e:1f:09:
                    33:a4:d0:14:c8:d8:45:96:83:8e:6d:76:da:ee:9b:
                    d2:c1:17:24:c0:71:e3:24:a5:11:2c:f7:75:e1:a1:
                    a7:c5:40:e5:71:27:8e:ee:50:ab:cc:c0:fc:41:b4:
                    22:5b:48:99:8e:ba:6e:71:2a:66:e5:a1:cb:2f:55:
                    75:b5:ec:cb:a3:19:e6:a9:f0:5c:4f:67:84:3f:2d:
                    b2:19:35:2a:2c:fd:41:fe:78:fc:3d:46:2b:db:a1:
                    6f:bb:5d:45:ad:7e:05:48:f8:6d:77:e2:94:f4:2c:
                    ed:bd:c9:f1:c7:4f:e1:09:7f:f1:63:8b:63:a5:a9:
                    f3:71
                Exponent: 65537 (0x10001)
        X509v3 extensions:
            X509v3 Basic Constraints: 
                CA:FALSE
            X509v3 Subject Key Identifier: 
                92:FC:F9:AB:A2:72:28:3A:C8:EB:B5:AB:30:68:21:E1:F2:D5:E4:5E
            X509v3 Authority Key Identifier: 
                keyid:1A:DC:98:F2:69:C1:F7:C8:1D:21:43:B0:3C:79:50:4D:D8:2B:87:54
                DirName:/C=US/ST=California/L=San Francisco/O=Copyleft Certificate Co/OU=My Organizational Unit/CN=ChangeMe/emailAddress=me@example.net
                serial:8C:9B:8E:88:7A:AC:6D:8B

            X509v3 Extended Key Usage: 
                TLS Web Client Authentication
            X509v3 Key Usage: 
                Digital Signature
    Signature Algorithm: sha256WithRSAEncryption
         66:bc:4c:24:1f:ee:1e:e8:65:3e:ca:da:3a:01:4e:51:34:cb:
         36:5c:40:a6:c7:43:4d:7c:b4:8c:ad:ab:2a:1f:e7:50:fb:c2:
         09:55:15:c6:62:89:2c:ae:25:7f:5d:f5:e3:36:17:b1:f2:be:
         4c:0b:d6:4a:37:e8:37:0f:0c:b2:7d:bf:7a:e4:5e:85:ce:fc:
         2a:48:14:29:f9:4d:c5:cb:1a:0c:15:55:b3:88:3e:32:6f:7c:
         f6:8f:c2:d7:f1:e9:cb:fa:97:a3:ee:d9:ae:50:fa:36:e0:5c:
         9a:27:14:a7:57:b8:77:76:e3:49:e4:23:45:65:1f:eb:14:1c:
         be:06:b6:0f:ad:5c:7b:e4:a2:6c:f5:c6:22:a3:32:87:65:37:
         ad:62:ab:c9:77:4e:97:b5:df:04:27:6e:d5:d6:cc:c6:e3:f5:
         4a:80:f2:38:97:63:5f:b9:fd:23:bc:86:e3:89:c0:2b:b9:a0:
         c5:38:1f:46:4b:fe:f7:3d:e5:24:bf:99:61:97:e1:d2:e4:87:
         8b:69:78:01:04:15:9f:88:b0:7b:02:75:b0:76:a2:a0:38:04:
         86:6f:ff:3d:8f:52:31:e8:6a:aa:2b:5b:5f:a0:d3:10:2f:7c:
         14:de:a4:35:b0:05:b2:4d:24:a1:1f:58:3a:a2:eb:9a:1a:8f:
         ce:e1:50:95
-----BEGIN CERTIFICATE-----
MIIFMDCCBBigAwIBAgIRAI0SydN0aQqTxGgplR/CjPYwDQYJKoZIhvcNAQELBQAw
ga8xCzAJBgNVBAYTAlVTMRMwEQYDVQQIDApDYWxpZm9ybmlhMRYwFAYDVQQHDA1T
YW4gRnJhbmNpc2NvMSAwHgYDVQQKDBdDb3B5bGVmdCBDZXJ0aWZpY2F0ZSBDbzEf
MB0GA1UECwwWTXkgT3JnYW5pemF0aW9uYWwgVW5pdDERMA8GA1UEAwwIQ2hhbmdl
TWUxHTAbBgkqhkiG9w0BCQEWDm1lQGV4YW1wbGUubmV0MB4XDTIzMTExMzExMTA1
N1oXDTI0MTExMjExMTA1N1owgbsxCzAJBgNVBAYTAlVTMQswCQYDVQQIDAJPSDET
MBEGA1UEBwwKQ2luY2lubmF0aTEhMB8GA1UECgwYVW5pdmVyc2l0eSBvZiBDaW5j
aW5uYXRpMSowKAYDVQQLDCFEZXB0LiBFbGVjLiBDb21wLiBFbmcuIENvbXAuIFNj
aS4xETAPBgNVBAMMCGNsaWVudDEzMSgwJgYJKoZIhvcNAQkBFhlmcmFuY29AZ2F1
c3MuZWNlY3MudWMuZWR1MIIBIjANBgkqhkiG9w0BAQEFAAOCAQ8AMIIBCgKCAQEA
u5WUH/JRPnpnzTK8WeA/L3OrmBdpkFpcSJ/vjCYrdsF2p+JzCuVZ97sPRiajJno8
JFscXFlUBuHaKnyj7BkUPefn5I7FkSCv4ZZ1NzJzvLYoXaegzpBuwL54ZjNOAwbi
C1co4pP1ptQzCTrWoMFFZ8KyD4jjq4zhR/tDEUlDsB/zSgWOHwkzpNAUyNhFloOO
bXba7pvSwRckwHHjJKURLPd14aGnxUDlcSeO7lCrzMD8QbQiW0iZjrpucSpm5aHL
L1V1tezLoxnmqfBcT2eEPy2yGTUqLP1B/nj8PUYr26Fvu11FrX4FSPhtd+KU9Czt
vcnxx0/hCX/xY4tjpanzcQIDAQABo4IBNzCCATMwCQYDVR0TBAIwADAdBgNVHQ4E
FgQUkvz5q6JyKDrI67WrMGgh4fLV5F4wgeQGA1UdIwSB3DCB2YAUGtyY8mnB98gd
IUOwPHlQTdgrh1ShgbWkgbIwga8xCzAJBgNVBAYTAlVTMRMwEQYDVQQIDApDYWxp
Zm9ybmlhMRYwFAYDVQQHDA1TYW4gRnJhbmNpc2NvMSAwHgYDVQQKDBdDb3B5bGVm
dCBDZXJ0aWZpY2F0ZSBDbzEfMB0GA1UECwwWTXkgT3JnYW5pemF0aW9uYWwgVW5p
dDERMA8GA1UEAwwIQ2hhbmdlTWUxHTAbBgkqhkiG9w0BCQEWDm1lQGV4YW1wbGUu
bmV0ggkAjJuOiHqsbYswEwYDVR0lBAwwCgYIKwYBBQUHAwIwCwYDVR0PBAQDAgeA
MA0GCSqGSIb3DQEBCwUAA4IBAQBmvEwkH+4e6GU+yto6AU5RNMs2XECmx0NNfLSM
rasqH+dQ+8IJVRXGYoksriV/XfXjNhex8r5MC9ZKN+g3Dwyyfb965F6FzvwqSBQp
+U3FyxoMFVWziD4yb3z2j8LX8enL+pej7tmuUPo24FyaJxSnV7h3duNJ5CNFZR/r
FBy+BrYPrVx75KJs9cYiozKHZTetYqvJd06Xtd8EJ27V1szG4/VKgPI4l2Nfuf0j
vIbjicAruaDFOB9GS/73PeUkv5lhl+HS5IeLaXgBBBWfiLB7AnWwdqKgOASGb/89
j1Ix6GqqK1tfoNMQL3wU3qQ1sAWyTSShH1g6ouuaGo/O4VCV
-----END CERTIFICATE-----
