Certificate:
    Data:
        Version: 3 (0x2)
        Serial Number:
            46:41:ea:bf:ff:f0:04:ea:55:60:70:b9:1f:d5:8b:05
    Signature Algorithm: sha256WithRSAEncryption
        Issuer: C=US, ST=California, L=San Francisco, O=Copyleft Certificate Co, OU=My Organizational Unit, CN=ChangeMe/emailAddress=me@example.net
        Validity
            Not Before: Jan 23 18:30:33 2021 GMT
            Not After : Jan 23 18:30:33 2022 GMT
        Subject: C=US, ST=OH, L=Cincinnati, O=University of Cincinnati, OU=Dept. Electrical Eng. and Computer Sci., CN=client140/emailAddress=franco@gauss.ececs.uc.edu
        Subject Public Key Info:
            Public Key Algorithm: rsaEncryption
                Public-Key: (2048 bit)
                Modulus:
                    00:bb:a8:b0:f3:58:64:f2:29:a1:59:85:f6:6a:da:
                    05:c7:e8:5f:c7:7a:b1:d2:07:0b:04:c9:84:54:d3:
                    36:5a:4a:3f:73:92:c0:94:71:3f:ff:40:59:c1:d7:
                    e4:1d:84:d3:11:b7:fb:a4:a5:c9:69:ca:5d:37:4e:
                    b9:0b:7f:8b:49:bb:0b:32:71:2f:68:8f:77:69:56:
                    51:84:c3:33:10:e4:c8:f2:00:12:53:a6:e8:01:3c:
                    a9:27:20:0c:0a:d3:b3:cd:ec:d5:59:71:e9:95:b6:
                    81:64:05:01:d5:d6:52:50:37:df:39:ee:27:a8:26:
                    05:af:e1:d2:f8:4a:52:fa:10:21:9a:2f:cb:91:a9:
                    ff:f6:6d:a6:19:a5:f3:b6:e4:ea:4a:a9:e8:c1:69:
                    64:37:3f:ae:e2:28:7e:98:ea:44:40:85:6e:cc:ac:
                    0a:3a:6c:5e:fa:ef:f4:e9:e6:11:0f:96:8e:8c:82:
                    44:fc:ea:78:b3:1c:dd:29:c6:66:34:47:77:27:73:
                    27:08:7a:36:6e:21:58:00:1a:89:58:0c:b2:97:1c:
                    e5:df:72:9a:b6:c2:cc:0d:1e:42:03:be:41:4d:1a:
                    c6:b9:75:cc:5e:23:fe:84:1b:e7:c6:c5:31:03:e2:
                    d7:5b:ef:76:05:97:e2:40:69:c4:5b:83:b8:db:f8:
                    6e:15
                Exponent: 65537 (0x10001)
        X509v3 extensions:
            X509v3 Basic Constraints: 
                CA:FALSE
            X509v3 Subject Key Identifier: 
                F1:53:0D:F4:4E:E0:B8:4A:58:25:A7:7A:AE:21:B0:F1:FA:C8:8D:02
            X509v3 Authority Key Identifier: 
                keyid:EF:DC:B6:3D:4B:FD:A7:87:05:C5:22:3D:8B:DC:BF:99:2A:EE:E4:DB
                DirName:/C=US/ST=California/L=San Francisco/O=Copyleft Certificate Co/OU=My Organizational Unit/CN=ChangeMe/emailAddress=me@example.net
                serial:87:1E:1D:DC:6B:8C:66:88

            X509v3 Extended Key Usage: 
                TLS Web Client Authentication
            X509v3 Key Usage: 
                Digital Signature
    Signature Algorithm: sha256WithRSAEncryption
         de:88:fe:d1:a2:da:7b:86:18:f3:1f:70:85:31:89:f4:e0:a9:
         f8:aa:95:c2:26:2e:53:01:31:a1:69:a3:3f:4d:9c:76:a1:7e:
         8e:fa:a0:9c:e8:91:7e:bc:fb:e7:02:a7:4b:86:9d:d3:0f:c6:
         3c:8e:b4:d5:c6:4b:7c:dc:20:ab:5b:f2:f4:9c:fa:69:8f:d8:
         8b:9b:ba:86:6d:f4:ba:4f:cc:5f:c1:fc:9c:ba:6b:44:9a:b7:
         3b:e9:52:4e:b2:62:a8:a5:a4:3f:da:e9:49:6a:52:37:9d:c3:
         65:b5:aa:32:e4:63:51:c3:3f:b6:2d:f8:65:5e:ea:86:e7:44:
         f5:7e:2f:22:2b:a6:9a:0e:f7:67:8c:da:83:09:d2:a6:f8:ea:
         a0:14:00:6a:f3:cb:d1:6d:e0:7e:88:28:c7:56:b7:b5:42:4d:
         9d:5b:6c:cc:19:1d:22:69:0a:44:f6:38:2d:ac:dc:15:64:43:
         57:e9:26:3e:94:bc:b5:1b:9b:b0:b0:78:93:69:2c:f5:eb:9a:
         2b:fa:6f:4a:0e:cb:18:c0:c0:54:0f:92:b4:a3:f3:ca:b8:42:
         5c:3d:db:d3:e8:48:08:2e:fb:d1:af:25:ed:cb:10:46:5f:5e:
         aa:b3:f4:ee:7c:72:6e:f7:3d:eb:a1:8d:33:b2:4b:eb:35:da:
         dc:83:d0:d0
-----BEGIN CERTIFICATE-----
MIIFNjCCBB6gAwIBAgIQRkHqv//wBOpVYHC5H9WLBTANBgkqhkiG9w0BAQsFADCB
rzELMAkGA1UEBhMCVVMxEzARBgNVBAgMCkNhbGlmb3JuaWExFjAUBgNVBAcMDVNh
biBGcmFuY2lzY28xIDAeBgNVBAoMF0NvcHlsZWZ0IENlcnRpZmljYXRlIENvMR8w
HQYDVQQLDBZNeSBPcmdhbml6YXRpb25hbCBVbml0MREwDwYDVQQDDAhDaGFuZ2VN
ZTEdMBsGCSqGSIb3DQEJARYObWVAZXhhbXBsZS5uZXQwHhcNMjEwMTIzMTgzMDMz
WhcNMjIwMTIzMTgzMDMzWjCBwjELMAkGA1UEBhMCVVMxCzAJBgNVBAgMAk9IMRMw
EQYDVQQHDApDaW5jaW5uYXRpMSEwHwYDVQQKDBhVbml2ZXJzaXR5IG9mIENpbmNp
bm5hdGkxMDAuBgNVBAsMJ0RlcHQuIEVsZWN0cmljYWwgRW5nLiBhbmQgQ29tcHV0
ZXIgU2NpLjESMBAGA1UEAwwJY2xpZW50MTQwMSgwJgYJKoZIhvcNAQkBFhlmcmFu
Y29AZ2F1c3MuZWNlY3MudWMuZWR1MIIBIjANBgkqhkiG9w0BAQEFAAOCAQ8AMIIB
CgKCAQEAu6iw81hk8imhWYX2atoFx+hfx3qx0gcLBMmEVNM2Wko/c5LAlHE//0BZ
wdfkHYTTEbf7pKXJacpdN065C3+LSbsLMnEvaI93aVZRhMMzEOTI8gASU6boATyp
JyAMCtOzzezVWXHplbaBZAUB1dZSUDffOe4nqCYFr+HS+EpS+hAhmi/Lkan/9m2m
GaXztuTqSqnowWlkNz+u4ih+mOpEQIVuzKwKOmxe+u/06eYRD5aOjIJE/Op4sxzd
KcZmNEd3J3MnCHo2biFYABqJWAyylxzl33KatsLMDR5CA75BTRrGuXXMXiP+hBvn
xsUxA+LXW+92BZfiQGnEW4O42/huFQIDAQABo4IBNzCCATMwCQYDVR0TBAIwADAd
BgNVHQ4EFgQU8VMN9E7guEpYJad6riGw8frIjQIwgeQGA1UdIwSB3DCB2YAU79y2
PUv9p4cFxSI9i9y/mSru5NuhgbWkgbIwga8xCzAJBgNVBAYTAlVTMRMwEQYDVQQI
DApDYWxpZm9ybmlhMRYwFAYDVQQHDA1TYW4gRnJhbmNpc2NvMSAwHgYDVQQKDBdD
b3B5bGVmdCBDZXJ0aWZpY2F0ZSBDbzEfMB0GA1UECwwWTXkgT3JnYW5pemF0aW9u
YWwgVW5pdDERMA8GA1UEAwwIQ2hhbmdlTWUxHTAbBgkqhkiG9w0BCQEWDm1lQGV4
YW1wbGUubmV0ggkAhx4d3GuMZogwEwYDVR0lBAwwCgYIKwYBBQUHAwIwCwYDVR0P
BAQDAgeAMA0GCSqGSIb3DQEBCwUAA4IBAQDeiP7Rotp7hhjzH3CFMYn04Kn4qpXC
Ji5TATGhaaM/TZx2oX6O+qCc6JF+vPvnAqdLhp3TD8Y8jrTVxkt83CCrW/L0nPpp
j9iLm7qGbfS6T8xfwfycumtEmrc76VJOsmKopaQ/2ulJalI3ncNltaoy5GNRwz+2
LfhlXuqG50T1fi8iK6aaDvdnjNqDCdKm+OqgFABq88vRbeB+iCjHVre1Qk2dW2zM
GR0iaQpE9jgtrNwVZENX6SY+lLy1G5uwsHiTaSz165or+m9KDssYwMBUD5K0o/PK
uEJcPdvT6EgILvvRryXtyxBGX16qs/TufHJu9z3roY0zskvrNdrcg9DQ
-----END CERTIFICATE-----
