Certificate:
    Data:
        Version: 3 (0x2)
        Serial Number:
            8d:9f:8f:ab:07:d8:8b:1a:ce:fc:f0:09:5a:a3:3e:ef
    Signature Algorithm: sha256WithRSAEncryption
        Issuer: C=US, ST=California, L=San Francisco, O=Copyleft Certificate Co, OU=My Organizational Unit, CN=ChangeMe/emailAddress=me@example.net
        Validity
            Not Before: Nov 10 17:26:08 2023 GMT
            Not After : Nov  9 17:26:08 2024 GMT
        Subject: C=US, ST=OH, L=Cincinnati, O=University of Cincinnati, OU=Dept_Elec_Com_ Eng_Com_Sci., CN=client26/emailAddress=franco@gauss.ececs.uc.edu
        Subject Public Key Info:
            Public Key Algorithm: rsaEncryption
                Public-Key: (2048 bit)
                Modulus:
                    00:ce:eb:98:3c:07:1b:90:46:fa:49:24:34:fa:4d:
                    02:d3:51:97:1a:2c:6c:3d:18:b1:01:67:d1:be:07:
                    13:c4:d9:21:9d:8d:a6:f6:9a:83:02:50:c0:b7:fe:
                    78:63:d9:29:73:6a:df:ee:08:00:fc:82:be:8f:d4:
                    c7:cd:ff:98:7d:6f:3a:5b:93:dc:79:7c:96:6a:09:
                    db:fa:48:9d:cf:01:67:d7:38:49:dd:c2:e4:35:83:
                    d3:37:91:2b:b6:fb:78:82:05:5f:1a:e8:40:42:c7:
                    2a:6f:77:24:7d:75:48:98:93:b5:ee:b3:5c:9d:56:
                    a5:0b:1c:bc:16:57:ce:90:2f:10:c2:ec:e0:95:d0:
                    0e:d4:81:58:37:3a:4e:98:af:51:07:43:1f:36:9d:
                    49:7d:f3:e0:99:2e:ee:0f:22:dc:2b:48:c3:63:34:
                    63:a7:6a:c2:f3:38:e1:78:8b:d6:f2:f9:e3:80:a7:
                    99:30:80:23:6a:30:36:15:fa:88:eb:eb:60:2d:48:
                    e6:d2:fa:06:4e:30:a1:d7:46:f2:de:c1:db:2c:08:
                    b5:d7:d5:24:d1:eb:40:b9:fa:cd:aa:f1:7e:fc:b5:
                    05:9a:6d:36:31:9e:65:e3:ec:f5:b6:b1:44:13:b5:
                    64:e9:84:68:6d:73:c4:5f:75:cd:30:8c:78:78:4d:
                    2a:33
                Exponent: 65537 (0x10001)
        X509v3 extensions:
            X509v3 Basic Constraints: 
                CA:FALSE
            X509v3 Subject Key Identifier: 
                78:EC:08:59:68:C3:EC:1F:77:C8:81:17:42:ED:EB:83:45:45:B2:C4
            X509v3 Authority Key Identifier: 
                keyid:D9:D4:8C:20:BC:EB:38:17:D5:4B:52:F8:AA:C5:D2:44:DD:A2:6A:3B
                DirName:/C=US/ST=California/L=San Francisco/O=Copyleft Certificate Co/OU=My Organizational Unit/CN=ChangeMe/emailAddress=me@example.net
                serial:C2:48:34:65:BF:AB:EB:AA

            X509v3 Extended Key Usage: 
                TLS Web Client Authentication
            X509v3 Key Usage: 
                Digital Signature
    Signature Algorithm: sha256WithRSAEncryption
         79:94:45:fc:c4:19:d3:3f:b1:73:6d:7f:ec:30:f5:7a:1a:d3:
         4f:69:73:7f:c5:88:70:22:44:22:95:c8:23:ff:4a:2e:9e:c4:
         a1:39:1e:46:2e:6f:ac:a6:16:0d:22:11:0d:14:c1:12:a9:2c:
         42:67:7b:ec:a3:02:06:3c:d2:b1:11:4a:0d:9a:f9:95:ae:ae:
         6c:4d:34:a2:77:d5:33:df:50:08:79:97:0b:65:f9:50:58:6e:
         a2:ad:e1:da:89:38:60:93:d1:6b:38:5c:d6:d6:1b:86:ef:42:
         18:8e:82:ab:e4:4a:f2:a5:bf:75:5a:36:f6:86:b8:af:b4:0f:
         0e:eb:d9:4c:f5:cf:2c:62:5e:44:3f:a1:6b:56:1b:df:68:f9:
         73:ba:ea:36:0c:39:95:5a:68:41:03:7c:18:ae:76:54:c1:1a:
         d5:d8:ae:d7:2b:6f:d4:53:7a:83:20:95:05:5b:4c:ed:19:92:
         34:fc:c7:8c:40:37:15:4b:d0:c6:41:df:92:d8:fc:7f:e2:f3:
         55:c8:9a:e2:9a:01:ec:ff:6b:11:ed:6a:18:a3:a0:6b:b6:55:
         b1:df:af:a5:3a:0e:a8:71:6b:8c:0b:2b:22:c5:30:d6:69:10:
         28:09:c5:85:a6:e2:d0:0f:03:56:79:0b:6d:b2:25:cf:6a:1c:
         8d:a7:e4:67
-----BEGIN CERTIFICATE-----
MIIFKjCCBBKgAwIBAgIRAI2fj6sH2IsazvzwCVqjPu8wDQYJKoZIhvcNAQELBQAw
ga8xCzAJBgNVBAYTAlVTMRMwEQYDVQQIDApDYWxpZm9ybmlhMRYwFAYDVQQHDA1T
YW4gRnJhbmNpc2NvMSAwHgYDVQQKDBdDb3B5bGVmdCBDZXJ0aWZpY2F0ZSBDbzEf
MB0GA1UECwwWTXkgT3JnYW5pemF0aW9uYWwgVW5pdDERMA8GA1UEAwwIQ2hhbmdl
TWUxHTAbBgkqhkiG9w0BCQEWDm1lQGV4YW1wbGUubmV0MB4XDTIzMTExMDE3MjYw
OFoXDTI0MTEwOTE3MjYwOFowgbUxCzAJBgNVBAYTAlVTMQswCQYDVQQIDAJPSDET
MBEGA1UEBwwKQ2luY2lubmF0aTEhMB8GA1UECgwYVW5pdmVyc2l0eSBvZiBDaW5j
aW5uYXRpMSQwIgYDVQQLDBtEZXB0X0VsZWNfQ29tXyBFbmdfQ29tX1NjaS4xETAP
BgNVBAMMCGNsaWVudDI2MSgwJgYJKoZIhvcNAQkBFhlmcmFuY29AZ2F1c3MuZWNl
Y3MudWMuZWR1MIIBIjANBgkqhkiG9w0BAQEFAAOCAQ8AMIIBCgKCAQEAzuuYPAcb
kEb6SSQ0+k0C01GXGixsPRixAWfRvgcTxNkhnY2m9pqDAlDAt/54Y9kpc2rf7ggA
/IK+j9THzf+YfW86W5PceXyWagnb+kidzwFn1zhJ3cLkNYPTN5Ertvt4ggVfGuhA
Qscqb3ckfXVImJO17rNcnValCxy8FlfOkC8QwuzgldAO1IFYNzpOmK9RB0MfNp1J
ffPgmS7uDyLcK0jDYzRjp2rC8zjheIvW8vnjgKeZMIAjajA2FfqI6+tgLUjm0voG
TjCh10by3sHbLAi119Uk0etAufrNqvF+/LUFmm02MZ5l4+z1trFEE7Vk6YRobXPE
X3XNMIx4eE0qMwIDAQABo4IBNzCCATMwCQYDVR0TBAIwADAdBgNVHQ4EFgQUeOwI
WWjD7B93yIEXQu3rg0VFssQwgeQGA1UdIwSB3DCB2YAU2dSMILzrOBfVS1L4qsXS
RN2iajuhgbWkgbIwga8xCzAJBgNVBAYTAlVTMRMwEQYDVQQIDApDYWxpZm9ybmlh
MRYwFAYDVQQHDA1TYW4gRnJhbmNpc2NvMSAwHgYDVQQKDBdDb3B5bGVmdCBDZXJ0
aWZpY2F0ZSBDbzEfMB0GA1UECwwWTXkgT3JnYW5pemF0aW9uYWwgVW5pdDERMA8G
A1UEAwwIQ2hhbmdlTWUxHTAbBgkqhkiG9w0BCQEWDm1lQGV4YW1wbGUubmV0ggkA
wkg0Zb+r66owEwYDVR0lBAwwCgYIKwYBBQUHAwIwCwYDVR0PBAQDAgeAMA0GCSqG
SIb3DQEBCwUAA4IBAQB5lEX8xBnTP7FzbX/sMPV6GtNPaXN/xYhwIkQilcgj/0ou
nsShOR5GLm+sphYNIhENFMESqSxCZ3vsowIGPNKxEUoNmvmVrq5sTTSid9Uz31AI
eZcLZflQWG6ireHaiThgk9FrOFzW1huG70IYjoKr5Erypb91Wjb2hrivtA8O69lM
9c8sYl5EP6FrVhvfaPlzuuo2DDmVWmhBA3wYrnZUwRrV2K7XK2/UU3qDIJUFW0zt
GZI0/MeMQDcVS9DGQd+S2Px/4vNVyJrimgHs/2sR7WoYo6BrtlWx36+lOg6ocWuM
CysixTDWaRAoCcWFpuLQDwNWeQttsiXPahyNp+Rn
-----END CERTIFICATE-----
