Certificate:
    Data:
        Version: 3 (0x2)
        Serial Number:
            81:63:2b:0b:6d:35:fd:83:1c:1f:91:62:1c:65:73:42
    Signature Algorithm: sha256WithRSAEncryption
        Issuer: C=US, ST=California, L=San Francisco, O=Copyleft Certificate Co, OU=My Organizational Unit, CN=ChangeMe/emailAddress=me@example.net
        Validity
            Not Before: Nov 10 17:27:08 2023 GMT
            Not After : Nov  9 17:27:08 2024 GMT
        Subject: C=US, ST=OH, L=Cincinnati, O=University of Cincinnati, OU=Dept_Elec_Com_ Eng_Com_Sci., CN=client41/emailAddress=franco@gauss.ececs.uc.edu
        Subject Public Key Info:
            Public Key Algorithm: rsaEncryption
                Public-Key: (2048 bit)
                Modulus:
                    00:9f:21:81:01:80:ea:74:e1:f2:1a:19:97:12:a0:
                    a5:2f:04:d4:56:ad:ec:2f:8e:45:b3:12:9e:5b:08:
                    16:87:38:eb:b0:97:f6:cb:c8:05:c6:6a:34:9f:f3:
                    0e:f9:5f:0e:d5:9a:be:b3:29:65:76:1d:1d:5b:f1:
                    f4:70:32:7b:41:8f:33:12:27:53:87:69:8b:28:3d:
                    4c:5a:17:4b:fb:d2:96:9f:a8:73:ce:0b:6d:16:5e:
                    47:a5:72:f9:91:47:82:ac:4b:9a:a9:07:9a:59:1f:
                    a8:01:dc:f2:89:96:4c:fd:97:46:6b:0c:02:b6:14:
                    f6:76:30:f8:f0:43:5d:8b:c1:56:86:77:71:88:45:
                    bd:e0:da:24:79:bf:e1:c1:31:80:69:e9:cf:c1:ae:
                    11:54:1c:fe:80:6c:ee:2d:47:37:77:03:31:61:f0:
                    a3:e2:84:94:ae:c9:d4:25:13:52:57:95:dc:79:84:
                    39:8f:2d:d7:f1:40:fe:5d:d5:6e:36:6a:8f:25:7c:
                    6c:c6:97:aa:c4:3c:b5:64:4d:02:92:f6:5a:68:6c:
                    af:c8:e9:0e:f8:0e:49:e4:50:2f:cb:f3:c8:b9:19:
                    74:ec:24:02:b9:9e:2b:cc:89:d9:9b:06:78:ff:30:
                    78:f9:9c:fb:df:b7:04:3c:d2:72:7d:26:2f:af:72:
                    eb:f5
                Exponent: 65537 (0x10001)
        X509v3 extensions:
            X509v3 Basic Constraints: 
                CA:FALSE
            X509v3 Subject Key Identifier: 
                60:C6:46:12:B7:93:9A:FD:18:86:01:06:F1:46:22:7D:CD:6D:EF:E7
            X509v3 Authority Key Identifier: 
                keyid:D9:D4:8C:20:BC:EB:38:17:D5:4B:52:F8:AA:C5:D2:44:DD:A2:6A:3B
                DirName:/C=US/ST=California/L=San Francisco/O=Copyleft Certificate Co/OU=My Organizational Unit/CN=ChangeMe/emailAddress=me@example.net
                serial:C2:48:34:65:BF:AB:EB:AA

            X509v3 Extended Key Usage: 
                TLS Web Client Authentication
            X509v3 Key Usage: 
                Digital Signature
    Signature Algorithm: sha256WithRSAEncryption
         0e:85:95:49:31:84:e6:04:7b:fe:0a:3f:79:27:9f:7c:56:ed:
         0d:36:7b:6f:30:f7:3b:b1:fc:2b:c6:0e:ab:07:84:de:9a:08:
         b5:a6:46:92:9f:21:d8:c6:74:fa:ff:d6:17:90:42:69:1b:3d:
         3a:ef:1c:98:42:d5:f2:98:08:f2:3a:1e:ff:6c:28:99:6d:c8:
         52:58:5e:0a:c0:b4:25:15:2c:92:49:63:7a:fc:77:70:05:c5:
         f4:75:23:42:48:bf:7a:7a:be:1d:8c:3a:31:d8:ca:c3:3b:e4:
         ca:42:48:cd:5a:57:88:c1:65:90:d9:dd:e4:bd:ce:d5:a8:ee:
         46:56:3c:07:10:d7:e3:6f:f9:a5:cc:1c:1d:4e:3e:4e:00:14:
         3a:fd:e1:a6:45:1e:90:e5:c3:8c:7b:e1:6a:c2:f1:c2:8b:63:
         80:a1:d7:9b:0b:44:39:bb:d2:73:42:54:3c:df:44:f6:ea:ae:
         01:34:06:09:5e:a0:ea:5d:f4:dc:85:93:ff:27:7d:f0:d6:77:
         af:3f:aa:e2:ee:15:7c:91:91:ab:72:1e:1f:9e:d7:a5:15:e6:
         c1:de:6c:68:d2:af:a9:e8:32:ba:26:15:f8:3e:62:e9:64:2f:
         81:49:37:3b:96:a9:45:ec:70:c7:00:18:1e:31:76:45:d2:0c:
         34:ec:86:3a
-----BEGIN CERTIFICATE-----
MIIFKjCCBBKgAwIBAgIRAIFjKwttNf2DHB+RYhxlc0IwDQYJKoZIhvcNAQELBQAw
ga8xCzAJBgNVBAYTAlVTMRMwEQYDVQQIDApDYWxpZm9ybmlhMRYwFAYDVQQHDA1T
YW4gRnJhbmNpc2NvMSAwHgYDVQQKDBdDb3B5bGVmdCBDZXJ0aWZpY2F0ZSBDbzEf
MB0GA1UECwwWTXkgT3JnYW5pemF0aW9uYWwgVW5pdDERMA8GA1UEAwwIQ2hhbmdl
TWUxHTAbBgkqhkiG9w0BCQEWDm1lQGV4YW1wbGUubmV0MB4XDTIzMTExMDE3Mjcw
OFoXDTI0MTEwOTE3MjcwOFowgbUxCzAJBgNVBAYTAlVTMQswCQYDVQQIDAJPSDET
MBEGA1UEBwwKQ2luY2lubmF0aTEhMB8GA1UECgwYVW5pdmVyc2l0eSBvZiBDaW5j
aW5uYXRpMSQwIgYDVQQLDBtEZXB0X0VsZWNfQ29tXyBFbmdfQ29tX1NjaS4xETAP
BgNVBAMMCGNsaWVudDQxMSgwJgYJKoZIhvcNAQkBFhlmcmFuY29AZ2F1c3MuZWNl
Y3MudWMuZWR1MIIBIjANBgkqhkiG9w0BAQEFAAOCAQ8AMIIBCgKCAQEAnyGBAYDq
dOHyGhmXEqClLwTUVq3sL45FsxKeWwgWhzjrsJf2y8gFxmo0n/MO+V8O1Zq+syll
dh0dW/H0cDJ7QY8zEidTh2mLKD1MWhdL+9KWn6hzzgttFl5HpXL5kUeCrEuaqQea
WR+oAdzyiZZM/ZdGawwCthT2djD48ENdi8FWhndxiEW94Nokeb/hwTGAaenPwa4R
VBz+gGzuLUc3dwMxYfCj4oSUrsnUJRNSV5XceYQ5jy3X8UD+XdVuNmqPJXxsxpeq
xDy1ZE0CkvZaaGyvyOkO+A5J5FAvy/PIuRl07CQCuZ4rzInZmwZ4/zB4+Zz737cE
PNJyfSYvr3Lr9QIDAQABo4IBNzCCATMwCQYDVR0TBAIwADAdBgNVHQ4EFgQUYMZG
EreTmv0YhgEG8UYifc1t7+cwgeQGA1UdIwSB3DCB2YAU2dSMILzrOBfVS1L4qsXS
RN2iajuhgbWkgbIwga8xCzAJBgNVBAYTAlVTMRMwEQYDVQQIDApDYWxpZm9ybmlh
MRYwFAYDVQQHDA1TYW4gRnJhbmNpc2NvMSAwHgYDVQQKDBdDb3B5bGVmdCBDZXJ0
aWZpY2F0ZSBDbzEfMB0GA1UECwwWTXkgT3JnYW5pemF0aW9uYWwgVW5pdDERMA8G
A1UEAwwIQ2hhbmdlTWUxHTAbBgkqhkiG9w0BCQEWDm1lQGV4YW1wbGUubmV0ggkA
wkg0Zb+r66owEwYDVR0lBAwwCgYIKwYBBQUHAwIwCwYDVR0PBAQDAgeAMA0GCSqG
SIb3DQEBCwUAA4IBAQAOhZVJMYTmBHv+Cj95J598Vu0NNntvMPc7sfwrxg6rB4Te
mgi1pkaSnyHYxnT6/9YXkEJpGz067xyYQtXymAjyOh7/bCiZbchSWF4KwLQlFSyS
SWN6/HdwBcX0dSNCSL96er4djDox2MrDO+TKQkjNWleIwWWQ2d3kvc7VqO5GVjwH
ENfjb/mlzBwdTj5OABQ6/eGmRR6Q5cOMe+FqwvHCi2OAodebC0Q5u9JzQlQ830T2
6q4BNAYJXqDqXfTchZP/J33w1nevP6ri7hV8kZGrch4fntelFebB3mxo0q+p6DK6
JhX4PmLpZC+BSTc7lqlF7HDHABgeMXZF0gw07IY6
-----END CERTIFICATE-----
