Certificate:
    Data:
        Version: 3 (0x2)
        Serial Number:
            40:83:4e:b3:15:fb:33:ec:1d:54:2c:0c:a1:f7:a3:5d
    Signature Algorithm: sha256WithRSAEncryption
        Issuer: C=US, ST=California, L=San Francisco, O=Copyleft Certificate Co, OU=My Organizational Unit, CN=ChangeMe/emailAddress=me@example.net
        Validity
            Not Before: Jan 23 18:28:53 2021 GMT
            Not After : Jan 23 18:28:53 2022 GMT
        Subject: C=US, ST=OH, L=Cincinnati, O=University of Cincinnati, OU=Dept. Electrical Eng. and Computer Sci., CN=client69/emailAddress=franco@gauss.ececs.uc.edu
        Subject Public Key Info:
            Public Key Algorithm: rsaEncryption
                Public-Key: (2048 bit)
                Modulus:
                    00:b9:d5:93:ef:89:09:cc:e9:56:c9:8e:3c:af:85:
                    6e:1b:77:01:75:54:98:5d:71:8d:75:01:e7:80:42:
                    c7:80:cf:da:e1:30:a7:6a:fe:92:3e:93:31:ad:df:
                    02:b9:1e:f8:04:28:4b:7f:bd:3c:07:cd:6d:f8:62:
                    18:0c:f0:12:be:38:16:f7:d0:56:57:42:df:32:0a:
                    35:7f:21:ba:45:0c:01:20:fc:ef:7c:5c:d9:d5:93:
                    9f:89:d4:9b:ce:54:23:bb:91:24:04:eb:0a:da:fe:
                    30:d0:dd:c8:45:51:6f:d2:a6:f7:e3:27:62:20:80:
                    77:9e:94:c7:0d:2e:00:9e:48:8d:22:5e:63:03:aa:
                    5a:9f:ac:92:56:25:ea:b5:09:5e:ca:b6:50:9c:e6:
                    83:ec:96:72:45:dd:c1:a1:4a:ae:35:fb:7a:59:43:
                    24:f9:0f:6f:a7:c6:4a:63:d9:ff:43:6e:35:17:a8:
                    58:6d:c9:4e:eb:3f:80:10:b1:58:f8:40:cc:c2:8e:
                    fc:e5:84:a0:e9:4c:78:0a:2d:64:df:a7:08:bd:aa:
                    3a:e7:bb:94:39:a9:8a:2a:f7:be:be:fe:f7:14:99:
                    65:86:24:b4:5c:22:24:ce:f7:bb:ce:4f:60:56:7a:
                    c8:fb:f6:5d:08:f2:c7:44:83:da:d9:23:be:42:4e:
                    c7:6d
                Exponent: 65537 (0x10001)
        X509v3 extensions:
            X509v3 Basic Constraints: 
                CA:FALSE
            X509v3 Subject Key Identifier: 
                F0:F1:33:D0:B0:D7:62:EB:36:FA:FF:87:F6:40:0A:56:14:A3:FD:E6
            X509v3 Authority Key Identifier: 
                keyid:EF:DC:B6:3D:4B:FD:A7:87:05:C5:22:3D:8B:DC:BF:99:2A:EE:E4:DB
                DirName:/C=US/ST=California/L=San Francisco/O=Copyleft Certificate Co/OU=My Organizational Unit/CN=ChangeMe/emailAddress=me@example.net
                serial:87:1E:1D:DC:6B:8C:66:88

            X509v3 Extended Key Usage: 
                TLS Web Client Authentication
            X509v3 Key Usage: 
                Digital Signature
    Signature Algorithm: sha256WithRSAEncryption
         4a:07:9b:58:40:82:ab:31:87:a9:9e:8e:0a:31:3e:7d:43:a0:
         35:ee:fe:c2:04:c1:e7:70:af:1a:d0:25:a4:dc:bb:a0:ff:0b:
         63:a2:62:67:a4:aa:bc:68:78:14:42:97:34:72:28:10:d8:22:
         66:5f:8c:c7:26:d7:12:65:e5:d9:76:8d:97:94:d1:aa:75:75:
         05:b6:54:91:3b:f1:41:1b:ef:6b:a7:49:14:65:6d:5f:76:5b:
         d0:eb:69:4c:5a:8d:b8:16:ef:e4:07:70:cb:47:8d:ba:6d:9b:
         71:99:bf:31:79:45:ba:6c:a1:cc:9f:a0:e7:e1:05:c1:47:ad:
         43:c4:d5:37:f3:6a:5b:7b:66:0e:f6:18:c1:f5:8b:aa:f7:39:
         d3:62:90:b2:ea:b2:ff:ff:6e:86:d9:bb:77:28:f8:c4:62:17:
         c8:27:75:78:3b:67:06:02:28:c0:6d:a9:b8:c4:2d:84:4f:a6:
         10:c5:e1:65:ee:9b:22:59:ee:a2:44:9e:97:26:1d:34:74:7e:
         65:19:c1:67:4a:6b:9f:40:09:7e:87:b1:ce:b6:45:42:4d:bd:
         fc:f4:4e:7a:35:dd:39:26:3f:09:da:9e:72:22:34:43:ce:a9:
         20:2f:c9:e9:89:eb:71:3b:c6:1f:c5:58:f8:c6:dd:82:37:14:
         fd:b3:cd:ae
-----BEGIN CERTIFICATE-----
MIIFNTCCBB2gAwIBAgIQQINOsxX7M+wdVCwMofejXTANBgkqhkiG9w0BAQsFADCB
rzELMAkGA1UEBhMCVVMxEzARBgNVBAgMCkNhbGlmb3JuaWExFjAUBgNVBAcMDVNh
biBGcmFuY2lzY28xIDAeBgNVBAoMF0NvcHlsZWZ0IENlcnRpZmljYXRlIENvMR8w
HQYDVQQLDBZNeSBPcmdhbml6YXRpb25hbCBVbml0MREwDwYDVQQDDAhDaGFuZ2VN
ZTEdMBsGCSqGSIb3DQEJARYObWVAZXhhbXBsZS5uZXQwHhcNMjEwMTIzMTgyODUz
WhcNMjIwMTIzMTgyODUzWjCBwTELMAkGA1UEBhMCVVMxCzAJBgNVBAgMAk9IMRMw
EQYDVQQHDApDaW5jaW5uYXRpMSEwHwYDVQQKDBhVbml2ZXJzaXR5IG9mIENpbmNp
bm5hdGkxMDAuBgNVBAsMJ0RlcHQuIEVsZWN0cmljYWwgRW5nLiBhbmQgQ29tcHV0
ZXIgU2NpLjERMA8GA1UEAwwIY2xpZW50NjkxKDAmBgkqhkiG9w0BCQEWGWZyYW5j
b0BnYXVzcy5lY2Vjcy51Yy5lZHUwggEiMA0GCSqGSIb3DQEBAQUAA4IBDwAwggEK
AoIBAQC51ZPviQnM6VbJjjyvhW4bdwF1VJhdcY11AeeAQseAz9rhMKdq/pI+kzGt
3wK5HvgEKEt/vTwHzW34YhgM8BK+OBb30FZXQt8yCjV/IbpFDAEg/O98XNnVk5+J
1JvOVCO7kSQE6wra/jDQ3chFUW/SpvfjJ2IggHeelMcNLgCeSI0iXmMDqlqfrJJW
Jeq1CV7KtlCc5oPslnJF3cGhSq41+3pZQyT5D2+nxkpj2f9DbjUXqFhtyU7rP4AQ
sVj4QMzCjvzlhKDpTHgKLWTfpwi9qjrnu5Q5qYoq976+/vcUmWWGJLRcIiTO97vO
T2BWesj79l0I8sdEg9rZI75CTsdtAgMBAAGjggE3MIIBMzAJBgNVHRMEAjAAMB0G
A1UdDgQWBBTw8TPQsNdi6zb6/4f2QApWFKP95jCB5AYDVR0jBIHcMIHZgBTv3LY9
S/2nhwXFIj2L3L+ZKu7k26GBtaSBsjCBrzELMAkGA1UEBhMCVVMxEzARBgNVBAgM
CkNhbGlmb3JuaWExFjAUBgNVBAcMDVNhbiBGcmFuY2lzY28xIDAeBgNVBAoMF0Nv
cHlsZWZ0IENlcnRpZmljYXRlIENvMR8wHQYDVQQLDBZNeSBPcmdhbml6YXRpb25h
bCBVbml0MREwDwYDVQQDDAhDaGFuZ2VNZTEdMBsGCSqGSIb3DQEJARYObWVAZXhh
bXBsZS5uZXSCCQCHHh3ca4xmiDATBgNVHSUEDDAKBggrBgEFBQcDAjALBgNVHQ8E
BAMCB4AwDQYJKoZIhvcNAQELBQADggEBAEoHm1hAgqsxh6mejgoxPn1DoDXu/sIE
wedwrxrQJaTcu6D/C2OiYmekqrxoeBRClzRyKBDYImZfjMcm1xJl5dl2jZeU0ap1
dQW2VJE78UEb72unSRRlbV92W9DraUxajbgW7+QHcMtHjbptm3GZvzF5Rbpsocyf
oOfhBcFHrUPE1Tfzalt7Zg72GMH1i6r3OdNikLLqsv//bobZu3co+MRiF8gndXg7
ZwYCKMBtqbjELYRPphDF4WXumyJZ7qJEnpcmHTR0fmUZwWdKa59ACX6Hsc62RUJN
vfz0Tno13TkmPwnannIiNEPOqSAvyemJ63E7xh/FWPjG3YI3FP2zza4=
-----END CERTIFICATE-----
