Certificate:
    Data:
        Version: 3 (0x2)
        Serial Number:
            25:ec:fa:bb:d7:29:9f:e8:d9:e4:55:5a:d1:fb:33
    Signature Algorithm: sha256WithRSAEncryption
        Issuer: C=US, ST=California, L=San Francisco, O=Copyleft Certificate Co, OU=My Organizational Unit, CN=ChangeMe/emailAddress=me@example.net
        Validity
            Not Before: Nov 10 17:26:52 2023 GMT
            Not After : Nov  9 17:26:52 2024 GMT
        Subject: C=US, ST=OH, L=Cincinnati, O=University of Cincinnati, OU=Dept_Elec_Com_ Eng_Com_Sci., CN=client37/emailAddress=franco@gauss.ececs.uc.edu
        Subject Public Key Info:
            Public Key Algorithm: rsaEncryption
                Public-Key: (2048 bit)
                Modulus:
                    00:bc:c0:d9:9d:d9:13:5d:f5:b8:8a:01:fb:ef:a0:
                    01:71:a3:1c:97:d9:bf:3d:7b:4d:ff:c9:51:70:f4:
                    bc:ba:39:09:80:c2:b7:8a:fd:8d:60:f2:f1:15:79:
                    33:80:02:c5:a7:74:12:ae:af:72:4e:06:d7:64:45:
                    45:9f:39:5d:05:cb:91:1a:8f:55:ac:99:70:c7:f7:
                    3f:b7:ab:2a:e4:4d:48:4c:94:96:8f:f8:39:6d:8f:
                    43:69:f1:ac:1c:18:4c:5b:a6:64:a3:74:37:5b:e0:
                    f4:d9:4a:18:56:11:d9:bf:b5:5b:0b:36:c1:77:65:
                    b3:7e:35:a2:cd:02:bc:4a:66:bb:4b:75:8d:21:be:
                    ef:75:15:43:38:b8:45:f5:56:10:3e:43:9f:13:71:
                    38:ae:07:29:56:59:8c:c0:23:2b:94:21:e6:e7:1d:
                    84:35:0a:e6:72:0f:ee:d3:88:69:12:26:8e:68:5d:
                    1b:36:29:e3:4b:8b:87:a0:a3:c1:5f:ef:6b:d2:9e:
                    b7:07:39:e8:29:fc:aa:94:ce:38:00:a7:ac:71:4f:
                    ef:d2:1e:1d:4f:ef:58:ea:62:e8:d7:f7:75:a9:3d:
                    d0:52:16:a6:22:73:f4:bd:87:3f:cd:50:9e:13:3b:
                    a6:81:20:84:de:bf:04:e8:47:c3:04:99:de:7d:08:
                    67:6d
                Exponent: 65537 (0x10001)
        X509v3 extensions:
            X509v3 Basic Constraints: 
                CA:FALSE
            X509v3 Subject Key Identifier: 
                6A:23:CF:B8:85:38:A4:C4:AA:EF:66:AF:31:D2:35:BC:FE:F7:A0:3F
            X509v3 Authority Key Identifier: 
                keyid:D9:D4:8C:20:BC:EB:38:17:D5:4B:52:F8:AA:C5:D2:44:DD:A2:6A:3B
                DirName:/C=US/ST=California/L=San Francisco/O=Copyleft Certificate Co/OU=My Organizational Unit/CN=ChangeMe/emailAddress=me@example.net
                serial:C2:48:34:65:BF:AB:EB:AA

            X509v3 Extended Key Usage: 
                TLS Web Client Authentication
            X509v3 Key Usage: 
                Digital Signature
    Signature Algorithm: sha256WithRSAEncryption
         2c:97:d9:b2:e9:fb:3a:4e:ce:92:fb:ef:f8:fd:79:71:91:2e:
         3f:40:7e:12:64:5c:6a:b2:4a:3c:6e:36:03:fd:b9:87:fc:00:
         67:b4:a3:48:e8:f2:a6:05:e7:36:a8:f5:65:65:24:92:3f:c3:
         92:a9:80:19:3c:91:c3:47:00:ee:c7:ee:6a:bf:20:30:3d:eb:
         cb:1e:68:b5:6b:d2:2d:15:a0:57:2e:49:5d:7c:8c:75:a8:45:
         74:0f:e1:a6:ce:7b:0d:08:95:2b:b9:c4:73:57:6c:5e:1a:ec:
         a8:c4:69:c4:9a:b3:d9:b7:b8:da:4c:ac:6d:87:81:bf:cd:a7:
         ac:00:b8:d3:ae:de:09:c4:f6:35:2d:35:a8:13:20:02:d1:70:
         c3:4a:16:74:79:65:4b:0b:ad:87:6b:1e:ae:bc:14:fa:75:43:
         77:4f:94:36:85:94:cc:95:f7:e0:03:be:2e:fd:14:b2:88:40:
         aa:56:13:d2:aa:5c:e5:e3:70:cf:80:c5:61:6a:4e:8f:8a:55:
         50:5d:9c:af:5f:28:08:9a:81:4b:88:02:16:84:36:71:47:90:
         69:4d:93:44:b4:fb:7e:e8:8d:9c:0e:4c:da:3b:e9:fe:4b:93:
         8f:7c:9d:94:0f:11:79:1d:3e:aa:6e:2a:a2:ce:d0:d6:6b:30:
         bf:b8:49:a4
-----BEGIN CERTIFICATE-----
MIIFKDCCBBCgAwIBAgIPJez6u9cpn+jZ5FVa0fszMA0GCSqGSIb3DQEBCwUAMIGv
MQswCQYDVQQGEwJVUzETMBEGA1UECAwKQ2FsaWZvcm5pYTEWMBQGA1UEBwwNU2Fu
IEZyYW5jaXNjbzEgMB4GA1UECgwXQ29weWxlZnQgQ2VydGlmaWNhdGUgQ28xHzAd
BgNVBAsMFk15IE9yZ2FuaXphdGlvbmFsIFVuaXQxETAPBgNVBAMMCENoYW5nZU1l
MR0wGwYJKoZIhvcNAQkBFg5tZUBleGFtcGxlLm5ldDAeFw0yMzExMTAxNzI2NTJa
Fw0yNDExMDkxNzI2NTJaMIG1MQswCQYDVQQGEwJVUzELMAkGA1UECAwCT0gxEzAR
BgNVBAcMCkNpbmNpbm5hdGkxITAfBgNVBAoMGFVuaXZlcnNpdHkgb2YgQ2luY2lu
bmF0aTEkMCIGA1UECwwbRGVwdF9FbGVjX0NvbV8gRW5nX0NvbV9TY2kuMREwDwYD
VQQDDAhjbGllbnQzNzEoMCYGCSqGSIb3DQEJARYZZnJhbmNvQGdhdXNzLmVjZWNz
LnVjLmVkdTCCASIwDQYJKoZIhvcNAQEBBQADggEPADCCAQoCggEBALzA2Z3ZE131
uIoB+++gAXGjHJfZvz17Tf/JUXD0vLo5CYDCt4r9jWDy8RV5M4ACxad0Eq6vck4G
12RFRZ85XQXLkRqPVayZcMf3P7erKuRNSEyUlo/4OW2PQ2nxrBwYTFumZKN0N1vg
9NlKGFYR2b+1Wws2wXdls341os0CvEpmu0t1jSG+73UVQzi4RfVWED5DnxNxOK4H
KVZZjMAjK5Qh5ucdhDUK5nIP7tOIaRImjmhdGzYp40uLh6CjwV/va9Ketwc56Cn8
qpTOOACnrHFP79IeHU/vWOpi6Nf3dak90FIWpiJz9L2HP81QnhM7poEghN6/BOhH
wwSZ3n0IZ20CAwEAAaOCATcwggEzMAkGA1UdEwQCMAAwHQYDVR0OBBYEFGojz7iF
OKTEqu9mrzHSNbz+96A/MIHkBgNVHSMEgdwwgdmAFNnUjCC86zgX1UtS+KrF0kTd
omo7oYG1pIGyMIGvMQswCQYDVQQGEwJVUzETMBEGA1UECAwKQ2FsaWZvcm5pYTEW
MBQGA1UEBwwNU2FuIEZyYW5jaXNjbzEgMB4GA1UECgwXQ29weWxlZnQgQ2VydGlm
aWNhdGUgQ28xHzAdBgNVBAsMFk15IE9yZ2FuaXphdGlvbmFsIFVuaXQxETAPBgNV
BAMMCENoYW5nZU1lMR0wGwYJKoZIhvcNAQkBFg5tZUBleGFtcGxlLm5ldIIJAMJI
NGW/q+uqMBMGA1UdJQQMMAoGCCsGAQUFBwMCMAsGA1UdDwQEAwIHgDANBgkqhkiG
9w0BAQsFAAOCAQEALJfZsun7Ok7Okvvv+P15cZEuP0B+EmRcarJKPG42A/25h/wA
Z7SjSOjypgXnNqj1ZWUkkj/DkqmAGTyRw0cA7sfuar8gMD3ryx5otWvSLRWgVy5J
XXyMdahFdA/hps57DQiVK7nEc1dsXhrsqMRpxJqz2be42kysbYeBv82nrAC4067e
CcT2NS01qBMgAtFww0oWdHllSwuth2serrwU+nVDd0+UNoWUzJX34AO+Lv0UsohA
qlYT0qpc5eNwz4DFYWpOj4pVUF2cr18oCJqBS4gCFoQ2cUeQaU2TRLT7fuiNnA5M
2jvp/kuTj3ydlA8ReR0+qm4qos7Q1mswv7hJpA==
-----END CERTIFICATE-----
