Certificate:
    Data:
        Version: 3 (0x2)
        Serial Number:
            92:df:d0:b5:30:47:12:70:4d:1b:29:25:38:15:af:92
    Signature Algorithm: sha256WithRSAEncryption
        Issuer: C=US, ST=California, L=San Francisco, O=Copyleft Certificate Co, OU=My Organizational Unit, CN=ChangeMe/emailAddress=me@example.net
        Validity
            Not Before: Nov 13 11:12:25 2023 GMT
            Not After : Nov 12 11:12:25 2024 GMT
        Subject: C=US, ST=OH, L=Cincinnati, O=University of Cincinnati, OU=Dept. Elec. Comp. Eng. Comp. Sci., CN=client35/emailAddress=franco@gauss.ececs.uc.edu
        Subject Public Key Info:
            Public Key Algorithm: rsaEncryption
                Public-Key: (2048 bit)
                Modulus:
                    00:e8:2d:ad:29:f1:c0:9e:69:23:30:aa:98:1c:7e:
                    ba:ce:ca:fa:a0:d5:b3:a6:65:73:f6:e4:7e:e2:04:
                    31:7b:94:35:54:b7:73:5d:f1:5b:b2:d0:c4:97:ea:
                    25:37:32:f6:62:d4:14:19:f9:a3:8a:e8:5e:5d:17:
                    0d:53:f9:a1:3c:45:72:9c:92:62:53:13:42:32:c9:
                    8c:76:8c:c3:53:91:ab:5c:1c:98:7e:7d:45:89:d3:
                    8e:c3:1c:41:e1:d5:36:ff:b8:0a:f5:3e:07:38:1f:
                    37:86:c3:29:4d:f1:0f:45:ef:8e:a5:0d:04:b2:73:
                    5d:86:db:fb:24:b2:30:b7:eb:4e:82:a6:04:b8:7a:
                    2c:5a:ea:5b:f2:10:98:54:95:c2:40:28:84:73:7d:
                    f7:c8:b9:13:d4:e7:22:d9:21:f5:1e:2a:8f:83:38:
                    22:34:76:90:a8:0c:df:f8:ff:23:bd:38:ca:da:2c:
                    73:18:e0:6d:35:31:02:2c:4d:04:c8:e6:40:ef:39:
                    66:d7:b4:44:dc:23:30:62:b9:2f:ab:01:c5:ab:fa:
                    f6:d8:56:88:bd:4b:98:84:36:e7:62:48:d0:11:d7:
                    07:27:d2:06:16:96:5a:ed:91:71:24:8c:03:a8:61:
                    fe:95:4c:09:aa:1b:96:cc:0d:8e:5c:0f:0f:f3:bc:
                    3d:9f
                Exponent: 65537 (0x10001)
        X509v3 extensions:
            X509v3 Basic Constraints: 
                CA:FALSE
            X509v3 Subject Key Identifier: 
                19:B7:2A:94:46:70:B8:1C:70:45:E1:10:44:0C:CB:77:99:06:95:08
            X509v3 Authority Key Identifier: 
                keyid:1A:DC:98:F2:69:C1:F7:C8:1D:21:43:B0:3C:79:50:4D:D8:2B:87:54
                DirName:/C=US/ST=California/L=San Francisco/O=Copyleft Certificate Co/OU=My Organizational Unit/CN=ChangeMe/emailAddress=me@example.net
                serial:8C:9B:8E:88:7A:AC:6D:8B

            X509v3 Extended Key Usage: 
                TLS Web Client Authentication
            X509v3 Key Usage: 
                Digital Signature
    Signature Algorithm: sha256WithRSAEncryption
         03:5c:fd:77:50:ab:b2:e1:66:f9:b2:0d:b7:49:35:31:a2:ca:
         a6:ac:59:22:ba:c2:58:af:db:81:ab:3a:83:12:e4:ae:da:18:
         ea:58:ce:c3:06:75:6a:63:00:ac:72:f6:7d:95:d8:b6:9b:52:
         1e:d1:a9:ca:e2:60:ed:4d:cc:73:ba:ab:65:a4:f8:a8:70:4b:
         28:1f:4c:33:d6:41:cb:81:0d:54:37:88:ee:5e:32:3a:a9:7f:
         12:d6:f8:61:67:b4:01:5c:1c:f5:79:38:58:41:cb:d5:9f:a4:
         1e:66:64:bc:95:04:c0:da:71:0c:c2:2c:61:2f:17:56:06:60:
         95:94:dd:2c:32:1c:f2:df:a5:ac:2b:4e:24:4a:b8:af:ab:b0:
         f0:a6:d2:34:0b:c8:7d:5c:13:de:12:dd:96:92:a8:e9:63:3c:
         a1:5d:34:b7:ca:24:d1:79:65:91:bf:31:8d:f2:d5:52:a7:01:
         48:ba:22:d6:78:03:82:35:03:74:46:26:5c:64:3c:22:62:62:
         74:e5:af:fb:93:b9:5d:2e:49:5e:9e:6a:09:f7:b5:cd:1f:c8:
         41:ec:62:32:48:db:c8:65:64:85:45:2b:2d:4a:4e:bc:e7:1f:
         cd:6e:a4:a1:32:c5:35:49:52:0c:95:f4:4b:91:14:e6:32:82:
         2a:30:3d:eb
-----BEGIN CERTIFICATE-----
MIIFMDCCBBigAwIBAgIRAJLf0LUwRxJwTRspJTgVr5IwDQYJKoZIhvcNAQELBQAw
ga8xCzAJBgNVBAYTAlVTMRMwEQYDVQQIDApDYWxpZm9ybmlhMRYwFAYDVQQHDA1T
YW4gRnJhbmNpc2NvMSAwHgYDVQQKDBdDb3B5bGVmdCBDZXJ0aWZpY2F0ZSBDbzEf
MB0GA1UECwwWTXkgT3JnYW5pemF0aW9uYWwgVW5pdDERMA8GA1UEAwwIQ2hhbmdl
TWUxHTAbBgkqhkiG9w0BCQEWDm1lQGV4YW1wbGUubmV0MB4XDTIzMTExMzExMTIy
NVoXDTI0MTExMjExMTIyNVowgbsxCzAJBgNVBAYTAlVTMQswCQYDVQQIDAJPSDET
MBEGA1UEBwwKQ2luY2lubmF0aTEhMB8GA1UECgwYVW5pdmVyc2l0eSBvZiBDaW5j
aW5uYXRpMSowKAYDVQQLDCFEZXB0LiBFbGVjLiBDb21wLiBFbmcuIENvbXAuIFNj
aS4xETAPBgNVBAMMCGNsaWVudDM1MSgwJgYJKoZIhvcNAQkBFhlmcmFuY29AZ2F1
c3MuZWNlY3MudWMuZWR1MIIBIjANBgkqhkiG9w0BAQEFAAOCAQ8AMIIBCgKCAQEA
6C2tKfHAnmkjMKqYHH66zsr6oNWzpmVz9uR+4gQxe5Q1VLdzXfFbstDEl+olNzL2
YtQUGfmjiuheXRcNU/mhPEVynJJiUxNCMsmMdozDU5GrXByYfn1FidOOwxxB4dU2
/7gK9T4HOB83hsMpTfEPRe+OpQ0EsnNdhtv7JLIwt+tOgqYEuHosWupb8hCYVJXC
QCiEc333yLkT1Oci2SH1HiqPgzgiNHaQqAzf+P8jvTjK2ixzGOBtNTECLE0EyOZA
7zlm17RE3CMwYrkvqwHFq/r22FaIvUuYhDbnYkjQEdcHJ9IGFpZa7ZFxJIwDqGH+
lUwJqhuWzA2OXA8P87w9nwIDAQABo4IBNzCCATMwCQYDVR0TBAIwADAdBgNVHQ4E
FgQUGbcqlEZwuBxwReEQRAzLd5kGlQgwgeQGA1UdIwSB3DCB2YAUGtyY8mnB98gd
IUOwPHlQTdgrh1ShgbWkgbIwga8xCzAJBgNVBAYTAlVTMRMwEQYDVQQIDApDYWxp
Zm9ybmlhMRYwFAYDVQQHDA1TYW4gRnJhbmNpc2NvMSAwHgYDVQQKDBdDb3B5bGVm
dCBDZXJ0aWZpY2F0ZSBDbzEfMB0GA1UECwwWTXkgT3JnYW5pemF0aW9uYWwgVW5p
dDERMA8GA1UEAwwIQ2hhbmdlTWUxHTAbBgkqhkiG9w0BCQEWDm1lQGV4YW1wbGUu
bmV0ggkAjJuOiHqsbYswEwYDVR0lBAwwCgYIKwYBBQUHAwIwCwYDVR0PBAQDAgeA
MA0GCSqGSIb3DQEBCwUAA4IBAQADXP13UKuy4Wb5sg23STUxosqmrFkiusJYr9uB
qzqDEuSu2hjqWM7DBnVqYwCscvZ9ldi2m1Ie0anK4mDtTcxzuqtlpPiocEsoH0wz
1kHLgQ1UN4juXjI6qX8S1vhhZ7QBXBz1eThYQcvVn6QeZmS8lQTA2nEMwixhLxdW
BmCVlN0sMhzy36WsK04kSrivq7DwptI0C8h9XBPeEt2WkqjpYzyhXTS3yiTReWWR
vzGN8tVSpwFIuiLWeAOCNQN0RiZcZDwiYmJ05a/7k7ldLklenmoJ97XNH8hB7GIy
SNvIZWSFRSstSk685x/NbqShMsU1SVIMlfRLkRTmMoIqMD3r
-----END CERTIFICATE-----
