Certificate:
    Data:
        Version: 3 (0x2)
        Serial Number:
            2e:6b:9c:86:1f:81:f6:46:4f:51:a3:ab:54:b3:e8:f4
    Signature Algorithm: sha256WithRSAEncryption
        Issuer: C=US, ST=California, L=San Francisco, O=Copyleft Certificate Co, OU=My Organizational Unit, CN=ChangeMe/emailAddress=me@example.net
        Validity
            Not Before: Nov 13 11:11:57 2023 GMT
            Not After : Nov 12 11:11:57 2024 GMT
        Subject: C=US, ST=OH, L=Cincinnati, O=University of Cincinnati, OU=Dept. Elec. Comp. Eng. Comp. Sci., CN=client28/emailAddress=franco@gauss.ececs.uc.edu
        Subject Public Key Info:
            Public Key Algorithm: rsaEncryption
                Public-Key: (2048 bit)
                Modulus:
                    00:c7:2c:a7:dd:83:35:9c:06:d8:3e:77:94:2d:82:
                    c5:4c:cf:e3:45:a3:75:e6:4d:ad:56:d2:11:b1:02:
                    e6:b9:15:03:66:d4:dc:08:db:60:4d:71:c6:31:9d:
                    44:03:16:24:59:86:a8:c3:f4:e2:8d:63:93:6e:d4:
                    1d:c8:de:6a:3e:ba:92:98:61:4d:2f:a6:f6:7e:c3:
                    17:20:13:06:bb:35:bf:9b:32:fb:e0:3d:9e:14:dd:
                    7f:f3:2b:a3:79:b6:b5:cc:f5:c1:e0:e3:7a:26:e2:
                    22:15:6c:62:6d:79:5d:b2:a5:e6:07:ff:55:3d:cd:
                    1b:43:df:51:d1:fa:c1:bd:e0:89:07:78:f9:90:fe:
                    6f:ae:07:0e:08:02:85:4e:36:68:65:bd:9d:57:12:
                    51:91:02:8e:2c:8e:3e:ab:e1:d7:12:20:b6:77:20:
                    5b:72:72:f4:b1:7b:b8:da:79:41:c2:13:8a:83:d4:
                    f2:eb:ff:9b:02:87:2f:39:a6:b9:8d:19:2b:1d:dc:
                    70:45:8e:35:3b:97:4f:eb:39:1c:60:95:11:d3:d2:
                    d9:6c:03:03:bf:58:ab:b9:8e:30:e7:b5:f0:32:34:
                    af:a7:f4:16:47:0e:24:38:5c:85:45:73:31:17:38:
                    32:21:cd:8e:91:a9:56:86:f0:4c:bf:98:0a:e2:f5:
                    8e:d3
                Exponent: 65537 (0x10001)
        X509v3 extensions:
            X509v3 Basic Constraints: 
                CA:FALSE
            X509v3 Subject Key Identifier: 
                D8:DB:7C:55:54:D2:DD:0B:3F:41:AE:FB:96:C5:1F:EB:BA:D4:A5:95
            X509v3 Authority Key Identifier: 
                keyid:1A:DC:98:F2:69:C1:F7:C8:1D:21:43:B0:3C:79:50:4D:D8:2B:87:54
                DirName:/C=US/ST=California/L=San Francisco/O=Copyleft Certificate Co/OU=My Organizational Unit/CN=ChangeMe/emailAddress=me@example.net
                serial:8C:9B:8E:88:7A:AC:6D:8B

            X509v3 Extended Key Usage: 
                TLS Web Client Authentication
            X509v3 Key Usage: 
                Digital Signature
    Signature Algorithm: sha256WithRSAEncryption
         63:01:d6:58:fe:e7:8e:5f:3b:e8:c8:ab:66:38:8c:a3:c1:b8:
         b0:72:c2:97:57:24:3b:90:84:57:f9:da:3d:ff:5f:56:40:72:
         b7:31:c1:12:39:a3:92:54:98:70:54:2a:90:7d:c2:f1:f6:9b:
         fc:26:28:0e:98:23:f8:b0:d6:67:09:bd:70:bd:91:0c:89:29:
         9f:30:a8:e5:a3:79:be:d2:9b:22:de:28:a3:59:c1:1c:af:dc:
         0a:51:fc:7e:87:f0:b2:57:52:37:99:7f:09:3f:e0:2e:ed:0a:
         f2:c4:79:02:9c:60:9d:18:d8:74:3f:a2:a6:f0:0e:3c:5e:c5:
         55:d4:c6:ac:3b:de:9f:bb:ff:5e:98:48:86:62:a0:ae:20:90:
         2a:24:5f:08:51:a5:0b:07:b9:28:58:2b:81:cc:a9:5e:b1:fd:
         74:1c:25:62:15:f1:4c:e2:f4:6c:84:22:2f:b5:0f:80:08:a7:
         46:c4:eb:42:23:41:cc:9e:a8:2b:6d:bc:f1:99:82:56:a2:6b:
         3c:fc:0e:38:b4:8a:4c:72:f7:1c:22:a3:e9:19:64:69:90:4e:
         a4:05:65:46:26:56:f7:37:7c:6c:cd:31:25:a4:c6:6c:33:a6:
         fe:b8:b9:cb:40:ba:5c:b5:fa:fc:d6:54:bc:00:27:67:a0:45:
         2e:fe:14:25
-----BEGIN CERTIFICATE-----
MIIFLzCCBBegAwIBAgIQLmuchh+B9kZPUaOrVLPo9DANBgkqhkiG9w0BAQsFADCB
rzELMAkGA1UEBhMCVVMxEzARBgNVBAgMCkNhbGlmb3JuaWExFjAUBgNVBAcMDVNh
biBGcmFuY2lzY28xIDAeBgNVBAoMF0NvcHlsZWZ0IENlcnRpZmljYXRlIENvMR8w
HQYDVQQLDBZNeSBPcmdhbml6YXRpb25hbCBVbml0MREwDwYDVQQDDAhDaGFuZ2VN
ZTEdMBsGCSqGSIb3DQEJARYObWVAZXhhbXBsZS5uZXQwHhcNMjMxMTEzMTExMTU3
WhcNMjQxMTEyMTExMTU3WjCBuzELMAkGA1UEBhMCVVMxCzAJBgNVBAgMAk9IMRMw
EQYDVQQHDApDaW5jaW5uYXRpMSEwHwYDVQQKDBhVbml2ZXJzaXR5IG9mIENpbmNp
bm5hdGkxKjAoBgNVBAsMIURlcHQuIEVsZWMuIENvbXAuIEVuZy4gQ29tcC4gU2Np
LjERMA8GA1UEAwwIY2xpZW50MjgxKDAmBgkqhkiG9w0BCQEWGWZyYW5jb0BnYXVz
cy5lY2Vjcy51Yy5lZHUwggEiMA0GCSqGSIb3DQEBAQUAA4IBDwAwggEKAoIBAQDH
LKfdgzWcBtg+d5QtgsVMz+NFo3XmTa1W0hGxAua5FQNm1NwI22BNccYxnUQDFiRZ
hqjD9OKNY5Nu1B3I3mo+upKYYU0vpvZ+wxcgEwa7Nb+bMvvgPZ4U3X/zK6N5trXM
9cHg43om4iIVbGJteV2ypeYH/1U9zRtD31HR+sG94IkHePmQ/m+uBw4IAoVONmhl
vZ1XElGRAo4sjj6r4dcSILZ3IFtycvSxe7jaeUHCE4qD1PLr/5sChy85prmNGSsd
3HBFjjU7l0/rORxglRHT0tlsAwO/WKu5jjDntfAyNK+n9BZHDiQ4XIVFczEXODIh
zY6RqVaG8Ey/mAri9Y7TAgMBAAGjggE3MIIBMzAJBgNVHRMEAjAAMB0GA1UdDgQW
BBTY23xVVNLdCz9BrvuWxR/rutSllTCB5AYDVR0jBIHcMIHZgBQa3JjyacH3yB0h
Q7A8eVBN2CuHVKGBtaSBsjCBrzELMAkGA1UEBhMCVVMxEzARBgNVBAgMCkNhbGlm
b3JuaWExFjAUBgNVBAcMDVNhbiBGcmFuY2lzY28xIDAeBgNVBAoMF0NvcHlsZWZ0
IENlcnRpZmljYXRlIENvMR8wHQYDVQQLDBZNeSBPcmdhbml6YXRpb25hbCBVbml0
MREwDwYDVQQDDAhDaGFuZ2VNZTEdMBsGCSqGSIb3DQEJARYObWVAZXhhbXBsZS5u
ZXSCCQCMm46IeqxtizATBgNVHSUEDDAKBggrBgEFBQcDAjALBgNVHQ8EBAMCB4Aw
DQYJKoZIhvcNAQELBQADggEBAGMB1lj+545fO+jIq2Y4jKPBuLBywpdXJDuQhFf5
2j3/X1ZAcrcxwRI5o5JUmHBUKpB9wvH2m/wmKA6YI/iw1mcJvXC9kQyJKZ8wqOWj
eb7SmyLeKKNZwRyv3ApR/H6H8LJXUjeZfwk/4C7tCvLEeQKcYJ0Y2HQ/oqbwDjxe
xVXUxqw73p+7/16YSIZioK4gkCokXwhRpQsHuShYK4HMqV6x/XQcJWIV8Uzi9GyE
Ii+1D4AIp0bE60IjQcyeqCttvPGZglaiazz8Dji0ikxy9xwio+kZZGmQTqQFZUYm
Vvc3fGzNMSWkxmwzpv64uctAuly1+vzWVLwAJ2egRS7+FCU=
-----END CERTIFICATE-----
