Certificate:
    Data:
        Version: 3 (0x2)
        Serial Number:
            d0:ff:06:13:1f:dc:50:20:4f:41:42:e6:2b:89:33:e8
    Signature Algorithm: sha256WithRSAEncryption
        Issuer: C=US, ST=California, L=San Francisco, O=Copyleft Certificate Co, OU=My Organizational Unit, CN=ChangeMe/emailAddress=me@example.net
        Validity
            Not Before: Nov 13 11:10:09 2023 GMT
            Not After : Nov 12 11:10:09 2024 GMT
        Subject: C=US, ST=OH, L=Cincinnati, O=University of Cincinnati, OU=Dept. Elec. Comp. Eng. Comp. Sci., CN=client1/emailAddress=franco@gauss.ececs.uc.edu
        Subject Public Key Info:
            Public Key Algorithm: rsaEncryption
                Public-Key: (2048 bit)
                Modulus:
                    00:bf:f8:89:2b:1d:94:5a:ed:9b:8b:14:c5:93:1c:
                    77:0c:b7:2a:b8:e2:a2:fe:80:77:0c:a1:30:7f:25:
                    9a:fd:4b:b5:4f:dd:ae:7b:09:c7:56:c1:bc:42:d1:
                    60:4a:62:ac:c3:a9:9f:d0:df:b2:9f:be:e2:e1:d6:
                    eb:e3:c6:12:64:cf:74:aa:ca:12:b2:44:a1:f3:62:
                    41:07:8b:82:53:9b:d9:2d:47:b8:3e:34:cd:48:01:
                    17:5a:3a:08:30:91:9a:60:ef:cd:54:f9:06:c2:c4:
                    45:15:38:c3:63:30:88:a7:df:50:e8:e2:8b:45:19:
                    ca:94:91:c6:5e:bf:d8:8b:b8:b6:07:a9:c9:ac:4e:
                    94:0b:fd:a5:3b:f8:5b:aa:d7:73:b1:e7:11:03:c0:
                    34:8b:7e:95:59:b7:b0:34:2f:08:3a:b1:e9:db:43:
                    e3:ca:21:73:42:df:a6:e9:ff:09:f8:30:b9:be:bb:
                    dc:44:16:ad:27:81:d3:a4:59:f8:61:fb:71:28:b7:
                    da:e1:bd:3e:62:b8:41:be:07:49:ee:7a:b2:4e:fb:
                    38:79:3f:c4:ff:b2:6e:cf:b8:c5:22:d1:03:ae:d5:
                    f2:87:06:e2:a0:06:81:aa:fa:a7:ac:f2:33:69:c7:
                    c3:4b:b0:65:aa:7f:f7:d6:19:d9:72:e6:01:a2:d3:
                    1f:d5
                Exponent: 65537 (0x10001)
        X509v3 extensions:
            X509v3 Basic Constraints: 
                CA:FALSE
            X509v3 Subject Key Identifier: 
                39:14:B1:ED:C3:F1:93:5D:2A:A1:B5:3D:5C:BE:32:0B:65:CD:64:86
            X509v3 Authority Key Identifier: 
                keyid:1A:DC:98:F2:69:C1:F7:C8:1D:21:43:B0:3C:79:50:4D:D8:2B:87:54
                DirName:/C=US/ST=California/L=San Francisco/O=Copyleft Certificate Co/OU=My Organizational Unit/CN=ChangeMe/emailAddress=me@example.net
                serial:8C:9B:8E:88:7A:AC:6D:8B

            X509v3 Extended Key Usage: 
                TLS Web Client Authentication
            X509v3 Key Usage: 
                Digital Signature
    Signature Algorithm: sha256WithRSAEncryption
         2b:72:6c:e2:77:a4:be:07:41:f9:7a:81:dd:f5:f2:19:8a:7b:
         0d:03:96:18:03:5e:a3:e0:ff:52:a2:b0:d1:d1:4b:fc:6d:a9:
         fd:66:6d:9d:3d:cd:34:5a:88:9c:4d:7f:75:77:16:d9:72:74:
         7a:97:f1:7d:3f:d7:83:38:42:d7:fa:98:e6:0e:43:91:0a:4e:
         7a:76:8a:74:b1:36:28:86:ea:3f:ca:f6:c2:bf:0a:af:d6:c0:
         70:c2:e5:ae:a3:8a:df:b9:72:1f:bc:88:9c:e1:51:98:68:d4:
         0f:e5:df:a0:da:da:85:a0:a4:9e:77:1a:03:7f:8c:86:7c:e0:
         77:b9:a3:ab:56:e6:d3:71:aa:09:04:5e:57:29:86:1b:de:43:
         d5:57:c9:98:bc:55:82:bd:ac:16:4f:b5:7e:3f:31:64:e3:26:
         45:d2:e5:0f:3f:8b:12:18:c8:03:34:e9:b5:14:c8:6d:e8:ce:
         ca:f3:84:a5:f3:6b:7c:1b:d8:b6:0f:21:56:3d:a1:d3:10:66:
         fa:b4:af:d9:31:db:02:c1:8d:c4:2e:21:27:72:1f:8c:87:a2:
         52:e8:bf:d2:6d:91:b2:cf:45:7e:49:3c:13:8c:1d:62:61:bd:
         c5:93:bf:33:35:dc:14:39:5a:50:74:39:f0:7e:bf:3c:1e:9b:
         97:e4:ed:5d
-----BEGIN CERTIFICATE-----
MIIFLzCCBBegAwIBAgIRAND/BhMf3FAgT0FC5iuJM+gwDQYJKoZIhvcNAQELBQAw
ga8xCzAJBgNVBAYTAlVTMRMwEQYDVQQIDApDYWxpZm9ybmlhMRYwFAYDVQQHDA1T
YW4gRnJhbmNpc2NvMSAwHgYDVQQKDBdDb3B5bGVmdCBDZXJ0aWZpY2F0ZSBDbzEf
MB0GA1UECwwWTXkgT3JnYW5pemF0aW9uYWwgVW5pdDERMA8GA1UEAwwIQ2hhbmdl
TWUxHTAbBgkqhkiG9w0BCQEWDm1lQGV4YW1wbGUubmV0MB4XDTIzMTExMzExMTAw
OVoXDTI0MTExMjExMTAwOVowgboxCzAJBgNVBAYTAlVTMQswCQYDVQQIDAJPSDET
MBEGA1UEBwwKQ2luY2lubmF0aTEhMB8GA1UECgwYVW5pdmVyc2l0eSBvZiBDaW5j
aW5uYXRpMSowKAYDVQQLDCFEZXB0LiBFbGVjLiBDb21wLiBFbmcuIENvbXAuIFNj
aS4xEDAOBgNVBAMMB2NsaWVudDExKDAmBgkqhkiG9w0BCQEWGWZyYW5jb0BnYXVz
cy5lY2Vjcy51Yy5lZHUwggEiMA0GCSqGSIb3DQEBAQUAA4IBDwAwggEKAoIBAQC/
+IkrHZRa7ZuLFMWTHHcMtyq44qL+gHcMoTB/JZr9S7VP3a57CcdWwbxC0WBKYqzD
qZ/Q37KfvuLh1uvjxhJkz3SqyhKyRKHzYkEHi4JTm9ktR7g+NM1IARdaOggwkZpg
781U+QbCxEUVOMNjMIin31Do4otFGcqUkcZev9iLuLYHqcmsTpQL/aU7+Fuq13Ox
5xEDwDSLfpVZt7A0Lwg6senbQ+PKIXNC36bp/wn4MLm+u9xEFq0ngdOkWfhh+3Eo
t9rhvT5iuEG+B0nuerJO+zh5P8T/sm7PuMUi0QOu1fKHBuKgBoGq+qes8jNpx8NL
sGWqf/fWGdly5gGi0x/VAgMBAAGjggE3MIIBMzAJBgNVHRMEAjAAMB0GA1UdDgQW
BBQ5FLHtw/GTXSqhtT1cvjILZc1khjCB5AYDVR0jBIHcMIHZgBQa3JjyacH3yB0h
Q7A8eVBN2CuHVKGBtaSBsjCBrzELMAkGA1UEBhMCVVMxEzARBgNVBAgMCkNhbGlm
b3JuaWExFjAUBgNVBAcMDVNhbiBGcmFuY2lzY28xIDAeBgNVBAoMF0NvcHlsZWZ0
IENlcnRpZmljYXRlIENvMR8wHQYDVQQLDBZNeSBPcmdhbml6YXRpb25hbCBVbml0
MREwDwYDVQQDDAhDaGFuZ2VNZTEdMBsGCSqGSIb3DQEJARYObWVAZXhhbXBsZS5u
ZXSCCQCMm46IeqxtizATBgNVHSUEDDAKBggrBgEFBQcDAjALBgNVHQ8EBAMCB4Aw
DQYJKoZIhvcNAQELBQADggEBACtybOJ3pL4HQfl6gd318hmKew0DlhgDXqPg/1Ki
sNHRS/xtqf1mbZ09zTRaiJxNf3V3FtlydHqX8X0/14M4Qtf6mOYOQ5EKTnp2inSx
NiiG6j/K9sK/Cq/WwHDC5a6jit+5ch+8iJzhUZho1A/l36Da2oWgpJ53GgN/jIZ8
4He5o6tW5tNxqgkEXlcphhveQ9VXyZi8VYK9rBZPtX4/MWTjJkXS5Q8/ixIYyAM0
6bUUyG3ozsrzhKXza3wb2LYPIVY9odMQZvq0r9kx2wLBjcQuISdyH4yHolLov9Jt
kbLPRX5JPBOMHWJhvcWTvzM13BQ5WlB0OfB+vzwem5fk7V0=
-----END CERTIFICATE-----
