Certificate:
    Data:
        Version: 3 (0x2)
        Serial Number:
            34:86:bf:1e:b4:48:06:e7:a3:e8:67:9b:a8:49:9a:c4
    Signature Algorithm: sha256WithRSAEncryption
        Issuer: C=US, ST=California, L=San Francisco, O=Copyleft Certificate Co, OU=My Organizational Unit, CN=ChangeMe/emailAddress=me@example.net
        Validity
            Not Before: Jan 23 18:30:26 2021 GMT
            Not After : Jan 23 18:30:26 2022 GMT
        Subject: C=US, ST=OH, L=Cincinnati, O=University of Cincinnati, OU=Dept. Electrical Eng. and Computer Sci., CN=client135/emailAddress=franco@gauss.ececs.uc.edu
        Subject Public Key Info:
            Public Key Algorithm: rsaEncryption
                Public-Key: (2048 bit)
                Modulus:
                    00:ac:f4:18:ac:8d:37:86:c8:de:d8:3c:25:92:6a:
                    df:63:0a:87:56:8d:c6:7f:03:78:45:18:29:30:fc:
                    c2:e2:bd:98:93:be:d5:6f:55:a1:f6:c0:39:5c:f8:
                    53:c1:40:e0:0f:c5:78:9e:d3:e3:6b:0c:f3:16:2f:
                    21:bd:97:fc:38:ca:1a:47:26:7e:5d:46:7e:a0:78:
                    b9:6b:19:0d:e7:34:e1:84:0f:92:1f:c7:f6:1b:38:
                    92:19:f2:65:e9:7f:1d:6d:37:72:e0:d6:d3:73:9e:
                    06:a8:e3:22:8c:c3:9b:71:a3:d3:73:b4:22:31:16:
                    a0:ea:54:47:25:b9:a3:61:b9:4e:48:9e:cf:17:d7:
                    e6:a0:cd:6b:23:13:91:5f:64:34:20:27:57:5c:86:
                    ce:ee:df:e2:14:fc:82:f8:d2:1f:99:8d:59:3a:cd:
                    79:f1:b5:5e:50:bb:bb:6e:44:7c:97:9d:77:55:1d:
                    e1:83:ed:d7:12:a6:ce:5b:d7:ad:1d:17:e9:4c:86:
                    c5:c6:04:f8:13:30:3c:74:17:53:1b:91:e5:f4:71:
                    56:20:2d:ea:1d:e6:06:f6:8e:0d:fc:53:c6:55:29:
                    c0:a6:79:c1:b9:95:62:a1:7f:e5:64:7d:ff:3a:66:
                    e3:f8:bf:e4:f1:89:ca:ea:46:e5:0c:32:44:1c:90:
                    12:47
                Exponent: 65537 (0x10001)
        X509v3 extensions:
            X509v3 Basic Constraints: 
                CA:FALSE
            X509v3 Subject Key Identifier: 
                0E:C2:33:4C:CE:C7:CB:CF:5C:BB:EA:11:B8:32:1D:1C:E7:4A:E6:A8
            X509v3 Authority Key Identifier: 
                keyid:EF:DC:B6:3D:4B:FD:A7:87:05:C5:22:3D:8B:DC:BF:99:2A:EE:E4:DB
                DirName:/C=US/ST=California/L=San Francisco/O=Copyleft Certificate Co/OU=My Organizational Unit/CN=ChangeMe/emailAddress=me@example.net
                serial:87:1E:1D:DC:6B:8C:66:88

            X509v3 Extended Key Usage: 
                TLS Web Client Authentication
            X509v3 Key Usage: 
                Digital Signature
    Signature Algorithm: sha256WithRSAEncryption
         95:f2:25:9f:f5:28:fb:fb:c0:2e:93:37:4c:2b:cb:02:98:28:
         e4:67:62:9a:c3:3d:e0:b7:83:4c:6f:6a:a7:4e:55:ad:2e:0f:
         a6:43:f9:f1:29:c2:1a:98:0e:d1:d0:bb:ea:11:d7:fa:39:8a:
         c8:d8:bc:2e:56:58:85:a3:7a:e5:12:9b:fe:8a:20:8e:ec:a8:
         f8:cb:f9:9b:49:39:39:6e:bc:a9:fb:a0:45:e9:34:ef:0b:34:
         1d:e1:dc:70:f4:b8:9f:89:a4:bf:f3:18:f0:c9:3c:1d:87:f2:
         e8:c8:72:24:53:0c:f6:ed:76:37:59:4e:71:16:8a:20:43:4d:
         58:34:44:c9:2a:e7:2c:2a:f5:3f:6c:8b:53:48:87:43:ff:c2:
         07:ea:06:7d:40:41:87:db:33:80:b6:14:9a:a7:8a:09:27:19:
         73:23:38:01:cf:30:94:37:11:f4:ac:b0:65:f7:5b:dc:1b:36:
         dd:0f:7e:25:66:64:f6:96:ae:83:5b:32:4e:28:c6:ca:53:9c:
         e8:ef:3a:22:d5:8a:0d:13:cd:91:dd:30:8e:c7:1d:c4:ac:95:
         60:ba:9a:49:94:ea:2f:da:5f:0c:28:8d:ab:c1:7e:ae:62:82:
         dd:e4:05:ce:53:3d:f4:0e:c3:db:80:3a:5b:9f:b0:fa:d7:7e:
         64:1f:2e:95
-----BEGIN CERTIFICATE-----
MIIFNjCCBB6gAwIBAgIQNIa/HrRIBuej6GebqEmaxDANBgkqhkiG9w0BAQsFADCB
rzELMAkGA1UEBhMCVVMxEzARBgNVBAgMCkNhbGlmb3JuaWExFjAUBgNVBAcMDVNh
biBGcmFuY2lzY28xIDAeBgNVBAoMF0NvcHlsZWZ0IENlcnRpZmljYXRlIENvMR8w
HQYDVQQLDBZNeSBPcmdhbml6YXRpb25hbCBVbml0MREwDwYDVQQDDAhDaGFuZ2VN
ZTEdMBsGCSqGSIb3DQEJARYObWVAZXhhbXBsZS5uZXQwHhcNMjEwMTIzMTgzMDI2
WhcNMjIwMTIzMTgzMDI2WjCBwjELMAkGA1UEBhMCVVMxCzAJBgNVBAgMAk9IMRMw
EQYDVQQHDApDaW5jaW5uYXRpMSEwHwYDVQQKDBhVbml2ZXJzaXR5IG9mIENpbmNp
bm5hdGkxMDAuBgNVBAsMJ0RlcHQuIEVsZWN0cmljYWwgRW5nLiBhbmQgQ29tcHV0
ZXIgU2NpLjESMBAGA1UEAwwJY2xpZW50MTM1MSgwJgYJKoZIhvcNAQkBFhlmcmFu
Y29AZ2F1c3MuZWNlY3MudWMuZWR1MIIBIjANBgkqhkiG9w0BAQEFAAOCAQ8AMIIB
CgKCAQEArPQYrI03hsje2DwlkmrfYwqHVo3GfwN4RRgpMPzC4r2Yk77Vb1Wh9sA5
XPhTwUDgD8V4ntPjawzzFi8hvZf8OMoaRyZ+XUZ+oHi5axkN5zThhA+SH8f2GziS
GfJl6X8dbTdy4NbTc54GqOMijMObcaPTc7QiMRag6lRHJbmjYblOSJ7PF9fmoM1r
IxORX2Q0ICdXXIbO7t/iFPyC+NIfmY1ZOs158bVeULu7bkR8l513VR3hg+3XEqbO
W9etHRfpTIbFxgT4EzA8dBdTG5Hl9HFWIC3qHeYG9o4N/FPGVSnApnnBuZVioX/l
ZH3/Ombj+L/k8YnK6kblDDJEHJASRwIDAQABo4IBNzCCATMwCQYDVR0TBAIwADAd
BgNVHQ4EFgQUDsIzTM7Hy89cu+oRuDIdHOdK5qgwgeQGA1UdIwSB3DCB2YAU79y2
PUv9p4cFxSI9i9y/mSru5NuhgbWkgbIwga8xCzAJBgNVBAYTAlVTMRMwEQYDVQQI
DApDYWxpZm9ybmlhMRYwFAYDVQQHDA1TYW4gRnJhbmNpc2NvMSAwHgYDVQQKDBdD
b3B5bGVmdCBDZXJ0aWZpY2F0ZSBDbzEfMB0GA1UECwwWTXkgT3JnYW5pemF0aW9u
YWwgVW5pdDERMA8GA1UEAwwIQ2hhbmdlTWUxHTAbBgkqhkiG9w0BCQEWDm1lQGV4
YW1wbGUubmV0ggkAhx4d3GuMZogwEwYDVR0lBAwwCgYIKwYBBQUHAwIwCwYDVR0P
BAQDAgeAMA0GCSqGSIb3DQEBCwUAA4IBAQCV8iWf9Sj7+8AukzdMK8sCmCjkZ2Ka
wz3gt4NMb2qnTlWtLg+mQ/nxKcIamA7R0LvqEdf6OYrI2LwuVliFo3rlEpv+iiCO
7Kj4y/mbSTk5bryp+6BF6TTvCzQd4dxw9LifiaS/8xjwyTwdh/LoyHIkUwz27XY3
WU5xFoogQ01YNETJKucsKvU/bItTSIdD/8IH6gZ9QEGH2zOAthSap4oJJxlzIzgB
zzCUNxH0rLBl91vcGzbdD34lZmT2lq6DWzJOKMbKU5zo7zoi1YoNE82R3TCOxx3E
rJVguppJlOov2l8MKI2rwX6uYoLd5AXOUz30DsPbgDpbn7D6135kHy6V
-----END CERTIFICATE-----
