Certificate:
    Data:
        Version: 3 (0x2)
        Serial Number:
            7d:e1:a4:c6:1c:44:44:5e:7e:78:7c:61:dd:f8:7c:f6
    Signature Algorithm: sha256WithRSAEncryption
        Issuer: C=US, ST=California, L=San Francisco, O=Copyleft Certificate Co, OU=My Organizational Unit, CN=ChangeMe/emailAddress=me@example.net
        Validity
            Not Before: Nov 13 11:13:01 2023 GMT
            Not After : Nov 12 11:13:01 2024 GMT
        Subject: C=US, ST=OH, L=Cincinnati, O=University of Cincinnati, OU=Dept. Elec. Comp. Eng. Comp. Sci., CN=client44/emailAddress=franco@gauss.ececs.uc.edu
        Subject Public Key Info:
            Public Key Algorithm: rsaEncryption
                Public-Key: (2048 bit)
                Modulus:
                    00:fc:ec:03:9c:aa:84:2d:9e:d7:1d:75:56:5f:df:
                    53:53:42:ca:e7:73:0d:2d:45:47:48:43:b5:5f:d6:
                    53:54:d1:07:91:4a:5f:ac:df:db:1d:c4:ae:f9:8b:
                    73:9b:31:ae:83:4d:aa:d3:a7:18:08:09:0b:2c:c5:
                    c2:15:de:1f:7d:20:b3:cb:a4:12:33:02:6b:bc:13:
                    3f:ca:a0:31:8e:f5:db:c6:82:27:ef:7f:f5:ef:37:
                    39:51:5d:c4:60:ab:bb:48:f1:a7:1c:67:c4:71:3c:
                    61:40:d3:b2:54:f9:e7:44:16:87:f0:fa:9b:ca:cc:
                    cb:eb:94:1f:da:f0:66:08:7e:da:dc:48:a6:b3:51:
                    b9:74:a8:3d:7d:76:dd:c1:8d:90:af:1c:fc:03:3a:
                    ce:17:1c:00:17:82:83:0f:49:84:82:8b:b6:1b:8f:
                    19:86:75:03:bc:f7:56:c4:10:9c:c4:d8:e4:64:7f:
                    1a:9e:4b:77:d8:5b:ac:b6:96:06:d8:4e:50:32:2b:
                    c7:d4:53:40:fe:a6:84:fe:ca:ee:38:ee:30:3e:3d:
                    ba:76:d4:5e:8f:bc:df:bb:4c:52:e9:22:df:5a:65:
                    e4:63:ff:07:76:11:6b:93:1c:14:3f:5e:5f:67:73:
                    46:56:7c:44:43:42:b9:d7:9a:b0:d9:45:de:d9:65:
                    27:09
                Exponent: 65537 (0x10001)
        X509v3 extensions:
            X509v3 Basic Constraints: 
                CA:FALSE
            X509v3 Subject Key Identifier: 
                A9:8F:A6:07:52:D5:10:5F:B7:3C:FC:02:AD:A7:9E:F8:87:E2:10:1D
            X509v3 Authority Key Identifier: 
                keyid:1A:DC:98:F2:69:C1:F7:C8:1D:21:43:B0:3C:79:50:4D:D8:2B:87:54
                DirName:/C=US/ST=California/L=San Francisco/O=Copyleft Certificate Co/OU=My Organizational Unit/CN=ChangeMe/emailAddress=me@example.net
                serial:8C:9B:8E:88:7A:AC:6D:8B

            X509v3 Extended Key Usage: 
                TLS Web Client Authentication
            X509v3 Key Usage: 
                Digital Signature
    Signature Algorithm: sha256WithRSAEncryption
         30:5a:eb:32:d4:00:ba:cd:95:18:fa:19:f7:47:4d:62:e1:58:
         21:cc:2f:ab:e4:4b:e9:04:f8:e9:44:bd:fe:61:80:80:58:0d:
         4c:ba:c4:fd:bd:fc:bd:b0:14:80:b0:08:a8:e1:58:6a:ab:7f:
         e4:86:2b:e8:58:9b:37:0c:b3:d0:b8:7b:a7:c0:32:93:ec:54:
         da:95:eb:f1:c4:23:17:08:79:19:fb:8f:39:6c:9d:d9:8d:3c:
         48:96:bb:d7:79:78:06:92:2c:fa:7a:35:94:b8:e6:6b:c7:aa:
         53:a4:b4:3f:07:06:ac:2e:1b:2a:c2:9f:aa:87:6f:e7:a7:4f:
         5f:4e:cc:aa:50:10:17:85:cf:c0:cf:ea:7c:b7:e9:9c:46:ee:
         8d:c3:23:1a:7d:0a:f9:92:9d:e8:bb:68:c5:9e:07:26:09:bc:
         02:db:f3:5f:a3:94:b5:ce:d7:dc:66:68:75:b4:3d:c1:7d:99:
         78:c6:5d:27:03:24:cc:d8:e5:77:07:b4:1b:69:e4:9b:a4:9a:
         c3:4a:71:3e:4b:a6:14:9a:02:c7:9a:35:6c:94:60:f8:cd:43:
         32:7b:3b:f5:e7:6a:56:09:da:6f:d5:91:7c:27:32:f4:9b:c1:
         bc:12:f4:d9:21:5f:d6:82:54:33:56:c0:a4:91:b2:a0:c6:43:
         2e:e8:24:0d
-----BEGIN CERTIFICATE-----
MIIFLzCCBBegAwIBAgIQfeGkxhxERF5+eHxh3fh89jANBgkqhkiG9w0BAQsFADCB
rzELMAkGA1UEBhMCVVMxEzARBgNVBAgMCkNhbGlmb3JuaWExFjAUBgNVBAcMDVNh
biBGcmFuY2lzY28xIDAeBgNVBAoMF0NvcHlsZWZ0IENlcnRpZmljYXRlIENvMR8w
HQYDVQQLDBZNeSBPcmdhbml6YXRpb25hbCBVbml0MREwDwYDVQQDDAhDaGFuZ2VN
ZTEdMBsGCSqGSIb3DQEJARYObWVAZXhhbXBsZS5uZXQwHhcNMjMxMTEzMTExMzAx
WhcNMjQxMTEyMTExMzAxWjCBuzELMAkGA1UEBhMCVVMxCzAJBgNVBAgMAk9IMRMw
EQYDVQQHDApDaW5jaW5uYXRpMSEwHwYDVQQKDBhVbml2ZXJzaXR5IG9mIENpbmNp
bm5hdGkxKjAoBgNVBAsMIURlcHQuIEVsZWMuIENvbXAuIEVuZy4gQ29tcC4gU2Np
LjERMA8GA1UEAwwIY2xpZW50NDQxKDAmBgkqhkiG9w0BCQEWGWZyYW5jb0BnYXVz
cy5lY2Vjcy51Yy5lZHUwggEiMA0GCSqGSIb3DQEBAQUAA4IBDwAwggEKAoIBAQD8
7AOcqoQtntcddVZf31NTQsrncw0tRUdIQ7Vf1lNU0QeRSl+s39sdxK75i3ObMa6D
TarTpxgICQssxcIV3h99ILPLpBIzAmu8Ez/KoDGO9dvGgifvf/XvNzlRXcRgq7tI
8accZ8RxPGFA07JU+edEFofw+pvKzMvrlB/a8GYIftrcSKazUbl0qD19dt3BjZCv
HPwDOs4XHAAXgoMPSYSCi7YbjxmGdQO891bEEJzE2ORkfxqeS3fYW6y2lgbYTlAy
K8fUU0D+poT+yu447jA+Pbp21F6PvN+7TFLpIt9aZeRj/wd2EWuTHBQ/Xl9nc0ZW
fERDQrnXmrDZRd7ZZScJAgMBAAGjggE3MIIBMzAJBgNVHRMEAjAAMB0GA1UdDgQW
BBSpj6YHUtUQX7c8/AKtp574h+IQHTCB5AYDVR0jBIHcMIHZgBQa3JjyacH3yB0h
Q7A8eVBN2CuHVKGBtaSBsjCBrzELMAkGA1UEBhMCVVMxEzARBgNVBAgMCkNhbGlm
b3JuaWExFjAUBgNVBAcMDVNhbiBGcmFuY2lzY28xIDAeBgNVBAoMF0NvcHlsZWZ0
IENlcnRpZmljYXRlIENvMR8wHQYDVQQLDBZNeSBPcmdhbml6YXRpb25hbCBVbml0
MREwDwYDVQQDDAhDaGFuZ2VNZTEdMBsGCSqGSIb3DQEJARYObWVAZXhhbXBsZS5u
ZXSCCQCMm46IeqxtizATBgNVHSUEDDAKBggrBgEFBQcDAjALBgNVHQ8EBAMCB4Aw
DQYJKoZIhvcNAQELBQADggEBADBa6zLUALrNlRj6GfdHTWLhWCHML6vkS+kE+OlE
vf5hgIBYDUy6xP29/L2wFICwCKjhWGqrf+SGK+hYmzcMs9C4e6fAMpPsVNqV6/HE
IxcIeRn7jzlsndmNPEiWu9d5eAaSLPp6NZS45mvHqlOktD8HBqwuGyrCn6qHb+en
T19OzKpQEBeFz8DP6ny36ZxG7o3DIxp9CvmSnei7aMWeByYJvALb81+jlLXO19xm
aHW0PcF9mXjGXScDJMzY5XcHtBtp5JukmsNKcT5LphSaAseaNWyUYPjNQzJ7O/Xn
alYJ2m/VkXwnMvSbwbwS9NkhX9aCVDNWwKSRsqDGQy7oJA0=
-----END CERTIFICATE-----
