Certificate:
    Data:
        Version: 3 (0x2)
        Serial Number:
            40:53:1c:13:7b:7b:c8:8a:79:e3:6a:54:e5:97:58:28
    Signature Algorithm: sha256WithRSAEncryption
        Issuer: C=US, ST=California, L=San Francisco, O=Copyleft Certificate Co, OU=My Organizational Unit, CN=ChangeMe/emailAddress=me@example.net
        Validity
            Not Before: Jan 23 18:27:29 2021 GMT
            Not After : Jan 23 18:27:29 2022 GMT
        Subject: C=US, ST=OH, L=Cincinnati, O=University of Cincinnati, OU=Dept. Electrical Eng. and Computer Sci., CN=client9/emailAddress=franco@gauss.ececs.uc.edu
        Subject Public Key Info:
            Public Key Algorithm: rsaEncryption
                Public-Key: (2048 bit)
                Modulus:
                    00:ab:c6:a0:8c:52:d6:41:b3:9b:fc:a6:a5:19:84:
                    44:5a:85:f8:3b:bc:39:43:f4:81:22:d0:14:af:dc:
                    11:f2:52:72:bd:4d:b0:4f:ec:d0:eb:5f:52:2c:de:
                    68:f8:ca:b1:11:9c:92:26:38:ab:c2:7d:56:28:39:
                    de:8e:52:a9:ce:6f:0a:8f:7e:a4:1a:e2:68:72:a5:
                    3c:79:80:33:a8:7a:38:e5:79:36:a9:f9:92:3d:27:
                    31:c5:d3:b1:61:5c:a9:1f:b2:85:21:36:55:0b:4a:
                    67:18:8c:d0:4b:3c:38:6f:94:be:cd:f8:7c:e3:f3:
                    d9:9a:4f:53:10:f0:95:7c:a5:36:ff:97:99:47:ec:
                    60:ff:ea:64:55:ec:52:d8:ab:88:e3:43:4a:0e:e3:
                    f6:79:3e:a8:f5:3b:fd:bc:8a:5b:05:68:fb:f0:ae:
                    33:c6:2e:63:92:0b:57:c4:f4:34:9d:cf:34:38:89:
                    09:f7:4d:53:4d:a7:f3:32:d8:4f:49:d3:b9:72:50:
                    11:84:5f:18:23:d5:a7:5d:f9:7b:4d:d6:9a:ea:ea:
                    46:dc:ac:16:dc:55:93:38:61:09:4b:c4:77:7a:af:
                    fc:2c:d7:25:cf:8e:d3:71:8f:3f:fc:c2:e7:ca:b6:
                    33:1e:b9:8d:5b:16:f9:8b:ff:8b:0c:b6:7b:da:c8:
                    2e:8b
                Exponent: 65537 (0x10001)
        X509v3 extensions:
            X509v3 Basic Constraints: 
                CA:FALSE
            X509v3 Subject Key Identifier: 
                E9:7E:78:91:A4:04:EA:86:31:8C:03:C9:51:C9:45:B7:05:77:DE:C2
            X509v3 Authority Key Identifier: 
                keyid:EF:DC:B6:3D:4B:FD:A7:87:05:C5:22:3D:8B:DC:BF:99:2A:EE:E4:DB
                DirName:/C=US/ST=California/L=San Francisco/O=Copyleft Certificate Co/OU=My Organizational Unit/CN=ChangeMe/emailAddress=me@example.net
                serial:87:1E:1D:DC:6B:8C:66:88

            X509v3 Extended Key Usage: 
                TLS Web Client Authentication
            X509v3 Key Usage: 
                Digital Signature
    Signature Algorithm: sha256WithRSAEncryption
         37:1c:4e:25:26:53:c6:e3:c9:0e:95:80:ec:ca:d5:0d:c2:3c:
         9d:aa:44:0e:05:cf:eb:7a:04:0e:71:8d:ac:3d:60:c0:23:59:
         58:85:26:69:0a:bd:f7:76:2a:71:ec:2e:04:03:23:78:5e:24:
         40:90:be:20:7e:79:38:27:5d:5a:1f:ef:06:4a:e9:f5:c2:52:
         e0:59:2e:1b:42:0f:8d:c4:0f:09:d0:b8:7f:fa:df:e8:78:25:
         86:88:ca:43:27:1f:cc:be:41:77:fc:ff:66:92:00:4a:cf:10:
         52:da:92:e7:03:59:9e:38:f4:1a:5c:63:5b:46:a5:e1:31:c2:
         c1:33:ef:2b:40:5e:8d:56:60:79:d6:14:d1:50:d3:32:00:15:
         6c:fd:9b:82:a1:80:6a:44:4c:4e:74:f8:24:4c:f1:0a:43:9e:
         7a:0d:92:13:d6:54:15:f5:51:d8:d2:0c:a2:91:30:fe:de:ff:
         34:01:e4:dc:57:5b:5f:28:9e:71:30:dc:95:a9:3e:b3:24:f6:
         5b:ab:f3:f5:6f:30:50:71:ba:f6:37:0b:51:da:2a:b1:ab:59:
         e1:20:c0:a7:80:95:6f:25:a0:6c:4f:bb:8c:eb:5f:f4:a7:e8:
         a7:e9:6f:39:be:d7:f9:77:77:6e:b5:c2:67:5e:03:0c:44:6c:
         16:2e:aa:25
-----BEGIN CERTIFICATE-----
MIIFNDCCBBygAwIBAgIQQFMcE3t7yIp542pU5ZdYKDANBgkqhkiG9w0BAQsFADCB
rzELMAkGA1UEBhMCVVMxEzARBgNVBAgMCkNhbGlmb3JuaWExFjAUBgNVBAcMDVNh
biBGcmFuY2lzY28xIDAeBgNVBAoMF0NvcHlsZWZ0IENlcnRpZmljYXRlIENvMR8w
HQYDVQQLDBZNeSBPcmdhbml6YXRpb25hbCBVbml0MREwDwYDVQQDDAhDaGFuZ2VN
ZTEdMBsGCSqGSIb3DQEJARYObWVAZXhhbXBsZS5uZXQwHhcNMjEwMTIzMTgyNzI5
WhcNMjIwMTIzMTgyNzI5WjCBwDELMAkGA1UEBhMCVVMxCzAJBgNVBAgMAk9IMRMw
EQYDVQQHDApDaW5jaW5uYXRpMSEwHwYDVQQKDBhVbml2ZXJzaXR5IG9mIENpbmNp
bm5hdGkxMDAuBgNVBAsMJ0RlcHQuIEVsZWN0cmljYWwgRW5nLiBhbmQgQ29tcHV0
ZXIgU2NpLjEQMA4GA1UEAwwHY2xpZW50OTEoMCYGCSqGSIb3DQEJARYZZnJhbmNv
QGdhdXNzLmVjZWNzLnVjLmVkdTCCASIwDQYJKoZIhvcNAQEBBQADggEPADCCAQoC
ggEBAKvGoIxS1kGzm/ympRmERFqF+Du8OUP0gSLQFK/cEfJScr1NsE/s0OtfUize
aPjKsRGckiY4q8J9Vig53o5Sqc5vCo9+pBriaHKlPHmAM6h6OOV5Nqn5kj0nMcXT
sWFcqR+yhSE2VQtKZxiM0Es8OG+Uvs34fOPz2ZpPUxDwlXylNv+XmUfsYP/qZFXs
UtiriONDSg7j9nk+qPU7/byKWwVo+/CuM8YuY5ILV8T0NJ3PNDiJCfdNU02n8zLY
T0nTuXJQEYRfGCPVp135e03WmurqRtysFtxVkzhhCUvEd3qv/CzXJc+O03GPP/zC
58q2Mx65jVsW+Yv/iwy2e9rILosCAwEAAaOCATcwggEzMAkGA1UdEwQCMAAwHQYD
VR0OBBYEFOl+eJGkBOqGMYwDyVHJRbcFd97CMIHkBgNVHSMEgdwwgdmAFO/ctj1L
/aeHBcUiPYvcv5kq7uTboYG1pIGyMIGvMQswCQYDVQQGEwJVUzETMBEGA1UECAwK
Q2FsaWZvcm5pYTEWMBQGA1UEBwwNU2FuIEZyYW5jaXNjbzEgMB4GA1UECgwXQ29w
eWxlZnQgQ2VydGlmaWNhdGUgQ28xHzAdBgNVBAsMFk15IE9yZ2FuaXphdGlvbmFs
IFVuaXQxETAPBgNVBAMMCENoYW5nZU1lMR0wGwYJKoZIhvcNAQkBFg5tZUBleGFt
cGxlLm5ldIIJAIceHdxrjGaIMBMGA1UdJQQMMAoGCCsGAQUFBwMCMAsGA1UdDwQE
AwIHgDANBgkqhkiG9w0BAQsFAAOCAQEANxxOJSZTxuPJDpWA7MrVDcI8napEDgXP
63oEDnGNrD1gwCNZWIUmaQq993YqcewuBAMjeF4kQJC+IH55OCddWh/vBkrp9cJS
4FkuG0IPjcQPCdC4f/rf6HglhojKQycfzL5Bd/z/ZpIASs8QUtqS5wNZnjj0Glxj
W0al4THCwTPvK0BejVZgedYU0VDTMgAVbP2bgqGAakRMTnT4JEzxCkOeeg2SE9ZU
FfVR2NIMopEw/t7/NAHk3FdbXyiecTDclak+syT2W6vz9W8wUHG69jcLUdoqsatZ
4SDAp4CVbyWgbE+7jOtf9Kfop+lvOb7X+Xd3brXCZ14DDERsFi6qJQ==
-----END CERTIFICATE-----
