Certificate:
    Data:
        Version: 3 (0x2)
        Serial Number:
            66:b4:2e:21:9a:ba:7a:38:fd:f9:ca:a1:1e:a6:ba:c8
    Signature Algorithm: sha256WithRSAEncryption
        Issuer: C=US, ST=California, L=San Francisco, O=Copyleft Certificate Co, OU=My Organizational Unit, CN=ChangeMe/emailAddress=me@example.net
        Validity
            Not Before: Nov 10 17:25:44 2023 GMT
            Not After : Nov  9 17:25:44 2024 GMT
        Subject: C=US, ST=OH, L=Cincinnati, O=University of Cincinnati, OU=Dept_Elec_Com_ Eng_Com_Sci., CN=client20/emailAddress=franco@gauss.ececs.uc.edu
        Subject Public Key Info:
            Public Key Algorithm: rsaEncryption
                Public-Key: (2048 bit)
                Modulus:
                    00:ca:0b:c0:76:69:53:84:8b:94:8d:76:fd:43:e8:
                    05:b8:df:55:f7:6b:2e:f5:de:e7:3d:fe:3a:9f:c7:
                    07:87:b7:32:1b:a2:3a:a3:00:5b:eb:58:40:b4:92:
                    f2:44:23:30:7b:89:90:63:30:b3:22:7b:1b:76:4f:
                    6f:dd:b8:d9:6c:33:43:4d:dc:b1:6d:d8:f5:73:41:
                    d8:ef:be:a0:7d:5f:3d:4f:36:c1:d0:e2:c5:2b:d4:
                    fe:e1:11:db:0f:ab:6d:7e:0a:f5:6b:c2:2b:98:f5:
                    fd:9d:53:37:03:b0:ec:1a:ef:51:87:23:2a:23:90:
                    fd:94:e9:b9:bd:bb:49:b2:c3:b1:44:76:52:8e:ba:
                    5e:94:84:eb:2d:c7:b6:f3:99:2f:c5:dd:f3:9d:13:
                    3c:4e:9e:5f:6d:22:e9:7d:af:0c:6a:34:51:66:c2:
                    06:05:94:23:8d:ce:bb:ff:18:ef:6d:75:1e:6c:48:
                    6f:5f:b7:12:86:04:56:bd:fa:4b:ff:a3:25:b3:09:
                    82:26:fc:0a:a4:0f:32:68:f8:65:2a:cc:8d:de:dd:
                    7c:fb:a7:1d:f0:05:6e:55:8b:b0:ab:4a:c8:0a:8e:
                    3e:56:b0:d1:29:9f:3e:7b:c1:1e:cb:1c:c1:cd:01:
                    de:76:3b:95:71:d2:78:81:57:12:73:f2:a2:cb:78:
                    40:33
                Exponent: 65537 (0x10001)
        X509v3 extensions:
            X509v3 Basic Constraints: 
                CA:FALSE
            X509v3 Subject Key Identifier: 
                C4:1B:71:2E:E7:E3:FA:20:D3:7E:D7:E1:32:DA:E1:57:B2:12:29:12
            X509v3 Authority Key Identifier: 
                keyid:D9:D4:8C:20:BC:EB:38:17:D5:4B:52:F8:AA:C5:D2:44:DD:A2:6A:3B
                DirName:/C=US/ST=California/L=San Francisco/O=Copyleft Certificate Co/OU=My Organizational Unit/CN=ChangeMe/emailAddress=me@example.net
                serial:C2:48:34:65:BF:AB:EB:AA

            X509v3 Extended Key Usage: 
                TLS Web Client Authentication
            X509v3 Key Usage: 
                Digital Signature
    Signature Algorithm: sha256WithRSAEncryption
         2a:b5:f8:37:b4:c5:17:10:17:ce:51:cb:54:37:dc:ee:a4:02:
         39:27:47:a1:8e:3c:91:d7:b3:f7:35:28:9b:23:37:07:ae:fe:
         8e:f2:93:6a:f1:f3:0b:7d:0b:ff:53:c9:e9:b9:d1:65:aa:36:
         cd:0e:a1:66:0e:19:74:9c:65:0a:fc:f9:07:b5:f3:17:b4:b9:
         9a:46:d9:0d:8a:88:c6:76:89:b2:cf:d4:c0:1c:2a:c3:0e:ed:
         8a:6c:f1:5e:9b:e1:48:e7:ac:0c:98:b0:b8:00:ae:58:26:1f:
         14:aa:99:ab:f9:31:31:3f:14:99:58:13:ef:97:c5:6c:7b:77:
         a5:89:24:5a:79:33:49:21:be:79:be:72:44:55:b9:b6:da:10:
         88:e8:aa:43:89:16:4d:8d:bd:99:23:c7:76:dd:bc:95:c3:ff:
         b5:f6:67:a0:48:e1:0f:99:68:a5:c4:f1:4e:7a:15:34:c5:16:
         9c:06:97:05:5f:9e:10:f8:dc:23:a5:6e:32:67:1c:6d:bf:1d:
         f6:89:86:a3:df:19:b2:9e:5a:66:91:60:fc:db:ed:69:e9:f1:
         55:f8:e3:cd:b7:35:2a:bb:c4:69:52:f7:ff:4c:2e:1a:67:e4:
         5f:fe:4b:22:6e:82:6e:f3:45:73:cb:43:bf:8b:da:58:f3:20:
         27:5e:5a:27
-----BEGIN CERTIFICATE-----
MIIFKTCCBBGgAwIBAgIQZrQuIZq6ejj9+cqhHqa6yDANBgkqhkiG9w0BAQsFADCB
rzELMAkGA1UEBhMCVVMxEzARBgNVBAgMCkNhbGlmb3JuaWExFjAUBgNVBAcMDVNh
biBGcmFuY2lzY28xIDAeBgNVBAoMF0NvcHlsZWZ0IENlcnRpZmljYXRlIENvMR8w
HQYDVQQLDBZNeSBPcmdhbml6YXRpb25hbCBVbml0MREwDwYDVQQDDAhDaGFuZ2VN
ZTEdMBsGCSqGSIb3DQEJARYObWVAZXhhbXBsZS5uZXQwHhcNMjMxMTEwMTcyNTQ0
WhcNMjQxMTA5MTcyNTQ0WjCBtTELMAkGA1UEBhMCVVMxCzAJBgNVBAgMAk9IMRMw
EQYDVQQHDApDaW5jaW5uYXRpMSEwHwYDVQQKDBhVbml2ZXJzaXR5IG9mIENpbmNp
bm5hdGkxJDAiBgNVBAsMG0RlcHRfRWxlY19Db21fIEVuZ19Db21fU2NpLjERMA8G
A1UEAwwIY2xpZW50MjAxKDAmBgkqhkiG9w0BCQEWGWZyYW5jb0BnYXVzcy5lY2Vj
cy51Yy5lZHUwggEiMA0GCSqGSIb3DQEBAQUAA4IBDwAwggEKAoIBAQDKC8B2aVOE
i5SNdv1D6AW431X3ay713uc9/jqfxweHtzIbojqjAFvrWEC0kvJEIzB7iZBjMLMi
ext2T2/duNlsM0NN3LFt2PVzQdjvvqB9Xz1PNsHQ4sUr1P7hEdsPq21+CvVrwiuY
9f2dUzcDsOwa71GHIyojkP2U6bm9u0myw7FEdlKOul6UhOstx7bzmS/F3fOdEzxO
nl9tIul9rwxqNFFmwgYFlCONzrv/GO9tdR5sSG9ftxKGBFa9+kv/oyWzCYIm/Aqk
DzJo+GUqzI3e3Xz7px3wBW5Vi7CrSsgKjj5WsNEpnz57wR7LHMHNAd52O5Vx0niB
VxJz8qLLeEAzAgMBAAGjggE3MIIBMzAJBgNVHRMEAjAAMB0GA1UdDgQWBBTEG3Eu
5+P6INN+1+Ey2uFXshIpEjCB5AYDVR0jBIHcMIHZgBTZ1IwgvOs4F9VLUviqxdJE
3aJqO6GBtaSBsjCBrzELMAkGA1UEBhMCVVMxEzARBgNVBAgMCkNhbGlmb3JuaWEx
FjAUBgNVBAcMDVNhbiBGcmFuY2lzY28xIDAeBgNVBAoMF0NvcHlsZWZ0IENlcnRp
ZmljYXRlIENvMR8wHQYDVQQLDBZNeSBPcmdhbml6YXRpb25hbCBVbml0MREwDwYD
VQQDDAhDaGFuZ2VNZTEdMBsGCSqGSIb3DQEJARYObWVAZXhhbXBsZS5uZXSCCQDC
SDRlv6vrqjATBgNVHSUEDDAKBggrBgEFBQcDAjALBgNVHQ8EBAMCB4AwDQYJKoZI
hvcNAQELBQADggEBACq1+De0xRcQF85Ry1Q33O6kAjknR6GOPJHXs/c1KJsjNweu
/o7yk2rx8wt9C/9Tyem50WWqNs0OoWYOGXScZQr8+Qe18xe0uZpG2Q2KiMZ2ibLP
1MAcKsMO7Yps8V6b4UjnrAyYsLgArlgmHxSqmav5MTE/FJlYE++XxWx7d6WJJFp5
M0khvnm+ckRVubbaEIjoqkOJFk2NvZkjx3bdvJXD/7X2Z6BI4Q+ZaKXE8U56FTTF
FpwGlwVfnhD43COlbjJnHG2/HfaJhqPfGbKeWmaRYPzb7Wnp8VX44823NSq7xGlS
9/9MLhpn5F/+SyJugm7zRXPLQ7+L2ljzICdeWic=
-----END CERTIFICATE-----
