Certificate:
    Data:
        Version: 3 (0x2)
        Serial Number:
            77:17:42:b0:92:9f:a6:e2:49:63:b1:fe:13:b9:b0:d5
    Signature Algorithm: sha256WithRSAEncryption
        Issuer: C=US, ST=California, L=San Francisco, O=Copyleft Certificate Co, OU=My Organizational Unit, CN=ChangeMe/emailAddress=me@example.net
        Validity
            Not Before: Jan 23 18:30:06 2021 GMT
            Not After : Jan 23 18:30:06 2022 GMT
        Subject: C=US, ST=OH, L=Cincinnati, O=University of Cincinnati, OU=Dept. Electrical Eng. and Computer Sci., CN=client120/emailAddress=franco@gauss.ececs.uc.edu
        Subject Public Key Info:
            Public Key Algorithm: rsaEncryption
                Public-Key: (2048 bit)
                Modulus:
                    00:d2:18:a3:e9:7d:4e:46:8a:08:54:bf:15:bc:5c:
                    51:09:8c:65:f3:f8:57:a8:90:c4:6a:53:5a:fe:3b:
                    89:80:51:4b:1a:14:9d:e9:2c:71:a2:68:c7:b9:55:
                    eb:0a:5d:fc:bf:d9:93:be:3c:aa:42:33:f5:aa:95:
                    df:cb:c7:30:c0:28:6a:30:8b:3b:fe:88:14:bb:35:
                    e0:aa:21:54:da:e4:d5:96:57:70:51:d1:42:07:09:
                    56:c3:49:f8:40:16:d8:50:c5:77:f6:9b:f5:92:98:
                    94:d3:c1:dc:1e:d2:94:00:cf:84:a4:5a:29:28:fc:
                    1e:cb:70:94:d0:9b:59:2f:6c:a3:fd:e5:5e:8d:50:
                    b6:a5:10:ee:2d:12:0c:9d:88:5f:69:5e:0c:26:3c:
                    b8:54:e6:a3:ac:00:d7:49:9a:49:9d:cf:7f:98:2b:
                    66:11:f7:e7:4a:18:4b:b5:71:fb:04:fe:3f:1d:df:
                    ed:ab:47:61:94:90:3f:9c:b7:c1:40:c7:12:e9:cc:
                    a0:19:91:e9:a8:f2:d5:5c:de:e8:d7:c6:7e:98:31:
                    e2:18:1d:57:a8:3e:3d:ef:a9:eb:e5:a8:96:e9:0b:
                    02:40:1f:a4:1c:d3:aa:4c:3c:ef:0f:22:32:91:0a:
                    e4:56:9c:38:f8:26:7c:04:c7:b6:4c:52:90:1e:70:
                    04:11
                Exponent: 65537 (0x10001)
        X509v3 extensions:
            X509v3 Basic Constraints: 
                CA:FALSE
            X509v3 Subject Key Identifier: 
                B6:14:60:F2:F0:A8:97:58:B7:60:1E:30:84:AC:20:D5:1B:0D:F2:D1
            X509v3 Authority Key Identifier: 
                keyid:EF:DC:B6:3D:4B:FD:A7:87:05:C5:22:3D:8B:DC:BF:99:2A:EE:E4:DB
                DirName:/C=US/ST=California/L=San Francisco/O=Copyleft Certificate Co/OU=My Organizational Unit/CN=ChangeMe/emailAddress=me@example.net
                serial:87:1E:1D:DC:6B:8C:66:88

            X509v3 Extended Key Usage: 
                TLS Web Client Authentication
            X509v3 Key Usage: 
                Digital Signature
    Signature Algorithm: sha256WithRSAEncryption
         51:aa:f1:df:4f:86:31:dd:03:08:a6:ca:93:22:4a:bf:ca:61:
         53:17:3d:2a:d4:05:1b:69:d6:38:ae:26:96:ca:91:38:9f:e2:
         ed:f5:42:e8:12:5f:cd:54:73:7c:cd:7a:27:60:23:7c:3d:75:
         66:c4:a6:0e:1e:2a:b8:df:45:ae:c5:98:66:7e:3d:07:96:cd:
         4e:15:3a:44:46:a3:05:e0:e1:11:65:7a:11:26:9a:7e:7b:61:
         ec:a1:7b:15:c1:47:84:0e:11:b9:3c:63:88:fa:97:96:d8:cd:
         1f:32:ba:6b:50:bf:f7:d2:3c:49:58:dc:ed:96:1f:be:a6:9d:
         6b:5c:e2:76:7f:61:f1:1c:59:ef:1c:4b:41:b7:90:04:e9:de:
         05:52:87:99:13:20:f5:da:39:6f:58:19:b4:d7:a1:76:71:cc:
         9e:6e:2a:f4:30:7c:4a:e1:b8:e3:96:4b:1b:e3:09:3c:1f:c7:
         05:67:d6:ad:0b:99:a1:84:bd:bc:2d:9b:d3:26:7c:cf:e2:a2:
         4e:f2:21:be:dc:1a:7c:2f:ba:04:13:91:0d:7a:f6:0c:73:c6:
         a0:f1:4b:b7:c2:cd:cc:19:19:af:16:ef:06:d2:82:b7:4b:4b:
         e0:ea:48:4a:6f:a5:48:bf:b5:b3:fb:24:5d:16:1e:cc:fb:12:
         bc:f1:3b:d7
-----BEGIN CERTIFICATE-----
MIIFNjCCBB6gAwIBAgIQdxdCsJKfpuJJY7H+E7mw1TANBgkqhkiG9w0BAQsFADCB
rzELMAkGA1UEBhMCVVMxEzARBgNVBAgMCkNhbGlmb3JuaWExFjAUBgNVBAcMDVNh
biBGcmFuY2lzY28xIDAeBgNVBAoMF0NvcHlsZWZ0IENlcnRpZmljYXRlIENvMR8w
HQYDVQQLDBZNeSBPcmdhbml6YXRpb25hbCBVbml0MREwDwYDVQQDDAhDaGFuZ2VN
ZTEdMBsGCSqGSIb3DQEJARYObWVAZXhhbXBsZS5uZXQwHhcNMjEwMTIzMTgzMDA2
WhcNMjIwMTIzMTgzMDA2WjCBwjELMAkGA1UEBhMCVVMxCzAJBgNVBAgMAk9IMRMw
EQYDVQQHDApDaW5jaW5uYXRpMSEwHwYDVQQKDBhVbml2ZXJzaXR5IG9mIENpbmNp
bm5hdGkxMDAuBgNVBAsMJ0RlcHQuIEVsZWN0cmljYWwgRW5nLiBhbmQgQ29tcHV0
ZXIgU2NpLjESMBAGA1UEAwwJY2xpZW50MTIwMSgwJgYJKoZIhvcNAQkBFhlmcmFu
Y29AZ2F1c3MuZWNlY3MudWMuZWR1MIIBIjANBgkqhkiG9w0BAQEFAAOCAQ8AMIIB
CgKCAQEA0hij6X1ORooIVL8VvFxRCYxl8/hXqJDEalNa/juJgFFLGhSd6SxxomjH
uVXrCl38v9mTvjyqQjP1qpXfy8cwwChqMIs7/ogUuzXgqiFU2uTVlldwUdFCBwlW
w0n4QBbYUMV39pv1kpiU08HcHtKUAM+EpFopKPwey3CU0JtZL2yj/eVejVC2pRDu
LRIMnYhfaV4MJjy4VOajrADXSZpJnc9/mCtmEffnShhLtXH7BP4/Hd/tq0dhlJA/
nLfBQMcS6cygGZHpqPLVXN7o18Z+mDHiGB1XqD4976nr5aiW6QsCQB+kHNOqTDzv
DyIykQrkVpw4+CZ8BMe2TFKQHnAEEQIDAQABo4IBNzCCATMwCQYDVR0TBAIwADAd
BgNVHQ4EFgQUthRg8vCol1i3YB4whKwg1RsN8tEwgeQGA1UdIwSB3DCB2YAU79y2
PUv9p4cFxSI9i9y/mSru5NuhgbWkgbIwga8xCzAJBgNVBAYTAlVTMRMwEQYDVQQI
DApDYWxpZm9ybmlhMRYwFAYDVQQHDA1TYW4gRnJhbmNpc2NvMSAwHgYDVQQKDBdD
b3B5bGVmdCBDZXJ0aWZpY2F0ZSBDbzEfMB0GA1UECwwWTXkgT3JnYW5pemF0aW9u
YWwgVW5pdDERMA8GA1UEAwwIQ2hhbmdlTWUxHTAbBgkqhkiG9w0BCQEWDm1lQGV4
YW1wbGUubmV0ggkAhx4d3GuMZogwEwYDVR0lBAwwCgYIKwYBBQUHAwIwCwYDVR0P
BAQDAgeAMA0GCSqGSIb3DQEBCwUAA4IBAQBRqvHfT4Yx3QMIpsqTIkq/ymFTFz0q
1AUbadY4riaWypE4n+Lt9ULoEl/NVHN8zXonYCN8PXVmxKYOHiq430WuxZhmfj0H
ls1OFTpERqMF4OERZXoRJpp+e2HsoXsVwUeEDhG5PGOI+peW2M0fMrprUL/30jxJ
WNztlh++pp1rXOJ2f2HxHFnvHEtBt5AE6d4FUoeZEyD12jlvWBm016F2ccyebir0
MHxK4bjjlksb4wk8H8cFZ9atC5mhhL28LZvTJnzP4qJO8iG+3Bp8L7oEE5ENevYM
c8ag8Uu3ws3MGRmvFu8G0oK3S0vg6khKb6VIv7Wz+yRdFh7M+xK88TvX
-----END CERTIFICATE-----
