Certificate:
    Data:
        Version: 3 (0x2)
        Serial Number:
            b5:9e:00:ee:1a:f4:3f:d6:49:92:ee:06:98:19:9f:90
    Signature Algorithm: sha256WithRSAEncryption
        Issuer: C=US, ST=California, L=San Francisco, O=Copyleft Certificate Co, OU=My Organizational Unit, CN=ChangeMe/emailAddress=me@example.net
        Validity
            Not Before: Nov 13 11:11:53 2023 GMT
            Not After : Nov 12 11:11:53 2024 GMT
        Subject: C=US, ST=OH, L=Cincinnati, O=University of Cincinnati, OU=Dept. Elec. Comp. Eng. Comp. Sci., CN=client27/emailAddress=franco@gauss.ececs.uc.edu
        Subject Public Key Info:
            Public Key Algorithm: rsaEncryption
                Public-Key: (2048 bit)
                Modulus:
                    00:be:75:df:99:23:42:8d:e1:31:6e:f5:80:14:50:
                    a7:1a:3f:b9:a7:42:ea:e6:4d:40:63:57:9b:4f:29:
                    36:ca:f9:f7:40:7b:49:53:49:12:d1:cc:be:f3:a3:
                    0c:a6:25:d0:3b:28:35:4f:64:22:9f:0c:25:eb:7e:
                    ad:59:98:29:a4:43:c2:d2:0d:77:a3:54:0b:d7:6f:
                    45:7b:12:e3:67:67:a5:45:88:b0:a5:a0:65:ac:de:
                    ac:84:72:75:9f:cf:a1:20:52:0e:96:fc:33:97:49:
                    35:aa:50:9d:3a:d1:9e:2d:2f:dd:21:6d:04:79:dc:
                    a1:b1:a2:ef:60:f8:38:b9:cd:b9:9a:56:b3:d2:6e:
                    04:f7:6e:59:de:d1:d1:b9:db:48:0a:88:0f:3b:d4:
                    f6:d7:0e:c3:4e:4b:ee:eb:7c:2b:92:80:13:6a:b0:
                    b3:f4:9d:bf:74:08:2d:b2:3d:3f:87:ff:ec:82:cf:
                    0f:68:65:a5:ec:62:d2:fa:31:3f:25:16:ee:24:e3:
                    81:69:11:f0:61:99:d3:2a:7a:0d:fd:04:15:c5:e4:
                    77:ec:12:a5:33:56:e0:ad:8f:a8:74:00:19:b8:44:
                    e3:26:eb:7b:4f:7b:29:80:a6:8e:3e:22:4d:c6:3e:
                    1a:1f:7a:8e:dc:70:57:0a:c9:c6:d8:2e:0d:cb:c7:
                    0b:f1
                Exponent: 65537 (0x10001)
        X509v3 extensions:
            X509v3 Basic Constraints: 
                CA:FALSE
            X509v3 Subject Key Identifier: 
                C1:3F:E1:E4:3D:36:A6:19:B0:12:98:78:19:3D:00:03:0D:9D:C2:F7
            X509v3 Authority Key Identifier: 
                keyid:1A:DC:98:F2:69:C1:F7:C8:1D:21:43:B0:3C:79:50:4D:D8:2B:87:54
                DirName:/C=US/ST=California/L=San Francisco/O=Copyleft Certificate Co/OU=My Organizational Unit/CN=ChangeMe/emailAddress=me@example.net
                serial:8C:9B:8E:88:7A:AC:6D:8B

            X509v3 Extended Key Usage: 
                TLS Web Client Authentication
            X509v3 Key Usage: 
                Digital Signature
    Signature Algorithm: sha256WithRSAEncryption
         be:13:5d:5f:5f:e7:5b:90:cd:b3:5d:b5:47:78:fd:a6:8e:e5:
         d0:56:3e:db:bb:20:1a:64:7c:4d:32:ff:58:ef:50:23:51:99:
         ae:71:be:43:3f:e0:5d:c4:53:2a:f8:b7:6c:bc:54:e0:3c:44:
         b6:cb:fa:04:22:b2:25:dd:43:50:6e:09:ae:a6:9f:43:ac:c9:
         b3:db:3a:7d:91:ec:a1:06:e3:47:d2:f8:27:16:ce:4d:0e:db:
         38:0a:69:4d:95:ef:13:e5:30:2b:95:cd:83:68:f2:54:02:60:
         4f:2a:5f:8e:ee:dc:f3:6d:7a:94:52:40:cb:4c:18:6c:76:f6:
         68:81:30:29:9d:cd:0b:ca:ea:b8:88:ff:0a:05:36:40:5f:5e:
         31:02:64:3a:01:9e:49:45:83:37:03:92:5f:cb:57:77:0e:f6:
         48:12:1c:a6:a2:a9:08:8b:47:62:f1:00:75:ab:5e:8a:9e:22:
         56:3f:f2:82:7b:fb:23:b6:da:43:02:ff:bf:23:30:8a:ce:ca:
         4a:b1:b7:94:4a:46:80:8d:90:b0:a1:22:08:93:37:d3:f0:f1:
         e3:a5:00:e6:db:74:78:be:a4:03:2b:0e:0c:14:37:fe:27:af:
         2b:d9:48:cd:a7:9a:fc:f6:7a:fd:49:ab:6a:d5:b7:5c:dc:1c:
         67:4e:b5:d1
-----BEGIN CERTIFICATE-----
MIIFMDCCBBigAwIBAgIRALWeAO4a9D/WSZLuBpgZn5AwDQYJKoZIhvcNAQELBQAw
ga8xCzAJBgNVBAYTAlVTMRMwEQYDVQQIDApDYWxpZm9ybmlhMRYwFAYDVQQHDA1T
YW4gRnJhbmNpc2NvMSAwHgYDVQQKDBdDb3B5bGVmdCBDZXJ0aWZpY2F0ZSBDbzEf
MB0GA1UECwwWTXkgT3JnYW5pemF0aW9uYWwgVW5pdDERMA8GA1UEAwwIQ2hhbmdl
TWUxHTAbBgkqhkiG9w0BCQEWDm1lQGV4YW1wbGUubmV0MB4XDTIzMTExMzExMTE1
M1oXDTI0MTExMjExMTE1M1owgbsxCzAJBgNVBAYTAlVTMQswCQYDVQQIDAJPSDET
MBEGA1UEBwwKQ2luY2lubmF0aTEhMB8GA1UECgwYVW5pdmVyc2l0eSBvZiBDaW5j
aW5uYXRpMSowKAYDVQQLDCFEZXB0LiBFbGVjLiBDb21wLiBFbmcuIENvbXAuIFNj
aS4xETAPBgNVBAMMCGNsaWVudDI3MSgwJgYJKoZIhvcNAQkBFhlmcmFuY29AZ2F1
c3MuZWNlY3MudWMuZWR1MIIBIjANBgkqhkiG9w0BAQEFAAOCAQ8AMIIBCgKCAQEA
vnXfmSNCjeExbvWAFFCnGj+5p0Lq5k1AY1ebTyk2yvn3QHtJU0kS0cy+86MMpiXQ
Oyg1T2Qinwwl636tWZgppEPC0g13o1QL129FexLjZ2elRYiwpaBlrN6shHJ1n8+h
IFIOlvwzl0k1qlCdOtGeLS/dIW0EedyhsaLvYPg4uc25mlaz0m4E925Z3tHRudtI
CogPO9T21w7DTkvu63wrkoATarCz9J2/dAgtsj0/h//sgs8PaGWl7GLS+jE/JRbu
JOOBaRHwYZnTKnoN/QQVxeR37BKlM1bgrY+odAAZuETjJut7T3spgKaOPiJNxj4a
H3qO3HBXCsnG2C4Ny8cL8QIDAQABo4IBNzCCATMwCQYDVR0TBAIwADAdBgNVHQ4E
FgQUwT/h5D02phmwEph4GT0AAw2dwvcwgeQGA1UdIwSB3DCB2YAUGtyY8mnB98gd
IUOwPHlQTdgrh1ShgbWkgbIwga8xCzAJBgNVBAYTAlVTMRMwEQYDVQQIDApDYWxp
Zm9ybmlhMRYwFAYDVQQHDA1TYW4gRnJhbmNpc2NvMSAwHgYDVQQKDBdDb3B5bGVm
dCBDZXJ0aWZpY2F0ZSBDbzEfMB0GA1UECwwWTXkgT3JnYW5pemF0aW9uYWwgVW5p
dDERMA8GA1UEAwwIQ2hhbmdlTWUxHTAbBgkqhkiG9w0BCQEWDm1lQGV4YW1wbGUu
bmV0ggkAjJuOiHqsbYswEwYDVR0lBAwwCgYIKwYBBQUHAwIwCwYDVR0PBAQDAgeA
MA0GCSqGSIb3DQEBCwUAA4IBAQC+E11fX+dbkM2zXbVHeP2mjuXQVj7buyAaZHxN
Mv9Y71AjUZmucb5DP+BdxFMq+LdsvFTgPES2y/oEIrIl3UNQbgmupp9DrMmz2zp9
keyhBuNH0vgnFs5NDts4CmlNle8T5TArlc2DaPJUAmBPKl+O7tzzbXqUUkDLTBhs
dvZogTApnc0Lyuq4iP8KBTZAX14xAmQ6AZ5JRYM3A5Jfy1d3DvZIEhymoqkIi0di
8QB1q16KniJWP/KCe/sjttpDAv+/IzCKzspKsbeUSkaAjZCwoSIIkzfT8PHjpQDm
23R4vqQDKw4MFDf+J68r2UjNp5r89nr9Satq1bdc3BxnTrXR
-----END CERTIFICATE-----
