Certificate:
    Data:
        Version: 3 (0x2)
        Serial Number:
            d8:72:0e:25:37:da:db:aa:65:1a:e2:3c:b3:2e:24:d3
    Signature Algorithm: sha256WithRSAEncryption
        Issuer: C=US, ST=California, L=San Francisco, O=Copyleft Certificate Co, OU=My Organizational Unit, CN=ChangeMe/emailAddress=me@example.net
        Validity
            Not Before: Jan 23 18:29:45 2021 GMT
            Not After : Jan 23 18:29:45 2022 GMT
        Subject: C=US, ST=OH, L=Cincinnati, O=University of Cincinnati, OU=Dept. Electrical Eng. and Computer Sci., CN=client105/emailAddress=franco@gauss.ececs.uc.edu
        Subject Public Key Info:
            Public Key Algorithm: rsaEncryption
                Public-Key: (2048 bit)
                Modulus:
                    00:dc:59:9c:92:6d:1a:6f:30:48:22:78:2e:25:c4:
                    bb:00:aa:28:e2:0a:d9:fe:88:a8:66:32:b6:52:59:
                    f4:46:46:aa:16:43:89:70:14:bf:aa:56:70:95:b5:
                    b4:3c:a2:91:2c:05:98:e4:4e:e4:76:a3:d0:5d:65:
                    1e:5f:21:d6:a3:ef:1e:5e:d9:d0:5c:ac:78:1c:c3:
                    59:dd:79:66:cc:24:ec:db:a6:93:d8:4d:f7:cf:1f:
                    2c:c1:bf:0e:eb:1f:03:f6:18:50:28:05:ef:95:27:
                    78:f0:10:6c:ba:cb:03:f3:15:0f:d4:27:6d:70:2b:
                    35:2c:3a:56:67:1f:fb:be:9f:60:1a:38:62:6e:66:
                    2d:63:8b:6d:60:a9:83:01:2c:6d:89:48:5a:c5:3b:
                    54:a8:61:9f:54:5b:dd:42:31:85:f5:ea:da:7f:ba:
                    aa:9d:43:21:7c:c1:dd:c0:ab:1e:f8:df:72:12:d1:
                    f5:14:db:86:1b:01:fe:df:2e:8c:5a:2f:ca:ef:38:
                    da:f0:c6:14:78:6b:3d:e4:af:ca:36:82:fc:80:d0:
                    38:76:61:4a:f4:19:f4:5e:1e:b4:ac:88:24:25:9b:
                    f0:8e:88:4f:a7:55:83:eb:a0:02:6d:5d:01:d4:75:
                    93:33:bf:33:99:7d:09:69:15:83:56:51:98:d5:af:
                    ce:51
                Exponent: 65537 (0x10001)
        X509v3 extensions:
            X509v3 Basic Constraints: 
                CA:FALSE
            X509v3 Subject Key Identifier: 
                FC:7D:D5:32:2F:F1:23:93:32:78:9B:24:80:E6:51:0F:71:4F:E4:CD
            X509v3 Authority Key Identifier: 
                keyid:EF:DC:B6:3D:4B:FD:A7:87:05:C5:22:3D:8B:DC:BF:99:2A:EE:E4:DB
                DirName:/C=US/ST=California/L=San Francisco/O=Copyleft Certificate Co/OU=My Organizational Unit/CN=ChangeMe/emailAddress=me@example.net
                serial:87:1E:1D:DC:6B:8C:66:88

            X509v3 Extended Key Usage: 
                TLS Web Client Authentication
            X509v3 Key Usage: 
                Digital Signature
    Signature Algorithm: sha256WithRSAEncryption
         c7:3d:5b:2e:c0:11:f3:72:11:e1:6a:2f:cc:49:26:6b:4a:9e:
         ef:4c:64:c6:32:f4:0a:11:ec:a3:4d:32:1f:6a:61:af:62:ed:
         db:b7:29:47:95:a5:c6:e3:25:58:7d:89:5c:9e:29:71:b4:f0:
         e1:ed:14:51:d0:b1:3e:4f:e8:b3:80:80:87:89:7b:70:6d:2b:
         09:c8:93:c6:d1:8b:7b:8e:af:ee:db:99:af:45:20:36:d1:76:
         13:59:59:73:48:13:91:de:db:60:72:e5:7c:1a:e8:f1:d2:ac:
         c6:4b:de:ce:75:a0:50:43:e2:dc:0f:56:9f:e2:06:1a:34:9d:
         65:0f:8b:83:1a:e6:a3:9d:0f:c1:46:ad:91:56:c6:bd:06:8c:
         0e:ef:9f:89:4d:e1:ca:04:32:29:1d:d6:b8:a2:13:71:5f:ae:
         3d:1d:03:fd:ed:77:01:f3:21:b0:4f:f1:8c:c0:e8:94:64:57:
         ac:ac:7b:a0:68:06:33:5e:a0:bc:80:f5:be:4a:99:45:c3:b0:
         5c:03:96:55:9a:2c:31:ad:4c:18:06:4e:2e:fd:8d:7d:73:da:
         fa:c8:a1:39:57:0a:ac:d9:18:39:f9:c7:0e:3e:8d:ef:68:4e:
         04:5e:ce:f2:31:ac:13:f9:82:2e:fa:84:3f:89:1d:1e:92:0a:
         02:aa:75:bd
-----BEGIN CERTIFICATE-----
MIIFNzCCBB+gAwIBAgIRANhyDiU32tuqZRriPLMuJNMwDQYJKoZIhvcNAQELBQAw
ga8xCzAJBgNVBAYTAlVTMRMwEQYDVQQIDApDYWxpZm9ybmlhMRYwFAYDVQQHDA1T
YW4gRnJhbmNpc2NvMSAwHgYDVQQKDBdDb3B5bGVmdCBDZXJ0aWZpY2F0ZSBDbzEf
MB0GA1UECwwWTXkgT3JnYW5pemF0aW9uYWwgVW5pdDERMA8GA1UEAwwIQ2hhbmdl
TWUxHTAbBgkqhkiG9w0BCQEWDm1lQGV4YW1wbGUubmV0MB4XDTIxMDEyMzE4Mjk0
NVoXDTIyMDEyMzE4Mjk0NVowgcIxCzAJBgNVBAYTAlVTMQswCQYDVQQIDAJPSDET
MBEGA1UEBwwKQ2luY2lubmF0aTEhMB8GA1UECgwYVW5pdmVyc2l0eSBvZiBDaW5j
aW5uYXRpMTAwLgYDVQQLDCdEZXB0LiBFbGVjdHJpY2FsIEVuZy4gYW5kIENvbXB1
dGVyIFNjaS4xEjAQBgNVBAMMCWNsaWVudDEwNTEoMCYGCSqGSIb3DQEJARYZZnJh
bmNvQGdhdXNzLmVjZWNzLnVjLmVkdTCCASIwDQYJKoZIhvcNAQEBBQADggEPADCC
AQoCggEBANxZnJJtGm8wSCJ4LiXEuwCqKOIK2f6IqGYytlJZ9EZGqhZDiXAUv6pW
cJW1tDyikSwFmORO5Haj0F1lHl8h1qPvHl7Z0FyseBzDWd15Zswk7Numk9hN988f
LMG/DusfA/YYUCgF75UnePAQbLrLA/MVD9QnbXArNSw6Vmcf+76fYBo4Ym5mLWOL
bWCpgwEsbYlIWsU7VKhhn1Rb3UIxhfXq2n+6qp1DIXzB3cCrHvjfchLR9RTbhhsB
/t8ujFovyu842vDGFHhrPeSvyjaC/IDQOHZhSvQZ9F4etKyIJCWb8I6IT6dVg+ug
Am1dAdR1kzO/M5l9CWkVg1ZRmNWvzlECAwEAAaOCATcwggEzMAkGA1UdEwQCMAAw
HQYDVR0OBBYEFPx91TIv8SOTMnibJIDmUQ9xT+TNMIHkBgNVHSMEgdwwgdmAFO/c
tj1L/aeHBcUiPYvcv5kq7uTboYG1pIGyMIGvMQswCQYDVQQGEwJVUzETMBEGA1UE
CAwKQ2FsaWZvcm5pYTEWMBQGA1UEBwwNU2FuIEZyYW5jaXNjbzEgMB4GA1UECgwX
Q29weWxlZnQgQ2VydGlmaWNhdGUgQ28xHzAdBgNVBAsMFk15IE9yZ2FuaXphdGlv
bmFsIFVuaXQxETAPBgNVBAMMCENoYW5nZU1lMR0wGwYJKoZIhvcNAQkBFg5tZUBl
eGFtcGxlLm5ldIIJAIceHdxrjGaIMBMGA1UdJQQMMAoGCCsGAQUFBwMCMAsGA1Ud
DwQEAwIHgDANBgkqhkiG9w0BAQsFAAOCAQEAxz1bLsAR83IR4WovzEkma0qe70xk
xjL0ChHso00yH2phr2Lt27cpR5WlxuMlWH2JXJ4pcbTw4e0UUdCxPk/os4CAh4l7
cG0rCciTxtGLe46v7tuZr0UgNtF2E1lZc0gTkd7bYHLlfBro8dKsxkveznWgUEPi
3A9Wn+IGGjSdZQ+Lgxrmo50PwUatkVbGvQaMDu+fiU3hygQyKR3WuKITcV+uPR0D
/e13AfMhsE/xjMDolGRXrKx7oGgGM16gvID1vkqZRcOwXAOWVZosMa1MGAZOLv2N
fXPa+sihOVcKrNkYOfnHDj6N72hOBF7O8jGsE/mCLvqEP4kdHpIKAqp1vQ==
-----END CERTIFICATE-----
