Certificate:
    Data:
        Version: 3 (0x2)
        Serial Number:
            39:67:0a:d5:d3:b2:bd:ce:bc:ae:93:39:4c:bd:49:6d
    Signature Algorithm: sha256WithRSAEncryption
        Issuer: C=US, ST=California, L=San Francisco, O=Copyleft Certificate Co, OU=My Organizational Unit, CN=ChangeMe/emailAddress=me@example.net
        Validity
            Not Before: Jan 23 18:27:18 2021 GMT
            Not After : Jan 23 18:27:18 2022 GMT
        Subject: C=US, ST=OH, L=Cincinnati, O=University of Cincinnati, OU=Dept. Electrical Eng. and Computer Sci., CN=client1/emailAddress=franco@gauss.ececs.uc.edu
        Subject Public Key Info:
            Public Key Algorithm: rsaEncryption
                Public-Key: (2048 bit)
                Modulus:
                    00:d8:0f:d3:6f:38:73:52:9e:c0:23:ef:9d:c3:49:
                    78:b4:4b:84:81:a3:4c:53:fb:93:83:a4:4d:87:5c:
                    02:37:f2:2b:48:61:10:c6:cb:39:b2:72:6a:15:f0:
                    90:7e:cc:80:8f:4d:60:15:73:b0:b9:79:5f:66:46:
                    55:f8:fb:52:5e:4f:a0:eb:e8:3b:ee:ec:fb:39:b3:
                    15:c1:81:48:dc:ce:a3:14:35:bf:8d:f3:92:3d:dc:
                    41:a8:1f:c5:9b:14:ec:73:f3:c4:8b:70:a4:4e:d4:
                    e1:21:af:f7:b0:f3:14:35:89:94:47:bf:71:a6:95:
                    6c:ed:73:55:bc:ba:83:24:7c:41:5b:ad:af:c4:98:
                    b2:7a:31:4b:63:9f:a4:2d:61:e0:f3:97:6b:19:50:
                    ab:f0:ed:c5:6a:92:64:43:7b:26:1e:fa:14:66:5a:
                    03:ca:48:8c:6c:e3:2b:38:a7:eb:82:fd:b7:af:d8:
                    8c:73:11:19:f2:43:9c:e4:05:a3:6a:df:24:a0:28:
                    d3:83:53:7a:fe:f3:cc:a9:53:a2:95:ce:ab:39:fc:
                    a4:2d:0b:07:4c:e5:e6:d4:81:8d:8a:2a:ba:91:5e:
                    4c:81:e2:88:97:65:0c:8c:48:f6:63:96:a7:00:ab:
                    3a:83:f1:d0:1c:44:f6:53:93:ce:7c:99:f9:a9:4f:
                    2d:6d
                Exponent: 65537 (0x10001)
        X509v3 extensions:
            X509v3 Basic Constraints: 
                CA:FALSE
            X509v3 Subject Key Identifier: 
                17:0F:F8:9E:D0:8F:3F:F8:3A:6A:35:C8:5F:88:0F:FC:FF:A8:82:FD
            X509v3 Authority Key Identifier: 
                keyid:EF:DC:B6:3D:4B:FD:A7:87:05:C5:22:3D:8B:DC:BF:99:2A:EE:E4:DB
                DirName:/C=US/ST=California/L=San Francisco/O=Copyleft Certificate Co/OU=My Organizational Unit/CN=ChangeMe/emailAddress=me@example.net
                serial:87:1E:1D:DC:6B:8C:66:88

            X509v3 Extended Key Usage: 
                TLS Web Client Authentication
            X509v3 Key Usage: 
                Digital Signature
    Signature Algorithm: sha256WithRSAEncryption
         b3:3b:b4:c5:83:6c:99:f3:87:f3:93:27:9a:af:99:34:13:40:
         da:4f:51:6f:c9:7e:3d:3b:29:da:8e:a6:c3:48:6c:42:a0:04:
         33:cd:91:74:22:45:9e:1a:ff:8b:5a:97:db:88:65:d0:d9:d8:
         6b:af:78:d7:60:3f:f5:c7:1a:e7:b9:3e:93:c7:58:db:6e:fe:
         eb:f4:10:fb:8d:eb:5c:8d:15:0d:be:ba:e5:25:47:14:59:de:
         05:1e:95:db:df:45:db:43:47:0c:bc:52:b4:45:06:9a:4c:52:
         37:01:1b:b3:1f:0a:94:ff:b9:57:2c:62:a4:cf:62:23:3f:38:
         87:72:f9:96:9a:4f:a8:f4:40:77:21:97:a9:16:71:2e:ec:f1:
         f8:83:c1:c1:51:6b:50:e3:85:cb:37:00:fb:d1:e7:14:b0:fa:
         a1:5c:47:2f:53:a6:51:c9:0d:c0:75:70:1e:0d:94:2f:f0:ee:
         4d:a2:ca:6f:15:c8:3a:53:a5:7e:4c:0c:50:e4:f7:57:fc:cf:
         bc:84:d8:bc:1f:19:9d:c5:70:0e:07:1f:7d:d6:12:5a:ca:22:
         26:36:7e:24:91:8f:d7:be:31:00:46:77:77:f5:a0:7c:85:95:
         f0:d2:1f:6b:5d:17:0f:3c:7a:26:3d:e8:09:87:2c:4f:38:b2:
         7c:9b:91:39
-----BEGIN CERTIFICATE-----
MIIFNDCCBBygAwIBAgIQOWcK1dOyvc68rpM5TL1JbTANBgkqhkiG9w0BAQsFADCB
rzELMAkGA1UEBhMCVVMxEzARBgNVBAgMCkNhbGlmb3JuaWExFjAUBgNVBAcMDVNh
biBGcmFuY2lzY28xIDAeBgNVBAoMF0NvcHlsZWZ0IENlcnRpZmljYXRlIENvMR8w
HQYDVQQLDBZNeSBPcmdhbml6YXRpb25hbCBVbml0MREwDwYDVQQDDAhDaGFuZ2VN
ZTEdMBsGCSqGSIb3DQEJARYObWVAZXhhbXBsZS5uZXQwHhcNMjEwMTIzMTgyNzE4
WhcNMjIwMTIzMTgyNzE4WjCBwDELMAkGA1UEBhMCVVMxCzAJBgNVBAgMAk9IMRMw
EQYDVQQHDApDaW5jaW5uYXRpMSEwHwYDVQQKDBhVbml2ZXJzaXR5IG9mIENpbmNp
bm5hdGkxMDAuBgNVBAsMJ0RlcHQuIEVsZWN0cmljYWwgRW5nLiBhbmQgQ29tcHV0
ZXIgU2NpLjEQMA4GA1UEAwwHY2xpZW50MTEoMCYGCSqGSIb3DQEJARYZZnJhbmNv
QGdhdXNzLmVjZWNzLnVjLmVkdTCCASIwDQYJKoZIhvcNAQEBBQADggEPADCCAQoC
ggEBANgP0284c1KewCPvncNJeLRLhIGjTFP7k4OkTYdcAjfyK0hhEMbLObJyahXw
kH7MgI9NYBVzsLl5X2ZGVfj7Ul5PoOvoO+7s+zmzFcGBSNzOoxQ1v43zkj3cQagf
xZsU7HPzxItwpE7U4SGv97DzFDWJlEe/caaVbO1zVby6gyR8QVutr8SYsnoxS2Of
pC1h4POXaxlQq/DtxWqSZEN7Jh76FGZaA8pIjGzjKzin64L9t6/YjHMRGfJDnOQF
o2rfJKAo04NTev7zzKlTopXOqzn8pC0LB0zl5tSBjYoqupFeTIHiiJdlDIxI9mOW
pwCrOoPx0BxE9lOTznyZ+alPLW0CAwEAAaOCATcwggEzMAkGA1UdEwQCMAAwHQYD
VR0OBBYEFBcP+J7Qjz/4Omo1yF+ID/z/qIL9MIHkBgNVHSMEgdwwgdmAFO/ctj1L
/aeHBcUiPYvcv5kq7uTboYG1pIGyMIGvMQswCQYDVQQGEwJVUzETMBEGA1UECAwK
Q2FsaWZvcm5pYTEWMBQGA1UEBwwNU2FuIEZyYW5jaXNjbzEgMB4GA1UECgwXQ29w
eWxlZnQgQ2VydGlmaWNhdGUgQ28xHzAdBgNVBAsMFk15IE9yZ2FuaXphdGlvbmFs
IFVuaXQxETAPBgNVBAMMCENoYW5nZU1lMR0wGwYJKoZIhvcNAQkBFg5tZUBleGFt
cGxlLm5ldIIJAIceHdxrjGaIMBMGA1UdJQQMMAoGCCsGAQUFBwMCMAsGA1UdDwQE
AwIHgDANBgkqhkiG9w0BAQsFAAOCAQEAszu0xYNsmfOH85Mnmq+ZNBNA2k9Rb8l+
PTsp2o6mw0hsQqAEM82RdCJFnhr/i1qX24hl0NnYa69412A/9cca57k+k8dY227+
6/QQ+43rXI0VDb665SVHFFneBR6V299F20NHDLxStEUGmkxSNwEbsx8KlP+5Vyxi
pM9iIz84h3L5lppPqPRAdyGXqRZxLuzx+IPBwVFrUOOFyzcA+9HnFLD6oVxHL1Om
UckNwHVwHg2UL/DuTaLKbxXIOlOlfkwMUOT3V/zPvITYvB8ZncVwDgcffdYSWsoi
JjZ+JJGP174xAEZ3d/WgfIWV8NIfa10XDzx6Jj3oCYcsTziyfJuROQ==
-----END CERTIFICATE-----
