Certificate:
    Data:
        Version: 3 (0x2)
        Serial Number:
            d6:86:41:95:d1:32:e3:84:7f:ce:98:85:2c:ef:a6:e8
    Signature Algorithm: sha256WithRSAEncryption
        Issuer: C=US, ST=California, L=San Francisco, O=Copyleft Certificate Co, OU=My Organizational Unit, CN=ChangeMe/emailAddress=me@example.net
        Validity
            Not Before: Nov 10 17:26:12 2023 GMT
            Not After : Nov  9 17:26:12 2024 GMT
        Subject: C=US, ST=OH, L=Cincinnati, O=University of Cincinnati, OU=Dept_Elec_Com_ Eng_Com_Sci., CN=client27/emailAddress=franco@gauss.ececs.uc.edu
        Subject Public Key Info:
            Public Key Algorithm: rsaEncryption
                Public-Key: (2048 bit)
                Modulus:
                    00:c4:6e:f8:98:bf:cb:5f:1a:22:10:cb:17:9e:41:
                    d7:03:ef:6e:a6:dc:7b:42:f5:bf:d7:5c:61:01:1c:
                    69:54:51:31:66:96:90:d5:d9:5a:ef:fd:2c:4a:24:
                    62:c5:f8:df:ad:19:02:95:5f:94:17:52:9e:21:86:
                    d2:be:e9:b3:c8:1f:7f:6c:3b:fd:13:9a:77:3e:3c:
                    55:13:6d:33:50:e1:aa:f4:5e:be:79:a0:bc:18:df:
                    b0:e3:25:1e:6c:48:ea:f3:0c:4b:c8:74:dc:2a:41:
                    16:e4:d8:9d:ac:e7:70:a0:9f:cc:55:91:18:c5:71:
                    f7:30:39:2e:a0:74:af:7a:dc:3c:a7:4d:71:7c:0f:
                    70:c1:ab:1e:db:bf:e6:b2:e4:ea:49:37:71:7b:da:
                    80:f1:f6:fc:ad:0e:f1:c5:65:e7:18:2a:84:79:aa:
                    67:2a:6a:20:38:47:47:3b:55:8a:24:58:f5:52:f9:
                    71:8f:e7:c5:cd:08:a6:00:82:97:07:e8:8c:54:a7:
                    e0:e4:08:22:87:21:5c:e5:d5:f8:0a:8c:42:1c:18:
                    eb:c5:46:f7:6d:95:a9:54:93:7b:40:93:72:ff:d9:
                    a6:71:68:76:25:73:4a:f9:7f:a7:88:dd:f7:5d:78:
                    a1:bb:d0:9f:1d:11:83:48:b5:e2:46:32:c1:9f:94:
                    0a:5f
                Exponent: 65537 (0x10001)
        X509v3 extensions:
            X509v3 Basic Constraints: 
                CA:FALSE
            X509v3 Subject Key Identifier: 
                4A:D7:B3:80:59:3F:B5:82:68:5D:45:A6:28:C7:1A:56:54:7D:88:1C
            X509v3 Authority Key Identifier: 
                keyid:D9:D4:8C:20:BC:EB:38:17:D5:4B:52:F8:AA:C5:D2:44:DD:A2:6A:3B
                DirName:/C=US/ST=California/L=San Francisco/O=Copyleft Certificate Co/OU=My Organizational Unit/CN=ChangeMe/emailAddress=me@example.net
                serial:C2:48:34:65:BF:AB:EB:AA

            X509v3 Extended Key Usage: 
                TLS Web Client Authentication
            X509v3 Key Usage: 
                Digital Signature
    Signature Algorithm: sha256WithRSAEncryption
         92:c1:8b:90:6d:b9:68:fc:8b:3d:dd:57:d1:34:49:b7:04:23:
         ee:2f:4a:a4:17:ee:08:3c:87:da:1c:df:fd:b6:5e:5b:f1:d7:
         92:4c:b7:0c:82:25:da:3b:6c:de:28:ca:ce:2f:f6:30:78:31:
         d3:0f:36:31:a7:5e:eb:2e:c9:0f:f9:81:92:50:35:44:12:a1:
         13:3f:34:f0:0c:25:8f:09:3d:32:54:00:46:99:a4:f1:b9:d0:
         86:4d:07:6d:44:69:08:28:83:e7:55:b7:ce:63:0d:9b:1f:c2:
         63:25:37:7b:ee:ec:fb:86:45:69:e2:63:17:04:83:6a:39:7c:
         67:ca:8e:26:b0:4e:49:43:ab:df:f8:41:f1:3a:47:27:c9:fd:
         a3:aa:4a:a7:6d:ea:ee:6b:6f:37:9c:2d:b9:d1:9c:8f:77:75:
         fb:53:8e:7a:46:1e:81:29:dd:e1:15:e4:44:9c:7d:84:1f:e1:
         2b:92:55:bb:d9:63:cd:09:6a:11:ff:3c:45:51:dd:cf:e9:32:
         3d:a4:31:6a:e4:f3:73:54:f3:c7:2c:6f:b9:49:07:ce:6b:66:
         14:53:8a:8c:24:66:e6:43:98:8c:e2:57:a4:98:12:4c:73:aa:
         71:d6:f2:fa:d0:c1:b1:02:52:72:3d:54:b7:4b:e4:90:c4:e1:
         ac:90:33:37
-----BEGIN CERTIFICATE-----
MIIFKjCCBBKgAwIBAgIRANaGQZXRMuOEf86YhSzvpugwDQYJKoZIhvcNAQELBQAw
ga8xCzAJBgNVBAYTAlVTMRMwEQYDVQQIDApDYWxpZm9ybmlhMRYwFAYDVQQHDA1T
YW4gRnJhbmNpc2NvMSAwHgYDVQQKDBdDb3B5bGVmdCBDZXJ0aWZpY2F0ZSBDbzEf
MB0GA1UECwwWTXkgT3JnYW5pemF0aW9uYWwgVW5pdDERMA8GA1UEAwwIQ2hhbmdl
TWUxHTAbBgkqhkiG9w0BCQEWDm1lQGV4YW1wbGUubmV0MB4XDTIzMTExMDE3MjYx
MloXDTI0MTEwOTE3MjYxMlowgbUxCzAJBgNVBAYTAlVTMQswCQYDVQQIDAJPSDET
MBEGA1UEBwwKQ2luY2lubmF0aTEhMB8GA1UECgwYVW5pdmVyc2l0eSBvZiBDaW5j
aW5uYXRpMSQwIgYDVQQLDBtEZXB0X0VsZWNfQ29tXyBFbmdfQ29tX1NjaS4xETAP
BgNVBAMMCGNsaWVudDI3MSgwJgYJKoZIhvcNAQkBFhlmcmFuY29AZ2F1c3MuZWNl
Y3MudWMuZWR1MIIBIjANBgkqhkiG9w0BAQEFAAOCAQ8AMIIBCgKCAQEAxG74mL/L
XxoiEMsXnkHXA+9uptx7QvW/11xhARxpVFExZpaQ1dla7/0sSiRixfjfrRkClV+U
F1KeIYbSvumzyB9/bDv9E5p3PjxVE20zUOGq9F6+eaC8GN+w4yUebEjq8wxLyHTc
KkEW5NidrOdwoJ/MVZEYxXH3MDkuoHSvetw8p01xfA9wwase27/msuTqSTdxe9qA
8fb8rQ7xxWXnGCqEeapnKmogOEdHO1WKJFj1Uvlxj+fFzQimAIKXB+iMVKfg5Agi
hyFc5dX4CoxCHBjrxUb3bZWpVJN7QJNy/9mmcWh2JXNK+X+niN33XXihu9CfHRGD
SLXiRjLBn5QKXwIDAQABo4IBNzCCATMwCQYDVR0TBAIwADAdBgNVHQ4EFgQUStez
gFk/tYJoXUWmKMcaVlR9iBwwgeQGA1UdIwSB3DCB2YAU2dSMILzrOBfVS1L4qsXS
RN2iajuhgbWkgbIwga8xCzAJBgNVBAYTAlVTMRMwEQYDVQQIDApDYWxpZm9ybmlh
MRYwFAYDVQQHDA1TYW4gRnJhbmNpc2NvMSAwHgYDVQQKDBdDb3B5bGVmdCBDZXJ0
aWZpY2F0ZSBDbzEfMB0GA1UECwwWTXkgT3JnYW5pemF0aW9uYWwgVW5pdDERMA8G
A1UEAwwIQ2hhbmdlTWUxHTAbBgkqhkiG9w0BCQEWDm1lQGV4YW1wbGUubmV0ggkA
wkg0Zb+r66owEwYDVR0lBAwwCgYIKwYBBQUHAwIwCwYDVR0PBAQDAgeAMA0GCSqG
SIb3DQEBCwUAA4IBAQCSwYuQbblo/Is93VfRNEm3BCPuL0qkF+4IPIfaHN/9tl5b
8deSTLcMgiXaO2zeKMrOL/YweDHTDzYxp17rLskP+YGSUDVEEqETPzTwDCWPCT0y
VABGmaTxudCGTQdtRGkIKIPnVbfOYw2bH8JjJTd77uz7hkVp4mMXBINqOXxnyo4m
sE5JQ6vf+EHxOkcnyf2jqkqnberua283nC250ZyPd3X7U456Rh6BKd3hFeREnH2E
H+ErklW72WPNCWoR/zxFUd3P6TI9pDFq5PNzVPPHLG+5SQfOa2YUU4qMJGbmQ5iM
4lekmBJMc6px1vL60MGxAlJyPVS3S+SQxOGskDM3
-----END CERTIFICATE-----
