Certificate:
    Data:
        Version: 3 (0x2)
        Serial Number:
            09:07:37:ab:2c:df:0f:05:aa:43:8a:ca:29:26:52:de
    Signature Algorithm: sha256WithRSAEncryption
        Issuer: C=US, ST=California, L=San Francisco, O=Copyleft Certificate Co, OU=My Organizational Unit, CN=ChangeMe/emailAddress=me@example.net
        Validity
            Not Before: Nov 13 11:10:29 2023 GMT
            Not After : Nov 12 11:10:29 2024 GMT
        Subject: C=US, ST=OH, L=Cincinnati, O=University of Cincinnati, OU=Dept. Elec. Comp. Eng. Comp. Sci., CN=client6/emailAddress=franco@gauss.ececs.uc.edu
        Subject Public Key Info:
            Public Key Algorithm: rsaEncryption
                Public-Key: (2048 bit)
                Modulus:
                    00:e6:43:9d:cf:a9:9f:89:3f:ed:a2:90:0e:a5:30:
                    21:61:63:98:4d:9b:6b:ad:88:a3:17:87:cb:e1:41:
                    d0:0f:a0:ab:58:72:40:48:13:11:61:21:81:d3:c9:
                    35:f4:03:4e:c7:f9:42:a1:0b:03:6b:60:19:1f:12:
                    d6:3f:f9:03:bb:a6:77:80:f2:36:55:1b:70:9e:af:
                    d9:14:63:dc:8d:07:59:dc:5e:c8:43:95:09:7d:25:
                    9b:ee:51:93:16:b0:9d:a3:00:e4:7f:10:f6:6d:7e:
                    95:0d:f7:05:9b:69:da:dc:e9:c6:84:72:c2:c3:b9:
                    6d:ae:e9:7a:27:51:22:52:d2:20:69:7e:68:5e:f3:
                    66:d0:d7:aa:51:19:22:3e:15:8d:41:7e:c0:60:e1:
                    ea:de:84:1a:a9:b5:6f:12:36:2a:4a:d5:6e:91:44:
                    45:a2:44:cd:53:71:6c:ba:79:2b:5b:1c:ca:5e:5f:
                    5f:04:9b:29:b1:dc:4c:63:d6:1c:c4:20:5f:09:6e:
                    f0:cd:f0:56:2b:3e:2f:0b:7c:ad:1e:5a:78:c0:df:
                    35:4b:61:bd:d5:79:51:c4:66:66:17:b0:69:b3:89:
                    57:24:45:4c:9d:73:75:4f:a2:b3:d4:9c:b2:ab:b3:
                    d1:55:cd:46:72:40:b8:06:36:0f:a7:a7:5c:16:17:
                    6e:d9
                Exponent: 65537 (0x10001)
        X509v3 extensions:
            X509v3 Basic Constraints: 
                CA:FALSE
            X509v3 Subject Key Identifier: 
                64:2B:85:62:82:0A:39:70:5B:F6:98:1C:3F:89:D3:BA:78:D1:75:7F
            X509v3 Authority Key Identifier: 
                keyid:1A:DC:98:F2:69:C1:F7:C8:1D:21:43:B0:3C:79:50:4D:D8:2B:87:54
                DirName:/C=US/ST=California/L=San Francisco/O=Copyleft Certificate Co/OU=My Organizational Unit/CN=ChangeMe/emailAddress=me@example.net
                serial:8C:9B:8E:88:7A:AC:6D:8B

            X509v3 Extended Key Usage: 
                TLS Web Client Authentication
            X509v3 Key Usage: 
                Digital Signature
    Signature Algorithm: sha256WithRSAEncryption
         61:50:f6:89:b9:80:e8:2d:72:fe:75:e7:62:1d:d3:5b:f6:d8:
         f2:aa:4e:32:e4:47:9f:3b:2e:a0:98:47:6c:1e:d6:6e:b2:8e:
         10:cb:0c:af:67:36:6b:5c:11:b2:cf:62:eb:2c:de:96:3f:39:
         b3:f2:b2:fa:85:80:53:e2:ed:82:db:c2:95:8f:45:d5:2e:cd:
         fb:e4:62:79:40:49:31:6a:89:98:06:fa:af:dc:0b:7e:35:6c:
         c1:4e:88:1c:34:23:c8:d3:53:d7:8d:33:5f:6c:49:9a:8c:b7:
         c0:3b:a4:fc:56:8a:e5:e0:b7:bb:f3:e6:38:c4:ba:32:33:63:
         88:e6:89:7e:31:81:82:3a:cb:29:e7:5c:3e:ca:b3:5c:8d:30:
         fe:15:a4:84:4c:5a:d1:e7:53:d2:3a:eb:3f:c8:7b:28:c1:67:
         c3:24:36:35:57:78:8a:78:8f:49:a8:10:24:96:62:5b:72:e0:
         2b:ec:0c:a4:33:7c:d1:33:b1:c5:d3:7f:16:52:e4:32:ba:db:
         94:75:95:a6:7c:e1:1a:26:78:0c:f6:e4:f5:fb:08:88:fe:16:
         3c:1f:35:19:7a:66:88:2b:af:c2:84:6c:58:de:9f:07:cc:86:
         57:34:26:7d:e1:00:3c:85:cb:50:af:10:06:90:17:c1:52:86:
         7b:d9:24:e8
-----BEGIN CERTIFICATE-----
MIIFLjCCBBagAwIBAgIQCQc3qyzfDwWqQ4rKKSZS3jANBgkqhkiG9w0BAQsFADCB
rzELMAkGA1UEBhMCVVMxEzARBgNVBAgMCkNhbGlmb3JuaWExFjAUBgNVBAcMDVNh
biBGcmFuY2lzY28xIDAeBgNVBAoMF0NvcHlsZWZ0IENlcnRpZmljYXRlIENvMR8w
HQYDVQQLDBZNeSBPcmdhbml6YXRpb25hbCBVbml0MREwDwYDVQQDDAhDaGFuZ2VN
ZTEdMBsGCSqGSIb3DQEJARYObWVAZXhhbXBsZS5uZXQwHhcNMjMxMTEzMTExMDI5
WhcNMjQxMTEyMTExMDI5WjCBujELMAkGA1UEBhMCVVMxCzAJBgNVBAgMAk9IMRMw
EQYDVQQHDApDaW5jaW5uYXRpMSEwHwYDVQQKDBhVbml2ZXJzaXR5IG9mIENpbmNp
bm5hdGkxKjAoBgNVBAsMIURlcHQuIEVsZWMuIENvbXAuIEVuZy4gQ29tcC4gU2Np
LjEQMA4GA1UEAwwHY2xpZW50NjEoMCYGCSqGSIb3DQEJARYZZnJhbmNvQGdhdXNz
LmVjZWNzLnVjLmVkdTCCASIwDQYJKoZIhvcNAQEBBQADggEPADCCAQoCggEBAOZD
nc+pn4k/7aKQDqUwIWFjmE2ba62IoxeHy+FB0A+gq1hyQEgTEWEhgdPJNfQDTsf5
QqELA2tgGR8S1j/5A7umd4DyNlUbcJ6v2RRj3I0HWdxeyEOVCX0lm+5RkxawnaMA
5H8Q9m1+lQ33BZtp2tzpxoRywsO5ba7peidRIlLSIGl+aF7zZtDXqlEZIj4VjUF+
wGDh6t6EGqm1bxI2KkrVbpFERaJEzVNxbLp5K1scyl5fXwSbKbHcTGPWHMQgXwlu
8M3wVis+Lwt8rR5aeMDfNUthvdV5UcRmZhewabOJVyRFTJ1zdU+is9Scsquz0VXN
RnJAuAY2D6enXBYXbtkCAwEAAaOCATcwggEzMAkGA1UdEwQCMAAwHQYDVR0OBBYE
FGQrhWKCCjlwW/aYHD+J07p40XV/MIHkBgNVHSMEgdwwgdmAFBrcmPJpwffIHSFD
sDx5UE3YK4dUoYG1pIGyMIGvMQswCQYDVQQGEwJVUzETMBEGA1UECAwKQ2FsaWZv
cm5pYTEWMBQGA1UEBwwNU2FuIEZyYW5jaXNjbzEgMB4GA1UECgwXQ29weWxlZnQg
Q2VydGlmaWNhdGUgQ28xHzAdBgNVBAsMFk15IE9yZ2FuaXphdGlvbmFsIFVuaXQx
ETAPBgNVBAMMCENoYW5nZU1lMR0wGwYJKoZIhvcNAQkBFg5tZUBleGFtcGxlLm5l
dIIJAIybjoh6rG2LMBMGA1UdJQQMMAoGCCsGAQUFBwMCMAsGA1UdDwQEAwIHgDAN
BgkqhkiG9w0BAQsFAAOCAQEAYVD2ibmA6C1y/nXnYh3TW/bY8qpOMuRHnzsuoJhH
bB7WbrKOEMsMr2c2a1wRss9i6yzelj85s/Ky+oWAU+LtgtvClY9F1S7N++RieUBJ
MWqJmAb6r9wLfjVswU6IHDQjyNNT140zX2xJmoy3wDuk/FaK5eC3u/PmOMS6MjNj
iOaJfjGBgjrLKedcPsqzXI0w/hWkhExa0edT0jrrP8h7KMFnwyQ2NVd4iniPSagQ
JJZiW3LgK+wMpDN80TOxxdN/FlLkMrrblHWVpnzhGiZ4DPbk9fsIiP4WPB81GXpm
iCuvwoRsWN6fB8yGVzQmfeEAPIXLUK8QBpAXwVKGe9kk6A==
-----END CERTIFICATE-----
