Certificate:
    Data:
        Version: 3 (0x2)
        Serial Number:
            be:7a:ef:aa:7d:c2:f8:56:15:8b:43:9b:76:ab:3f:5f
    Signature Algorithm: sha256WithRSAEncryption
        Issuer: C=US, ST=California, L=San Francisco, O=Copyleft Certificate Co, OU=My Organizational Unit, CN=ChangeMe/emailAddress=me@example.net
        Validity
            Not Before: Jan 23 18:30:12 2021 GMT
            Not After : Jan 23 18:30:12 2022 GMT
        Subject: C=US, ST=OH, L=Cincinnati, O=University of Cincinnati, OU=Dept. Electrical Eng. and Computer Sci., CN=client125/emailAddress=franco@gauss.ececs.uc.edu
        Subject Public Key Info:
            Public Key Algorithm: rsaEncryption
                Public-Key: (2048 bit)
                Modulus:
                    00:c5:39:e8:63:09:47:b8:fb:bc:e8:cc:93:b1:38:
                    06:0b:0b:84:60:de:88:69:e1:92:cd:d1:c0:e5:e3:
                    0d:34:2d:60:9d:bf:10:87:56:9c:aa:39:ec:79:13:
                    53:43:78:79:1c:be:9e:ef:64:34:5c:6e:e7:8e:f7:
                    8b:dd:ff:11:b0:1d:14:69:09:30:8a:f1:cb:77:77:
                    81:31:4e:ad:37:b2:d7:dd:ff:74:aa:be:e3:5d:bd:
                    f1:e5:86:89:42:1f:b3:9d:16:ff:da:a7:d1:4b:a3:
                    a2:5f:b6:0c:dc:78:a1:8d:f5:de:01:82:15:26:92:
                    e1:b3:91:62:32:ae:5e:77:1f:f2:94:cc:b5:e0:33:
                    4b:a3:b0:de:07:15:3f:45:e1:ba:61:74:4c:ce:85:
                    9b:85:21:47:d2:9f:cd:41:f6:9c:7f:ab:9f:cc:23:
                    a9:6d:a1:2d:71:2e:27:8c:5d:aa:76:2f:66:6c:b7:
                    1b:5c:3d:da:32:99:1d:a7:d5:6c:73:77:c4:3d:9c:
                    f2:55:a4:e3:13:27:18:1e:f5:b5:b4:26:2e:2a:4a:
                    70:17:dc:14:85:1e:8a:17:6e:86:b3:8b:ba:39:e8:
                    29:33:eb:02:d2:a0:f3:75:6c:c9:02:c9:79:a9:1b:
                    47:b3:68:c8:6f:42:a1:df:fc:e9:78:76:67:1c:53:
                    a3:75
                Exponent: 65537 (0x10001)
        X509v3 extensions:
            X509v3 Basic Constraints: 
                CA:FALSE
            X509v3 Subject Key Identifier: 
                A6:D4:CE:F9:3D:B9:20:E0:E7:E7:D4:68:7D:99:AA:C1:4F:B7:CD:DB
            X509v3 Authority Key Identifier: 
                keyid:EF:DC:B6:3D:4B:FD:A7:87:05:C5:22:3D:8B:DC:BF:99:2A:EE:E4:DB
                DirName:/C=US/ST=California/L=San Francisco/O=Copyleft Certificate Co/OU=My Organizational Unit/CN=ChangeMe/emailAddress=me@example.net
                serial:87:1E:1D:DC:6B:8C:66:88

            X509v3 Extended Key Usage: 
                TLS Web Client Authentication
            X509v3 Key Usage: 
                Digital Signature
    Signature Algorithm: sha256WithRSAEncryption
         51:09:c6:bb:7f:72:b9:13:0c:64:7a:88:03:79:5f:93:22:06:
         d6:d0:6a:72:c9:18:52:a7:75:26:84:39:0b:ea:97:db:79:14:
         17:91:ac:f2:36:45:30:67:28:32:d3:dd:9f:d9:8e:f1:6d:40:
         02:48:c1:d4:37:f9:9f:7e:2a:17:d4:5d:4a:99:f4:4b:0d:6b:
         3e:e5:dd:6e:b3:a4:a7:65:50:66:92:82:33:9f:4a:0a:c3:31:
         18:ad:c4:b5:dd:1b:57:90:44:70:fd:ea:15:66:ff:a6:6b:8e:
         99:4b:40:c7:29:bc:55:98:72:61:8b:67:6d:a6:1e:97:16:3a:
         ca:61:f9:71:16:81:09:65:3a:50:35:1c:c9:89:5c:35:ca:64:
         ea:24:70:3f:6a:9b:7e:0f:07:b5:3f:d5:23:30:35:e9:79:ea:
         5d:bd:f1:54:96:2a:ba:4a:da:a9:a4:9f:11:12:ae:c4:81:68:
         ca:2e:61:a2:e6:49:6c:e6:30:87:a1:6a:ac:c0:56:5b:50:54:
         aa:b1:91:80:48:9c:6f:0c:51:90:d7:1d:a5:82:01:71:79:f1:
         2a:0a:5d:24:28:2b:a5:a0:ec:8f:1f:b3:d1:58:9b:73:9b:f7:
         ca:3e:7c:61:f5:6a:da:60:0b:75:db:79:bc:a3:96:a7:32:8c:
         f4:2f:cf:78
-----BEGIN CERTIFICATE-----
MIIFNzCCBB+gAwIBAgIRAL5676p9wvhWFYtDm3arP18wDQYJKoZIhvcNAQELBQAw
ga8xCzAJBgNVBAYTAlVTMRMwEQYDVQQIDApDYWxpZm9ybmlhMRYwFAYDVQQHDA1T
YW4gRnJhbmNpc2NvMSAwHgYDVQQKDBdDb3B5bGVmdCBDZXJ0aWZpY2F0ZSBDbzEf
MB0GA1UECwwWTXkgT3JnYW5pemF0aW9uYWwgVW5pdDERMA8GA1UEAwwIQ2hhbmdl
TWUxHTAbBgkqhkiG9w0BCQEWDm1lQGV4YW1wbGUubmV0MB4XDTIxMDEyMzE4MzAx
MloXDTIyMDEyMzE4MzAxMlowgcIxCzAJBgNVBAYTAlVTMQswCQYDVQQIDAJPSDET
MBEGA1UEBwwKQ2luY2lubmF0aTEhMB8GA1UECgwYVW5pdmVyc2l0eSBvZiBDaW5j
aW5uYXRpMTAwLgYDVQQLDCdEZXB0LiBFbGVjdHJpY2FsIEVuZy4gYW5kIENvbXB1
dGVyIFNjaS4xEjAQBgNVBAMMCWNsaWVudDEyNTEoMCYGCSqGSIb3DQEJARYZZnJh
bmNvQGdhdXNzLmVjZWNzLnVjLmVkdTCCASIwDQYJKoZIhvcNAQEBBQADggEPADCC
AQoCggEBAMU56GMJR7j7vOjMk7E4BgsLhGDeiGnhks3RwOXjDTQtYJ2/EIdWnKo5
7HkTU0N4eRy+nu9kNFxu5473i93/EbAdFGkJMIrxy3d3gTFOrTey193/dKq+4129
8eWGiUIfs50W/9qn0Uujol+2DNx4oY313gGCFSaS4bORYjKuXncf8pTMteAzS6Ow
3gcVP0XhumF0TM6Fm4UhR9KfzUH2nH+rn8wjqW2hLXEuJ4xdqnYvZmy3G1w92jKZ
HafVbHN3xD2c8lWk4xMnGB71tbQmLipKcBfcFIUeihduhrOLujnoKTPrAtKg83Vs
yQLJeakbR7NoyG9Cod/86Xh2ZxxTo3UCAwEAAaOCATcwggEzMAkGA1UdEwQCMAAw
HQYDVR0OBBYEFKbUzvk9uSDg5+fUaH2ZqsFPt83bMIHkBgNVHSMEgdwwgdmAFO/c
tj1L/aeHBcUiPYvcv5kq7uTboYG1pIGyMIGvMQswCQYDVQQGEwJVUzETMBEGA1UE
CAwKQ2FsaWZvcm5pYTEWMBQGA1UEBwwNU2FuIEZyYW5jaXNjbzEgMB4GA1UECgwX
Q29weWxlZnQgQ2VydGlmaWNhdGUgQ28xHzAdBgNVBAsMFk15IE9yZ2FuaXphdGlv
bmFsIFVuaXQxETAPBgNVBAMMCENoYW5nZU1lMR0wGwYJKoZIhvcNAQkBFg5tZUBl
eGFtcGxlLm5ldIIJAIceHdxrjGaIMBMGA1UdJQQMMAoGCCsGAQUFBwMCMAsGA1Ud
DwQEAwIHgDANBgkqhkiG9w0BAQsFAAOCAQEAUQnGu39yuRMMZHqIA3lfkyIG1tBq
cskYUqd1JoQ5C+qX23kUF5Gs8jZFMGcoMtPdn9mO8W1AAkjB1Df5n34qF9RdSpn0
Sw1rPuXdbrOkp2VQZpKCM59KCsMxGK3Etd0bV5BEcP3qFWb/pmuOmUtAxym8VZhy
YYtnbaYelxY6ymH5cRaBCWU6UDUcyYlcNcpk6iRwP2qbfg8HtT/VIzA16XnqXb3x
VJYqukraqaSfERKuxIFoyi5houZJbOYwh6FqrMBWW1BUqrGRgEicbwxRkNcdpYIB
cXnxKgpdJCgrpaDsjx+z0Vibc5v3yj58YfVq2mALddt5vKOWpzKM9C/PeA==
-----END CERTIFICATE-----
