Certificate:
    Data:
        Version: 3 (0x2)
        Serial Number:
            44:23:6f:e6:ef:65:e0:88:be:a4:e7:af:b9:6d:c7:6b
    Signature Algorithm: sha256WithRSAEncryption
        Issuer: C=US, ST=California, L=San Francisco, O=Copyleft Certificate Co, OU=My Organizational Unit, CN=ChangeMe/emailAddress=me@example.net
        Validity
            Not Before: Nov 10 17:25:48 2023 GMT
            Not After : Nov  9 17:25:48 2024 GMT
        Subject: C=US, ST=OH, L=Cincinnati, O=University of Cincinnati, OU=Dept_Elec_Com_ Eng_Com_Sci., CN=client21/emailAddress=franco@gauss.ececs.uc.edu
        Subject Public Key Info:
            Public Key Algorithm: rsaEncryption
                Public-Key: (2048 bit)
                Modulus:
                    00:bc:7c:46:48:e2:24:e6:34:03:2b:b9:c4:d7:51:
                    83:f3:a0:d4:66:ae:4b:3a:a7:30:f0:0a:f4:ac:ea:
                    b3:04:22:eb:bb:92:6c:57:b5:dc:b7:d6:62:df:63:
                    f8:f5:cc:32:98:c7:85:31:2d:32:ad:c8:3e:4b:04:
                    f3:e0:58:f3:a4:67:b0:08:7e:79:1d:f8:25:a5:95:
                    9f:f5:01:e5:4b:34:82:7d:72:7b:13:31:4f:ca:d7:
                    70:5c:5e:e1:0f:9e:58:c0:6e:e2:96:1a:88:e3:23:
                    25:cd:62:84:a1:81:b9:e0:38:9a:04:68:6c:16:90:
                    01:f2:5d:7c:ab:48:4c:b8:7b:06:99:27:f6:a7:ce:
                    48:ba:f0:f2:1e:78:ca:2e:34:c8:47:2c:13:cf:b3:
                    89:24:fa:8e:ce:5c:5f:c9:83:10:51:95:8a:58:a2:
                    9e:6a:80:6a:d7:c9:62:30:30:51:c5:b4:e0:aa:5f:
                    a6:64:b2:eb:d9:1d:5c:0b:0b:fc:46:11:ac:6e:3f:
                    49:c1:df:74:f1:59:eb:ac:89:99:a9:b5:cb:e7:25:
                    3e:b3:a3:b5:22:d0:74:12:d1:95:c1:ac:04:70:f9:
                    28:03:74:12:3c:10:e5:69:93:93:15:fa:6c:5e:02:
                    a4:d3:26:33:d0:4f:79:5e:7a:da:1e:23:80:d5:bf:
                    c4:ad
                Exponent: 65537 (0x10001)
        X509v3 extensions:
            X509v3 Basic Constraints: 
                CA:FALSE
            X509v3 Subject Key Identifier: 
                77:98:CE:38:A8:E1:E2:12:23:BC:4D:E5:E8:AE:D9:2C:6B:B2:E9:8F
            X509v3 Authority Key Identifier: 
                keyid:D9:D4:8C:20:BC:EB:38:17:D5:4B:52:F8:AA:C5:D2:44:DD:A2:6A:3B
                DirName:/C=US/ST=California/L=San Francisco/O=Copyleft Certificate Co/OU=My Organizational Unit/CN=ChangeMe/emailAddress=me@example.net
                serial:C2:48:34:65:BF:AB:EB:AA

            X509v3 Extended Key Usage: 
                TLS Web Client Authentication
            X509v3 Key Usage: 
                Digital Signature
    Signature Algorithm: sha256WithRSAEncryption
         2d:ba:08:23:bf:55:44:40:a9:4d:44:22:7c:56:75:06:9e:81:
         e2:b9:c5:eb:83:d1:bd:e4:83:0d:2a:a1:cf:9f:8c:b3:81:8f:
         d1:e0:5e:3a:75:c5:9b:a8:a2:2e:fc:96:bb:2c:e7:95:15:a7:
         ed:50:bd:fb:b5:81:ab:5f:15:c2:e5:51:fa:a3:84:27:4f:90:
         34:50:3b:fc:27:67:e5:1d:d7:33:89:c3:47:a0:23:7c:54:ef:
         62:ec:e5:ea:1e:a1:38:b6:0a:99:52:f0:05:b1:98:9b:c1:1a:
         00:5a:a2:e0:8d:fa:6f:a1:d1:a8:68:32:53:84:7c:bc:15:f5:
         05:04:c2:23:07:1b:3d:b8:44:8d:ad:54:8d:6e:51:f2:de:6d:
         34:67:32:09:fa:5c:c4:f2:62:db:79:e1:b0:fd:d9:6b:4e:05:
         4b:34:7d:97:b2:52:95:d2:c9:a2:42:af:34:28:16:56:f5:2f:
         84:2f:a9:8e:8d:a2:44:c6:9e:cd:16:a7:01:d1:9c:5b:5f:3a:
         e3:a9:da:77:2d:30:4f:e0:ce:89:a1:8e:d0:35:d4:c2:20:ee:
         e9:ae:bb:42:69:df:bf:f0:fb:df:a9:70:c7:4e:bc:d2:a0:11:
         b2:a7:73:0e:66:2a:de:14:3b:49:8d:1e:74:c2:96:7d:64:27:
         07:79:59:8b
-----BEGIN CERTIFICATE-----
MIIFKTCCBBGgAwIBAgIQRCNv5u9l4Ii+pOevuW3HazANBgkqhkiG9w0BAQsFADCB
rzELMAkGA1UEBhMCVVMxEzARBgNVBAgMCkNhbGlmb3JuaWExFjAUBgNVBAcMDVNh
biBGcmFuY2lzY28xIDAeBgNVBAoMF0NvcHlsZWZ0IENlcnRpZmljYXRlIENvMR8w
HQYDVQQLDBZNeSBPcmdhbml6YXRpb25hbCBVbml0MREwDwYDVQQDDAhDaGFuZ2VN
ZTEdMBsGCSqGSIb3DQEJARYObWVAZXhhbXBsZS5uZXQwHhcNMjMxMTEwMTcyNTQ4
WhcNMjQxMTA5MTcyNTQ4WjCBtTELMAkGA1UEBhMCVVMxCzAJBgNVBAgMAk9IMRMw
EQYDVQQHDApDaW5jaW5uYXRpMSEwHwYDVQQKDBhVbml2ZXJzaXR5IG9mIENpbmNp
bm5hdGkxJDAiBgNVBAsMG0RlcHRfRWxlY19Db21fIEVuZ19Db21fU2NpLjERMA8G
A1UEAwwIY2xpZW50MjExKDAmBgkqhkiG9w0BCQEWGWZyYW5jb0BnYXVzcy5lY2Vj
cy51Yy5lZHUwggEiMA0GCSqGSIb3DQEBAQUAA4IBDwAwggEKAoIBAQC8fEZI4iTm
NAMrucTXUYPzoNRmrks6pzDwCvSs6rMEIuu7kmxXtdy31mLfY/j1zDKYx4UxLTKt
yD5LBPPgWPOkZ7AIfnkd+CWllZ/1AeVLNIJ9cnsTMU/K13BcXuEPnljAbuKWGojj
IyXNYoShgbngOJoEaGwWkAHyXXyrSEy4ewaZJ/anzki68PIeeMouNMhHLBPPs4kk
+o7OXF/JgxBRlYpYop5qgGrXyWIwMFHFtOCqX6ZksuvZHVwLC/xGEaxuP0nB33Tx
WeusiZmptcvnJT6zo7Ui0HQS0ZXBrARw+SgDdBI8EOVpk5MV+mxeAqTTJjPQT3le
etoeI4DVv8StAgMBAAGjggE3MIIBMzAJBgNVHRMEAjAAMB0GA1UdDgQWBBR3mM44
qOHiEiO8TeXortksa7LpjzCB5AYDVR0jBIHcMIHZgBTZ1IwgvOs4F9VLUviqxdJE
3aJqO6GBtaSBsjCBrzELMAkGA1UEBhMCVVMxEzARBgNVBAgMCkNhbGlmb3JuaWEx
FjAUBgNVBAcMDVNhbiBGcmFuY2lzY28xIDAeBgNVBAoMF0NvcHlsZWZ0IENlcnRp
ZmljYXRlIENvMR8wHQYDVQQLDBZNeSBPcmdhbml6YXRpb25hbCBVbml0MREwDwYD
VQQDDAhDaGFuZ2VNZTEdMBsGCSqGSIb3DQEJARYObWVAZXhhbXBsZS5uZXSCCQDC
SDRlv6vrqjATBgNVHSUEDDAKBggrBgEFBQcDAjALBgNVHQ8EBAMCB4AwDQYJKoZI
hvcNAQELBQADggEBAC26CCO/VURAqU1EInxWdQaegeK5xeuD0b3kgw0qoc+fjLOB
j9HgXjp1xZuooi78lrss55UVp+1Qvfu1gatfFcLlUfqjhCdPkDRQO/wnZ+Ud1zOJ
w0egI3xU72Ls5eoeoTi2CplS8AWxmJvBGgBaouCN+m+h0ahoMlOEfLwV9QUEwiMH
Gz24RI2tVI1uUfLebTRnMgn6XMTyYtt54bD92WtOBUs0fZeyUpXSyaJCrzQoFlb1
L4QvqY6NokTGns0WpwHRnFtfOuOp2nctME/gzomhjtA11MIg7umuu0Jp37/w+9+p
cMdOvNKgEbKncw5mKt4UO0mNHnTCln1kJwd5WYs=
-----END CERTIFICATE-----
