Certificate:
    Data:
        Version: 3 (0x2)
        Serial Number:
            3c:3c:c6:ec:b4:1a:d4:bd:79:6a:56:ed:1b:f4:15:8d
    Signature Algorithm: sha256WithRSAEncryption
        Issuer: C=US, ST=California, L=San Francisco, O=Copyleft Certificate Co, OU=My Organizational Unit, CN=ChangeMe/emailAddress=me@example.net
        Validity
            Not Before: Nov 13 11:12:45 2023 GMT
            Not After : Nov 12 11:12:45 2024 GMT
        Subject: C=US, ST=OH, L=Cincinnati, O=University of Cincinnati, OU=Dept. Elec. Comp. Eng. Comp. Sci., CN=client40/emailAddress=franco@gauss.ececs.uc.edu
        Subject Public Key Info:
            Public Key Algorithm: rsaEncryption
                Public-Key: (2048 bit)
                Modulus:
                    00:c0:53:5e:12:31:17:11:91:f9:6c:8f:87:15:94:
                    d2:3a:68:ef:71:b2:12:8f:cc:52:7d:f9:a3:3f:69:
                    ae:f3:73:59:b1:69:c2:ed:2d:b0:d4:d0:9a:ea:ce:
                    e3:d8:72:16:54:9c:81:90:52:73:bd:6e:5d:39:4c:
                    b8:2e:39:ac:0d:02:e6:c8:ff:39:7d:df:45:bb:48:
                    f6:40:bd:15:3d:71:a5:31:e6:8b:1e:cf:22:97:ba:
                    3d:45:fe:33:5b:1f:c6:b0:15:7e:2c:c8:4c:ef:08:
                    84:b7:73:25:fc:2f:45:4f:b2:30:e8:a7:27:2c:50:
                    8b:37:3d:78:78:07:df:db:8b:dd:62:ad:2c:de:0d:
                    76:5d:e6:7c:01:c9:57:35:36:13:f7:f1:fa:f9:bb:
                    ca:7e:cb:79:a9:da:c8:fb:20:5c:5d:cd:bd:1d:d5:
                    f8:4d:49:c3:dd:6b:19:e3:ce:ac:5b:bf:53:25:4a:
                    2e:68:49:e3:aa:2d:c8:61:28:d4:a5:0c:6c:95:56:
                    87:97:b5:e7:f4:7f:28:bd:4c:79:b9:13:43:74:10:
                    54:12:21:e5:5f:3f:82:37:9c:c4:64:fa:b1:3d:ed:
                    d7:1b:5c:f1:b9:40:48:3e:1b:29:ff:dd:5e:a9:a2:
                    46:88:c8:4e:b3:ab:f7:9d:d9:aa:0c:81:07:9f:48:
                    9e:e9
                Exponent: 65537 (0x10001)
        X509v3 extensions:
            X509v3 Basic Constraints: 
                CA:FALSE
            X509v3 Subject Key Identifier: 
                8C:B4:D6:9A:12:FC:71:99:0A:70:69:AE:60:34:B1:0F:29:67:3E:E4
            X509v3 Authority Key Identifier: 
                keyid:1A:DC:98:F2:69:C1:F7:C8:1D:21:43:B0:3C:79:50:4D:D8:2B:87:54
                DirName:/C=US/ST=California/L=San Francisco/O=Copyleft Certificate Co/OU=My Organizational Unit/CN=ChangeMe/emailAddress=me@example.net
                serial:8C:9B:8E:88:7A:AC:6D:8B

            X509v3 Extended Key Usage: 
                TLS Web Client Authentication
            X509v3 Key Usage: 
                Digital Signature
    Signature Algorithm: sha256WithRSAEncryption
         5e:a4:75:a6:98:c9:dd:77:e5:ad:3b:1a:db:01:32:c8:2e:15:
         9c:80:85:bb:e0:58:b8:58:f5:05:ac:52:eb:9e:cc:28:b5:33:
         85:a9:79:a8:69:d8:51:7c:27:05:da:48:1d:c2:df:8c:37:53:
         83:b8:35:23:ab:5a:bd:bb:9c:d1:9c:22:06:61:f1:b0:c1:fa:
         0b:75:b9:f2:5c:0a:99:6d:e7:35:b6:0d:27:a7:43:b8:63:c7:
         30:68:99:80:63:82:d7:29:d4:cb:f1:e1:ca:39:12:de:03:ea:
         b2:12:f1:7f:a0:e5:b7:86:5c:14:11:89:35:f7:5d:e4:0c:4a:
         d6:fc:f5:1e:50:06:79:38:c3:5f:51:52:f3:8c:33:e8:5c:b6:
         66:89:84:bd:8d:b5:c7:ff:3f:11:87:15:55:0d:f4:30:e8:6d:
         61:11:97:06:59:53:94:49:59:0f:cd:c5:7c:b8:7b:34:49:cc:
         e4:d3:2b:d3:51:9a:4d:35:8f:72:0a:5b:f3:f9:22:54:ca:05:
         0c:63:33:53:f7:ea:16:2e:2e:fa:a4:06:f8:c9:25:bf:ca:f8:
         d2:68:b7:4c:2a:23:92:1b:70:05:4b:1f:c8:b9:35:b7:b3:5b:
         13:19:e9:dc:83:4a:a2:55:b2:d9:46:6c:81:07:4f:24:5b:b7:
         9e:47:d8:97
-----BEGIN CERTIFICATE-----
MIIFLzCCBBegAwIBAgIQPDzG7LQa1L15albtG/QVjTANBgkqhkiG9w0BAQsFADCB
rzELMAkGA1UEBhMCVVMxEzARBgNVBAgMCkNhbGlmb3JuaWExFjAUBgNVBAcMDVNh
biBGcmFuY2lzY28xIDAeBgNVBAoMF0NvcHlsZWZ0IENlcnRpZmljYXRlIENvMR8w
HQYDVQQLDBZNeSBPcmdhbml6YXRpb25hbCBVbml0MREwDwYDVQQDDAhDaGFuZ2VN
ZTEdMBsGCSqGSIb3DQEJARYObWVAZXhhbXBsZS5uZXQwHhcNMjMxMTEzMTExMjQ1
WhcNMjQxMTEyMTExMjQ1WjCBuzELMAkGA1UEBhMCVVMxCzAJBgNVBAgMAk9IMRMw
EQYDVQQHDApDaW5jaW5uYXRpMSEwHwYDVQQKDBhVbml2ZXJzaXR5IG9mIENpbmNp
bm5hdGkxKjAoBgNVBAsMIURlcHQuIEVsZWMuIENvbXAuIEVuZy4gQ29tcC4gU2Np
LjERMA8GA1UEAwwIY2xpZW50NDAxKDAmBgkqhkiG9w0BCQEWGWZyYW5jb0BnYXVz
cy5lY2Vjcy51Yy5lZHUwggEiMA0GCSqGSIb3DQEBAQUAA4IBDwAwggEKAoIBAQDA
U14SMRcRkflsj4cVlNI6aO9xshKPzFJ9+aM/aa7zc1mxacLtLbDU0JrqzuPYchZU
nIGQUnO9bl05TLguOawNAubI/zl930W7SPZAvRU9caUx5osezyKXuj1F/jNbH8aw
FX4syEzvCIS3cyX8L0VPsjDopycsUIs3PXh4B9/bi91irSzeDXZd5nwByVc1NhP3
8fr5u8p+y3mp2sj7IFxdzb0d1fhNScPdaxnjzqxbv1MlSi5oSeOqLchhKNSlDGyV
VoeXtef0fyi9THm5E0N0EFQSIeVfP4I3nMRk+rE97dcbXPG5QEg+Gyn/3V6pokaI
yE6zq/ed2aoMgQefSJ7pAgMBAAGjggE3MIIBMzAJBgNVHRMEAjAAMB0GA1UdDgQW
BBSMtNaaEvxxmQpwaa5gNLEPKWc+5DCB5AYDVR0jBIHcMIHZgBQa3JjyacH3yB0h
Q7A8eVBN2CuHVKGBtaSBsjCBrzELMAkGA1UEBhMCVVMxEzARBgNVBAgMCkNhbGlm
b3JuaWExFjAUBgNVBAcMDVNhbiBGcmFuY2lzY28xIDAeBgNVBAoMF0NvcHlsZWZ0
IENlcnRpZmljYXRlIENvMR8wHQYDVQQLDBZNeSBPcmdhbml6YXRpb25hbCBVbml0
MREwDwYDVQQDDAhDaGFuZ2VNZTEdMBsGCSqGSIb3DQEJARYObWVAZXhhbXBsZS5u
ZXSCCQCMm46IeqxtizATBgNVHSUEDDAKBggrBgEFBQcDAjALBgNVHQ8EBAMCB4Aw
DQYJKoZIhvcNAQELBQADggEBAF6kdaaYyd135a07GtsBMsguFZyAhbvgWLhY9QWs
UuuezCi1M4Wpeahp2FF8JwXaSB3C34w3U4O4NSOrWr27nNGcIgZh8bDB+gt1ufJc
Cplt5zW2DSenQ7hjxzBomYBjgtcp1Mvx4co5Et4D6rIS8X+g5beGXBQRiTX3XeQM
Stb89R5QBnk4w19RUvOMM+hctmaJhL2Ntcf/PxGHFVUN9DDobWERlwZZU5RJWQ/N
xXy4ezRJzOTTK9NRmk01j3IKW/P5IlTKBQxjM1P36hYuLvqkBvjJJb/K+NJot0wq
I5IbcAVLH8i5NbezWxMZ6dyDSqJVstlGbIEHTyRbt55H2Jc=
-----END CERTIFICATE-----
