Certificate:
    Data:
        Version: 3 (0x2)
        Serial Number:
            4e:c8:76:eb:c4:0c:1d:6f:dc:fa:4b:ca:d5:d6:ab:22
    Signature Algorithm: sha256WithRSAEncryption
        Issuer: C=US, ST=California, L=San Francisco, O=Copyleft Certificate Co, OU=My Organizational Unit, CN=ChangeMe/emailAddress=me@example.net
        Validity
            Not Before: Nov 10 17:24:44 2023 GMT
            Not After : Nov  9 17:24:44 2024 GMT
        Subject: C=US, ST=OH, L=Cincinnati, O=University of Cincinnati, OU=Dept_Elec_Com_ Eng_Com_Sci., CN=client5/emailAddress=franco@gauss.ececs.uc.edu
        Subject Public Key Info:
            Public Key Algorithm: rsaEncryption
                Public-Key: (2048 bit)
                Modulus:
                    00:ad:96:8a:9f:78:ab:31:29:1e:a9:9c:16:00:88:
                    9a:d1:2e:17:24:96:91:cb:ec:83:ab:9c:c4:0c:53:
                    33:b6:75:1c:ee:a9:d7:99:80:3f:66:57:e8:52:2a:
                    cc:f7:64:6e:94:4e:fc:4a:34:a9:fe:07:90:24:a3:
                    9c:9d:85:62:3b:54:1e:55:9c:c3:bc:68:a7:0b:c6:
                    75:73:5f:65:6f:da:03:7a:65:c3:0f:1a:26:09:7b:
                    3c:cb:26:aa:15:8d:b5:62:e2:a9:77:83:59:75:54:
                    5c:0a:6f:6f:67:12:6a:48:a3:39:95:5a:44:64:83:
                    70:4a:e0:9f:f2:14:5b:27:92:c7:73:fd:29:49:8c:
                    79:0b:ae:12:15:b1:43:65:34:23:38:a8:90:f5:e2:
                    06:4d:ce:03:32:a1:ee:14:a3:01:9f:6f:bb:fe:3b:
                    1f:3d:59:34:5e:0a:3a:81:c9:a4:68:af:a5:5f:7b:
                    49:89:09:a4:4f:1b:64:6a:49:fd:63:dc:b7:13:db:
                    c6:d6:c3:8b:d0:71:d5:d9:db:6b:b3:d2:85:b7:49:
                    a2:4a:c1:c8:cc:1d:b3:f8:a3:f9:c1:ba:ad:c8:fc:
                    5c:ee:47:71:72:be:5e:98:3b:6f:1b:ed:ba:51:53:
                    6c:38:e8:c2:5d:c2:b7:b7:b2:ce:c7:3d:8f:0c:fe:
                    8b:47
                Exponent: 65537 (0x10001)
        X509v3 extensions:
            X509v3 Basic Constraints: 
                CA:FALSE
            X509v3 Subject Key Identifier: 
                C3:C6:5C:75:F0:FD:48:DA:07:8F:B7:35:7C:64:92:D0:C8:B3:4E:E5
            X509v3 Authority Key Identifier: 
                keyid:D9:D4:8C:20:BC:EB:38:17:D5:4B:52:F8:AA:C5:D2:44:DD:A2:6A:3B
                DirName:/C=US/ST=California/L=San Francisco/O=Copyleft Certificate Co/OU=My Organizational Unit/CN=ChangeMe/emailAddress=me@example.net
                serial:C2:48:34:65:BF:AB:EB:AA

            X509v3 Extended Key Usage: 
                TLS Web Client Authentication
            X509v3 Key Usage: 
                Digital Signature
    Signature Algorithm: sha256WithRSAEncryption
         2b:8d:1b:dc:df:a0:7e:57:20:59:c8:68:bd:a0:81:f8:bd:19:
         88:82:a4:cc:a0:68:c8:39:d8:3e:94:2d:d2:3e:92:79:e4:1a:
         69:ae:b2:31:0e:0f:24:bd:da:05:ad:8a:ff:2d:97:cb:02:ff:
         88:b5:f2:8a:96:59:2a:d4:f7:7c:04:2d:af:53:f5:dc:6d:6f:
         ce:ad:fe:0b:2b:15:30:c8:06:65:db:2b:88:77:bb:0e:a2:94:
         68:99:0d:17:85:31:15:1a:7d:f1:ec:3c:65:a7:d4:00:a1:5b:
         eb:10:92:69:0b:fc:33:ca:cf:c9:d7:b5:74:a1:c0:89:57:a8:
         37:9a:2a:67:88:51:45:f0:55:67:16:a0:95:a4:f0:6b:b9:54:
         ef:aa:fc:8d:0a:d8:aa:d1:65:aa:b8:90:f7:2f:4c:a3:1b:c5:
         1d:57:c4:ac:92:b1:81:f1:cd:7f:33:c7:d3:3b:ef:ac:35:74:
         b2:35:77:77:60:86:46:cb:e7:5b:02:51:14:ab:9e:77:f1:ed:
         8a:a5:29:e4:ad:31:a1:8d:89:59:82:46:bc:a6:7c:0e:63:ba:
         4d:ce:91:e0:f4:14:66:7e:42:57:23:11:a5:4b:7a:ce:a6:20:
         83:3d:bb:34:19:0d:f3:fc:96:72:be:f6:3b:1b:d5:a4:dc:7d:
         6f:dd:e4:6e
-----BEGIN CERTIFICATE-----
MIIFKDCCBBCgAwIBAgIQTsh268QMHW/c+kvK1darIjANBgkqhkiG9w0BAQsFADCB
rzELMAkGA1UEBhMCVVMxEzARBgNVBAgMCkNhbGlmb3JuaWExFjAUBgNVBAcMDVNh
biBGcmFuY2lzY28xIDAeBgNVBAoMF0NvcHlsZWZ0IENlcnRpZmljYXRlIENvMR8w
HQYDVQQLDBZNeSBPcmdhbml6YXRpb25hbCBVbml0MREwDwYDVQQDDAhDaGFuZ2VN
ZTEdMBsGCSqGSIb3DQEJARYObWVAZXhhbXBsZS5uZXQwHhcNMjMxMTEwMTcyNDQ0
WhcNMjQxMTA5MTcyNDQ0WjCBtDELMAkGA1UEBhMCVVMxCzAJBgNVBAgMAk9IMRMw
EQYDVQQHDApDaW5jaW5uYXRpMSEwHwYDVQQKDBhVbml2ZXJzaXR5IG9mIENpbmNp
bm5hdGkxJDAiBgNVBAsMG0RlcHRfRWxlY19Db21fIEVuZ19Db21fU2NpLjEQMA4G
A1UEAwwHY2xpZW50NTEoMCYGCSqGSIb3DQEJARYZZnJhbmNvQGdhdXNzLmVjZWNz
LnVjLmVkdTCCASIwDQYJKoZIhvcNAQEBBQADggEPADCCAQoCggEBAK2Wip94qzEp
HqmcFgCImtEuFySWkcvsg6ucxAxTM7Z1HO6p15mAP2ZX6FIqzPdkbpRO/Eo0qf4H
kCSjnJ2FYjtUHlWcw7xopwvGdXNfZW/aA3plww8aJgl7PMsmqhWNtWLiqXeDWXVU
XApvb2cSakijOZVaRGSDcErgn/IUWyeSx3P9KUmMeQuuEhWxQ2U0IziokPXiBk3O
AzKh7hSjAZ9vu/47Hz1ZNF4KOoHJpGivpV97SYkJpE8bZGpJ/WPctxPbxtbDi9Bx
1dnba7PShbdJokrByMwds/ij+cG6rcj8XO5HcXK+Xpg7bxvtulFTbDjowl3Ct7ey
zsc9jwz+i0cCAwEAAaOCATcwggEzMAkGA1UdEwQCMAAwHQYDVR0OBBYEFMPGXHXw
/UjaB4+3NXxkktDIs07lMIHkBgNVHSMEgdwwgdmAFNnUjCC86zgX1UtS+KrF0kTd
omo7oYG1pIGyMIGvMQswCQYDVQQGEwJVUzETMBEGA1UECAwKQ2FsaWZvcm5pYTEW
MBQGA1UEBwwNU2FuIEZyYW5jaXNjbzEgMB4GA1UECgwXQ29weWxlZnQgQ2VydGlm
aWNhdGUgQ28xHzAdBgNVBAsMFk15IE9yZ2FuaXphdGlvbmFsIFVuaXQxETAPBgNV
BAMMCENoYW5nZU1lMR0wGwYJKoZIhvcNAQkBFg5tZUBleGFtcGxlLm5ldIIJAMJI
NGW/q+uqMBMGA1UdJQQMMAoGCCsGAQUFBwMCMAsGA1UdDwQEAwIHgDANBgkqhkiG
9w0BAQsFAAOCAQEAK40b3N+gflcgWchovaCB+L0ZiIKkzKBoyDnYPpQt0j6SeeQa
aa6yMQ4PJL3aBa2K/y2XywL/iLXyipZZKtT3fAQtr1P13G1vzq3+CysVMMgGZdsr
iHe7DqKUaJkNF4UxFRp98ew8ZafUAKFb6xCSaQv8M8rPyde1dKHAiVeoN5oqZ4hR
RfBVZxaglaTwa7lU76r8jQrYqtFlqriQ9y9MoxvFHVfErJKxgfHNfzPH0zvvrDV0
sjV3d2CGRsvnWwJRFKued/HtiqUp5K0xoY2JWYJGvKZ8DmO6Tc6R4PQUZn5CVyMR
pUt6zqYggz27NBkN8/yWcr72OxvVpNx9b93kbg==
-----END CERTIFICATE-----
