Certificate:
    Data:
        Version: 3 (0x2)
        Serial Number:
            1b:8b:3c:f7:00:e4:86:eb:de:1e:32:d2:a3:80:77:1d
    Signature Algorithm: sha256WithRSAEncryption
        Issuer: C=US, ST=California, L=San Francisco, O=Copyleft Certificate Co, OU=My Organizational Unit, CN=ChangeMe/emailAddress=me@example.net
        Validity
            Not Before: Nov 10 17:26:16 2023 GMT
            Not After : Nov  9 17:26:16 2024 GMT
        Subject: C=US, ST=OH, L=Cincinnati, O=University of Cincinnati, OU=Dept_Elec_Com_ Eng_Com_Sci., CN=client28/emailAddress=franco@gauss.ececs.uc.edu
        Subject Public Key Info:
            Public Key Algorithm: rsaEncryption
                Public-Key: (2048 bit)
                Modulus:
                    00:ad:85:63:aa:b2:41:e9:61:13:b6:e0:f8:55:ee:
                    e7:b1:c2:02:d1:00:b8:76:37:8b:c2:e9:a3:e4:a6:
                    18:ae:d5:40:83:1c:97:ec:c0:0d:c7:52:34:6a:41:
                    7a:c3:9d:c0:ad:d0:f0:d5:71:64:4f:f5:25:71:55:
                    27:65:ef:45:46:51:cf:f0:de:31:cf:51:89:a6:e0:
                    84:89:a2:77:80:3b:2e:e2:5f:d0:5f:af:4f:c1:11:
                    c3:ad:17:83:10:04:94:e7:9a:22:09:25:bd:94:cc:
                    a1:ea:d2:4f:1b:55:59:e9:29:e4:68:db:93:94:16:
                    76:ca:a9:e6:bd:53:ae:e3:07:9c:41:43:d9:bf:47:
                    71:30:43:56:93:09:73:44:84:cd:68:8b:44:5b:a4:
                    b7:cd:b5:73:1a:8f:21:fc:bb:aa:ee:40:49:43:ad:
                    5e:7a:cc:e4:23:9c:c1:9c:c2:ef:7a:b9:9f:bb:75:
                    a2:9d:c2:18:34:15:12:65:17:2d:50:92:65:6c:ea:
                    50:ca:3c:2f:c0:42:4f:60:f0:db:9e:82:6a:c2:d9:
                    48:31:cb:db:b3:b3:cd:ca:18:16:80:03:68:97:1c:
                    4e:ce:d9:8a:ae:05:a9:33:4b:bd:b0:da:4b:c8:8d:
                    e7:c4:1e:3d:e3:9f:68:9b:e8:0c:60:c1:84:d7:bf:
                    68:91
                Exponent: 65537 (0x10001)
        X509v3 extensions:
            X509v3 Basic Constraints: 
                CA:FALSE
            X509v3 Subject Key Identifier: 
                ED:6F:34:8C:4B:36:F8:F6:13:C5:DE:49:C1:4D:63:CE:87:29:9A:0E
            X509v3 Authority Key Identifier: 
                keyid:D9:D4:8C:20:BC:EB:38:17:D5:4B:52:F8:AA:C5:D2:44:DD:A2:6A:3B
                DirName:/C=US/ST=California/L=San Francisco/O=Copyleft Certificate Co/OU=My Organizational Unit/CN=ChangeMe/emailAddress=me@example.net
                serial:C2:48:34:65:BF:AB:EB:AA

            X509v3 Extended Key Usage: 
                TLS Web Client Authentication
            X509v3 Key Usage: 
                Digital Signature
    Signature Algorithm: sha256WithRSAEncryption
         20:f3:d5:f8:76:05:d0:fa:0b:cd:89:9d:8c:86:37:32:2c:f0:
         e1:89:98:49:cb:72:de:fe:91:85:15:66:3d:d1:df:ee:2b:8e:
         35:b2:df:92:ae:62:14:1d:c1:a5:78:56:99:7f:9e:8c:1c:e1:
         be:76:b6:4d:38:34:47:ac:67:e8:5b:1d:54:5f:8a:26:2b:34:
         b9:c0:72:1c:37:74:ed:f1:fe:d6:35:78:92:5a:44:32:51:d2:
         20:80:aa:32:90:b1:aa:ec:0d:b0:45:54:73:c4:64:b6:41:6f:
         15:46:47:18:d6:27:8c:64:19:96:cd:7b:f1:32:af:69:2f:da:
         f3:a0:bc:6e:45:43:3e:6f:96:9a:68:cf:97:b7:85:09:f1:df:
         4e:ca:74:b8:33:8c:7e:63:9a:98:33:9c:60:81:07:37:8e:07:
         a2:cb:7f:f1:dc:26:51:da:8b:cb:ae:bb:c9:02:63:a4:e2:b6:
         8f:72:58:7d:58:d4:38:49:5b:f8:b3:e8:c7:74:a1:fa:77:78:
         99:49:04:2e:bb:cd:e0:22:0d:72:05:75:e1:ef:9d:a0:48:a2:
         3f:42:26:c8:0a:bb:89:8e:cc:4a:79:8d:c5:9f:6d:27:d4:2c:
         c2:08:e1:dc:7f:80:07:91:e9:3e:3e:7d:07:1d:60:6c:b8:37:
         bd:73:57:eb
-----BEGIN CERTIFICATE-----
MIIFKTCCBBGgAwIBAgIQG4s89wDkhuveHjLSo4B3HTANBgkqhkiG9w0BAQsFADCB
rzELMAkGA1UEBhMCVVMxEzARBgNVBAgMCkNhbGlmb3JuaWExFjAUBgNVBAcMDVNh
biBGcmFuY2lzY28xIDAeBgNVBAoMF0NvcHlsZWZ0IENlcnRpZmljYXRlIENvMR8w
HQYDVQQLDBZNeSBPcmdhbml6YXRpb25hbCBVbml0MREwDwYDVQQDDAhDaGFuZ2VN
ZTEdMBsGCSqGSIb3DQEJARYObWVAZXhhbXBsZS5uZXQwHhcNMjMxMTEwMTcyNjE2
WhcNMjQxMTA5MTcyNjE2WjCBtTELMAkGA1UEBhMCVVMxCzAJBgNVBAgMAk9IMRMw
EQYDVQQHDApDaW5jaW5uYXRpMSEwHwYDVQQKDBhVbml2ZXJzaXR5IG9mIENpbmNp
bm5hdGkxJDAiBgNVBAsMG0RlcHRfRWxlY19Db21fIEVuZ19Db21fU2NpLjERMA8G
A1UEAwwIY2xpZW50MjgxKDAmBgkqhkiG9w0BCQEWGWZyYW5jb0BnYXVzcy5lY2Vj
cy51Yy5lZHUwggEiMA0GCSqGSIb3DQEBAQUAA4IBDwAwggEKAoIBAQCthWOqskHp
YRO24PhV7uexwgLRALh2N4vC6aPkphiu1UCDHJfswA3HUjRqQXrDncCt0PDVcWRP
9SVxVSdl70VGUc/w3jHPUYmm4ISJoneAOy7iX9Bfr0/BEcOtF4MQBJTnmiIJJb2U
zKHq0k8bVVnpKeRo25OUFnbKqea9U67jB5xBQ9m/R3EwQ1aTCXNEhM1oi0RbpLfN
tXMajyH8u6ruQElDrV56zOQjnMGcwu96uZ+7daKdwhg0FRJlFy1QkmVs6lDKPC/A
Qk9g8NuegmrC2Ugxy9uzs83KGBaAA2iXHE7O2YquBakzS72w2kvIjefEHj3jn2ib
6AxgwYTXv2iRAgMBAAGjggE3MIIBMzAJBgNVHRMEAjAAMB0GA1UdDgQWBBTtbzSM
Szb49hPF3knBTWPOhymaDjCB5AYDVR0jBIHcMIHZgBTZ1IwgvOs4F9VLUviqxdJE
3aJqO6GBtaSBsjCBrzELMAkGA1UEBhMCVVMxEzARBgNVBAgMCkNhbGlmb3JuaWEx
FjAUBgNVBAcMDVNhbiBGcmFuY2lzY28xIDAeBgNVBAoMF0NvcHlsZWZ0IENlcnRp
ZmljYXRlIENvMR8wHQYDVQQLDBZNeSBPcmdhbml6YXRpb25hbCBVbml0MREwDwYD
VQQDDAhDaGFuZ2VNZTEdMBsGCSqGSIb3DQEJARYObWVAZXhhbXBsZS5uZXSCCQDC
SDRlv6vrqjATBgNVHSUEDDAKBggrBgEFBQcDAjALBgNVHQ8EBAMCB4AwDQYJKoZI
hvcNAQELBQADggEBACDz1fh2BdD6C82JnYyGNzIs8OGJmEnLct7+kYUVZj3R3+4r
jjWy35KuYhQdwaV4Vpl/nowc4b52tk04NEesZ+hbHVRfiiYrNLnAchw3dO3x/tY1
eJJaRDJR0iCAqjKQsarsDbBFVHPEZLZBbxVGRxjWJ4xkGZbNe/Eyr2kv2vOgvG5F
Qz5vlppoz5e3hQnx307KdLgzjH5jmpgznGCBBzeOB6LLf/HcJlHai8uuu8kCY6Ti
to9yWH1Y1DhJW/iz6Md0ofp3eJlJBC67zeAiDXIFdeHvnaBIoj9CJsgKu4mOzEp5
jcWfbSfULMII4dx/gAeR6T4+fQcdYGy4N71zV+s=
-----END CERTIFICATE-----
