Certificate:
    Data:
        Version: 3 (0x2)
        Serial Number:
            88:e8:15:47:b5:7c:73:7a:f9:ba:17:f0:ef:f7:df:29
    Signature Algorithm: sha256WithRSAEncryption
        Issuer: C=US, ST=California, L=San Francisco, O=Copyleft Certificate Co, OU=My Organizational Unit, CN=ChangeMe/emailAddress=me@example.net
        Validity
            Not Before: Nov 10 17:24:52 2023 GMT
            Not After : Nov  9 17:24:52 2024 GMT
        Subject: C=US, ST=OH, L=Cincinnati, O=University of Cincinnati, OU=Dept_Elec_Com_ Eng_Com_Sci., CN=client7/emailAddress=franco@gauss.ececs.uc.edu
        Subject Public Key Info:
            Public Key Algorithm: rsaEncryption
                Public-Key: (2048 bit)
                Modulus:
                    00:b5:b7:28:11:ab:32:bb:4d:60:75:9e:7a:89:7a:
                    f3:05:99:a5:e6:e0:ed:64:a6:83:12:5f:1a:ec:3a:
                    81:d5:35:55:59:68:e0:86:e6:8f:a3:1b:14:cc:28:
                    ac:83:a1:aa:34:58:18:07:f9:89:7f:9a:b5:65:f9:
                    44:b4:7f:78:c6:af:31:68:b8:9d:4d:b4:22:c8:e3:
                    8a:1c:8e:61:f0:ae:3d:e2:9e:47:ff:4b:a2:1e:32:
                    a9:6a:76:a3:f6:f4:dd:66:54:e8:23:d0:d5:51:a9:
                    ab:99:76:8f:39:5c:ab:e5:88:5e:e8:b2:54:a0:15:
                    f0:65:55:7d:82:88:4b:97:8c:ab:bb:3a:5c:c3:62:
                    8f:0c:93:1b:17:54:a9:d6:8b:64:14:ea:4c:c2:ab:
                    1b:76:82:25:ac:0c:b1:8b:f5:6e:a7:09:34:28:de:
                    da:ab:9a:90:c1:db:75:fb:53:32:cc:c3:55:cf:50:
                    54:d6:03:80:4c:91:92:0f:c7:d2:95:69:63:7f:b1:
                    49:cd:de:a5:fe:7d:fa:22:30:40:54:7e:21:fe:d8:
                    c1:91:00:6b:90:5a:11:33:d3:bc:53:fa:a7:f7:6f:
                    8e:3e:a2:8e:db:2d:82:15:67:cf:e3:22:7e:de:33:
                    be:0d:a3:c8:d9:51:6a:98:f6:83:72:e3:72:f4:d8:
                    46:7d
                Exponent: 65537 (0x10001)
        X509v3 extensions:
            X509v3 Basic Constraints: 
                CA:FALSE
            X509v3 Subject Key Identifier: 
                79:6F:51:D9:B6:19:B1:77:82:25:23:3A:2D:2A:EE:65:78:60:21:9C
            X509v3 Authority Key Identifier: 
                keyid:D9:D4:8C:20:BC:EB:38:17:D5:4B:52:F8:AA:C5:D2:44:DD:A2:6A:3B
                DirName:/C=US/ST=California/L=San Francisco/O=Copyleft Certificate Co/OU=My Organizational Unit/CN=ChangeMe/emailAddress=me@example.net
                serial:C2:48:34:65:BF:AB:EB:AA

            X509v3 Extended Key Usage: 
                TLS Web Client Authentication
            X509v3 Key Usage: 
                Digital Signature
    Signature Algorithm: sha256WithRSAEncryption
         0c:02:af:cb:e2:7a:40:8b:34:10:58:f3:9d:c2:61:67:03:25:
         dc:4d:36:b2:ed:7b:1b:0f:93:b4:6d:80:98:32:05:0c:24:3e:
         0c:75:e5:5a:14:af:04:80:23:80:b0:b4:76:f3:a0:11:ef:3d:
         a7:5b:5c:0f:a8:d5:a8:f2:dc:ec:2d:68:e0:a2:50:c4:2a:7b:
         27:29:9e:f8:a2:54:a0:ea:6c:cc:91:3f:8d:48:ae:c3:ed:01:
         c5:0f:bf:99:4c:3f:f0:1f:21:bf:de:7c:b3:9e:b3:11:3c:be:
         e3:28:7c:6c:e7:0c:6d:1b:ab:1b:52:b9:85:c7:88:ba:02:0a:
         fb:67:3c:3f:86:2e:d2:3b:78:22:e6:05:c5:5b:9a:e5:b7:e3:
         4f:07:ce:d8:46:c8:20:ec:9e:94:6a:4e:59:e6:53:05:81:d6:
         bc:87:94:2b:c9:a0:4e:e5:a8:b1:db:ad:34:f7:48:45:6c:af:
         6c:74:5f:22:aa:07:20:7a:6c:5a:0d:cf:87:16:e6:df:ee:b7:
         3f:4f:2c:15:2e:0b:f6:7f:32:ca:f4:e6:4f:73:90:84:70:16:
         24:3c:e0:bd:f9:ea:a4:51:67:fc:66:2e:a1:60:8d:56:04:38:
         28:8e:ca:df:bf:c2:ef:9d:15:dc:fa:1d:9c:99:7b:29:44:96:
         90:cc:cf:a4
-----BEGIN CERTIFICATE-----
MIIFKTCCBBGgAwIBAgIRAIjoFUe1fHN6+boX8O/33ykwDQYJKoZIhvcNAQELBQAw
ga8xCzAJBgNVBAYTAlVTMRMwEQYDVQQIDApDYWxpZm9ybmlhMRYwFAYDVQQHDA1T
YW4gRnJhbmNpc2NvMSAwHgYDVQQKDBdDb3B5bGVmdCBDZXJ0aWZpY2F0ZSBDbzEf
MB0GA1UECwwWTXkgT3JnYW5pemF0aW9uYWwgVW5pdDERMA8GA1UEAwwIQ2hhbmdl
TWUxHTAbBgkqhkiG9w0BCQEWDm1lQGV4YW1wbGUubmV0MB4XDTIzMTExMDE3MjQ1
MloXDTI0MTEwOTE3MjQ1MlowgbQxCzAJBgNVBAYTAlVTMQswCQYDVQQIDAJPSDET
MBEGA1UEBwwKQ2luY2lubmF0aTEhMB8GA1UECgwYVW5pdmVyc2l0eSBvZiBDaW5j
aW5uYXRpMSQwIgYDVQQLDBtEZXB0X0VsZWNfQ29tXyBFbmdfQ29tX1NjaS4xEDAO
BgNVBAMMB2NsaWVudDcxKDAmBgkqhkiG9w0BCQEWGWZyYW5jb0BnYXVzcy5lY2Vj
cy51Yy5lZHUwggEiMA0GCSqGSIb3DQEBAQUAA4IBDwAwggEKAoIBAQC1tygRqzK7
TWB1nnqJevMFmaXm4O1kpoMSXxrsOoHVNVVZaOCG5o+jGxTMKKyDoao0WBgH+Yl/
mrVl+US0f3jGrzFouJ1NtCLI44ocjmHwrj3inkf/S6IeMqlqdqP29N1mVOgj0NVR
qauZdo85XKvliF7oslSgFfBlVX2CiEuXjKu7OlzDYo8MkxsXVKnWi2QU6kzCqxt2
giWsDLGL9W6nCTQo3tqrmpDB23X7UzLMw1XPUFTWA4BMkZIPx9KVaWN/sUnN3qX+
ffoiMEBUfiH+2MGRAGuQWhEz07xT+qf3b44+oo7bLYIVZ8/jIn7eM74No8jZUWqY
9oNy43L02EZ9AgMBAAGjggE3MIIBMzAJBgNVHRMEAjAAMB0GA1UdDgQWBBR5b1HZ
thmxd4IlIzotKu5leGAhnDCB5AYDVR0jBIHcMIHZgBTZ1IwgvOs4F9VLUviqxdJE
3aJqO6GBtaSBsjCBrzELMAkGA1UEBhMCVVMxEzARBgNVBAgMCkNhbGlmb3JuaWEx
FjAUBgNVBAcMDVNhbiBGcmFuY2lzY28xIDAeBgNVBAoMF0NvcHlsZWZ0IENlcnRp
ZmljYXRlIENvMR8wHQYDVQQLDBZNeSBPcmdhbml6YXRpb25hbCBVbml0MREwDwYD
VQQDDAhDaGFuZ2VNZTEdMBsGCSqGSIb3DQEJARYObWVAZXhhbXBsZS5uZXSCCQDC
SDRlv6vrqjATBgNVHSUEDDAKBggrBgEFBQcDAjALBgNVHQ8EBAMCB4AwDQYJKoZI
hvcNAQELBQADggEBAAwCr8viekCLNBBY853CYWcDJdxNNrLtexsPk7RtgJgyBQwk
Pgx15VoUrwSAI4CwtHbzoBHvPadbXA+o1ajy3OwtaOCiUMQqeycpnviiVKDqbMyR
P41IrsPtAcUPv5lMP/AfIb/efLOesxE8vuMofGznDG0bqxtSuYXHiLoCCvtnPD+G
LtI7eCLmBcVbmuW3408HzthGyCDsnpRqTlnmUwWB1ryHlCvJoE7lqLHbrTT3SEVs
r2x0XyKqByB6bFoNz4cW5t/utz9PLBUuC/Z/Msr05k9zkIRwFiQ84L356qRRZ/xm
LqFgjVYEOCiOyt+/wu+dFdz6HZyZeylElpDMz6Q=
-----END CERTIFICATE-----
