Certificate:
    Data:
        Version: 3 (0x2)
        Serial Number:
            13:c8:d6:fe:d6:e0:4a:c6:ce:47:86:12:64:6e:be:58
    Signature Algorithm: sha256WithRSAEncryption
        Issuer: C=US, ST=California, L=San Francisco, O=Copyleft Certificate Co, OU=My Organizational Unit, CN=ChangeMe/emailAddress=me@example.net
        Validity
            Not Before: Nov 10 17:24:19 2023 GMT
            Not After : Nov  9 17:24:19 2024 GMT
        Subject: C=US, ST=California, L=San Francisco, O=Copyleft Certificate Co, OU=My Organizational Unit, CN=ChangeMe/emailAddress=me@example.net
        Subject Public Key Info:
            Public Key Algorithm: rsaEncryption
                Public-Key: (2048 bit)
                Modulus:
                    00:bf:2c:1e:98:9c:76:e8:19:d7:d0:20:75:d4:ff:
                    1d:e6:c9:e9:97:eb:e1:fb:80:62:cb:76:5f:16:73:
                    27:68:04:14:4d:3a:c7:01:ac:64:aa:5c:f6:30:6b:
                    bc:75:f5:6d:f0:59:37:e9:76:67:a8:5f:d4:5c:e1:
                    e7:33:f0:b3:79:ae:7a:63:8b:64:f1:b0:89:7b:95:
                    87:54:90:83:3e:10:ae:1a:54:a4:a6:3a:36:b9:4e:
                    2c:aa:8f:11:be:1f:33:d1:62:16:0a:1d:03:74:1b:
                    76:64:db:8e:76:ce:55:a0:a1:3e:b2:e5:87:03:3b:
                    4e:96:9a:ea:a7:9b:39:4c:16:6a:58:74:5e:5f:fa:
                    a4:95:d4:a2:2c:03:a8:0b:93:d3:c1:2c:1e:09:b3:
                    3f:48:b7:8c:ca:dd:ff:e7:92:ca:da:44:f7:12:68:
                    80:cf:91:89:82:cc:96:f1:18:9d:be:7e:9d:e0:48:
                    72:dd:16:94:f5:d9:41:18:81:ec:27:7f:bb:9c:35:
                    d5:7b:2b:f7:97:89:a4:7f:80:f9:bd:ff:1a:1f:6e:
                    7b:70:fa:5c:97:0a:73:ea:21:18:32:f5:ad:78:bb:
                    fc:48:58:2c:a8:a3:a5:91:0c:ae:58:7f:5f:6f:d1:
                    6a:68:61:d3:37:0f:18:c4:73:a1:27:69:c4:18:e4:
                    bd:d7
                Exponent: 65537 (0x10001)
        X509v3 extensions:
            X509v3 Basic Constraints: 
                CA:FALSE
            X509v3 Subject Key Identifier: 
                7E:B2:F2:C3:D8:CB:1F:C9:97:95:E0:A9:FE:2A:9D:49:29:F6:73:59
            X509v3 Authority Key Identifier: 
                keyid:D9:D4:8C:20:BC:EB:38:17:D5:4B:52:F8:AA:C5:D2:44:DD:A2:6A:3B
                DirName:/C=US/ST=California/L=San Francisco/O=Copyleft Certificate Co/OU=My Organizational Unit/CN=ChangeMe/emailAddress=me@example.net
                serial:C2:48:34:65:BF:AB:EB:AA

            X509v3 Extended Key Usage: 
                TLS Web Server Authentication
            X509v3 Key Usage: 
                Digital Signature, Key Encipherment
            X509v3 Subject Alternative Name: 
                DNS:ChangeMe
    Signature Algorithm: sha256WithRSAEncryption
         2e:1e:d8:ba:47:8a:58:d2:f9:e0:f4:ee:b0:a3:1e:58:7b:99:
         92:6e:83:98:9d:bf:cc:71:0c:12:02:d0:61:2e:05:99:8d:60:
         55:2a:57:47:75:90:15:c9:7b:90:4b:c4:f1:95:3b:39:46:ea:
         01:56:9a:7f:ef:ff:60:ff:f5:15:b6:3f:03:7f:27:6d:b4:14:
         8f:a9:91:86:d3:a1:d6:33:c2:e5:9f:4a:5b:2c:c8:f7:8b:83:
         e9:76:a3:62:9b:58:0a:55:64:02:65:c4:90:be:5f:ea:69:1b:
         e5:3a:c3:8c:5a:a0:00:46:fa:99:3b:65:32:25:12:e2:ae:75:
         0d:df:d1:2e:ec:b6:44:e6:ae:d3:c9:d4:9d:9a:91:69:7b:12:
         83:ad:f4:db:14:ce:98:cb:86:6f:97:ce:a3:a6:55:21:53:c0:
         ae:ce:ac:cf:cc:3c:6e:08:22:5b:d9:ed:ef:49:43:3e:7a:f1:
         0d:78:f6:c8:89:b9:fc:f4:7b:66:af:85:35:07:23:c6:c9:03:
         42:9c:2e:b3:99:8b:e9:ac:a3:4a:ac:cb:75:36:66:bb:14:d7:
         41:75:25:29:28:24:7f:26:11:43:52:12:4c:7f:40:cf:e8:55:
         5a:c6:70:c0:ed:49:1d:54:02:20:0a:2c:eb:cd:c7:a8:e9:a8:
         9b:fe:90:60
-----BEGIN CERTIFICATE-----
MIIFODCCBCCgAwIBAgIQE8jW/tbgSsbOR4YSZG6+WDANBgkqhkiG9w0BAQsFADCB
rzELMAkGA1UEBhMCVVMxEzARBgNVBAgMCkNhbGlmb3JuaWExFjAUBgNVBAcMDVNh
biBGcmFuY2lzY28xIDAeBgNVBAoMF0NvcHlsZWZ0IENlcnRpZmljYXRlIENvMR8w
HQYDVQQLDBZNeSBPcmdhbml6YXRpb25hbCBVbml0MREwDwYDVQQDDAhDaGFuZ2VN
ZTEdMBsGCSqGSIb3DQEJARYObWVAZXhhbXBsZS5uZXQwHhcNMjMxMTEwMTcyNDE5
WhcNMjQxMTA5MTcyNDE5WjCBrzELMAkGA1UEBhMCVVMxEzARBgNVBAgMCkNhbGlm
b3JuaWExFjAUBgNVBAcMDVNhbiBGcmFuY2lzY28xIDAeBgNVBAoMF0NvcHlsZWZ0
IENlcnRpZmljYXRlIENvMR8wHQYDVQQLDBZNeSBPcmdhbml6YXRpb25hbCBVbml0
MREwDwYDVQQDDAhDaGFuZ2VNZTEdMBsGCSqGSIb3DQEJARYObWVAZXhhbXBsZS5u
ZXQwggEiMA0GCSqGSIb3DQEBAQUAA4IBDwAwggEKAoIBAQC/LB6YnHboGdfQIHXU
/x3myemX6+H7gGLLdl8WcydoBBRNOscBrGSqXPYwa7x19W3wWTfpdmeoX9Rc4ecz
8LN5rnpji2TxsIl7lYdUkIM+EK4aVKSmOja5TiyqjxG+HzPRYhYKHQN0G3Zk2452
zlWgoT6y5YcDO06WmuqnmzlMFmpYdF5f+qSV1KIsA6gLk9PBLB4Jsz9It4zK3f/n
ksraRPcSaIDPkYmCzJbxGJ2+fp3gSHLdFpT12UEYgewnf7ucNdV7K/eXiaR/gPm9
/xofbntw+lyXCnPqIRgy9a14u/xIWCyoo6WRDK5Yf19v0WpoYdM3DxjEc6EnacQY
5L3XAgMBAAGjggFMMIIBSDAJBgNVHRMEAjAAMB0GA1UdDgQWBBR+svLD2MsfyZeV
4Kn+Kp1JKfZzWTCB5AYDVR0jBIHcMIHZgBTZ1IwgvOs4F9VLUviqxdJE3aJqO6GB
taSBsjCBrzELMAkGA1UEBhMCVVMxEzARBgNVBAgMCkNhbGlmb3JuaWExFjAUBgNV
BAcMDVNhbiBGcmFuY2lzY28xIDAeBgNVBAoMF0NvcHlsZWZ0IENlcnRpZmljYXRl
IENvMR8wHQYDVQQLDBZNeSBPcmdhbml6YXRpb25hbCBVbml0MREwDwYDVQQDDAhD
aGFuZ2VNZTEdMBsGCSqGSIb3DQEJARYObWVAZXhhbXBsZS5uZXSCCQDCSDRlv6vr
qjATBgNVHSUEDDAKBggrBgEFBQcDATALBgNVHQ8EBAMCBaAwEwYDVR0RBAwwCoII
Q2hhbmdlTWUwDQYJKoZIhvcNAQELBQADggEBAC4e2LpHiljS+eD07rCjHlh7mZJu
g5idv8xxDBIC0GEuBZmNYFUqV0d1kBXJe5BLxPGVOzlG6gFWmn/v/2D/9RW2PwN/
J220FI+pkYbTodYzwuWfSlssyPeLg+l2o2KbWApVZAJlxJC+X+ppG+U6w4xaoABG
+pk7ZTIlEuKudQ3f0S7stkTmrtPJ1J2akWl7EoOt9NsUzpjLhm+XzqOmVSFTwK7O
rM/MPG4IIlvZ7e9JQz568Q149siJufz0e2avhTUHI8bJA0KcLrOZi+mso0qsy3U2
ZrsU10F1JSkoJH8mEUNSEkx/QM/oVVrGcMDtSR1UAiAKLOvNx6jpqJv+kGA=
-----END CERTIFICATE-----
