Certificate:
    Data:
        Version: 3 (0x2)
        Serial Number:
            c0:7c:3d:cb:d2:81:7d:2b:67:3b:85:74:95:9b:60:9c
    Signature Algorithm: sha256WithRSAEncryption
        Issuer: C=US, ST=California, L=San Francisco, O=Copyleft Certificate Co, OU=My Organizational Unit, CN=ChangeMe/emailAddress=me@example.net
        Validity
            Not Before: Nov 11 10:55:17 2023 GMT
            Not After : Nov 10 10:55:17 2024 GMT
        Subject: C=US, ST=OH, L=Cincinnati, O=University of Cincinnati, OU=Dept. Elec. Comp. Eng. Comp. Sci., CN=client1/emailAddress=franco@gauss.ececs.uc.edu
        Subject Public Key Info:
            Public Key Algorithm: rsaEncryption
                Public-Key: (2048 bit)
                Modulus:
                    00:e0:79:34:85:c7:44:47:a6:f9:66:08:69:4a:9c:
                    16:84:25:44:0b:1e:cb:d4:9c:ae:02:6f:88:22:46:
                    2d:82:df:a3:1c:c4:bb:7e:30:00:2f:fd:9d:dc:09:
                    12:54:16:e7:b0:d6:2f:98:57:2b:f0:df:c1:ff:c2:
                    b4:97:1f:df:d2:0a:88:2e:0d:21:02:3b:de:05:08:
                    21:e0:55:e0:fe:97:86:1a:f5:c6:5f:bb:0f:e5:91:
                    50:59:db:39:b3:db:09:7c:ba:f4:c4:c6:65:6f:90:
                    97:d5:46:e1:a0:fd:a2:b8:81:a6:0d:b7:e5:3a:83:
                    59:9b:5f:3b:4e:6c:26:3e:67:e4:ec:f6:ad:b5:da:
                    3f:dc:2a:83:d8:3e:63:a8:25:cf:a2:36:11:3c:56:
                    c9:72:89:ea:05:2a:14:ef:e2:ca:17:2a:b0:9f:24:
                    65:78:a9:c3:b8:1e:81:16:3b:50:ab:ac:32:84:eb:
                    d4:5f:d6:28:dc:cc:d4:b1:02:f5:1b:29:ea:5d:e3:
                    98:9b:dd:18:0c:9b:e1:99:d5:82:e8:64:c6:5f:84:
                    a7:f4:54:10:28:61:53:ce:17:1c:ff:be:14:f0:f1:
                    98:48:01:c5:ee:94:e2:f6:c4:1f:e3:97:e4:3a:02:
                    22:ec:4e:a9:c8:a8:b6:94:f5:a9:e4:58:4c:6d:3f:
                    ba:1d
                Exponent: 65537 (0x10001)
        X509v3 extensions:
            X509v3 Basic Constraints: 
                CA:FALSE
            X509v3 Subject Key Identifier: 
                D2:35:5D:C3:A2:77:7C:7E:A8:59:A3:5A:16:F8:A7:68:6B:63:F3:34
            X509v3 Authority Key Identifier: 
                keyid:44:01:CC:06:0B:41:75:CB:C8:FB:C9:37:86:2D:9D:D2:D8:79:B6:8B
                DirName:/C=US/ST=California/L=San Francisco/O=Copyleft Certificate Co/OU=My Organizational Unit/CN=ChangeMe/emailAddress=me@example.net
                serial:AF:E8:E0:DD:C5:8B:0E:DD

            X509v3 Extended Key Usage: 
                TLS Web Client Authentication
            X509v3 Key Usage: 
                Digital Signature
    Signature Algorithm: sha256WithRSAEncryption
         1f:cc:17:ba:32:8a:0d:38:df:b1:fb:33:d5:2d:ec:90:f7:52:
         7b:9f:08:c1:1e:75:f1:84:c2:21:cb:04:c4:e9:36:b1:77:54:
         4a:4b:ff:65:e3:ec:f9:fd:7f:35:cd:b9:8b:3b:b4:c1:17:ae:
         39:24:2e:47:9b:6e:6f:8e:91:a4:ed:eb:d2:45:90:ee:3c:36:
         31:b0:83:27:c0:13:39:f4:37:b3:e5:8e:44:83:77:1a:ab:f2:
         21:01:ed:35:0e:b5:47:a9:23:69:76:62:71:b7:a1:de:c0:71:
         e0:ac:3d:06:1f:cf:07:81:c7:c9:f3:85:c2:fb:0b:f4:19:2b:
         aa:3b:7b:03:64:13:f9:56:54:fd:d9:be:16:66:5c:94:cd:f3:
         51:46:b0:3e:99:63:e7:2b:f6:2b:6a:dd:e9:4c:52:1e:ac:e9:
         83:95:02:5a:84:4d:44:fa:24:c6:54:1c:68:ed:3d:2c:10:49:
         7c:62:e5:89:f8:e1:c2:c6:ec:70:e4:c7:66:3e:7f:6f:21:35:
         ca:12:6f:eb:15:64:73:22:62:ad:48:b9:ec:5f:55:c3:df:ea:
         5e:c9:2e:62:d9:e9:70:94:a7:47:1a:7a:9d:33:9b:82:db:25:
         50:22:93:41:3f:75:66:14:e7:fc:0c:50:41:66:71:bb:89:3b:
         6b:0e:86:fb
-----BEGIN CERTIFICATE-----
MIIFLzCCBBegAwIBAgIRAMB8PcvSgX0rZzuFdJWbYJwwDQYJKoZIhvcNAQELBQAw
ga8xCzAJBgNVBAYTAlVTMRMwEQYDVQQIDApDYWxpZm9ybmlhMRYwFAYDVQQHDA1T
YW4gRnJhbmNpc2NvMSAwHgYDVQQKDBdDb3B5bGVmdCBDZXJ0aWZpY2F0ZSBDbzEf
MB0GA1UECwwWTXkgT3JnYW5pemF0aW9uYWwgVW5pdDERMA8GA1UEAwwIQ2hhbmdl
TWUxHTAbBgkqhkiG9w0BCQEWDm1lQGV4YW1wbGUubmV0MB4XDTIzMTExMTEwNTUx
N1oXDTI0MTExMDEwNTUxN1owgboxCzAJBgNVBAYTAlVTMQswCQYDVQQIDAJPSDET
MBEGA1UEBwwKQ2luY2lubmF0aTEhMB8GA1UECgwYVW5pdmVyc2l0eSBvZiBDaW5j
aW5uYXRpMSowKAYDVQQLDCFEZXB0LiBFbGVjLiBDb21wLiBFbmcuIENvbXAuIFNj
aS4xEDAOBgNVBAMMB2NsaWVudDExKDAmBgkqhkiG9w0BCQEWGWZyYW5jb0BnYXVz
cy5lY2Vjcy51Yy5lZHUwggEiMA0GCSqGSIb3DQEBAQUAA4IBDwAwggEKAoIBAQDg
eTSFx0RHpvlmCGlKnBaEJUQLHsvUnK4Cb4giRi2C36McxLt+MAAv/Z3cCRJUFuew
1i+YVyvw38H/wrSXH9/SCoguDSECO94FCCHgVeD+l4Ya9cZfuw/lkVBZ2zmz2wl8
uvTExmVvkJfVRuGg/aK4gaYNt+U6g1mbXztObCY+Z+Ts9q212j/cKoPYPmOoJc+i
NhE8VslyieoFKhTv4soXKrCfJGV4qcO4HoEWO1CrrDKE69Rf1ijczNSxAvUbKepd
45ib3RgMm+GZ1YLoZMZfhKf0VBAoYVPOFxz/vhTw8ZhIAcXulOL2xB/jl+Q6AiLs
TqnIqLaU9ankWExtP7odAgMBAAGjggE3MIIBMzAJBgNVHRMEAjAAMB0GA1UdDgQW
BBTSNV3Dond8fqhZo1oW+Kdoa2PzNDCB5AYDVR0jBIHcMIHZgBREAcwGC0F1y8j7
yTeGLZ3S2Hm2i6GBtaSBsjCBrzELMAkGA1UEBhMCVVMxEzARBgNVBAgMCkNhbGlm
b3JuaWExFjAUBgNVBAcMDVNhbiBGcmFuY2lzY28xIDAeBgNVBAoMF0NvcHlsZWZ0
IENlcnRpZmljYXRlIENvMR8wHQYDVQQLDBZNeSBPcmdhbml6YXRpb25hbCBVbml0
MREwDwYDVQQDDAhDaGFuZ2VNZTEdMBsGCSqGSIb3DQEJARYObWVAZXhhbXBsZS5u
ZXSCCQCv6ODdxYsO3TATBgNVHSUEDDAKBggrBgEFBQcDAjALBgNVHQ8EBAMCB4Aw
DQYJKoZIhvcNAQELBQADggEBAB/MF7oyig0437H7M9Ut7JD3UnufCMEedfGEwiHL
BMTpNrF3VEpL/2Xj7Pn9fzXNuYs7tMEXrjkkLkebbm+OkaTt69JFkO48NjGwgyfA
Ezn0N7PljkSDdxqr8iEB7TUOtUepI2l2YnG3od7AceCsPQYfzweBx8nzhcL7C/QZ
K6o7ewNkE/lWVP3ZvhZmXJTN81FGsD6ZY+cr9itq3elMUh6s6YOVAlqETUT6JMZU
HGjtPSwQSXxi5Yn44cLG7HDkx2Y+f28hNcoSb+sVZHMiYq1IuexfVcPf6l7JLmLZ
6XCUp0caep0zm4LbJVAik0E/dWYU5/wMUEFmcbuJO2sOhvs=
-----END CERTIFICATE-----
