Certificate:
    Data:
        Version: 3 (0x2)
        Serial Number:
            cb:63:9d:8d:ad:d8:ba:d6:7d:b4:52:a7:f3:1a:26:96
    Signature Algorithm: sha256WithRSAEncryption
        Issuer: C=US, ST=California, L=San Francisco, O=Copyleft Certificate Co, OU=My Organizational Unit, CN=ChangeMe/emailAddress=me@example.net
        Validity
            Not Before: Jan 23 18:28:09 2021 GMT
            Not After : Jan 23 18:28:09 2022 GMT
        Subject: C=US, ST=OH, L=Cincinnati, O=University of Cincinnati, OU=Dept. Electrical Eng. and Computer Sci., CN=client37/emailAddress=franco@gauss.ececs.uc.edu
        Subject Public Key Info:
            Public Key Algorithm: rsaEncryption
                Public-Key: (2048 bit)
                Modulus:
                    00:9f:2c:96:d6:55:52:9f:71:fa:0b:b5:4a:5f:91:
                    05:c8:de:56:55:8d:d5:ca:c1:7e:7e:82:89:83:a5:
                    98:ea:d4:be:56:a7:fe:1a:8f:41:a8:6e:66:48:ab:
                    80:75:de:22:6c:35:dc:94:7f:48:8d:62:a6:31:21:
                    74:26:af:b9:6c:42:f3:75:68:6c:cf:f0:f3:53:3f:
                    03:7a:8d:97:67:42:a6:3d:74:2b:8b:b7:83:57:45:
                    96:f4:4c:b6:8b:9a:72:8b:9f:ff:d9:25:f3:6f:72:
                    87:a0:70:55:94:55:d9:28:73:55:a8:e2:ce:3d:2b:
                    2c:9e:71:de:d6:84:ad:05:c9:f2:2b:d0:16:89:e5:
                    5e:17:d0:6d:e0:1c:94:4b:b8:10:72:d6:6e:6f:c9:
                    2a:f8:11:0d:07:42:9d:95:11:f2:6e:3c:4d:66:62:
                    06:33:a6:39:4e:d2:54:11:53:3a:11:fc:7c:86:9a:
                    1b:d0:2e:fd:af:2b:c3:2f:de:2b:1a:19:4a:3a:fd:
                    bd:ea:ee:58:f3:de:f4:79:de:f7:d2:86:45:53:35:
                    2d:6a:e4:32:95:4a:cb:83:56:e2:77:e0:1b:83:fd:
                    61:b1:3a:11:68:37:d7:2c:68:c5:44:60:21:33:2b:
                    e2:71:99:9c:f9:4c:55:4f:c1:7c:6b:a2:27:2f:ab:
                    db:e9
                Exponent: 65537 (0x10001)
        X509v3 extensions:
            X509v3 Basic Constraints: 
                CA:FALSE
            X509v3 Subject Key Identifier: 
                CB:32:04:39:8F:5E:43:BA:B1:1A:C2:69:BA:07:8F:8D:40:39:42:DA
            X509v3 Authority Key Identifier: 
                keyid:EF:DC:B6:3D:4B:FD:A7:87:05:C5:22:3D:8B:DC:BF:99:2A:EE:E4:DB
                DirName:/C=US/ST=California/L=San Francisco/O=Copyleft Certificate Co/OU=My Organizational Unit/CN=ChangeMe/emailAddress=me@example.net
                serial:87:1E:1D:DC:6B:8C:66:88

            X509v3 Extended Key Usage: 
                TLS Web Client Authentication
            X509v3 Key Usage: 
                Digital Signature
    Signature Algorithm: sha256WithRSAEncryption
         19:38:0e:b0:1e:08:ed:e7:15:95:3c:8c:1b:da:5d:18:3d:fa:
         51:6f:96:0e:ed:79:ec:30:c0:f6:a0:48:04:a5:b9:d8:79:b4:
         da:b4:06:3a:4e:d2:63:4c:a3:55:2f:60:5c:db:03:8a:c0:e2:
         ab:e7:03:3c:4e:da:3f:e2:1a:d9:a7:f7:a3:58:84:3a:6f:d7:
         ba:64:c9:97:43:da:cc:bb:2c:3d:6b:38:99:48:45:c8:ae:4b:
         eb:6f:ab:16:8f:19:91:56:b6:3d:3a:3f:46:89:93:32:58:f6:
         f5:70:97:25:23:fb:b8:17:8b:70:46:25:08:0d:5a:9a:89:39:
         79:8f:34:c2:db:8b:d5:70:7f:aa:ab:3b:d2:9e:ab:3f:1b:47:
         ff:83:6f:5f:23:8b:a3:15:d1:84:d8:0a:ea:b7:99:ee:ee:d0:
         1b:25:32:af:2d:78:6b:fc:92:52:7c:a5:c7:03:b4:33:93:46:
         26:d1:47:8f:ec:60:65:2f:25:cb:2e:58:9a:00:86:0a:03:f9:
         70:9d:31:90:59:90:93:af:72:67:e0:d3:67:00:42:21:86:3b:
         c2:a0:34:3a:14:3f:0f:6f:3f:d9:38:4d:08:1a:53:37:e8:60:
         1d:63:79:86:04:cd:d2:10:e9:4a:0e:fe:85:7b:a7:78:f3:a5:
         f2:ee:92:58
-----BEGIN CERTIFICATE-----
MIIFNjCCBB6gAwIBAgIRAMtjnY2t2LrWfbRSp/MaJpYwDQYJKoZIhvcNAQELBQAw
ga8xCzAJBgNVBAYTAlVTMRMwEQYDVQQIDApDYWxpZm9ybmlhMRYwFAYDVQQHDA1T
YW4gRnJhbmNpc2NvMSAwHgYDVQQKDBdDb3B5bGVmdCBDZXJ0aWZpY2F0ZSBDbzEf
MB0GA1UECwwWTXkgT3JnYW5pemF0aW9uYWwgVW5pdDERMA8GA1UEAwwIQ2hhbmdl
TWUxHTAbBgkqhkiG9w0BCQEWDm1lQGV4YW1wbGUubmV0MB4XDTIxMDEyMzE4Mjgw
OVoXDTIyMDEyMzE4MjgwOVowgcExCzAJBgNVBAYTAlVTMQswCQYDVQQIDAJPSDET
MBEGA1UEBwwKQ2luY2lubmF0aTEhMB8GA1UECgwYVW5pdmVyc2l0eSBvZiBDaW5j
aW5uYXRpMTAwLgYDVQQLDCdEZXB0LiBFbGVjdHJpY2FsIEVuZy4gYW5kIENvbXB1
dGVyIFNjaS4xETAPBgNVBAMMCGNsaWVudDM3MSgwJgYJKoZIhvcNAQkBFhlmcmFu
Y29AZ2F1c3MuZWNlY3MudWMuZWR1MIIBIjANBgkqhkiG9w0BAQEFAAOCAQ8AMIIB
CgKCAQEAnyyW1lVSn3H6C7VKX5EFyN5WVY3VysF+foKJg6WY6tS+Vqf+Go9BqG5m
SKuAdd4ibDXclH9IjWKmMSF0Jq+5bELzdWhsz/DzUz8Deo2XZ0KmPXQri7eDV0WW
9Ey2i5pyi5//2SXzb3KHoHBVlFXZKHNVqOLOPSssnnHe1oStBcnyK9AWieVeF9Bt
4ByUS7gQctZub8kq+BENB0KdlRHybjxNZmIGM6Y5TtJUEVM6Efx8hpob0C79ryvD
L94rGhlKOv296u5Y8970ed730oZFUzUtauQylUrLg1bid+Abg/1hsToRaDfXLGjF
RGAhMyvicZmc+UxVT8F8a6InL6vb6QIDAQABo4IBNzCCATMwCQYDVR0TBAIwADAd
BgNVHQ4EFgQUyzIEOY9eQ7qxGsJpugePjUA5QtowgeQGA1UdIwSB3DCB2YAU79y2
PUv9p4cFxSI9i9y/mSru5NuhgbWkgbIwga8xCzAJBgNVBAYTAlVTMRMwEQYDVQQI
DApDYWxpZm9ybmlhMRYwFAYDVQQHDA1TYW4gRnJhbmNpc2NvMSAwHgYDVQQKDBdD
b3B5bGVmdCBDZXJ0aWZpY2F0ZSBDbzEfMB0GA1UECwwWTXkgT3JnYW5pemF0aW9u
YWwgVW5pdDERMA8GA1UEAwwIQ2hhbmdlTWUxHTAbBgkqhkiG9w0BCQEWDm1lQGV4
YW1wbGUubmV0ggkAhx4d3GuMZogwEwYDVR0lBAwwCgYIKwYBBQUHAwIwCwYDVR0P
BAQDAgeAMA0GCSqGSIb3DQEBCwUAA4IBAQAZOA6wHgjt5xWVPIwb2l0YPfpRb5YO
7XnsMMD2oEgEpbnYebTatAY6TtJjTKNVL2Bc2wOKwOKr5wM8Tto/4hrZp/ejWIQ6
b9e6ZMmXQ9rMuyw9aziZSEXIrkvrb6sWjxmRVrY9Oj9GiZMyWPb1cJclI/u4F4tw
RiUIDVqaiTl5jzTC24vVcH+qqzvSnqs/G0f/g29fI4ujFdGE2Arqt5nu7tAbJTKv
LXhr/JJSfKXHA7Qzk0Ym0UeP7GBlLyXLLliaAIYKA/lwnTGQWZCTr3Jn4NNnAEIh
hjvCoDQ6FD8Pbz/ZOE0IGlM36GAdY3mGBM3SEOlKDv6Fe6d486Xy7pJY
-----END CERTIFICATE-----
