Certificate:
    Data:
        Version: 3 (0x2)
        Serial Number:
            76:93:99:cd:c6:ba:fd:2b:68:b0:06:3d:f8:4f:aa:88
    Signature Algorithm: sha256WithRSAEncryption
        Issuer: C=US, ST=California, L=San Francisco, O=Copyleft Certificate Co, OU=My Organizational Unit, CN=ChangeMe/emailAddress=me@example.net
        Validity
            Not Before: Nov 12 11:46:22 2023 GMT
            Not After : Nov 11 11:46:22 2024 GMT
        Subject: C=US, ST=OH, L=Cincinnati, O=University of Cincinnati, OU=Dept. Elec. Comp. Eng. Comp. Sci., CN=client2/emailAddress=franco@gauss.ececs.uc.edu
        Subject Public Key Info:
            Public Key Algorithm: rsaEncryption
                Public-Key: (2048 bit)
                Modulus:
                    00:ec:a1:1f:bb:48:55:56:ad:68:02:46:a3:18:37:
                    d3:af:30:cd:10:73:18:2f:79:a6:d4:4e:63:9b:ee:
                    6a:e3:99:17:54:80:32:30:f7:7f:e5:8c:0f:25:45:
                    26:c4:f9:e0:b2:d5:ec:22:5c:3d:06:dc:ad:a5:31:
                    08:67:6e:8e:ca:96:6a:0f:48:f6:f4:11:94:60:b1:
                    83:91:52:a5:24:41:56:86:f7:e2:bc:2e:24:4e:c5:
                    18:65:ce:19:f9:6b:f0:1e:0e:26:71:2f:fd:da:0a:
                    74:cd:9e:56:4d:a8:24:8f:ba:3e:ac:d3:2c:60:b8:
                    4e:27:be:84:6f:5a:aa:83:2a:cc:cc:a0:19:5a:70:
                    11:39:cc:a2:67:ad:63:77:1f:07:02:8a:70:3e:63:
                    11:a2:44:60:93:47:dd:45:61:32:1d:c8:d5:c5:16:
                    84:fa:80:f2:cf:e9:30:00:8e:bf:72:31:60:0a:c8:
                    15:03:bb:f1:52:8d:ef:eb:34:50:e0:d1:92:a0:a6:
                    54:64:a1:0e:0b:a2:0e:d2:7c:38:97:ee:08:28:ed:
                    61:38:3d:9b:41:85:02:7a:38:a5:53:82:f6:6b:ad:
                    3c:de:5b:93:5a:a6:8f:96:c0:03:9e:9c:6b:9e:a4:
                    91:19:e0:f7:af:a7:f7:a8:94:e1:a7:56:ce:0a:3f:
                    ce:79
                Exponent: 65537 (0x10001)
        X509v3 extensions:
            X509v3 Basic Constraints: 
                CA:FALSE
            X509v3 Subject Key Identifier: 
                2F:1A:61:09:E7:84:E7:36:F4:B7:9A:A6:AD:8B:C6:58:8B:15:C6:08
            X509v3 Authority Key Identifier: 
                keyid:C4:46:F2:96:38:56:02:B8:9D:09:04:52:25:91:35:97:6A:D7:B1:F0
                DirName:/C=US/ST=California/L=San Francisco/O=Copyleft Certificate Co/OU=My Organizational Unit/CN=ChangeMe/emailAddress=me@example.net
                serial:D1:5A:15:1C:F0:20:95:62

            X509v3 Extended Key Usage: 
                TLS Web Client Authentication
            X509v3 Key Usage: 
                Digital Signature
    Signature Algorithm: sha256WithRSAEncryption
         4d:c6:61:65:f6:2d:cd:8c:0a:b4:4a:de:9e:a1:8d:47:d7:71:
         c2:fc:13:ab:9b:2c:5b:8a:b5:64:f3:3f:25:c0:5e:3f:1e:1e:
         33:5d:53:43:4d:44:0a:50:cc:5a:c0:fa:d9:fe:df:a3:8a:06:
         93:e5:73:46:f9:78:80:30:94:2d:e4:6a:ae:54:53:5b:9a:9d:
         4a:c2:9a:4a:19:ee:d3:15:ca:1f:b9:b8:58:8f:78:b8:d3:f4:
         ec:48:36:77:d5:23:7f:d2:be:aa:2c:c9:cf:29:a2:c7:ed:e8:
         09:be:36:12:ce:9b:cb:c9:eb:9f:99:10:61:af:b6:d1:b9:8f:
         18:3b:5a:0c:b9:02:92:3a:1e:2c:de:b5:ad:8d:11:41:f8:8c:
         94:03:f4:22:d9:cc:bf:e3:05:26:78:9c:ce:73:bf:9e:54:3b:
         50:db:02:44:ed:d0:c8:30:0c:41:fc:0b:26:38:d7:10:d0:94:
         be:af:12:5b:7d:7c:86:01:9e:d5:01:83:2d:03:a5:e7:1e:f3:
         17:d1:71:fa:a8:db:cc:ff:82:7d:7b:84:62:10:d0:35:fd:1f:
         4d:46:49:d1:8e:5b:fd:a6:2a:4e:6d:b6:4a:5a:69:72:08:fa:
         c9:03:48:51:50:0b:47:ea:7a:3b:01:2d:be:a1:a5:51:f9:79:
         67:cc:d2:2f
-----BEGIN CERTIFICATE-----
MIIFLjCCBBagAwIBAgIQdpOZzca6/StosAY9+E+qiDANBgkqhkiG9w0BAQsFADCB
rzELMAkGA1UEBhMCVVMxEzARBgNVBAgMCkNhbGlmb3JuaWExFjAUBgNVBAcMDVNh
biBGcmFuY2lzY28xIDAeBgNVBAoMF0NvcHlsZWZ0IENlcnRpZmljYXRlIENvMR8w
HQYDVQQLDBZNeSBPcmdhbml6YXRpb25hbCBVbml0MREwDwYDVQQDDAhDaGFuZ2VN
ZTEdMBsGCSqGSIb3DQEJARYObWVAZXhhbXBsZS5uZXQwHhcNMjMxMTEyMTE0NjIy
WhcNMjQxMTExMTE0NjIyWjCBujELMAkGA1UEBhMCVVMxCzAJBgNVBAgMAk9IMRMw
EQYDVQQHDApDaW5jaW5uYXRpMSEwHwYDVQQKDBhVbml2ZXJzaXR5IG9mIENpbmNp
bm5hdGkxKjAoBgNVBAsMIURlcHQuIEVsZWMuIENvbXAuIEVuZy4gQ29tcC4gU2Np
LjEQMA4GA1UEAwwHY2xpZW50MjEoMCYGCSqGSIb3DQEJARYZZnJhbmNvQGdhdXNz
LmVjZWNzLnVjLmVkdTCCASIwDQYJKoZIhvcNAQEBBQADggEPADCCAQoCggEBAOyh
H7tIVVataAJGoxg3068wzRBzGC95ptROY5vuauOZF1SAMjD3f+WMDyVFJsT54LLV
7CJcPQbcraUxCGdujsqWag9I9vQRlGCxg5FSpSRBVob34rwuJE7FGGXOGflr8B4O
JnEv/doKdM2eVk2oJI+6PqzTLGC4Tie+hG9aqoMqzMygGVpwETnMometY3cfBwKK
cD5jEaJEYJNH3UVhMh3I1cUWhPqA8s/pMACOv3IxYArIFQO78VKN7+s0UODRkqCm
VGShDguiDtJ8OJfuCCjtYTg9m0GFAno4pVOC9mutPN5bk1qmj5bAA56ca56kkRng
96+n96iU4adWzgo/znkCAwEAAaOCATcwggEzMAkGA1UdEwQCMAAwHQYDVR0OBBYE
FC8aYQnnhOc29Leapq2LxliLFcYIMIHkBgNVHSMEgdwwgdmAFMRG8pY4VgK4nQkE
UiWRNZdq17HwoYG1pIGyMIGvMQswCQYDVQQGEwJVUzETMBEGA1UECAwKQ2FsaWZv
cm5pYTEWMBQGA1UEBwwNU2FuIEZyYW5jaXNjbzEgMB4GA1UECgwXQ29weWxlZnQg
Q2VydGlmaWNhdGUgQ28xHzAdBgNVBAsMFk15IE9yZ2FuaXphdGlvbmFsIFVuaXQx
ETAPBgNVBAMMCENoYW5nZU1lMR0wGwYJKoZIhvcNAQkBFg5tZUBleGFtcGxlLm5l
dIIJANFaFRzwIJViMBMGA1UdJQQMMAoGCCsGAQUFBwMCMAsGA1UdDwQEAwIHgDAN
BgkqhkiG9w0BAQsFAAOCAQEATcZhZfYtzYwKtErenqGNR9dxwvwTq5ssW4q1ZPM/
JcBePx4eM11TQ01EClDMWsD62f7fo4oGk+VzRvl4gDCULeRqrlRTW5qdSsKaShnu
0xXKH7m4WI94uNP07Eg2d9Ujf9K+qizJzymix+3oCb42Es6by8nrn5kQYa+20bmP
GDtaDLkCkjoeLN61rY0RQfiMlAP0ItnMv+MFJnicznO/nlQ7UNsCRO3QyDAMQfwL
JjjXENCUvq8SW318hgGe1QGDLQOl5x7zF9Fx+qjbzP+CfXuEYhDQNf0fTUZJ0Y5b
/aYqTm22Slppcgj6yQNIUVALR+p6OwEtvqGlUfl5Z8zSLw==
-----END CERTIFICATE-----
