Certificate:
    Data:
        Version: 3 (0x2)
        Serial Number:
            77:e7:10:ce:98:43:ac:6a:f8:6e:16:ed:29:de:2d:81
    Signature Algorithm: sha256WithRSAEncryption
        Issuer: C=US, ST=California, L=San Francisco, O=Copyleft Certificate Co, OU=My Organizational Unit, CN=ChangeMe/emailAddress=me@example.net
        Validity
            Not Before: Nov 12 11:47:31 2023 GMT
            Not After : Nov 11 11:47:31 2024 GMT
        Subject: C=US, ST=OH, L=Cincinnati, O=University of Cincinnati, OU=Dept. Elec. Comp. Eng. Comp. Sci., CN=client19/emailAddress=franco@gauss.ececs.uc.edu
        Subject Public Key Info:
            Public Key Algorithm: rsaEncryption
                Public-Key: (2048 bit)
                Modulus:
                    00:cc:e1:5d:22:e1:ba:25:5f:74:8b:e3:2b:4a:d7:
                    b9:c8:6e:95:8d:8a:1a:32:10:aa:c4:56:ca:23:1d:
                    cf:cb:a6:df:6e:56:79:fc:bc:c3:f4:f9:0a:55:a2:
                    d9:b0:89:72:bd:e1:f5:49:75:25:1a:41:5b:de:57:
                    43:e7:cf:c8:cc:9c:8b:14:ea:b0:72:ab:e9:9f:a5:
                    3b:2c:33:d9:dd:de:b1:c3:c5:3b:e1:8d:8f:72:02:
                    25:45:84:38:16:5e:f4:6b:fe:8a:8b:c3:77:e2:fd:
                    f2:24:fd:46:6a:f4:5c:fb:be:b2:ee:af:6e:86:a4:
                    ff:00:13:9d:ac:45:60:ac:65:ef:e7:de:11:00:24:
                    b2:50:d7:7e:8d:b0:02:f7:93:4b:4c:a2:56:9e:fa:
                    cf:e9:33:ac:e6:17:9b:d3:b8:fe:b9:8b:f4:2d:18:
                    4a:03:6b:03:ee:fe:4f:d3:7e:af:fd:01:3a:e1:cf:
                    2a:ab:26:12:2f:8f:8e:08:91:fc:23:1e:7b:ef:3a:
                    f7:3a:f9:4d:56:c7:70:04:59:a7:8c:fc:86:b8:8e:
                    db:e9:24:ab:81:1f:bc:5d:60:59:79:5e:85:14:88:
                    a8:8c:bd:82:53:00:bf:e9:54:46:b6:f5:80:55:6c:
                    46:18:ee:e9:95:52:7f:14:c9:31:01:5f:d2:3e:46:
                    e5:29
                Exponent: 65537 (0x10001)
        X509v3 extensions:
            X509v3 Basic Constraints: 
                CA:FALSE
            X509v3 Subject Key Identifier: 
                D0:B8:84:13:6E:A5:87:B5:8F:A7:47:72:65:90:35:39:26:DF:F8:43
            X509v3 Authority Key Identifier: 
                keyid:C4:46:F2:96:38:56:02:B8:9D:09:04:52:25:91:35:97:6A:D7:B1:F0
                DirName:/C=US/ST=California/L=San Francisco/O=Copyleft Certificate Co/OU=My Organizational Unit/CN=ChangeMe/emailAddress=me@example.net
                serial:D1:5A:15:1C:F0:20:95:62

            X509v3 Extended Key Usage: 
                TLS Web Client Authentication
            X509v3 Key Usage: 
                Digital Signature
    Signature Algorithm: sha256WithRSAEncryption
         94:f9:e2:fe:19:62:76:f1:d9:d3:c5:17:4c:eb:e7:b4:0c:a2:
         c2:ec:40:32:ea:99:bb:1f:84:93:d9:3f:11:97:5f:e9:1b:ee:
         66:ee:1d:f0:e2:7c:8d:5f:2e:26:21:5a:93:d6:e8:1b:00:9f:
         17:21:bd:b9:07:fe:c1:ff:df:50:b3:45:bd:32:20:12:e7:92:
         f8:73:99:3b:a2:b6:8c:82:3e:7c:ef:db:dc:80:f9:d6:23:2d:
         9f:ca:8d:57:9c:02:df:23:cf:d7:ad:bf:e2:77:58:6d:d9:7a:
         6e:58:76:3d:97:09:24:24:ad:e9:36:f8:4e:d0:03:4d:93:08:
         58:eb:76:b1:8a:41:25:89:e4:cd:89:a8:13:97:78:71:9d:3b:
         88:ad:d1:4f:7d:41:08:de:0e:39:65:b4:7b:ae:29:83:83:a1:
         59:54:b9:95:fb:e2:72:78:bc:d8:f9:c6:58:a4:20:78:3e:72:
         d3:23:7c:b8:95:d6:32:bf:7f:16:89:12:0a:36:95:4e:35:ee:
         c1:60:01:79:2b:6e:f6:7b:1e:c4:f6:59:18:9c:bc:e2:f9:cc:
         81:eb:da:bd:6a:d1:b0:9c:1c:34:9c:be:40:7b:61:0d:70:f9:
         20:66:cb:39:6b:ac:df:14:93:80:8e:a2:32:fc:3e:05:53:d1:
         75:9b:e0:00
-----BEGIN CERTIFICATE-----
MIIFLzCCBBegAwIBAgIQd+cQzphDrGr4bhbtKd4tgTANBgkqhkiG9w0BAQsFADCB
rzELMAkGA1UEBhMCVVMxEzARBgNVBAgMCkNhbGlmb3JuaWExFjAUBgNVBAcMDVNh
biBGcmFuY2lzY28xIDAeBgNVBAoMF0NvcHlsZWZ0IENlcnRpZmljYXRlIENvMR8w
HQYDVQQLDBZNeSBPcmdhbml6YXRpb25hbCBVbml0MREwDwYDVQQDDAhDaGFuZ2VN
ZTEdMBsGCSqGSIb3DQEJARYObWVAZXhhbXBsZS5uZXQwHhcNMjMxMTEyMTE0NzMx
WhcNMjQxMTExMTE0NzMxWjCBuzELMAkGA1UEBhMCVVMxCzAJBgNVBAgMAk9IMRMw
EQYDVQQHDApDaW5jaW5uYXRpMSEwHwYDVQQKDBhVbml2ZXJzaXR5IG9mIENpbmNp
bm5hdGkxKjAoBgNVBAsMIURlcHQuIEVsZWMuIENvbXAuIEVuZy4gQ29tcC4gU2Np
LjERMA8GA1UEAwwIY2xpZW50MTkxKDAmBgkqhkiG9w0BCQEWGWZyYW5jb0BnYXVz
cy5lY2Vjcy51Yy5lZHUwggEiMA0GCSqGSIb3DQEBAQUAA4IBDwAwggEKAoIBAQDM
4V0i4bolX3SL4ytK17nIbpWNihoyEKrEVsojHc/Lpt9uVnn8vMP0+QpVotmwiXK9
4fVJdSUaQVveV0Pnz8jMnIsU6rByq+mfpTssM9nd3rHDxTvhjY9yAiVFhDgWXvRr
/oqLw3fi/fIk/UZq9Fz7vrLur26GpP8AE52sRWCsZe/n3hEAJLJQ136NsAL3k0tM
olae+s/pM6zmF5vTuP65i/QtGEoDawPu/k/Tfq/9ATrhzyqrJhIvj44IkfwjHnvv
Ovc6+U1Wx3AEWaeM/Ia4jtvpJKuBH7xdYFl5XoUUiKiMvYJTAL/pVEa29YBVbEYY
7umVUn8UyTEBX9I+RuUpAgMBAAGjggE3MIIBMzAJBgNVHRMEAjAAMB0GA1UdDgQW
BBTQuIQTbqWHtY+nR3JlkDU5Jt/4QzCB5AYDVR0jBIHcMIHZgBTERvKWOFYCuJ0J
BFIlkTWXatex8KGBtaSBsjCBrzELMAkGA1UEBhMCVVMxEzARBgNVBAgMCkNhbGlm
b3JuaWExFjAUBgNVBAcMDVNhbiBGcmFuY2lzY28xIDAeBgNVBAoMF0NvcHlsZWZ0
IENlcnRpZmljYXRlIENvMR8wHQYDVQQLDBZNeSBPcmdhbml6YXRpb25hbCBVbml0
MREwDwYDVQQDDAhDaGFuZ2VNZTEdMBsGCSqGSIb3DQEJARYObWVAZXhhbXBsZS5u
ZXSCCQDRWhUc8CCVYjATBgNVHSUEDDAKBggrBgEFBQcDAjALBgNVHQ8EBAMCB4Aw
DQYJKoZIhvcNAQELBQADggEBAJT54v4ZYnbx2dPFF0zr57QMosLsQDLqmbsfhJPZ
PxGXX+kb7mbuHfDifI1fLiYhWpPW6BsAnxchvbkH/sH/31CzRb0yIBLnkvhzmTui
toyCPnzv29yA+dYjLZ/KjVecAt8jz9etv+J3WG3Zem5Ydj2XCSQkrek2+E7QA02T
CFjrdrGKQSWJ5M2JqBOXeHGdO4it0U99QQjeDjlltHuuKYODoVlUuZX74nJ4vNj5
xlikIHg+ctMjfLiV1jK/fxaJEgo2lU417sFgAXkrbvZ7HsT2WRicvOL5zIHr2r1q
0bCcHDScvkB7YQ1w+SBmyzlrrN8Uk4COojL8PgVT0XWb4AA=
-----END CERTIFICATE-----
