Certificate:
    Data:
        Version: 3 (0x2)
        Serial Number:
            9d:5f:25:ef:14:48:03:07:f4:fe:f7:73:dd:9f:2e:59
    Signature Algorithm: sha256WithRSAEncryption
        Issuer: C=US, ST=California, L=San Francisco, O=Copyleft Certificate Co, OU=My Organizational Unit, CN=ChangeMe/emailAddress=me@example.net
        Validity
            Not Before: Jan 23 18:28:02 2021 GMT
            Not After : Jan 23 18:28:02 2022 GMT
        Subject: C=US, ST=OH, L=Cincinnati, O=University of Cincinnati, OU=Dept. Electrical Eng. and Computer Sci., CN=client32/emailAddress=franco@gauss.ececs.uc.edu
        Subject Public Key Info:
            Public Key Algorithm: rsaEncryption
                Public-Key: (2048 bit)
                Modulus:
                    00:c2:33:8d:5d:be:9d:14:7a:2b:e3:54:e2:cd:24:
                    62:dd:d8:e0:16:7f:d1:4a:7d:80:4f:fd:61:b1:91:
                    5d:c7:ff:b5:3a:04:0f:1e:6e:fb:bd:28:26:0f:cd:
                    5f:3e:0a:b8:13:80:c8:80:c1:2f:7b:ec:f7:c4:32:
                    0b:af:2f:af:3e:76:2a:de:eb:0c:3f:9c:c9:d4:77:
                    25:f2:d6:8e:0b:d9:f4:c1:70:3c:84:d4:15:20:33:
                    82:e5:4f:32:72:3f:3c:5e:03:40:38:b8:fe:4e:52:
                    89:94:3c:bf:71:4b:81:9c:b5:6a:59:26:cb:6e:65:
                    1f:68:34:5c:01:34:6d:df:ec:2d:3e:61:6a:05:46:
                    51:e6:4c:f0:17:4f:a3:e6:61:25:96:b1:95:a9:84:
                    d1:a6:7e:71:c4:95:1f:1e:bc:c4:9e:f8:d9:fb:e7:
                    e4:f3:6a:f9:c6:5f:a1:94:99:86:6a:53:25:ab:be:
                    5d:b6:5c:98:82:a3:07:91:c9:51:0a:c6:21:77:14:
                    6e:82:a8:16:4e:94:31:7e:ac:fe:6a:af:8c:68:98:
                    3a:99:a2:21:fd:99:8e:b2:b2:a3:fd:c6:2b:4b:76:
                    99:b0:84:9b:66:9e:bf:e9:6e:67:4c:e8:3f:71:69:
                    69:3c:63:dd:f0:7e:95:9c:0e:79:d6:62:8b:de:63:
                    eb:4d
                Exponent: 65537 (0x10001)
        X509v3 extensions:
            X509v3 Basic Constraints: 
                CA:FALSE
            X509v3 Subject Key Identifier: 
                A5:00:35:86:37:56:40:6C:96:F4:30:D4:4C:2D:85:EA:AE:69:49:91
            X509v3 Authority Key Identifier: 
                keyid:EF:DC:B6:3D:4B:FD:A7:87:05:C5:22:3D:8B:DC:BF:99:2A:EE:E4:DB
                DirName:/C=US/ST=California/L=San Francisco/O=Copyleft Certificate Co/OU=My Organizational Unit/CN=ChangeMe/emailAddress=me@example.net
                serial:87:1E:1D:DC:6B:8C:66:88

            X509v3 Extended Key Usage: 
                TLS Web Client Authentication
            X509v3 Key Usage: 
                Digital Signature
    Signature Algorithm: sha256WithRSAEncryption
         95:20:15:a5:ce:9a:a2:4c:e7:42:cf:35:c0:3f:a2:8f:99:c1:
         ec:83:48:0e:1f:12:18:4c:1c:6c:8b:15:06:f9:8d:c0:03:8a:
         30:54:7e:66:11:68:72:50:a6:1c:09:77:dc:db:9c:3b:2b:e9:
         bf:70:90:ff:30:ac:0b:f1:53:8c:a7:10:4e:be:23:2e:37:91:
         c5:02:df:59:ba:ec:27:ef:28:3b:4e:28:fe:a4:e2:61:91:dc:
         37:ba:7e:a7:f1:cf:c1:bf:3d:5a:2d:ef:c5:f3:5a:2a:ce:2b:
         14:5d:67:7b:ea:38:dc:2d:da:86:0e:23:f7:ec:7a:bf:82:24:
         df:b5:87:7b:91:39:2d:2b:22:a5:b5:bc:e3:da:25:b6:a4:91:
         37:bf:14:c2:93:d8:be:ae:9d:44:47:48:da:d1:9f:d3:e7:14:
         d2:3b:c1:09:67:58:15:92:25:c9:b8:a8:20:30:4d:f3:8c:b6:
         87:8c:e6:cc:37:47:fa:cd:e3:18:df:8d:fe:e9:be:42:e5:a0:
         37:4e:92:ce:73:e4:f2:64:5c:d0:c8:86:05:cb:16:28:85:6c:
         08:77:15:ad:f3:a4:e4:d1:28:9c:3d:d6:ea:d0:e2:82:8c:cc:
         20:e4:fc:47:00:0a:2d:03:c6:f5:a3:9a:4d:9c:f5:cb:26:3b:
         f4:ab:7a:be
-----BEGIN CERTIFICATE-----
MIIFNjCCBB6gAwIBAgIRAJ1fJe8USAMH9P73c92fLlkwDQYJKoZIhvcNAQELBQAw
ga8xCzAJBgNVBAYTAlVTMRMwEQYDVQQIDApDYWxpZm9ybmlhMRYwFAYDVQQHDA1T
YW4gRnJhbmNpc2NvMSAwHgYDVQQKDBdDb3B5bGVmdCBDZXJ0aWZpY2F0ZSBDbzEf
MB0GA1UECwwWTXkgT3JnYW5pemF0aW9uYWwgVW5pdDERMA8GA1UEAwwIQ2hhbmdl
TWUxHTAbBgkqhkiG9w0BCQEWDm1lQGV4YW1wbGUubmV0MB4XDTIxMDEyMzE4Mjgw
MloXDTIyMDEyMzE4MjgwMlowgcExCzAJBgNVBAYTAlVTMQswCQYDVQQIDAJPSDET
MBEGA1UEBwwKQ2luY2lubmF0aTEhMB8GA1UECgwYVW5pdmVyc2l0eSBvZiBDaW5j
aW5uYXRpMTAwLgYDVQQLDCdEZXB0LiBFbGVjdHJpY2FsIEVuZy4gYW5kIENvbXB1
dGVyIFNjaS4xETAPBgNVBAMMCGNsaWVudDMyMSgwJgYJKoZIhvcNAQkBFhlmcmFu
Y29AZ2F1c3MuZWNlY3MudWMuZWR1MIIBIjANBgkqhkiG9w0BAQEFAAOCAQ8AMIIB
CgKCAQEAwjONXb6dFHor41TizSRi3djgFn/RSn2AT/1hsZFdx/+1OgQPHm77vSgm
D81fPgq4E4DIgMEve+z3xDILry+vPnYq3usMP5zJ1Hcl8taOC9n0wXA8hNQVIDOC
5U8ycj88XgNAOLj+TlKJlDy/cUuBnLVqWSbLbmUfaDRcATRt3+wtPmFqBUZR5kzw
F0+j5mEllrGVqYTRpn5xxJUfHrzEnvjZ++fk82r5xl+hlJmGalMlq75dtlyYgqMH
kclRCsYhdxRugqgWTpQxfqz+aq+MaJg6maIh/ZmOsrKj/cYrS3aZsISbZp6/6W5n
TOg/cWlpPGPd8H6VnA551mKL3mPrTQIDAQABo4IBNzCCATMwCQYDVR0TBAIwADAd
BgNVHQ4EFgQUpQA1hjdWQGyW9DDUTC2F6q5pSZEwgeQGA1UdIwSB3DCB2YAU79y2
PUv9p4cFxSI9i9y/mSru5NuhgbWkgbIwga8xCzAJBgNVBAYTAlVTMRMwEQYDVQQI
DApDYWxpZm9ybmlhMRYwFAYDVQQHDA1TYW4gRnJhbmNpc2NvMSAwHgYDVQQKDBdD
b3B5bGVmdCBDZXJ0aWZpY2F0ZSBDbzEfMB0GA1UECwwWTXkgT3JnYW5pemF0aW9u
YWwgVW5pdDERMA8GA1UEAwwIQ2hhbmdlTWUxHTAbBgkqhkiG9w0BCQEWDm1lQGV4
YW1wbGUubmV0ggkAhx4d3GuMZogwEwYDVR0lBAwwCgYIKwYBBQUHAwIwCwYDVR0P
BAQDAgeAMA0GCSqGSIb3DQEBCwUAA4IBAQCVIBWlzpqiTOdCzzXAP6KPmcHsg0gO
HxIYTBxsixUG+Y3AA4owVH5mEWhyUKYcCXfc25w7K+m/cJD/MKwL8VOMpxBOviMu
N5HFAt9Zuuwn7yg7Tij+pOJhkdw3un6n8c/Bvz1aLe/F81oqzisUXWd76jjcLdqG
DiP37Hq/giTftYd7kTktKyKltbzj2iW2pJE3vxTCk9i+rp1ER0ja0Z/T5xTSO8EJ
Z1gVkiXJuKggME3zjLaHjObMN0f6zeMY343+6b5C5aA3TpLOc+TyZFzQyIYFyxYo
hWwIdxWt86Tk0SicPdbq0OKCjMwg5PxHAAotA8b1o5pNnPXLJjv0q3q+
-----END CERTIFICATE-----
