Certificate:
    Data:
        Version: 3 (0x2)
        Serial Number:
            b8:4b:f7:2e:d6:01:5b:8c:ff:dc:59:30:cd:63:40:d8
    Signature Algorithm: sha256WithRSAEncryption
        Issuer: C=US, ST=California, L=San Francisco, O=Copyleft Certificate Co, OU=My Organizational Unit, CN=ChangeMe/emailAddress=me@example.net
        Validity
            Not Before: Nov 12 11:47:43 2023 GMT
            Not After : Nov 11 11:47:43 2024 GMT
        Subject: C=US, ST=OH, L=Cincinnati, O=University of Cincinnati, OU=Dept. Elec. Comp. Eng. Comp. Sci., CN=client22/emailAddress=franco@gauss.ececs.uc.edu
        Subject Public Key Info:
            Public Key Algorithm: rsaEncryption
                Public-Key: (2048 bit)
                Modulus:
                    00:e5:ff:39:2c:f4:7f:72:7a:29:fc:0a:6b:7a:a6:
                    6b:e1:00:ff:32:16:2e:36:0e:65:5e:6f:a3:0a:82:
                    81:ed:88:c6:23:22:f2:f5:32:75:15:a3:ab:f3:2c:
                    36:dd:ed:9b:e0:19:bc:fa:f9:3a:88:2d:0d:3c:76:
                    83:cb:58:9e:b7:d7:dc:a9:b4:00:26:eb:7b:70:7d:
                    66:9d:61:48:8c:db:f9:59:a7:c1:5e:57:50:6d:f1:
                    c2:3d:03:02:24:eb:f2:e9:55:e4:56:6d:72:85:99:
                    04:4c:c4:96:d2:c9:a3:91:16:57:4b:ee:29:6b:21:
                    5d:8f:7e:00:1c:e1:8b:0b:cb:48:eb:f6:d6:f0:f6:
                    d1:db:36:c2:b1:6b:53:27:65:a5:3c:47:cc:71:a8:
                    68:0b:96:90:53:0e:54:a3:fe:2a:b0:f4:73:41:a7:
                    8c:4a:af:3f:d7:bd:00:04:90:80:25:b7:cf:9f:f0:
                    e1:42:d1:31:42:af:eb:3f:57:af:03:d4:77:14:37:
                    8b:6d:76:b2:4e:71:2e:73:4f:7d:da:fe:4a:c1:8a:
                    a4:55:37:7f:d9:35:c3:59:53:81:45:de:09:7d:71:
                    42:12:9c:17:93:48:c5:02:9d:93:62:c6:21:cb:57:
                    08:15:33:bc:33:b4:a9:9f:a8:e2:35:fc:be:be:e9:
                    0b:59
                Exponent: 65537 (0x10001)
        X509v3 extensions:
            X509v3 Basic Constraints: 
                CA:FALSE
            X509v3 Subject Key Identifier: 
                AE:CB:D1:3C:18:FD:93:44:EE:7F:44:07:15:9D:D3:C9:99:BD:28:4C
            X509v3 Authority Key Identifier: 
                keyid:C4:46:F2:96:38:56:02:B8:9D:09:04:52:25:91:35:97:6A:D7:B1:F0
                DirName:/C=US/ST=California/L=San Francisco/O=Copyleft Certificate Co/OU=My Organizational Unit/CN=ChangeMe/emailAddress=me@example.net
                serial:D1:5A:15:1C:F0:20:95:62

            X509v3 Extended Key Usage: 
                TLS Web Client Authentication
            X509v3 Key Usage: 
                Digital Signature
    Signature Algorithm: sha256WithRSAEncryption
         9f:6e:52:5f:01:55:79:ce:0c:40:4b:19:2d:e3:4a:e8:52:43:
         74:9e:48:2c:d1:94:9d:f9:75:16:a0:3e:f3:03:65:67:94:5e:
         67:99:0f:1f:2e:37:b8:ec:b2:f1:51:93:3d:0f:fb:fc:23:d7:
         fb:26:fb:92:0c:41:02:74:2a:3f:63:2b:e8:37:3f:78:7a:80:
         de:46:63:df:a0:c8:a4:31:b0:5b:d8:49:24:21:ca:12:89:a7:
         95:41:a1:fd:e7:e1:2a:21:e9:81:a9:a0:f9:f3:7d:33:63:7e:
         da:5d:de:0b:31:ac:ce:4a:30:4d:f8:8d:5d:e9:2b:05:09:cc:
         41:5c:b5:46:62:37:ca:39:b0:00:2f:0c:82:07:4f:31:79:ba:
         06:86:62:9e:b6:4b:8d:aa:39:d8:79:a2:4d:c4:a8:50:1a:67:
         79:84:44:20:a4:07:17:96:70:70:d1:21:5c:70:b1:63:6b:c8:
         c2:40:6d:e1:6d:97:75:d3:f6:20:9e:c3:7f:39:40:84:d9:de:
         86:89:9e:bf:5f:c6:b6:b7:f6:e8:1f:44:e5:a9:c1:a2:d4:3f:
         9e:fe:2c:1f:d8:47:91:a7:50:45:1c:0e:55:05:3f:c6:ab:06:
         fa:6a:00:8a:d1:cc:37:4f:2e:1b:86:0c:fb:f7:be:e5:59:35:
         72:a1:1e:95
-----BEGIN CERTIFICATE-----
MIIFMDCCBBigAwIBAgIRALhL9y7WAVuM/9xZMM1jQNgwDQYJKoZIhvcNAQELBQAw
ga8xCzAJBgNVBAYTAlVTMRMwEQYDVQQIDApDYWxpZm9ybmlhMRYwFAYDVQQHDA1T
YW4gRnJhbmNpc2NvMSAwHgYDVQQKDBdDb3B5bGVmdCBDZXJ0aWZpY2F0ZSBDbzEf
MB0GA1UECwwWTXkgT3JnYW5pemF0aW9uYWwgVW5pdDERMA8GA1UEAwwIQ2hhbmdl
TWUxHTAbBgkqhkiG9w0BCQEWDm1lQGV4YW1wbGUubmV0MB4XDTIzMTExMjExNDc0
M1oXDTI0MTExMTExNDc0M1owgbsxCzAJBgNVBAYTAlVTMQswCQYDVQQIDAJPSDET
MBEGA1UEBwwKQ2luY2lubmF0aTEhMB8GA1UECgwYVW5pdmVyc2l0eSBvZiBDaW5j
aW5uYXRpMSowKAYDVQQLDCFEZXB0LiBFbGVjLiBDb21wLiBFbmcuIENvbXAuIFNj
aS4xETAPBgNVBAMMCGNsaWVudDIyMSgwJgYJKoZIhvcNAQkBFhlmcmFuY29AZ2F1
c3MuZWNlY3MudWMuZWR1MIIBIjANBgkqhkiG9w0BAQEFAAOCAQ8AMIIBCgKCAQEA
5f85LPR/cnop/ApreqZr4QD/MhYuNg5lXm+jCoKB7YjGIyLy9TJ1FaOr8yw23e2b
4Bm8+vk6iC0NPHaDy1iet9fcqbQAJut7cH1mnWFIjNv5WafBXldQbfHCPQMCJOvy
6VXkVm1yhZkETMSW0smjkRZXS+4payFdj34AHOGLC8tI6/bW8PbR2zbCsWtTJ2Wl
PEfMcahoC5aQUw5Uo/4qsPRzQaeMSq8/170ABJCAJbfPn/DhQtExQq/rP1evA9R3
FDeLbXayTnEuc0992v5KwYqkVTd/2TXDWVOBRd4JfXFCEpwXk0jFAp2TYsYhy1cI
FTO8M7Spn6jiNfy+vukLWQIDAQABo4IBNzCCATMwCQYDVR0TBAIwADAdBgNVHQ4E
FgQUrsvRPBj9k0Tuf0QHFZ3TyZm9KEwwgeQGA1UdIwSB3DCB2YAUxEbyljhWArid
CQRSJZE1l2rXsfChgbWkgbIwga8xCzAJBgNVBAYTAlVTMRMwEQYDVQQIDApDYWxp
Zm9ybmlhMRYwFAYDVQQHDA1TYW4gRnJhbmNpc2NvMSAwHgYDVQQKDBdDb3B5bGVm
dCBDZXJ0aWZpY2F0ZSBDbzEfMB0GA1UECwwWTXkgT3JnYW5pemF0aW9uYWwgVW5p
dDERMA8GA1UEAwwIQ2hhbmdlTWUxHTAbBgkqhkiG9w0BCQEWDm1lQGV4YW1wbGUu
bmV0ggkA0VoVHPAglWIwEwYDVR0lBAwwCgYIKwYBBQUHAwIwCwYDVR0PBAQDAgeA
MA0GCSqGSIb3DQEBCwUAA4IBAQCfblJfAVV5zgxASxkt40roUkN0nkgs0ZSd+XUW
oD7zA2VnlF5nmQ8fLje47LLxUZM9D/v8I9f7JvuSDEECdCo/YyvoNz94eoDeRmPf
oMikMbBb2EkkIcoSiaeVQaH95+EqIemBqaD5830zY37aXd4LMazOSjBN+I1d6SsF
CcxBXLVGYjfKObAALwyCB08xeboGhmKetkuNqjnYeaJNxKhQGmd5hEQgpAcXlnBw
0SFccLFja8jCQG3hbZd10/YgnsN/OUCE2d6GiZ6/X8a2t/boH0TlqcGi1D+e/iwf
2EeRp1BFHA5VBT/Gqwb6agCK0cw3Ty4bhgz7977lWTVyoR6V
-----END CERTIFICATE-----
