Certificate:
    Data:
        Version: 3 (0x2)
        Serial Number:
            a3:6a:09:e6:0c:0f:5b:b8:44:a9:c1:cd:df:c7:8f:80
    Signature Algorithm: sha256WithRSAEncryption
        Issuer: C=US, ST=California, L=San Francisco, O=Copyleft Certificate Co, OU=My Organizational Unit, CN=ChangeMe/emailAddress=me@example.net
        Validity
            Not Before: Jan 23 18:27:31 2021 GMT
            Not After : Jan 23 18:27:31 2022 GMT
        Subject: C=US, ST=OH, L=Cincinnati, O=University of Cincinnati, OU=Dept. Electrical Eng. and Computer Sci., CN=client10/emailAddress=franco@gauss.ececs.uc.edu
        Subject Public Key Info:
            Public Key Algorithm: rsaEncryption
                Public-Key: (2048 bit)
                Modulus:
                    00:de:c7:c7:c5:8a:09:cb:47:d1:4d:73:ac:ca:ea:
                    8b:3e:24:5c:3b:cb:be:2e:1e:50:02:3d:32:84:91:
                    09:08:6b:c5:7e:a7:9d:90:c3:c1:9a:8a:1c:33:8c:
                    0f:c1:d3:f3:46:78:6e:6d:33:dd:4a:73:6f:0f:2b:
                    7e:24:c6:9e:18:21:38:47:92:0c:1c:84:b7:5f:bf:
                    8f:d8:93:b6:d3:49:40:a2:c5:88:9f:4a:56:cf:24:
                    c1:88:0f:00:e0:04:4f:15:ff:e2:08:1d:ba:3c:23:
                    95:dd:f8:f8:50:53:b6:c4:d9:cd:20:1c:b5:95:a9:
                    14:9f:8a:4d:f2:ad:f5:1c:b4:0e:35:df:c7:db:51:
                    0a:68:d6:ae:c2:fc:d9:a0:84:5a:d9:dd:22:9e:90:
                    15:06:b4:9d:ca:89:05:94:23:37:c1:8c:4c:98:60:
                    04:22:1f:32:f7:41:2a:2c:21:f1:48:f1:90:2f:a1:
                    db:ed:59:2d:75:ae:a1:3b:47:43:0c:d8:30:84:db:
                    07:7f:51:4b:00:1b:bd:ce:73:2d:2a:96:75:8d:14:
                    4f:b2:16:50:b6:3c:09:64:32:a2:03:b3:6f:f4:15:
                    47:b8:32:7f:59:32:ce:06:57:1e:e8:07:0b:0d:36:
                    1c:c7:b3:b9:b6:da:f3:a1:e4:d4:04:84:30:bb:6c:
                    c2:77
                Exponent: 65537 (0x10001)
        X509v3 extensions:
            X509v3 Basic Constraints: 
                CA:FALSE
            X509v3 Subject Key Identifier: 
                68:BA:F8:7B:37:42:CD:EF:3C:42:8C:C9:E6:BE:CA:7E:FF:63:09:D2
            X509v3 Authority Key Identifier: 
                keyid:EF:DC:B6:3D:4B:FD:A7:87:05:C5:22:3D:8B:DC:BF:99:2A:EE:E4:DB
                DirName:/C=US/ST=California/L=San Francisco/O=Copyleft Certificate Co/OU=My Organizational Unit/CN=ChangeMe/emailAddress=me@example.net
                serial:87:1E:1D:DC:6B:8C:66:88

            X509v3 Extended Key Usage: 
                TLS Web Client Authentication
            X509v3 Key Usage: 
                Digital Signature
    Signature Algorithm: sha256WithRSAEncryption
         01:b6:99:d9:47:26:9c:fc:83:93:20:2b:3a:72:1f:d8:aa:a4:
         2e:aa:40:37:7f:27:f0:f7:96:cc:df:04:f1:31:67:ea:8a:55:
         4e:40:2c:58:9e:55:9e:eb:17:1f:37:01:23:3f:2c:0e:1b:fc:
         95:07:56:b5:fa:0c:a3:1f:49:22:1e:bc:0b:f2:78:d5:57:4b:
         69:9c:b9:14:5e:bc:86:46:15:f5:10:2a:d1:44:8a:16:40:b4:
         d4:89:48:ae:88:31:1d:b7:e0:9e:94:c7:db:2a:e9:bb:13:d0:
         41:3c:f6:f1:b9:7d:ba:6e:97:94:1e:66:fb:5f:b3:5c:ea:dc:
         c5:aa:d6:ed:ce:1e:b2:6a:29:31:e6:85:cf:3f:3b:d7:6b:28:
         b1:4a:c2:5b:3d:d4:cc:5b:23:12:85:86:36:d0:cc:79:b4:23:
         9d:4a:25:c0:03:6f:8e:00:61:1a:8a:55:6f:79:19:65:8e:e9:
         86:76:f8:11:87:08:fd:67:08:6b:36:da:b5:13:a1:23:f1:5d:
         2b:c7:ea:d2:f6:25:71:6e:c3:ca:ea:ba:5d:9b:cf:fb:7d:0d:
         fb:b4:d6:20:65:06:b8:d2:a6:26:75:ae:2e:f1:b6:0f:76:63:
         2e:05:9b:89:a8:c0:dc:1b:77:dd:d3:29:8e:95:3c:9f:9b:ad:
         20:52:e2:06
-----BEGIN CERTIFICATE-----
MIIFNjCCBB6gAwIBAgIRAKNqCeYMD1u4RKnBzd/Hj4AwDQYJKoZIhvcNAQELBQAw
ga8xCzAJBgNVBAYTAlVTMRMwEQYDVQQIDApDYWxpZm9ybmlhMRYwFAYDVQQHDA1T
YW4gRnJhbmNpc2NvMSAwHgYDVQQKDBdDb3B5bGVmdCBDZXJ0aWZpY2F0ZSBDbzEf
MB0GA1UECwwWTXkgT3JnYW5pemF0aW9uYWwgVW5pdDERMA8GA1UEAwwIQ2hhbmdl
TWUxHTAbBgkqhkiG9w0BCQEWDm1lQGV4YW1wbGUubmV0MB4XDTIxMDEyMzE4Mjcz
MVoXDTIyMDEyMzE4MjczMVowgcExCzAJBgNVBAYTAlVTMQswCQYDVQQIDAJPSDET
MBEGA1UEBwwKQ2luY2lubmF0aTEhMB8GA1UECgwYVW5pdmVyc2l0eSBvZiBDaW5j
aW5uYXRpMTAwLgYDVQQLDCdEZXB0LiBFbGVjdHJpY2FsIEVuZy4gYW5kIENvbXB1
dGVyIFNjaS4xETAPBgNVBAMMCGNsaWVudDEwMSgwJgYJKoZIhvcNAQkBFhlmcmFu
Y29AZ2F1c3MuZWNlY3MudWMuZWR1MIIBIjANBgkqhkiG9w0BAQEFAAOCAQ8AMIIB
CgKCAQEA3sfHxYoJy0fRTXOsyuqLPiRcO8u+Lh5QAj0yhJEJCGvFfqedkMPBmooc
M4wPwdPzRnhubTPdSnNvDyt+JMaeGCE4R5IMHIS3X7+P2JO200lAosWIn0pWzyTB
iA8A4ARPFf/iCB26PCOV3fj4UFO2xNnNIBy1lakUn4pN8q31HLQONd/H21EKaNau
wvzZoIRa2d0inpAVBrSdyokFlCM3wYxMmGAEIh8y90EqLCHxSPGQL6Hb7Vktda6h
O0dDDNgwhNsHf1FLABu9znMtKpZ1jRRPshZQtjwJZDKiA7Nv9BVHuDJ/WTLOBlce
6AcLDTYcx7O5ttrzoeTUBIQwu2zCdwIDAQABo4IBNzCCATMwCQYDVR0TBAIwADAd
BgNVHQ4EFgQUaLr4ezdCze88QozJ5r7Kfv9jCdIwgeQGA1UdIwSB3DCB2YAU79y2
PUv9p4cFxSI9i9y/mSru5NuhgbWkgbIwga8xCzAJBgNVBAYTAlVTMRMwEQYDVQQI
DApDYWxpZm9ybmlhMRYwFAYDVQQHDA1TYW4gRnJhbmNpc2NvMSAwHgYDVQQKDBdD
b3B5bGVmdCBDZXJ0aWZpY2F0ZSBDbzEfMB0GA1UECwwWTXkgT3JnYW5pemF0aW9u
YWwgVW5pdDERMA8GA1UEAwwIQ2hhbmdlTWUxHTAbBgkqhkiG9w0BCQEWDm1lQGV4
YW1wbGUubmV0ggkAhx4d3GuMZogwEwYDVR0lBAwwCgYIKwYBBQUHAwIwCwYDVR0P
BAQDAgeAMA0GCSqGSIb3DQEBCwUAA4IBAQABtpnZRyac/IOTICs6ch/YqqQuqkA3
fyfw95bM3wTxMWfqilVOQCxYnlWe6xcfNwEjPywOG/yVB1a1+gyjH0kiHrwL8njV
V0tpnLkUXryGRhX1ECrRRIoWQLTUiUiuiDEdt+CelMfbKum7E9BBPPbxuX26bpeU
Hmb7X7Nc6tzFqtbtzh6yaikx5oXPPzvXayixSsJbPdTMWyMShYY20Mx5tCOdSiXA
A2+OAGEailVveRlljumGdvgRhwj9ZwhrNtq1E6Ej8V0rx+rS9iVxbsPK6rpdm8/7
fQ37tNYgZQa40qYmda4u8bYPdmMuBZuJqMDcG3fd0ymOlTyfm60gUuIG
-----END CERTIFICATE-----
