Certificate:
    Data:
        Version: 3 (0x2)
        Serial Number:
            37:23:d7:d9:ba:46:02:70:ab:f3:28:49:6b:df:a3:ba
    Signature Algorithm: sha256WithRSAEncryption
        Issuer: C=US, ST=California, L=San Francisco, O=Copyleft Certificate Co, OU=My Organizational Unit, CN=ChangeMe/emailAddress=me@example.net
        Validity
            Not Before: Nov 12 11:47:15 2023 GMT
            Not After : Nov 11 11:47:15 2024 GMT
        Subject: C=US, ST=OH, L=Cincinnati, O=University of Cincinnati, OU=Dept. Elec. Comp. Eng. Comp. Sci., CN=client15/emailAddress=franco@gauss.ececs.uc.edu
        Subject Public Key Info:
            Public Key Algorithm: rsaEncryption
                Public-Key: (2048 bit)
                Modulus:
                    00:a2:9c:b0:df:6e:67:fe:90:61:c6:6e:40:78:d3:
                    04:4d:9d:da:7b:23:9a:c6:8d:bf:7c:d7:bd:5a:56:
                    4b:96:36:c5:44:1e:13:26:28:e1:70:1f:d5:99:80:
                    56:9a:31:fc:9f:52:61:f7:38:c8:60:5b:c6:67:56:
                    88:4c:6b:a7:67:f3:93:54:15:07:96:d6:4a:70:db:
                    8e:50:c6:e5:bc:dd:62:ea:e5:e1:21:01:49:8e:aa:
                    cc:7d:5b:4c:75:0a:a0:0c:7e:30:d2:9c:ef:c3:ec:
                    09:50:6b:71:e9:f9:95:42:c3:02:f3:6a:bf:b1:77:
                    5b:98:83:ba:de:ce:a2:91:a3:c7:de:ca:09:82:04:
                    88:9d:cb:a1:d2:6f:63:2b:01:52:eb:72:c6:a4:6d:
                    9b:fe:b4:03:6c:1c:e3:0f:88:56:8e:46:42:f6:b0:
                    00:79:93:bf:13:d4:79:eb:69:e9:2e:a0:52:b3:02:
                    2e:4c:94:71:ba:77:86:cf:d4:e5:54:1b:e7:b9:3d:
                    27:7a:f1:32:34:75:f0:a9:99:9e:b0:38:64:07:3c:
                    a2:46:5d:98:9d:e8:5d:83:05:ee:04:e7:83:be:d7:
                    88:c5:8d:bb:2c:27:44:67:a8:5b:01:81:15:63:4b:
                    f6:70:2d:15:27:ef:92:47:f3:b0:18:c5:ea:07:e9:
                    54:23
                Exponent: 65537 (0x10001)
        X509v3 extensions:
            X509v3 Basic Constraints: 
                CA:FALSE
            X509v3 Subject Key Identifier: 
                FB:44:67:A5:56:42:40:FD:1E:DD:97:78:DD:56:2C:1E:1C:C1:CB:43
            X509v3 Authority Key Identifier: 
                keyid:C4:46:F2:96:38:56:02:B8:9D:09:04:52:25:91:35:97:6A:D7:B1:F0
                DirName:/C=US/ST=California/L=San Francisco/O=Copyleft Certificate Co/OU=My Organizational Unit/CN=ChangeMe/emailAddress=me@example.net
                serial:D1:5A:15:1C:F0:20:95:62

            X509v3 Extended Key Usage: 
                TLS Web Client Authentication
            X509v3 Key Usage: 
                Digital Signature
    Signature Algorithm: sha256WithRSAEncryption
         1f:0f:54:52:d4:e1:b1:49:20:0c:68:6b:ea:6d:ff:90:e7:56:
         c3:b6:f3:89:40:bc:a9:a2:82:df:11:3e:48:c0:b5:8e:0d:8a:
         57:a9:86:8f:06:8e:23:58:b5:bd:90:68:22:66:74:8b:c7:ac:
         5e:ed:49:24:8b:77:57:26:ed:d0:91:f7:4b:cc:ef:15:c9:c2:
         7d:2f:e0:52:20:9c:05:c6:e0:8b:d7:ef:90:1d:85:c1:24:2d:
         85:b2:00:42:ad:03:73:7e:f1:e5:4f:da:51:d1:cb:1c:62:25:
         0f:49:ac:1d:c8:54:5a:ce:d8:74:99:1c:83:fc:3c:3a:e8:dd:
         4d:7a:1f:02:3c:17:cf:57:e8:8e:fb:87:1e:d5:2d:42:e6:93:
         ee:0f:60:2a:9e:0f:f9:0d:e5:e7:5f:39:85:d4:d7:68:69:32:
         69:c0:2d:72:0d:88:43:d1:e1:2f:1c:ca:ad:be:60:c9:19:4c:
         33:fe:7c:c9:9c:94:50:27:9d:b0:46:c6:03:4a:86:0c:f5:76:
         de:f7:90:9e:d1:05:6f:2e:7e:aa:63:50:1e:fc:15:21:8a:74:
         77:26:8c:14:18:25:93:72:76:4d:15:28:1c:2a:f7:a6:75:45:
         7a:12:4c:dd:b0:c7:eb:7a:22:38:79:1c:67:12:61:1e:02:f3:
         4d:6f:b4:f9
-----BEGIN CERTIFICATE-----
MIIFLzCCBBegAwIBAgIQNyPX2bpGAnCr8yhJa9+jujANBgkqhkiG9w0BAQsFADCB
rzELMAkGA1UEBhMCVVMxEzARBgNVBAgMCkNhbGlmb3JuaWExFjAUBgNVBAcMDVNh
biBGcmFuY2lzY28xIDAeBgNVBAoMF0NvcHlsZWZ0IENlcnRpZmljYXRlIENvMR8w
HQYDVQQLDBZNeSBPcmdhbml6YXRpb25hbCBVbml0MREwDwYDVQQDDAhDaGFuZ2VN
ZTEdMBsGCSqGSIb3DQEJARYObWVAZXhhbXBsZS5uZXQwHhcNMjMxMTEyMTE0NzE1
WhcNMjQxMTExMTE0NzE1WjCBuzELMAkGA1UEBhMCVVMxCzAJBgNVBAgMAk9IMRMw
EQYDVQQHDApDaW5jaW5uYXRpMSEwHwYDVQQKDBhVbml2ZXJzaXR5IG9mIENpbmNp
bm5hdGkxKjAoBgNVBAsMIURlcHQuIEVsZWMuIENvbXAuIEVuZy4gQ29tcC4gU2Np
LjERMA8GA1UEAwwIY2xpZW50MTUxKDAmBgkqhkiG9w0BCQEWGWZyYW5jb0BnYXVz
cy5lY2Vjcy51Yy5lZHUwggEiMA0GCSqGSIb3DQEBAQUAA4IBDwAwggEKAoIBAQCi
nLDfbmf+kGHGbkB40wRNndp7I5rGjb98171aVkuWNsVEHhMmKOFwH9WZgFaaMfyf
UmH3OMhgW8ZnVohMa6dn85NUFQeW1kpw245QxuW83WLq5eEhAUmOqsx9W0x1CqAM
fjDSnO/D7AlQa3Hp+ZVCwwLzar+xd1uYg7rezqKRo8feygmCBIidy6HSb2MrAVLr
csakbZv+tANsHOMPiFaORkL2sAB5k78T1HnraekuoFKzAi5MlHG6d4bP1OVUG+e5
PSd68TI0dfCpmZ6wOGQHPKJGXZid6F2DBe4E54O+14jFjbssJ0RnqFsBgRVjS/Zw
LRUn75JH87AYxeoH6VQjAgMBAAGjggE3MIIBMzAJBgNVHRMEAjAAMB0GA1UdDgQW
BBT7RGelVkJA/R7dl3jdViweHMHLQzCB5AYDVR0jBIHcMIHZgBTERvKWOFYCuJ0J
BFIlkTWXatex8KGBtaSBsjCBrzELMAkGA1UEBhMCVVMxEzARBgNVBAgMCkNhbGlm
b3JuaWExFjAUBgNVBAcMDVNhbiBGcmFuY2lzY28xIDAeBgNVBAoMF0NvcHlsZWZ0
IENlcnRpZmljYXRlIENvMR8wHQYDVQQLDBZNeSBPcmdhbml6YXRpb25hbCBVbml0
MREwDwYDVQQDDAhDaGFuZ2VNZTEdMBsGCSqGSIb3DQEJARYObWVAZXhhbXBsZS5u
ZXSCCQDRWhUc8CCVYjATBgNVHSUEDDAKBggrBgEFBQcDAjALBgNVHQ8EBAMCB4Aw
DQYJKoZIhvcNAQELBQADggEBAB8PVFLU4bFJIAxoa+pt/5DnVsO284lAvKmigt8R
PkjAtY4Nilepho8GjiNYtb2QaCJmdIvHrF7tSSSLd1cm7dCR90vM7xXJwn0v4FIg
nAXG4IvX75AdhcEkLYWyAEKtA3N+8eVP2lHRyxxiJQ9JrB3IVFrO2HSZHIP8PDro
3U16HwI8F89X6I77hx7VLULmk+4PYCqeD/kN5edfOYXU12hpMmnALXINiEPR4S8c
yq2+YMkZTDP+fMmclFAnnbBGxgNKhgz1dt73kJ7RBW8ufqpjUB78FSGKdHcmjBQY
JZNydk0VKBwq96Z1RXoSTN2wx+t6Ijh5HGcSYR4C801vtPk=
-----END CERTIFICATE-----
