Certificate:
    Data:
        Version: 3 (0x2)
        Serial Number:
            2b:f1:56:2e:06:c6:e3:99:4c:18:0f:29:72:c2:b6:11
    Signature Algorithm: sha256WithRSAEncryption
        Issuer: C=US, ST=California, L=San Francisco, O=Copyleft Certificate Co, OU=My Organizational Unit, CN=ChangeMe/emailAddress=me@example.net
        Validity
            Not Before: Nov 12 11:46:59 2023 GMT
            Not After : Nov 11 11:46:59 2024 GMT
        Subject: C=US, ST=OH, L=Cincinnati, O=University of Cincinnati, OU=Dept. Elec. Comp. Eng. Comp. Sci., CN=client11/emailAddress=franco@gauss.ececs.uc.edu
        Subject Public Key Info:
            Public Key Algorithm: rsaEncryption
                Public-Key: (2048 bit)
                Modulus:
                    00:bc:26:96:33:83:73:c3:27:08:cd:ac:19:8d:6c:
                    0d:52:8e:e3:96:97:98:37:27:53:e7:84:d4:55:72:
                    b6:d3:89:ae:8c:da:b0:ec:0d:66:60:b7:78:e8:2a:
                    43:56:e9:ec:ed:ef:be:f0:ca:a4:ed:9e:90:6e:a8:
                    86:c4:f9:21:61:27:66:49:80:83:f2:5e:cc:b5:22:
                    55:a4:7c:00:97:d9:12:06:cf:9f:ac:16:34:90:4b:
                    ca:3c:c7:a4:fe:4c:1c:5b:d3:06:99:be:2b:9e:4b:
                    3d:6f:98:e0:e6:63:ca:67:97:ca:21:26:33:f6:58:
                    43:f0:d2:bc:b5:2e:d6:43:6c:51:ff:cd:51:57:e9:
                    5f:2d:fe:c7:49:17:96:7e:eb:ab:b2:be:73:8b:33:
                    a1:b2:d5:d0:dc:92:b9:30:77:a8:7b:e6:5e:f3:80:
                    f9:26:cc:b7:b6:40:b8:98:d6:72:7e:dc:db:14:3c:
                    40:12:9a:53:a8:e2:da:b7:4e:c5:f8:73:64:8a:47:
                    eb:84:d3:66:e4:ae:89:48:16:37:c6:72:5c:a0:a6:
                    90:09:31:0b:e6:40:0a:33:7f:02:7a:d8:12:f3:4e:
                    03:85:38:29:d4:ff:1a:12:cb:40:5b:8f:bc:96:88:
                    d7:0a:1b:6f:90:74:1c:59:d5:49:be:5e:ef:59:0e:
                    1c:fb
                Exponent: 65537 (0x10001)
        X509v3 extensions:
            X509v3 Basic Constraints: 
                CA:FALSE
            X509v3 Subject Key Identifier: 
                5C:9F:70:7B:70:4B:0B:FA:7A:0A:14:E4:B4:B9:64:30:F4:E7:4F:D7
            X509v3 Authority Key Identifier: 
                keyid:C4:46:F2:96:38:56:02:B8:9D:09:04:52:25:91:35:97:6A:D7:B1:F0
                DirName:/C=US/ST=California/L=San Francisco/O=Copyleft Certificate Co/OU=My Organizational Unit/CN=ChangeMe/emailAddress=me@example.net
                serial:D1:5A:15:1C:F0:20:95:62

            X509v3 Extended Key Usage: 
                TLS Web Client Authentication
            X509v3 Key Usage: 
                Digital Signature
    Signature Algorithm: sha256WithRSAEncryption
         86:1f:9a:fa:66:7e:ce:14:e1:bb:79:e1:45:6f:6d:ee:ed:ec:
         e1:a2:56:56:1c:1e:34:53:7c:e4:50:93:71:2d:07:5e:96:de:
         2f:a9:27:ee:36:c6:d7:63:1e:55:3b:78:e0:e8:a5:bb:f9:41:
         fd:e7:45:12:ee:3e:f5:f6:fd:a0:2f:00:e6:54:0b:3f:ad:57:
         6d:7c:a8:cd:fb:2a:1e:9d:2f:46:44:e9:f0:a4:3a:13:b6:78:
         46:06:5d:d9:b5:e0:a1:f9:76:1e:06:f9:d0:70:10:d1:d1:13:
         51:05:75:c8:65:d0:41:8c:30:29:ab:94:f2:29:89:35:b0:f2:
         87:c9:05:60:c0:26:02:16:2b:b2:8d:b9:5d:bb:37:62:33:aa:
         94:12:e1:43:80:35:57:02:df:43:a9:d4:80:5b:bb:d7:c4:cb:
         3a:44:2d:59:99:a1:9d:39:28:39:3b:e0:d8:70:58:cf:bb:9c:
         f6:f4:d5:12:78:1f:0a:56:ed:83:14:b1:21:18:39:89:96:dc:
         27:85:09:13:d3:63:23:ea:77:ce:b4:ee:e5:40:1d:1e:d0:21:
         59:ee:ed:cc:b4:b9:9d:d9:ac:66:aa:fb:fc:fa:35:af:48:34:
         86:74:05:1c:e8:57:07:37:c1:d2:cb:69:a2:50:a0:3d:f8:48:
         f1:74:95:23
-----BEGIN CERTIFICATE-----
MIIFLzCCBBegAwIBAgIQK/FWLgbG45lMGA8pcsK2ETANBgkqhkiG9w0BAQsFADCB
rzELMAkGA1UEBhMCVVMxEzARBgNVBAgMCkNhbGlmb3JuaWExFjAUBgNVBAcMDVNh
biBGcmFuY2lzY28xIDAeBgNVBAoMF0NvcHlsZWZ0IENlcnRpZmljYXRlIENvMR8w
HQYDVQQLDBZNeSBPcmdhbml6YXRpb25hbCBVbml0MREwDwYDVQQDDAhDaGFuZ2VN
ZTEdMBsGCSqGSIb3DQEJARYObWVAZXhhbXBsZS5uZXQwHhcNMjMxMTEyMTE0NjU5
WhcNMjQxMTExMTE0NjU5WjCBuzELMAkGA1UEBhMCVVMxCzAJBgNVBAgMAk9IMRMw
EQYDVQQHDApDaW5jaW5uYXRpMSEwHwYDVQQKDBhVbml2ZXJzaXR5IG9mIENpbmNp
bm5hdGkxKjAoBgNVBAsMIURlcHQuIEVsZWMuIENvbXAuIEVuZy4gQ29tcC4gU2Np
LjERMA8GA1UEAwwIY2xpZW50MTExKDAmBgkqhkiG9w0BCQEWGWZyYW5jb0BnYXVz
cy5lY2Vjcy51Yy5lZHUwggEiMA0GCSqGSIb3DQEBAQUAA4IBDwAwggEKAoIBAQC8
JpYzg3PDJwjNrBmNbA1SjuOWl5g3J1PnhNRVcrbTia6M2rDsDWZgt3joKkNW6ezt
777wyqTtnpBuqIbE+SFhJ2ZJgIPyXsy1IlWkfACX2RIGz5+sFjSQS8o8x6T+TBxb
0waZviueSz1vmODmY8pnl8ohJjP2WEPw0ry1LtZDbFH/zVFX6V8t/sdJF5Z+66uy
vnOLM6Gy1dDckrkwd6h75l7zgPkmzLe2QLiY1nJ+3NsUPEASmlOo4tq3TsX4c2SK
R+uE02bkrolIFjfGclygppAJMQvmQAozfwJ62BLzTgOFOCnU/xoSy0Bbj7yWiNcK
G2+QdBxZ1Um+Xu9ZDhz7AgMBAAGjggE3MIIBMzAJBgNVHRMEAjAAMB0GA1UdDgQW
BBRcn3B7cEsL+noKFOS0uWQw9OdP1zCB5AYDVR0jBIHcMIHZgBTERvKWOFYCuJ0J
BFIlkTWXatex8KGBtaSBsjCBrzELMAkGA1UEBhMCVVMxEzARBgNVBAgMCkNhbGlm
b3JuaWExFjAUBgNVBAcMDVNhbiBGcmFuY2lzY28xIDAeBgNVBAoMF0NvcHlsZWZ0
IENlcnRpZmljYXRlIENvMR8wHQYDVQQLDBZNeSBPcmdhbml6YXRpb25hbCBVbml0
MREwDwYDVQQDDAhDaGFuZ2VNZTEdMBsGCSqGSIb3DQEJARYObWVAZXhhbXBsZS5u
ZXSCCQDRWhUc8CCVYjATBgNVHSUEDDAKBggrBgEFBQcDAjALBgNVHQ8EBAMCB4Aw
DQYJKoZIhvcNAQELBQADggEBAIYfmvpmfs4U4bt54UVvbe7t7OGiVlYcHjRTfORQ
k3EtB16W3i+pJ+42xtdjHlU7eODopbv5Qf3nRRLuPvX2/aAvAOZUCz+tV218qM37
Kh6dL0ZE6fCkOhO2eEYGXdm14KH5dh4G+dBwENHRE1EFdchl0EGMMCmrlPIpiTWw
8ofJBWDAJgIWK7KNuV27N2IzqpQS4UOANVcC30Op1IBbu9fEyzpELVmZoZ05KDk7
4NhwWM+7nPb01RJ4HwpW7YMUsSEYOYmW3CeFCRPTYyPqd8607uVAHR7QIVnu7cy0
uZ3ZrGaq+/z6Na9INIZ0BRzoVwc3wdLLaaJQoD34SPF0lSM=
-----END CERTIFICATE-----
