Certificate:
    Data:
        Version: 3 (0x2)
        Serial Number:
            a0:11:61:a1:2c:94:71:a5:e7:91:18:b0:c8:09:82:9a
    Signature Algorithm: sha256WithRSAEncryption
        Issuer: C=US, ST=California, L=San Francisco, O=Copyleft Certificate Co, OU=My Organizational Unit, CN=ChangeMe/emailAddress=me@example.net
        Validity
            Not Before: Nov 13 11:49:18 2023 GMT
            Not After : Nov 12 11:49:18 2024 GMT
        Subject: C=US, ST=OH, L=Cincinnati, O=University of Cincinnati, OU=Dept. Elec. Comp. Eng. Comp. Sci., CN=client43/emailAddress=franco@gauss.ececs.uc.edu
        Subject Public Key Info:
            Public Key Algorithm: rsaEncryption
                Public-Key: (2048 bit)
                Modulus:
                    00:c2:40:4f:2c:e5:8f:c3:5a:95:5a:d2:21:3b:d2:
                    7b:2e:04:eb:d5:91:3b:d8:5a:d1:18:85:6a:84:95:
                    93:93:03:dd:1f:26:cd:f7:20:c5:60:33:21:3b:52:
                    f5:af:80:1f:75:4c:f7:b6:c4:87:e2:34:7c:fa:d8:
                    6c:47:a2:97:47:ed:33:ee:3b:a2:86:4b:86:d7:c5:
                    99:4d:30:69:36:ec:fd:9f:64:33:8f:8b:1f:4d:5a:
                    44:a4:64:82:dc:86:2d:e9:04:0d:5e:4c:72:f0:54:
                    8a:f9:83:ae:62:09:53:5e:5b:16:89:59:ee:8f:90:
                    e9:70:f5:e8:de:1f:9e:c6:45:18:0c:09:1f:be:14:
                    3f:eb:4b:27:9b:93:93:17:14:e5:c6:d6:f7:36:27:
                    48:56:a8:a8:b5:42:80:f8:32:70:b1:f1:52:d9:33:
                    e2:2f:a0:81:23:53:88:6c:fc:ff:4a:46:fe:60:34:
                    6b:e0:ef:e1:6e:a8:f0:25:fb:7f:37:7c:64:2f:e1:
                    ab:fa:20:68:a0:36:50:5b:af:22:dc:e9:c8:c2:d0:
                    3c:8f:19:fb:78:99:88:08:07:6a:47:a2:af:d5:5d:
                    80:64:a2:da:f0:70:3f:30:7a:63:d9:47:b9:7e:33:
                    42:f6:e2:d0:cb:b5:ae:3d:57:ae:ee:51:b6:df:de:
                    2f:c3
                Exponent: 65537 (0x10001)
        X509v3 extensions:
            X509v3 Basic Constraints: 
                CA:FALSE
            X509v3 Subject Key Identifier: 
                DC:2E:9A:FA:AE:98:14:5C:34:D5:86:89:63:EB:B9:16:19:61:E5:AC
            X509v3 Authority Key Identifier: 
                keyid:B4:AE:AB:ED:FC:ED:84:AA:AD:77:5D:7C:84:28:1C:CA:CE:AE:2A:44
                DirName:/C=US/ST=California/L=San Francisco/O=Copyleft Certificate Co/OU=My Organizational Unit/CN=ChangeMe/emailAddress=me@example.net
                serial:BD:6C:3B:F4:D3:07:C9:D1

            X509v3 Extended Key Usage: 
                TLS Web Client Authentication
            X509v3 Key Usage: 
                Digital Signature
    Signature Algorithm: sha256WithRSAEncryption
         12:25:f7:2f:22:83:f6:74:52:f5:83:b8:ee:78:59:7d:f0:ae:
         39:a2:a3:80:25:2c:c2:74:47:98:01:f4:b7:8e:cf:5d:d2:46:
         f2:53:78:51:dd:56:20:4b:62:45:51:f7:77:28:4e:24:c8:8a:
         f0:e8:99:e5:82:68:2d:1f:97:a7:11:50:81:dc:77:74:0b:24:
         77:9c:14:e9:df:76:3d:d4:25:af:80:55:e8:7a:59:26:7d:b7:
         58:f6:ff:43:bd:8e:51:d9:2e:2c:02:21:ae:65:04:3d:94:f5:
         b7:8b:a8:f6:74:c7:9c:6a:a9:dc:51:b2:01:76:78:fd:fa:75:
         b7:db:a7:05:91:a5:4c:0c:54:03:d5:0b:10:fe:25:a1:16:77:
         97:80:77:03:f5:bf:a9:bc:34:2a:ac:e4:04:4e:a4:b3:30:a6:
         f5:83:8d:f9:65:6a:5b:4c:d6:a3:52:d9:9f:76:5f:94:d5:eb:
         8b:be:c5:af:20:6c:da:58:61:9c:18:d6:e0:a2:9a:13:0c:b9:
         9f:d5:30:cd:7e:56:23:4d:10:7e:8c:ec:a6:ca:c6:06:b7:a8:
         67:e9:ea:1d:4d:9d:28:57:dd:0b:dc:b1:bb:47:60:98:48:8f:
         7a:e3:84:d4:9b:c5:37:fc:c0:36:0e:ba:57:6b:97:4c:de:95:
         f7:91:37:1d
-----BEGIN CERTIFICATE-----
MIIFMDCCBBigAwIBAgIRAKARYaEslHGl55EYsMgJgpowDQYJKoZIhvcNAQELBQAw
ga8xCzAJBgNVBAYTAlVTMRMwEQYDVQQIDApDYWxpZm9ybmlhMRYwFAYDVQQHDA1T
YW4gRnJhbmNpc2NvMSAwHgYDVQQKDBdDb3B5bGVmdCBDZXJ0aWZpY2F0ZSBDbzEf
MB0GA1UECwwWTXkgT3JnYW5pemF0aW9uYWwgVW5pdDERMA8GA1UEAwwIQ2hhbmdl
TWUxHTAbBgkqhkiG9w0BCQEWDm1lQGV4YW1wbGUubmV0MB4XDTIzMTExMzExNDkx
OFoXDTI0MTExMjExNDkxOFowgbsxCzAJBgNVBAYTAlVTMQswCQYDVQQIDAJPSDET
MBEGA1UEBwwKQ2luY2lubmF0aTEhMB8GA1UECgwYVW5pdmVyc2l0eSBvZiBDaW5j
aW5uYXRpMSowKAYDVQQLDCFEZXB0LiBFbGVjLiBDb21wLiBFbmcuIENvbXAuIFNj
aS4xETAPBgNVBAMMCGNsaWVudDQzMSgwJgYJKoZIhvcNAQkBFhlmcmFuY29AZ2F1
c3MuZWNlY3MudWMuZWR1MIIBIjANBgkqhkiG9w0BAQEFAAOCAQ8AMIIBCgKCAQEA
wkBPLOWPw1qVWtIhO9J7LgTr1ZE72FrRGIVqhJWTkwPdHybN9yDFYDMhO1L1r4Af
dUz3tsSH4jR8+thsR6KXR+0z7juihkuG18WZTTBpNuz9n2Qzj4sfTVpEpGSC3IYt
6QQNXkxy8FSK+YOuYglTXlsWiVnuj5DpcPXo3h+exkUYDAkfvhQ/60snm5OTFxTl
xtb3NidIVqiotUKA+DJwsfFS2TPiL6CBI1OIbPz/Skb+YDRr4O/hbqjwJft/N3xk
L+Gr+iBooDZQW68i3OnIwtA8jxn7eJmICAdqR6Kv1V2AZKLa8HA/MHpj2Ue5fjNC
9uLQy7WuPVeu7lG2394vwwIDAQABo4IBNzCCATMwCQYDVR0TBAIwADAdBgNVHQ4E
FgQU3C6a+q6YFFw01YaJY+u5Fhlh5awwgeQGA1UdIwSB3DCB2YAUtK6r7fzthKqt
d118hCgcys6uKkShgbWkgbIwga8xCzAJBgNVBAYTAlVTMRMwEQYDVQQIDApDYWxp
Zm9ybmlhMRYwFAYDVQQHDA1TYW4gRnJhbmNpc2NvMSAwHgYDVQQKDBdDb3B5bGVm
dCBDZXJ0aWZpY2F0ZSBDbzEfMB0GA1UECwwWTXkgT3JnYW5pemF0aW9uYWwgVW5p
dDERMA8GA1UEAwwIQ2hhbmdlTWUxHTAbBgkqhkiG9w0BCQEWDm1lQGV4YW1wbGUu
bmV0ggkAvWw79NMHydEwEwYDVR0lBAwwCgYIKwYBBQUHAwIwCwYDVR0PBAQDAgeA
MA0GCSqGSIb3DQEBCwUAA4IBAQASJfcvIoP2dFL1g7jueFl98K45oqOAJSzCdEeY
AfS3js9d0kbyU3hR3VYgS2JFUfd3KE4kyIrw6JnlgmgtH5enEVCB3Hd0CyR3nBTp
33Y91CWvgFXoelkmfbdY9v9DvY5R2S4sAiGuZQQ9lPW3i6j2dMecaqncUbIBdnj9
+nW326cFkaVMDFQD1QsQ/iWhFneXgHcD9b+pvDQqrOQETqSzMKb1g435ZWpbTNaj
Utmfdl+U1euLvsWvIGzaWGGcGNbgopoTDLmf1TDNflYjTRB+jOymysYGt6hn6eod
TZ0oV90L3LG7R2CYSI9644TUm8U3/MA2DrpXa5dM3pX3kTcd
-----END CERTIFICATE-----
