Certificate:
    Data:
        Version: 3 (0x2)
        Serial Number:
            23:b1:d5:fd:28:e0:63:7f:95:2f:00:e2:8c:76:18:3e
    Signature Algorithm: sha256WithRSAEncryption
        Issuer: C=US, ST=California, L=San Francisco, O=Copyleft Certificate Co, OU=My Organizational Unit, CN=ChangeMe/emailAddress=me@example.net
        Validity
            Not Before: Jan 23 18:27:25 2021 GMT
            Not After : Jan 23 18:27:25 2022 GMT
        Subject: C=US, ST=OH, L=Cincinnati, O=University of Cincinnati, OU=Dept. Electrical Eng. and Computer Sci., CN=client6/emailAddress=franco@gauss.ececs.uc.edu
        Subject Public Key Info:
            Public Key Algorithm: rsaEncryption
                Public-Key: (2048 bit)
                Modulus:
                    00:a5:4b:10:42:43:bb:0e:b2:b4:77:e8:2b:08:44:
                    77:bd:72:70:6c:ab:cd:3e:df:15:f9:fc:12:ea:d4:
                    ef:3a:24:41:54:05:e0:c8:83:37:cd:d1:85:85:11:
                    4e:9d:7c:e8:a1:56:ef:5c:1b:f3:83:e5:47:54:a7:
                    f6:d9:56:c3:22:75:cf:60:f6:00:3c:77:f5:a7:c6:
                    83:02:7f:1f:e4:46:4b:5d:83:80:6e:65:b3:9b:41:
                    35:f8:05:19:a8:07:b3:82:af:e7:82:f6:f1:c6:7c:
                    3f:51:32:ab:32:fd:4e:9e:53:1c:1c:7e:c3:9f:8c:
                    fe:ef:57:96:8e:67:3f:8b:4c:c7:46:c2:09:24:73:
                    4c:b8:af:4a:ce:e6:aa:49:12:de:11:36:fe:7e:9a:
                    89:53:7b:3f:92:fc:cb:3c:f1:08:93:ea:0a:d4:9c:
                    03:de:7e:93:14:2a:0a:df:82:36:db:dd:07:4a:01:
                    53:52:c9:4d:65:de:73:5d:5a:01:e1:0d:7d:aa:14:
                    6e:c0:d5:61:0d:ac:ba:9e:d5:24:f8:63:0e:e4:a3:
                    1e:ac:60:53:ad:70:94:a6:52:db:c8:90:06:ef:92:
                    d1:65:de:fd:e4:c3:82:99:1e:84:63:96:4e:38:8c:
                    1f:8b:77:8d:3d:3b:eb:5e:a5:88:46:5d:b2:ff:33:
                    92:6d
                Exponent: 65537 (0x10001)
        X509v3 extensions:
            X509v3 Basic Constraints: 
                CA:FALSE
            X509v3 Subject Key Identifier: 
                92:A4:1C:D0:9E:04:1E:75:BF:87:7C:87:8C:37:99:93:AD:56:48:46
            X509v3 Authority Key Identifier: 
                keyid:EF:DC:B6:3D:4B:FD:A7:87:05:C5:22:3D:8B:DC:BF:99:2A:EE:E4:DB
                DirName:/C=US/ST=California/L=San Francisco/O=Copyleft Certificate Co/OU=My Organizational Unit/CN=ChangeMe/emailAddress=me@example.net
                serial:87:1E:1D:DC:6B:8C:66:88

            X509v3 Extended Key Usage: 
                TLS Web Client Authentication
            X509v3 Key Usage: 
                Digital Signature
    Signature Algorithm: sha256WithRSAEncryption
         dd:61:a8:14:fd:bb:8d:b2:6e:e8:91:06:fa:42:8c:5e:28:4f:
         62:16:ac:63:9a:10:a8:ea:5d:41:4e:57:6a:37:b5:58:d8:1c:
         6b:84:ee:dd:99:87:ec:a6:ab:3f:71:f7:91:d5:c7:e6:f1:55:
         f2:bc:b5:ff:03:6e:c8:f3:41:43:f4:fd:e6:a9:86:79:0e:6c:
         1e:14:30:a6:11:2c:46:04:3b:3b:91:9a:e8:26:47:72:81:c2:
         52:e7:ee:1c:f1:0e:3a:32:da:ab:5a:a1:6f:fa:d9:f3:22:10:
         15:f6:a2:e1:21:07:20:d9:bd:64:fb:0d:9b:e3:3b:ce:97:b0:
         ac:d4:8c:51:97:b5:39:24:a9:32:8d:fe:9e:4d:4b:ce:42:14:
         39:63:45:66:c6:94:2a:3b:28:63:0a:83:b0:97:3b:59:bf:d1:
         55:55:8d:d3:c5:d6:89:bd:5f:d0:0f:ef:78:08:64:fd:7d:92:
         25:d3:36:99:00:6e:27:5e:69:85:fd:0f:57:e7:ed:f2:4a:e0:
         0d:d3:b4:1d:0c:47:87:3c:ba:e5:97:e0:6d:a9:05:18:f1:81:
         1a:15:b9:ac:43:fc:64:8d:22:0e:cb:c6:d4:4f:8b:83:8a:de:
         02:55:fe:6c:46:c2:dc:bc:18:2d:b4:86:76:85:c7:1b:c9:a2:
         da:9b:2b:6e
-----BEGIN CERTIFICATE-----
MIIFNDCCBBygAwIBAgIQI7HV/SjgY3+VLwDijHYYPjANBgkqhkiG9w0BAQsFADCB
rzELMAkGA1UEBhMCVVMxEzARBgNVBAgMCkNhbGlmb3JuaWExFjAUBgNVBAcMDVNh
biBGcmFuY2lzY28xIDAeBgNVBAoMF0NvcHlsZWZ0IENlcnRpZmljYXRlIENvMR8w
HQYDVQQLDBZNeSBPcmdhbml6YXRpb25hbCBVbml0MREwDwYDVQQDDAhDaGFuZ2VN
ZTEdMBsGCSqGSIb3DQEJARYObWVAZXhhbXBsZS5uZXQwHhcNMjEwMTIzMTgyNzI1
WhcNMjIwMTIzMTgyNzI1WjCBwDELMAkGA1UEBhMCVVMxCzAJBgNVBAgMAk9IMRMw
EQYDVQQHDApDaW5jaW5uYXRpMSEwHwYDVQQKDBhVbml2ZXJzaXR5IG9mIENpbmNp
bm5hdGkxMDAuBgNVBAsMJ0RlcHQuIEVsZWN0cmljYWwgRW5nLiBhbmQgQ29tcHV0
ZXIgU2NpLjEQMA4GA1UEAwwHY2xpZW50NjEoMCYGCSqGSIb3DQEJARYZZnJhbmNv
QGdhdXNzLmVjZWNzLnVjLmVkdTCCASIwDQYJKoZIhvcNAQEBBQADggEPADCCAQoC
ggEBAKVLEEJDuw6ytHfoKwhEd71ycGyrzT7fFfn8EurU7zokQVQF4MiDN83RhYUR
Tp186KFW71wb84PlR1Sn9tlWwyJ1z2D2ADx39afGgwJ/H+RGS12DgG5ls5tBNfgF
GagHs4Kv54L28cZ8P1EyqzL9Tp5THBx+w5+M/u9Xlo5nP4tMx0bCCSRzTLivSs7m
qkkS3hE2/n6aiVN7P5L8yzzxCJPqCtScA95+kxQqCt+CNtvdB0oBU1LJTWXec11a
AeENfaoUbsDVYQ2sup7VJPhjDuSjHqxgU61wlKZS28iQBu+S0WXe/eTDgpkehGOW
TjiMH4t3jT07616liEZdsv8zkm0CAwEAAaOCATcwggEzMAkGA1UdEwQCMAAwHQYD
VR0OBBYEFJKkHNCeBB51v4d8h4w3mZOtVkhGMIHkBgNVHSMEgdwwgdmAFO/ctj1L
/aeHBcUiPYvcv5kq7uTboYG1pIGyMIGvMQswCQYDVQQGEwJVUzETMBEGA1UECAwK
Q2FsaWZvcm5pYTEWMBQGA1UEBwwNU2FuIEZyYW5jaXNjbzEgMB4GA1UECgwXQ29w
eWxlZnQgQ2VydGlmaWNhdGUgQ28xHzAdBgNVBAsMFk15IE9yZ2FuaXphdGlvbmFs
IFVuaXQxETAPBgNVBAMMCENoYW5nZU1lMR0wGwYJKoZIhvcNAQkBFg5tZUBleGFt
cGxlLm5ldIIJAIceHdxrjGaIMBMGA1UdJQQMMAoGCCsGAQUFBwMCMAsGA1UdDwQE
AwIHgDANBgkqhkiG9w0BAQsFAAOCAQEA3WGoFP27jbJu6JEG+kKMXihPYhasY5oQ
qOpdQU5Xaje1WNgca4Tu3ZmH7KarP3H3kdXH5vFV8ry1/wNuyPNBQ/T95qmGeQ5s
HhQwphEsRgQ7O5Ga6CZHcoHCUufuHPEOOjLaq1qhb/rZ8yIQFfai4SEHINm9ZPsN
m+M7zpewrNSMUZe1OSSpMo3+nk1LzkIUOWNFZsaUKjsoYwqDsJc7Wb/RVVWN08XW
ib1f0A/veAhk/X2SJdM2mQBuJ15phf0PV+ft8krgDdO0HQxHhzy65ZfgbakFGPGB
GhW5rEP8ZI0iDsvG1E+Lg4reAlX+bEbC3LwYLbSGdoXHG8mi2psrbg==
-----END CERTIFICATE-----
