Certificate:
    Data:
        Version: 3 (0x2)
        Serial Number:
            04:8d:45:ce:bf:f4:64:34:a6:91:9e:57:04:9f:cb:09
    Signature Algorithm: sha256WithRSAEncryption
        Issuer: C=US, ST=California, L=San Francisco, O=Copyleft Certificate Co, OU=My Organizational Unit, CN=ChangeMe/emailAddress=me@example.net
        Validity
            Not Before: Jan 23 18:28:30 2021 GMT
            Not After : Jan 23 18:28:30 2022 GMT
        Subject: C=US, ST=OH, L=Cincinnati, O=University of Cincinnati, OU=Dept. Electrical Eng. and Computer Sci., CN=client52/emailAddress=franco@gauss.ececs.uc.edu
        Subject Public Key Info:
            Public Key Algorithm: rsaEncryption
                Public-Key: (2048 bit)
                Modulus:
                    00:a7:6c:ef:98:80:9c:a0:60:a7:68:f3:b0:35:36:
                    c3:1b:1c:0b:85:7d:8f:59:3e:b4:e8:52:21:da:d6:
                    41:7f:c9:33:4b:1d:dd:e7:aa:6e:22:9e:bd:5a:bb:
                    2c:a6:ee:bb:31:19:30:bc:6a:49:6c:3b:5c:6d:60:
                    ae:bc:18:1d:0c:59:a0:e8:69:3a:57:d9:6d:61:84:
                    a3:95:91:c6:5f:fc:98:d3:2b:45:d2:c3:d1:6b:33:
                    4a:15:ab:f6:d2:53:50:69:47:a0:61:e2:99:c6:34:
                    b9:42:4d:57:fe:7c:35:ef:4c:0a:65:f5:ad:ca:06:
                    17:fd:17:50:0e:a9:76:a3:82:34:8a:3f:a7:2a:c5:
                    65:48:c8:54:88:8e:d8:b6:23:b3:b9:0d:1d:38:10:
                    0d:f3:a2:3d:45:91:c7:2f:e4:69:54:ae:a3:a1:42:
                    b6:e9:16:71:77:b8:fb:41:96:77:18:e4:63:4a:65:
                    57:05:a2:a5:ed:34:48:99:5e:50:f1:f6:ca:81:d3:
                    cf:e7:45:ff:a1:51:e2:a1:0c:c1:29:12:a1:f1:56:
                    ab:87:6f:d1:46:5c:0a:88:cd:37:ba:ce:39:d7:ed:
                    eb:9d:b4:6f:99:02:3e:75:1f:ba:39:67:36:0c:5d:
                    42:16:13:c1:0f:ce:0b:59:b9:a5:1d:c7:ed:a3:7d:
                    04:3b
                Exponent: 65537 (0x10001)
        X509v3 extensions:
            X509v3 Basic Constraints: 
                CA:FALSE
            X509v3 Subject Key Identifier: 
                BD:34:C4:30:8A:D6:26:80:5D:67:FB:9D:22:CD:6D:F2:74:24:38:55
            X509v3 Authority Key Identifier: 
                keyid:EF:DC:B6:3D:4B:FD:A7:87:05:C5:22:3D:8B:DC:BF:99:2A:EE:E4:DB
                DirName:/C=US/ST=California/L=San Francisco/O=Copyleft Certificate Co/OU=My Organizational Unit/CN=ChangeMe/emailAddress=me@example.net
                serial:87:1E:1D:DC:6B:8C:66:88

            X509v3 Extended Key Usage: 
                TLS Web Client Authentication
            X509v3 Key Usage: 
                Digital Signature
    Signature Algorithm: sha256WithRSAEncryption
         77:fd:97:24:46:dd:22:0a:22:67:ca:71:42:9f:9a:a9:c4:5c:
         c3:cf:e1:52:8b:57:43:04:51:00:9b:f6:99:9a:62:99:e5:6f:
         55:16:bd:2a:5c:50:38:cd:24:4e:5d:a2:6e:12:05:d9:81:7a:
         bd:45:00:0e:b1:c9:cc:20:7f:c7:99:52:2e:ac:a2:26:05:4a:
         24:32:08:f6:b6:c5:16:18:d5:e4:43:f7:56:8f:34:42:e0:08:
         bd:8b:25:39:22:01:e7:8e:3a:a1:23:8c:2d:41:dd:87:e0:30:
         c0:29:3a:dd:da:81:17:1d:76:bf:2b:17:bf:02:ce:ec:2c:0f:
         10:02:2a:1f:1f:69:0f:f6:a1:c5:1e:3d:b2:fa:24:7a:21:ef:
         e7:51:12:1a:5c:c1:07:dc:4d:1d:f9:63:a3:e6:67:16:05:71:
         81:b4:53:64:52:45:7c:68:47:0a:72:ab:a3:88:63:c1:5f:c8:
         af:45:f0:51:9e:b2:c6:5f:14:87:28:6f:f5:fc:69:5c:40:43:
         d8:b2:5c:7d:03:f9:e1:63:69:eb:50:71:29:ee:4f:af:24:aa:
         ca:89:c6:bf:10:82:42:1e:1c:61:10:2c:dc:80:1f:f8:a7:46:
         e8:00:22:c0:3e:96:86:62:12:f9:b1:6d:95:09:a2:79:50:1a:
         6f:97:29:6f
-----BEGIN CERTIFICATE-----
MIIFNTCCBB2gAwIBAgIQBI1Fzr/0ZDSmkZ5XBJ/LCTANBgkqhkiG9w0BAQsFADCB
rzELMAkGA1UEBhMCVVMxEzARBgNVBAgMCkNhbGlmb3JuaWExFjAUBgNVBAcMDVNh
biBGcmFuY2lzY28xIDAeBgNVBAoMF0NvcHlsZWZ0IENlcnRpZmljYXRlIENvMR8w
HQYDVQQLDBZNeSBPcmdhbml6YXRpb25hbCBVbml0MREwDwYDVQQDDAhDaGFuZ2VN
ZTEdMBsGCSqGSIb3DQEJARYObWVAZXhhbXBsZS5uZXQwHhcNMjEwMTIzMTgyODMw
WhcNMjIwMTIzMTgyODMwWjCBwTELMAkGA1UEBhMCVVMxCzAJBgNVBAgMAk9IMRMw
EQYDVQQHDApDaW5jaW5uYXRpMSEwHwYDVQQKDBhVbml2ZXJzaXR5IG9mIENpbmNp
bm5hdGkxMDAuBgNVBAsMJ0RlcHQuIEVsZWN0cmljYWwgRW5nLiBhbmQgQ29tcHV0
ZXIgU2NpLjERMA8GA1UEAwwIY2xpZW50NTIxKDAmBgkqhkiG9w0BCQEWGWZyYW5j
b0BnYXVzcy5lY2Vjcy51Yy5lZHUwggEiMA0GCSqGSIb3DQEBAQUAA4IBDwAwggEK
AoIBAQCnbO+YgJygYKdo87A1NsMbHAuFfY9ZPrToUiHa1kF/yTNLHd3nqm4inr1a
uyym7rsxGTC8aklsO1xtYK68GB0MWaDoaTpX2W1hhKOVkcZf/JjTK0XSw9FrM0oV
q/bSU1BpR6Bh4pnGNLlCTVf+fDXvTApl9a3KBhf9F1AOqXajgjSKP6cqxWVIyFSI
jti2I7O5DR04EA3zoj1Fkccv5GlUrqOhQrbpFnF3uPtBlncY5GNKZVcFoqXtNEiZ
XlDx9sqB08/nRf+hUeKhDMEpEqHxVquHb9FGXAqIzTe6zjnX7eudtG+ZAj51H7o5
ZzYMXUIWE8EPzgtZuaUdx+2jfQQ7AgMBAAGjggE3MIIBMzAJBgNVHRMEAjAAMB0G
A1UdDgQWBBS9NMQwitYmgF1n+50izW3ydCQ4VTCB5AYDVR0jBIHcMIHZgBTv3LY9
S/2nhwXFIj2L3L+ZKu7k26GBtaSBsjCBrzELMAkGA1UEBhMCVVMxEzARBgNVBAgM
CkNhbGlmb3JuaWExFjAUBgNVBAcMDVNhbiBGcmFuY2lzY28xIDAeBgNVBAoMF0Nv
cHlsZWZ0IENlcnRpZmljYXRlIENvMR8wHQYDVQQLDBZNeSBPcmdhbml6YXRpb25h
bCBVbml0MREwDwYDVQQDDAhDaGFuZ2VNZTEdMBsGCSqGSIb3DQEJARYObWVAZXhh
bXBsZS5uZXSCCQCHHh3ca4xmiDATBgNVHSUEDDAKBggrBgEFBQcDAjALBgNVHQ8E
BAMCB4AwDQYJKoZIhvcNAQELBQADggEBAHf9lyRG3SIKImfKcUKfmqnEXMPP4VKL
V0MEUQCb9pmaYpnlb1UWvSpcUDjNJE5dom4SBdmBer1FAA6xycwgf8eZUi6soiYF
SiQyCPa2xRYY1eRD91aPNELgCL2LJTkiAeeOOqEjjC1B3YfgMMApOt3agRcddr8r
F78CzuwsDxACKh8faQ/2ocUePbL6JHoh7+dREhpcwQfcTR35Y6PmZxYFcYG0U2RS
RXxoRwpyq6OIY8FfyK9F8FGessZfFIcob/X8aVxAQ9iyXH0D+eFjaetQcSnuT68k
qsqJxr8QgkIeHGEQLNyAH/inRugAIsA+loZiEvmxbZUJonlQGm+XKW8=
-----END CERTIFICATE-----
