Certificate:
    Data:
        Version: 3 (0x2)
        Serial Number:
            30:2e:da:eb:c9:a8:5e:e7:98:7d:8a:97:5a:bc:07:86
    Signature Algorithm: sha256WithRSAEncryption
        Issuer: C=US, ST=California, L=San Francisco, O=Copyleft Certificate Co, OU=My Organizational Unit, CN=ChangeMe/emailAddress=me@example.net
        Validity
            Not Before: Jan 23 18:29:37 2021 GMT
            Not After : Jan 23 18:29:37 2022 GMT
        Subject: C=US, ST=OH, L=Cincinnati, O=University of Cincinnati, OU=Dept. Electrical Eng. and Computer Sci., CN=client100/emailAddress=franco@gauss.ececs.uc.edu
        Subject Public Key Info:
            Public Key Algorithm: rsaEncryption
                Public-Key: (2048 bit)
                Modulus:
                    00:c1:c1:30:9b:37:85:ea:a2:72:81:e3:59:59:ad:
                    a8:23:ba:37:dc:84:f9:60:d3:01:7e:ff:cd:f3:6a:
                    ce:b8:19:30:ac:ec:44:32:e4:fc:0e:ca:4c:e3:0e:
                    17:d9:85:bc:d2:ef:04:29:66:12:46:6c:d0:c8:47:
                    ac:53:92:ce:bb:60:93:f7:a1:89:a5:2e:cc:a8:65:
                    c9:a7:fb:89:1d:a0:27:6a:93:04:aa:7f:ed:fe:a1:
                    98:cb:6f:27:17:4d:5c:31:03:53:dd:c1:41:38:7f:
                    bf:b9:fc:2b:55:c8:47:e5:d0:51:34:b8:78:ad:1b:
                    f2:30:c1:87:cc:1c:4f:63:5b:d8:14:62:40:08:2b:
                    79:30:56:1c:0d:1f:7c:ca:e4:9e:0c:a4:3a:4e:f1:
                    86:16:9a:5a:2b:73:5c:92:ae:6e:7e:19:fd:9e:4d:
                    75:f0:73:0c:14:af:ae:f9:da:e7:8d:fd:5b:c3:89:
                    0e:54:6b:ef:76:a7:c7:06:81:cd:ab:54:8b:0b:4d:
                    85:50:db:5c:19:fb:0e:8d:5b:7b:ae:28:43:80:21:
                    56:48:3c:a0:b8:eb:11:bf:a4:1a:65:25:f3:7a:a7:
                    bd:82:40:65:b8:4a:9f:f1:89:02:1c:0e:d7:64:99:
                    6a:3b:8d:62:16:84:d4:ef:fc:51:d6:b3:26:6b:f8:
                    03:af
                Exponent: 65537 (0x10001)
        X509v3 extensions:
            X509v3 Basic Constraints: 
                CA:FALSE
            X509v3 Subject Key Identifier: 
                A2:0D:FD:ED:1E:23:9A:FF:D1:FD:B5:C6:4E:1C:E7:CD:9F:B4:52:29
            X509v3 Authority Key Identifier: 
                keyid:EF:DC:B6:3D:4B:FD:A7:87:05:C5:22:3D:8B:DC:BF:99:2A:EE:E4:DB
                DirName:/C=US/ST=California/L=San Francisco/O=Copyleft Certificate Co/OU=My Organizational Unit/CN=ChangeMe/emailAddress=me@example.net
                serial:87:1E:1D:DC:6B:8C:66:88

            X509v3 Extended Key Usage: 
                TLS Web Client Authentication
            X509v3 Key Usage: 
                Digital Signature
    Signature Algorithm: sha256WithRSAEncryption
         7f:1f:5f:0b:87:d6:de:8d:0c:5e:63:47:a0:8b:2d:b6:2a:85:
         a9:98:11:dc:6a:9b:f0:8c:99:6b:be:fa:b6:32:0e:8c:6d:06:
         34:0f:1d:6d:d8:2d:01:2e:f4:64:8c:d7:27:74:38:f8:59:4e:
         8c:49:c3:73:a5:c0:a6:f1:e5:b4:e1:01:33:95:4a:4c:c0:e0:
         7d:05:79:e7:12:4c:df:8b:94:7f:20:ae:bc:a6:a5:ed:6d:d2:
         1b:2f:6e:04:ad:12:77:ac:61:b3:03:ce:b8:11:3b:3b:66:32:
         2d:c9:51:fc:bc:fd:e0:c2:68:e7:e0:c6:62:53:36:85:29:52:
         66:b2:92:f2:ef:39:3e:69:37:8e:0e:41:d7:87:8d:d6:8c:25:
         7c:8c:1c:4f:a4:70:0e:43:50:af:69:17:1e:0c:9d:3c:58:f9:
         18:46:bc:99:ff:15:8d:19:db:61:75:63:f3:8c:c6:65:7e:f8:
         05:5b:e7:94:24:e8:d4:45:e3:25:f3:7a:06:85:df:0a:f7:44:
         e8:88:13:2d:60:c5:73:53:24:52:e8:61:c8:8f:ae:47:44:c3:
         ed:b0:5d:2d:60:9a:10:38:ed:ca:4d:b6:5a:75:46:3a:fa:3e:
         da:fd:af:d7:5d:3a:e9:51:1f:1e:3b:50:55:95:40:87:90:e5:
         17:99:43:01
-----BEGIN CERTIFICATE-----
MIIFNjCCBB6gAwIBAgIQMC7a68moXueYfYqXWrwHhjANBgkqhkiG9w0BAQsFADCB
rzELMAkGA1UEBhMCVVMxEzARBgNVBAgMCkNhbGlmb3JuaWExFjAUBgNVBAcMDVNh
biBGcmFuY2lzY28xIDAeBgNVBAoMF0NvcHlsZWZ0IENlcnRpZmljYXRlIENvMR8w
HQYDVQQLDBZNeSBPcmdhbml6YXRpb25hbCBVbml0MREwDwYDVQQDDAhDaGFuZ2VN
ZTEdMBsGCSqGSIb3DQEJARYObWVAZXhhbXBsZS5uZXQwHhcNMjEwMTIzMTgyOTM3
WhcNMjIwMTIzMTgyOTM3WjCBwjELMAkGA1UEBhMCVVMxCzAJBgNVBAgMAk9IMRMw
EQYDVQQHDApDaW5jaW5uYXRpMSEwHwYDVQQKDBhVbml2ZXJzaXR5IG9mIENpbmNp
bm5hdGkxMDAuBgNVBAsMJ0RlcHQuIEVsZWN0cmljYWwgRW5nLiBhbmQgQ29tcHV0
ZXIgU2NpLjESMBAGA1UEAwwJY2xpZW50MTAwMSgwJgYJKoZIhvcNAQkBFhlmcmFu
Y29AZ2F1c3MuZWNlY3MudWMuZWR1MIIBIjANBgkqhkiG9w0BAQEFAAOCAQ8AMIIB
CgKCAQEAwcEwmzeF6qJygeNZWa2oI7o33IT5YNMBfv/N82rOuBkwrOxEMuT8DspM
4w4X2YW80u8EKWYSRmzQyEesU5LOu2CT96GJpS7MqGXJp/uJHaAnapMEqn/t/qGY
y28nF01cMQNT3cFBOH+/ufwrVchH5dBRNLh4rRvyMMGHzBxPY1vYFGJACCt5MFYc
DR98yuSeDKQ6TvGGFppaK3Nckq5ufhn9nk118HMMFK+u+drnjf1bw4kOVGvvdqfH
BoHNq1SLC02FUNtcGfsOjVt7rihDgCFWSDyguOsRv6QaZSXzeqe9gkBluEqf8YkC
HA7XZJlqO41iFoTU7/xR1rMma/gDrwIDAQABo4IBNzCCATMwCQYDVR0TBAIwADAd
BgNVHQ4EFgQUog397R4jmv/R/bXGThznzZ+0UikwgeQGA1UdIwSB3DCB2YAU79y2
PUv9p4cFxSI9i9y/mSru5NuhgbWkgbIwga8xCzAJBgNVBAYTAlVTMRMwEQYDVQQI
DApDYWxpZm9ybmlhMRYwFAYDVQQHDA1TYW4gRnJhbmNpc2NvMSAwHgYDVQQKDBdD
b3B5bGVmdCBDZXJ0aWZpY2F0ZSBDbzEfMB0GA1UECwwWTXkgT3JnYW5pemF0aW9u
YWwgVW5pdDERMA8GA1UEAwwIQ2hhbmdlTWUxHTAbBgkqhkiG9w0BCQEWDm1lQGV4
YW1wbGUubmV0ggkAhx4d3GuMZogwEwYDVR0lBAwwCgYIKwYBBQUHAwIwCwYDVR0P
BAQDAgeAMA0GCSqGSIb3DQEBCwUAA4IBAQB/H18Lh9bejQxeY0egiy22KoWpmBHc
apvwjJlrvvq2Mg6MbQY0Dx1t2C0BLvRkjNcndDj4WU6MScNzpcCm8eW04QEzlUpM
wOB9BXnnEkzfi5R/IK68pqXtbdIbL24ErRJ3rGGzA864ETs7ZjItyVH8vP3gwmjn
4MZiUzaFKVJmspLy7zk+aTeODkHXh43WjCV8jBxPpHAOQ1CvaRceDJ08WPkYRryZ
/xWNGdthdWPzjMZlfvgFW+eUJOjUReMl83oGhd8K90ToiBMtYMVzUyRS6GHIj65H
RMPtsF0tYJoQOO3KTbZadUY6+j7a/a/XXTrpUR8eO1BVlUCHkOUXmUMB
-----END CERTIFICATE-----
