Certificate:
    Data:
        Version: 3 (0x2)
        Serial Number:
            f0:75:f3:e3:e4:52:65:79:18:fe:7a:58:8b:dc:af:6c
    Signature Algorithm: sha256WithRSAEncryption
        Issuer: C=US, ST=California, L=San Francisco, O=Copyleft Certificate Co, OU=My Organizational Unit, CN=ChangeMe/emailAddress=me@example.net
        Validity
            Not Before: Nov 11 14:49:58 2023 GMT
            Not After : Nov 10 14:49:58 2024 GMT
        Subject: C=US, ST=OH, L=Cincinnati, O=University of Cincinnati ., OU=Dept. Elec. Comp. . Eng. Comp. Sci., CN=client4/emailAddress=franco@gauss.ececs.uc.edu
        Subject Public Key Info:
            Public Key Algorithm: rsaEncryption
                Public-Key: (2048 bit)
                Modulus:
                    00:c4:b1:e3:5b:0b:99:10:b2:0f:d5:fd:48:0f:8b:
                    e7:f1:96:75:31:9f:ed:0b:78:ae:d2:d5:9d:07:4d:
                    c7:12:ad:4e:cf:ae:a5:a7:5f:e1:ee:17:93:38:a1:
                    db:44:7b:dd:b9:67:de:5a:1b:88:89:8e:88:3a:52:
                    72:62:bb:46:28:b4:e5:eb:db:6f:2d:dc:e3:b4:18:
                    4b:7f:4e:2d:2e:3f:22:50:fc:0a:dc:1b:ac:cc:a9:
                    d5:fd:fd:65:3f:f8:48:5c:65:7e:0f:65:db:1a:00:
                    75:a1:1c:d6:59:db:4e:0f:d7:c1:0c:ea:6a:31:25:
                    e3:4f:aa:ba:78:46:24:a1:9a:f7:3b:34:c1:c0:62:
                    d7:2c:45:4b:e7:72:4e:24:0b:a9:5c:be:0f:2e:4c:
                    19:ae:b5:c0:bd:bb:68:28:d8:04:2d:35:da:6a:d5:
                    2c:f9:52:7b:72:48:44:11:37:fc:22:c8:e0:99:fd:
                    59:15:65:83:f8:25:74:8b:a8:65:09:d2:fb:5b:94:
                    8a:d9:c6:c8:03:0c:32:09:14:4a:bb:79:7d:9a:ad:
                    af:93:12:9f:e7:ac:60:a4:44:52:7b:9a:ea:f6:39:
                    63:de:5c:34:7d:e0:80:43:1e:86:fb:ce:e5:19:45:
                    4a:0b:98:3c:3b:2e:75:0a:a9:62:b6:a1:39:8d:54:
                    12:5b
                Exponent: 65537 (0x10001)
        X509v3 extensions:
            X509v3 Basic Constraints: 
                CA:FALSE
            X509v3 Subject Key Identifier: 
                B0:CC:BA:A3:A9:5B:4F:B0:BE:F0:8C:62:E6:C1:40:41:EE:31:59:B3
            X509v3 Authority Key Identifier: 
                keyid:37:77:FF:9E:80:0A:A0:2D:03:2E:41:2E:A7:9F:2C:08:1D:27:A7:1F
                DirName:/C=US/ST=California/L=San Francisco/O=Copyleft Certificate Co/OU=My Organizational Unit/CN=ChangeMe/emailAddress=me@example.net
                serial:8E:F4:CE:BF:34:CB:64:72

            X509v3 Extended Key Usage: 
                TLS Web Client Authentication
            X509v3 Key Usage: 
                Digital Signature
    Signature Algorithm: sha256WithRSAEncryption
         c8:f2:99:be:4f:7b:5f:f4:d9:14:40:50:fd:cf:e5:3b:7b:69:
         2f:7f:7a:96:ab:f5:27:b6:d9:b7:fe:f2:b7:a9:1a:9f:66:05:
         34:7c:bc:c0:f0:48:41:72:d5:01:9e:81:e3:f7:42:7f:35:c9:
         74:99:df:2b:96:1b:2e:19:82:35:4c:8b:8b:55:4a:d5:31:92:
         e6:e6:83:e5:64:23:a9:da:1d:eb:5b:fa:76:74:74:b1:6c:b8:
         b0:e5:cd:3a:41:65:66:01:fa:c1:7c:76:ba:56:b5:28:d7:55:
         69:cb:ed:5f:d3:56:72:02:1a:6b:71:07:c5:6a:78:08:e9:3b:
         93:dd:b0:54:b1:4b:c2:4f:a1:c2:cb:1a:dd:c1:28:40:b8:16:
         f2:3e:1c:69:55:0c:39:9f:03:e9:3a:3b:85:75:71:0d:9b:65:
         6b:d2:f0:e9:6e:c2:a7:cb:4d:2f:a7:73:6e:15:80:2c:ec:a6:
         a0:f5:68:89:d1:a8:33:64:18:45:61:72:22:1a:e9:65:fe:21:
         8d:31:c8:76:b2:4a:c6:ed:0a:3a:a2:4f:a4:06:b9:13:41:5e:
         b6:56:ec:b8:61:72:13:c3:66:bf:e4:51:dc:7e:fa:e6:c4:e5:
         01:6e:54:6f:3d:d6:23:83:ec:54:8a:83:44:e5:d8:68:1d:5f:
         cc:15:20:5c
-----BEGIN CERTIFICATE-----
MIIFMzCCBBugAwIBAgIRAPB18+PkUmV5GP56WIvcr2wwDQYJKoZIhvcNAQELBQAw
ga8xCzAJBgNVBAYTAlVTMRMwEQYDVQQIDApDYWxpZm9ybmlhMRYwFAYDVQQHDA1T
YW4gRnJhbmNpc2NvMSAwHgYDVQQKDBdDb3B5bGVmdCBDZXJ0aWZpY2F0ZSBDbzEf
MB0GA1UECwwWTXkgT3JnYW5pemF0aW9uYWwgVW5pdDERMA8GA1UEAwwIQ2hhbmdl
TWUxHTAbBgkqhkiG9w0BCQEWDm1lQGV4YW1wbGUubmV0MB4XDTIzMTExMTE0NDk1
OFoXDTI0MTExMDE0NDk1OFowgb4xCzAJBgNVBAYTAlVTMQswCQYDVQQIDAJPSDET
MBEGA1UEBwwKQ2luY2lubmF0aTEjMCEGA1UECgwaVW5pdmVyc2l0eSBvZiBDaW5j
aW5uYXRpIC4xLDAqBgNVBAsMI0RlcHQuIEVsZWMuIENvbXAuIC4gRW5nLiBDb21w
LiBTY2kuMRAwDgYDVQQDDAdjbGllbnQ0MSgwJgYJKoZIhvcNAQkBFhlmcmFuY29A
Z2F1c3MuZWNlY3MudWMuZWR1MIIBIjANBgkqhkiG9w0BAQEFAAOCAQ8AMIIBCgKC
AQEAxLHjWwuZELIP1f1ID4vn8ZZ1MZ/tC3iu0tWdB03HEq1Oz66lp1/h7heTOKHb
RHvduWfeWhuIiY6IOlJyYrtGKLTl69tvLdzjtBhLf04tLj8iUPwK3BuszKnV/f1l
P/hIXGV+D2XbGgB1oRzWWdtOD9fBDOpqMSXjT6q6eEYkoZr3OzTBwGLXLEVL53JO
JAupXL4PLkwZrrXAvbtoKNgELTXaatUs+VJ7ckhEETf8Isjgmf1ZFWWD+CV0i6hl
CdL7W5SK2cbIAwwyCRRKu3l9mq2vkxKf56xgpERSe5rq9jlj3lw0feCAQx6G+87l
GUVKC5g8Oy51CqlitqE5jVQSWwIDAQABo4IBNzCCATMwCQYDVR0TBAIwADAdBgNV
HQ4EFgQUsMy6o6lbT7C+8Ixi5sFAQe4xWbMwgeQGA1UdIwSB3DCB2YAUN3f/noAK
oC0DLkEup58sCB0npx+hgbWkgbIwga8xCzAJBgNVBAYTAlVTMRMwEQYDVQQIDApD
YWxpZm9ybmlhMRYwFAYDVQQHDA1TYW4gRnJhbmNpc2NvMSAwHgYDVQQKDBdDb3B5
bGVmdCBDZXJ0aWZpY2F0ZSBDbzEfMB0GA1UECwwWTXkgT3JnYW5pemF0aW9uYWwg
VW5pdDERMA8GA1UEAwwIQ2hhbmdlTWUxHTAbBgkqhkiG9w0BCQEWDm1lQGV4YW1w
bGUubmV0ggkAjvTOvzTLZHIwEwYDVR0lBAwwCgYIKwYBBQUHAwIwCwYDVR0PBAQD
AgeAMA0GCSqGSIb3DQEBCwUAA4IBAQDI8pm+T3tf9NkUQFD9z+U7e2kvf3qWq/Un
ttm3/vK3qRqfZgU0fLzA8EhBctUBnoHj90J/Ncl0md8rlhsuGYI1TIuLVUrVMZLm
5oPlZCOp2h3rW/p2dHSxbLiw5c06QWVmAfrBfHa6VrUo11Vpy+1f01ZyAhprcQfF
angI6TuT3bBUsUvCT6HCyxrdwShAuBbyPhxpVQw5nwPpOjuFdXENm2Vr0vDpbsKn
y00vp3NuFYAs7Kag9WiJ0agzZBhFYXIiGull/iGNMch2skrG7Qo6ok+kBrkTQV62
Vuy4YXITw2a/5FHcfvrmxOUBblRvPdYjg+xUioNE5dhoHV/MFSBc
-----END CERTIFICATE-----
