Certificate:
    Data:
        Version: 3 (0x2)
        Serial Number:
            9f:5d:3e:80:8a:58:50:15:2e:24:34:84:a6:b2:36:c3
    Signature Algorithm: sha256WithRSAEncryption
        Issuer: C=US, ST=California, L=San Francisco, O=Copyleft Certificate Co, OU=My Organizational Unit, CN=ChangeMe/emailAddress=me@example.net
        Validity
            Not Before: Jan 23 18:27:51 2021 GMT
            Not After : Jan 23 18:27:51 2022 GMT
        Subject: C=US, ST=OH, L=Cincinnati, O=University of Cincinnati, OU=Dept. Electrical Eng. and Computer Sci., CN=client24/emailAddress=franco@gauss.ececs.uc.edu
        Subject Public Key Info:
            Public Key Algorithm: rsaEncryption
                Public-Key: (2048 bit)
                Modulus:
                    00:b4:38:ba:9d:d4:76:bc:85:13:cb:bb:ed:6d:50:
                    ae:4d:bd:92:e7:c4:60:f5:87:5e:09:54:2b:9e:06:
                    5b:37:00:25:d9:27:81:76:82:25:a8:7d:bc:5c:68:
                    7f:c0:a6:db:c4:34:f5:60:14:9a:b5:f3:20:09:8f:
                    e0:0b:88:15:25:b3:57:c4:f2:cd:bc:99:eb:67:3d:
                    e9:7a:0c:72:d6:cd:3f:55:73:97:e2:16:ca:e8:cb:
                    4d:29:20:b8:aa:39:55:f2:c1:b5:18:15:d1:b0:78:
                    53:43:46:13:93:86:fa:10:9b:16:2f:96:38:4f:fc:
                    67:31:89:29:3b:ef:89:c3:20:33:58:6b:19:35:3d:
                    d3:97:5e:d2:5a:1e:a6:bd:01:88:cf:79:2d:95:61:
                    8d:2d:4e:e0:cf:86:3c:35:40:0b:88:ad:45:c9:bb:
                    58:4b:92:d2:a9:d0:a2:13:08:e5:03:12:cc:1e:3c:
                    1a:4c:47:d9:86:b9:10:2c:cf:5f:17:7a:79:48:7b:
                    14:12:15:bc:26:55:dc:e9:05:5a:cf:6a:4f:20:dc:
                    f6:95:3d:9b:f7:81:fc:07:93:c8:bf:73:17:8b:ef:
                    fc:79:5e:01:76:d1:05:59:c7:c3:5f:5f:09:13:16:
                    f8:2e:44:74:4b:37:c7:03:12:43:86:27:5c:f7:c5:
                    38:a7
                Exponent: 65537 (0x10001)
        X509v3 extensions:
            X509v3 Basic Constraints: 
                CA:FALSE
            X509v3 Subject Key Identifier: 
                85:B2:42:28:FB:E2:65:A2:04:7F:FD:63:D9:6A:9C:D1:B7:2F:ED:9A
            X509v3 Authority Key Identifier: 
                keyid:EF:DC:B6:3D:4B:FD:A7:87:05:C5:22:3D:8B:DC:BF:99:2A:EE:E4:DB
                DirName:/C=US/ST=California/L=San Francisco/O=Copyleft Certificate Co/OU=My Organizational Unit/CN=ChangeMe/emailAddress=me@example.net
                serial:87:1E:1D:DC:6B:8C:66:88

            X509v3 Extended Key Usage: 
                TLS Web Client Authentication
            X509v3 Key Usage: 
                Digital Signature
    Signature Algorithm: sha256WithRSAEncryption
         20:fe:dc:cd:6b:81:a6:9f:53:66:37:19:8c:97:4f:ac:51:75:
         17:1c:e9:e7:b4:44:54:c3:89:53:1b:ba:6f:b3:e3:86:35:df:
         f5:96:06:e0:4b:d2:e2:b0:db:93:78:60:1f:60:6b:9c:00:f0:
         2c:73:66:55:1b:fd:1b:df:39:46:73:38:09:4a:c2:67:6a:1b:
         54:90:43:7e:10:61:f1:f2:a9:e4:b0:e5:bc:85:11:fd:af:60:
         30:3e:1b:85:5b:9e:df:9a:96:7f:cd:72:56:76:51:99:59:97:
         0c:bc:2e:f9:01:b6:8e:b0:59:67:68:98:4f:71:66:1b:19:52:
         b0:d5:e6:77:a2:a1:b5:0e:2f:c7:8f:39:a3:ed:d4:52:a9:7a:
         f4:dc:13:2d:b3:52:d7:26:2d:22:ad:a6:f4:4e:49:e5:f7:3b:
         58:96:4d:13:71:5e:a0:6c:35:57:b0:e2:33:c4:f1:b7:28:6f:
         e8:16:60:fc:0b:93:be:d8:3c:39:15:7f:f1:19:6f:4b:f1:b0:
         e7:33:3f:e3:ff:01:12:7a:f1:59:c8:1e:b7:e6:32:fe:5b:6c:
         1a:29:41:bd:20:06:ad:45:19:5c:fe:8d:db:d2:76:01:9b:dd:
         16:17:85:13:ff:d0:f5:7b:36:65:20:00:0f:ec:35:32:ca:e4:
         27:37:27:07
-----BEGIN CERTIFICATE-----
MIIFNjCCBB6gAwIBAgIRAJ9dPoCKWFAVLiQ0hKayNsMwDQYJKoZIhvcNAQELBQAw
ga8xCzAJBgNVBAYTAlVTMRMwEQYDVQQIDApDYWxpZm9ybmlhMRYwFAYDVQQHDA1T
YW4gRnJhbmNpc2NvMSAwHgYDVQQKDBdDb3B5bGVmdCBDZXJ0aWZpY2F0ZSBDbzEf
MB0GA1UECwwWTXkgT3JnYW5pemF0aW9uYWwgVW5pdDERMA8GA1UEAwwIQ2hhbmdl
TWUxHTAbBgkqhkiG9w0BCQEWDm1lQGV4YW1wbGUubmV0MB4XDTIxMDEyMzE4Mjc1
MVoXDTIyMDEyMzE4Mjc1MVowgcExCzAJBgNVBAYTAlVTMQswCQYDVQQIDAJPSDET
MBEGA1UEBwwKQ2luY2lubmF0aTEhMB8GA1UECgwYVW5pdmVyc2l0eSBvZiBDaW5j
aW5uYXRpMTAwLgYDVQQLDCdEZXB0LiBFbGVjdHJpY2FsIEVuZy4gYW5kIENvbXB1
dGVyIFNjaS4xETAPBgNVBAMMCGNsaWVudDI0MSgwJgYJKoZIhvcNAQkBFhlmcmFu
Y29AZ2F1c3MuZWNlY3MudWMuZWR1MIIBIjANBgkqhkiG9w0BAQEFAAOCAQ8AMIIB
CgKCAQEAtDi6ndR2vIUTy7vtbVCuTb2S58Rg9YdeCVQrngZbNwAl2SeBdoIlqH28
XGh/wKbbxDT1YBSatfMgCY/gC4gVJbNXxPLNvJnrZz3pegxy1s0/VXOX4hbK6MtN
KSC4qjlV8sG1GBXRsHhTQ0YTk4b6EJsWL5Y4T/xnMYkpO++JwyAzWGsZNT3Tl17S
Wh6mvQGIz3ktlWGNLU7gz4Y8NUALiK1FybtYS5LSqdCiEwjlAxLMHjwaTEfZhrkQ
LM9fF3p5SHsUEhW8JlXc6QVaz2pPINz2lT2b94H8B5PIv3MXi+/8eV4BdtEFWcfD
X18JExb4LkR0SzfHAxJDhidc98U4pwIDAQABo4IBNzCCATMwCQYDVR0TBAIwADAd
BgNVHQ4EFgQUhbJCKPviZaIEf/1j2Wqc0bcv7ZowgeQGA1UdIwSB3DCB2YAU79y2
PUv9p4cFxSI9i9y/mSru5NuhgbWkgbIwga8xCzAJBgNVBAYTAlVTMRMwEQYDVQQI
DApDYWxpZm9ybmlhMRYwFAYDVQQHDA1TYW4gRnJhbmNpc2NvMSAwHgYDVQQKDBdD
b3B5bGVmdCBDZXJ0aWZpY2F0ZSBDbzEfMB0GA1UECwwWTXkgT3JnYW5pemF0aW9u
YWwgVW5pdDERMA8GA1UEAwwIQ2hhbmdlTWUxHTAbBgkqhkiG9w0BCQEWDm1lQGV4
YW1wbGUubmV0ggkAhx4d3GuMZogwEwYDVR0lBAwwCgYIKwYBBQUHAwIwCwYDVR0P
BAQDAgeAMA0GCSqGSIb3DQEBCwUAA4IBAQAg/tzNa4Gmn1NmNxmMl0+sUXUXHOnn
tERUw4lTG7pvs+OGNd/1lgbgS9LisNuTeGAfYGucAPAsc2ZVG/0b3zlGczgJSsJn
ahtUkEN+EGHx8qnksOW8hRH9r2AwPhuFW57fmpZ/zXJWdlGZWZcMvC75AbaOsFln
aJhPcWYbGVKw1eZ3oqG1Di/Hjzmj7dRSqXr03BMts1LXJi0irab0Tknl9ztYlk0T
cV6gbDVXsOIzxPG3KG/oFmD8C5O+2Dw5FX/xGW9L8bDnMz/j/wESevFZyB635jL+
W2waKUG9IAatRRlc/o3b0nYBm90WF4UT/9D1ezZlIAAP7DUyyuQnNycH
-----END CERTIFICATE-----
