Certificate:
    Data:
        Version: 3 (0x2)
        Serial Number:
            1a:c5:01:d6:5d:1c:cc:02:65:87:a5:29:9c:8d:56:50
    Signature Algorithm: sha256WithRSAEncryption
        Issuer: C=US, ST=California, L=San Francisco, O=Copyleft Certificate Co, OU=My Organizational Unit, CN=ChangeMe/emailAddress=me@example.net
        Validity
            Not Before: Nov 12 11:48:15 2023 GMT
            Not After : Nov 11 11:48:15 2024 GMT
        Subject: C=US, ST=OH, L=Cincinnati, O=University of Cincinnati, OU=Dept. Elec. Comp. Eng. Comp. Sci., CN=client30/emailAddress=franco@gauss.ececs.uc.edu
        Subject Public Key Info:
            Public Key Algorithm: rsaEncryption
                Public-Key: (2048 bit)
                Modulus:
                    00:f4:6f:92:8b:3d:d4:2c:e8:e2:72:59:5e:5b:ff:
                    40:9e:f1:a0:d6:6c:ba:e7:3a:8f:a9:7c:97:29:68:
                    bb:92:29:84:93:34:64:e2:b0:8a:12:ae:60:ef:27:
                    f3:af:c3:6d:1c:fe:92:71:8e:56:6f:8f:22:a0:d3:
                    e0:d7:01:f9:59:d3:bc:6d:81:35:cf:99:d5:42:0e:
                    e3:7c:03:d2:a5:f7:eb:95:70:23:69:48:f9:81:7e:
                    bc:0b:61:b3:9a:61:9a:32:1d:b3:fa:3a:e2:49:d4:
                    1d:7d:09:e9:94:a6:0f:46:26:62:d9:4b:10:40:c5:
                    fc:ba:d3:7e:aa:9f:f7:b7:8a:6c:f1:bb:b6:17:eb:
                    8f:3e:b7:46:c8:6a:31:44:d3:ff:7e:14:fb:26:20:
                    c9:f1:91:ab:01:77:76:ce:02:ae:08:6d:c0:eb:e2:
                    df:d0:d8:7c:10:ce:0d:1b:0b:89:9e:89:ad:ef:96:
                    a7:29:66:07:31:2c:49:8f:11:41:ca:88:71:f4:a6:
                    8f:2b:75:03:62:51:37:c5:f2:78:20:55:1e:57:d8:
                    d9:9a:a3:0e:a8:e9:81:f5:75:3c:25:5d:b2:bc:86:
                    29:59:4b:6c:96:e4:f0:94:76:60:bd:e0:e0:de:dd:
                    b8:6b:8b:e4:be:a3:5f:a3:43:17:ee:bd:82:cf:1f:
                    40:af
                Exponent: 65537 (0x10001)
        X509v3 extensions:
            X509v3 Basic Constraints: 
                CA:FALSE
            X509v3 Subject Key Identifier: 
                9F:37:45:BC:27:9D:80:0F:2A:D5:E3:56:19:3F:07:35:FD:37:49:21
            X509v3 Authority Key Identifier: 
                keyid:C4:46:F2:96:38:56:02:B8:9D:09:04:52:25:91:35:97:6A:D7:B1:F0
                DirName:/C=US/ST=California/L=San Francisco/O=Copyleft Certificate Co/OU=My Organizational Unit/CN=ChangeMe/emailAddress=me@example.net
                serial:D1:5A:15:1C:F0:20:95:62

            X509v3 Extended Key Usage: 
                TLS Web Client Authentication
            X509v3 Key Usage: 
                Digital Signature
    Signature Algorithm: sha256WithRSAEncryption
         8c:88:93:b3:9f:25:ce:17:c4:ff:b3:52:d5:9c:7f:91:fc:79:
         fa:d2:f8:7b:83:39:e1:5b:8c:2b:6e:44:43:da:a8:c6:6e:9f:
         fd:f2:c6:9b:c5:15:25:eb:f5:db:e8:26:ed:84:66:91:8e:68:
         58:e3:d6:97:8d:44:ed:26:63:67:95:37:64:f1:1c:54:9b:9f:
         40:8c:d7:d7:c7:1e:fa:d7:54:5c:c1:d0:e4:35:92:cf:79:aa:
         d8:e0:81:9c:e5:54:e0:59:06:fa:bf:0f:57:f8:89:f4:33:4b:
         b0:64:5a:f5:c6:5f:10:61:2a:3e:8c:c1:50:f5:80:0e:b8:53:
         3b:b0:b2:3c:04:87:7b:5d:be:80:35:24:db:09:cf:56:c8:88:
         02:d8:46:de:2a:0e:0f:19:aa:ca:02:4d:3e:d4:53:6e:f8:7a:
         d9:e3:59:1d:65:55:1b:28:e1:f8:5a:d1:c0:b4:af:46:a4:75:
         d7:bf:e2:af:67:d6:12:33:2a:91:8e:6a:31:16:95:c3:79:22:
         65:22:26:18:74:27:50:0b:d2:77:f7:7d:95:e7:74:36:37:0e:
         aa:1e:cd:c0:3d:10:8a:67:ef:0c:bc:c6:30:00:cc:91:09:ae:
         6d:0d:18:ad:5c:70:80:10:49:cd:a1:88:a4:8d:ac:9a:a6:30:
         e3:99:0d:18
-----BEGIN CERTIFICATE-----
MIIFLzCCBBegAwIBAgIQGsUB1l0czAJlh6UpnI1WUDANBgkqhkiG9w0BAQsFADCB
rzELMAkGA1UEBhMCVVMxEzARBgNVBAgMCkNhbGlmb3JuaWExFjAUBgNVBAcMDVNh
biBGcmFuY2lzY28xIDAeBgNVBAoMF0NvcHlsZWZ0IENlcnRpZmljYXRlIENvMR8w
HQYDVQQLDBZNeSBPcmdhbml6YXRpb25hbCBVbml0MREwDwYDVQQDDAhDaGFuZ2VN
ZTEdMBsGCSqGSIb3DQEJARYObWVAZXhhbXBsZS5uZXQwHhcNMjMxMTEyMTE0ODE1
WhcNMjQxMTExMTE0ODE1WjCBuzELMAkGA1UEBhMCVVMxCzAJBgNVBAgMAk9IMRMw
EQYDVQQHDApDaW5jaW5uYXRpMSEwHwYDVQQKDBhVbml2ZXJzaXR5IG9mIENpbmNp
bm5hdGkxKjAoBgNVBAsMIURlcHQuIEVsZWMuIENvbXAuIEVuZy4gQ29tcC4gU2Np
LjERMA8GA1UEAwwIY2xpZW50MzAxKDAmBgkqhkiG9w0BCQEWGWZyYW5jb0BnYXVz
cy5lY2Vjcy51Yy5lZHUwggEiMA0GCSqGSIb3DQEBAQUAA4IBDwAwggEKAoIBAQD0
b5KLPdQs6OJyWV5b/0Ce8aDWbLrnOo+pfJcpaLuSKYSTNGTisIoSrmDvJ/Ovw20c
/pJxjlZvjyKg0+DXAflZ07xtgTXPmdVCDuN8A9Kl9+uVcCNpSPmBfrwLYbOaYZoy
HbP6OuJJ1B19CemUpg9GJmLZSxBAxfy6036qn/e3imzxu7YX648+t0bIajFE0/9+
FPsmIMnxkasBd3bOAq4IbcDr4t/Q2HwQzg0bC4meia3vlqcpZgcxLEmPEUHKiHH0
po8rdQNiUTfF8nggVR5X2Nmaow6o6YH1dTwlXbK8hilZS2yW5PCUdmC94ODe3bhr
i+S+o1+jQxfuvYLPH0CvAgMBAAGjggE3MIIBMzAJBgNVHRMEAjAAMB0GA1UdDgQW
BBSfN0W8J52ADyrV41YZPwc1/TdJITCB5AYDVR0jBIHcMIHZgBTERvKWOFYCuJ0J
BFIlkTWXatex8KGBtaSBsjCBrzELMAkGA1UEBhMCVVMxEzARBgNVBAgMCkNhbGlm
b3JuaWExFjAUBgNVBAcMDVNhbiBGcmFuY2lzY28xIDAeBgNVBAoMF0NvcHlsZWZ0
IENlcnRpZmljYXRlIENvMR8wHQYDVQQLDBZNeSBPcmdhbml6YXRpb25hbCBVbml0
MREwDwYDVQQDDAhDaGFuZ2VNZTEdMBsGCSqGSIb3DQEJARYObWVAZXhhbXBsZS5u
ZXSCCQDRWhUc8CCVYjATBgNVHSUEDDAKBggrBgEFBQcDAjALBgNVHQ8EBAMCB4Aw
DQYJKoZIhvcNAQELBQADggEBAIyIk7OfJc4XxP+zUtWcf5H8efrS+HuDOeFbjCtu
REPaqMZun/3yxpvFFSXr9dvoJu2EZpGOaFjj1peNRO0mY2eVN2TxHFSbn0CM19fH
HvrXVFzB0OQ1ks95qtjggZzlVOBZBvq/D1f4ifQzS7BkWvXGXxBhKj6MwVD1gA64
UzuwsjwEh3tdvoA1JNsJz1bIiALYRt4qDg8ZqsoCTT7UU274etnjWR1lVRso4fha
0cC0r0akdde/4q9n1hIzKpGOajEWlcN5ImUiJhh0J1AL0nf3fZXndDY3DqoezcA9
EIpn7wy8xjAAzJEJrm0NGK1ccIAQSc2hiKSNrJqmMOOZDRg=
-----END CERTIFICATE-----
