Certificate:
    Data:
        Version: 3 (0x2)
        Serial Number:
            1d:f7:5f:1b:3f:2e:77:51:ab:cf:62:57:17:21:22:f2
    Signature Algorithm: sha256WithRSAEncryption
        Issuer: C=US, ST=California, L=San Francisco, O=Copyleft Certificate Co, OU=My Organizational Unit, CN=ChangeMe/emailAddress=me@example.net
        Validity
            Not Before: Nov 13 11:49:34 2023 GMT
            Not After : Nov 12 11:49:34 2024 GMT
        Subject: C=US, ST=OH, L=Cincinnati, O=University of Cincinnati, OU=Dept. Elec. Comp. Eng. Comp. Sci., CN=client47/emailAddress=franco@gauss.ececs.uc.edu
        Subject Public Key Info:
            Public Key Algorithm: rsaEncryption
                Public-Key: (2048 bit)
                Modulus:
                    00:ec:b8:be:94:30:b3:03:13:ef:4d:4a:14:38:2a:
                    b2:92:26:35:a6:d0:de:b3:65:8f:6a:fc:5e:92:51:
                    93:df:51:46:dc:de:40:2d:2d:0c:97:d5:db:27:a7:
                    0d:27:70:87:ac:6a:0b:76:f2:fd:47:d1:5a:26:c7:
                    1d:a7:fa:02:cb:df:24:f3:bc:22:77:5f:88:dc:be:
                    d0:04:50:f6:43:48:2b:4d:f9:26:ec:eb:73:c9:e5:
                    32:50:fb:0e:d4:c9:37:c4:77:15:e7:a1:f7:60:8e:
                    89:e9:24:99:ce:eb:99:6f:2e:1e:55:f8:1e:d8:17:
                    dc:b2:a0:7e:03:ae:bc:8f:ec:d5:aa:98:0e:42:12:
                    d3:c3:48:ad:18:ea:f1:b8:cd:79:27:f7:48:cb:a8:
                    a5:f1:aa:83:02:6a:45:ea:b1:4e:f0:e7:ea:31:ce:
                    d6:15:38:13:22:c5:ca:38:89:1b:d4:10:45:b5:9c:
                    e0:a2:b1:b5:f9:ea:e1:47:50:a5:68:3f:e5:b1:ce:
                    e9:fd:36:ba:d8:2c:04:5d:44:ef:0e:7a:0e:af:e8:
                    0f:e0:80:e9:06:af:ca:51:3c:44:92:2e:52:37:15:
                    2a:99:97:11:2d:38:15:e2:d4:00:9e:7a:7c:20:47:
                    d2:b7:d4:2d:9a:4e:84:c8:a6:41:71:95:79:30:8e:
                    b8:7b
                Exponent: 65537 (0x10001)
        X509v3 extensions:
            X509v3 Basic Constraints: 
                CA:FALSE
            X509v3 Subject Key Identifier: 
                F2:D5:AD:7D:CF:B4:45:EA:5F:CE:76:10:95:F5:14:E0:BB:99:61:39
            X509v3 Authority Key Identifier: 
                keyid:B4:AE:AB:ED:FC:ED:84:AA:AD:77:5D:7C:84:28:1C:CA:CE:AE:2A:44
                DirName:/C=US/ST=California/L=San Francisco/O=Copyleft Certificate Co/OU=My Organizational Unit/CN=ChangeMe/emailAddress=me@example.net
                serial:BD:6C:3B:F4:D3:07:C9:D1

            X509v3 Extended Key Usage: 
                TLS Web Client Authentication
            X509v3 Key Usage: 
                Digital Signature
    Signature Algorithm: sha256WithRSAEncryption
         88:2c:2c:a9:eb:aa:64:11:8c:f1:3a:9e:4b:f6:04:f6:94:35:
         03:ed:c4:4b:57:1f:00:6c:a3:b5:39:2c:76:82:a0:73:2b:ed:
         59:ae:f0:00:b0:47:1e:5c:de:27:6c:b2:18:b8:cf:5f:39:1c:
         9f:e7:38:ee:73:5c:93:46:f3:76:6e:26:73:a1:33:0c:17:14:
         7e:4c:c9:2e:1b:18:e4:f8:37:a6:7c:09:68:d7:61:88:b5:b5:
         db:c6:59:14:f6:0d:ab:31:8f:c9:7c:e7:61:f0:d6:fc:b6:50:
         36:1e:54:c1:1a:7a:d0:ca:f3:3f:5d:e6:fa:17:8f:55:2d:9b:
         9e:10:fb:c8:75:7c:40:a4:65:e2:aa:b6:71:a3:ab:f1:18:16:
         9c:d6:74:90:dc:a6:00:9e:2f:13:c2:a5:8c:81:7f:04:ee:5a:
         f6:04:7c:f3:a5:fa:f6:81:2b:39:4e:c4:02:20:28:28:2a:70:
         89:40:37:15:f5:04:bd:c5:ba:57:a0:a2:d6:bf:ec:0f:73:63:
         6a:24:fb:81:e7:58:1e:3a:98:c5:d2:fd:53:e9:a9:fe:81:55:
         70:ea:77:3b:98:e8:81:63:80:88:db:f6:b2:3b:db:8d:66:13:
         04:ff:4d:c7:d0:28:e8:e9:70:7c:59:8e:b2:79:cf:8b:c8:39:
         fb:9f:1b:84
-----BEGIN CERTIFICATE-----
MIIFLzCCBBegAwIBAgIQHfdfGz8ud1Grz2JXFyEi8jANBgkqhkiG9w0BAQsFADCB
rzELMAkGA1UEBhMCVVMxEzARBgNVBAgMCkNhbGlmb3JuaWExFjAUBgNVBAcMDVNh
biBGcmFuY2lzY28xIDAeBgNVBAoMF0NvcHlsZWZ0IENlcnRpZmljYXRlIENvMR8w
HQYDVQQLDBZNeSBPcmdhbml6YXRpb25hbCBVbml0MREwDwYDVQQDDAhDaGFuZ2VN
ZTEdMBsGCSqGSIb3DQEJARYObWVAZXhhbXBsZS5uZXQwHhcNMjMxMTEzMTE0OTM0
WhcNMjQxMTEyMTE0OTM0WjCBuzELMAkGA1UEBhMCVVMxCzAJBgNVBAgMAk9IMRMw
EQYDVQQHDApDaW5jaW5uYXRpMSEwHwYDVQQKDBhVbml2ZXJzaXR5IG9mIENpbmNp
bm5hdGkxKjAoBgNVBAsMIURlcHQuIEVsZWMuIENvbXAuIEVuZy4gQ29tcC4gU2Np
LjERMA8GA1UEAwwIY2xpZW50NDcxKDAmBgkqhkiG9w0BCQEWGWZyYW5jb0BnYXVz
cy5lY2Vjcy51Yy5lZHUwggEiMA0GCSqGSIb3DQEBAQUAA4IBDwAwggEKAoIBAQDs
uL6UMLMDE+9NShQ4KrKSJjWm0N6zZY9q/F6SUZPfUUbc3kAtLQyX1dsnpw0ncIes
agt28v1H0Vomxx2n+gLL3yTzvCJ3X4jcvtAEUPZDSCtN+Sbs63PJ5TJQ+w7UyTfE
dxXnofdgjonpJJnO65lvLh5V+B7YF9yyoH4DrryP7NWqmA5CEtPDSK0Y6vG4zXkn
90jLqKXxqoMCakXqsU7w5+oxztYVOBMixco4iRvUEEW1nOCisbX56uFHUKVoP+Wx
zun9NrrYLARdRO8Oeg6v6A/ggOkGr8pRPESSLlI3FSqZlxEtOBXi1ACeenwgR9K3
1C2aToTIpkFxlXkwjrh7AgMBAAGjggE3MIIBMzAJBgNVHRMEAjAAMB0GA1UdDgQW
BBTy1a19z7RF6l/OdhCV9RTgu5lhOTCB5AYDVR0jBIHcMIHZgBS0rqvt/O2Eqq13
XXyEKBzKzq4qRKGBtaSBsjCBrzELMAkGA1UEBhMCVVMxEzARBgNVBAgMCkNhbGlm
b3JuaWExFjAUBgNVBAcMDVNhbiBGcmFuY2lzY28xIDAeBgNVBAoMF0NvcHlsZWZ0
IENlcnRpZmljYXRlIENvMR8wHQYDVQQLDBZNeSBPcmdhbml6YXRpb25hbCBVbml0
MREwDwYDVQQDDAhDaGFuZ2VNZTEdMBsGCSqGSIb3DQEJARYObWVAZXhhbXBsZS5u
ZXSCCQC9bDv00wfJ0TATBgNVHSUEDDAKBggrBgEFBQcDAjALBgNVHQ8EBAMCB4Aw
DQYJKoZIhvcNAQELBQADggEBAIgsLKnrqmQRjPE6nkv2BPaUNQPtxEtXHwBso7U5
LHaCoHMr7Vmu8ACwRx5c3idsshi4z185HJ/nOO5zXJNG83ZuJnOhMwwXFH5MyS4b
GOT4N6Z8CWjXYYi1tdvGWRT2Dasxj8l852Hw1vy2UDYeVMEaetDK8z9d5voXj1Ut
m54Q+8h1fECkZeKqtnGjq/EYFpzWdJDcpgCeLxPCpYyBfwTuWvYEfPOl+vaBKzlO
xAIgKCgqcIlANxX1BL3Fulegota/7A9zY2ok+4HnWB46mMXS/VPpqf6BVXDqdzuY
6IFjgIjb9rI7241mEwT/TcfQKOjpcHxZjrJ5z4vIOfufG4Q=
-----END CERTIFICATE-----
