Certificate:
    Data:
        Version: 3 (0x2)
        Serial Number:
            ee:8e:8d:30:ea:06:dc:29:5c:47:e6:df:c8:32:86:d7
    Signature Algorithm: sha256WithRSAEncryption
        Issuer: C=US, ST=California, L=San Francisco, O=Copyleft Certificate Co, OU=My Organizational Unit, CN=ChangeMe/emailAddress=me@example.net
        Validity
            Not Before: Jan 23 18:27:21 2021 GMT
            Not After : Jan 23 18:27:21 2022 GMT
        Subject: C=US, ST=OH, L=Cincinnati, O=University of Cincinnati, OU=Dept. Electrical Eng. and Computer Sci., CN=client3/emailAddress=franco@gauss.ececs.uc.edu
        Subject Public Key Info:
            Public Key Algorithm: rsaEncryption
                Public-Key: (2048 bit)
                Modulus:
                    00:a2:62:32:66:16:d8:2b:f9:c3:97:3b:61:7b:e8:
                    ac:8e:29:a5:41:b7:30:f1:b5:d2:0f:c3:41:29:d7:
                    7c:e7:f6:a0:07:11:0e:d3:60:c3:fe:3d:f5:65:3a:
                    1a:a9:45:fc:1d:40:53:ac:77:0b:7f:b5:91:5c:4b:
                    f9:f4:9b:17:25:7f:3e:e5:03:42:f2:29:b7:fc:6c:
                    12:df:1a:7b:b5:23:81:a9:c6:b6:59:82:42:8c:be:
                    b6:47:52:75:cf:73:b8:4c:0a:e9:72:00:56:f0:36:
                    b7:49:95:51:b9:c3:2a:12:83:51:6f:64:b9:44:ee:
                    a1:57:4f:e7:05:40:6f:d8:4c:9c:90:2f:64:84:8f:
                    04:f8:4e:b7:cc:05:85:d7:5e:d6:61:74:e9:7e:09:
                    50:8c:81:e4:35:a3:54:23:ea:d3:3b:6b:21:fb:30:
                    86:a9:d2:2a:99:0e:d8:67:a7:65:ef:97:b3:aa:11:
                    c7:59:7a:4a:13:78:76:e5:a2:0c:55:d8:9a:3c:95:
                    da:15:73:32:0b:30:96:a7:35:30:ee:10:cb:07:d6:
                    76:9a:26:f0:26:54:01:b9:b6:35:c1:16:fa:6e:69:
                    13:28:3b:f5:4e:f2:2d:ac:e8:06:74:6c:77:05:f7:
                    03:66:85:86:cc:3b:66:5c:60:b7:36:ec:c5:ef:9f:
                    98:f5
                Exponent: 65537 (0x10001)
        X509v3 extensions:
            X509v3 Basic Constraints: 
                CA:FALSE
            X509v3 Subject Key Identifier: 
                23:72:D6:90:AA:34:59:FC:7D:57:E2:9B:78:B6:F6:4B:C7:FE:A8:2E
            X509v3 Authority Key Identifier: 
                keyid:EF:DC:B6:3D:4B:FD:A7:87:05:C5:22:3D:8B:DC:BF:99:2A:EE:E4:DB
                DirName:/C=US/ST=California/L=San Francisco/O=Copyleft Certificate Co/OU=My Organizational Unit/CN=ChangeMe/emailAddress=me@example.net
                serial:87:1E:1D:DC:6B:8C:66:88

            X509v3 Extended Key Usage: 
                TLS Web Client Authentication
            X509v3 Key Usage: 
                Digital Signature
    Signature Algorithm: sha256WithRSAEncryption
         1b:1d:d3:b0:73:4f:7e:8e:a9:06:d4:46:f4:2c:5a:f5:c8:44:
         3a:a9:8f:79:23:47:67:a8:0f:6b:8d:86:e6:88:5e:1e:b2:33:
         d1:8e:5b:9a:6b:57:81:e8:19:4f:9d:58:47:54:12:05:8c:da:
         73:8e:42:2b:e5:ab:9e:5e:15:df:d1:55:1a:0c:c4:d6:da:ff:
         85:74:9b:33:47:2f:40:dd:3d:cb:27:68:9b:04:a2:cc:7b:a5:
         44:20:df:21:a9:39:0c:82:f0:cc:96:de:46:41:f3:63:bb:b1:
         68:a9:b3:ef:9c:4b:91:ce:66:2c:43:81:fa:c2:e4:9b:91:f1:
         3d:c0:db:1a:20:92:2b:ac:9c:02:3f:8f:ec:36:6a:23:19:df:
         a4:17:bc:0e:3c:61:7e:51:e2:79:9c:13:ab:e5:ec:da:4d:8c:
         78:31:4e:98:61:91:7d:20:ab:3a:2a:83:f4:c1:67:63:ae:45:
         d4:ff:fa:66:45:aa:62:16:fa:13:3b:5d:de:6f:2d:27:e3:e6:
         16:06:0d:b6:46:c2:8a:46:88:a9:0e:d2:9e:86:01:a1:72:26:
         94:ae:96:d1:d9:e6:ad:ec:4e:ee:00:c1:0b:84:6f:2a:6f:5e:
         44:42:7c:e4:6f:f4:58:f8:50:6d:73:0d:dd:90:81:de:65:d3:
         6c:12:18:0e
-----BEGIN CERTIFICATE-----
MIIFNTCCBB2gAwIBAgIRAO6OjTDqBtwpXEfm38gyhtcwDQYJKoZIhvcNAQELBQAw
ga8xCzAJBgNVBAYTAlVTMRMwEQYDVQQIDApDYWxpZm9ybmlhMRYwFAYDVQQHDA1T
YW4gRnJhbmNpc2NvMSAwHgYDVQQKDBdDb3B5bGVmdCBDZXJ0aWZpY2F0ZSBDbzEf
MB0GA1UECwwWTXkgT3JnYW5pemF0aW9uYWwgVW5pdDERMA8GA1UEAwwIQ2hhbmdl
TWUxHTAbBgkqhkiG9w0BCQEWDm1lQGV4YW1wbGUubmV0MB4XDTIxMDEyMzE4Mjcy
MVoXDTIyMDEyMzE4MjcyMVowgcAxCzAJBgNVBAYTAlVTMQswCQYDVQQIDAJPSDET
MBEGA1UEBwwKQ2luY2lubmF0aTEhMB8GA1UECgwYVW5pdmVyc2l0eSBvZiBDaW5j
aW5uYXRpMTAwLgYDVQQLDCdEZXB0LiBFbGVjdHJpY2FsIEVuZy4gYW5kIENvbXB1
dGVyIFNjaS4xEDAOBgNVBAMMB2NsaWVudDMxKDAmBgkqhkiG9w0BCQEWGWZyYW5j
b0BnYXVzcy5lY2Vjcy51Yy5lZHUwggEiMA0GCSqGSIb3DQEBAQUAA4IBDwAwggEK
AoIBAQCiYjJmFtgr+cOXO2F76KyOKaVBtzDxtdIPw0Ep13zn9qAHEQ7TYMP+PfVl
OhqpRfwdQFOsdwt/tZFcS/n0mxclfz7lA0LyKbf8bBLfGnu1I4GpxrZZgkKMvrZH
UnXPc7hMCulyAFbwNrdJlVG5wyoSg1FvZLlE7qFXT+cFQG/YTJyQL2SEjwT4TrfM
BYXXXtZhdOl+CVCMgeQ1o1Qj6tM7ayH7MIap0iqZDthnp2Xvl7OqEcdZekoTeHbl
ogxV2Jo8ldoVczILMJanNTDuEMsH1naaJvAmVAG5tjXBFvpuaRMoO/VO8i2s6AZ0
bHcF9wNmhYbMO2ZcYLc27MXvn5j1AgMBAAGjggE3MIIBMzAJBgNVHRMEAjAAMB0G
A1UdDgQWBBQjctaQqjRZ/H1X4pt4tvZLx/6oLjCB5AYDVR0jBIHcMIHZgBTv3LY9
S/2nhwXFIj2L3L+ZKu7k26GBtaSBsjCBrzELMAkGA1UEBhMCVVMxEzARBgNVBAgM
CkNhbGlmb3JuaWExFjAUBgNVBAcMDVNhbiBGcmFuY2lzY28xIDAeBgNVBAoMF0Nv
cHlsZWZ0IENlcnRpZmljYXRlIENvMR8wHQYDVQQLDBZNeSBPcmdhbml6YXRpb25h
bCBVbml0MREwDwYDVQQDDAhDaGFuZ2VNZTEdMBsGCSqGSIb3DQEJARYObWVAZXhh
bXBsZS5uZXSCCQCHHh3ca4xmiDATBgNVHSUEDDAKBggrBgEFBQcDAjALBgNVHQ8E
BAMCB4AwDQYJKoZIhvcNAQELBQADggEBABsd07BzT36OqQbURvQsWvXIRDqpj3kj
R2eoD2uNhuaIXh6yM9GOW5prV4HoGU+dWEdUEgWM2nOOQivlq55eFd/RVRoMxNba
/4V0mzNHL0DdPcsnaJsEosx7pUQg3yGpOQyC8MyW3kZB82O7sWips++cS5HOZixD
gfrC5JuR8T3A2xogkiusnAI/j+w2aiMZ36QXvA48YX5R4nmcE6vl7NpNjHgxTphh
kX0gqzoqg/TBZ2OuRdT/+mZFqmIW+hM7Xd5vLSfj5hYGDbZGwopGiKkO0p6GAaFy
JpSultHZ5q3sTu4AwQuEbypvXkRCfORv9Fj4UG1zDd2Qgd5l02wSGA4=
-----END CERTIFICATE-----
