Certificate:
    Data:
        Version: 3 (0x2)
        Serial Number:
            9c:8d:78:7a:15:8a:ad:14:fc:6d:f4:a7:7d:91:02:a7
    Signature Algorithm: sha256WithRSAEncryption
        Issuer: C=US, ST=California, L=San Francisco, O=Copyleft Certificate Co, OU=My Organizational Unit, CN=ChangeMe/emailAddress=me@example.net
        Validity
            Not Before: Jan 23 18:27:49 2021 GMT
            Not After : Jan 23 18:27:49 2022 GMT
        Subject: C=US, ST=OH, L=Cincinnati, O=University of Cincinnati, OU=Dept. Electrical Eng. and Computer Sci., CN=client23/emailAddress=franco@gauss.ececs.uc.edu
        Subject Public Key Info:
            Public Key Algorithm: rsaEncryption
                Public-Key: (2048 bit)
                Modulus:
                    00:ee:2c:9f:3b:a2:53:6f:68:ce:e0:d5:3b:4a:d0:
                    73:a3:0e:78:41:ff:c7:fb:97:76:3a:49:41:e1:12:
                    1d:e2:97:0a:91:4c:ab:5c:1b:53:ac:ac:1d:c4:21:
                    a3:84:61:e4:87:3e:eb:1c:b3:51:7a:83:c6:8c:f0:
                    1f:65:ee:ae:d1:f2:3e:2a:92:95:e2:d2:11:7f:d0:
                    3f:28:38:96:a7:db:9b:43:62:eb:93:83:d8:7c:ad:
                    98:d5:6c:eb:ac:cd:e3:db:e3:d1:0a:86:6a:47:9e:
                    5f:24:c7:23:49:8c:8f:af:31:cf:a8:00:54:a5:2e:
                    97:8d:c3:18:db:3c:d5:b2:7e:48:bd:4b:11:cc:92:
                    59:73:a7:76:95:ad:b2:f4:e4:bf:0e:14:b9:45:b1:
                    40:c2:9b:1d:d6:65:0b:69:27:ca:5d:1d:55:a2:36:
                    f5:ac:f8:d8:d4:a7:63:b3:49:9e:0b:ab:2a:c0:b8:
                    74:0d:27:d8:36:23:87:dc:61:fb:21:77:3c:e1:7f:
                    b8:63:8d:95:52:da:ab:77:8b:b2:c1:12:60:6a:a3:
                    f1:70:fb:d6:c3:72:78:82:75:52:57:a6:70:9f:01:
                    83:ac:dc:b2:08:1d:93:a3:33:a5:21:d6:4d:e7:e5:
                    b0:b5:18:ea:b3:c1:21:e5:8e:d1:23:91:f2:63:92:
                    be:c9
                Exponent: 65537 (0x10001)
        X509v3 extensions:
            X509v3 Basic Constraints: 
                CA:FALSE
            X509v3 Subject Key Identifier: 
                AF:70:70:25:D0:DE:0B:E3:C9:59:10:36:09:10:80:97:EB:E9:8E:1A
            X509v3 Authority Key Identifier: 
                keyid:EF:DC:B6:3D:4B:FD:A7:87:05:C5:22:3D:8B:DC:BF:99:2A:EE:E4:DB
                DirName:/C=US/ST=California/L=San Francisco/O=Copyleft Certificate Co/OU=My Organizational Unit/CN=ChangeMe/emailAddress=me@example.net
                serial:87:1E:1D:DC:6B:8C:66:88

            X509v3 Extended Key Usage: 
                TLS Web Client Authentication
            X509v3 Key Usage: 
                Digital Signature
    Signature Algorithm: sha256WithRSAEncryption
         5e:89:af:6f:94:91:7a:b8:49:bd:50:17:c4:25:bd:e6:e7:06:
         8e:77:08:96:a8:1b:34:fa:0d:03:f5:2c:54:b8:e0:82:c5:6e:
         c7:04:b4:8d:89:de:b6:2e:c1:b4:e8:07:d3:df:53:a0:8a:65:
         c3:fe:f1:20:67:4f:83:aa:a9:04:20:89:6f:cb:c5:77:50:99:
         bc:ea:b2:4e:30:30:14:4f:8a:2a:02:24:24:da:d9:98:5d:eb:
         a4:0d:7b:7e:a0:1a:72:e7:cb:68:52:88:80:af:14:3d:c2:da:
         d8:77:c5:5e:4e:b3:03:67:07:b3:d4:a0:79:81:b5:a8:37:5e:
         32:8e:51:18:c5:3c:6a:63:a2:14:cc:1b:66:2c:ae:06:70:4a:
         38:62:94:f7:4d:92:4b:4a:88:6f:c0:2b:af:7f:a2:3c:7f:9e:
         c8:da:74:d6:16:30:4e:d8:05:5a:b6:4c:11:60:72:e5:cf:5a:
         ec:fe:b0:60:d1:18:ea:94:49:08:89:04:17:c8:9c:ac:66:d9:
         da:55:85:4b:ab:53:ce:82:f2:0e:bc:f7:5f:64:9a:11:63:75:
         f8:e4:8c:04:d7:7c:96:8e:26:be:4e:8e:bb:7f:22:93:8d:29:
         79:21:39:cc:de:78:f6:0a:f7:8b:ed:ae:4c:fd:29:43:f8:cd:
         df:47:4b:6c
-----BEGIN CERTIFICATE-----
MIIFNjCCBB6gAwIBAgIRAJyNeHoViq0U/G30p32RAqcwDQYJKoZIhvcNAQELBQAw
ga8xCzAJBgNVBAYTAlVTMRMwEQYDVQQIDApDYWxpZm9ybmlhMRYwFAYDVQQHDA1T
YW4gRnJhbmNpc2NvMSAwHgYDVQQKDBdDb3B5bGVmdCBDZXJ0aWZpY2F0ZSBDbzEf
MB0GA1UECwwWTXkgT3JnYW5pemF0aW9uYWwgVW5pdDERMA8GA1UEAwwIQ2hhbmdl
TWUxHTAbBgkqhkiG9w0BCQEWDm1lQGV4YW1wbGUubmV0MB4XDTIxMDEyMzE4Mjc0
OVoXDTIyMDEyMzE4Mjc0OVowgcExCzAJBgNVBAYTAlVTMQswCQYDVQQIDAJPSDET
MBEGA1UEBwwKQ2luY2lubmF0aTEhMB8GA1UECgwYVW5pdmVyc2l0eSBvZiBDaW5j
aW5uYXRpMTAwLgYDVQQLDCdEZXB0LiBFbGVjdHJpY2FsIEVuZy4gYW5kIENvbXB1
dGVyIFNjaS4xETAPBgNVBAMMCGNsaWVudDIzMSgwJgYJKoZIhvcNAQkBFhlmcmFu
Y29AZ2F1c3MuZWNlY3MudWMuZWR1MIIBIjANBgkqhkiG9w0BAQEFAAOCAQ8AMIIB
CgKCAQEA7iyfO6JTb2jO4NU7StBzow54Qf/H+5d2OklB4RId4pcKkUyrXBtTrKwd
xCGjhGHkhz7rHLNReoPGjPAfZe6u0fI+KpKV4tIRf9A/KDiWp9ubQ2Lrk4PYfK2Y
1WzrrM3j2+PRCoZqR55fJMcjSYyPrzHPqABUpS6XjcMY2zzVsn5IvUsRzJJZc6d2
la2y9OS/DhS5RbFAwpsd1mULaSfKXR1Vojb1rPjY1Kdjs0meC6sqwLh0DSfYNiOH
3GH7IXc84X+4Y42VUtqrd4uywRJgaqPxcPvWw3J4gnVSV6ZwnwGDrNyyCB2TozOl
IdZN5+WwtRjqs8Eh5Y7RI5HyY5K+yQIDAQABo4IBNzCCATMwCQYDVR0TBAIwADAd
BgNVHQ4EFgQUr3BwJdDeC+PJWRA2CRCAl+vpjhowgeQGA1UdIwSB3DCB2YAU79y2
PUv9p4cFxSI9i9y/mSru5NuhgbWkgbIwga8xCzAJBgNVBAYTAlVTMRMwEQYDVQQI
DApDYWxpZm9ybmlhMRYwFAYDVQQHDA1TYW4gRnJhbmNpc2NvMSAwHgYDVQQKDBdD
b3B5bGVmdCBDZXJ0aWZpY2F0ZSBDbzEfMB0GA1UECwwWTXkgT3JnYW5pemF0aW9u
YWwgVW5pdDERMA8GA1UEAwwIQ2hhbmdlTWUxHTAbBgkqhkiG9w0BCQEWDm1lQGV4
YW1wbGUubmV0ggkAhx4d3GuMZogwEwYDVR0lBAwwCgYIKwYBBQUHAwIwCwYDVR0P
BAQDAgeAMA0GCSqGSIb3DQEBCwUAA4IBAQBeia9vlJF6uEm9UBfEJb3m5waOdwiW
qBs0+g0D9SxUuOCCxW7HBLSNid62LsG06AfT31OgimXD/vEgZ0+DqqkEIIlvy8V3
UJm86rJOMDAUT4oqAiQk2tmYXeukDXt+oBpy58toUoiArxQ9wtrYd8VeTrMDZwez
1KB5gbWoN14yjlEYxTxqY6IUzBtmLK4GcEo4YpT3TZJLSohvwCuvf6I8f57I2nTW
FjBO2AVatkwRYHLlz1rs/rBg0RjqlEkIiQQXyJysZtnaVYVLq1POgvIOvPdfZJoR
Y3X45IwE13yWjia+To67fyKTjSl5ITnM3nj2CveL7a5M/SlD+M3fR0ts
-----END CERTIFICATE-----
