Certificate:
    Data:
        Version: 3 (0x2)
        Serial Number:
            93:7f:39:3f:fd:1f:c1:68:3e:26:8c:d6:53:42:cc:1c
    Signature Algorithm: sha256WithRSAEncryption
        Issuer: C=US, ST=California, L=San Francisco, O=Copyleft Certificate Co, OU=My Organizational Unit, CN=ChangeMe/emailAddress=me@example.net
        Validity
            Not Before: Jan 23 18:29:02 2021 GMT
            Not After : Jan 23 18:29:02 2022 GMT
        Subject: C=US, ST=OH, L=Cincinnati, O=University of Cincinnati, OU=Dept. Electrical Eng. and Computer Sci., CN=client76/emailAddress=franco@gauss.ececs.uc.edu
        Subject Public Key Info:
            Public Key Algorithm: rsaEncryption
                Public-Key: (2048 bit)
                Modulus:
                    00:a9:9c:af:cd:5e:84:1b:b3:f0:6b:71:84:f2:bd:
                    37:12:87:37:c2:f1:3d:e8:44:ff:1e:16:d2:27:e1:
                    31:f5:e8:b1:7a:f9:ef:17:4f:d4:50:36:79:c5:2f:
                    6a:bd:41:48:c8:6f:7c:75:32:e0:d9:41:47:18:d8:
                    f1:64:b7:60:4b:bf:57:6e:6b:01:70:36:2a:31:85:
                    f9:39:d1:3a:33:7c:78:00:52:52:17:24:c9:2c:c6:
                    ac:f7:23:1f:56:c9:bd:4c:27:5f:fc:bf:5c:15:d1:
                    23:cf:d1:6c:76:57:e7:a8:0d:d4:46:af:33:67:a9:
                    de:47:31:9e:2c:ac:02:0b:32:62:7e:c6:15:77:41:
                    6c:a5:db:6d:3d:b4:60:e2:e6:e2:ef:1c:29:07:5c:
                    bc:48:3e:17:c5:8a:98:dc:9d:d0:63:7d:21:07:f6:
                    54:91:da:f3:28:ee:f0:76:c9:61:cc:24:77:5e:25:
                    60:dd:10:5a:3f:16:63:37:29:aa:e9:3b:5f:9c:51:
                    9d:80:01:4e:95:6b:f5:2c:5b:41:0d:e0:a3:c1:ab:
                    fe:b0:b3:54:3a:58:76:58:eb:19:90:4f:65:b6:29:
                    9e:b6:bd:93:8d:4b:20:42:fb:99:b9:c1:2a:15:eb:
                    98:50:0a:64:8d:e0:bd:33:7b:20:93:dd:9a:a8:da:
                    d4:17
                Exponent: 65537 (0x10001)
        X509v3 extensions:
            X509v3 Basic Constraints: 
                CA:FALSE
            X509v3 Subject Key Identifier: 
                B3:03:D2:29:F2:23:69:21:32:28:FD:F5:34:59:C6:48:C5:63:2A:2D
            X509v3 Authority Key Identifier: 
                keyid:EF:DC:B6:3D:4B:FD:A7:87:05:C5:22:3D:8B:DC:BF:99:2A:EE:E4:DB
                DirName:/C=US/ST=California/L=San Francisco/O=Copyleft Certificate Co/OU=My Organizational Unit/CN=ChangeMe/emailAddress=me@example.net
                serial:87:1E:1D:DC:6B:8C:66:88

            X509v3 Extended Key Usage: 
                TLS Web Client Authentication
            X509v3 Key Usage: 
                Digital Signature
    Signature Algorithm: sha256WithRSAEncryption
         0a:32:d0:26:6b:07:37:84:d4:ad:c3:88:8c:43:5d:ec:fe:cb:
         32:cf:b5:9b:43:04:87:03:02:49:ed:58:5b:19:12:d2:99:76:
         85:fe:82:85:4a:fd:40:87:7b:c6:5a:e8:ea:a2:29:22:11:3d:
         ce:6c:52:05:1f:f2:75:a5:da:4d:89:29:61:12:93:8a:f4:b5:
         62:27:9a:b7:74:2d:3d:e5:b3:c9:45:e1:34:4d:e3:ff:ef:cc:
         5a:37:5e:a4:dd:9e:29:8d:2d:aa:34:2c:1b:c1:5c:f9:93:08:
         ce:ed:55:65:10:5b:a2:b9:92:67:3f:04:ea:c7:2e:ac:91:3a:
         c0:85:d0:0b:84:6a:51:65:22:03:32:9f:a7:6b:06:30:bb:45:
         bd:ad:71:b0:41:50:21:5d:58:27:cf:19:d6:18:5f:b4:f6:29:
         c8:ac:ed:e1:09:62:64:e3:d2:e3:50:5c:32:d0:61:d8:c3:bd:
         44:b1:94:4a:f5:55:2d:ea:b1:ed:b7:ba:45:2c:16:11:a4:5a:
         67:d3:76:f0:7d:ba:8a:90:45:64:5f:00:1d:5a:3d:d0:69:fd:
         5d:cc:c6:53:60:9f:b0:c4:e2:c8:e2:e6:3f:cc:21:57:8d:a5:
         f9:a1:cc:55:85:fa:00:c9:29:2e:f0:03:6f:28:5c:73:17:c1:
         6a:8b:6a:cf
-----BEGIN CERTIFICATE-----
MIIFNjCCBB6gAwIBAgIRAJN/OT/9H8FoPiaM1lNCzBwwDQYJKoZIhvcNAQELBQAw
ga8xCzAJBgNVBAYTAlVTMRMwEQYDVQQIDApDYWxpZm9ybmlhMRYwFAYDVQQHDA1T
YW4gRnJhbmNpc2NvMSAwHgYDVQQKDBdDb3B5bGVmdCBDZXJ0aWZpY2F0ZSBDbzEf
MB0GA1UECwwWTXkgT3JnYW5pemF0aW9uYWwgVW5pdDERMA8GA1UEAwwIQ2hhbmdl
TWUxHTAbBgkqhkiG9w0BCQEWDm1lQGV4YW1wbGUubmV0MB4XDTIxMDEyMzE4Mjkw
MloXDTIyMDEyMzE4MjkwMlowgcExCzAJBgNVBAYTAlVTMQswCQYDVQQIDAJPSDET
MBEGA1UEBwwKQ2luY2lubmF0aTEhMB8GA1UECgwYVW5pdmVyc2l0eSBvZiBDaW5j
aW5uYXRpMTAwLgYDVQQLDCdEZXB0LiBFbGVjdHJpY2FsIEVuZy4gYW5kIENvbXB1
dGVyIFNjaS4xETAPBgNVBAMMCGNsaWVudDc2MSgwJgYJKoZIhvcNAQkBFhlmcmFu
Y29AZ2F1c3MuZWNlY3MudWMuZWR1MIIBIjANBgkqhkiG9w0BAQEFAAOCAQ8AMIIB
CgKCAQEAqZyvzV6EG7Pwa3GE8r03Eoc3wvE96ET/HhbSJ+Ex9eixevnvF0/UUDZ5
xS9qvUFIyG98dTLg2UFHGNjxZLdgS79XbmsBcDYqMYX5OdE6M3x4AFJSFyTJLMas
9yMfVsm9TCdf/L9cFdEjz9FsdlfnqA3URq8zZ6neRzGeLKwCCzJifsYVd0Fspdtt
PbRg4ubi7xwpB1y8SD4XxYqY3J3QY30hB/ZUkdrzKO7wdslhzCR3XiVg3RBaPxZj
Nymq6TtfnFGdgAFOlWv1LFtBDeCjwav+sLNUOlh2WOsZkE9ltimetr2TjUsgQvuZ
ucEqFeuYUApkjeC9M3sgk92aqNrUFwIDAQABo4IBNzCCATMwCQYDVR0TBAIwADAd
BgNVHQ4EFgQUswPSKfIjaSEyKP31NFnGSMVjKi0wgeQGA1UdIwSB3DCB2YAU79y2
PUv9p4cFxSI9i9y/mSru5NuhgbWkgbIwga8xCzAJBgNVBAYTAlVTMRMwEQYDVQQI
DApDYWxpZm9ybmlhMRYwFAYDVQQHDA1TYW4gRnJhbmNpc2NvMSAwHgYDVQQKDBdD
b3B5bGVmdCBDZXJ0aWZpY2F0ZSBDbzEfMB0GA1UECwwWTXkgT3JnYW5pemF0aW9u
YWwgVW5pdDERMA8GA1UEAwwIQ2hhbmdlTWUxHTAbBgkqhkiG9w0BCQEWDm1lQGV4
YW1wbGUubmV0ggkAhx4d3GuMZogwEwYDVR0lBAwwCgYIKwYBBQUHAwIwCwYDVR0P
BAQDAgeAMA0GCSqGSIb3DQEBCwUAA4IBAQAKMtAmawc3hNStw4iMQ13s/ssyz7Wb
QwSHAwJJ7VhbGRLSmXaF/oKFSv1Ah3vGWujqoikiET3ObFIFH/J1pdpNiSlhEpOK
9LViJ5q3dC095bPJReE0TeP/78xaN16k3Z4pjS2qNCwbwVz5kwjO7VVlEFuiuZJn
PwTqxy6skTrAhdALhGpRZSIDMp+nawYwu0W9rXGwQVAhXVgnzxnWGF+09inIrO3h
CWJk49LjUFwy0GHYw71EsZRK9VUt6rHtt7pFLBYRpFpn03bwfbqKkEVkXwAdWj3Q
af1dzMZTYJ+wxOLI4uY/zCFXjaX5ocxVhfoAySku8ANvKFxzF8Fqi2rP
-----END CERTIFICATE-----
