Certificate:
    Data:
        Version: 3 (0x2)
        Serial Number:
            97:86:44:80:df:9f:d0:d7:42:d3:92:f7:f6:8c:68:09
    Signature Algorithm: sha256WithRSAEncryption
        Issuer: C=US, ST=California, L=San Francisco, O=Copyleft Certificate Co, OU=My Organizational Unit, CN=ChangeMe/emailAddress=me@example.net
        Validity
            Not Before: Nov 13 11:46:46 2023 GMT
            Not After : Nov 12 11:46:46 2024 GMT
        Subject: C=US, ST=OH, L=Cincinnati, O=University of Cincinnati, OU=Dept. Elec. Comp. Eng. Comp. Sci., CN=client5/emailAddress=franco@gauss.ececs.uc.edu
        Subject Public Key Info:
            Public Key Algorithm: rsaEncryption
                Public-Key: (2048 bit)
                Modulus:
                    00:d4:c1:9f:93:d4:d4:62:4b:34:3e:b9:8c:15:5e:
                    80:df:db:c1:e8:4c:44:9b:1e:48:9f:84:0a:29:e6:
                    7b:f1:5b:30:fd:1c:6c:c0:c4:76:00:be:96:a2:65:
                    9a:aa:1b:13:e5:3f:98:ab:d4:9f:0f:96:48:90:2e:
                    4a:92:90:e1:eb:b4:f9:3e:50:18:4a:c6:ed:00:ea:
                    aa:cc:a0:65:90:aa:38:cd:f4:63:69:81:a7:31:c5:
                    ba:03:80:e5:02:54:2c:5e:68:60:b8:9d:00:88:06:
                    22:6c:6b:a8:4e:2b:9a:c5:d8:d7:48:57:4a:93:96:
                    97:d2:be:c6:42:b4:85:bb:7b:cc:a9:8a:93:52:f4:
                    08:5c:7e:8f:72:cf:2c:61:f4:65:70:59:30:23:45:
                    97:4b:44:87:06:35:f8:d6:fd:a4:09:8d:64:54:f6:
                    45:6e:61:73:33:24:4b:1e:ee:83:eb:6d:83:22:4e:
                    4e:c4:15:e2:fb:25:93:fd:41:54:89:f1:5b:4d:89:
                    3e:63:3e:66:cb:a5:ab:d5:c3:e1:e1:71:46:64:f3:
                    5f:6e:81:9e:3b:f3:6f:b5:04:bc:b0:1b:5b:fc:dd:
                    18:9c:dd:37:78:14:a0:22:82:85:a8:29:d9:da:3a:
                    18:09:36:8e:10:25:ed:43:88:4a:9a:8a:71:96:f5:
                    16:d1
                Exponent: 65537 (0x10001)
        X509v3 extensions:
            X509v3 Basic Constraints: 
                CA:FALSE
            X509v3 Subject Key Identifier: 
                14:3C:D8:63:A3:3E:C6:BB:E4:8E:BC:FE:8D:5F:15:FE:D1:A8:62:FF
            X509v3 Authority Key Identifier: 
                keyid:B4:AE:AB:ED:FC:ED:84:AA:AD:77:5D:7C:84:28:1C:CA:CE:AE:2A:44
                DirName:/C=US/ST=California/L=San Francisco/O=Copyleft Certificate Co/OU=My Organizational Unit/CN=ChangeMe/emailAddress=me@example.net
                serial:BD:6C:3B:F4:D3:07:C9:D1

            X509v3 Extended Key Usage: 
                TLS Web Client Authentication
            X509v3 Key Usage: 
                Digital Signature
    Signature Algorithm: sha256WithRSAEncryption
         99:98:50:8f:74:41:ef:04:a9:e0:ef:25:1e:9b:d1:3b:bc:96:
         2d:5d:02:f1:06:d5:1a:f9:ea:03:94:30:96:37:63:4e:8f:82:
         55:d2:ab:0c:2c:b4:2b:2e:20:b8:98:e5:23:a5:51:60:a0:1b:
         8f:90:83:f3:19:74:c4:af:30:9b:09:11:c1:7e:e3:51:04:de:
         05:74:02:fe:a0:47:93:e1:45:dc:0a:af:05:e8:32:30:fb:85:
         c0:9a:13:95:0f:41:4e:67:3f:2c:de:0a:15:1a:cd:a8:54:74:
         02:a6:e8:0c:f2:ca:ab:d0:7d:4c:8e:94:ab:48:3b:4c:02:21:
         5d:c4:75:17:ca:6e:12:a7:87:11:d1:5b:39:92:31:db:a9:e8:
         8f:8d:f2:51:18:70:84:95:d8:e3:72:22:77:f8:76:6b:28:78:
         1b:3d:60:9a:cc:15:cc:2c:75:cd:54:97:5d:98:8a:e4:3b:dc:
         ac:01:47:3c:1c:ae:59:39:49:d6:e9:91:74:84:16:78:02:75:
         30:2d:2e:65:5a:86:d5:dc:bf:1d:d5:17:9f:58:a3:ff:82:82:
         15:83:30:e0:0a:0f:cb:c2:d0:48:ed:8c:0b:34:60:0d:51:7d:
         78:d1:4a:79:c2:1c:50:c0:de:73:86:fc:bc:c2:c2:4a:87:10:
         19:18:fc:ac
-----BEGIN CERTIFICATE-----
MIIFLzCCBBegAwIBAgIRAJeGRIDfn9DXQtOS9/aMaAkwDQYJKoZIhvcNAQELBQAw
ga8xCzAJBgNVBAYTAlVTMRMwEQYDVQQIDApDYWxpZm9ybmlhMRYwFAYDVQQHDA1T
YW4gRnJhbmNpc2NvMSAwHgYDVQQKDBdDb3B5bGVmdCBDZXJ0aWZpY2F0ZSBDbzEf
MB0GA1UECwwWTXkgT3JnYW5pemF0aW9uYWwgVW5pdDERMA8GA1UEAwwIQ2hhbmdl
TWUxHTAbBgkqhkiG9w0BCQEWDm1lQGV4YW1wbGUubmV0MB4XDTIzMTExMzExNDY0
NloXDTI0MTExMjExNDY0NlowgboxCzAJBgNVBAYTAlVTMQswCQYDVQQIDAJPSDET
MBEGA1UEBwwKQ2luY2lubmF0aTEhMB8GA1UECgwYVW5pdmVyc2l0eSBvZiBDaW5j
aW5uYXRpMSowKAYDVQQLDCFEZXB0LiBFbGVjLiBDb21wLiBFbmcuIENvbXAuIFNj
aS4xEDAOBgNVBAMMB2NsaWVudDUxKDAmBgkqhkiG9w0BCQEWGWZyYW5jb0BnYXVz
cy5lY2Vjcy51Yy5lZHUwggEiMA0GCSqGSIb3DQEBAQUAA4IBDwAwggEKAoIBAQDU
wZ+T1NRiSzQ+uYwVXoDf28HoTESbHkifhAop5nvxWzD9HGzAxHYAvpaiZZqqGxPl
P5ir1J8PlkiQLkqSkOHrtPk+UBhKxu0A6qrMoGWQqjjN9GNpgacxxboDgOUCVCxe
aGC4nQCIBiJsa6hOK5rF2NdIV0qTlpfSvsZCtIW7e8ypipNS9Ahcfo9yzyxh9GVw
WTAjRZdLRIcGNfjW/aQJjWRU9kVuYXMzJEse7oPrbYMiTk7EFeL7JZP9QVSJ8VtN
iT5jPmbLpavVw+HhcUZk819ugZ4782+1BLywG1v83Ric3Td4FKAigoWoKdnaOhgJ
No4QJe1DiEqainGW9RbRAgMBAAGjggE3MIIBMzAJBgNVHRMEAjAAMB0GA1UdDgQW
BBQUPNhjoz7Gu+SOvP6NXxX+0ahi/zCB5AYDVR0jBIHcMIHZgBS0rqvt/O2Eqq13
XXyEKBzKzq4qRKGBtaSBsjCBrzELMAkGA1UEBhMCVVMxEzARBgNVBAgMCkNhbGlm
b3JuaWExFjAUBgNVBAcMDVNhbiBGcmFuY2lzY28xIDAeBgNVBAoMF0NvcHlsZWZ0
IENlcnRpZmljYXRlIENvMR8wHQYDVQQLDBZNeSBPcmdhbml6YXRpb25hbCBVbml0
MREwDwYDVQQDDAhDaGFuZ2VNZTEdMBsGCSqGSIb3DQEJARYObWVAZXhhbXBsZS5u
ZXSCCQC9bDv00wfJ0TATBgNVHSUEDDAKBggrBgEFBQcDAjALBgNVHQ8EBAMCB4Aw
DQYJKoZIhvcNAQELBQADggEBAJmYUI90Qe8EqeDvJR6b0Tu8li1dAvEG1Rr56gOU
MJY3Y06PglXSqwwstCsuILiY5SOlUWCgG4+Qg/MZdMSvMJsJEcF+41EE3gV0Av6g
R5PhRdwKrwXoMjD7hcCaE5UPQU5nPyzeChUazahUdAKm6AzyyqvQfUyOlKtIO0wC
IV3EdRfKbhKnhxHRWzmSMdup6I+N8lEYcISV2ONyInf4dmsoeBs9YJrMFcwsdc1U
l12YiuQ73KwBRzwcrlk5SdbpkXSEFngCdTAtLmVahtXcvx3VF59Yo/+CghWDMOAK
D8vC0EjtjAs0YA1RfXjRSnnCHFDA3nOG/LzCwkqHEBkY/Kw=
-----END CERTIFICATE-----
