Certificate:
    Data:
        Version: 3 (0x2)
        Serial Number:
            fb:54:a1:a6:8c:81:81:48:59:08:28:eb:9b:b2:f0:55
    Signature Algorithm: sha256WithRSAEncryption
        Issuer: C=US, ST=California, L=San Francisco, O=Copyleft Certificate Co, OU=My Organizational Unit, CN=ChangeMe/emailAddress=me@example.net
        Validity
            Not Before: Nov 11 14:50:26 2023 GMT
            Not After : Nov 10 14:50:26 2024 GMT
        Subject: C=US, ST=OH, L=Cincinnati, O=University of Cincinnati ., OU=Dept. Elec. Comp. . Eng. Comp. Sci., CN=client11/emailAddress=franco@gauss.ececs.uc.edu
        Subject Public Key Info:
            Public Key Algorithm: rsaEncryption
                Public-Key: (2048 bit)
                Modulus:
                    00:dd:65:23:2d:7f:c2:a6:a2:ac:a0:3d:be:8e:ab:
                    49:f8:19:08:27:91:fe:29:91:80:7c:1a:b2:9c:b6:
                    3d:6e:7a:f4:74:08:4e:5f:30:7e:bb:fa:5b:dc:bd:
                    ff:69:c4:b8:20:e3:11:a2:c8:3e:ba:2c:33:42:db:
                    63:88:fa:03:ac:25:0c:90:8f:cd:da:2b:cb:34:c8:
                    5a:37:02:14:61:56:7e:f9:96:b6:ad:24:35:23:50:
                    30:38:bc:ac:3d:32:d9:bd:e9:0e:73:72:bd:49:cc:
                    d0:2a:41:d1:10:a9:7a:e3:d8:de:f4:87:df:78:a3:
                    6b:ec:c9:6a:78:2b:2b:5d:16:83:e7:b7:36:63:43:
                    b3:eb:73:ce:70:59:0e:ca:39:09:5d:50:4b:13:81:
                    27:67:c8:e0:e8:cd:cd:47:69:78:b1:82:70:04:da:
                    41:0a:d8:c4:77:53:23:8e:2d:ed:83:9c:b4:be:5a:
                    f9:ca:80:1b:90:30:17:fa:ca:eb:2c:34:5d:9e:19:
                    12:9a:51:02:14:21:c4:89:7f:d3:5c:c6:2a:8f:1a:
                    ab:82:37:9b:35:9b:01:41:43:6a:50:46:a4:5b:cc:
                    ae:57:3f:41:05:9f:0e:66:5d:dd:1c:fb:e3:92:1a:
                    0e:1c:11:07:af:c2:fe:3f:6b:44:a8:9e:46:de:77:
                    c9:ff
                Exponent: 65537 (0x10001)
        X509v3 extensions:
            X509v3 Basic Constraints: 
                CA:FALSE
            X509v3 Subject Key Identifier: 
                CA:FA:75:00:1D:86:E5:3A:4B:AE:38:65:5E:E2:C7:D8:8F:56:F7:B0
            X509v3 Authority Key Identifier: 
                keyid:37:77:FF:9E:80:0A:A0:2D:03:2E:41:2E:A7:9F:2C:08:1D:27:A7:1F
                DirName:/C=US/ST=California/L=San Francisco/O=Copyleft Certificate Co/OU=My Organizational Unit/CN=ChangeMe/emailAddress=me@example.net
                serial:8E:F4:CE:BF:34:CB:64:72

            X509v3 Extended Key Usage: 
                TLS Web Client Authentication
            X509v3 Key Usage: 
                Digital Signature
    Signature Algorithm: sha256WithRSAEncryption
         0b:07:60:6f:f7:24:6b:71:72:c6:08:96:38:f0:61:5c:ce:4c:
         a0:dd:2e:bd:4b:ea:97:06:81:c6:8f:81:58:f8:1c:e5:ba:aa:
         d4:e8:76:69:08:0c:5a:09:1a:a1:e8:f8:85:58:71:b9:0d:98:
         a1:99:d9:c9:06:3d:fd:d7:1f:04:39:09:01:7d:41:72:7d:55:
         2b:c8:8d:e5:bd:e6:4d:a2:6f:8c:0a:ae:b9:f1:56:9d:1a:80:
         d0:29:e1:33:18:36:4c:e6:30:9d:4d:1a:e6:9d:d6:a6:08:ac:
         bb:d8:8a:3f:4b:23:ee:0e:8b:4d:c7:e5:f7:88:39:12:fc:35:
         ce:fa:78:c5:c1:4f:a9:63:b1:e9:56:8c:93:d8:a3:2d:d7:f5:
         2f:1a:8e:76:34:e0:c3:4f:45:4b:58:e3:fe:c3:54:9a:3a:ea:
         73:d2:29:64:6c:66:fa:21:05:15:62:ce:aa:bd:ed:e6:48:5b:
         9e:fb:3f:ba:5f:05:7a:8a:ca:5f:85:a3:d3:f2:b9:83:f6:72:
         5c:9b:21:bb:79:42:d2:c9:37:c9:2b:04:5e:43:bf:b3:88:4c:
         18:16:ac:45:f0:3f:d0:c2:d3:29:22:b0:77:0f:59:70:7c:ac:
         30:d0:83:94:97:bf:29:5f:65:56:dc:d6:ee:90:74:2f:94:b2:
         e0:5c:88:bf
-----BEGIN CERTIFICATE-----
MIIFNDCCBBygAwIBAgIRAPtUoaaMgYFIWQgo65uy8FUwDQYJKoZIhvcNAQELBQAw
ga8xCzAJBgNVBAYTAlVTMRMwEQYDVQQIDApDYWxpZm9ybmlhMRYwFAYDVQQHDA1T
YW4gRnJhbmNpc2NvMSAwHgYDVQQKDBdDb3B5bGVmdCBDZXJ0aWZpY2F0ZSBDbzEf
MB0GA1UECwwWTXkgT3JnYW5pemF0aW9uYWwgVW5pdDERMA8GA1UEAwwIQ2hhbmdl
TWUxHTAbBgkqhkiG9w0BCQEWDm1lQGV4YW1wbGUubmV0MB4XDTIzMTExMTE0NTAy
NloXDTI0MTExMDE0NTAyNlowgb8xCzAJBgNVBAYTAlVTMQswCQYDVQQIDAJPSDET
MBEGA1UEBwwKQ2luY2lubmF0aTEjMCEGA1UECgwaVW5pdmVyc2l0eSBvZiBDaW5j
aW5uYXRpIC4xLDAqBgNVBAsMI0RlcHQuIEVsZWMuIENvbXAuIC4gRW5nLiBDb21w
LiBTY2kuMREwDwYDVQQDDAhjbGllbnQxMTEoMCYGCSqGSIb3DQEJARYZZnJhbmNv
QGdhdXNzLmVjZWNzLnVjLmVkdTCCASIwDQYJKoZIhvcNAQEBBQADggEPADCCAQoC
ggEBAN1lIy1/wqairKA9vo6rSfgZCCeR/imRgHwaspy2PW569HQITl8wfrv6W9y9
/2nEuCDjEaLIProsM0LbY4j6A6wlDJCPzdoryzTIWjcCFGFWfvmWtq0kNSNQMDi8
rD0y2b3pDnNyvUnM0CpB0RCpeuPY3vSH33ija+zJangrK10Wg+e3NmNDs+tzznBZ
Dso5CV1QSxOBJ2fI4OjNzUdpeLGCcATaQQrYxHdTI44t7YOctL5a+cqAG5AwF/rK
6yw0XZ4ZEppRAhQhxIl/01zGKo8aq4I3mzWbAUFDalBGpFvMrlc/QQWfDmZd3Rz7
45IaDhwRB6/C/j9rRKieRt53yf8CAwEAAaOCATcwggEzMAkGA1UdEwQCMAAwHQYD
VR0OBBYEFMr6dQAdhuU6S644ZV7ix9iPVvewMIHkBgNVHSMEgdwwgdmAFDd3/56A
CqAtAy5BLqefLAgdJ6cfoYG1pIGyMIGvMQswCQYDVQQGEwJVUzETMBEGA1UECAwK
Q2FsaWZvcm5pYTEWMBQGA1UEBwwNU2FuIEZyYW5jaXNjbzEgMB4GA1UECgwXQ29w
eWxlZnQgQ2VydGlmaWNhdGUgQ28xHzAdBgNVBAsMFk15IE9yZ2FuaXphdGlvbmFs
IFVuaXQxETAPBgNVBAMMCENoYW5nZU1lMR0wGwYJKoZIhvcNAQkBFg5tZUBleGFt
cGxlLm5ldIIJAI70zr80y2RyMBMGA1UdJQQMMAoGCCsGAQUFBwMCMAsGA1UdDwQE
AwIHgDANBgkqhkiG9w0BAQsFAAOCAQEACwdgb/cka3FyxgiWOPBhXM5MoN0uvUvq
lwaBxo+BWPgc5bqq1Oh2aQgMWgkaoej4hVhxuQ2YoZnZyQY9/dcfBDkJAX1Bcn1V
K8iN5b3mTaJvjAquufFWnRqA0CnhMxg2TOYwnU0a5p3Wpgisu9iKP0sj7g6LTcfl
94g5Evw1zvp4xcFPqWOx6VaMk9ijLdf1LxqOdjTgw09FS1jj/sNUmjrqc9IpZGxm
+iEFFWLOqr3t5khbnvs/ul8FeorKX4Wj0/K5g/ZyXJshu3lC0sk3ySsEXkO/s4hM
GBasRfA/0MLTKSKwdw9ZcHysMNCDlJe/KV9lVtzW7pB0L5Sy4FyIvw==
-----END CERTIFICATE-----
