Certificate:
    Data:
        Version: 3 (0x2)
        Serial Number:
            87:01:87:d2:3c:8d:4a:ae:af:25:d6:99:47:e1:87:5f
    Signature Algorithm: sha256WithRSAEncryption
        Issuer: C=US, ST=California, L=San Francisco, O=Copyleft Certificate Co, OU=My Organizational Unit, CN=ChangeMe/emailAddress=me@example.net
        Validity
            Not Before: Nov 12 11:46:39 2023 GMT
            Not After : Nov 11 11:46:39 2024 GMT
        Subject: C=US, ST=OH, L=Cincinnati, O=University of Cincinnati, OU=Dept. Elec. Comp. Eng. Comp. Sci., CN=client6/emailAddress=franco@gauss.ececs.uc.edu
        Subject Public Key Info:
            Public Key Algorithm: rsaEncryption
                Public-Key: (2048 bit)
                Modulus:
                    00:a6:2c:87:5f:e5:67:f6:11:34:91:64:8e:71:da:
                    0b:cf:5f:c6:c4:a7:b0:e9:45:8a:73:45:7d:50:47:
                    bd:59:58:6b:08:77:65:04:fb:13:29:b6:62:46:bd:
                    27:84:24:1a:93:c4:a7:a1:49:4f:e7:65:f5:53:1a:
                    27:5f:45:58:36:4b:13:41:fd:6b:16:45:15:01:38:
                    0a:fa:9e:a9:a5:a6:3a:45:d0:de:65:b1:02:47:c0:
                    ba:69:cd:cf:db:e8:c0:e8:4e:64:f3:14:e1:b7:9c:
                    a5:e2:8c:64:de:7f:0f:29:2d:00:d5:6b:ec:ba:f0:
                    61:df:00:07:15:42:7c:13:84:21:b4:b9:d4:b8:a9:
                    aa:16:e1:a6:36:8d:7a:11:7e:2e:92:1d:18:6d:12:
                    ef:36:a5:1f:b5:ef:cd:21:bd:df:31:ac:f2:75:4e:
                    bc:91:d0:d3:f5:3c:55:36:29:25:42:3e:0b:fb:dc:
                    e1:7a:d7:3e:c1:fc:bd:8a:24:a4:1d:1b:ca:05:15:
                    ed:eb:c8:5f:c8:43:4b:91:08:5c:8c:04:df:70:62:
                    80:28:9a:56:6d:b7:62:98:b0:f2:51:5e:37:ae:e8:
                    ac:d1:73:81:eb:5e:db:0f:9e:73:e9:28:7d:3f:e2:
                    2b:6a:cd:82:5f:04:75:bd:98:e9:6b:2b:44:91:a3:
                    1c:5d
                Exponent: 65537 (0x10001)
        X509v3 extensions:
            X509v3 Basic Constraints: 
                CA:FALSE
            X509v3 Subject Key Identifier: 
                49:8E:B8:D7:D7:4F:96:48:63:9C:A7:06:D0:45:A2:2D:BC:60:63:BD
            X509v3 Authority Key Identifier: 
                keyid:C4:46:F2:96:38:56:02:B8:9D:09:04:52:25:91:35:97:6A:D7:B1:F0
                DirName:/C=US/ST=California/L=San Francisco/O=Copyleft Certificate Co/OU=My Organizational Unit/CN=ChangeMe/emailAddress=me@example.net
                serial:D1:5A:15:1C:F0:20:95:62

            X509v3 Extended Key Usage: 
                TLS Web Client Authentication
            X509v3 Key Usage: 
                Digital Signature
    Signature Algorithm: sha256WithRSAEncryption
         a6:3a:e8:98:4e:4b:cf:a8:7d:63:a8:fa:79:60:fa:02:40:f1:
         59:9e:68:83:bc:ef:2f:97:9f:f4:8e:60:60:da:b1:70:e1:03:
         c5:39:e3:69:27:fe:97:4b:62:9c:84:15:77:ff:15:75:57:98:
         ad:05:28:e7:9c:a5:1d:d3:61:63:0e:7b:b6:a1:96:29:23:4d:
         29:01:f3:3a:fc:b2:d3:e9:82:b8:2d:72:72:c3:ed:c3:60:72:
         08:a2:8b:6f:f7:d9:d5:de:0a:0a:82:98:71:9a:25:6a:ef:73:
         57:89:e6:da:b1:63:7a:7f:4d:3e:c4:65:08:87:b4:ac:e3:77:
         43:f2:35:d5:ff:57:5b:02:02:be:06:b4:8b:85:18:ae:9b:b9:
         32:06:3a:73:e1:ac:9f:e5:88:10:64:75:7a:2a:80:75:55:27:
         3a:0a:bc:68:d8:22:db:8c:2e:86:98:e5:af:80:44:eb:c7:0a:
         e2:7d:85:7d:aa:08:a8:35:24:19:aa:1d:ce:e8:e3:fa:c5:95:
         53:c4:43:54:9c:95:84:d3:76:18:a3:e0:4e:19:c6:5a:74:9b:
         82:b9:5b:5b:bb:49:09:aa:67:1d:d9:da:41:90:05:bf:32:2f:
         3a:ea:13:d1:cd:e6:e6:61:57:a9:b4:84:2b:6c:56:41:d7:63:
         ac:25:fc:70
-----BEGIN CERTIFICATE-----
MIIFLzCCBBegAwIBAgIRAIcBh9I8jUquryXWmUfhh18wDQYJKoZIhvcNAQELBQAw
ga8xCzAJBgNVBAYTAlVTMRMwEQYDVQQIDApDYWxpZm9ybmlhMRYwFAYDVQQHDA1T
YW4gRnJhbmNpc2NvMSAwHgYDVQQKDBdDb3B5bGVmdCBDZXJ0aWZpY2F0ZSBDbzEf
MB0GA1UECwwWTXkgT3JnYW5pemF0aW9uYWwgVW5pdDERMA8GA1UEAwwIQ2hhbmdl
TWUxHTAbBgkqhkiG9w0BCQEWDm1lQGV4YW1wbGUubmV0MB4XDTIzMTExMjExNDYz
OVoXDTI0MTExMTExNDYzOVowgboxCzAJBgNVBAYTAlVTMQswCQYDVQQIDAJPSDET
MBEGA1UEBwwKQ2luY2lubmF0aTEhMB8GA1UECgwYVW5pdmVyc2l0eSBvZiBDaW5j
aW5uYXRpMSowKAYDVQQLDCFEZXB0LiBFbGVjLiBDb21wLiBFbmcuIENvbXAuIFNj
aS4xEDAOBgNVBAMMB2NsaWVudDYxKDAmBgkqhkiG9w0BCQEWGWZyYW5jb0BnYXVz
cy5lY2Vjcy51Yy5lZHUwggEiMA0GCSqGSIb3DQEBAQUAA4IBDwAwggEKAoIBAQCm
LIdf5Wf2ETSRZI5x2gvPX8bEp7DpRYpzRX1QR71ZWGsId2UE+xMptmJGvSeEJBqT
xKehSU/nZfVTGidfRVg2SxNB/WsWRRUBOAr6nqmlpjpF0N5lsQJHwLppzc/b6MDo
TmTzFOG3nKXijGTefw8pLQDVa+y68GHfAAcVQnwThCG0udS4qaoW4aY2jXoRfi6S
HRhtEu82pR+1780hvd8xrPJ1TryR0NP1PFU2KSVCPgv73OF61z7B/L2KJKQdG8oF
Fe3ryF/IQ0uRCFyMBN9wYoAomlZtt2KYsPJRXjeu6KzRc4HrXtsPnnPpKH0/4itq
zYJfBHW9mOlrK0SRoxxdAgMBAAGjggE3MIIBMzAJBgNVHRMEAjAAMB0GA1UdDgQW
BBRJjrjX10+WSGOcpwbQRaItvGBjvTCB5AYDVR0jBIHcMIHZgBTERvKWOFYCuJ0J
BFIlkTWXatex8KGBtaSBsjCBrzELMAkGA1UEBhMCVVMxEzARBgNVBAgMCkNhbGlm
b3JuaWExFjAUBgNVBAcMDVNhbiBGcmFuY2lzY28xIDAeBgNVBAoMF0NvcHlsZWZ0
IENlcnRpZmljYXRlIENvMR8wHQYDVQQLDBZNeSBPcmdhbml6YXRpb25hbCBVbml0
MREwDwYDVQQDDAhDaGFuZ2VNZTEdMBsGCSqGSIb3DQEJARYObWVAZXhhbXBsZS5u
ZXSCCQDRWhUc8CCVYjATBgNVHSUEDDAKBggrBgEFBQcDAjALBgNVHQ8EBAMCB4Aw
DQYJKoZIhvcNAQELBQADggEBAKY66JhOS8+ofWOo+nlg+gJA8VmeaIO87y+Xn/SO
YGDasXDhA8U542kn/pdLYpyEFXf/FXVXmK0FKOecpR3TYWMOe7ahlikjTSkB8zr8
stPpgrgtcnLD7cNgcgiii2/32dXeCgqCmHGaJWrvc1eJ5tqxY3p/TT7EZQiHtKzj
d0PyNdX/V1sCAr4GtIuFGK6buTIGOnPhrJ/liBBkdXoqgHVVJzoKvGjYItuMLoaY
5a+AROvHCuJ9hX2qCKg1JBmqHc7o4/rFlVPEQ1SclYTTdhij4E4Zxlp0m4K5W1u7
SQmqZx3Z2kGQBb8yLzrqE9HN5uZhV6m0hCtsVkHXY6wl/HA=
-----END CERTIFICATE-----
