Certificate:
    Data:
        Version: 3 (0x2)
        Serial Number:
            a9:85:a7:86:d5:1f:30:5c:14:0c:dd:ac:1f:9d:13:3e
    Signature Algorithm: sha256WithRSAEncryption
        Issuer: C=US, ST=California, L=San Francisco, O=Copyleft Certificate Co, OU=My Organizational Unit, CN=ChangeMe/emailAddress=me@example.net
        Validity
            Not Before: Jan 23 18:28:34 2021 GMT
            Not After : Jan 23 18:28:34 2022 GMT
        Subject: C=US, ST=OH, L=Cincinnati, O=University of Cincinnati, OU=Dept. Electrical Eng. and Computer Sci., CN=client55/emailAddress=franco@gauss.ececs.uc.edu
        Subject Public Key Info:
            Public Key Algorithm: rsaEncryption
                Public-Key: (2048 bit)
                Modulus:
                    00:c8:a6:43:61:e6:ea:4a:99:69:af:25:76:f0:2e:
                    fb:3f:49:14:ee:20:50:f2:bb:73:c7:14:a5:13:26:
                    51:9e:ce:87:9d:ec:0f:c4:10:cb:cf:05:cd:f5:5b:
                    eb:57:04:34:92:f6:56:3e:d3:bd:1f:a8:ed:c8:79:
                    68:e7:89:6b:f7:b2:47:11:16:a6:8a:0d:57:bc:e9:
                    41:30:d6:fb:d0:38:5f:5a:b1:ca:ea:cc:3e:b7:89:
                    7f:7b:70:42:2b:82:21:fa:ca:a4:df:e1:9f:d2:b2:
                    db:28:fb:e8:e1:e0:1e:aa:57:07:ad:48:e6:7d:aa:
                    d4:d3:a2:96:e3:26:6d:64:1d:0f:14:b3:bf:99:75:
                    14:35:0e:93:d4:98:7d:ce:17:d3:f7:7d:c8:14:8b:
                    b2:ec:a9:3e:85:36:04:57:ca:f8:ba:71:0c:bf:81:
                    53:b1:c2:12:d0:6f:77:af:e8:a6:68:a2:ef:1c:c8:
                    df:37:03:f5:5c:d5:06:69:39:87:27:fd:82:23:28:
                    22:60:a3:4c:8c:f4:5b:4d:64:45:07:d4:52:1c:75:
                    b0:52:55:01:d5:1d:05:e0:21:60:c7:ef:52:3f:b9:
                    92:90:eb:7a:6b:71:a6:33:b3:7f:8a:ac:5a:ec:ed:
                    63:8e:a9:16:ba:83:21:9f:18:e9:06:e9:84:86:cf:
                    53:c3
                Exponent: 65537 (0x10001)
        X509v3 extensions:
            X509v3 Basic Constraints: 
                CA:FALSE
            X509v3 Subject Key Identifier: 
                6C:02:76:AF:F0:EB:2D:C6:CE:92:96:AC:31:AF:7C:31:B8:AF:80:88
            X509v3 Authority Key Identifier: 
                keyid:EF:DC:B6:3D:4B:FD:A7:87:05:C5:22:3D:8B:DC:BF:99:2A:EE:E4:DB
                DirName:/C=US/ST=California/L=San Francisco/O=Copyleft Certificate Co/OU=My Organizational Unit/CN=ChangeMe/emailAddress=me@example.net
                serial:87:1E:1D:DC:6B:8C:66:88

            X509v3 Extended Key Usage: 
                TLS Web Client Authentication
            X509v3 Key Usage: 
                Digital Signature
    Signature Algorithm: sha256WithRSAEncryption
         8b:a3:83:21:bf:74:cb:ba:2c:45:3b:94:f5:42:d3:f7:6a:9c:
         23:82:72:81:fb:16:77:e7:a8:4d:ae:c3:4c:25:56:5e:09:fc:
         c0:2e:08:09:fe:cf:59:13:8a:1c:99:7a:21:93:a2:f6:22:b1:
         e6:80:70:b3:9a:92:74:5c:21:ed:2b:00:ad:18:0f:87:74:a5:
         66:f3:4b:8a:dc:98:0d:22:ab:8d:0e:32:41:98:17:4b:3a:01:
         ce:b8:f3:01:31:4a:e0:55:dd:c9:c5:17:36:a9:49:45:67:f3:
         28:33:4e:88:3d:bb:7a:45:b4:11:71:b0:d7:eb:5a:73:5c:d3:
         40:41:76:52:b3:57:77:49:35:63:1e:b3:03:f0:00:c3:77:5d:
         41:ba:02:db:02:13:31:89:ce:6a:d1:4e:1f:be:0e:31:55:41:
         3c:45:e7:2f:dc:7d:1a:5a:ad:10:09:36:44:ac:cb:01:f1:9a:
         77:55:b8:3e:29:74:04:08:3c:a4:d9:3f:e1:76:bd:8d:d8:1a:
         48:a5:2c:40:10:fe:77:a5:ad:cd:86:48:17:47:38:d2:30:51:
         1d:cf:6f:da:8a:65:13:69:1c:1b:65:cd:25:d0:c7:fb:c9:74:
         56:59:f2:25:b7:50:6c:6a:aa:88:b6:23:10:1a:5d:ea:1b:36:
         0c:7c:86:df
-----BEGIN CERTIFICATE-----
MIIFNjCCBB6gAwIBAgIRAKmFp4bVHzBcFAzdrB+dEz4wDQYJKoZIhvcNAQELBQAw
ga8xCzAJBgNVBAYTAlVTMRMwEQYDVQQIDApDYWxpZm9ybmlhMRYwFAYDVQQHDA1T
YW4gRnJhbmNpc2NvMSAwHgYDVQQKDBdDb3B5bGVmdCBDZXJ0aWZpY2F0ZSBDbzEf
MB0GA1UECwwWTXkgT3JnYW5pemF0aW9uYWwgVW5pdDERMA8GA1UEAwwIQ2hhbmdl
TWUxHTAbBgkqhkiG9w0BCQEWDm1lQGV4YW1wbGUubmV0MB4XDTIxMDEyMzE4Mjgz
NFoXDTIyMDEyMzE4MjgzNFowgcExCzAJBgNVBAYTAlVTMQswCQYDVQQIDAJPSDET
MBEGA1UEBwwKQ2luY2lubmF0aTEhMB8GA1UECgwYVW5pdmVyc2l0eSBvZiBDaW5j
aW5uYXRpMTAwLgYDVQQLDCdEZXB0LiBFbGVjdHJpY2FsIEVuZy4gYW5kIENvbXB1
dGVyIFNjaS4xETAPBgNVBAMMCGNsaWVudDU1MSgwJgYJKoZIhvcNAQkBFhlmcmFu
Y29AZ2F1c3MuZWNlY3MudWMuZWR1MIIBIjANBgkqhkiG9w0BAQEFAAOCAQ8AMIIB
CgKCAQEAyKZDYebqSplpryV28C77P0kU7iBQ8rtzxxSlEyZRns6HnewPxBDLzwXN
9VvrVwQ0kvZWPtO9H6jtyHlo54lr97JHERamig1XvOlBMNb70DhfWrHK6sw+t4l/
e3BCK4Ih+sqk3+Gf0rLbKPvo4eAeqlcHrUjmfarU06KW4yZtZB0PFLO/mXUUNQ6T
1Jh9zhfT933IFIuy7Kk+hTYEV8r4unEMv4FTscIS0G93r+imaKLvHMjfNwP1XNUG
aTmHJ/2CIygiYKNMjPRbTWRFB9RSHHWwUlUB1R0F4CFgx+9SP7mSkOt6a3GmM7N/
iqxa7O1jjqkWuoMhnxjpBumEhs9TwwIDAQABo4IBNzCCATMwCQYDVR0TBAIwADAd
BgNVHQ4EFgQUbAJ2r/DrLcbOkpasMa98MbivgIgwgeQGA1UdIwSB3DCB2YAU79y2
PUv9p4cFxSI9i9y/mSru5NuhgbWkgbIwga8xCzAJBgNVBAYTAlVTMRMwEQYDVQQI
DApDYWxpZm9ybmlhMRYwFAYDVQQHDA1TYW4gRnJhbmNpc2NvMSAwHgYDVQQKDBdD
b3B5bGVmdCBDZXJ0aWZpY2F0ZSBDbzEfMB0GA1UECwwWTXkgT3JnYW5pemF0aW9u
YWwgVW5pdDERMA8GA1UEAwwIQ2hhbmdlTWUxHTAbBgkqhkiG9w0BCQEWDm1lQGV4
YW1wbGUubmV0ggkAhx4d3GuMZogwEwYDVR0lBAwwCgYIKwYBBQUHAwIwCwYDVR0P
BAQDAgeAMA0GCSqGSIb3DQEBCwUAA4IBAQCLo4Mhv3TLuixFO5T1QtP3apwjgnKB
+xZ356hNrsNMJVZeCfzALggJ/s9ZE4ocmXohk6L2IrHmgHCzmpJ0XCHtKwCtGA+H
dKVm80uK3JgNIquNDjJBmBdLOgHOuPMBMUrgVd3JxRc2qUlFZ/MoM06IPbt6RbQR
cbDX61pzXNNAQXZSs1d3STVjHrMD8ADDd11BugLbAhMxic5q0U4fvg4xVUE8Recv
3H0aWq0QCTZErMsB8Zp3Vbg+KXQECDyk2T/hdr2N2BpIpSxAEP53pa3NhkgXRzjS
MFEdz2/aimUTaRwbZc0l0Mf7yXRWWfIlt1BsaqqItiMQGl3qGzYMfIbf
-----END CERTIFICATE-----
