Certificate:
    Data:
        Version: 3 (0x2)
        Serial Number:
            4a:eb:12:87:be:01:87:b7:92:d9:d3:ab:df:6c:b8:d2
    Signature Algorithm: sha256WithRSAEncryption
        Issuer: C=US, ST=California, L=San Francisco, O=Copyleft Certificate Co, OU=My Organizational Unit, CN=ChangeMe/emailAddress=me@example.net
        Validity
            Not Before: Jan 23 18:27:56 2021 GMT
            Not After : Jan 23 18:27:56 2022 GMT
        Subject: C=US, ST=OH, L=Cincinnati, O=University of Cincinnati, OU=Dept. Electrical Eng. and Computer Sci., CN=client28/emailAddress=franco@gauss.ececs.uc.edu
        Subject Public Key Info:
            Public Key Algorithm: rsaEncryption
                Public-Key: (2048 bit)
                Modulus:
                    00:ad:19:3d:19:76:fa:df:c2:2f:2d:56:17:50:58:
                    02:29:8a:31:b4:c8:ac:c8:ef:46:76:69:7c:27:d2:
                    b7:32:8e:07:e8:35:36:d9:4c:cc:ee:00:08:eb:03:
                    0c:46:4a:25:ed:7f:56:cf:82:17:6e:07:5a:64:28:
                    42:13:3f:0f:d1:88:5b:5b:6e:f4:8d:bd:d6:e0:44:
                    f1:77:01:32:3e:d1:9a:be:58:8a:d2:a0:d0:cd:79:
                    82:ec:a2:a2:7f:ee:8d:ae:32:3d:e2:4f:e6:9e:70:
                    0d:7f:e5:fb:b5:1a:b8:1e:d1:d4:c7:d2:e0:f9:19:
                    39:a9:f4:33:57:a4:20:d5:44:62:70:f7:60:c8:3b:
                    ff:2f:b8:70:02:f8:5d:bd:03:cc:aa:85:39:30:0b:
                    0c:48:50:5c:22:86:1c:94:72:0e:25:66:06:40:aa:
                    f1:5d:fe:16:cd:45:91:f1:78:91:ba:42:4d:1c:4a:
                    2c:6c:17:91:da:7f:ac:f3:d5:42:21:61:33:2b:64:
                    44:31:fc:5d:0e:18:dd:55:df:65:1f:3e:90:ff:e5:
                    07:32:6f:4c:53:dc:0e:b4:10:73:61:ad:f0:47:7a:
                    97:28:81:a9:f5:e0:b7:83:6c:ff:1d:a9:de:cb:45:
                    4e:bb:c4:f5:c0:0d:b5:8f:ce:6a:d9:7a:a6:9e:1f:
                    9b:f1
                Exponent: 65537 (0x10001)
        X509v3 extensions:
            X509v3 Basic Constraints: 
                CA:FALSE
            X509v3 Subject Key Identifier: 
                68:91:B7:53:E7:F3:D6:A9:1B:03:4A:67:B4:C2:0B:0E:9D:A5:21:0F
            X509v3 Authority Key Identifier: 
                keyid:EF:DC:B6:3D:4B:FD:A7:87:05:C5:22:3D:8B:DC:BF:99:2A:EE:E4:DB
                DirName:/C=US/ST=California/L=San Francisco/O=Copyleft Certificate Co/OU=My Organizational Unit/CN=ChangeMe/emailAddress=me@example.net
                serial:87:1E:1D:DC:6B:8C:66:88

            X509v3 Extended Key Usage: 
                TLS Web Client Authentication
            X509v3 Key Usage: 
                Digital Signature
    Signature Algorithm: sha256WithRSAEncryption
         92:3b:13:d2:63:e7:e8:2d:b3:8c:01:c1:0b:0b:b1:5e:d1:4f:
         a5:a6:cf:61:5a:de:21:50:2f:f6:60:ce:61:7a:f6:da:11:2d:
         52:0a:a0:d1:be:83:fe:47:46:19:84:28:7f:d1:fa:4f:f0:a2:
         92:18:3c:96:eb:4e:7f:65:88:41:fa:07:1c:00:e8:be:49:59:
         7f:c3:8e:c5:e6:7b:3c:20:e8:8d:a7:4b:96:9b:8e:d5:f4:71:
         b6:b1:81:bb:a3:4b:85:d1:36:4d:53:ec:54:41:df:32:42:82:
         a6:de:c7:97:1a:df:7d:bd:18:32:3d:af:8a:c9:2d:fa:e7:db:
         8f:0b:68:1d:49:3a:32:9d:eb:91:3a:31:a2:24:ee:4b:3f:22:
         8c:b4:ca:90:92:ce:a9:3e:23:33:98:3b:41:33:90:c4:f4:df:
         bc:f4:2d:fb:55:6f:21:47:e7:52:76:48:f2:20:5b:df:c9:b7:
         66:39:4f:13:c5:bc:14:2a:94:31:63:53:42:f0:39:68:6f:e0:
         4e:45:2b:b3:c3:07:60:3d:db:8e:32:6c:d9:ff:a4:05:6c:15:
         d5:de:9b:66:43:b7:3d:cb:64:66:75:ec:f2:05:ea:c9:2c:d8:
         de:99:c5:5e:9f:f1:ad:e8:7c:51:87:f7:0c:33:c7:1c:df:11:
         a3:9b:aa:85
-----BEGIN CERTIFICATE-----
MIIFNTCCBB2gAwIBAgIQSusSh74Bh7eS2dOr32y40jANBgkqhkiG9w0BAQsFADCB
rzELMAkGA1UEBhMCVVMxEzARBgNVBAgMCkNhbGlmb3JuaWExFjAUBgNVBAcMDVNh
biBGcmFuY2lzY28xIDAeBgNVBAoMF0NvcHlsZWZ0IENlcnRpZmljYXRlIENvMR8w
HQYDVQQLDBZNeSBPcmdhbml6YXRpb25hbCBVbml0MREwDwYDVQQDDAhDaGFuZ2VN
ZTEdMBsGCSqGSIb3DQEJARYObWVAZXhhbXBsZS5uZXQwHhcNMjEwMTIzMTgyNzU2
WhcNMjIwMTIzMTgyNzU2WjCBwTELMAkGA1UEBhMCVVMxCzAJBgNVBAgMAk9IMRMw
EQYDVQQHDApDaW5jaW5uYXRpMSEwHwYDVQQKDBhVbml2ZXJzaXR5IG9mIENpbmNp
bm5hdGkxMDAuBgNVBAsMJ0RlcHQuIEVsZWN0cmljYWwgRW5nLiBhbmQgQ29tcHV0
ZXIgU2NpLjERMA8GA1UEAwwIY2xpZW50MjgxKDAmBgkqhkiG9w0BCQEWGWZyYW5j
b0BnYXVzcy5lY2Vjcy51Yy5lZHUwggEiMA0GCSqGSIb3DQEBAQUAA4IBDwAwggEK
AoIBAQCtGT0Zdvrfwi8tVhdQWAIpijG0yKzI70Z2aXwn0rcyjgfoNTbZTMzuAAjr
AwxGSiXtf1bPghduB1pkKEITPw/RiFtbbvSNvdbgRPF3ATI+0Zq+WIrSoNDNeYLs
oqJ/7o2uMj3iT+aecA1/5fu1Grge0dTH0uD5GTmp9DNXpCDVRGJw92DIO/8vuHAC
+F29A8yqhTkwCwxIUFwihhyUcg4lZgZAqvFd/hbNRZHxeJG6Qk0cSixsF5Haf6zz
1UIhYTMrZEQx/F0OGN1V32UfPpD/5Qcyb0xT3A60EHNhrfBHepcogan14LeDbP8d
qd7LRU67xPXADbWPzmrZeqaeH5vxAgMBAAGjggE3MIIBMzAJBgNVHRMEAjAAMB0G
A1UdDgQWBBRokbdT5/PWqRsDSme0wgsOnaUhDzCB5AYDVR0jBIHcMIHZgBTv3LY9
S/2nhwXFIj2L3L+ZKu7k26GBtaSBsjCBrzELMAkGA1UEBhMCVVMxEzARBgNVBAgM
CkNhbGlmb3JuaWExFjAUBgNVBAcMDVNhbiBGcmFuY2lzY28xIDAeBgNVBAoMF0Nv
cHlsZWZ0IENlcnRpZmljYXRlIENvMR8wHQYDVQQLDBZNeSBPcmdhbml6YXRpb25h
bCBVbml0MREwDwYDVQQDDAhDaGFuZ2VNZTEdMBsGCSqGSIb3DQEJARYObWVAZXhh
bXBsZS5uZXSCCQCHHh3ca4xmiDATBgNVHSUEDDAKBggrBgEFBQcDAjALBgNVHQ8E
BAMCB4AwDQYJKoZIhvcNAQELBQADggEBAJI7E9Jj5+gts4wBwQsLsV7RT6Wmz2Fa
3iFQL/ZgzmF69toRLVIKoNG+g/5HRhmEKH/R+k/wopIYPJbrTn9liEH6BxwA6L5J
WX/DjsXmezwg6I2nS5abjtX0cbaxgbujS4XRNk1T7FRB3zJCgqbex5ca3329GDI9
r4rJLfrn248LaB1JOjKd65E6MaIk7ks/Ioy0ypCSzqk+IzOYO0EzkMT037z0LftV
byFH51J2SPIgW9/Jt2Y5TxPFvBQqlDFjU0LwOWhv4E5FK7PDB2A9244ybNn/pAVs
FdXem2ZDtz3LZGZ17PIF6sks2N6ZxV6f8a3ofFGH9wwzxxzfEaObqoU=
-----END CERTIFICATE-----
