Certificate:
    Data:
        Version: 3 (0x2)
        Serial Number:
            a5:64:bb:6b:46:e5:2c:02:9c:0e:88:e8:f3:f0:c0:a4
    Signature Algorithm: sha256WithRSAEncryption
        Issuer: C=US, ST=California, L=San Francisco, O=Copyleft Certificate Co, OU=My Organizational Unit, CN=ChangeMe/emailAddress=me@example.net
        Validity
            Not Before: Jan 23 18:27:23 2021 GMT
            Not After : Jan 23 18:27:23 2022 GMT
        Subject: C=US, ST=OH, L=Cincinnati, O=University of Cincinnati, OU=Dept. Electrical Eng. and Computer Sci., CN=client4/emailAddress=franco@gauss.ececs.uc.edu
        Subject Public Key Info:
            Public Key Algorithm: rsaEncryption
                Public-Key: (2048 bit)
                Modulus:
                    00:df:d7:fc:10:a9:99:35:d3:ab:d0:66:bf:54:94:
                    4e:0b:72:5f:69:27:83:d8:c6:df:d2:54:39:23:62:
                    2d:31:79:7e:42:81:25:46:85:8c:00:c7:4f:9f:da:
                    a6:0c:fe:5a:df:15:26:d4:25:9e:00:27:d7:4b:c4:
                    22:48:82:cc:ae:8d:c7:04:be:60:b2:87:93:1f:e7:
                    1f:24:39:e8:3f:25:7e:00:31:27:1b:1f:47:7a:18:
                    50:e2:6a:8c:d4:ce:db:93:c9:3e:41:5b:75:c4:cc:
                    6f:dd:1c:bc:74:67:10:df:95:88:bd:16:95:5f:7c:
                    ac:79:10:14:5b:af:45:c1:e5:7b:8e:a3:07:e2:3b:
                    92:1a:07:af:d1:9e:4c:1a:06:36:1c:ef:c7:df:66:
                    42:28:b9:28:94:11:19:a5:19:bb:e8:4d:b0:58:1b:
                    81:9c:bb:76:45:01:58:de:05:bd:fa:f9:85:47:d8:
                    ac:af:60:83:d5:f0:5e:3a:30:ee:a1:c6:c1:4c:51:
                    bd:bc:c4:43:2e:64:51:75:cb:34:a0:08:58:81:5b:
                    aa:29:ef:e9:dd:69:47:cc:88:1f:d1:50:6d:6b:fa:
                    d5:5b:8d:76:0b:32:93:ef:7c:d9:93:cf:fa:bc:0b:
                    d0:9c:30:05:59:f9:0d:11:4c:03:96:d6:cb:a5:86:
                    23:dd
                Exponent: 65537 (0x10001)
        X509v3 extensions:
            X509v3 Basic Constraints: 
                CA:FALSE
            X509v3 Subject Key Identifier: 
                CC:42:81:D8:85:C1:43:57:C8:04:4F:5D:A0:2A:44:4F:19:96:E0:EE
            X509v3 Authority Key Identifier: 
                keyid:EF:DC:B6:3D:4B:FD:A7:87:05:C5:22:3D:8B:DC:BF:99:2A:EE:E4:DB
                DirName:/C=US/ST=California/L=San Francisco/O=Copyleft Certificate Co/OU=My Organizational Unit/CN=ChangeMe/emailAddress=me@example.net
                serial:87:1E:1D:DC:6B:8C:66:88

            X509v3 Extended Key Usage: 
                TLS Web Client Authentication
            X509v3 Key Usage: 
                Digital Signature
    Signature Algorithm: sha256WithRSAEncryption
         21:4e:2a:5b:82:25:5a:48:68:0d:cf:18:e9:45:a0:9f:b8:c3:
         67:23:e8:dd:a3:c4:b7:56:ed:13:35:8a:38:3f:97:24:96:ea:
         54:7a:15:bb:a0:c3:f9:da:06:a7:99:6b:76:40:6b:16:2f:e8:
         50:3e:23:43:7b:da:9f:47:b3:1e:72:41:a9:5e:cb:b5:bf:68:
         6e:da:e4:7b:34:ee:a7:40:4e:c4:93:69:fe:9d:a4:4a:f9:8c:
         14:05:9f:53:ae:ea:5c:2a:7d:a6:38:e2:cf:1b:7b:c8:9f:12:
         05:e9:81:84:00:99:47:d5:29:8f:88:ec:a5:47:11:c3:fa:69:
         2b:68:de:af:60:7f:40:af:bb:ee:97:c0:ae:d2:05:69:fa:a5:
         ab:93:d6:88:fb:6a:47:00:57:c5:df:a6:fd:32:33:ae:0f:30:
         6f:4a:99:70:ec:ce:93:9b:e9:3f:65:d1:17:d0:b2:e7:3c:80:
         17:ad:c3:9a:80:73:27:93:c5:b9:83:50:33:a4:d2:4a:90:a4:
         99:d3:82:d0:db:fa:c5:2c:eb:84:5b:ce:8d:ea:a5:87:f2:88:
         10:fd:4f:60:02:96:29:5b:0d:d5:79:58:98:df:a7:33:26:3c:
         c3:a4:0e:e1:16:aa:e2:94:6e:c0:b5:de:36:55:a7:02:23:67:
         ef:21:3b:64
-----BEGIN CERTIFICATE-----
MIIFNTCCBB2gAwIBAgIRAKVku2tG5SwCnA6I6PPwwKQwDQYJKoZIhvcNAQELBQAw
ga8xCzAJBgNVBAYTAlVTMRMwEQYDVQQIDApDYWxpZm9ybmlhMRYwFAYDVQQHDA1T
YW4gRnJhbmNpc2NvMSAwHgYDVQQKDBdDb3B5bGVmdCBDZXJ0aWZpY2F0ZSBDbzEf
MB0GA1UECwwWTXkgT3JnYW5pemF0aW9uYWwgVW5pdDERMA8GA1UEAwwIQ2hhbmdl
TWUxHTAbBgkqhkiG9w0BCQEWDm1lQGV4YW1wbGUubmV0MB4XDTIxMDEyMzE4Mjcy
M1oXDTIyMDEyMzE4MjcyM1owgcAxCzAJBgNVBAYTAlVTMQswCQYDVQQIDAJPSDET
MBEGA1UEBwwKQ2luY2lubmF0aTEhMB8GA1UECgwYVW5pdmVyc2l0eSBvZiBDaW5j
aW5uYXRpMTAwLgYDVQQLDCdEZXB0LiBFbGVjdHJpY2FsIEVuZy4gYW5kIENvbXB1
dGVyIFNjaS4xEDAOBgNVBAMMB2NsaWVudDQxKDAmBgkqhkiG9w0BCQEWGWZyYW5j
b0BnYXVzcy5lY2Vjcy51Yy5lZHUwggEiMA0GCSqGSIb3DQEBAQUAA4IBDwAwggEK
AoIBAQDf1/wQqZk106vQZr9UlE4Lcl9pJ4PYxt/SVDkjYi0xeX5CgSVGhYwAx0+f
2qYM/lrfFSbUJZ4AJ9dLxCJIgsyujccEvmCyh5Mf5x8kOeg/JX4AMScbH0d6GFDi
aozUztuTyT5BW3XEzG/dHLx0ZxDflYi9FpVffKx5EBRbr0XB5XuOowfiO5IaB6/R
nkwaBjYc78ffZkIouSiUERmlGbvoTbBYG4Gcu3ZFAVjeBb36+YVH2KyvYIPV8F46
MO6hxsFMUb28xEMuZFF1yzSgCFiBW6op7+ndaUfMiB/RUG1r+tVbjXYLMpPvfNmT
z/q8C9CcMAVZ+Q0RTAOW1sulhiPdAgMBAAGjggE3MIIBMzAJBgNVHRMEAjAAMB0G
A1UdDgQWBBTMQoHYhcFDV8gET12gKkRPGZbg7jCB5AYDVR0jBIHcMIHZgBTv3LY9
S/2nhwXFIj2L3L+ZKu7k26GBtaSBsjCBrzELMAkGA1UEBhMCVVMxEzARBgNVBAgM
CkNhbGlmb3JuaWExFjAUBgNVBAcMDVNhbiBGcmFuY2lzY28xIDAeBgNVBAoMF0Nv
cHlsZWZ0IENlcnRpZmljYXRlIENvMR8wHQYDVQQLDBZNeSBPcmdhbml6YXRpb25h
bCBVbml0MREwDwYDVQQDDAhDaGFuZ2VNZTEdMBsGCSqGSIb3DQEJARYObWVAZXhh
bXBsZS5uZXSCCQCHHh3ca4xmiDATBgNVHSUEDDAKBggrBgEFBQcDAjALBgNVHQ8E
BAMCB4AwDQYJKoZIhvcNAQELBQADggEBACFOKluCJVpIaA3PGOlFoJ+4w2cj6N2j
xLdW7RM1ijg/lySW6lR6Fbugw/naBqeZa3ZAaxYv6FA+I0N72p9Hsx5yQaley7W/
aG7a5Hs07qdATsSTaf6dpEr5jBQFn1Ou6lwqfaY44s8be8ifEgXpgYQAmUfVKY+I
7KVHEcP6aSto3q9gf0Cvu+6XwK7SBWn6pauT1oj7akcAV8Xfpv0yM64PMG9KmXDs
zpOb6T9l0RfQsuc8gBetw5qAcyeTxbmDUDOk0kqQpJnTgtDb+sUs64Rbzo3qpYfy
iBD9T2AClilbDdV5WJjfpzMmPMOkDuEWquKUbsC13jZVpwIjZ+8hO2Q=
-----END CERTIFICATE-----
