Certificate:
    Data:
        Version: 3 (0x2)
        Serial Number:
            a6:32:55:f1:68:5e:82:69:4a:3a:f2:c9:71:b7:76:37
    Signature Algorithm: sha256WithRSAEncryption
        Issuer: C=US, ST=California, L=San Francisco, O=Copyleft Certificate Co, OU=My Organizational Unit, CN=ChangeMe/emailAddress=me@example.net
        Validity
            Not Before: Jan 23 18:29:12 2021 GMT
            Not After : Jan 23 18:29:12 2022 GMT
        Subject: C=US, ST=OH, L=Cincinnati, O=University of Cincinnati, OU=Dept. Electrical Eng. and Computer Sci., CN=client83/emailAddress=franco@gauss.ececs.uc.edu
        Subject Public Key Info:
            Public Key Algorithm: rsaEncryption
                Public-Key: (2048 bit)
                Modulus:
                    00:ba:a7:57:c3:00:57:8a:8b:c6:d4:65:93:fe:b7:
                    95:4d:0f:33:62:7e:3e:9c:46:5a:ab:f5:5f:28:f5:
                    29:55:84:0f:70:bb:ec:7f:d2:37:60:c5:49:8a:c2:
                    7e:86:fe:1b:b4:e3:c9:44:b7:73:bf:b0:4d:29:2d:
                    51:ff:42:b2:ef:f8:b6:e1:5a:59:cb:51:cc:e7:77:
                    f7:55:f6:16:39:4b:93:88:80:b9:d5:c3:63:25:e7:
                    69:b2:32:07:c1:86:8b:70:90:3c:dd:c5:51:88:70:
                    ed:6d:a9:47:69:e1:b9:c2:c9:ee:a0:f9:31:2a:29:
                    7a:33:ce:61:eb:6d:bb:d6:53:b3:7d:91:54:9f:73:
                    f1:d4:30:09:41:d4:c5:ea:f5:11:78:e8:e4:b8:4e:
                    e6:5e:3e:a6:99:d7:67:91:a9:5c:93:69:b9:b7:bf:
                    94:78:0f:80:80:aa:e0:60:3e:aa:78:72:41:b2:e3:
                    b3:91:ff:6d:f3:9b:ad:88:e7:ae:ec:cb:0a:f9:cc:
                    b5:cc:09:bd:1b:a5:7f:7d:f6:e4:cd:11:d3:0c:97:
                    94:92:e4:64:fa:63:08:3f:39:ac:29:4a:22:bb:08:
                    a1:89:fe:d2:ae:cc:8f:ad:41:fb:b2:63:d6:d2:86:
                    04:a7:71:59:13:54:47:b9:df:3a:36:ba:71:51:9b:
                    c2:75
                Exponent: 65537 (0x10001)
        X509v3 extensions:
            X509v3 Basic Constraints: 
                CA:FALSE
            X509v3 Subject Key Identifier: 
                04:C3:F9:21:94:14:66:5B:64:E2:B3:25:65:9B:73:40:0F:78:F3:E9
            X509v3 Authority Key Identifier: 
                keyid:EF:DC:B6:3D:4B:FD:A7:87:05:C5:22:3D:8B:DC:BF:99:2A:EE:E4:DB
                DirName:/C=US/ST=California/L=San Francisco/O=Copyleft Certificate Co/OU=My Organizational Unit/CN=ChangeMe/emailAddress=me@example.net
                serial:87:1E:1D:DC:6B:8C:66:88

            X509v3 Extended Key Usage: 
                TLS Web Client Authentication
            X509v3 Key Usage: 
                Digital Signature
    Signature Algorithm: sha256WithRSAEncryption
         b0:d4:25:fc:03:d8:12:e6:de:4b:75:ea:11:83:fb:78:70:c0:
         0b:71:7e:23:3c:6f:34:65:00:7e:e8:49:ac:8f:84:d4:48:95:
         57:7d:df:2c:33:14:7a:66:df:c2:fd:40:e0:d2:e6:7d:bd:cc:
         69:10:f7:de:f3:94:6d:34:60:c4:88:1d:c1:cd:74:e4:84:1d:
         ec:99:03:ec:91:c1:10:04:33:82:28:9b:5e:2f:48:42:0e:a0:
         39:ac:bc:a2:d6:3c:4e:67:df:30:89:97:cb:5e:63:56:6f:de:
         6d:51:04:bd:27:4d:9e:5d:a4:53:05:04:0a:99:3c:19:a2:4c:
         7c:d9:41:ee:78:4f:6c:1c:02:2f:f6:27:c1:8c:57:86:90:7c:
         8d:42:54:93:23:2f:4b:d2:e3:43:5c:1b:99:61:35:75:29:14:
         72:95:91:7a:02:dc:29:37:aa:4f:a2:a4:77:52:7b:8d:51:ee:
         62:09:60:1f:bf:0f:c8:4a:09:30:c4:33:fe:c8:b1:29:08:2b:
         a6:8f:7a:92:48:2c:b4:34:84:3b:c8:d8:f1:21:0d:c7:3c:88:
         b5:e7:39:5e:eb:3f:06:4c:4e:67:db:ff:b6:12:4e:47:aa:c1:
         38:b5:7c:89:9b:69:e8:e4:c1:ab:66:bf:0c:f7:2e:fa:ec:57:
         ca:cf:bf:0a
-----BEGIN CERTIFICATE-----
MIIFNjCCBB6gAwIBAgIRAKYyVfFoXoJpSjryyXG3djcwDQYJKoZIhvcNAQELBQAw
ga8xCzAJBgNVBAYTAlVTMRMwEQYDVQQIDApDYWxpZm9ybmlhMRYwFAYDVQQHDA1T
YW4gRnJhbmNpc2NvMSAwHgYDVQQKDBdDb3B5bGVmdCBDZXJ0aWZpY2F0ZSBDbzEf
MB0GA1UECwwWTXkgT3JnYW5pemF0aW9uYWwgVW5pdDERMA8GA1UEAwwIQ2hhbmdl
TWUxHTAbBgkqhkiG9w0BCQEWDm1lQGV4YW1wbGUubmV0MB4XDTIxMDEyMzE4Mjkx
MloXDTIyMDEyMzE4MjkxMlowgcExCzAJBgNVBAYTAlVTMQswCQYDVQQIDAJPSDET
MBEGA1UEBwwKQ2luY2lubmF0aTEhMB8GA1UECgwYVW5pdmVyc2l0eSBvZiBDaW5j
aW5uYXRpMTAwLgYDVQQLDCdEZXB0LiBFbGVjdHJpY2FsIEVuZy4gYW5kIENvbXB1
dGVyIFNjaS4xETAPBgNVBAMMCGNsaWVudDgzMSgwJgYJKoZIhvcNAQkBFhlmcmFu
Y29AZ2F1c3MuZWNlY3MudWMuZWR1MIIBIjANBgkqhkiG9w0BAQEFAAOCAQ8AMIIB
CgKCAQEAuqdXwwBXiovG1GWT/reVTQ8zYn4+nEZaq/VfKPUpVYQPcLvsf9I3YMVJ
isJ+hv4btOPJRLdzv7BNKS1R/0Ky7/i24VpZy1HM53f3VfYWOUuTiIC51cNjJedp
sjIHwYaLcJA83cVRiHDtbalHaeG5wsnuoPkxKil6M85h62271lOzfZFUn3Px1DAJ
QdTF6vUReOjkuE7mXj6mmddnkalck2m5t7+UeA+AgKrgYD6qeHJBsuOzkf9t85ut
iOeu7MsK+cy1zAm9G6V/ffbkzRHTDJeUkuRk+mMIPzmsKUoiuwihif7SrsyPrUH7
smPW0oYEp3FZE1RHud86NrpxUZvCdQIDAQABo4IBNzCCATMwCQYDVR0TBAIwADAd
BgNVHQ4EFgQUBMP5IZQUZltk4rMlZZtzQA948+kwgeQGA1UdIwSB3DCB2YAU79y2
PUv9p4cFxSI9i9y/mSru5NuhgbWkgbIwga8xCzAJBgNVBAYTAlVTMRMwEQYDVQQI
DApDYWxpZm9ybmlhMRYwFAYDVQQHDA1TYW4gRnJhbmNpc2NvMSAwHgYDVQQKDBdD
b3B5bGVmdCBDZXJ0aWZpY2F0ZSBDbzEfMB0GA1UECwwWTXkgT3JnYW5pemF0aW9u
YWwgVW5pdDERMA8GA1UEAwwIQ2hhbmdlTWUxHTAbBgkqhkiG9w0BCQEWDm1lQGV4
YW1wbGUubmV0ggkAhx4d3GuMZogwEwYDVR0lBAwwCgYIKwYBBQUHAwIwCwYDVR0P
BAQDAgeAMA0GCSqGSIb3DQEBCwUAA4IBAQCw1CX8A9gS5t5LdeoRg/t4cMALcX4j
PG80ZQB+6Emsj4TUSJVXfd8sMxR6Zt/C/UDg0uZ9vcxpEPfe85RtNGDEiB3BzXTk
hB3smQPskcEQBDOCKJteL0hCDqA5rLyi1jxOZ98wiZfLXmNWb95tUQS9J02eXaRT
BQQKmTwZokx82UHueE9sHAIv9ifBjFeGkHyNQlSTIy9L0uNDXBuZYTV1KRRylZF6
AtwpN6pPoqR3UnuNUe5iCWAfvw/ISgkwxDP+yLEpCCumj3qSSCy0NIQ7yNjxIQ3H
PIi15zle6z8GTE5n2/+2Ek5HqsE4tXyJm2no5MGrZr8M9y767FfKz78K
-----END CERTIFICATE-----
