Certificate:
    Data:
        Version: 3 (0x2)
        Serial Number:
            b5:78:a7:44:d1:e7:a5:6a:89:ce:65:bf:85:62:f6:fb
    Signature Algorithm: sha256WithRSAEncryption
        Issuer: C=US, ST=California, L=San Francisco, O=Copyleft Certificate Co, OU=My Organizational Unit, CN=ChangeMe/emailAddress=me@example.net
        Validity
            Not Before: Jan 23 18:30:05 2021 GMT
            Not After : Jan 23 18:30:05 2022 GMT
        Subject: C=US, ST=OH, L=Cincinnati, O=University of Cincinnati, OU=Dept. Electrical Eng. and Computer Sci., CN=client119/emailAddress=franco@gauss.ececs.uc.edu
        Subject Public Key Info:
            Public Key Algorithm: rsaEncryption
                Public-Key: (2048 bit)
                Modulus:
                    00:e0:bb:3f:3a:44:ac:bf:c6:3e:73:3f:57:8a:50:
                    87:5e:67:30:86:ea:7c:a8:52:85:e9:bf:9a:f5:a0:
                    27:d8:48:9c:f0:88:b5:d3:45:95:8d:e5:4f:98:b8:
                    e7:c4:ba:f5:16:35:8a:80:0b:a1:af:31:99:26:b8:
                    6c:6a:ce:82:83:9f:71:c4:e7:03:6f:7f:e5:53:bd:
                    a8:d5:b0:97:ce:20:fe:fa:53:f9:00:aa:b1:b7:cc:
                    23:40:0a:28:28:8c:e9:36:fe:c9:9e:3d:a1:a4:1e:
                    89:66:ff:51:ae:82:9d:d1:16:69:71:77:09:b4:9f:
                    9c:00:ce:ee:d1:e8:b0:37:e3:ba:29:e4:64:9b:23:
                    ef:9f:30:a7:35:68:3c:7f:04:59:fa:62:db:fd:93:
                    84:12:77:49:54:fa:fa:f7:c8:f0:95:e1:48:79:9c:
                    96:7d:59:f1:d3:c0:0b:85:65:24:45:aa:d2:47:81:
                    0c:b0:da:e0:fe:52:2f:8f:e3:32:76:03:90:20:76:
                    f6:ea:36:61:39:19:e8:c0:7d:2c:2a:b6:29:ce:c0:
                    f5:eb:aa:38:15:29:c1:7b:1c:41:68:cd:0a:d4:e6:
                    8b:9d:0c:03:ae:86:72:37:a9:34:23:9e:a3:f3:08:
                    50:26:35:af:0e:ae:ef:c7:bc:24:bc:b2:c4:f2:6a:
                    a8:cb
                Exponent: 65537 (0x10001)
        X509v3 extensions:
            X509v3 Basic Constraints: 
                CA:FALSE
            X509v3 Subject Key Identifier: 
                EE:7A:1D:82:E6:3E:A0:B0:79:C5:70:74:DB:73:A3:DB:1E:06:DE:8B
            X509v3 Authority Key Identifier: 
                keyid:EF:DC:B6:3D:4B:FD:A7:87:05:C5:22:3D:8B:DC:BF:99:2A:EE:E4:DB
                DirName:/C=US/ST=California/L=San Francisco/O=Copyleft Certificate Co/OU=My Organizational Unit/CN=ChangeMe/emailAddress=me@example.net
                serial:87:1E:1D:DC:6B:8C:66:88

            X509v3 Extended Key Usage: 
                TLS Web Client Authentication
            X509v3 Key Usage: 
                Digital Signature
    Signature Algorithm: sha256WithRSAEncryption
         37:e7:cf:42:8e:9c:01:7a:38:a3:5a:89:a1:00:6f:ca:1a:06:
         98:4c:48:87:01:34:fa:d8:15:b9:78:b7:60:fc:97:68:d8:6d:
         92:cc:69:fb:c6:f5:8f:dc:63:ea:5d:67:0c:1e:60:e4:5a:0a:
         e0:4b:9f:27:77:e6:7f:a8:1f:5d:75:48:85:2f:ba:35:5a:6f:
         cc:a3:db:61:5f:d1:43:20:81:e7:27:23:57:d5:84:cb:14:4a:
         19:40:c9:f1:bb:e5:fe:3b:00:b4:6e:45:cc:05:f0:cb:f7:fd:
         9d:e3:c1:99:ad:50:f6:4d:de:2f:97:ab:c6:a7:a0:77:ef:14:
         64:9f:3c:15:fe:d4:4f:03:5b:28:28:39:b7:63:5a:8c:62:e7:
         3c:e0:10:43:d1:26:9c:08:05:de:8c:73:a2:1b:54:5d:7c:a1:
         e2:1d:3c:08:b2:f6:3b:af:c7:80:60:95:f2:f6:5a:41:5c:08:
         c3:d7:04:b4:5b:0f:41:71:9e:0b:63:74:9a:dd:fd:46:23:34:
         8f:66:05:da:00:25:16:ba:10:8c:fa:59:b6:ae:01:5a:66:5a:
         fc:a2:54:48:53:41:6e:16:be:1e:66:a5:9a:b4:ce:79:65:4f:
         b6:1b:e9:e9:c1:9a:f7:57:c4:d4:c1:3d:47:bf:c5:4a:cf:67:
         e9:9b:e2:8b
-----BEGIN CERTIFICATE-----
MIIFNzCCBB+gAwIBAgIRALV4p0TR56Vqic5lv4Vi9vswDQYJKoZIhvcNAQELBQAw
ga8xCzAJBgNVBAYTAlVTMRMwEQYDVQQIDApDYWxpZm9ybmlhMRYwFAYDVQQHDA1T
YW4gRnJhbmNpc2NvMSAwHgYDVQQKDBdDb3B5bGVmdCBDZXJ0aWZpY2F0ZSBDbzEf
MB0GA1UECwwWTXkgT3JnYW5pemF0aW9uYWwgVW5pdDERMA8GA1UEAwwIQ2hhbmdl
TWUxHTAbBgkqhkiG9w0BCQEWDm1lQGV4YW1wbGUubmV0MB4XDTIxMDEyMzE4MzAw
NVoXDTIyMDEyMzE4MzAwNVowgcIxCzAJBgNVBAYTAlVTMQswCQYDVQQIDAJPSDET
MBEGA1UEBwwKQ2luY2lubmF0aTEhMB8GA1UECgwYVW5pdmVyc2l0eSBvZiBDaW5j
aW5uYXRpMTAwLgYDVQQLDCdEZXB0LiBFbGVjdHJpY2FsIEVuZy4gYW5kIENvbXB1
dGVyIFNjaS4xEjAQBgNVBAMMCWNsaWVudDExOTEoMCYGCSqGSIb3DQEJARYZZnJh
bmNvQGdhdXNzLmVjZWNzLnVjLmVkdTCCASIwDQYJKoZIhvcNAQEBBQADggEPADCC
AQoCggEBAOC7PzpErL/GPnM/V4pQh15nMIbqfKhShem/mvWgJ9hInPCItdNFlY3l
T5i458S69RY1ioALoa8xmSa4bGrOgoOfccTnA29/5VO9qNWwl84g/vpT+QCqsbfM
I0AKKCiM6Tb+yZ49oaQeiWb/Ua6CndEWaXF3CbSfnADO7tHosDfjuinkZJsj758w
pzVoPH8EWfpi2/2ThBJ3SVT6+vfI8JXhSHmcln1Z8dPAC4VlJEWq0keBDLDa4P5S
L4/jMnYDkCB29uo2YTkZ6MB9LCq2Kc7A9euqOBUpwXscQWjNCtTmi50MA66Gcjep
NCOeo/MIUCY1rw6u78e8JLyyxPJqqMsCAwEAAaOCATcwggEzMAkGA1UdEwQCMAAw
HQYDVR0OBBYEFO56HYLmPqCwecVwdNtzo9seBt6LMIHkBgNVHSMEgdwwgdmAFO/c
tj1L/aeHBcUiPYvcv5kq7uTboYG1pIGyMIGvMQswCQYDVQQGEwJVUzETMBEGA1UE
CAwKQ2FsaWZvcm5pYTEWMBQGA1UEBwwNU2FuIEZyYW5jaXNjbzEgMB4GA1UECgwX
Q29weWxlZnQgQ2VydGlmaWNhdGUgQ28xHzAdBgNVBAsMFk15IE9yZ2FuaXphdGlv
bmFsIFVuaXQxETAPBgNVBAMMCENoYW5nZU1lMR0wGwYJKoZIhvcNAQkBFg5tZUBl
eGFtcGxlLm5ldIIJAIceHdxrjGaIMBMGA1UdJQQMMAoGCCsGAQUFBwMCMAsGA1Ud
DwQEAwIHgDANBgkqhkiG9w0BAQsFAAOCAQEAN+fPQo6cAXo4o1qJoQBvyhoGmExI
hwE0+tgVuXi3YPyXaNhtksxp+8b1j9xj6l1nDB5g5FoK4EufJ3fmf6gfXXVIhS+6
NVpvzKPbYV/RQyCB5ycjV9WEyxRKGUDJ8bvl/jsAtG5FzAXwy/f9nePBma1Q9k3e
L5erxqegd+8UZJ88Ff7UTwNbKCg5t2NajGLnPOAQQ9EmnAgF3oxzohtUXXyh4h08
CLL2O6/HgGCV8vZaQVwIw9cEtFsPQXGeC2N0mt39RiM0j2YF2gAlFroQjPpZtq4B
WmZa/KJUSFNBbha+HmalmrTOeWVPthvp6cGa91fE1ME9R7/FSs9n6Zviiw==
-----END CERTIFICATE-----
