Certificate:
    Data:
        Version: 3 (0x2)
        Serial Number:
            1a:71:94:57:d5:04:e6:fa:6f:78:9e:3d:92:52:38:5f
    Signature Algorithm: sha256WithRSAEncryption
        Issuer: C=US, ST=California, L=San Francisco, O=Copyleft Certificate Co, OU=My Organizational Unit, CN=ChangeMe/emailAddress=me@example.net
        Validity
            Not Before: Nov 12 11:48:55 2023 GMT
            Not After : Nov 11 11:48:55 2024 GMT
        Subject: C=US, ST=OH, L=Cincinnati, O=University of Cincinnati, OU=Dept. Elec. Comp. Eng. Comp. Sci., CN=client40/emailAddress=franco@gauss.ececs.uc.edu
        Subject Public Key Info:
            Public Key Algorithm: rsaEncryption
                Public-Key: (2048 bit)
                Modulus:
                    00:d2:e1:c4:2d:af:2d:c7:87:26:a1:d7:3a:29:51:
                    85:2d:e8:0b:9c:ee:b6:91:49:95:86:9e:d4:1d:bc:
                    9c:55:4c:ce:b9:76:20:8f:ea:4b:02:be:26:96:1c:
                    39:64:35:ae:48:97:78:89:46:83:85:33:57:90:7a:
                    dc:bc:a4:6f:51:db:c7:03:23:67:31:b9:7f:58:b7:
                    24:c6:57:1e:d4:9d:d5:1a:49:4d:51:93:62:ad:cb:
                    3e:1b:0b:4e:a6:f5:33:1e:1a:e8:e0:ac:fd:78:c8:
                    29:3e:9d:d0:7c:c8:36:71:5c:3d:b9:d3:07:6d:d8:
                    b5:6b:09:5a:d0:c6:d6:b2:75:fe:f7:59:b1:e6:d4:
                    7a:98:cf:ec:80:b6:8d:5f:f5:14:5b:1f:3c:2c:1f:
                    4a:d6:f0:6f:36:ec:e6:ff:f8:68:02:c4:cf:1a:7d:
                    d5:52:16:5b:02:20:8b:05:99:0e:8a:00:eb:2f:d4:
                    6b:5a:e8:e0:78:fb:c3:b4:f7:06:6f:7e:df:34:fb:
                    65:96:55:91:6e:46:bc:5c:40:2c:d2:34:23:97:36:
                    da:33:e6:1d:d5:b0:e4:26:57:29:be:0a:cd:40:ea:
                    0d:93:da:46:d3:ae:6a:a1:22:56:5f:25:bb:1a:21:
                    d8:84:29:25:e5:12:13:97:67:99:ff:bc:1a:61:0a:
                    c3:95
                Exponent: 65537 (0x10001)
        X509v3 extensions:
            X509v3 Basic Constraints: 
                CA:FALSE
            X509v3 Subject Key Identifier: 
                F9:78:43:E1:CF:6F:6A:66:D7:29:C4:72:C4:BD:30:DF:E1:EE:B7:7E
            X509v3 Authority Key Identifier: 
                keyid:C4:46:F2:96:38:56:02:B8:9D:09:04:52:25:91:35:97:6A:D7:B1:F0
                DirName:/C=US/ST=California/L=San Francisco/O=Copyleft Certificate Co/OU=My Organizational Unit/CN=ChangeMe/emailAddress=me@example.net
                serial:D1:5A:15:1C:F0:20:95:62

            X509v3 Extended Key Usage: 
                TLS Web Client Authentication
            X509v3 Key Usage: 
                Digital Signature
    Signature Algorithm: sha256WithRSAEncryption
         a5:84:db:a9:a1:d9:7c:38:6a:15:6d:8f:ca:42:4e:ab:92:a0:
         c8:0a:0f:cd:4c:1e:79:3a:24:a1:09:fc:ae:de:09:5e:2a:86:
         cc:b9:97:4d:a9:7a:f0:77:90:fe:44:c8:3f:d4:66:36:09:b9:
         1c:94:10:27:66:54:31:b9:a9:0a:27:84:33:02:6a:04:7f:a1:
         aa:db:f7:c2:80:87:60:ce:fc:93:bb:a6:95:de:9f:88:c5:cd:
         98:9c:d2:e9:2f:c6:73:8c:c4:b7:d0:c2:b6:5d:50:ea:c2:0b:
         da:3b:26:4f:f0:6b:cc:21:5a:e1:9f:34:17:4b:c3:9a:f9:96:
         db:07:a8:b1:e3:a2:a7:38:12:b5:21:16:d9:04:46:1c:6e:b1:
         30:7a:3a:c7:3d:03:4a:04:a1:64:2d:89:f9:a4:f3:0e:c9:2b:
         6f:52:d7:db:b6:5a:4c:db:3d:a2:54:5e:5a:73:05:05:55:5d:
         f2:f4:3a:b0:c9:56:42:1f:bd:8e:60:7b:db:00:b0:22:67:b5:
         3c:87:59:db:b3:50:50:c5:df:ad:2a:4e:bb:1b:ee:d7:d0:8b:
         90:1d:82:a7:4d:33:a8:dc:04:28:d0:b9:54:7f:df:63:8a:75:
         50:79:56:74:20:76:aa:19:90:7f:5d:55:e2:2f:1f:45:9a:49:
         39:69:37:68
-----BEGIN CERTIFICATE-----
MIIFLzCCBBegAwIBAgIQGnGUV9UE5vpveJ49klI4XzANBgkqhkiG9w0BAQsFADCB
rzELMAkGA1UEBhMCVVMxEzARBgNVBAgMCkNhbGlmb3JuaWExFjAUBgNVBAcMDVNh
biBGcmFuY2lzY28xIDAeBgNVBAoMF0NvcHlsZWZ0IENlcnRpZmljYXRlIENvMR8w
HQYDVQQLDBZNeSBPcmdhbml6YXRpb25hbCBVbml0MREwDwYDVQQDDAhDaGFuZ2VN
ZTEdMBsGCSqGSIb3DQEJARYObWVAZXhhbXBsZS5uZXQwHhcNMjMxMTEyMTE0ODU1
WhcNMjQxMTExMTE0ODU1WjCBuzELMAkGA1UEBhMCVVMxCzAJBgNVBAgMAk9IMRMw
EQYDVQQHDApDaW5jaW5uYXRpMSEwHwYDVQQKDBhVbml2ZXJzaXR5IG9mIENpbmNp
bm5hdGkxKjAoBgNVBAsMIURlcHQuIEVsZWMuIENvbXAuIEVuZy4gQ29tcC4gU2Np
LjERMA8GA1UEAwwIY2xpZW50NDAxKDAmBgkqhkiG9w0BCQEWGWZyYW5jb0BnYXVz
cy5lY2Vjcy51Yy5lZHUwggEiMA0GCSqGSIb3DQEBAQUAA4IBDwAwggEKAoIBAQDS
4cQtry3Hhyah1zopUYUt6Auc7raRSZWGntQdvJxVTM65diCP6ksCviaWHDlkNa5I
l3iJRoOFM1eQety8pG9R28cDI2cxuX9YtyTGVx7UndUaSU1Rk2Ktyz4bC06m9TMe
GujgrP14yCk+ndB8yDZxXD250wdt2LVrCVrQxtaydf73WbHm1HqYz+yAto1f9RRb
HzwsH0rW8G827Ob/+GgCxM8afdVSFlsCIIsFmQ6KAOsv1Gta6OB4+8O09wZvft80
+2WWVZFuRrxcQCzSNCOXNtoz5h3VsOQmVym+Cs1A6g2T2kbTrmqhIlZfJbsaIdiE
KSXlEhOXZ5n/vBphCsOVAgMBAAGjggE3MIIBMzAJBgNVHRMEAjAAMB0GA1UdDgQW
BBT5eEPhz29qZtcpxHLEvTDf4e63fjCB5AYDVR0jBIHcMIHZgBTERvKWOFYCuJ0J
BFIlkTWXatex8KGBtaSBsjCBrzELMAkGA1UEBhMCVVMxEzARBgNVBAgMCkNhbGlm
b3JuaWExFjAUBgNVBAcMDVNhbiBGcmFuY2lzY28xIDAeBgNVBAoMF0NvcHlsZWZ0
IENlcnRpZmljYXRlIENvMR8wHQYDVQQLDBZNeSBPcmdhbml6YXRpb25hbCBVbml0
MREwDwYDVQQDDAhDaGFuZ2VNZTEdMBsGCSqGSIb3DQEJARYObWVAZXhhbXBsZS5u
ZXSCCQDRWhUc8CCVYjATBgNVHSUEDDAKBggrBgEFBQcDAjALBgNVHQ8EBAMCB4Aw
DQYJKoZIhvcNAQELBQADggEBAKWE26mh2Xw4ahVtj8pCTquSoMgKD81MHnk6JKEJ
/K7eCV4qhsy5l02pevB3kP5EyD/UZjYJuRyUECdmVDG5qQonhDMCagR/oarb98KA
h2DO/JO7ppXen4jFzZic0ukvxnOMxLfQwrZdUOrCC9o7Jk/wa8whWuGfNBdLw5r5
ltsHqLHjoqc4ErUhFtkERhxusTB6Osc9A0oEoWQtifmk8w7JK29S19u2WkzbPaJU
XlpzBQVVXfL0OrDJVkIfvY5ge9sAsCJntTyHWduzUFDF360qTrsb7tfQi5AdgqdN
M6jcBCjQuVR/32OKdVB5VnQgdqoZkH9dVeIvH0WaSTlpN2g=
-----END CERTIFICATE-----
