Certificate:
    Data:
        Version: 3 (0x2)
        Serial Number:
            24:78:5a:19:e8:32:33:1e:bd:47:81:57:64:ae:37:dc
    Signature Algorithm: sha256WithRSAEncryption
        Issuer: C=US, ST=California, L=San Francisco, O=Copyleft Certificate Co, OU=My Organizational Unit, CN=ChangeMe/emailAddress=me@example.net
        Validity
            Not Before: Nov 12 11:49:23 2023 GMT
            Not After : Nov 11 11:49:23 2024 GMT
        Subject: C=US, ST=OH, L=Cincinnati, O=University of Cincinnati, OU=Dept. Elec. Comp. Eng. Comp. Sci., CN=client47/emailAddress=franco@gauss.ececs.uc.edu
        Subject Public Key Info:
            Public Key Algorithm: rsaEncryption
                Public-Key: (2048 bit)
                Modulus:
                    00:b6:5d:67:17:07:bd:04:e0:4d:43:d4:d6:1f:2f:
                    86:68:d8:8e:a7:26:e7:56:aa:2a:04:01:60:34:cb:
                    e4:54:45:c9:f4:06:4d:67:ad:c2:2c:cb:5c:fc:97:
                    91:67:3a:ef:9a:40:1f:fe:ab:35:54:4f:07:64:6a:
                    62:45:d5:40:c0:cf:14:d4:45:7a:18:b0:f1:2b:a7:
                    de:73:61:b8:af:ee:00:7f:c3:1d:e9:6e:ea:00:94:
                    b5:b9:da:d8:ae:33:ab:40:7f:ec:00:4e:aa:9d:ee:
                    b6:b9:92:54:8e:4f:fc:36:a3:45:da:0d:cf:7a:4d:
                    f6:07:e1:a0:9e:a8:28:00:3a:94:82:ff:08:22:58:
                    95:eb:16:ba:9c:5c:c7:7a:17:6a:13:a5:d8:c7:af:
                    af:2d:20:41:95:95:72:26:11:2a:34:3c:b3:a2:0b:
                    ce:93:b4:6e:af:35:9c:fc:b8:5c:9e:0d:ed:76:b7:
                    a4:c9:b3:43:9b:1e:93:d2:d6:ad:ec:d7:a5:eb:0e:
                    ef:ce:ef:b0:ac:ad:a8:61:96:9a:47:52:ae:6b:6e:
                    36:bb:d1:fe:43:c4:d0:5a:ed:96:99:ac:19:31:cb:
                    bc:ad:55:4f:f0:75:2e:06:80:e6:4f:24:b9:29:9f:
                    fc:e1:96:64:e3:f3:7e:ba:4f:aa:10:65:e6:5f:68:
                    82:db
                Exponent: 65537 (0x10001)
        X509v3 extensions:
            X509v3 Basic Constraints: 
                CA:FALSE
            X509v3 Subject Key Identifier: 
                76:81:F0:EF:B5:06:6E:65:1E:67:30:9C:C9:6D:15:1D:C8:4E:C2:10
            X509v3 Authority Key Identifier: 
                keyid:C4:46:F2:96:38:56:02:B8:9D:09:04:52:25:91:35:97:6A:D7:B1:F0
                DirName:/C=US/ST=California/L=San Francisco/O=Copyleft Certificate Co/OU=My Organizational Unit/CN=ChangeMe/emailAddress=me@example.net
                serial:D1:5A:15:1C:F0:20:95:62

            X509v3 Extended Key Usage: 
                TLS Web Client Authentication
            X509v3 Key Usage: 
                Digital Signature
    Signature Algorithm: sha256WithRSAEncryption
         05:6e:7a:c0:f5:8c:24:0a:2a:91:9f:96:33:70:07:9b:71:8e:
         ac:1c:81:f6:fe:3b:b6:6b:8c:78:21:0e:e1:c6:6b:df:ed:60:
         e3:f4:0f:8f:aa:22:4d:30:b7:f7:7a:9b:06:3c:a8:1a:d8:c4:
         da:89:f9:6f:e6:ba:8f:58:c6:8c:41:f8:5b:1e:9d:01:ef:92:
         20:23:bf:91:f0:38:90:1f:d6:55:63:5c:8e:18:73:4f:80:93:
         57:fe:12:d2:b0:04:89:7f:b9:ae:87:17:fd:b0:c6:e7:3e:56:
         78:ee:27:cf:07:d4:55:be:0c:bf:05:fe:de:bb:4f:66:c1:bb:
         69:e6:ef:d7:5c:de:9b:7f:68:60:26:86:43:70:71:66:ad:42:
         65:69:8a:ca:3e:39:aa:b8:33:35:a6:52:a2:ec:60:85:6b:ea:
         f5:3f:83:f7:a8:22:5d:7b:2f:76:b3:14:81:b3:0a:fb:48:87:
         28:92:d0:94:cc:1e:33:05:e6:e4:bc:52:e2:d6:6c:a2:c0:cf:
         d6:35:16:57:eb:40:98:93:ed:3a:18:10:f3:41:8d:c6:80:f3:
         95:73:d1:2b:82:b9:2c:35:92:ba:43:ca:a8:56:52:7f:a0:7b:
         6f:be:2f:ef:35:26:38:f8:e0:43:6f:bd:64:fb:b4:22:77:a5:
         c9:a0:42:dc
-----BEGIN CERTIFICATE-----
MIIFLzCCBBegAwIBAgIQJHhaGegyMx69R4FXZK433DANBgkqhkiG9w0BAQsFADCB
rzELMAkGA1UEBhMCVVMxEzARBgNVBAgMCkNhbGlmb3JuaWExFjAUBgNVBAcMDVNh
biBGcmFuY2lzY28xIDAeBgNVBAoMF0NvcHlsZWZ0IENlcnRpZmljYXRlIENvMR8w
HQYDVQQLDBZNeSBPcmdhbml6YXRpb25hbCBVbml0MREwDwYDVQQDDAhDaGFuZ2VN
ZTEdMBsGCSqGSIb3DQEJARYObWVAZXhhbXBsZS5uZXQwHhcNMjMxMTEyMTE0OTIz
WhcNMjQxMTExMTE0OTIzWjCBuzELMAkGA1UEBhMCVVMxCzAJBgNVBAgMAk9IMRMw
EQYDVQQHDApDaW5jaW5uYXRpMSEwHwYDVQQKDBhVbml2ZXJzaXR5IG9mIENpbmNp
bm5hdGkxKjAoBgNVBAsMIURlcHQuIEVsZWMuIENvbXAuIEVuZy4gQ29tcC4gU2Np
LjERMA8GA1UEAwwIY2xpZW50NDcxKDAmBgkqhkiG9w0BCQEWGWZyYW5jb0BnYXVz
cy5lY2Vjcy51Yy5lZHUwggEiMA0GCSqGSIb3DQEBAQUAA4IBDwAwggEKAoIBAQC2
XWcXB70E4E1D1NYfL4Zo2I6nJudWqioEAWA0y+RURcn0Bk1nrcIsy1z8l5FnOu+a
QB/+qzVUTwdkamJF1UDAzxTURXoYsPErp95zYbiv7gB/wx3pbuoAlLW52tiuM6tA
f+wATqqd7ra5klSOT/w2o0XaDc96TfYH4aCeqCgAOpSC/wgiWJXrFrqcXMd6F2oT
pdjHr68tIEGVlXImESo0PLOiC86TtG6vNZz8uFyeDe12t6TJs0ObHpPS1q3s16Xr
Du/O77CsrahhlppHUq5rbja70f5DxNBa7ZaZrBkxy7ytVU/wdS4GgOZPJLkpn/zh
lmTj8366T6oQZeZfaILbAgMBAAGjggE3MIIBMzAJBgNVHRMEAjAAMB0GA1UdDgQW
BBR2gfDvtQZuZR5nMJzJbRUdyE7CEDCB5AYDVR0jBIHcMIHZgBTERvKWOFYCuJ0J
BFIlkTWXatex8KGBtaSBsjCBrzELMAkGA1UEBhMCVVMxEzARBgNVBAgMCkNhbGlm
b3JuaWExFjAUBgNVBAcMDVNhbiBGcmFuY2lzY28xIDAeBgNVBAoMF0NvcHlsZWZ0
IENlcnRpZmljYXRlIENvMR8wHQYDVQQLDBZNeSBPcmdhbml6YXRpb25hbCBVbml0
MREwDwYDVQQDDAhDaGFuZ2VNZTEdMBsGCSqGSIb3DQEJARYObWVAZXhhbXBsZS5u
ZXSCCQDRWhUc8CCVYjATBgNVHSUEDDAKBggrBgEFBQcDAjALBgNVHQ8EBAMCB4Aw
DQYJKoZIhvcNAQELBQADggEBAAVuesD1jCQKKpGfljNwB5txjqwcgfb+O7ZrjHgh
DuHGa9/tYOP0D4+qIk0wt/d6mwY8qBrYxNqJ+W/muo9YxoxB+FsenQHvkiAjv5Hw
OJAf1lVjXI4Yc0+Ak1f+EtKwBIl/ua6HF/2wxuc+VnjuJ88H1FW+DL8F/t67T2bB
u2nm79dc3pt/aGAmhkNwcWatQmVpiso+Oaq4MzWmUqLsYIVr6vU/g/eoIl17L3az
FIGzCvtIhyiS0JTMHjMF5uS8UuLWbKLAz9Y1FlfrQJiT7ToYEPNBjcaA85Vz0SuC
uSw1krpDyqhWUn+ge2++L+81Jjj44ENvvWT7tCJ3pcmgQtw=
-----END CERTIFICATE-----
