Certificate:
    Data:
        Version: 3 (0x2)
        Serial Number:
            bf:e7:f8:1a:69:a0:2d:1f:31:d7:e4:6e:b5:a0:6c:6b
    Signature Algorithm: sha256WithRSAEncryption
        Issuer: C=US, ST=California, L=San Francisco, O=Copyleft Certificate Co, OU=My Organizational Unit, CN=ChangeMe/emailAddress=me@example.net
        Validity
            Not Before: Nov 12 11:46:51 2023 GMT
            Not After : Nov 11 11:46:51 2024 GMT
        Subject: C=US, ST=OH, L=Cincinnati, O=University of Cincinnati, OU=Dept. Elec. Comp. Eng. Comp. Sci., CN=client9/emailAddress=franco@gauss.ececs.uc.edu
        Subject Public Key Info:
            Public Key Algorithm: rsaEncryption
                Public-Key: (2048 bit)
                Modulus:
                    00:bd:93:03:45:ca:16:8f:55:11:92:36:78:f0:42:
                    a8:60:63:90:fd:94:c0:fc:56:a1:19:ad:e9:97:a0:
                    74:01:0c:24:3c:aa:1f:62:de:ef:1d:e1:0c:be:9d:
                    c6:1e:0e:f4:93:2c:f6:8c:4a:ee:9b:0c:84:52:68:
                    a2:f1:80:16:be:cc:0e:13:de:87:59:65:90:e3:52:
                    5c:ac:7c:20:90:19:ad:9c:1c:8e:91:8f:74:4e:ae:
                    ed:3c:f6:be:53:f9:52:cf:5a:0f:11:ea:46:ec:a6:
                    ee:6d:0b:47:31:3f:54:bf:b5:d3:27:32:27:cf:32:
                    d1:b3:64:1e:b4:54:5e:e3:b0:46:8a:55:2c:da:4b:
                    ed:78:c6:04:49:87:1c:e3:64:10:4a:1c:8e:80:b5:
                    d5:57:aa:f1:fd:f9:c8:09:51:e4:56:b0:01:95:3c:
                    20:d9:fa:f5:10:17:a0:f3:92:b1:d5:7d:92:d6:41:
                    ae:2c:89:ba:f3:cb:43:18:19:ac:f3:ef:3d:26:ea:
                    d7:3b:84:67:fe:f5:36:f8:1a:91:9d:7e:4b:ee:da:
                    f3:5e:c3:48:ac:f7:5b:0d:3a:55:58:68:2c:7a:6e:
                    c7:ca:61:73:16:db:69:80:9c:a5:cb:6c:c9:48:12:
                    ea:9d:b0:4b:dc:9c:f4:14:dc:08:76:44:f5:ae:f6:
                    58:05
                Exponent: 65537 (0x10001)
        X509v3 extensions:
            X509v3 Basic Constraints: 
                CA:FALSE
            X509v3 Subject Key Identifier: 
                30:FE:01:1D:F6:B9:26:C8:98:B8:4B:36:30:FC:A5:BC:3D:A9:0A:5D
            X509v3 Authority Key Identifier: 
                keyid:C4:46:F2:96:38:56:02:B8:9D:09:04:52:25:91:35:97:6A:D7:B1:F0
                DirName:/C=US/ST=California/L=San Francisco/O=Copyleft Certificate Co/OU=My Organizational Unit/CN=ChangeMe/emailAddress=me@example.net
                serial:D1:5A:15:1C:F0:20:95:62

            X509v3 Extended Key Usage: 
                TLS Web Client Authentication
            X509v3 Key Usage: 
                Digital Signature
    Signature Algorithm: sha256WithRSAEncryption
         6b:b7:d5:fd:1d:75:5c:67:74:b5:63:63:af:c9:49:d3:42:eb:
         05:fc:f2:f4:24:2c:d9:82:62:ed:5c:85:e0:bb:4b:86:79:94:
         2f:3b:3d:13:70:1e:bd:4a:31:ab:12:63:40:6e:ac:51:d7:a5:
         db:a1:a6:9e:00:c5:b8:9b:a3:bf:7d:fd:01:dd:ac:2f:22:39:
         e3:a7:84:ae:99:7a:0d:4b:0a:7c:d3:6c:ff:74:86:5c:00:96:
         0d:d1:d8:10:11:fe:24:6c:c9:cb:a8:f5:bd:11:8d:a1:2b:f7:
         bb:b1:cc:01:18:f9:1e:f4:62:87:07:fe:e3:e3:d0:63:c1:fc:
         7b:59:55:ec:6b:18:77:6b:34:5e:0e:6e:98:0d:32:8c:56:e8:
         8a:1d:d4:96:99:39:bd:66:5e:5c:ab:eb:3b:1f:04:42:7a:a9:
         10:a5:d3:6e:58:3b:52:5f:78:4a:bd:ac:51:4b:87:f2:1d:30:
         d3:31:dd:45:b2:80:4b:e8:d5:40:0d:9c:ab:ce:f4:a1:9c:fb:
         31:ad:cf:fe:64:a4:e5:03:ef:ef:f8:25:cb:99:11:eb:a8:ef:
         9d:5f:50:ac:3d:18:59:e8:92:93:f2:0b:46:85:30:ae:6c:da:
         51:61:4a:06:24:70:dd:61:78:98:9f:89:de:41:a3:bc:1c:8f:
         97:04:0d:1e
-----BEGIN CERTIFICATE-----
MIIFLzCCBBegAwIBAgIRAL/n+BppoC0fMdfkbrWgbGswDQYJKoZIhvcNAQELBQAw
ga8xCzAJBgNVBAYTAlVTMRMwEQYDVQQIDApDYWxpZm9ybmlhMRYwFAYDVQQHDA1T
YW4gRnJhbmNpc2NvMSAwHgYDVQQKDBdDb3B5bGVmdCBDZXJ0aWZpY2F0ZSBDbzEf
MB0GA1UECwwWTXkgT3JnYW5pemF0aW9uYWwgVW5pdDERMA8GA1UEAwwIQ2hhbmdl
TWUxHTAbBgkqhkiG9w0BCQEWDm1lQGV4YW1wbGUubmV0MB4XDTIzMTExMjExNDY1
MVoXDTI0MTExMTExNDY1MVowgboxCzAJBgNVBAYTAlVTMQswCQYDVQQIDAJPSDET
MBEGA1UEBwwKQ2luY2lubmF0aTEhMB8GA1UECgwYVW5pdmVyc2l0eSBvZiBDaW5j
aW5uYXRpMSowKAYDVQQLDCFEZXB0LiBFbGVjLiBDb21wLiBFbmcuIENvbXAuIFNj
aS4xEDAOBgNVBAMMB2NsaWVudDkxKDAmBgkqhkiG9w0BCQEWGWZyYW5jb0BnYXVz
cy5lY2Vjcy51Yy5lZHUwggEiMA0GCSqGSIb3DQEBAQUAA4IBDwAwggEKAoIBAQC9
kwNFyhaPVRGSNnjwQqhgY5D9lMD8VqEZremXoHQBDCQ8qh9i3u8d4Qy+ncYeDvST
LPaMSu6bDIRSaKLxgBa+zA4T3odZZZDjUlysfCCQGa2cHI6Rj3ROru089r5T+VLP
Wg8R6kbspu5tC0cxP1S/tdMnMifPMtGzZB60VF7jsEaKVSzaS+14xgRJhxzjZBBK
HI6AtdVXqvH9+cgJUeRWsAGVPCDZ+vUQF6DzkrHVfZLWQa4sibrzy0MYGazz7z0m
6tc7hGf+9Tb4GpGdfkvu2vNew0is91sNOlVYaCx6bsfKYXMW22mAnKXLbMlIEuqd
sEvcnPQU3Ah2RPWu9lgFAgMBAAGjggE3MIIBMzAJBgNVHRMEAjAAMB0GA1UdDgQW
BBQw/gEd9rkmyJi4SzYw/KW8PakKXTCB5AYDVR0jBIHcMIHZgBTERvKWOFYCuJ0J
BFIlkTWXatex8KGBtaSBsjCBrzELMAkGA1UEBhMCVVMxEzARBgNVBAgMCkNhbGlm
b3JuaWExFjAUBgNVBAcMDVNhbiBGcmFuY2lzY28xIDAeBgNVBAoMF0NvcHlsZWZ0
IENlcnRpZmljYXRlIENvMR8wHQYDVQQLDBZNeSBPcmdhbml6YXRpb25hbCBVbml0
MREwDwYDVQQDDAhDaGFuZ2VNZTEdMBsGCSqGSIb3DQEJARYObWVAZXhhbXBsZS5u
ZXSCCQDRWhUc8CCVYjATBgNVHSUEDDAKBggrBgEFBQcDAjALBgNVHQ8EBAMCB4Aw
DQYJKoZIhvcNAQELBQADggEBAGu31f0ddVxndLVjY6/JSdNC6wX88vQkLNmCYu1c
heC7S4Z5lC87PRNwHr1KMasSY0BurFHXpduhpp4Axbibo799/QHdrC8iOeOnhK6Z
eg1LCnzTbP90hlwAlg3R2BAR/iRsycuo9b0RjaEr97uxzAEY+R70YocH/uPj0GPB
/HtZVexrGHdrNF4ObpgNMoxW6Iod1JaZOb1mXlyr6zsfBEJ6qRCl025YO1JfeEq9
rFFLh/IdMNMx3UWygEvo1UANnKvO9KGc+zGtz/5kpOUD7+/4JcuZEeuo751fUKw9
GFnokpPyC0aFMK5s2lFhSgYkcN1heJifid5Bo7wcj5cEDR4=
-----END CERTIFICATE-----
