Certificate:
    Data:
        Version: 3 (0x2)
        Serial Number:
            94:27:96:bd:a6:f7:d4:94:99:8c:30:d6:08:e3:57:e7
    Signature Algorithm: sha256WithRSAEncryption
        Issuer: C=US, ST=California, L=San Francisco, O=Copyleft Certificate Co, OU=My Organizational Unit, CN=ChangeMe/emailAddress=me@example.net
        Validity
            Not Before: Jan 23 18:28:18 2021 GMT
            Not After : Jan 23 18:28:18 2022 GMT
        Subject: C=US, ST=OH, L=Cincinnati, O=University of Cincinnati, OU=Dept. Electrical Eng. and Computer Sci., CN=client43/emailAddress=franco@gauss.ececs.uc.edu
        Subject Public Key Info:
            Public Key Algorithm: rsaEncryption
                Public-Key: (2048 bit)
                Modulus:
                    00:d5:29:14:c5:3f:28:80:e3:00:14:02:08:29:13:
                    5c:f5:8d:48:2f:b5:42:8d:5b:14:cf:15:ac:65:9e:
                    75:ae:f3:29:b9:02:df:0c:57:48:c8:70:cd:e0:19:
                    cd:7d:ed:43:c9:60:d7:1f:32:7b:a0:00:04:83:54:
                    a2:87:f0:83:34:c2:8a:a8:38:ee:4d:c9:58:b9:af:
                    07:35:7c:14:88:0f:57:91:5c:b3:1e:b7:57:e9:9d:
                    62:b4:57:55:12:ee:03:dc:79:c7:99:48:1c:eb:fa:
                    b9:19:cf:35:dc:d1:b0:5e:c4:0c:f2:b6:c9:a5:ae:
                    13:ad:e3:72:e6:d1:73:f7:56:50:ff:77:60:31:43:
                    68:55:fd:a4:d0:f7:06:47:21:c3:7c:b6:6b:25:62:
                    c4:b8:ef:51:4d:8b:fd:93:7e:5e:64:85:d2:94:60:
                    68:df:d9:5c:f2:b7:50:50:71:16:c4:06:ff:29:92:
                    a8:86:91:0c:4d:57:9e:eb:c5:48:cb:9c:2c:2e:6c:
                    20:fd:f1:1c:7c:bf:a1:27:67:5f:b3:ff:5c:93:c0:
                    bd:13:be:30:45:aa:89:4f:3a:0b:72:0d:7b:32:c9:
                    1d:6c:c7:44:54:64:ad:64:1c:e1:27:94:0a:b3:d7:
                    78:33:60:08:f3:68:82:c8:96:de:99:fd:41:bb:3e:
                    2a:a1
                Exponent: 65537 (0x10001)
        X509v3 extensions:
            X509v3 Basic Constraints: 
                CA:FALSE
            X509v3 Subject Key Identifier: 
                97:62:2A:5F:0B:C7:CE:2F:18:0B:3F:00:10:44:F7:5C:FA:6A:EE:55
            X509v3 Authority Key Identifier: 
                keyid:EF:DC:B6:3D:4B:FD:A7:87:05:C5:22:3D:8B:DC:BF:99:2A:EE:E4:DB
                DirName:/C=US/ST=California/L=San Francisco/O=Copyleft Certificate Co/OU=My Organizational Unit/CN=ChangeMe/emailAddress=me@example.net
                serial:87:1E:1D:DC:6B:8C:66:88

            X509v3 Extended Key Usage: 
                TLS Web Client Authentication
            X509v3 Key Usage: 
                Digital Signature
    Signature Algorithm: sha256WithRSAEncryption
         c2:49:07:e7:2a:b6:71:6a:11:b2:c0:47:1f:30:bd:b8:12:fa:
         4a:64:26:bc:12:55:a7:f9:e2:a8:4f:53:10:07:29:81:de:c4:
         f2:33:c4:2b:d8:b8:54:e4:ec:a1:5a:72:73:b9:c7:89:c7:d2:
         ae:f2:30:31:bc:3e:7d:8a:77:b7:80:88:e5:8f:98:e9:8e:6e:
         b3:b0:18:8e:ab:4c:9a:50:0c:d3:1b:d7:20:e5:be:c0:2f:71:
         86:49:8a:b3:9c:a6:98:d0:1d:fc:f6:8c:1f:26:aa:02:b7:d8:
         2d:d6:06:cf:e0:81:3b:d7:0a:5a:46:50:82:cd:e3:1b:16:f5:
         ee:f9:21:a7:54:2e:98:50:ae:8c:62:aa:f7:e0:3f:a9:28:71:
         b7:eb:af:df:98:10:5c:f0:e9:5b:11:57:8d:88:b5:19:a4:21:
         33:a9:6c:2a:f5:0a:6a:f8:7b:7e:a6:65:2f:ad:c1:bf:ed:71:
         64:e8:1a:c3:da:c7:96:36:13:23:27:61:54:be:df:67:2d:1a:
         69:12:0e:2f:27:3b:3e:77:86:a6:bb:ee:60:54:b1:af:e0:ec:
         91:13:bb:25:1b:d0:a2:70:78:da:bb:f9:fb:cf:87:87:16:5c:
         7c:ff:9a:9a:17:f2:70:75:f9:e1:10:65:42:26:c4:34:b9:87:
         4f:f0:58:d9
-----BEGIN CERTIFICATE-----
MIIFNjCCBB6gAwIBAgIRAJQnlr2m99SUmYww1gjjV+cwDQYJKoZIhvcNAQELBQAw
ga8xCzAJBgNVBAYTAlVTMRMwEQYDVQQIDApDYWxpZm9ybmlhMRYwFAYDVQQHDA1T
YW4gRnJhbmNpc2NvMSAwHgYDVQQKDBdDb3B5bGVmdCBDZXJ0aWZpY2F0ZSBDbzEf
MB0GA1UECwwWTXkgT3JnYW5pemF0aW9uYWwgVW5pdDERMA8GA1UEAwwIQ2hhbmdl
TWUxHTAbBgkqhkiG9w0BCQEWDm1lQGV4YW1wbGUubmV0MB4XDTIxMDEyMzE4Mjgx
OFoXDTIyMDEyMzE4MjgxOFowgcExCzAJBgNVBAYTAlVTMQswCQYDVQQIDAJPSDET
MBEGA1UEBwwKQ2luY2lubmF0aTEhMB8GA1UECgwYVW5pdmVyc2l0eSBvZiBDaW5j
aW5uYXRpMTAwLgYDVQQLDCdEZXB0LiBFbGVjdHJpY2FsIEVuZy4gYW5kIENvbXB1
dGVyIFNjaS4xETAPBgNVBAMMCGNsaWVudDQzMSgwJgYJKoZIhvcNAQkBFhlmcmFu
Y29AZ2F1c3MuZWNlY3MudWMuZWR1MIIBIjANBgkqhkiG9w0BAQEFAAOCAQ8AMIIB
CgKCAQEA1SkUxT8ogOMAFAIIKRNc9Y1IL7VCjVsUzxWsZZ51rvMpuQLfDFdIyHDN
4BnNfe1DyWDXHzJ7oAAEg1Sih/CDNMKKqDjuTclYua8HNXwUiA9XkVyzHrdX6Z1i
tFdVEu4D3HnHmUgc6/q5Gc813NGwXsQM8rbJpa4TreNy5tFz91ZQ/3dgMUNoVf2k
0PcGRyHDfLZrJWLEuO9RTYv9k35eZIXSlGBo39lc8rdQUHEWxAb/KZKohpEMTVee
68VIy5wsLmwg/fEcfL+hJ2dfs/9ck8C9E74wRaqJTzoLcg17MskdbMdEVGStZBzh
J5QKs9d4M2AI82iCyJbemf1Buz4qoQIDAQABo4IBNzCCATMwCQYDVR0TBAIwADAd
BgNVHQ4EFgQUl2IqXwvHzi8YCz8AEET3XPpq7lUwgeQGA1UdIwSB3DCB2YAU79y2
PUv9p4cFxSI9i9y/mSru5NuhgbWkgbIwga8xCzAJBgNVBAYTAlVTMRMwEQYDVQQI
DApDYWxpZm9ybmlhMRYwFAYDVQQHDA1TYW4gRnJhbmNpc2NvMSAwHgYDVQQKDBdD
b3B5bGVmdCBDZXJ0aWZpY2F0ZSBDbzEfMB0GA1UECwwWTXkgT3JnYW5pemF0aW9u
YWwgVW5pdDERMA8GA1UEAwwIQ2hhbmdlTWUxHTAbBgkqhkiG9w0BCQEWDm1lQGV4
YW1wbGUubmV0ggkAhx4d3GuMZogwEwYDVR0lBAwwCgYIKwYBBQUHAwIwCwYDVR0P
BAQDAgeAMA0GCSqGSIb3DQEBCwUAA4IBAQDCSQfnKrZxahGywEcfML24EvpKZCa8
ElWn+eKoT1MQBymB3sTyM8Qr2LhU5OyhWnJzuceJx9Ku8jAxvD59ine3gIjlj5jp
jm6zsBiOq0yaUAzTG9cg5b7AL3GGSYqznKaY0B389owfJqoCt9gt1gbP4IE71wpa
RlCCzeMbFvXu+SGnVC6YUK6MYqr34D+pKHG366/fmBBc8OlbEVeNiLUZpCEzqWwq
9Qpq+Ht+pmUvrcG/7XFk6BrD2seWNhMjJ2FUvt9nLRppEg4vJzs+d4amu+5gVLGv
4OyRE7slG9CicHjau/n7z4eHFlx8/5qaF/JwdfnhEGVCJsQ0uYdP8FjZ
-----END CERTIFICATE-----
