Certificate:
    Data:
        Version: 3 (0x2)
        Serial Number:
            d7:50:72:34:0a:c4:7e:f9:c0:9a:65:a2:a6:57:f9:c8
    Signature Algorithm: sha256WithRSAEncryption
        Issuer: C=US, ST=California, L=San Francisco, O=Copyleft Certificate Co, OU=My Organizational Unit, CN=ChangeMe/emailAddress=me@example.net
        Validity
            Not Before: Jan 23 18:30:27 2021 GMT
            Not After : Jan 23 18:30:27 2022 GMT
        Subject: C=US, ST=OH, L=Cincinnati, O=University of Cincinnati, OU=Dept. Electrical Eng. and Computer Sci., CN=client136/emailAddress=franco@gauss.ececs.uc.edu
        Subject Public Key Info:
            Public Key Algorithm: rsaEncryption
                Public-Key: (2048 bit)
                Modulus:
                    00:a5:80:cc:d8:c0:2a:20:05:55:b8:98:ec:2d:2c:
                    b8:01:c7:94:52:89:24:5d:2d:88:c3:30:39:6c:ea:
                    a1:57:cb:88:bd:5e:5e:c5:f0:60:19:87:70:f1:5c:
                    f6:ea:1f:27:1d:9c:d3:42:ec:79:57:68:8d:3c:c6:
                    bb:b6:12:92:b2:51:5d:14:bd:ea:c1:a2:17:35:95:
                    db:f6:71:69:48:a7:37:ed:fc:f6:44:61:10:03:be:
                    43:b3:f6:b3:0e:6a:64:ae:1c:e4:ca:1d:db:da:5b:
                    6d:d8:4d:1b:9b:6e:75:4b:15:a3:a7:f8:dc:43:66:
                    ab:d9:48:df:9a:4c:a9:02:ef:22:32:64:33:44:91:
                    09:28:f1:ce:6f:60:39:13:e5:c4:9d:5f:99:fb:60:
                    48:92:73:21:d5:29:cb:c8:5d:4e:b6:4c:af:f4:76:
                    aa:9d:d8:b7:46:2b:a9:1a:87:f1:90:58:c6:39:22:
                    63:be:18:68:8a:97:aa:6a:c7:7a:d6:14:ac:92:cc:
                    af:64:18:e0:6a:fc:3e:ca:56:5d:d8:7a:67:d3:77:
                    45:bf:50:1c:9c:01:4a:af:c9:13:5f:3c:8d:d0:b9:
                    27:ee:a5:d4:58:50:af:78:53:e5:e3:29:ab:63:7c:
                    f9:8b:7d:cf:c6:e2:7e:d2:e8:3a:6f:ff:18:5f:04:
                    49:09
                Exponent: 65537 (0x10001)
        X509v3 extensions:
            X509v3 Basic Constraints: 
                CA:FALSE
            X509v3 Subject Key Identifier: 
                2A:D3:AA:1A:55:CD:42:D2:5A:1F:05:62:CF:C2:63:54:85:D0:1C:9F
            X509v3 Authority Key Identifier: 
                keyid:EF:DC:B6:3D:4B:FD:A7:87:05:C5:22:3D:8B:DC:BF:99:2A:EE:E4:DB
                DirName:/C=US/ST=California/L=San Francisco/O=Copyleft Certificate Co/OU=My Organizational Unit/CN=ChangeMe/emailAddress=me@example.net
                serial:87:1E:1D:DC:6B:8C:66:88

            X509v3 Extended Key Usage: 
                TLS Web Client Authentication
            X509v3 Key Usage: 
                Digital Signature
    Signature Algorithm: sha256WithRSAEncryption
         3e:55:6e:83:8d:1e:fa:9d:9a:4d:55:9e:8a:89:1a:96:f0:74:
         a3:3b:09:e9:f4:6a:e8:97:48:2a:a5:60:f5:7a:19:e2:10:39:
         cf:c4:02:9a:a2:52:d2:77:99:f3:94:42:86:d3:75:70:9a:56:
         06:8b:2e:09:61:2b:66:bb:03:37:a4:9c:4e:6d:7e:56:a9:61:
         3b:45:e8:57:45:0a:76:67:1a:2d:50:e4:d2:cf:b5:4b:77:90:
         71:22:0f:16:06:8e:f2:cf:dd:7b:ec:80:91:82:86:9d:ae:cd:
         72:e1:af:75:3b:ea:e3:96:c2:11:47:78:bb:f5:54:bb:a0:f4:
         dc:c3:bb:52:67:06:63:ab:1f:30:0d:c7:46:02:6d:ca:53:dc:
         ac:f4:7f:8e:7c:89:c2:b3:ab:69:cb:e3:17:ae:60:d7:b9:01:
         46:2b:a1:17:d9:39:98:77:a1:a2:5e:f3:e8:da:24:3d:7b:6f:
         ec:d8:97:9a:ec:e3:3f:17:10:6c:91:b2:34:c1:ac:b4:c0:44:
         f3:44:30:a4:16:56:cc:7c:73:a4:17:a3:b0:9f:b2:db:ce:74:
         20:30:b6:37:1f:d7:8f:35:2a:b1:fe:ec:f9:6e:99:d9:61:41:
         f7:74:e4:a9:2a:dc:33:da:b1:4b:af:96:6a:16:7c:e2:e5:90:
         07:54:53:9c
-----BEGIN CERTIFICATE-----
MIIFNzCCBB+gAwIBAgIRANdQcjQKxH75wJploqZX+cgwDQYJKoZIhvcNAQELBQAw
ga8xCzAJBgNVBAYTAlVTMRMwEQYDVQQIDApDYWxpZm9ybmlhMRYwFAYDVQQHDA1T
YW4gRnJhbmNpc2NvMSAwHgYDVQQKDBdDb3B5bGVmdCBDZXJ0aWZpY2F0ZSBDbzEf
MB0GA1UECwwWTXkgT3JnYW5pemF0aW9uYWwgVW5pdDERMA8GA1UEAwwIQ2hhbmdl
TWUxHTAbBgkqhkiG9w0BCQEWDm1lQGV4YW1wbGUubmV0MB4XDTIxMDEyMzE4MzAy
N1oXDTIyMDEyMzE4MzAyN1owgcIxCzAJBgNVBAYTAlVTMQswCQYDVQQIDAJPSDET
MBEGA1UEBwwKQ2luY2lubmF0aTEhMB8GA1UECgwYVW5pdmVyc2l0eSBvZiBDaW5j
aW5uYXRpMTAwLgYDVQQLDCdEZXB0LiBFbGVjdHJpY2FsIEVuZy4gYW5kIENvbXB1
dGVyIFNjaS4xEjAQBgNVBAMMCWNsaWVudDEzNjEoMCYGCSqGSIb3DQEJARYZZnJh
bmNvQGdhdXNzLmVjZWNzLnVjLmVkdTCCASIwDQYJKoZIhvcNAQEBBQADggEPADCC
AQoCggEBAKWAzNjAKiAFVbiY7C0suAHHlFKJJF0tiMMwOWzqoVfLiL1eXsXwYBmH
cPFc9uofJx2c00LseVdojTzGu7YSkrJRXRS96sGiFzWV2/ZxaUinN+389kRhEAO+
Q7P2sw5qZK4c5Mod29pbbdhNG5tudUsVo6f43ENmq9lI35pMqQLvIjJkM0SRCSjx
zm9gORPlxJ1fmftgSJJzIdUpy8hdTrZMr/R2qp3Yt0YrqRqH8ZBYxjkiY74YaIqX
qmrHetYUrJLMr2QY4Gr8PspWXdh6Z9N3Rb9QHJwBSq/JE188jdC5J+6l1FhQr3hT
5eMpq2N8+Yt9z8biftLoOm//GF8ESQkCAwEAAaOCATcwggEzMAkGA1UdEwQCMAAw
HQYDVR0OBBYEFCrTqhpVzULSWh8FYs/CY1SF0ByfMIHkBgNVHSMEgdwwgdmAFO/c
tj1L/aeHBcUiPYvcv5kq7uTboYG1pIGyMIGvMQswCQYDVQQGEwJVUzETMBEGA1UE
CAwKQ2FsaWZvcm5pYTEWMBQGA1UEBwwNU2FuIEZyYW5jaXNjbzEgMB4GA1UECgwX
Q29weWxlZnQgQ2VydGlmaWNhdGUgQ28xHzAdBgNVBAsMFk15IE9yZ2FuaXphdGlv
bmFsIFVuaXQxETAPBgNVBAMMCENoYW5nZU1lMR0wGwYJKoZIhvcNAQkBFg5tZUBl
eGFtcGxlLm5ldIIJAIceHdxrjGaIMBMGA1UdJQQMMAoGCCsGAQUFBwMCMAsGA1Ud
DwQEAwIHgDANBgkqhkiG9w0BAQsFAAOCAQEAPlVug40e+p2aTVWeiokalvB0ozsJ
6fRq6JdIKqVg9XoZ4hA5z8QCmqJS0neZ85RChtN1cJpWBosuCWErZrsDN6ScTm1+
VqlhO0XoV0UKdmcaLVDk0s+1S3eQcSIPFgaO8s/de+yAkYKGna7NcuGvdTvq45bC
EUd4u/VUu6D03MO7UmcGY6sfMA3HRgJtylPcrPR/jnyJwrOracvjF65g17kBRiuh
F9k5mHehol7z6NokPXtv7NiXmuzjPxcQbJGyNMGstMBE80QwpBZWzHxzpBejsJ+y
2850IDC2Nx/XjzUqsf7s+W6Z2WFB93TkqSrcM9qxS6+WahZ84uWQB1RTnA==
-----END CERTIFICATE-----
