Certificate:
    Data:
        Version: 3 (0x2)
        Serial Number:
            b5:16:6c:ce:df:81:94:da:79:45:1f:dd:92:88:b0:6d
    Signature Algorithm: sha256WithRSAEncryption
        Issuer: C=US, ST=California, L=San Francisco, O=Copyleft Certificate Co, OU=My Organizational Unit, CN=ChangeMe/emailAddress=me@example.net
        Validity
            Not Before: Nov 12 11:49:15 2023 GMT
            Not After : Nov 11 11:49:15 2024 GMT
        Subject: C=US, ST=OH, L=Cincinnati, O=University of Cincinnati, OU=Dept. Elec. Comp. Eng. Comp. Sci., CN=client45/emailAddress=franco@gauss.ececs.uc.edu
        Subject Public Key Info:
            Public Key Algorithm: rsaEncryption
                Public-Key: (2048 bit)
                Modulus:
                    00:c8:af:dd:6d:a6:aa:b5:ef:d9:e8:df:bc:9a:dd:
                    f4:b5:4f:6a:da:d5:a1:f7:55:c4:ca:40:0c:ee:60:
                    40:c2:de:95:6b:78:e2:63:d5:ea:c5:12:db:13:40:
                    75:89:eb:03:10:f4:50:84:6d:28:6e:58:e5:fa:21:
                    96:a7:d7:4d:c3:a6:ae:2d:81:21:f5:62:18:1d:c6:
                    3f:14:43:0c:78:db:6c:3b:0c:50:f6:26:a0:da:8d:
                    e5:19:29:55:07:93:4d:3f:70:18:4b:0f:ca:4f:61:
                    ee:44:ca:7a:5e:91:92:2b:1d:22:de:8b:28:b2:1a:
                    4e:a7:e8:49:39:9e:ba:bc:b4:7f:44:cb:10:29:80:
                    28:c8:03:7a:23:a0:cc:97:d1:75:04:7a:16:2c:00:
                    2c:de:a4:ea:f5:ba:4a:3e:b9:34:3f:5c:99:c9:d9:
                    ca:1d:7e:63:16:e0:14:71:34:b4:b8:22:e1:ea:14:
                    b3:2c:d1:4c:a9:6e:c9:55:d6:c6:a0:52:94:12:b2:
                    5f:e6:1a:37:bf:c3:c0:7e:1a:2e:0f:b2:59:09:87:
                    b1:07:0c:67:69:57:5d:55:35:ed:09:8c:15:28:93:
                    83:37:b3:a1:02:ef:08:d0:60:e6:69:3e:1b:11:bc:
                    91:47:14:f2:ea:18:69:f7:91:fa:3c:e3:1c:da:1c:
                    3c:b7
                Exponent: 65537 (0x10001)
        X509v3 extensions:
            X509v3 Basic Constraints: 
                CA:FALSE
            X509v3 Subject Key Identifier: 
                8B:AA:C6:75:17:D4:45:0A:09:DE:D6:13:1B:C2:9B:A2:9C:2F:61:72
            X509v3 Authority Key Identifier: 
                keyid:C4:46:F2:96:38:56:02:B8:9D:09:04:52:25:91:35:97:6A:D7:B1:F0
                DirName:/C=US/ST=California/L=San Francisco/O=Copyleft Certificate Co/OU=My Organizational Unit/CN=ChangeMe/emailAddress=me@example.net
                serial:D1:5A:15:1C:F0:20:95:62

            X509v3 Extended Key Usage: 
                TLS Web Client Authentication
            X509v3 Key Usage: 
                Digital Signature
    Signature Algorithm: sha256WithRSAEncryption
         ab:19:b0:79:4c:09:5e:39:a5:92:a5:ed:fc:7b:d6:a9:37:3f:
         0e:40:4f:ba:f0:0e:b1:4c:e7:ef:0b:63:1c:9b:3d:2f:2f:44:
         0e:e1:b1:2c:a7:3c:4e:c0:b5:b6:ad:e5:4c:01:ed:f4:2e:76:
         ef:f8:0f:90:d3:38:a4:34:76:2e:4d:9e:31:11:75:7d:cb:98:
         a5:a2:e8:7d:78:e2:2b:b0:56:2a:c8:2b:c6:73:6f:2d:80:9e:
         9a:74:a9:da:92:b2:a7:3e:ca:7b:04:a3:c1:d1:03:d7:91:c4:
         79:64:ba:60:8c:7c:f3:9b:78:86:e7:6e:a7:3c:04:34:85:29:
         aa:d0:e3:ca:72:1f:7f:b6:46:dd:d9:5d:62:53:3b:87:c0:c4:
         d4:bc:b3:04:67:7f:b4:db:91:18:68:3e:f9:4a:63:a9:4e:76:
         d4:69:7f:39:21:b2:8b:d2:8b:f6:82:fe:57:d6:13:41:f3:a4:
         b4:37:34:2d:b8:95:cb:86:21:46:9d:2b:27:63:61:fa:98:aa:
         5b:51:13:2e:0e:af:9a:09:a7:d2:87:63:40:df:5e:ea:dc:ec:
         09:68:04:73:b4:e9:48:1d:71:ec:c4:ed:ec:b4:e7:5b:9b:11:
         ab:9c:38:9c:83:17:03:ab:2d:9f:5c:40:0a:de:33:2d:fa:f9:
         1a:55:75:5e
-----BEGIN CERTIFICATE-----
MIIFMDCCBBigAwIBAgIRALUWbM7fgZTaeUUf3ZKIsG0wDQYJKoZIhvcNAQELBQAw
ga8xCzAJBgNVBAYTAlVTMRMwEQYDVQQIDApDYWxpZm9ybmlhMRYwFAYDVQQHDA1T
YW4gRnJhbmNpc2NvMSAwHgYDVQQKDBdDb3B5bGVmdCBDZXJ0aWZpY2F0ZSBDbzEf
MB0GA1UECwwWTXkgT3JnYW5pemF0aW9uYWwgVW5pdDERMA8GA1UEAwwIQ2hhbmdl
TWUxHTAbBgkqhkiG9w0BCQEWDm1lQGV4YW1wbGUubmV0MB4XDTIzMTExMjExNDkx
NVoXDTI0MTExMTExNDkxNVowgbsxCzAJBgNVBAYTAlVTMQswCQYDVQQIDAJPSDET
MBEGA1UEBwwKQ2luY2lubmF0aTEhMB8GA1UECgwYVW5pdmVyc2l0eSBvZiBDaW5j
aW5uYXRpMSowKAYDVQQLDCFEZXB0LiBFbGVjLiBDb21wLiBFbmcuIENvbXAuIFNj
aS4xETAPBgNVBAMMCGNsaWVudDQ1MSgwJgYJKoZIhvcNAQkBFhlmcmFuY29AZ2F1
c3MuZWNlY3MudWMuZWR1MIIBIjANBgkqhkiG9w0BAQEFAAOCAQ8AMIIBCgKCAQEA
yK/dbaaqte/Z6N+8mt30tU9q2tWh91XEykAM7mBAwt6Va3jiY9XqxRLbE0B1iesD
EPRQhG0obljl+iGWp9dNw6auLYEh9WIYHcY/FEMMeNtsOwxQ9iag2o3lGSlVB5NN
P3AYSw/KT2HuRMp6XpGSKx0i3ososhpOp+hJOZ66vLR/RMsQKYAoyAN6I6DMl9F1
BHoWLAAs3qTq9bpKPrk0P1yZydnKHX5jFuAUcTS0uCLh6hSzLNFMqW7JVdbGoFKU
ErJf5ho3v8PAfhouD7JZCYexBwxnaVddVTXtCYwVKJODN7OhAu8I0GDmaT4bEbyR
RxTy6hhp95H6POMc2hw8twIDAQABo4IBNzCCATMwCQYDVR0TBAIwADAdBgNVHQ4E
FgQUi6rGdRfURQoJ3tYTG8KbopwvYXIwgeQGA1UdIwSB3DCB2YAUxEbyljhWArid
CQRSJZE1l2rXsfChgbWkgbIwga8xCzAJBgNVBAYTAlVTMRMwEQYDVQQIDApDYWxp
Zm9ybmlhMRYwFAYDVQQHDA1TYW4gRnJhbmNpc2NvMSAwHgYDVQQKDBdDb3B5bGVm
dCBDZXJ0aWZpY2F0ZSBDbzEfMB0GA1UECwwWTXkgT3JnYW5pemF0aW9uYWwgVW5p
dDERMA8GA1UEAwwIQ2hhbmdlTWUxHTAbBgkqhkiG9w0BCQEWDm1lQGV4YW1wbGUu
bmV0ggkA0VoVHPAglWIwEwYDVR0lBAwwCgYIKwYBBQUHAwIwCwYDVR0PBAQDAgeA
MA0GCSqGSIb3DQEBCwUAA4IBAQCrGbB5TAleOaWSpe38e9apNz8OQE+68A6xTOfv
C2Mcmz0vL0QO4bEspzxOwLW2reVMAe30Lnbv+A+Q0zikNHYuTZ4xEXV9y5ilouh9
eOIrsFYqyCvGc28tgJ6adKnakrKnPsp7BKPB0QPXkcR5ZLpgjHzzm3iG526nPAQ0
hSmq0OPKch9/tkbd2V1iUzuHwMTUvLMEZ3+025EYaD75SmOpTnbUaX85IbKL0ov2
gv5X1hNB86S0NzQtuJXLhiFGnSsnY2H6mKpbURMuDq+aCafSh2NA317q3OwJaARz
tOlIHXHsxO3stOdbmxGrnDicgxcDqy2fXEAK3jMt+vkaVXVe
-----END CERTIFICATE-----
