Certificate:
    Data:
        Version: 3 (0x2)
        Serial Number:
            58:05:35:e1:29:00:5a:95:a0:90:ed:60:30:2e:8f:03
    Signature Algorithm: sha256WithRSAEncryption
        Issuer: C=US, ST=California, L=San Francisco, O=Copyleft Certificate Co, OU=My Organizational Unit, CN=ChangeMe/emailAddress=me@example.net
        Validity
            Not Before: Jan 23 18:28:37 2021 GMT
            Not After : Jan 23 18:28:37 2022 GMT
        Subject: C=US, ST=OH, L=Cincinnati, O=University of Cincinnati, OU=Dept. Electrical Eng. and Computer Sci., CN=client57/emailAddress=franco@gauss.ececs.uc.edu
        Subject Public Key Info:
            Public Key Algorithm: rsaEncryption
                Public-Key: (2048 bit)
                Modulus:
                    00:a8:c6:0a:3e:93:06:4c:15:00:c0:60:ed:f8:a8:
                    17:34:54:5d:3d:6e:6f:96:23:bd:30:c8:c2:90:50:
                    25:fb:22:7c:3e:a6:bf:fd:c1:8b:26:70:da:35:da:
                    8b:b8:1d:44:fd:37:5c:b4:b3:80:7c:1f:77:6d:37:
                    c1:a5:a5:a7:4a:54:34:cc:af:b7:91:05:8c:52:6b:
                    2a:0a:81:7c:17:6d:6f:f6:84:6d:4c:61:f5:8e:35:
                    f0:c1:d8:7d:10:24:9d:d3:cb:6b:01:fb:1e:f6:7c:
                    e4:d0:81:b5:9d:06:52:7a:e7:c4:f7:39:82:ca:c0:
                    30:d1:b9:4c:30:95:32:d7:7e:5d:0c:76:b8:7b:fa:
                    12:fd:9a:8d:bb:0d:c8:71:e1:10:3a:96:a9:db:90:
                    08:28:9f:c8:b6:93:c1:2a:f6:17:f3:44:0b:ce:6c:
                    78:b8:10:ea:da:af:81:2f:a8:29:68:79:4d:38:e5:
                    9c:17:bb:bc:10:db:50:a5:0a:72:4c:2a:0e:30:3d:
                    45:f9:cd:8f:6d:0c:6f:fe:c6:78:76:64:06:4a:9d:
                    9f:d6:10:ec:94:ba:41:fe:dd:8c:97:0b:aa:79:24:
                    45:d8:de:a8:38:ea:81:95:04:18:c6:6b:88:7f:44:
                    33:20:ac:50:5c:1d:3c:fa:36:65:10:0b:17:bd:c8:
                    6d:eb
                Exponent: 65537 (0x10001)
        X509v3 extensions:
            X509v3 Basic Constraints: 
                CA:FALSE
            X509v3 Subject Key Identifier: 
                ED:C0:B3:39:BC:5B:0F:7D:13:31:3F:57:4F:B5:73:DB:41:23:53:C8
            X509v3 Authority Key Identifier: 
                keyid:EF:DC:B6:3D:4B:FD:A7:87:05:C5:22:3D:8B:DC:BF:99:2A:EE:E4:DB
                DirName:/C=US/ST=California/L=San Francisco/O=Copyleft Certificate Co/OU=My Organizational Unit/CN=ChangeMe/emailAddress=me@example.net
                serial:87:1E:1D:DC:6B:8C:66:88

            X509v3 Extended Key Usage: 
                TLS Web Client Authentication
            X509v3 Key Usage: 
                Digital Signature
    Signature Algorithm: sha256WithRSAEncryption
         6a:87:8c:23:a4:fd:68:25:56:2e:8c:89:43:c7:1e:cc:19:db:
         9a:f7:fa:95:74:c8:54:0f:e1:5d:b0:fe:cc:5a:d0:b1:e9:af:
         42:e9:19:2f:7e:08:64:76:54:f5:11:06:8c:28:c8:b0:e2:fc:
         64:90:b3:32:a8:3f:12:43:44:e7:03:3e:f7:52:60:c5:7b:79:
         a7:d2:f4:2e:de:b5:18:3c:57:47:c6:9f:78:59:a3:6d:73:7b:
         42:b1:e3:02:00:7d:0e:68:06:04:53:ce:8b:60:c8:49:ff:23:
         e2:59:6e:77:0e:b3:7e:19:86:ea:5c:ea:6b:7f:34:43:66:b0:
         cf:cd:14:f5:22:3c:29:a2:bc:9f:d8:0b:7b:97:a0:b3:19:c0:
         1e:e0:8c:02:e0:60:e5:e4:a0:67:e1:ca:63:64:04:28:25:c2:
         46:4a:a3:a7:6c:39:ea:57:65:e2:81:71:d3:f3:28:34:78:b8:
         4d:f5:b0:b9:e5:c4:38:8a:e4:6b:b1:f7:65:22:55:c0:51:20:
         82:66:37:36:d0:90:69:e4:76:95:62:fc:81:32:fc:f7:60:06:
         47:03:e4:fd:03:72:ae:6a:60:65:cd:d6:f1:ef:97:19:1a:cb:
         0d:0a:de:12:b0:c7:03:af:88:cf:c0:97:81:c1:a2:b7:dc:79:
         c9:42:b1:d8
-----BEGIN CERTIFICATE-----
MIIFNTCCBB2gAwIBAgIQWAU14SkAWpWgkO1gMC6PAzANBgkqhkiG9w0BAQsFADCB
rzELMAkGA1UEBhMCVVMxEzARBgNVBAgMCkNhbGlmb3JuaWExFjAUBgNVBAcMDVNh
biBGcmFuY2lzY28xIDAeBgNVBAoMF0NvcHlsZWZ0IENlcnRpZmljYXRlIENvMR8w
HQYDVQQLDBZNeSBPcmdhbml6YXRpb25hbCBVbml0MREwDwYDVQQDDAhDaGFuZ2VN
ZTEdMBsGCSqGSIb3DQEJARYObWVAZXhhbXBsZS5uZXQwHhcNMjEwMTIzMTgyODM3
WhcNMjIwMTIzMTgyODM3WjCBwTELMAkGA1UEBhMCVVMxCzAJBgNVBAgMAk9IMRMw
EQYDVQQHDApDaW5jaW5uYXRpMSEwHwYDVQQKDBhVbml2ZXJzaXR5IG9mIENpbmNp
bm5hdGkxMDAuBgNVBAsMJ0RlcHQuIEVsZWN0cmljYWwgRW5nLiBhbmQgQ29tcHV0
ZXIgU2NpLjERMA8GA1UEAwwIY2xpZW50NTcxKDAmBgkqhkiG9w0BCQEWGWZyYW5j
b0BnYXVzcy5lY2Vjcy51Yy5lZHUwggEiMA0GCSqGSIb3DQEBAQUAA4IBDwAwggEK
AoIBAQCoxgo+kwZMFQDAYO34qBc0VF09bm+WI70wyMKQUCX7Inw+pr/9wYsmcNo1
2ou4HUT9N1y0s4B8H3dtN8GlpadKVDTMr7eRBYxSayoKgXwXbW/2hG1MYfWONfDB
2H0QJJ3Ty2sB+x72fOTQgbWdBlJ658T3OYLKwDDRuUwwlTLXfl0Mdrh7+hL9mo27
Dchx4RA6lqnbkAgon8i2k8Eq9hfzRAvObHi4EOrar4EvqCloeU045ZwXu7wQ21Cl
CnJMKg4wPUX5zY9tDG/+xnh2ZAZKnZ/WEOyUukH+3YyXC6p5JEXY3qg46oGVBBjG
a4h/RDMgrFBcHTz6NmUQCxe9yG3rAgMBAAGjggE3MIIBMzAJBgNVHRMEAjAAMB0G
A1UdDgQWBBTtwLM5vFsPfRMxP1dPtXPbQSNTyDCB5AYDVR0jBIHcMIHZgBTv3LY9
S/2nhwXFIj2L3L+ZKu7k26GBtaSBsjCBrzELMAkGA1UEBhMCVVMxEzARBgNVBAgM
CkNhbGlmb3JuaWExFjAUBgNVBAcMDVNhbiBGcmFuY2lzY28xIDAeBgNVBAoMF0Nv
cHlsZWZ0IENlcnRpZmljYXRlIENvMR8wHQYDVQQLDBZNeSBPcmdhbml6YXRpb25h
bCBVbml0MREwDwYDVQQDDAhDaGFuZ2VNZTEdMBsGCSqGSIb3DQEJARYObWVAZXhh
bXBsZS5uZXSCCQCHHh3ca4xmiDATBgNVHSUEDDAKBggrBgEFBQcDAjALBgNVHQ8E
BAMCB4AwDQYJKoZIhvcNAQELBQADggEBAGqHjCOk/WglVi6MiUPHHswZ25r3+pV0
yFQP4V2w/sxa0LHpr0LpGS9+CGR2VPURBowoyLDi/GSQszKoPxJDROcDPvdSYMV7
eafS9C7etRg8V0fGn3hZo21ze0Kx4wIAfQ5oBgRTzotgyEn/I+JZbncOs34Zhupc
6mt/NENmsM/NFPUiPCmivJ/YC3uXoLMZwB7gjALgYOXkoGfhymNkBCglwkZKo6ds
OepXZeKBcdPzKDR4uE31sLnlxDiK5Gux92UiVcBRIIJmNzbQkGnkdpVi/IEy/Pdg
BkcD5P0Dcq5qYGXN1vHvlxkayw0K3hKwxwOviM/Al4HBorfceclCsdg=
-----END CERTIFICATE-----
