Certificate:
    Data:
        Version: 3 (0x2)
        Serial Number:
            4b:91:08:42:90:51:03:29:50:13:86:32:82:ae:90:fc
    Signature Algorithm: sha256WithRSAEncryption
        Issuer: C=US, ST=California, L=San Francisco, O=Copyleft Certificate Co, OU=My Organizational Unit, CN=ChangeMe/emailAddress=me@example.net
        Validity
            Not Before: Jan 23 18:28:46 2021 GMT
            Not After : Jan 23 18:28:46 2022 GMT
        Subject: C=US, ST=OH, L=Cincinnati, O=University of Cincinnati, OU=Dept. Electrical Eng. and Computer Sci., CN=client64/emailAddress=franco@gauss.ececs.uc.edu
        Subject Public Key Info:
            Public Key Algorithm: rsaEncryption
                Public-Key: (2048 bit)
                Modulus:
                    00:bb:c5:4c:af:f0:91:d0:93:41:e7:c8:16:ef:74:
                    1e:0c:07:ef:19:47:db:83:5d:48:39:35:c6:2e:5e:
                    f8:09:54:5b:ef:a5:76:88:f7:9f:70:78:7c:30:a6:
                    bb:d5:97:73:5c:7f:ce:8a:d8:33:1b:60:e0:f8:af:
                    02:aa:75:c0:9f:3f:6a:03:c7:65:b0:14:99:90:b9:
                    54:29:8b:bf:39:59:4a:91:77:2c:ca:24:68:c6:5c:
                    a1:d2:fb:b0:79:2a:4d:ec:5a:ea:ec:dd:1d:e4:80:
                    8d:8d:24:a9:d9:01:c5:4d:2c:72:cc:59:df:23:16:
                    81:06:e3:c6:2d:79:9f:bc:7f:56:7e:f5:aa:41:f8:
                    47:28:17:e0:6c:61:1a:94:4e:9f:56:6e:c5:41:5b:
                    c1:7a:62:45:15:60:8c:e0:72:96:de:15:b3:95:c9:
                    7d:53:8b:4f:ec:57:e8:ea:22:36:d2:ec:e9:a8:48:
                    58:87:59:01:77:7d:dd:09:b7:62:fe:cc:41:3d:c2:
                    ab:3f:00:1f:83:9d:da:60:ed:ca:88:c3:fc:d8:30:
                    99:ea:d1:5d:1b:b6:9b:3d:be:41:04:e1:1d:af:af:
                    bc:23:9a:43:a6:20:ee:5e:88:63:7e:cb:69:d6:0d:
                    9e:77:a1:d5:6d:73:0d:fe:db:7b:47:b2:34:df:35:
                    8a:3d
                Exponent: 65537 (0x10001)
        X509v3 extensions:
            X509v3 Basic Constraints: 
                CA:FALSE
            X509v3 Subject Key Identifier: 
                43:FC:EA:05:99:75:D8:C8:CA:0C:EA:C7:C0:36:5F:39:9F:8B:B6:21
            X509v3 Authority Key Identifier: 
                keyid:EF:DC:B6:3D:4B:FD:A7:87:05:C5:22:3D:8B:DC:BF:99:2A:EE:E4:DB
                DirName:/C=US/ST=California/L=San Francisco/O=Copyleft Certificate Co/OU=My Organizational Unit/CN=ChangeMe/emailAddress=me@example.net
                serial:87:1E:1D:DC:6B:8C:66:88

            X509v3 Extended Key Usage: 
                TLS Web Client Authentication
            X509v3 Key Usage: 
                Digital Signature
    Signature Algorithm: sha256WithRSAEncryption
         d1:da:9d:eb:6f:1b:78:25:35:a6:bb:33:bb:a3:f7:71:12:34:
         6a:e9:61:f1:a7:35:dd:fa:68:6e:97:d9:20:b2:10:3e:af:1e:
         cf:a0:be:54:0a:d4:3d:81:b2:df:ba:46:82:34:58:f6:4f:2a:
         cc:a5:f8:b8:c7:51:07:f3:c6:97:dd:cc:f8:1b:40:4c:56:68:
         03:d7:26:04:9d:dd:f7:8d:80:8c:18:e5:56:e8:ad:47:a9:45:
         6a:17:8a:04:8d:16:68:0f:ef:10:48:be:54:a5:0a:86:a2:50:
         1c:63:5d:bd:c7:91:52:09:8f:90:0f:ff:25:8b:aa:3d:9b:96:
         3e:a1:07:ae:fa:4f:fd:b2:1b:30:7f:6c:71:40:7d:43:27:93:
         18:e3:ab:67:44:10:01:ca:ef:a4:ed:c0:28:33:f3:c4:56:3c:
         57:7f:db:a1:68:c9:d3:57:b2:05:e0:c8:6e:bd:6b:06:93:41:
         fc:a0:32:9b:93:e8:94:8c:d6:8d:67:e2:28:61:65:cc:ad:ab:
         b4:12:43:73:ce:98:98:da:b2:bb:d2:ea:91:c5:f6:74:07:e4:
         ff:dc:e8:bb:1b:59:36:23:e0:7a:48:f8:0a:73:c9:51:a4:ef:
         15:48:56:77:3d:77:89:7f:9d:e1:7c:02:a8:ef:4b:78:6f:ce:
         2d:6f:e2:d9
-----BEGIN CERTIFICATE-----
MIIFNTCCBB2gAwIBAgIQS5EIQpBRAylQE4Yygq6Q/DANBgkqhkiG9w0BAQsFADCB
rzELMAkGA1UEBhMCVVMxEzARBgNVBAgMCkNhbGlmb3JuaWExFjAUBgNVBAcMDVNh
biBGcmFuY2lzY28xIDAeBgNVBAoMF0NvcHlsZWZ0IENlcnRpZmljYXRlIENvMR8w
HQYDVQQLDBZNeSBPcmdhbml6YXRpb25hbCBVbml0MREwDwYDVQQDDAhDaGFuZ2VN
ZTEdMBsGCSqGSIb3DQEJARYObWVAZXhhbXBsZS5uZXQwHhcNMjEwMTIzMTgyODQ2
WhcNMjIwMTIzMTgyODQ2WjCBwTELMAkGA1UEBhMCVVMxCzAJBgNVBAgMAk9IMRMw
EQYDVQQHDApDaW5jaW5uYXRpMSEwHwYDVQQKDBhVbml2ZXJzaXR5IG9mIENpbmNp
bm5hdGkxMDAuBgNVBAsMJ0RlcHQuIEVsZWN0cmljYWwgRW5nLiBhbmQgQ29tcHV0
ZXIgU2NpLjERMA8GA1UEAwwIY2xpZW50NjQxKDAmBgkqhkiG9w0BCQEWGWZyYW5j
b0BnYXVzcy5lY2Vjcy51Yy5lZHUwggEiMA0GCSqGSIb3DQEBAQUAA4IBDwAwggEK
AoIBAQC7xUyv8JHQk0HnyBbvdB4MB+8ZR9uDXUg5NcYuXvgJVFvvpXaI959weHww
prvVl3Ncf86K2DMbYOD4rwKqdcCfP2oDx2WwFJmQuVQpi785WUqRdyzKJGjGXKHS
+7B5Kk3sWurs3R3kgI2NJKnZAcVNLHLMWd8jFoEG48YteZ+8f1Z+9apB+EcoF+Bs
YRqUTp9WbsVBW8F6YkUVYIzgcpbeFbOVyX1Ti0/sV+jqIjbS7OmoSFiHWQF3fd0J
t2L+zEE9wqs/AB+Dndpg7cqIw/zYMJnq0V0btps9vkEE4R2vr7wjmkOmIO5eiGN+
y2nWDZ53odVtcw3+23tHsjTfNYo9AgMBAAGjggE3MIIBMzAJBgNVHRMEAjAAMB0G
A1UdDgQWBBRD/OoFmXXYyMoM6sfANl85n4u2ITCB5AYDVR0jBIHcMIHZgBTv3LY9
S/2nhwXFIj2L3L+ZKu7k26GBtaSBsjCBrzELMAkGA1UEBhMCVVMxEzARBgNVBAgM
CkNhbGlmb3JuaWExFjAUBgNVBAcMDVNhbiBGcmFuY2lzY28xIDAeBgNVBAoMF0Nv
cHlsZWZ0IENlcnRpZmljYXRlIENvMR8wHQYDVQQLDBZNeSBPcmdhbml6YXRpb25h
bCBVbml0MREwDwYDVQQDDAhDaGFuZ2VNZTEdMBsGCSqGSIb3DQEJARYObWVAZXhh
bXBsZS5uZXSCCQCHHh3ca4xmiDATBgNVHSUEDDAKBggrBgEFBQcDAjALBgNVHQ8E
BAMCB4AwDQYJKoZIhvcNAQELBQADggEBANHanetvG3glNaa7M7uj93ESNGrpYfGn
Nd36aG6X2SCyED6vHs+gvlQK1D2Bst+6RoI0WPZPKsyl+LjHUQfzxpfdzPgbQExW
aAPXJgSd3feNgIwY5VborUepRWoXigSNFmgP7xBIvlSlCoaiUBxjXb3HkVIJj5AP
/yWLqj2blj6hB676T/2yGzB/bHFAfUMnkxjjq2dEEAHK76TtwCgz88RWPFd/26Fo
ydNXsgXgyG69awaTQfygMpuT6JSM1o1n4ihhZcytq7QSQ3POmJjasrvS6pHF9nQH
5P/c6LsbWTYj4HpI+ApzyVGk7xVIVnc9d4l/neF8AqjvS3hvzi1v4tk=
-----END CERTIFICATE-----
