Certificate:
    Data:
        Version: 3 (0x2)
        Serial Number:
            a0:b5:ee:6d:b2:fe:35:b1:d2:a4:5b:f9:f5:ce:c7:98
    Signature Algorithm: sha256WithRSAEncryption
        Issuer: C=US, ST=California, L=San Francisco, O=Copyleft Certificate Co, OU=My Organizational Unit, CN=ChangeMe/emailAddress=me@example.net
        Validity
            Not Before: Nov 13 11:46:42 2023 GMT
            Not After : Nov 12 11:46:42 2024 GMT
        Subject: C=US, ST=OH, L=Cincinnati, O=University of Cincinnati, OU=Dept. Elec. Comp. Eng. Comp. Sci., CN=client4/emailAddress=franco@gauss.ececs.uc.edu
        Subject Public Key Info:
            Public Key Algorithm: rsaEncryption
                Public-Key: (2048 bit)
                Modulus:
                    00:bf:ae:b7:ae:db:c5:f8:25:04:e3:d6:bc:d0:31:
                    9a:b7:c8:c3:fc:2c:0c:42:f3:39:50:3d:0b:f4:57:
                    48:e1:e4:61:70:39:c6:da:91:72:22:b2:4e:ae:0b:
                    3d:9c:e7:81:b7:14:79:48:66:8d:e9:e7:d2:19:fe:
                    2c:6f:02:77:48:f2:92:a4:b2:46:36:fa:c1:25:b2:
                    56:19:91:12:fc:a1:04:94:2a:f4:9d:bc:37:cf:82:
                    71:5b:6d:cd:1c:83:44:e8:62:0b:1a:5a:ff:24:d0:
                    d1:9e:44:eb:16:f3:dc:f9:3c:ff:ab:5e:09:b5:f7:
                    4f:7a:45:78:18:9e:4a:1e:1d:b5:ed:8e:5e:ec:19:
                    ae:e4:11:50:49:2c:f8:7c:96:87:72:7a:2c:10:b1:
                    be:f5:07:cf:d7:8a:29:d2:b4:a6:5e:09:3a:f5:cc:
                    58:0d:05:52:c8:26:00:b7:0d:66:d1:18:65:e0:b1:
                    cd:f1:0d:7e:ab:9c:a9:b2:3b:90:48:bd:02:86:ee:
                    29:fc:22:c7:a9:c9:42:4b:00:dd:f3:4c:e1:10:62:
                    e3:f1:4d:88:5a:a1:b0:d6:23:2b:72:b7:c4:3b:8a:
                    04:2c:54:e7:cc:ff:86:40:83:2d:00:60:bb:4a:37:
                    69:83:f5:14:13:6f:72:c7:fe:fd:4c:aa:62:0e:9f:
                    d7:cd
                Exponent: 65537 (0x10001)
        X509v3 extensions:
            X509v3 Basic Constraints: 
                CA:FALSE
            X509v3 Subject Key Identifier: 
                98:B8:E8:41:A3:97:95:0A:85:A9:69:A7:CC:11:FE:04:73:B2:8D:7B
            X509v3 Authority Key Identifier: 
                keyid:B4:AE:AB:ED:FC:ED:84:AA:AD:77:5D:7C:84:28:1C:CA:CE:AE:2A:44
                DirName:/C=US/ST=California/L=San Francisco/O=Copyleft Certificate Co/OU=My Organizational Unit/CN=ChangeMe/emailAddress=me@example.net
                serial:BD:6C:3B:F4:D3:07:C9:D1

            X509v3 Extended Key Usage: 
                TLS Web Client Authentication
            X509v3 Key Usage: 
                Digital Signature
    Signature Algorithm: sha256WithRSAEncryption
         53:c8:76:eb:80:0b:6b:36:9d:b8:08:83:13:c6:ec:e6:79:91:
         99:a0:15:85:bb:da:e1:bc:37:fe:cc:37:70:28:05:1b:06:3d:
         f1:4c:67:e9:fb:b2:d7:43:42:83:08:c0:d4:f6:17:1b:ef:00:
         fa:02:bc:63:3d:87:4e:91:a4:10:5f:b0:b5:bc:09:fa:60:e5:
         39:f9:50:b5:12:24:22:56:ec:b1:6c:79:2e:0b:e4:57:ae:d8:
         63:b5:1d:3d:2a:61:a6:54:30:43:c4:6d:c9:d2:db:4d:f5:43:
         7c:b6:72:8b:f4:b8:0d:71:e5:3b:d4:ec:16:94:db:e3:bd:c0:
         73:95:01:fc:72:4a:70:9b:82:60:7e:dd:9b:4c:9f:78:f4:8e:
         6e:d8:b8:7b:9c:5d:a2:02:be:f6:c1:86:4c:93:f1:41:df:08:
         cc:fd:b1:7a:95:83:f0:06:f2:42:6f:d1:c4:94:37:11:b1:6e:
         0c:d4:51:14:2f:e6:dc:2b:fe:56:5c:cf:a7:dc:e6:e8:77:6d:
         2e:83:ab:15:a7:fc:02:95:3e:c3:30:e6:04:1f:59:d5:09:bf:
         9f:df:21:a6:82:c5:31:91:31:4f:a2:1d:ed:75:e6:55:b6:1c:
         e0:4b:2b:26:d6:2c:d9:13:af:36:64:c7:cc:f3:42:6d:84:fa:
         04:6f:e5:96
-----BEGIN CERTIFICATE-----
MIIFLzCCBBegAwIBAgIRAKC17m2y/jWx0qRb+fXOx5gwDQYJKoZIhvcNAQELBQAw
ga8xCzAJBgNVBAYTAlVTMRMwEQYDVQQIDApDYWxpZm9ybmlhMRYwFAYDVQQHDA1T
YW4gRnJhbmNpc2NvMSAwHgYDVQQKDBdDb3B5bGVmdCBDZXJ0aWZpY2F0ZSBDbzEf
MB0GA1UECwwWTXkgT3JnYW5pemF0aW9uYWwgVW5pdDERMA8GA1UEAwwIQ2hhbmdl
TWUxHTAbBgkqhkiG9w0BCQEWDm1lQGV4YW1wbGUubmV0MB4XDTIzMTExMzExNDY0
MloXDTI0MTExMjExNDY0MlowgboxCzAJBgNVBAYTAlVTMQswCQYDVQQIDAJPSDET
MBEGA1UEBwwKQ2luY2lubmF0aTEhMB8GA1UECgwYVW5pdmVyc2l0eSBvZiBDaW5j
aW5uYXRpMSowKAYDVQQLDCFEZXB0LiBFbGVjLiBDb21wLiBFbmcuIENvbXAuIFNj
aS4xEDAOBgNVBAMMB2NsaWVudDQxKDAmBgkqhkiG9w0BCQEWGWZyYW5jb0BnYXVz
cy5lY2Vjcy51Yy5lZHUwggEiMA0GCSqGSIb3DQEBAQUAA4IBDwAwggEKAoIBAQC/
rreu28X4JQTj1rzQMZq3yMP8LAxC8zlQPQv0V0jh5GFwOcbakXIisk6uCz2c54G3
FHlIZo3p59IZ/ixvAndI8pKkskY2+sElslYZkRL8oQSUKvSdvDfPgnFbbc0cg0To
YgsaWv8k0NGeROsW89z5PP+rXgm19096RXgYnkoeHbXtjl7sGa7kEVBJLPh8lody
eiwQsb71B8/XiinStKZeCTr1zFgNBVLIJgC3DWbRGGXgsc3xDX6rnKmyO5BIvQKG
7in8IsepyUJLAN3zTOEQYuPxTYhaobDWIytyt8Q7igQsVOfM/4ZAgy0AYLtKN2mD
9RQTb3LH/v1MqmIOn9fNAgMBAAGjggE3MIIBMzAJBgNVHRMEAjAAMB0GA1UdDgQW
BBSYuOhBo5eVCoWpaafMEf4Ec7KNezCB5AYDVR0jBIHcMIHZgBS0rqvt/O2Eqq13
XXyEKBzKzq4qRKGBtaSBsjCBrzELMAkGA1UEBhMCVVMxEzARBgNVBAgMCkNhbGlm
b3JuaWExFjAUBgNVBAcMDVNhbiBGcmFuY2lzY28xIDAeBgNVBAoMF0NvcHlsZWZ0
IENlcnRpZmljYXRlIENvMR8wHQYDVQQLDBZNeSBPcmdhbml6YXRpb25hbCBVbml0
MREwDwYDVQQDDAhDaGFuZ2VNZTEdMBsGCSqGSIb3DQEJARYObWVAZXhhbXBsZS5u
ZXSCCQC9bDv00wfJ0TATBgNVHSUEDDAKBggrBgEFBQcDAjALBgNVHQ8EBAMCB4Aw
DQYJKoZIhvcNAQELBQADggEBAFPIduuAC2s2nbgIgxPG7OZ5kZmgFYW72uG8N/7M
N3AoBRsGPfFMZ+n7stdDQoMIwNT2FxvvAPoCvGM9h06RpBBfsLW8Cfpg5Tn5ULUS
JCJW7LFseS4L5Feu2GO1HT0qYaZUMEPEbcnS2031Q3y2cov0uA1x5TvU7BaU2+O9
wHOVAfxySnCbgmB+3ZtMn3j0jm7YuHucXaICvvbBhkyT8UHfCMz9sXqVg/AG8kJv
0cSUNxGxbgzUURQv5twr/lZcz6fc5uh3bS6DqxWn/AKVPsMw5gQfWdUJv5/fIaaC
xTGRMU+iHe115lW2HOBLKybWLNkTrzZkx8zzQm2E+gRv5ZY=
-----END CERTIFICATE-----
