Certificate:
    Data:
        Version: 3 (0x2)
        Serial Number:
            d1:31:5e:75:46:7b:95:35:0e:83:61:7c:00:10:34:40
    Signature Algorithm: sha256WithRSAEncryption
        Issuer: C=US, ST=California, L=San Francisco, O=Copyleft Certificate Co, OU=My Organizational Unit, CN=ChangeMe/emailAddress=me@example.net
        Validity
            Not Before: Nov 11 14:50:18 2023 GMT
            Not After : Nov 10 14:50:18 2024 GMT
        Subject: C=US, ST=OH, L=Cincinnati, O=University of Cincinnati ., OU=Dept. Elec. Comp. . Eng. Comp. Sci., CN=client9/emailAddress=franco@gauss.ececs.uc.edu
        Subject Public Key Info:
            Public Key Algorithm: rsaEncryption
                Public-Key: (2048 bit)
                Modulus:
                    00:ad:5f:f3:06:6b:a3:6f:41:5c:7e:d9:e6:c0:75:
                    cf:61:48:3f:2b:c6:fe:65:ff:81:c3:23:b7:fa:a1:
                    cc:84:ea:ef:28:05:65:48:7d:35:d8:12:cb:d2:60:
                    b2:7e:1b:1b:c3:1b:fa:19:5b:21:50:ef:ac:f7:ef:
                    44:fa:f7:7a:cf:55:3a:46:c0:a4:50:90:56:aa:85:
                    c2:d4:5a:cf:26:d5:75:54:3a:e3:ff:80:a2:43:3f:
                    5a:7f:6d:06:d5:5f:20:3c:61:53:1b:d8:29:47:2b:
                    03:90:a2:07:e6:05:e7:1a:42:5d:8e:94:c8:4e:fb:
                    86:d9:74:28:c0:43:1b:03:68:e9:fd:9e:37:0b:f8:
                    36:bf:0b:8e:50:fd:25:ed:b4:0c:6d:3a:6a:da:a7:
                    8e:6c:2a:8d:e4:11:58:88:5c:7d:de:44:c5:1f:92:
                    e7:d4:62:4f:b2:0b:a4:5d:fa:49:1b:99:02:b7:5f:
                    ac:41:b7:82:10:42:f9:48:74:d9:c0:ce:24:c5:44:
                    d3:a7:b0:f5:6f:2f:ad:9a:0e:9a:37:a5:2f:0f:51:
                    c4:d1:8d:71:91:99:00:e2:76:47:34:2a:f5:41:ca:
                    13:6a:03:1a:a5:3b:3e:c8:28:1c:1d:d0:09:2c:ed:
                    61:44:99:b5:dc:4c:13:7a:b7:08:d8:04:3d:30:af:
                    2c:f7
                Exponent: 65537 (0x10001)
        X509v3 extensions:
            X509v3 Basic Constraints: 
                CA:FALSE
            X509v3 Subject Key Identifier: 
                07:B8:0F:3A:3E:81:F3:3E:F9:07:12:AE:83:59:67:A0:90:30:DE:A1
            X509v3 Authority Key Identifier: 
                keyid:37:77:FF:9E:80:0A:A0:2D:03:2E:41:2E:A7:9F:2C:08:1D:27:A7:1F
                DirName:/C=US/ST=California/L=San Francisco/O=Copyleft Certificate Co/OU=My Organizational Unit/CN=ChangeMe/emailAddress=me@example.net
                serial:8E:F4:CE:BF:34:CB:64:72

            X509v3 Extended Key Usage: 
                TLS Web Client Authentication
            X509v3 Key Usage: 
                Digital Signature
    Signature Algorithm: sha256WithRSAEncryption
         70:30:ed:61:ed:11:4d:14:cf:b8:48:db:09:15:80:ad:ba:69:
         0d:1a:e3:3c:2e:f1:3e:cf:e2:e2:13:0d:dd:4a:48:4c:3a:a9:
         f5:39:e7:44:34:81:77:ff:30:8a:db:79:54:41:20:6e:3d:1a:
         b8:0d:e4:43:66:b0:f9:ab:c2:b9:3d:55:25:8b:a2:ff:6b:65:
         4a:39:53:92:2d:d6:e4:33:9d:cf:ce:c6:e2:76:99:5d:bf:e2:
         e0:61:b2:07:a8:89:40:9f:72:a7:99:31:f8:4d:8f:b9:51:a9:
         46:8a:cd:cd:61:a8:17:a2:46:fc:0f:56:28:1a:c1:ae:1e:35:
         58:a4:c4:1a:62:03:57:25:96:a6:ff:e1:2e:79:4f:b6:2d:65:
         f3:8f:94:68:9a:16:23:87:53:ed:54:1e:39:0f:84:4e:99:18:
         0c:dc:9f:13:a0:ec:f4:3b:36:ea:29:65:be:aa:5f:2b:bd:e8:
         35:f1:28:da:86:07:55:36:c5:8f:40:f3:94:bc:4e:75:14:c0:
         37:44:bc:61:5a:01:0e:96:1b:b5:6d:d8:fd:44:99:6c:7d:db:
         c4:08:24:4e:db:cd:d8:cb:84:2c:53:67:9d:ca:81:76:a5:2f:
         d8:9b:ef:2e:5b:54:bf:50:28:d5:0a:08:37:32:6a:b7:04:28:
         94:16:43:50
-----BEGIN CERTIFICATE-----
MIIFMzCCBBugAwIBAgIRANExXnVGe5U1DoNhfAAQNEAwDQYJKoZIhvcNAQELBQAw
ga8xCzAJBgNVBAYTAlVTMRMwEQYDVQQIDApDYWxpZm9ybmlhMRYwFAYDVQQHDA1T
YW4gRnJhbmNpc2NvMSAwHgYDVQQKDBdDb3B5bGVmdCBDZXJ0aWZpY2F0ZSBDbzEf
MB0GA1UECwwWTXkgT3JnYW5pemF0aW9uYWwgVW5pdDERMA8GA1UEAwwIQ2hhbmdl
TWUxHTAbBgkqhkiG9w0BCQEWDm1lQGV4YW1wbGUubmV0MB4XDTIzMTExMTE0NTAx
OFoXDTI0MTExMDE0NTAxOFowgb4xCzAJBgNVBAYTAlVTMQswCQYDVQQIDAJPSDET
MBEGA1UEBwwKQ2luY2lubmF0aTEjMCEGA1UECgwaVW5pdmVyc2l0eSBvZiBDaW5j
aW5uYXRpIC4xLDAqBgNVBAsMI0RlcHQuIEVsZWMuIENvbXAuIC4gRW5nLiBDb21w
LiBTY2kuMRAwDgYDVQQDDAdjbGllbnQ5MSgwJgYJKoZIhvcNAQkBFhlmcmFuY29A
Z2F1c3MuZWNlY3MudWMuZWR1MIIBIjANBgkqhkiG9w0BAQEFAAOCAQ8AMIIBCgKC
AQEArV/zBmujb0FcftnmwHXPYUg/K8b+Zf+BwyO3+qHMhOrvKAVlSH012BLL0mCy
fhsbwxv6GVshUO+s9+9E+vd6z1U6RsCkUJBWqoXC1FrPJtV1VDrj/4CiQz9af20G
1V8gPGFTG9gpRysDkKIH5gXnGkJdjpTITvuG2XQowEMbA2jp/Z43C/g2vwuOUP0l
7bQMbTpq2qeObCqN5BFYiFx93kTFH5Ln1GJPsgukXfpJG5kCt1+sQbeCEEL5SHTZ
wM4kxUTTp7D1by+tmg6aN6UvD1HE0Y1xkZkA4nZHNCr1QcoTagMapTs+yCgcHdAJ
LO1hRJm13EwTercI2AQ9MK8s9wIDAQABo4IBNzCCATMwCQYDVR0TBAIwADAdBgNV
HQ4EFgQUB7gPOj6B8z75BxKug1lnoJAw3qEwgeQGA1UdIwSB3DCB2YAUN3f/noAK
oC0DLkEup58sCB0npx+hgbWkgbIwga8xCzAJBgNVBAYTAlVTMRMwEQYDVQQIDApD
YWxpZm9ybmlhMRYwFAYDVQQHDA1TYW4gRnJhbmNpc2NvMSAwHgYDVQQKDBdDb3B5
bGVmdCBDZXJ0aWZpY2F0ZSBDbzEfMB0GA1UECwwWTXkgT3JnYW5pemF0aW9uYWwg
VW5pdDERMA8GA1UEAwwIQ2hhbmdlTWUxHTAbBgkqhkiG9w0BCQEWDm1lQGV4YW1w
bGUubmV0ggkAjvTOvzTLZHIwEwYDVR0lBAwwCgYIKwYBBQUHAwIwCwYDVR0PBAQD
AgeAMA0GCSqGSIb3DQEBCwUAA4IBAQBwMO1h7RFNFM+4SNsJFYCtumkNGuM8LvE+
z+LiEw3dSkhMOqn1OedENIF3/zCK23lUQSBuPRq4DeRDZrD5q8K5PVUli6L/a2VK
OVOSLdbkM53Pzsbidpldv+LgYbIHqIlAn3KnmTH4TY+5UalGis3NYagXokb8D1Yo
GsGuHjVYpMQaYgNXJZam/+EueU+2LWXzj5RomhYjh1PtVB45D4ROmRgM3J8ToOz0
OzbqKWW+ql8rveg18SjahgdVNsWPQPOUvE51FMA3RLxhWgEOlhu1bdj9RJlsfdvE
CCRO283Yy4QsU2edyoF2pS/Ym+8uW1S/UCjVCgg3Mmq3BCiUFkNQ
-----END CERTIFICATE-----
