Certificate:
    Data:
        Version: 3 (0x2)
        Serial Number:
            78:9d:e6:5c:d5:30:59:43:8b:1f:41:9a:bd:2e:f9:9d
    Signature Algorithm: sha256WithRSAEncryption
        Issuer: C=US, ST=California, L=San Francisco, O=Copyleft Certificate Co, OU=My Organizational Unit, CN=ChangeMe/emailAddress=me@example.net
        Validity
            Not Before: Nov 12 11:48:19 2023 GMT
            Not After : Nov 11 11:48:19 2024 GMT
        Subject: C=US, ST=OH, L=Cincinnati, O=University of Cincinnati, OU=Dept. Elec. Comp. Eng. Comp. Sci., CN=client31/emailAddress=franco@gauss.ececs.uc.edu
        Subject Public Key Info:
            Public Key Algorithm: rsaEncryption
                Public-Key: (2048 bit)
                Modulus:
                    00:b4:3b:a7:e8:1a:ca:10:1b:ea:58:57:61:a7:c1:
                    e1:f9:14:bd:7f:b6:e5:b3:c8:ec:55:65:f5:e0:4b:
                    28:ae:aa:07:25:6e:59:0c:4c:83:23:3d:a9:d3:1f:
                    f3:55:00:1c:a8:96:53:ce:af:d7:e6:e4:23:ca:f0:
                    c4:77:82:6b:2a:d1:0d:81:de:20:8a:d0:58:5b:da:
                    36:1a:dc:03:ec:b6:83:af:37:36:fb:c8:18:66:b5:
                    37:dc:d5:56:35:47:92:08:68:eb:4e:71:9d:38:43:
                    c4:51:f4:31:f0:e1:5c:08:3d:41:29:f4:66:2f:e1:
                    95:5a:93:a2:5d:4f:3b:b7:30:d2:5b:fb:3b:80:db:
                    13:b5:66:da:a3:db:c6:1c:04:23:ba:04:96:52:1d:
                    21:51:db:a8:cd:e0:61:d1:94:d3:92:2f:7f:4d:5d:
                    4a:ce:03:77:0b:7b:da:ad:4d:5b:ff:1e:32:34:b1:
                    d4:22:5d:b7:55:5d:d7:a8:11:91:b2:1d:d9:a5:69:
                    42:21:4c:cf:08:d8:a2:c4:82:d7:1c:67:5f:63:7c:
                    3b:79:ef:28:fa:30:0e:1e:01:16:d6:9d:98:76:81:
                    82:a2:ad:1b:c4:19:6b:98:3c:6f:d2:db:2a:e0:98:
                    40:b0:7a:9b:26:85:6d:2f:bf:bd:a2:60:61:9c:b8:
                    c0:27
                Exponent: 65537 (0x10001)
        X509v3 extensions:
            X509v3 Basic Constraints: 
                CA:FALSE
            X509v3 Subject Key Identifier: 
                4A:9B:AD:70:CA:F7:E3:86:EF:30:6C:92:33:17:4F:51:A9:1D:9D:C5
            X509v3 Authority Key Identifier: 
                keyid:C4:46:F2:96:38:56:02:B8:9D:09:04:52:25:91:35:97:6A:D7:B1:F0
                DirName:/C=US/ST=California/L=San Francisco/O=Copyleft Certificate Co/OU=My Organizational Unit/CN=ChangeMe/emailAddress=me@example.net
                serial:D1:5A:15:1C:F0:20:95:62

            X509v3 Extended Key Usage: 
                TLS Web Client Authentication
            X509v3 Key Usage: 
                Digital Signature
    Signature Algorithm: sha256WithRSAEncryption
         a6:11:14:83:34:4a:6d:8f:55:a3:f4:e2:5b:fa:f1:b7:fa:e6:
         b4:f4:c1:2a:f4:24:41:9f:60:c7:f8:eb:2e:9c:8a:b6:94:11:
         2e:4f:bb:7c:3c:e7:21:b6:35:4f:d0:98:37:9a:d7:c0:85:10:
         47:66:ae:78:2d:7f:ea:9e:45:5a:0f:e9:4a:54:90:42:05:60:
         19:25:36:1b:d9:b7:c6:8b:77:ae:8b:f4:e5:b4:84:03:e1:50:
         b5:23:bd:80:e2:f1:d6:6a:62:af:a8:b9:88:cc:92:c8:47:a0:
         86:4a:e5:15:65:4c:d2:9f:c9:4e:6e:d6:9a:3f:a5:79:47:3a:
         25:1b:46:f1:e9:df:27:c4:d8:b7:3b:be:10:00:9f:aa:b7:f8:
         f7:d6:de:10:1d:c0:c7:31:2b:27:d2:0e:e4:cf:c6:28:d3:09:
         86:f3:39:41:2f:52:b0:85:70:43:c5:8a:bf:76:f7:4b:f1:c1:
         7a:86:eb:fc:ce:85:15:8f:dd:17:ac:3e:c5:67:a9:0a:59:9c:
         3f:9a:4a:d6:30:d3:66:9d:7d:e5:e1:1c:09:7b:8f:2f:3f:62:
         b8:2e:48:f7:94:cc:ff:b5:93:65:7b:bf:21:44:52:06:94:4c:
         5e:42:93:d4:e7:c0:60:8a:32:00:f5:92:df:b2:13:2c:1e:e5:
         a5:43:88:01
-----BEGIN CERTIFICATE-----
MIIFLzCCBBegAwIBAgIQeJ3mXNUwWUOLH0GavS75nTANBgkqhkiG9w0BAQsFADCB
rzELMAkGA1UEBhMCVVMxEzARBgNVBAgMCkNhbGlmb3JuaWExFjAUBgNVBAcMDVNh
biBGcmFuY2lzY28xIDAeBgNVBAoMF0NvcHlsZWZ0IENlcnRpZmljYXRlIENvMR8w
HQYDVQQLDBZNeSBPcmdhbml6YXRpb25hbCBVbml0MREwDwYDVQQDDAhDaGFuZ2VN
ZTEdMBsGCSqGSIb3DQEJARYObWVAZXhhbXBsZS5uZXQwHhcNMjMxMTEyMTE0ODE5
WhcNMjQxMTExMTE0ODE5WjCBuzELMAkGA1UEBhMCVVMxCzAJBgNVBAgMAk9IMRMw
EQYDVQQHDApDaW5jaW5uYXRpMSEwHwYDVQQKDBhVbml2ZXJzaXR5IG9mIENpbmNp
bm5hdGkxKjAoBgNVBAsMIURlcHQuIEVsZWMuIENvbXAuIEVuZy4gQ29tcC4gU2Np
LjERMA8GA1UEAwwIY2xpZW50MzExKDAmBgkqhkiG9w0BCQEWGWZyYW5jb0BnYXVz
cy5lY2Vjcy51Yy5lZHUwggEiMA0GCSqGSIb3DQEBAQUAA4IBDwAwggEKAoIBAQC0
O6foGsoQG+pYV2GnweH5FL1/tuWzyOxVZfXgSyiuqgclblkMTIMjPanTH/NVAByo
llPOr9fm5CPK8MR3gmsq0Q2B3iCK0Fhb2jYa3APstoOvNzb7yBhmtTfc1VY1R5II
aOtOcZ04Q8RR9DHw4VwIPUEp9GYv4ZVak6JdTzu3MNJb+zuA2xO1Ztqj28YcBCO6
BJZSHSFR26jN4GHRlNOSL39NXUrOA3cLe9qtTVv/HjI0sdQiXbdVXdeoEZGyHdml
aUIhTM8I2KLEgtccZ19jfDt57yj6MA4eARbWnZh2gYKirRvEGWuYPG/S2yrgmECw
epsmhW0vv72iYGGcuMAnAgMBAAGjggE3MIIBMzAJBgNVHRMEAjAAMB0GA1UdDgQW
BBRKm61wyvfjhu8wbJIzF09RqR2dxTCB5AYDVR0jBIHcMIHZgBTERvKWOFYCuJ0J
BFIlkTWXatex8KGBtaSBsjCBrzELMAkGA1UEBhMCVVMxEzARBgNVBAgMCkNhbGlm
b3JuaWExFjAUBgNVBAcMDVNhbiBGcmFuY2lzY28xIDAeBgNVBAoMF0NvcHlsZWZ0
IENlcnRpZmljYXRlIENvMR8wHQYDVQQLDBZNeSBPcmdhbml6YXRpb25hbCBVbml0
MREwDwYDVQQDDAhDaGFuZ2VNZTEdMBsGCSqGSIb3DQEJARYObWVAZXhhbXBsZS5u
ZXSCCQDRWhUc8CCVYjATBgNVHSUEDDAKBggrBgEFBQcDAjALBgNVHQ8EBAMCB4Aw
DQYJKoZIhvcNAQELBQADggEBAKYRFIM0Sm2PVaP04lv68bf65rT0wSr0JEGfYMf4
6y6ciraUES5Pu3w85yG2NU/QmDea18CFEEdmrngtf+qeRVoP6UpUkEIFYBklNhvZ
t8aLd66L9OW0hAPhULUjvYDi8dZqYq+ouYjMkshHoIZK5RVlTNKfyU5u1po/pXlH
OiUbRvHp3yfE2Lc7vhAAn6q3+PfW3hAdwMcxKyfSDuTPxijTCYbzOUEvUrCFcEPF
ir9290vxwXqG6/zOhRWP3ResPsVnqQpZnD+aStYw02adfeXhHAl7jy8/YrguSPeU
zP+1k2V7vyFEUgaUTF5Ck9TnwGCKMgD1kt+yEywe5aVDiAE=
-----END CERTIFICATE-----
