Certificate:
    Data:
        Version: 3 (0x2)
        Serial Number:
            f1:8a:bf:01:82:a2:16:2a:62:54:20:1e:40:c8:dd:3f
    Signature Algorithm: sha256WithRSAEncryption
        Issuer: C=US, ST=California, L=San Francisco, O=Copyleft Certificate Co, OU=My Organizational Unit, CN=ChangeMe/emailAddress=me@example.net
        Validity
            Not Before: Nov 11 14:49:54 2023 GMT
            Not After : Nov 10 14:49:54 2024 GMT
        Subject: C=US, ST=OH, L=Cincinnati, O=University of Cincinnati ., OU=Dept. Elec. Comp. . Eng. Comp. Sci., CN=client3/emailAddress=franco@gauss.ececs.uc.edu
        Subject Public Key Info:
            Public Key Algorithm: rsaEncryption
                Public-Key: (2048 bit)
                Modulus:
                    00:b6:d0:44:32:da:1e:fb:f8:0a:d6:23:8e:95:89:
                    ea:3a:24:31:46:11:0d:d9:cd:59:12:35:6b:21:f9:
                    8c:95:e6:e6:ce:38:7f:9f:03:e3:6b:af:2d:07:f6:
                    52:ec:bb:5b:74:d4:0a:cc:db:0b:76:c8:51:ce:b3:
                    39:68:9b:0b:3c:1e:55:40:3e:f6:11:45:f8:a5:5a:
                    bc:bb:b4:00:77:d2:db:2e:c3:89:16:96:38:51:a4:
                    50:ea:a5:92:a0:a9:52:71:22:af:c5:48:b2:99:32:
                    8d:c1:a6:81:cc:c3:af:1b:7f:fd:67:e3:75:0c:19:
                    3d:89:74:0c:16:92:1d:c0:4e:7e:52:c7:c9:f2:07:
                    d8:87:5e:83:fb:d8:9b:c0:42:2b:76:2a:1e:0e:06:
                    d6:15:42:3f:61:e9:f0:19:3a:a8:57:52:da:e9:66:
                    1d:7d:43:6b:0d:6e:c3:ec:9c:7c:a2:bc:8c:1c:08:
                    d1:6a:72:b0:0d:3e:59:4f:7a:b3:d0:50:e0:d4:da:
                    9c:45:4c:6c:24:33:be:c8:ec:40:8f:d1:7e:de:3a:
                    3f:c7:14:a8:cc:ac:f0:4a:bf:40:a8:10:dd:b2:5f:
                    ed:aa:79:49:e2:67:99:db:17:d6:b1:76:19:97:cb:
                    f4:26:39:f4:48:ba:22:a7:35:e6:cf:bb:d5:20:44:
                    df:5d
                Exponent: 65537 (0x10001)
        X509v3 extensions:
            X509v3 Basic Constraints: 
                CA:FALSE
            X509v3 Subject Key Identifier: 
                43:96:B9:71:67:86:91:B4:AC:C1:7A:4A:88:1A:72:EF:F8:A1:9D:73
            X509v3 Authority Key Identifier: 
                keyid:37:77:FF:9E:80:0A:A0:2D:03:2E:41:2E:A7:9F:2C:08:1D:27:A7:1F
                DirName:/C=US/ST=California/L=San Francisco/O=Copyleft Certificate Co/OU=My Organizational Unit/CN=ChangeMe/emailAddress=me@example.net
                serial:8E:F4:CE:BF:34:CB:64:72

            X509v3 Extended Key Usage: 
                TLS Web Client Authentication
            X509v3 Key Usage: 
                Digital Signature
    Signature Algorithm: sha256WithRSAEncryption
         bc:9e:8f:c5:f1:3b:dd:64:07:84:dd:50:ca:a9:e9:09:42:2f:
         31:dd:46:c4:3a:74:18:4e:58:63:3c:b1:e3:a2:de:85:c7:b3:
         ab:68:3e:92:1f:c5:48:d7:7e:6a:d2:49:23:6a:df:a5:64:a7:
         83:15:5c:a6:3a:92:a8:e4:2b:29:0a:5a:8a:f8:a1:57:b4:d5:
         ea:29:06:15:27:09:a9:a3:3d:49:9c:04:6a:f0:52:09:e5:83:
         36:52:a6:ca:f6:7c:4b:3c:cf:8b:ad:4b:23:ff:e1:0c:15:65:
         21:9d:a1:da:df:38:60:47:49:b1:2b:82:69:ae:6e:b4:ef:2d:
         95:12:d7:ef:27:a8:4c:ee:09:85:7f:42:ac:76:1b:f3:af:cf:
         55:62:cd:79:42:44:b7:bd:19:a3:f3:c9:d0:4d:e6:dd:b2:f6:
         e8:b2:5e:da:e0:d9:51:e6:1c:df:0e:4a:7b:f0:74:e0:14:04:
         69:db:17:7c:fb:bb:d5:b7:c7:c9:aa:36:75:c0:5a:7f:a8:74:
         aa:97:50:73:67:75:8b:bd:81:c7:d7:1e:31:ff:a2:80:32:5f:
         e7:13:bd:41:5c:4c:f0:d3:21:27:25:db:29:2e:09:46:dc:f8:
         a2:b2:64:d1:1a:e7:0b:a7:a2:f2:f1:a7:e8:18:ef:47:a4:e4:
         e2:ec:27:8f
-----BEGIN CERTIFICATE-----
MIIFMzCCBBugAwIBAgIRAPGKvwGCohYqYlQgHkDI3T8wDQYJKoZIhvcNAQELBQAw
ga8xCzAJBgNVBAYTAlVTMRMwEQYDVQQIDApDYWxpZm9ybmlhMRYwFAYDVQQHDA1T
YW4gRnJhbmNpc2NvMSAwHgYDVQQKDBdDb3B5bGVmdCBDZXJ0aWZpY2F0ZSBDbzEf
MB0GA1UECwwWTXkgT3JnYW5pemF0aW9uYWwgVW5pdDERMA8GA1UEAwwIQ2hhbmdl
TWUxHTAbBgkqhkiG9w0BCQEWDm1lQGV4YW1wbGUubmV0MB4XDTIzMTExMTE0NDk1
NFoXDTI0MTExMDE0NDk1NFowgb4xCzAJBgNVBAYTAlVTMQswCQYDVQQIDAJPSDET
MBEGA1UEBwwKQ2luY2lubmF0aTEjMCEGA1UECgwaVW5pdmVyc2l0eSBvZiBDaW5j
aW5uYXRpIC4xLDAqBgNVBAsMI0RlcHQuIEVsZWMuIENvbXAuIC4gRW5nLiBDb21w
LiBTY2kuMRAwDgYDVQQDDAdjbGllbnQzMSgwJgYJKoZIhvcNAQkBFhlmcmFuY29A
Z2F1c3MuZWNlY3MudWMuZWR1MIIBIjANBgkqhkiG9w0BAQEFAAOCAQ8AMIIBCgKC
AQEAttBEMtoe+/gK1iOOlYnqOiQxRhEN2c1ZEjVrIfmMlebmzjh/nwPja68tB/ZS
7LtbdNQKzNsLdshRzrM5aJsLPB5VQD72EUX4pVq8u7QAd9LbLsOJFpY4UaRQ6qWS
oKlScSKvxUiymTKNwaaBzMOvG3/9Z+N1DBk9iXQMFpIdwE5+UsfJ8gfYh16D+9ib
wEIrdioeDgbWFUI/YenwGTqoV1La6WYdfUNrDW7D7Jx8oryMHAjRanKwDT5ZT3qz
0FDg1NqcRUxsJDO+yOxAj9F+3jo/xxSozKzwSr9AqBDdsl/tqnlJ4meZ2xfWsXYZ
l8v0Jjn0SLoipzXmz7vVIETfXQIDAQABo4IBNzCCATMwCQYDVR0TBAIwADAdBgNV
HQ4EFgQUQ5a5cWeGkbSswXpKiBpy7/ihnXMwgeQGA1UdIwSB3DCB2YAUN3f/noAK
oC0DLkEup58sCB0npx+hgbWkgbIwga8xCzAJBgNVBAYTAlVTMRMwEQYDVQQIDApD
YWxpZm9ybmlhMRYwFAYDVQQHDA1TYW4gRnJhbmNpc2NvMSAwHgYDVQQKDBdDb3B5
bGVmdCBDZXJ0aWZpY2F0ZSBDbzEfMB0GA1UECwwWTXkgT3JnYW5pemF0aW9uYWwg
VW5pdDERMA8GA1UEAwwIQ2hhbmdlTWUxHTAbBgkqhkiG9w0BCQEWDm1lQGV4YW1w
bGUubmV0ggkAjvTOvzTLZHIwEwYDVR0lBAwwCgYIKwYBBQUHAwIwCwYDVR0PBAQD
AgeAMA0GCSqGSIb3DQEBCwUAA4IBAQC8no/F8TvdZAeE3VDKqekJQi8x3UbEOnQY
TlhjPLHjot6Fx7OraD6SH8VI135q0kkjat+lZKeDFVymOpKo5CspClqK+KFXtNXq
KQYVJwmpoz1JnARq8FIJ5YM2UqbK9nxLPM+LrUsj/+EMFWUhnaHa3zhgR0mxK4Jp
rm607y2VEtfvJ6hM7gmFf0Ksdhvzr89VYs15QkS3vRmj88nQTebdsvbosl7a4NlR
5hzfDkp78HTgFARp2xd8+7vVt8fJqjZ1wFp/qHSql1BzZ3WLvYHH1x4x/6KAMl/n
E71BXEzw0yEnJdspLglG3PiismTRGucLp6Ly8afoGO9HpOTi7CeP
-----END CERTIFICATE-----
