Certificate:
    Data:
        Version: 3 (0x2)
        Serial Number:
            56:18:9c:66:4e:24:2e:96:06:9f:c8:72:a8:45:7a:f8
    Signature Algorithm: sha256WithRSAEncryption
        Issuer: C=US, ST=California, L=San Francisco, O=Copyleft Certificate Co, OU=My Organizational Unit, CN=ChangeMe/emailAddress=me@example.net
        Validity
            Not Before: Jan 23 18:30:42 2021 GMT
            Not After : Jan 23 18:30:42 2022 GMT
        Subject: C=US, ST=OH, L=Cincinnati, O=University of Cincinnati, OU=Dept. Electrical Eng. and Computer Sci., CN=client147/emailAddress=franco@gauss.ececs.uc.edu
        Subject Public Key Info:
            Public Key Algorithm: rsaEncryption
                Public-Key: (2048 bit)
                Modulus:
                    00:ab:df:42:2e:d6:a1:07:9c:b5:78:ab:01:b3:ab:
                    e2:ba:7f:e2:ed:6d:59:c4:5d:41:ef:f3:14:90:21:
                    99:ae:b5:71:4c:cc:a7:3d:5e:65:76:54:35:36:dd:
                    61:bf:80:d6:62:3a:5c:a4:d7:f7:4b:25:85:94:d3:
                    77:f9:83:46:43:c6:eb:4e:4b:1a:8d:6a:8a:f4:35:
                    0d:53:2d:95:2f:50:52:13:d8:56:2d:12:9c:10:69:
                    e8:4c:82:ca:e2:66:26:19:c8:f6:21:b1:39:b8:e7:
                    dd:13:bc:dd:8c:ea:6b:01:9f:f8:80:fd:8f:6f:ca:
                    a6:50:64:6c:cf:d6:dc:71:68:25:42:6e:47:04:22:
                    5d:91:54:26:15:56:90:b0:28:26:3e:cd:dd:8d:98:
                    ce:a7:a5:da:9d:09:6e:59:fa:b3:3f:f1:5b:bd:14:
                    fb:14:db:21:e0:d2:4e:01:b1:8c:5e:02:37:85:81:
                    e5:ed:e6:e4:1d:33:6e:d2:ef:26:3f:79:c4:be:72:
                    a8:be:78:b0:7e:b3:03:a0:03:a9:a0:41:6a:25:0d:
                    77:d0:99:a2:53:8a:c3:cf:d0:77:fd:90:2f:19:46:
                    ac:a5:26:cf:d6:2f:d9:08:ad:35:55:49:1c:ab:90:
                    45:fc:5a:88:66:12:e2:ce:8b:63:97:32:c2:64:65:
                    75:ef
                Exponent: 65537 (0x10001)
        X509v3 extensions:
            X509v3 Basic Constraints: 
                CA:FALSE
            X509v3 Subject Key Identifier: 
                47:93:18:7E:E9:EA:22:39:5B:91:E9:6F:E0:2E:09:20:78:95:4E:71
            X509v3 Authority Key Identifier: 
                keyid:EF:DC:B6:3D:4B:FD:A7:87:05:C5:22:3D:8B:DC:BF:99:2A:EE:E4:DB
                DirName:/C=US/ST=California/L=San Francisco/O=Copyleft Certificate Co/OU=My Organizational Unit/CN=ChangeMe/emailAddress=me@example.net
                serial:87:1E:1D:DC:6B:8C:66:88

            X509v3 Extended Key Usage: 
                TLS Web Client Authentication
            X509v3 Key Usage: 
                Digital Signature
    Signature Algorithm: sha256WithRSAEncryption
         1f:a5:7f:cc:ac:6a:a6:36:c0:a8:7d:a4:3a:26:b3:08:af:3c:
         7a:37:f1:c5:78:6f:28:e5:e7:88:27:d7:81:4e:a8:e3:58:c2:
         c2:4f:82:14:c1:e5:7e:38:43:9e:4a:f0:62:63:f7:76:14:3c:
         68:d4:76:68:27:e9:3f:e3:5f:2e:47:4d:5c:80:6a:74:90:9c:
         82:32:8c:89:0b:95:05:f0:fc:c7:37:ae:77:16:62:62:f4:26:
         c2:df:e3:49:b7:c0:37:21:1d:ff:93:36:7e:c9:1c:7e:d8:bc:
         88:43:fa:00:17:d1:7f:4e:36:42:e2:2a:e6:c0:84:90:28:32:
         53:c5:02:9e:98:39:54:09:8c:4e:9f:f3:57:8a:fd:44:90:4f:
         fd:da:22:41:19:cc:bc:42:61:1d:f7:33:fc:28:79:d0:d0:7a:
         d9:a5:48:21:78:28:ed:06:4e:6d:dc:fd:88:39:09:e9:f5:67:
         87:20:ba:c4:b3:95:c9:63:96:67:f7:0d:96:55:80:97:e6:da:
         22:05:e3:3c:f7:ae:d4:18:93:1b:b4:2c:c3:10:8c:12:9e:83:
         af:e3:8b:50:f7:b9:d2:75:2b:58:ad:3b:0e:fd:3c:d6:c0:7c:
         5d:b9:4b:4b:a3:b1:7f:28:a4:6b:d8:47:8e:1f:f7:98:33:00:
         18:87:0a:fc
-----BEGIN CERTIFICATE-----
MIIFNjCCBB6gAwIBAgIQVhicZk4kLpYGn8hyqEV6+DANBgkqhkiG9w0BAQsFADCB
rzELMAkGA1UEBhMCVVMxEzARBgNVBAgMCkNhbGlmb3JuaWExFjAUBgNVBAcMDVNh
biBGcmFuY2lzY28xIDAeBgNVBAoMF0NvcHlsZWZ0IENlcnRpZmljYXRlIENvMR8w
HQYDVQQLDBZNeSBPcmdhbml6YXRpb25hbCBVbml0MREwDwYDVQQDDAhDaGFuZ2VN
ZTEdMBsGCSqGSIb3DQEJARYObWVAZXhhbXBsZS5uZXQwHhcNMjEwMTIzMTgzMDQy
WhcNMjIwMTIzMTgzMDQyWjCBwjELMAkGA1UEBhMCVVMxCzAJBgNVBAgMAk9IMRMw
EQYDVQQHDApDaW5jaW5uYXRpMSEwHwYDVQQKDBhVbml2ZXJzaXR5IG9mIENpbmNp
bm5hdGkxMDAuBgNVBAsMJ0RlcHQuIEVsZWN0cmljYWwgRW5nLiBhbmQgQ29tcHV0
ZXIgU2NpLjESMBAGA1UEAwwJY2xpZW50MTQ3MSgwJgYJKoZIhvcNAQkBFhlmcmFu
Y29AZ2F1c3MuZWNlY3MudWMuZWR1MIIBIjANBgkqhkiG9w0BAQEFAAOCAQ8AMIIB
CgKCAQEAq99CLtahB5y1eKsBs6viun/i7W1ZxF1B7/MUkCGZrrVxTMynPV5ldlQ1
Nt1hv4DWYjpcpNf3SyWFlNN3+YNGQ8brTksajWqK9DUNUy2VL1BSE9hWLRKcEGno
TILK4mYmGcj2IbE5uOfdE7zdjOprAZ/4gP2Pb8qmUGRsz9bccWglQm5HBCJdkVQm
FVaQsCgmPs3djZjOp6XanQluWfqzP/FbvRT7FNsh4NJOAbGMXgI3hYHl7ebkHTNu
0u8mP3nEvnKovniwfrMDoAOpoEFqJQ130JmiU4rDz9B3/ZAvGUaspSbP1i/ZCK01
VUkcq5BF/FqIZhLizotjlzLCZGV17wIDAQABo4IBNzCCATMwCQYDVR0TBAIwADAd
BgNVHQ4EFgQUR5MYfunqIjlbkelv4C4JIHiVTnEwgeQGA1UdIwSB3DCB2YAU79y2
PUv9p4cFxSI9i9y/mSru5NuhgbWkgbIwga8xCzAJBgNVBAYTAlVTMRMwEQYDVQQI
DApDYWxpZm9ybmlhMRYwFAYDVQQHDA1TYW4gRnJhbmNpc2NvMSAwHgYDVQQKDBdD
b3B5bGVmdCBDZXJ0aWZpY2F0ZSBDbzEfMB0GA1UECwwWTXkgT3JnYW5pemF0aW9u
YWwgVW5pdDERMA8GA1UEAwwIQ2hhbmdlTWUxHTAbBgkqhkiG9w0BCQEWDm1lQGV4
YW1wbGUubmV0ggkAhx4d3GuMZogwEwYDVR0lBAwwCgYIKwYBBQUHAwIwCwYDVR0P
BAQDAgeAMA0GCSqGSIb3DQEBCwUAA4IBAQAfpX/MrGqmNsCofaQ6JrMIrzx6N/HF
eG8o5eeIJ9eBTqjjWMLCT4IUweV+OEOeSvBiY/d2FDxo1HZoJ+k/418uR01cgGp0
kJyCMoyJC5UF8PzHN653FmJi9CbC3+NJt8A3IR3/kzZ+yRx+2LyIQ/oAF9F/TjZC
4irmwISQKDJTxQKemDlUCYxOn/NXiv1EkE/92iJBGcy8QmEd9zP8KHnQ0HrZpUgh
eCjtBk5t3P2IOQnp9WeHILrEs5XJY5Zn9w2WVYCX5toiBeM8967UGJMbtCzDEIwS
noOv44tQ97nSdStYrTsO/TzWwHxduUtLo7F/KKRr2EeOH/eYMwAYhwr8
-----END CERTIFICATE-----
