Certificate:
    Data:
        Version: 3 (0x2)
        Serial Number:
            35:26:bd:8e:6b:07:c7:41:a5:b6:c5:72:1d:02:ae:f4
    Signature Algorithm: sha256WithRSAEncryption
        Issuer: C=US, ST=California, L=San Francisco, O=Copyleft Certificate Co, OU=My Organizational Unit, CN=ChangeMe/emailAddress=me@example.net
        Validity
            Not Before: Jan 23 18:27:27 2021 GMT
            Not After : Jan 23 18:27:27 2022 GMT
        Subject: C=US, ST=OH, L=Cincinnati, O=University of Cincinnati, OU=Dept. Electrical Eng. and Computer Sci., CN=client7/emailAddress=franco@gauss.ececs.uc.edu
        Subject Public Key Info:
            Public Key Algorithm: rsaEncryption
                Public-Key: (2048 bit)
                Modulus:
                    00:d3:df:8f:89:2c:19:af:1b:30:5a:9b:db:c2:83:
                    c9:1b:c1:4c:c2:c6:2d:60:6f:cf:c6:1b:4f:89:65:
                    48:a2:dc:bd:19:c5:fe:10:b9:16:1b:7e:45:bc:0a:
                    40:9f:61:75:66:62:f0:c7:5a:71:09:be:88:97:75:
                    ad:5d:9e:28:5e:97:0c:4b:bb:09:07:97:c4:d3:e6:
                    34:7b:7e:3b:17:ad:cf:93:2d:04:c6:cc:50:33:79:
                    01:c2:ba:4b:ba:ab:03:b0:1c:cc:81:f7:50:a6:9d:
                    c2:69:0f:23:d0:14:f0:b5:49:7f:af:07:93:6f:31:
                    a7:3e:78:01:4e:10:c1:f7:db:48:d3:65:c9:ed:c4:
                    22:94:d6:c5:44:5b:b0:04:5c:ef:c1:ce:ec:87:f1:
                    5a:b8:b4:96:ed:1d:11:61:61:db:de:c5:ed:07:ba:
                    aa:08:18:f0:b5:99:83:fe:33:d0:ff:02:0b:64:d2:
                    81:eb:30:fa:23:84:05:d1:9f:b4:f5:74:e9:a4:52:
                    0c:ce:d4:d8:5a:a5:df:17:fd:32:83:7e:c8:c3:0e:
                    71:1c:98:c4:7d:d4:32:17:29:b2:a0:54:62:79:6c:
                    4c:db:78:89:2f:f7:09:48:dd:97:84:a9:ee:c8:8f:
                    b2:03:2b:37:fd:53:1f:a4:63:5c:5d:99:48:2d:0b:
                    98:d7
                Exponent: 65537 (0x10001)
        X509v3 extensions:
            X509v3 Basic Constraints: 
                CA:FALSE
            X509v3 Subject Key Identifier: 
                D6:23:B4:C6:4E:8A:2A:EE:9E:9D:DB:4C:B4:F3:8A:B0:48:A0:25:B7
            X509v3 Authority Key Identifier: 
                keyid:EF:DC:B6:3D:4B:FD:A7:87:05:C5:22:3D:8B:DC:BF:99:2A:EE:E4:DB
                DirName:/C=US/ST=California/L=San Francisco/O=Copyleft Certificate Co/OU=My Organizational Unit/CN=ChangeMe/emailAddress=me@example.net
                serial:87:1E:1D:DC:6B:8C:66:88

            X509v3 Extended Key Usage: 
                TLS Web Client Authentication
            X509v3 Key Usage: 
                Digital Signature
    Signature Algorithm: sha256WithRSAEncryption
         3c:3d:20:98:78:1c:b2:7e:39:5e:40:62:77:a0:03:6f:66:55:
         72:2a:27:a8:5d:00:4b:52:1d:6d:13:a2:71:6d:ef:25:e9:7c:
         da:a3:20:a2:c3:e6:3a:b5:f1:54:48:07:e7:6f:37:83:53:7c:
         59:d6:64:d9:e6:1f:7a:2b:10:39:3f:c2:ee:6a:14:d5:9b:05:
         4b:b4:d1:c2:96:57:2b:89:24:eb:47:39:d6:42:b0:40:fa:d7:
         76:5e:3d:c3:c9:7f:e0:7e:37:1e:66:f8:8a:e6:dd:57:18:91:
         e3:90:19:07:05:63:45:c5:8f:f7:23:9d:47:b7:40:ed:63:ac:
         68:dc:fa:8d:69:c5:4f:b6:a0:ff:bd:1a:85:38:6a:f4:12:f0:
         16:af:df:15:71:b2:6a:d7:a5:6d:bc:c5:14:4f:bf:14:33:04:
         44:74:5e:0e:f8:3c:45:18:d8:01:60:0d:f7:1b:f3:1e:69:e5:
         15:eb:a2:71:f3:a0:80:f0:5e:0a:27:21:30:d3:7d:f5:f8:81:
         6a:eb:3a:38:2d:8b:ac:53:f6:32:d2:b8:d6:8d:3c:f6:28:91:
         bc:9f:55:22:c3:84:81:7b:85:74:ce:62:7b:0f:e5:22:ce:f7:
         09:f2:bb:de:b9:5e:47:b8:2b:40:8b:42:30:0b:70:82:26:c2:
         79:49:45:17
-----BEGIN CERTIFICATE-----
MIIFNDCCBBygAwIBAgIQNSa9jmsHx0GltsVyHQKu9DANBgkqhkiG9w0BAQsFADCB
rzELMAkGA1UEBhMCVVMxEzARBgNVBAgMCkNhbGlmb3JuaWExFjAUBgNVBAcMDVNh
biBGcmFuY2lzY28xIDAeBgNVBAoMF0NvcHlsZWZ0IENlcnRpZmljYXRlIENvMR8w
HQYDVQQLDBZNeSBPcmdhbml6YXRpb25hbCBVbml0MREwDwYDVQQDDAhDaGFuZ2VN
ZTEdMBsGCSqGSIb3DQEJARYObWVAZXhhbXBsZS5uZXQwHhcNMjEwMTIzMTgyNzI3
WhcNMjIwMTIzMTgyNzI3WjCBwDELMAkGA1UEBhMCVVMxCzAJBgNVBAgMAk9IMRMw
EQYDVQQHDApDaW5jaW5uYXRpMSEwHwYDVQQKDBhVbml2ZXJzaXR5IG9mIENpbmNp
bm5hdGkxMDAuBgNVBAsMJ0RlcHQuIEVsZWN0cmljYWwgRW5nLiBhbmQgQ29tcHV0
ZXIgU2NpLjEQMA4GA1UEAwwHY2xpZW50NzEoMCYGCSqGSIb3DQEJARYZZnJhbmNv
QGdhdXNzLmVjZWNzLnVjLmVkdTCCASIwDQYJKoZIhvcNAQEBBQADggEPADCCAQoC
ggEBANPfj4ksGa8bMFqb28KDyRvBTMLGLWBvz8YbT4llSKLcvRnF/hC5Fht+RbwK
QJ9hdWZi8MdacQm+iJd1rV2eKF6XDEu7CQeXxNPmNHt+Oxetz5MtBMbMUDN5AcK6
S7qrA7AczIH3UKadwmkPI9AU8LVJf68Hk28xpz54AU4QwffbSNNlye3EIpTWxURb
sARc78HO7IfxWri0lu0dEWFh297F7Qe6qggY8LWZg/4z0P8CC2TSgesw+iOEBdGf
tPV06aRSDM7U2Fql3xf9MoN+yMMOcRyYxH3UMhcpsqBUYnlsTNt4iS/3CUjdl4Sp
7siPsgMrN/1TH6RjXF2ZSC0LmNcCAwEAAaOCATcwggEzMAkGA1UdEwQCMAAwHQYD
VR0OBBYEFNYjtMZOiirunp3bTLTzirBIoCW3MIHkBgNVHSMEgdwwgdmAFO/ctj1L
/aeHBcUiPYvcv5kq7uTboYG1pIGyMIGvMQswCQYDVQQGEwJVUzETMBEGA1UECAwK
Q2FsaWZvcm5pYTEWMBQGA1UEBwwNU2FuIEZyYW5jaXNjbzEgMB4GA1UECgwXQ29w
eWxlZnQgQ2VydGlmaWNhdGUgQ28xHzAdBgNVBAsMFk15IE9yZ2FuaXphdGlvbmFs
IFVuaXQxETAPBgNVBAMMCENoYW5nZU1lMR0wGwYJKoZIhvcNAQkBFg5tZUBleGFt
cGxlLm5ldIIJAIceHdxrjGaIMBMGA1UdJQQMMAoGCCsGAQUFBwMCMAsGA1UdDwQE
AwIHgDANBgkqhkiG9w0BAQsFAAOCAQEAPD0gmHgcsn45XkBid6ADb2ZVcionqF0A
S1IdbROicW3vJel82qMgosPmOrXxVEgH5283g1N8WdZk2eYfeisQOT/C7moU1ZsF
S7TRwpZXK4kk60c51kKwQPrXdl49w8l/4H43Hmb4iubdVxiR45AZBwVjRcWP9yOd
R7dA7WOsaNz6jWnFT7ag/70ahThq9BLwFq/fFXGyatelbbzFFE+/FDMERHReDvg8
RRjYAWAN9xvzHmnlFeuicfOggPBeCichMNN99fiBaus6OC2LrFP2MtK41o089iiR
vJ9VIsOEgXuFdM5iew/lIs73CfK73rleR7grQItCMAtwgibCeUlFFw==
-----END CERTIFICATE-----
