Certificate:
    Data:
        Version: 3 (0x2)
        Serial Number:
            3d:96:70:9d:6e:23:24:e4:20:43:b1:ba:6b:df:d8:d2
    Signature Algorithm: sha256WithRSAEncryption
        Issuer: C=US, ST=California, L=San Francisco, O=Copyleft Certificate Co, OU=My Organizational Unit, CN=ChangeMe/emailAddress=me@example.net
        Validity
            Not Before: Jan 23 18:27:47 2021 GMT
            Not After : Jan 23 18:27:47 2022 GMT
        Subject: C=US, ST=OH, L=Cincinnati, O=University of Cincinnati, OU=Dept. Electrical Eng. and Computer Sci., CN=client22/emailAddress=franco@gauss.ececs.uc.edu
        Subject Public Key Info:
            Public Key Algorithm: rsaEncryption
                Public-Key: (2048 bit)
                Modulus:
                    00:97:4d:eb:e1:56:31:fa:7b:7c:e8:dd:9c:68:4e:
                    be:d7:1c:0c:76:12:8d:54:3d:6a:a2:31:f0:f6:99:
                    e2:38:0c:af:94:5d:d9:d7:2d:ec:7b:a1:a4:36:e6:
                    12:b9:03:b8:eb:1f:c8:eb:c1:7c:9b:ca:26:c0:03:
                    cb:6f:54:69:28:09:4d:5b:b8:a2:ea:7e:ee:20:9d:
                    3a:b3:71:d0:d3:f1:0b:1b:d2:b7:7e:e3:3c:90:51:
                    e2:28:5e:8b:f0:8d:2f:48:f7:1e:12:ba:fb:13:d4:
                    fd:cb:d3:ec:9e:44:8b:9d:af:8b:7f:56:66:ad:20:
                    8f:0f:a5:34:0e:11:20:7a:cb:45:cc:33:85:47:b1:
                    3b:c0:7d:d4:48:68:c6:7f:86:d2:6f:f8:f7:d4:13:
                    e1:05:0e:97:89:2f:86:d5:46:91:13:7a:eb:d9:90:
                    2b:17:e6:4f:36:a1:59:98:97:8f:33:f5:52:60:f4:
                    a5:6e:98:49:55:9f:8c:d3:c6:64:18:b9:4b:8f:7b:
                    94:60:be:a0:5b:a8:34:2a:4a:c7:8a:82:df:a0:5a:
                    99:98:38:0e:bc:cd:18:17:a0:20:98:20:f4:53:6c:
                    be:f6:97:93:01:1d:bb:2f:47:61:e4:3d:cd:f6:94:
                    af:25:84:bc:23:5b:89:62:3f:3c:0b:d3:6e:c6:71:
                    38:69
                Exponent: 65537 (0x10001)
        X509v3 extensions:
            X509v3 Basic Constraints: 
                CA:FALSE
            X509v3 Subject Key Identifier: 
                21:44:9C:64:D6:B9:4A:EE:BC:63:6B:A1:2B:86:4E:03:92:CD:DA:60
            X509v3 Authority Key Identifier: 
                keyid:EF:DC:B6:3D:4B:FD:A7:87:05:C5:22:3D:8B:DC:BF:99:2A:EE:E4:DB
                DirName:/C=US/ST=California/L=San Francisco/O=Copyleft Certificate Co/OU=My Organizational Unit/CN=ChangeMe/emailAddress=me@example.net
                serial:87:1E:1D:DC:6B:8C:66:88

            X509v3 Extended Key Usage: 
                TLS Web Client Authentication
            X509v3 Key Usage: 
                Digital Signature
    Signature Algorithm: sha256WithRSAEncryption
         de:3e:53:33:41:ca:63:85:97:ff:4a:93:4f:61:57:b3:00:bc:
         22:28:f7:78:33:ce:bd:bf:5b:3e:90:30:81:f6:64:e1:52:e8:
         11:02:fd:dc:cf:77:68:45:8c:a3:7d:46:48:6d:8d:2c:dc:b2:
         d5:d3:c4:fe:35:73:e2:97:dd:11:56:f2:6a:d1:c1:45:f7:24:
         85:70:9c:8e:91:6f:08:f6:29:06:6d:62:a4:8c:a7:27:15:07:
         5c:fe:69:e8:a4:a8:ef:d5:d8:05:94:2e:8c:e2:6e:06:03:57:
         ba:48:61:5d:e9:c1:ae:ad:43:2b:3e:36:3e:f9:ee:1b:47:4d:
         83:6b:7a:c4:38:53:15:f3:93:ac:2a:8e:22:4f:2a:a3:6a:e3:
         8c:0e:9c:74:10:a1:1a:c1:bc:3a:e9:cf:e1:9e:1f:c3:42:44:
         9b:80:3b:40:a7:5f:76:8b:44:b7:7f:e1:f1:2d:6e:ef:83:e9:
         e6:66:95:76:fd:08:69:a5:d1:7b:74:b7:48:5d:76:1a:43:fe:
         7e:13:50:b9:10:3b:c9:cf:27:2c:c7:2c:a0:29:5c:7d:24:1e:
         ad:e4:66:9e:96:f2:f5:61:ef:1b:89:c8:e8:af:eb:27:90:76:
         ab:3f:47:38:bd:62:00:bb:82:59:55:82:21:fa:bc:e3:ed:89:
         c1:22:14:0f
-----BEGIN CERTIFICATE-----
MIIFNTCCBB2gAwIBAgIQPZZwnW4jJOQgQ7G6a9/Y0jANBgkqhkiG9w0BAQsFADCB
rzELMAkGA1UEBhMCVVMxEzARBgNVBAgMCkNhbGlmb3JuaWExFjAUBgNVBAcMDVNh
biBGcmFuY2lzY28xIDAeBgNVBAoMF0NvcHlsZWZ0IENlcnRpZmljYXRlIENvMR8w
HQYDVQQLDBZNeSBPcmdhbml6YXRpb25hbCBVbml0MREwDwYDVQQDDAhDaGFuZ2VN
ZTEdMBsGCSqGSIb3DQEJARYObWVAZXhhbXBsZS5uZXQwHhcNMjEwMTIzMTgyNzQ3
WhcNMjIwMTIzMTgyNzQ3WjCBwTELMAkGA1UEBhMCVVMxCzAJBgNVBAgMAk9IMRMw
EQYDVQQHDApDaW5jaW5uYXRpMSEwHwYDVQQKDBhVbml2ZXJzaXR5IG9mIENpbmNp
bm5hdGkxMDAuBgNVBAsMJ0RlcHQuIEVsZWN0cmljYWwgRW5nLiBhbmQgQ29tcHV0
ZXIgU2NpLjERMA8GA1UEAwwIY2xpZW50MjIxKDAmBgkqhkiG9w0BCQEWGWZyYW5j
b0BnYXVzcy5lY2Vjcy51Yy5lZHUwggEiMA0GCSqGSIb3DQEBAQUAA4IBDwAwggEK
AoIBAQCXTevhVjH6e3zo3ZxoTr7XHAx2Eo1UPWqiMfD2meI4DK+UXdnXLex7oaQ2
5hK5A7jrH8jrwXybyibAA8tvVGkoCU1buKLqfu4gnTqzcdDT8Qsb0rd+4zyQUeIo
XovwjS9I9x4SuvsT1P3L0+yeRIudr4t/VmatII8PpTQOESB6y0XMM4VHsTvAfdRI
aMZ/htJv+PfUE+EFDpeJL4bVRpETeuvZkCsX5k82oVmYl48z9VJg9KVumElVn4zT
xmQYuUuPe5RgvqBbqDQqSseKgt+gWpmYOA68zRgXoCCYIPRTbL72l5MBHbsvR2Hk
Pc32lK8lhLwjW4liPzwL027GcThpAgMBAAGjggE3MIIBMzAJBgNVHRMEAjAAMB0G
A1UdDgQWBBQhRJxk1rlK7rxja6Erhk4Dks3aYDCB5AYDVR0jBIHcMIHZgBTv3LY9
S/2nhwXFIj2L3L+ZKu7k26GBtaSBsjCBrzELMAkGA1UEBhMCVVMxEzARBgNVBAgM
CkNhbGlmb3JuaWExFjAUBgNVBAcMDVNhbiBGcmFuY2lzY28xIDAeBgNVBAoMF0Nv
cHlsZWZ0IENlcnRpZmljYXRlIENvMR8wHQYDVQQLDBZNeSBPcmdhbml6YXRpb25h
bCBVbml0MREwDwYDVQQDDAhDaGFuZ2VNZTEdMBsGCSqGSIb3DQEJARYObWVAZXhh
bXBsZS5uZXSCCQCHHh3ca4xmiDATBgNVHSUEDDAKBggrBgEFBQcDAjALBgNVHQ8E
BAMCB4AwDQYJKoZIhvcNAQELBQADggEBAN4+UzNBymOFl/9Kk09hV7MAvCIo93gz
zr2/Wz6QMIH2ZOFS6BEC/dzPd2hFjKN9RkhtjSzcstXTxP41c+KX3RFW8mrRwUX3
JIVwnI6Rbwj2KQZtYqSMpycVB1z+aeikqO/V2AWULozibgYDV7pIYV3pwa6tQys+
Nj757htHTYNresQ4UxXzk6wqjiJPKqNq44wOnHQQoRrBvDrpz+GeH8NCRJuAO0Cn
X3aLRLd/4fEtbu+D6eZmlXb9CGml0Xt0t0hddhpD/n4TULkQO8nPJyzHLKApXH0k
Hq3kZp6W8vVh7xuJyOiv6yeQdqs/Rzi9YgC7gllVgiH6vOPticEiFA8=
-----END CERTIFICATE-----
