Certificate:
    Data:
        Version: 3 (0x2)
        Serial Number:
            b6:16:79:07:92:f5:9e:00:2c:8b:10:3f:b8:96:73:f2
    Signature Algorithm: sha256WithRSAEncryption
        Issuer: C=US, ST=California, L=San Francisco, O=Copyleft Certificate Co, OU=My Organizational Unit, CN=ChangeMe/emailAddress=me@example.net
        Validity
            Not Before: Nov 13 11:46:54 2023 GMT
            Not After : Nov 12 11:46:54 2024 GMT
        Subject: C=US, ST=OH, L=Cincinnati, O=University of Cincinnati, OU=Dept. Elec. Comp. Eng. Comp. Sci., CN=client7/emailAddress=franco@gauss.ececs.uc.edu
        Subject Public Key Info:
            Public Key Algorithm: rsaEncryption
                Public-Key: (2048 bit)
                Modulus:
                    00:a8:f1:07:52:d1:65:2e:60:0c:38:ff:23:22:18:
                    7d:70:03:e2:25:d6:3e:d9:35:6e:c1:cf:5f:42:c8:
                    12:8f:c4:e1:18:15:82:03:f8:27:aa:03:24:d2:b2:
                    47:a0:65:37:f9:c1:48:66:6a:67:1c:06:42:e7:10:
                    11:2d:ab:5c:83:45:ad:6d:20:59:e4:e9:d0:30:2e:
                    8a:54:68:aa:46:23:48:8d:21:9e:22:b8:ac:c2:ec:
                    c6:10:da:8a:59:3b:33:67:d4:96:67:b0:e5:5d:f3:
                    c2:12:de:57:54:df:a5:68:25:27:74:62:bd:86:96:
                    61:83:19:97:5d:40:57:08:1f:e1:c9:d3:c2:21:f2:
                    f1:05:46:66:06:ad:2b:e9:aa:6e:2c:c9:c5:e4:24:
                    89:9b:7e:cf:a3:86:04:b9:b1:97:7a:19:df:56:fa:
                    f5:3a:a7:7b:ba:58:e1:2e:25:7d:2d:ab:8b:5c:2b:
                    5b:66:d2:56:ad:19:f1:06:18:d0:e1:b8:c6:ad:b3:
                    58:bf:48:57:b5:ff:3d:75:42:a4:77:bc:41:d3:99:
                    8a:55:b4:e2:d9:73:2e:82:53:cf:38:76:6e:24:fa:
                    36:7a:05:64:44:15:fb:8c:1a:3b:21:71:b1:7e:f5:
                    6b:d0:66:f4:a6:d7:9f:08:77:38:c4:f8:aa:5b:ff:
                    cf:cd
                Exponent: 65537 (0x10001)
        X509v3 extensions:
            X509v3 Basic Constraints: 
                CA:FALSE
            X509v3 Subject Key Identifier: 
                C7:ED:46:7C:AB:BF:B2:7D:7F:FC:EB:24:E7:3E:E6:B9:C6:47:6D:70
            X509v3 Authority Key Identifier: 
                keyid:B4:AE:AB:ED:FC:ED:84:AA:AD:77:5D:7C:84:28:1C:CA:CE:AE:2A:44
                DirName:/C=US/ST=California/L=San Francisco/O=Copyleft Certificate Co/OU=My Organizational Unit/CN=ChangeMe/emailAddress=me@example.net
                serial:BD:6C:3B:F4:D3:07:C9:D1

            X509v3 Extended Key Usage: 
                TLS Web Client Authentication
            X509v3 Key Usage: 
                Digital Signature
    Signature Algorithm: sha256WithRSAEncryption
         4e:22:4b:3a:90:25:1b:f5:d6:fd:1f:15:ec:51:3b:92:f4:2f:
         82:12:78:e0:42:d0:a8:9e:86:d6:01:78:51:69:33:82:5d:94:
         e2:4f:b4:66:63:e5:9e:89:eb:70:4f:6d:8f:4f:5e:96:1f:12:
         db:32:1c:0d:e3:88:2e:bd:a8:5c:df:3e:1b:b2:80:02:55:39:
         e0:4b:bc:62:c6:6a:39:9c:f8:9d:b6:d9:39:7c:c4:72:30:70:
         ae:7c:cd:3f:b1:47:df:c5:4b:d4:99:e2:bf:e1:64:c2:89:58:
         38:48:ce:7f:01:af:46:fe:e1:93:2a:a4:9e:16:95:38:08:2b:
         83:10:43:26:0a:c7:10:29:0c:f2:95:57:1e:96:36:7c:8e:c7:
         b2:24:44:92:6a:61:75:c5:9b:28:63:9a:4e:06:75:6d:1a:b8:
         b8:15:6d:8c:74:e3:45:e5:55:44:57:8e:6f:a2:e6:99:cc:d2:
         2a:bd:37:7b:33:26:5a:3e:ca:45:e1:4d:ac:68:20:34:7e:35:
         43:d2:0d:18:b1:49:3e:0e:70:8a:1e:a0:36:33:4f:5f:04:be:
         ca:0a:62:70:6f:3f:a0:3c:9f:2d:08:75:b0:ff:7d:ce:72:8b:
         51:68:33:f2:76:4c:3c:37:24:ad:52:ac:93:8a:58:fd:aa:69:
         70:51:53:31
-----BEGIN CERTIFICATE-----
MIIFLzCCBBegAwIBAgIRALYWeQeS9Z4ALIsQP7iWc/IwDQYJKoZIhvcNAQELBQAw
ga8xCzAJBgNVBAYTAlVTMRMwEQYDVQQIDApDYWxpZm9ybmlhMRYwFAYDVQQHDA1T
YW4gRnJhbmNpc2NvMSAwHgYDVQQKDBdDb3B5bGVmdCBDZXJ0aWZpY2F0ZSBDbzEf
MB0GA1UECwwWTXkgT3JnYW5pemF0aW9uYWwgVW5pdDERMA8GA1UEAwwIQ2hhbmdl
TWUxHTAbBgkqhkiG9w0BCQEWDm1lQGV4YW1wbGUubmV0MB4XDTIzMTExMzExNDY1
NFoXDTI0MTExMjExNDY1NFowgboxCzAJBgNVBAYTAlVTMQswCQYDVQQIDAJPSDET
MBEGA1UEBwwKQ2luY2lubmF0aTEhMB8GA1UECgwYVW5pdmVyc2l0eSBvZiBDaW5j
aW5uYXRpMSowKAYDVQQLDCFEZXB0LiBFbGVjLiBDb21wLiBFbmcuIENvbXAuIFNj
aS4xEDAOBgNVBAMMB2NsaWVudDcxKDAmBgkqhkiG9w0BCQEWGWZyYW5jb0BnYXVz
cy5lY2Vjcy51Yy5lZHUwggEiMA0GCSqGSIb3DQEBAQUAA4IBDwAwggEKAoIBAQCo
8QdS0WUuYAw4/yMiGH1wA+Il1j7ZNW7Bz19CyBKPxOEYFYID+CeqAyTSskegZTf5
wUhmamccBkLnEBEtq1yDRa1tIFnk6dAwLopUaKpGI0iNIZ4iuKzC7MYQ2opZOzNn
1JZnsOVd88IS3ldU36VoJSd0Yr2GlmGDGZddQFcIH+HJ08Ih8vEFRmYGrSvpqm4s
ycXkJImbfs+jhgS5sZd6Gd9W+vU6p3u6WOEuJX0tq4tcK1tm0latGfEGGNDhuMat
s1i/SFe1/z11QqR3vEHTmYpVtOLZcy6CU884dm4k+jZ6BWREFfuMGjshcbF+9WvQ
ZvSm158IdzjE+Kpb/8/NAgMBAAGjggE3MIIBMzAJBgNVHRMEAjAAMB0GA1UdDgQW
BBTH7UZ8q7+yfX/86yTnPua5xkdtcDCB5AYDVR0jBIHcMIHZgBS0rqvt/O2Eqq13
XXyEKBzKzq4qRKGBtaSBsjCBrzELMAkGA1UEBhMCVVMxEzARBgNVBAgMCkNhbGlm
b3JuaWExFjAUBgNVBAcMDVNhbiBGcmFuY2lzY28xIDAeBgNVBAoMF0NvcHlsZWZ0
IENlcnRpZmljYXRlIENvMR8wHQYDVQQLDBZNeSBPcmdhbml6YXRpb25hbCBVbml0
MREwDwYDVQQDDAhDaGFuZ2VNZTEdMBsGCSqGSIb3DQEJARYObWVAZXhhbXBsZS5u
ZXSCCQC9bDv00wfJ0TATBgNVHSUEDDAKBggrBgEFBQcDAjALBgNVHQ8EBAMCB4Aw
DQYJKoZIhvcNAQELBQADggEBAE4iSzqQJRv11v0fFexRO5L0L4ISeOBC0KiehtYB
eFFpM4JdlOJPtGZj5Z6J63BPbY9PXpYfEtsyHA3jiC69qFzfPhuygAJVOeBLvGLG
ajmc+J222Tl8xHIwcK58zT+xR9/FS9SZ4r/hZMKJWDhIzn8Br0b+4ZMqpJ4WlTgI
K4MQQyYKxxApDPKVVx6WNnyOx7IkRJJqYXXFmyhjmk4GdW0auLgVbYx040XlVURX
jm+i5pnM0iq9N3szJlo+ykXhTaxoIDR+NUPSDRixST4OcIoeoDYzT18EvsoKYnBv
P6A8ny0IdbD/fc5yi1FoM/J2TDw3JK1SrJOKWP2qaXBRUzE=
-----END CERTIFICATE-----
