Certificate:
    Data:
        Version: 3 (0x2)
        Serial Number:
            33:fd:3a:1f:45:b7:b1:53:6e:0d:43:5f:2e:48:2a:22
    Signature Algorithm: sha256WithRSAEncryption
        Issuer: C=US, ST=California, L=San Francisco, O=Copyleft Certificate Co, OU=My Organizational Unit, CN=ChangeMe/emailAddress=me@example.net
        Validity
            Not Before: Jan 23 18:30:18 2021 GMT
            Not After : Jan 23 18:30:18 2022 GMT
        Subject: C=US, ST=OH, L=Cincinnati, O=University of Cincinnati, OU=Dept. Electrical Eng. and Computer Sci., CN=client129/emailAddress=franco@gauss.ececs.uc.edu
        Subject Public Key Info:
            Public Key Algorithm: rsaEncryption
                Public-Key: (2048 bit)
                Modulus:
                    00:dd:b1:07:c4:67:04:9f:43:64:8b:67:5a:60:5e:
                    64:5d:71:91:54:9d:df:ae:0a:2f:45:d6:1b:11:37:
                    a0:14:a0:f0:f5:74:7e:b8:ab:09:28:2e:50:b7:ba:
                    6c:06:2b:b8:c2:bd:a5:d2:d3:de:e5:32:17:ff:c3:
                    14:ab:69:a7:7f:36:af:60:38:07:39:36:e6:19:84:
                    5b:c4:0d:de:48:48:d1:68:bc:30:cc:68:b7:f6:ac:
                    d1:63:c8:17:45:a9:4e:32:50:9f:59:83:1a:fb:82:
                    25:e7:0e:73:63:eb:be:14:91:b4:01:fc:e9:21:4d:
                    45:a5:9e:fe:ea:71:b1:fd:f2:3b:4a:59:c8:07:bf:
                    da:a7:20:1b:2e:cc:2d:bc:ac:da:fc:75:73:e2:03:
                    58:a3:77:cc:fb:6f:e2:51:b1:81:17:f7:2a:76:7e:
                    35:1a:8b:53:52:3b:a3:36:be:2f:71:a4:76:af:f3:
                    08:8f:56:bc:b2:a2:fc:a9:78:96:c4:e0:73:81:d6:
                    da:85:cc:3e:21:d9:01:ea:46:bc:95:c2:45:69:31:
                    bb:3c:a7:b8:ca:64:1b:5e:16:a3:aa:14:f8:fc:98:
                    8a:de:d8:18:3c:95:a2:35:1b:75:d8:1c:26:8b:7c:
                    05:a9:73:ba:c4:a2:2f:72:fb:86:96:85:db:4a:21:
                    8e:09
                Exponent: 65537 (0x10001)
        X509v3 extensions:
            X509v3 Basic Constraints: 
                CA:FALSE
            X509v3 Subject Key Identifier: 
                91:3A:B6:D4:AB:D9:9E:E8:2E:00:0D:F4:68:12:0C:93:8D:74:DE:F2
            X509v3 Authority Key Identifier: 
                keyid:EF:DC:B6:3D:4B:FD:A7:87:05:C5:22:3D:8B:DC:BF:99:2A:EE:E4:DB
                DirName:/C=US/ST=California/L=San Francisco/O=Copyleft Certificate Co/OU=My Organizational Unit/CN=ChangeMe/emailAddress=me@example.net
                serial:87:1E:1D:DC:6B:8C:66:88

            X509v3 Extended Key Usage: 
                TLS Web Client Authentication
            X509v3 Key Usage: 
                Digital Signature
    Signature Algorithm: sha256WithRSAEncryption
         35:17:f8:59:01:b8:b7:72:c3:ad:1f:e0:10:de:ef:6d:6a:ca:
         5a:b5:72:8f:d4:4a:f4:a9:9c:12:13:ac:db:39:7c:9e:30:c6:
         90:64:08:d7:2f:4f:29:9c:f3:3b:41:e6:02:48:d5:4b:dc:9c:
         3e:fd:a7:c3:58:2d:1d:f9:22:f1:9e:d2:9d:3b:4a:40:a4:54:
         81:c8:45:dc:e0:ac:df:f3:5a:c5:06:a0:45:dd:5a:a9:da:81:
         8c:d5:70:26:03:81:38:26:a7:0f:ef:7a:bc:98:aa:6f:ae:70:
         88:6c:51:a9:55:5c:02:7b:19:61:5a:83:c5:81:bf:cf:0a:44:
         49:e7:81:75:49:a7:34:48:64:35:34:f3:e8:4d:50:ab:5e:29:
         34:76:ae:ef:ff:ee:b0:01:a1:f1:7b:ee:77:6f:36:70:5f:f4:
         37:6b:ff:fe:d1:5c:22:f4:40:41:f6:f0:63:28:80:68:d9:94:
         3a:c8:7b:a6:fd:4e:a3:8a:a0:1e:a9:30:39:be:c3:d6:7e:ad:
         ec:8d:69:57:7f:18:09:f7:57:4e:28:9b:6b:3b:2c:c2:12:3d:
         d9:cf:f5:5c:22:81:39:0e:8f:b2:47:63:ee:16:60:30:09:c5:
         2b:ac:60:65:fd:40:8b:45:6f:fa:46:bf:a1:9b:62:3d:fc:9b:
         fd:5d:b3:c7
-----BEGIN CERTIFICATE-----
MIIFNjCCBB6gAwIBAgIQM/06H0W3sVNuDUNfLkgqIjANBgkqhkiG9w0BAQsFADCB
rzELMAkGA1UEBhMCVVMxEzARBgNVBAgMCkNhbGlmb3JuaWExFjAUBgNVBAcMDVNh
biBGcmFuY2lzY28xIDAeBgNVBAoMF0NvcHlsZWZ0IENlcnRpZmljYXRlIENvMR8w
HQYDVQQLDBZNeSBPcmdhbml6YXRpb25hbCBVbml0MREwDwYDVQQDDAhDaGFuZ2VN
ZTEdMBsGCSqGSIb3DQEJARYObWVAZXhhbXBsZS5uZXQwHhcNMjEwMTIzMTgzMDE4
WhcNMjIwMTIzMTgzMDE4WjCBwjELMAkGA1UEBhMCVVMxCzAJBgNVBAgMAk9IMRMw
EQYDVQQHDApDaW5jaW5uYXRpMSEwHwYDVQQKDBhVbml2ZXJzaXR5IG9mIENpbmNp
bm5hdGkxMDAuBgNVBAsMJ0RlcHQuIEVsZWN0cmljYWwgRW5nLiBhbmQgQ29tcHV0
ZXIgU2NpLjESMBAGA1UEAwwJY2xpZW50MTI5MSgwJgYJKoZIhvcNAQkBFhlmcmFu
Y29AZ2F1c3MuZWNlY3MudWMuZWR1MIIBIjANBgkqhkiG9w0BAQEFAAOCAQ8AMIIB
CgKCAQEA3bEHxGcEn0Nki2daYF5kXXGRVJ3frgovRdYbETegFKDw9XR+uKsJKC5Q
t7psBiu4wr2l0tPe5TIX/8MUq2mnfzavYDgHOTbmGYRbxA3eSEjRaLwwzGi39qzR
Y8gXRalOMlCfWYMa+4Il5w5zY+u+FJG0AfzpIU1FpZ7+6nGx/fI7SlnIB7/apyAb
LswtvKza/HVz4gNYo3fM+2/iUbGBF/cqdn41GotTUjujNr4vcaR2r/MIj1a8sqL8
qXiWxOBzgdbahcw+IdkB6ka8lcJFaTG7PKe4ymQbXhajqhT4/JiK3tgYPJWiNRt1
2Bwmi3wFqXO6xKIvcvuGloXbSiGOCQIDAQABo4IBNzCCATMwCQYDVR0TBAIwADAd
BgNVHQ4EFgQUkTq21KvZnuguAA30aBIMk4103vIwgeQGA1UdIwSB3DCB2YAU79y2
PUv9p4cFxSI9i9y/mSru5NuhgbWkgbIwga8xCzAJBgNVBAYTAlVTMRMwEQYDVQQI
DApDYWxpZm9ybmlhMRYwFAYDVQQHDA1TYW4gRnJhbmNpc2NvMSAwHgYDVQQKDBdD
b3B5bGVmdCBDZXJ0aWZpY2F0ZSBDbzEfMB0GA1UECwwWTXkgT3JnYW5pemF0aW9u
YWwgVW5pdDERMA8GA1UEAwwIQ2hhbmdlTWUxHTAbBgkqhkiG9w0BCQEWDm1lQGV4
YW1wbGUubmV0ggkAhx4d3GuMZogwEwYDVR0lBAwwCgYIKwYBBQUHAwIwCwYDVR0P
BAQDAgeAMA0GCSqGSIb3DQEBCwUAA4IBAQA1F/hZAbi3csOtH+AQ3u9taspatXKP
1Er0qZwSE6zbOXyeMMaQZAjXL08pnPM7QeYCSNVL3Jw+/afDWC0d+SLxntKdO0pA
pFSByEXc4Kzf81rFBqBF3Vqp2oGM1XAmA4E4JqcP73q8mKpvrnCIbFGpVVwCexlh
WoPFgb/PCkRJ54F1Sac0SGQ1NPPoTVCrXik0dq7v/+6wAaHxe+53bzZwX/Q3a//+
0Vwi9EBB9vBjKIBo2ZQ6yHum/U6jiqAeqTA5vsPWfq3sjWlXfxgJ91dOKJtrOyzC
Ej3Zz/VcIoE5Do+yR2PuFmAwCcUrrGBl/UCLRW/6Rr+hm2I9/Jv9XbPH
-----END CERTIFICATE-----
