Certificate:
    Data:
        Version: 3 (0x2)
        Serial Number:
            2d:4e:58:5c:f8:3f:03:60:07:15:89:94:f4:24:b8:e7
    Signature Algorithm: sha256WithRSAEncryption
        Issuer: C=US, ST=California, L=San Francisco, O=Copyleft Certificate Co, OU=My Organizational Unit, CN=ChangeMe/emailAddress=me@example.net
        Validity
            Not Before: Jan 23 18:29:29 2021 GMT
            Not After : Jan 23 18:29:29 2022 GMT
        Subject: C=US, ST=OH, L=Cincinnati, O=University of Cincinnati, OU=Dept. Electrical Eng. and Computer Sci., CN=client95/emailAddress=franco@gauss.ececs.uc.edu
        Subject Public Key Info:
            Public Key Algorithm: rsaEncryption
                Public-Key: (2048 bit)
                Modulus:
                    00:ba:a1:bd:8f:c3:6a:24:c8:bc:bb:0c:78:b7:ca:
                    81:68:b8:44:89:7a:ed:c9:1e:f9:d9:76:37:1d:51:
                    f6:1d:c8:31:5d:c0:d4:82:b2:29:58:c0:02:7a:93:
                    78:db:06:64:07:27:42:4b:a9:a3:56:ec:1b:fe:b6:
                    2d:53:91:3c:f8:a6:a7:9d:03:47:3d:5e:2a:78:c3:
                    05:76:ab:31:61:7f:c1:66:d0:da:1d:d4:e0:78:06:
                    b9:66:9a:89:27:62:2d:9f:f5:48:72:ca:ad:8e:7f:
                    fa:a2:24:41:c6:01:48:56:f2:88:74:fe:42:68:8c:
                    94:02:a5:7b:e9:74:d8:a2:7a:0c:e9:0d:de:82:73:
                    a5:96:e4:b1:0f:41:05:62:27:19:f8:54:73:85:f4:
                    5f:70:1a:bb:67:73:08:70:c7:01:25:15:23:67:eb:
                    e7:59:ff:54:e5:82:73:cc:d1:46:8e:a7:e4:e7:bd:
                    55:1b:51:03:8c:66:f5:12:44:62:a4:e5:2f:d9:96:
                    3f:3c:7b:6e:c5:d3:01:5a:cf:ec:9b:7c:6e:e5:70:
                    f7:29:85:59:68:d3:5b:3d:37:d4:46:7d:6e:9a:ab:
                    a6:1f:30:e8:9f:a9:2e:98:50:aa:d3:b1:17:7c:ea:
                    50:70:8f:62:50:3c:3c:93:05:c4:bc:cf:cc:c8:ab:
                    ae:b5
                Exponent: 65537 (0x10001)
        X509v3 extensions:
            X509v3 Basic Constraints: 
                CA:FALSE
            X509v3 Subject Key Identifier: 
                93:F2:C5:CD:69:11:C7:F0:73:81:CA:1A:48:0C:65:6E:64:9C:73:70
            X509v3 Authority Key Identifier: 
                keyid:EF:DC:B6:3D:4B:FD:A7:87:05:C5:22:3D:8B:DC:BF:99:2A:EE:E4:DB
                DirName:/C=US/ST=California/L=San Francisco/O=Copyleft Certificate Co/OU=My Organizational Unit/CN=ChangeMe/emailAddress=me@example.net
                serial:87:1E:1D:DC:6B:8C:66:88

            X509v3 Extended Key Usage: 
                TLS Web Client Authentication
            X509v3 Key Usage: 
                Digital Signature
    Signature Algorithm: sha256WithRSAEncryption
         a1:a7:74:6c:23:0b:d9:98:f8:ef:2d:3b:ca:42:57:89:99:38:
         35:8e:38:d5:43:11:02:9e:06:79:f0:4c:c1:4d:fa:7e:f0:e4:
         d9:94:88:cd:d0:3e:09:48:e2:22:9b:18:0e:1b:85:77:64:ce:
         5d:87:f1:91:66:38:c5:b9:b2:c4:7d:f8:6d:c6:c7:79:da:4b:
         d3:16:d0:df:16:f8:73:e2:c9:11:b2:5b:2e:79:da:6e:fc:b2:
         6b:f9:35:33:91:bd:63:18:a5:96:5f:af:00:19:1f:60:92:2a:
         36:38:8c:a6:c1:ff:32:4b:3a:e6:a8:c6:ec:29:2e:82:0a:88:
         68:5c:65:1e:e2:6f:37:17:5f:f4:6f:2b:ea:17:19:b4:39:5a:
         30:c4:43:16:2e:26:59:a4:a0:f4:6e:17:dd:12:9c:e4:f8:99:
         8d:a9:8d:05:f4:e1:b4:2c:ba:25:06:86:87:98:c4:28:22:4a:
         b7:ea:5f:6e:a5:cd:5a:a1:ce:27:45:3f:7f:1b:6e:70:da:96:
         90:57:00:e2:63:1e:a8:be:83:a6:7a:e7:bf:56:db:2e:30:a0:
         c6:8b:b9:99:8b:be:23:fb:6c:25:af:da:00:9f:ab:6a:60:9a:
         cc:ba:a8:58:09:f5:d4:6a:f3:47:8e:a2:b2:17:f4:df:22:49:
         44:7d:80:7d
-----BEGIN CERTIFICATE-----
MIIFNTCCBB2gAwIBAgIQLU5YXPg/A2AHFYmU9CS45zANBgkqhkiG9w0BAQsFADCB
rzELMAkGA1UEBhMCVVMxEzARBgNVBAgMCkNhbGlmb3JuaWExFjAUBgNVBAcMDVNh
biBGcmFuY2lzY28xIDAeBgNVBAoMF0NvcHlsZWZ0IENlcnRpZmljYXRlIENvMR8w
HQYDVQQLDBZNeSBPcmdhbml6YXRpb25hbCBVbml0MREwDwYDVQQDDAhDaGFuZ2VN
ZTEdMBsGCSqGSIb3DQEJARYObWVAZXhhbXBsZS5uZXQwHhcNMjEwMTIzMTgyOTI5
WhcNMjIwMTIzMTgyOTI5WjCBwTELMAkGA1UEBhMCVVMxCzAJBgNVBAgMAk9IMRMw
EQYDVQQHDApDaW5jaW5uYXRpMSEwHwYDVQQKDBhVbml2ZXJzaXR5IG9mIENpbmNp
bm5hdGkxMDAuBgNVBAsMJ0RlcHQuIEVsZWN0cmljYWwgRW5nLiBhbmQgQ29tcHV0
ZXIgU2NpLjERMA8GA1UEAwwIY2xpZW50OTUxKDAmBgkqhkiG9w0BCQEWGWZyYW5j
b0BnYXVzcy5lY2Vjcy51Yy5lZHUwggEiMA0GCSqGSIb3DQEBAQUAA4IBDwAwggEK
AoIBAQC6ob2Pw2okyLy7DHi3yoFouESJeu3JHvnZdjcdUfYdyDFdwNSCsilYwAJ6
k3jbBmQHJ0JLqaNW7Bv+ti1TkTz4pqedA0c9Xip4wwV2qzFhf8Fm0Nod1OB4Brlm
moknYi2f9Uhyyq2Of/qiJEHGAUhW8oh0/kJojJQCpXvpdNiiegzpDd6Cc6WW5LEP
QQViJxn4VHOF9F9wGrtncwhwxwElFSNn6+dZ/1TlgnPM0UaOp+TnvVUbUQOMZvUS
RGKk5S/Zlj88e27F0wFaz+ybfG7lcPcphVlo01s9N9RGfW6aq6YfMOifqS6YUKrT
sRd86lBwj2JQPDyTBcS8z8zIq661AgMBAAGjggE3MIIBMzAJBgNVHRMEAjAAMB0G
A1UdDgQWBBST8sXNaRHH8HOByhpIDGVuZJxzcDCB5AYDVR0jBIHcMIHZgBTv3LY9
S/2nhwXFIj2L3L+ZKu7k26GBtaSBsjCBrzELMAkGA1UEBhMCVVMxEzARBgNVBAgM
CkNhbGlmb3JuaWExFjAUBgNVBAcMDVNhbiBGcmFuY2lzY28xIDAeBgNVBAoMF0Nv
cHlsZWZ0IENlcnRpZmljYXRlIENvMR8wHQYDVQQLDBZNeSBPcmdhbml6YXRpb25h
bCBVbml0MREwDwYDVQQDDAhDaGFuZ2VNZTEdMBsGCSqGSIb3DQEJARYObWVAZXhh
bXBsZS5uZXSCCQCHHh3ca4xmiDATBgNVHSUEDDAKBggrBgEFBQcDAjALBgNVHQ8E
BAMCB4AwDQYJKoZIhvcNAQELBQADggEBAKGndGwjC9mY+O8tO8pCV4mZODWOONVD
EQKeBnnwTMFN+n7w5NmUiM3QPglI4iKbGA4bhXdkzl2H8ZFmOMW5ssR9+G3Gx3na
S9MW0N8W+HPiyRGyWy552m78smv5NTORvWMYpZZfrwAZH2CSKjY4jKbB/zJLOuao
xuwpLoIKiGhcZR7ibzcXX/RvK+oXGbQ5WjDEQxYuJlmkoPRuF90SnOT4mY2pjQX0
4bQsuiUGhoeYxCgiSrfqX26lzVqhzidFP38bbnDalpBXAOJjHqi+g6Z6579W2y4w
oMaLuZmLviP7bCWv2gCfq2pgmsy6qFgJ9dRq80eOorIX9N8iSUR9gH0=
-----END CERTIFICATE-----
