Certificate:
    Data:
        Version: 3 (0x2)
        Serial Number:
            4a:f0:f4:46:37:c6:c0:9a:22:e2:e6:ed:12:57:60:92
    Signature Algorithm: sha256WithRSAEncryption
        Issuer: C=US, ST=California, L=San Francisco, O=Copyleft Certificate Co, OU=My Organizational Unit, CN=ChangeMe/emailAddress=me@example.net
        Validity
            Not Before: Jan 23 18:28:29 2021 GMT
            Not After : Jan 23 18:28:29 2022 GMT
        Subject: C=US, ST=OH, L=Cincinnati, O=University of Cincinnati, OU=Dept. Electrical Eng. and Computer Sci., CN=client51/emailAddress=franco@gauss.ececs.uc.edu
        Subject Public Key Info:
            Public Key Algorithm: rsaEncryption
                Public-Key: (2048 bit)
                Modulus:
                    00:b6:31:9c:cf:fd:d9:15:3a:3e:06:b7:ac:e8:dd:
                    37:3e:e8:74:15:63:16:3d:12:8a:b3:94:ce:a0:3e:
                    75:a7:77:86:83:ce:67:be:24:b2:46:4a:62:19:ae:
                    1e:f1:1b:e7:b4:ec:76:7a:ef:f9:3c:2a:ff:5d:c8:
                    75:5f:16:90:77:2b:87:4b:ed:a3:6a:ba:1a:f5:ca:
                    82:54:94:cc:8b:e9:a3:0a:d6:c7:fe:f4:54:ef:04:
                    5d:6f:02:92:54:f6:c8:10:fe:da:67:0f:72:e5:4c:
                    a5:e8:e0:b5:2b:60:0f:eb:f1:f1:14:81:0f:1c:7d:
                    31:a8:08:cc:6a:f6:69:9e:8f:64:02:d3:a7:e3:ef:
                    44:36:9e:d3:36:8f:60:65:18:45:2f:4a:57:99:00:
                    3b:6b:08:c1:d4:15:4d:1b:ea:70:30:27:8c:15:7b:
                    fb:74:79:a0:b5:fe:c9:12:ef:4d:da:8a:b3:33:99:
                    42:bc:29:be:af:b3:d3:e7:13:ae:1f:6a:fe:5e:d8:
                    bb:07:e5:ff:ec:0d:97:63:55:42:77:46:86:42:44:
                    b8:44:4f:3a:16:3f:d9:ab:8f:48:4a:b5:28:ec:34:
                    24:9d:2d:2d:48:47:3d:a4:99:88:58:53:f6:45:b3:
                    d7:f7:6e:63:ff:2c:3a:c1:ed:a3:ab:5a:f0:08:81:
                    c4:ef
                Exponent: 65537 (0x10001)
        X509v3 extensions:
            X509v3 Basic Constraints: 
                CA:FALSE
            X509v3 Subject Key Identifier: 
                35:2B:64:D8:CF:E4:C4:80:8E:95:51:D4:88:2B:22:25:12:47:33:C5
            X509v3 Authority Key Identifier: 
                keyid:EF:DC:B6:3D:4B:FD:A7:87:05:C5:22:3D:8B:DC:BF:99:2A:EE:E4:DB
                DirName:/C=US/ST=California/L=San Francisco/O=Copyleft Certificate Co/OU=My Organizational Unit/CN=ChangeMe/emailAddress=me@example.net
                serial:87:1E:1D:DC:6B:8C:66:88

            X509v3 Extended Key Usage: 
                TLS Web Client Authentication
            X509v3 Key Usage: 
                Digital Signature
    Signature Algorithm: sha256WithRSAEncryption
         3d:bc:26:79:83:b7:a3:e3:24:f2:33:3f:df:22:87:ef:4e:bb:
         4c:29:9a:d8:75:4c:a2:1b:b9:e3:bc:92:26:08:a5:4c:ee:fa:
         c4:5e:60:80:f3:b8:6e:d7:79:46:49:cf:1d:ad:71:8b:c5:d9:
         10:ca:52:45:6c:e2:bf:7d:7a:bf:96:4a:2f:5e:bc:7d:2a:5f:
         de:51:27:df:67:b1:5e:8b:ba:30:7b:94:f8:7a:34:cc:b8:40:
         77:9b:7f:d4:b9:06:02:d0:3a:b9:85:70:06:c5:34:51:ef:12:
         fb:96:dd:12:db:cd:fd:c6:54:d6:35:1c:1e:57:24:dd:59:5c:
         93:01:7e:fd:e9:91:93:30:c7:06:c0:07:3b:41:16:7f:ce:85:
         87:ba:4d:f5:57:5f:e0:d7:af:0a:92:57:83:d0:28:c8:6c:d2:
         2b:a0:ea:c3:a3:f3:ee:0b:77:32:b2:88:ab:7e:48:2f:f6:af:
         05:1d:2d:00:f3:da:d1:68:2a:fa:5d:fd:38:e6:a7:e8:8e:d0:
         b3:cd:51:22:33:70:b4:0f:f5:e4:c1:8b:66:5d:7c:6d:72:90:
         9c:f6:25:0d:07:47:93:b9:29:28:92:41:57:79:51:9b:8e:a5:
         38:9e:2d:15:d4:8d:99:db:3d:1c:5d:b4:62:8b:00:1e:8c:23:
         bd:2e:50:e5
-----BEGIN CERTIFICATE-----
MIIFNTCCBB2gAwIBAgIQSvD0RjfGwJoi4ubtEldgkjANBgkqhkiG9w0BAQsFADCB
rzELMAkGA1UEBhMCVVMxEzARBgNVBAgMCkNhbGlmb3JuaWExFjAUBgNVBAcMDVNh
biBGcmFuY2lzY28xIDAeBgNVBAoMF0NvcHlsZWZ0IENlcnRpZmljYXRlIENvMR8w
HQYDVQQLDBZNeSBPcmdhbml6YXRpb25hbCBVbml0MREwDwYDVQQDDAhDaGFuZ2VN
ZTEdMBsGCSqGSIb3DQEJARYObWVAZXhhbXBsZS5uZXQwHhcNMjEwMTIzMTgyODI5
WhcNMjIwMTIzMTgyODI5WjCBwTELMAkGA1UEBhMCVVMxCzAJBgNVBAgMAk9IMRMw
EQYDVQQHDApDaW5jaW5uYXRpMSEwHwYDVQQKDBhVbml2ZXJzaXR5IG9mIENpbmNp
bm5hdGkxMDAuBgNVBAsMJ0RlcHQuIEVsZWN0cmljYWwgRW5nLiBhbmQgQ29tcHV0
ZXIgU2NpLjERMA8GA1UEAwwIY2xpZW50NTExKDAmBgkqhkiG9w0BCQEWGWZyYW5j
b0BnYXVzcy5lY2Vjcy51Yy5lZHUwggEiMA0GCSqGSIb3DQEBAQUAA4IBDwAwggEK
AoIBAQC2MZzP/dkVOj4Gt6zo3Tc+6HQVYxY9EoqzlM6gPnWnd4aDzme+JLJGSmIZ
rh7xG+e07HZ67/k8Kv9dyHVfFpB3K4dL7aNquhr1yoJUlMyL6aMK1sf+9FTvBF1v
ApJU9sgQ/tpnD3LlTKXo4LUrYA/r8fEUgQ8cfTGoCMxq9mmej2QC06fj70Q2ntM2
j2BlGEUvSleZADtrCMHUFU0b6nAwJ4wVe/t0eaC1/skS703airMzmUK8Kb6vs9Pn
E64fav5e2LsH5f/sDZdjVUJ3RoZCRLhETzoWP9mrj0hKtSjsNCSdLS1IRz2kmYhY
U/ZFs9f3bmP/LDrB7aOrWvAIgcTvAgMBAAGjggE3MIIBMzAJBgNVHRMEAjAAMB0G
A1UdDgQWBBQ1K2TYz+TEgI6VUdSIKyIlEkczxTCB5AYDVR0jBIHcMIHZgBTv3LY9
S/2nhwXFIj2L3L+ZKu7k26GBtaSBsjCBrzELMAkGA1UEBhMCVVMxEzARBgNVBAgM
CkNhbGlmb3JuaWExFjAUBgNVBAcMDVNhbiBGcmFuY2lzY28xIDAeBgNVBAoMF0Nv
cHlsZWZ0IENlcnRpZmljYXRlIENvMR8wHQYDVQQLDBZNeSBPcmdhbml6YXRpb25h
bCBVbml0MREwDwYDVQQDDAhDaGFuZ2VNZTEdMBsGCSqGSIb3DQEJARYObWVAZXhh
bXBsZS5uZXSCCQCHHh3ca4xmiDATBgNVHSUEDDAKBggrBgEFBQcDAjALBgNVHQ8E
BAMCB4AwDQYJKoZIhvcNAQELBQADggEBAD28JnmDt6PjJPIzP98ih+9Ou0wpmth1
TKIbueO8kiYIpUzu+sReYIDzuG7XeUZJzx2tcYvF2RDKUkVs4r99er+WSi9evH0q
X95RJ99nsV6LujB7lPh6NMy4QHebf9S5BgLQOrmFcAbFNFHvEvuW3RLbzf3GVNY1
HB5XJN1ZXJMBfv3pkZMwxwbABztBFn/OhYe6TfVXX+DXrwqSV4PQKMhs0iug6sOj
8+4LdzKyiKt+SC/2rwUdLQDz2tFoKvpd/Tjmp+iO0LPNUSIzcLQP9eTBi2ZdfG1y
kJz2JQ0HR5O5KSiSQVd5UZuOpTieLRXUjZnbPRxdtGKLAB6MI70uUOU=
-----END CERTIFICATE-----
