Certificate:
    Data:
        Version: 3 (0x2)
        Serial Number:
            79:cb:27:19:d9:ec:0c:c0:d5:85:6b:4b:14:fd:ce:22
    Signature Algorithm: sha256WithRSAEncryption
        Issuer: C=US, ST=California, L=San Francisco, O=Copyleft Certificate Co, OU=My Organizational Unit, CN=ChangeMe/emailAddress=me@example.net
        Validity
            Not Before: Jan 23 18:28:00 2021 GMT
            Not After : Jan 23 18:28:00 2022 GMT
        Subject: C=US, ST=OH, L=Cincinnati, O=University of Cincinnati, OU=Dept. Electrical Eng. and Computer Sci., CN=client31/emailAddress=franco@gauss.ececs.uc.edu
        Subject Public Key Info:
            Public Key Algorithm: rsaEncryption
                Public-Key: (2048 bit)
                Modulus:
                    00:cf:40:9e:74:15:58:ea:70:7d:d0:7a:5d:e6:fd:
                    d6:5e:84:9c:11:35:e8:81:91:a6:53:4e:c5:6e:f7:
                    e4:91:57:96:43:17:1e:9d:0a:d2:af:50:10:c5:d8:
                    21:c8:30:9a:14:70:68:76:24:f1:81:8e:47:d4:95:
                    ff:e2:7a:28:19:7d:38:41:66:59:7d:d2:41:a8:46:
                    3a:1b:70:a1:55:b5:e6:79:3c:56:d6:87:6a:5f:e6:
                    fe:ac:1d:10:f9:39:b0:a9:e7:89:f3:92:7f:dc:db:
                    c8:c7:7d:e5:22:9c:17:b9:12:6c:ca:06:01:e6:25:
                    fb:38:e3:6e:5b:9e:72:09:18:25:fe:65:2d:0c:d0:
                    c2:44:69:ee:75:c3:6a:22:a8:17:74:1b:47:cb:61:
                    0b:a0:f6:b9:3a:9c:92:70:f2:55:da:c3:85:eb:49:
                    4b:45:11:ca:75:21:fe:05:fa:d6:9e:bb:ba:ec:c3:
                    5d:25:94:1d:51:21:26:7f:c2:d8:f3:1a:80:42:65:
                    74:06:9c:31:f0:a8:c7:c3:ca:04:84:f1:08:f1:af:
                    a2:92:67:3f:b6:41:2e:c3:33:67:c8:4d:61:9c:1c:
                    4e:77:c5:7b:d4:f6:0b:45:c1:7c:02:2d:84:31:5c:
                    a3:d5:14:99:74:ab:7c:91:45:f4:91:a1:35:75:a9:
                    8b:e5
                Exponent: 65537 (0x10001)
        X509v3 extensions:
            X509v3 Basic Constraints: 
                CA:FALSE
            X509v3 Subject Key Identifier: 
                C6:F3:F0:81:CD:38:BF:22:32:DC:A8:AD:54:26:F3:1B:2E:3B:12:69
            X509v3 Authority Key Identifier: 
                keyid:EF:DC:B6:3D:4B:FD:A7:87:05:C5:22:3D:8B:DC:BF:99:2A:EE:E4:DB
                DirName:/C=US/ST=California/L=San Francisco/O=Copyleft Certificate Co/OU=My Organizational Unit/CN=ChangeMe/emailAddress=me@example.net
                serial:87:1E:1D:DC:6B:8C:66:88

            X509v3 Extended Key Usage: 
                TLS Web Client Authentication
            X509v3 Key Usage: 
                Digital Signature
    Signature Algorithm: sha256WithRSAEncryption
         7c:45:66:4d:7e:b6:16:26:16:78:ac:95:b8:38:14:95:06:af:
         9e:64:33:c4:7c:c5:66:9d:bf:cd:8d:2d:a4:ec:4a:75:5e:8d:
         77:20:96:6b:d2:5b:bc:e1:32:7d:f2:7b:6b:d3:2f:14:e9:cc:
         f3:0f:7d:fe:71:55:b5:1b:9c:3f:5b:1c:28:e1:88:f1:f5:c9:
         91:3e:a6:7b:c6:90:fa:b9:b4:bf:77:f1:a8:62:f8:ae:29:8b:
         75:c3:66:60:50:db:4f:89:a1:00:bc:69:65:45:f9:84:58:23:
         aa:d5:7e:83:5a:fb:2a:42:48:32:d5:fd:0a:c4:6d:b4:8f:af:
         c1:f7:1c:25:00:8e:0d:50:f5:c8:f4:58:9a:36:4d:f8:ba:0f:
         ea:28:f0:dc:1f:78:5e:8c:c5:1a:8a:7e:a2:0b:17:35:69:ae:
         25:0c:04:55:01:32:c4:71:0f:9b:2d:50:73:bf:d7:9e:a0:38:
         bd:c3:4d:20:41:80:ac:7c:4a:1c:4d:5f:2a:06:4e:9b:32:33:
         e5:02:5b:56:f1:17:3d:b0:18:c8:ee:78:f4:2b:ac:7d:17:6d:
         c4:01:7f:3e:d1:21:09:64:23:75:99:af:15:ba:59:a8:eb:8f:
         6c:09:57:9c:71:eb:04:84:76:27:1f:f5:8d:2c:d4:74:27:1e:
         ce:53:78:5f
-----BEGIN CERTIFICATE-----
MIIFNTCCBB2gAwIBAgIQecsnGdnsDMDVhWtLFP3OIjANBgkqhkiG9w0BAQsFADCB
rzELMAkGA1UEBhMCVVMxEzARBgNVBAgMCkNhbGlmb3JuaWExFjAUBgNVBAcMDVNh
biBGcmFuY2lzY28xIDAeBgNVBAoMF0NvcHlsZWZ0IENlcnRpZmljYXRlIENvMR8w
HQYDVQQLDBZNeSBPcmdhbml6YXRpb25hbCBVbml0MREwDwYDVQQDDAhDaGFuZ2VN
ZTEdMBsGCSqGSIb3DQEJARYObWVAZXhhbXBsZS5uZXQwHhcNMjEwMTIzMTgyODAw
WhcNMjIwMTIzMTgyODAwWjCBwTELMAkGA1UEBhMCVVMxCzAJBgNVBAgMAk9IMRMw
EQYDVQQHDApDaW5jaW5uYXRpMSEwHwYDVQQKDBhVbml2ZXJzaXR5IG9mIENpbmNp
bm5hdGkxMDAuBgNVBAsMJ0RlcHQuIEVsZWN0cmljYWwgRW5nLiBhbmQgQ29tcHV0
ZXIgU2NpLjERMA8GA1UEAwwIY2xpZW50MzExKDAmBgkqhkiG9w0BCQEWGWZyYW5j
b0BnYXVzcy5lY2Vjcy51Yy5lZHUwggEiMA0GCSqGSIb3DQEBAQUAA4IBDwAwggEK
AoIBAQDPQJ50FVjqcH3Qel3m/dZehJwRNeiBkaZTTsVu9+SRV5ZDFx6dCtKvUBDF
2CHIMJoUcGh2JPGBjkfUlf/ieigZfThBZll90kGoRjobcKFVteZ5PFbWh2pf5v6s
HRD5ObCp54nzkn/c28jHfeUinBe5EmzKBgHmJfs4425bnnIJGCX+ZS0M0MJEae51
w2oiqBd0G0fLYQug9rk6nJJw8lXaw4XrSUtFEcp1If4F+taeu7rsw10llB1RISZ/
wtjzGoBCZXQGnDHwqMfDygSE8Qjxr6KSZz+2QS7DM2fITWGcHE53xXvU9gtFwXwC
LYQxXKPVFJl0q3yRRfSRoTV1qYvlAgMBAAGjggE3MIIBMzAJBgNVHRMEAjAAMB0G
A1UdDgQWBBTG8/CBzTi/IjLcqK1UJvMbLjsSaTCB5AYDVR0jBIHcMIHZgBTv3LY9
S/2nhwXFIj2L3L+ZKu7k26GBtaSBsjCBrzELMAkGA1UEBhMCVVMxEzARBgNVBAgM
CkNhbGlmb3JuaWExFjAUBgNVBAcMDVNhbiBGcmFuY2lzY28xIDAeBgNVBAoMF0Nv
cHlsZWZ0IENlcnRpZmljYXRlIENvMR8wHQYDVQQLDBZNeSBPcmdhbml6YXRpb25h
bCBVbml0MREwDwYDVQQDDAhDaGFuZ2VNZTEdMBsGCSqGSIb3DQEJARYObWVAZXhh
bXBsZS5uZXSCCQCHHh3ca4xmiDATBgNVHSUEDDAKBggrBgEFBQcDAjALBgNVHQ8E
BAMCB4AwDQYJKoZIhvcNAQELBQADggEBAHxFZk1+thYmFnislbg4FJUGr55kM8R8
xWadv82NLaTsSnVejXcglmvSW7zhMn3ye2vTLxTpzPMPff5xVbUbnD9bHCjhiPH1
yZE+pnvGkPq5tL938ahi+K4pi3XDZmBQ20+JoQC8aWVF+YRYI6rVfoNa+ypCSDLV
/QrEbbSPr8H3HCUAjg1Q9cj0WJo2Tfi6D+oo8NwfeF6MxRqKfqILFzVpriUMBFUB
MsRxD5stUHO/156gOL3DTSBBgKx8ShxNXyoGTpsyM+UCW1bxFz2wGMjuePQrrH0X
bcQBfz7RIQlkI3WZrxW6Wajrj2wJV5xx6wSEdicf9Y0s1HQnHs5TeF8=
-----END CERTIFICATE-----
