Certificate:
    Data:
        Version: 3 (0x2)
        Serial Number:
            bb:d4:69:e9:2e:73:64:8e:a9:e3:58:f8:94:ab:11:db
    Signature Algorithm: sha256WithRSAEncryption
        Issuer: C=US, ST=California, L=San Francisco, O=Copyleft Certificate Co, OU=My Organizational Unit, CN=ChangeMe/emailAddress=me@example.net
        Validity
            Not Before: Jan 23 18:30:03 2021 GMT
            Not After : Jan 23 18:30:03 2022 GMT
        Subject: C=US, ST=OH, L=Cincinnati, O=University of Cincinnati, OU=Dept. Electrical Eng. and Computer Sci., CN=client118/emailAddress=franco@gauss.ececs.uc.edu
        Subject Public Key Info:
            Public Key Algorithm: rsaEncryption
                Public-Key: (2048 bit)
                Modulus:
                    00:bd:c6:5e:bb:52:b6:d4:7e:b2:84:e9:ed:98:11:
                    d5:f0:90:9c:6d:f8:74:4f:e6:46:c2:c8:ed:28:9e:
                    0a:62:a8:a9:c9:cd:ed:44:d7:8b:83:93:ec:06:77:
                    b7:1a:93:ba:26:7e:93:cd:18:ec:45:b9:f6:9e:4e:
                    94:75:69:c1:24:15:f1:54:74:e5:40:03:1b:eb:a8:
                    a4:a1:08:42:c4:38:af:64:93:10:b2:de:60:31:79:
                    0c:59:92:7c:f4:74:0a:4f:00:6b:4a:ef:59:e4:87:
                    42:82:71:fe:89:d8:2b:68:8b:e4:6a:8a:d8:b5:33:
                    12:35:4b:9a:06:a5:81:56:16:c6:3e:68:cb:70:f4:
                    ba:df:1b:7b:0d:f2:8c:e1:e5:b9:89:78:f0:f4:19:
                    bc:d7:55:8f:b7:a3:01:f4:8e:90:62:55:86:bb:20:
                    ad:01:7c:a3:88:18:6b:be:a5:2a:c4:26:e2:63:78:
                    4d:81:af:0e:7d:f1:3f:57:7d:21:87:5b:92:e8:25:
                    9b:bf:7c:d9:3e:4e:2c:eb:5f:a1:a5:0e:2a:7e:97:
                    ab:c8:40:a1:7f:13:37:0e:69:46:1a:af:37:11:e6:
                    da:57:99:f7:ff:2e:a7:3b:01:10:cc:ea:40:36:14:
                    01:d9:82:ec:6b:37:34:05:fe:70:1f:f6:0a:93:0a:
                    05:41
                Exponent: 65537 (0x10001)
        X509v3 extensions:
            X509v3 Basic Constraints: 
                CA:FALSE
            X509v3 Subject Key Identifier: 
                0E:FD:06:90:DF:08:D3:BE:E1:90:F3:DA:EE:25:24:08:24:E1:70:D9
            X509v3 Authority Key Identifier: 
                keyid:EF:DC:B6:3D:4B:FD:A7:87:05:C5:22:3D:8B:DC:BF:99:2A:EE:E4:DB
                DirName:/C=US/ST=California/L=San Francisco/O=Copyleft Certificate Co/OU=My Organizational Unit/CN=ChangeMe/emailAddress=me@example.net
                serial:87:1E:1D:DC:6B:8C:66:88

            X509v3 Extended Key Usage: 
                TLS Web Client Authentication
            X509v3 Key Usage: 
                Digital Signature
    Signature Algorithm: sha256WithRSAEncryption
         36:fc:f8:e9:55:3a:60:48:34:65:12:c0:2a:fc:4b:49:22:09:
         97:8f:3c:83:32:27:3f:df:96:a3:27:0f:57:f1:01:0f:2f:4b:
         22:d0:73:ec:3d:33:8e:91:ff:a9:f3:0e:1a:34:01:7e:2a:c4:
         e9:b6:d6:bf:a2:89:9d:06:b8:92:da:9e:24:b7:bd:96:85:58:
         93:8f:bb:83:93:89:c5:0d:b3:a1:fb:6e:be:ab:43:17:ef:44:
         6c:c3:52:9a:22:db:91:d3:ba:95:7a:56:21:70:9e:73:5e:5f:
         0d:4f:e6:89:c7:9b:ce:60:2d:ad:a4:8d:fa:9b:f0:33:ff:3a:
         25:c4:d4:8b:1b:a1:6f:33:74:1d:e3:09:9f:0d:8d:7e:f6:06:
         e5:3e:86:a0:58:7c:bb:ec:8f:00:67:86:f7:a9:a4:3c:39:e0:
         c7:ec:ff:31:ad:fd:44:86:82:7e:a2:bb:40:57:a2:ce:21:e7:
         15:2b:76:fb:28:35:46:8b:bc:be:07:40:6f:89:b3:07:ed:f3:
         14:3f:9c:76:d7:d6:31:d7:25:63:77:44:84:e5:54:32:6a:a2:
         11:99:c0:e1:db:a3:48:09:3d:61:48:92:f8:64:67:4b:90:fe:
         2e:77:65:be:e9:c8:a9:df:47:35:7b:ef:09:59:28:fa:66:c0:
         11:f2:f0:d9
-----BEGIN CERTIFICATE-----
MIIFNzCCBB+gAwIBAgIRALvUaekuc2SOqeNY+JSrEdswDQYJKoZIhvcNAQELBQAw
ga8xCzAJBgNVBAYTAlVTMRMwEQYDVQQIDApDYWxpZm9ybmlhMRYwFAYDVQQHDA1T
YW4gRnJhbmNpc2NvMSAwHgYDVQQKDBdDb3B5bGVmdCBDZXJ0aWZpY2F0ZSBDbzEf
MB0GA1UECwwWTXkgT3JnYW5pemF0aW9uYWwgVW5pdDERMA8GA1UEAwwIQ2hhbmdl
TWUxHTAbBgkqhkiG9w0BCQEWDm1lQGV4YW1wbGUubmV0MB4XDTIxMDEyMzE4MzAw
M1oXDTIyMDEyMzE4MzAwM1owgcIxCzAJBgNVBAYTAlVTMQswCQYDVQQIDAJPSDET
MBEGA1UEBwwKQ2luY2lubmF0aTEhMB8GA1UECgwYVW5pdmVyc2l0eSBvZiBDaW5j
aW5uYXRpMTAwLgYDVQQLDCdEZXB0LiBFbGVjdHJpY2FsIEVuZy4gYW5kIENvbXB1
dGVyIFNjaS4xEjAQBgNVBAMMCWNsaWVudDExODEoMCYGCSqGSIb3DQEJARYZZnJh
bmNvQGdhdXNzLmVjZWNzLnVjLmVkdTCCASIwDQYJKoZIhvcNAQEBBQADggEPADCC
AQoCggEBAL3GXrtSttR+soTp7ZgR1fCQnG34dE/mRsLI7SieCmKoqcnN7UTXi4OT
7AZ3txqTuiZ+k80Y7EW59p5OlHVpwSQV8VR05UADG+uopKEIQsQ4r2STELLeYDF5
DFmSfPR0Ck8Aa0rvWeSHQoJx/onYK2iL5GqK2LUzEjVLmgalgVYWxj5oy3D0ut8b
ew3yjOHluYl48PQZvNdVj7ejAfSOkGJVhrsgrQF8o4gYa76lKsQm4mN4TYGvDn3x
P1d9IYdbkuglm7982T5OLOtfoaUOKn6Xq8hAoX8TNw5pRhqvNxHm2leZ9/8upzsB
EMzqQDYUAdmC7Gs3NAX+cB/2CpMKBUECAwEAAaOCATcwggEzMAkGA1UdEwQCMAAw
HQYDVR0OBBYEFA79BpDfCNO+4ZDz2u4lJAgk4XDZMIHkBgNVHSMEgdwwgdmAFO/c
tj1L/aeHBcUiPYvcv5kq7uTboYG1pIGyMIGvMQswCQYDVQQGEwJVUzETMBEGA1UE
CAwKQ2FsaWZvcm5pYTEWMBQGA1UEBwwNU2FuIEZyYW5jaXNjbzEgMB4GA1UECgwX
Q29weWxlZnQgQ2VydGlmaWNhdGUgQ28xHzAdBgNVBAsMFk15IE9yZ2FuaXphdGlv
bmFsIFVuaXQxETAPBgNVBAMMCENoYW5nZU1lMR0wGwYJKoZIhvcNAQkBFg5tZUBl
eGFtcGxlLm5ldIIJAIceHdxrjGaIMBMGA1UdJQQMMAoGCCsGAQUFBwMCMAsGA1Ud
DwQEAwIHgDANBgkqhkiG9w0BAQsFAAOCAQEANvz46VU6YEg0ZRLAKvxLSSIJl488
gzInP9+WoycPV/EBDy9LItBz7D0zjpH/qfMOGjQBfirE6bbWv6KJnQa4ktqeJLe9
loVYk4+7g5OJxQ2zoftuvqtDF+9EbMNSmiLbkdO6lXpWIXCec15fDU/micebzmAt
raSN+pvwM/86JcTUixuhbzN0HeMJnw2NfvYG5T6GoFh8u+yPAGeG96mkPDngx+z/
Ma39RIaCfqK7QFeiziHnFSt2+yg1Rou8vgdAb4mzB+3zFD+cdtfWMdclY3dEhOVU
MmqiEZnA4dujSAk9YUiS+GRnS5D+LndlvunIqd9HNXvvCVko+mbAEfLw2Q==
-----END CERTIFICATE-----
