Certificate:
    Data:
        Version: 3 (0x2)
        Serial Number:
            71:f7:e5:60:e1:59:c4:18:fb:47:69:a8:2d:b5:a9:3f
    Signature Algorithm: sha256WithRSAEncryption
        Issuer: C=US, ST=California, L=San Francisco, O=Copyleft Certificate Co, OU=My Organizational Unit, CN=ChangeMe/emailAddress=me@example.net
        Validity
            Not Before: Nov 12 11:46:35 2023 GMT
            Not After : Nov 11 11:46:35 2024 GMT
        Subject: C=US, ST=OH, L=Cincinnati, O=University of Cincinnati, OU=Dept. Elec. Comp. Eng. Comp. Sci., CN=client5/emailAddress=franco@gauss.ececs.uc.edu
        Subject Public Key Info:
            Public Key Algorithm: rsaEncryption
                Public-Key: (2048 bit)
                Modulus:
                    00:c2:d4:6c:78:82:1a:8f:81:59:77:ef:01:cd:a0:
                    5a:c4:08:9d:fa:a0:bb:e8:dc:d7:01:01:e7:aa:d5:
                    69:b5:94:f8:ad:7e:aa:d2:df:25:ba:80:06:87:c9:
                    7e:f8:e8:19:27:aa:d3:07:06:aa:23:93:aa:87:e6:
                    dc:ae:30:64:e6:bd:e7:75:0c:5a:1b:07:8b:c8:da:
                    7a:71:16:15:68:d2:47:5e:2f:15:39:df:0f:f5:5e:
                    e2:ae:0a:0d:c8:7d:ae:07:39:4c:58:ea:df:f0:50:
                    19:04:ae:44:de:6c:18:89:af:04:3b:a3:9f:1c:b0:
                    6f:54:4b:29:43:70:e7:e3:b9:04:13:c0:ef:77:8c:
                    5e:0f:cd:6d:52:de:48:29:21:08:96:1e:db:7e:94:
                    8d:e8:ce:87:af:92:86:e2:91:23:b6:ba:77:bb:c7:
                    56:7f:ed:ac:94:bd:a8:57:8b:a2:2f:c9:37:d7:5b:
                    70:9d:ba:29:dd:12:24:64:ec:ff:64:e3:14:c7:c5:
                    af:3b:0a:d4:14:af:75:4f:c1:d1:1c:ca:d0:41:2f:
                    65:14:35:62:81:49:f9:d1:e1:9d:5b:a2:b3:30:cd:
                    a5:24:97:d8:7a:c2:b9:e1:24:3f:c0:6e:91:e2:c9:
                    58:f1:cb:22:a3:4d:7e:6d:dd:b6:6e:db:6d:f7:5a:
                    ad:d3
                Exponent: 65537 (0x10001)
        X509v3 extensions:
            X509v3 Basic Constraints: 
                CA:FALSE
            X509v3 Subject Key Identifier: 
                38:02:E3:D1:9F:17:F3:3E:81:50:DE:DE:4E:F4:BD:7B:22:FF:45:E2
            X509v3 Authority Key Identifier: 
                keyid:C4:46:F2:96:38:56:02:B8:9D:09:04:52:25:91:35:97:6A:D7:B1:F0
                DirName:/C=US/ST=California/L=San Francisco/O=Copyleft Certificate Co/OU=My Organizational Unit/CN=ChangeMe/emailAddress=me@example.net
                serial:D1:5A:15:1C:F0:20:95:62

            X509v3 Extended Key Usage: 
                TLS Web Client Authentication
            X509v3 Key Usage: 
                Digital Signature
    Signature Algorithm: sha256WithRSAEncryption
         7f:cf:be:65:92:f6:4a:8e:c3:a4:c8:49:c6:03:29:26:f1:d4:
         07:94:ee:fe:71:3e:79:73:4e:db:02:bb:10:ab:c9:9e:14:d5:
         19:1a:7d:5d:b5:92:ba:59:cf:85:5d:09:a7:9d:0c:af:8f:0a:
         69:bd:a9:f7:c5:de:ae:38:bd:e6:50:89:ca:54:cd:98:f9:19:
         a6:b3:51:71:12:2b:e9:5c:80:db:6f:6a:d7:7a:96:50:ec:e1:
         2e:97:5b:20:c7:2f:60:a6:01:f8:2a:47:a9:54:d7:0b:89:89:
         44:01:34:6d:db:21:c3:50:14:ef:20:1a:1c:60:7d:dd:3a:8b:
         8f:6d:2b:3b:0e:51:66:18:0d:a3:63:a5:29:1b:f3:36:db:d8:
         41:86:c3:53:44:57:70:11:11:95:bf:63:41:6a:f3:8f:a4:ba:
         10:45:26:10:9d:63:c9:3d:c2:49:cc:77:bc:f7:09:dd:e3:43:
         2a:19:ec:75:aa:38:a3:11:5d:cb:e1:c1:8f:8f:12:8a:ac:a4:
         43:6c:00:bb:d1:3f:22:d6:68:3c:e1:87:48:bb:72:55:08:89:
         ae:0b:af:3a:03:40:eb:00:ac:9a:b0:ab:b0:78:87:fa:26:5a:
         eb:ba:84:e8:2c:8d:9f:36:b8:8c:f4:b2:0c:e3:18:e6:2d:7c:
         28:f5:bf:62
-----BEGIN CERTIFICATE-----
MIIFLjCCBBagAwIBAgIQcfflYOFZxBj7R2moLbWpPzANBgkqhkiG9w0BAQsFADCB
rzELMAkGA1UEBhMCVVMxEzARBgNVBAgMCkNhbGlmb3JuaWExFjAUBgNVBAcMDVNh
biBGcmFuY2lzY28xIDAeBgNVBAoMF0NvcHlsZWZ0IENlcnRpZmljYXRlIENvMR8w
HQYDVQQLDBZNeSBPcmdhbml6YXRpb25hbCBVbml0MREwDwYDVQQDDAhDaGFuZ2VN
ZTEdMBsGCSqGSIb3DQEJARYObWVAZXhhbXBsZS5uZXQwHhcNMjMxMTEyMTE0NjM1
WhcNMjQxMTExMTE0NjM1WjCBujELMAkGA1UEBhMCVVMxCzAJBgNVBAgMAk9IMRMw
EQYDVQQHDApDaW5jaW5uYXRpMSEwHwYDVQQKDBhVbml2ZXJzaXR5IG9mIENpbmNp
bm5hdGkxKjAoBgNVBAsMIURlcHQuIEVsZWMuIENvbXAuIEVuZy4gQ29tcC4gU2Np
LjEQMA4GA1UEAwwHY2xpZW50NTEoMCYGCSqGSIb3DQEJARYZZnJhbmNvQGdhdXNz
LmVjZWNzLnVjLmVkdTCCASIwDQYJKoZIhvcNAQEBBQADggEPADCCAQoCggEBAMLU
bHiCGo+BWXfvAc2gWsQInfqgu+jc1wEB56rVabWU+K1+qtLfJbqABofJfvjoGSeq
0wcGqiOTqofm3K4wZOa953UMWhsHi8jaenEWFWjSR14vFTnfD/Ve4q4KDch9rgc5
TFjq3/BQGQSuRN5sGImvBDujnxywb1RLKUNw5+O5BBPA73eMXg/NbVLeSCkhCJYe
236UjejOh6+ShuKRI7a6d7vHVn/trJS9qFeLoi/JN9dbcJ26Kd0SJGTs/2TjFMfF
rzsK1BSvdU/B0RzK0EEvZRQ1YoFJ+dHhnVuiszDNpSSX2HrCueEkP8BukeLJWPHL
IqNNfm3dtm7bbfdardMCAwEAAaOCATcwggEzMAkGA1UdEwQCMAAwHQYDVR0OBBYE
FDgC49GfF/M+gVDe3k70vXsi/0XiMIHkBgNVHSMEgdwwgdmAFMRG8pY4VgK4nQkE
UiWRNZdq17HwoYG1pIGyMIGvMQswCQYDVQQGEwJVUzETMBEGA1UECAwKQ2FsaWZv
cm5pYTEWMBQGA1UEBwwNU2FuIEZyYW5jaXNjbzEgMB4GA1UECgwXQ29weWxlZnQg
Q2VydGlmaWNhdGUgQ28xHzAdBgNVBAsMFk15IE9yZ2FuaXphdGlvbmFsIFVuaXQx
ETAPBgNVBAMMCENoYW5nZU1lMR0wGwYJKoZIhvcNAQkBFg5tZUBleGFtcGxlLm5l
dIIJANFaFRzwIJViMBMGA1UdJQQMMAoGCCsGAQUFBwMCMAsGA1UdDwQEAwIHgDAN
BgkqhkiG9w0BAQsFAAOCAQEAf8++ZZL2So7DpMhJxgMpJvHUB5Tu/nE+eXNO2wK7
EKvJnhTVGRp9XbWSulnPhV0Jp50Mr48Kab2p98Xerji95lCJylTNmPkZprNRcRIr
6VyA229q13qWUOzhLpdbIMcvYKYB+CpHqVTXC4mJRAE0bdshw1AU7yAaHGB93TqL
j20rOw5RZhgNo2OlKRvzNtvYQYbDU0RXcBERlb9jQWrzj6S6EEUmEJ1jyT3CScx3
vPcJ3eNDKhnsdao4oxFdy+HBj48SiqykQ2wAu9E/ItZoPOGHSLtyVQiJrguvOgNA
6wCsmrCrsHiH+iZa67qE6CyNnza4jPSyDOMY5i18KPW/Yg==
-----END CERTIFICATE-----
