Certificate:
    Data:
        Version: 3 (0x2)
        Serial Number:
            bc:84:24:c4:1d:f7:82:2d:7c:8b:40:c7:9a:09:a6:cb
    Signature Algorithm: sha256WithRSAEncryption
        Issuer: C=US, ST=California, L=San Francisco, O=Copyleft Certificate Co, OU=My Organizational Unit, CN=ChangeMe/emailAddress=me@example.net
        Validity
            Not Before: Jan 23 18:29:49 2021 GMT
            Not After : Jan 23 18:29:49 2022 GMT
        Subject: C=US, ST=OH, L=Cincinnati, O=University of Cincinnati, OU=Dept. Electrical Eng. and Computer Sci., CN=client108/emailAddress=franco@gauss.ececs.uc.edu
        Subject Public Key Info:
            Public Key Algorithm: rsaEncryption
                Public-Key: (2048 bit)
                Modulus:
                    00:c5:46:91:f9:1a:87:01:04:c3:90:26:da:7a:bb:
                    b8:9c:c4:5d:0f:f2:fb:ee:72:70:7e:c3:70:49:ff:
                    b6:b3:dc:6e:c5:28:6f:6e:7a:fe:29:2c:c6:4d:54:
                    c8:6f:86:28:56:a9:85:e6:3a:3b:ae:7f:be:ce:91:
                    36:2f:95:3a:46:39:1d:73:b0:9d:01:ca:1f:76:9f:
                    30:f9:4e:0f:d3:24:72:45:a7:03:c1:c8:47:9b:e5:
                    16:22:1a:c5:c4:11:9d:09:e9:b6:5b:7a:87:bb:1c:
                    12:17:9b:17:ee:e0:f8:2d:d0:10:80:a8:eb:89:d9:
                    71:85:51:22:99:80:0b:78:6f:36:f7:5a:7d:e0:87:
                    ba:6c:91:60:c2:da:65:65:94:45:1d:95:37:16:19:
                    4a:c2:54:05:55:0c:77:c3:aa:20:ff:99:0d:8d:f9:
                    1f:00:bd:8b:ea:f9:bb:75:12:75:de:b6:4d:c1:e9:
                    79:b3:f8:2e:51:4b:5f:88:6c:08:f4:53:d4:f4:9e:
                    89:32:50:fc:56:a7:6b:af:64:c3:75:ea:3a:4f:e4:
                    11:ce:82:8d:8a:54:14:eb:41:17:e2:58:80:96:dc:
                    cb:73:74:e6:bd:d6:59:11:64:fd:82:c7:bd:be:ff:
                    cf:5a:81:1e:e7:0b:62:ed:40:5f:0b:3c:62:50:71:
                    55:01
                Exponent: 65537 (0x10001)
        X509v3 extensions:
            X509v3 Basic Constraints: 
                CA:FALSE
            X509v3 Subject Key Identifier: 
                48:BB:C6:ED:44:DC:D2:0C:31:6A:25:EC:66:D5:A7:18:1F:A5:DA:D7
            X509v3 Authority Key Identifier: 
                keyid:EF:DC:B6:3D:4B:FD:A7:87:05:C5:22:3D:8B:DC:BF:99:2A:EE:E4:DB
                DirName:/C=US/ST=California/L=San Francisco/O=Copyleft Certificate Co/OU=My Organizational Unit/CN=ChangeMe/emailAddress=me@example.net
                serial:87:1E:1D:DC:6B:8C:66:88

            X509v3 Extended Key Usage: 
                TLS Web Client Authentication
            X509v3 Key Usage: 
                Digital Signature
    Signature Algorithm: sha256WithRSAEncryption
         33:80:10:8a:55:95:3a:76:f4:88:4d:24:63:eb:6c:76:78:fc:
         20:67:68:fe:b5:97:43:a8:9f:1f:1e:8b:74:04:32:28:d0:d3:
         1a:d3:c3:63:d2:bb:7f:34:d9:e2:59:3d:ab:c8:17:69:e8:0a:
         42:e2:b2:a5:c8:fc:8d:e0:b0:64:49:96:fc:e3:ff:80:e5:a4:
         ba:9d:21:18:6b:4f:da:d5:72:fa:a6:ad:5d:3b:15:d6:dc:ba:
         ef:41:3f:eb:4d:0e:bb:33:1c:fc:2e:ee:a7:eb:59:b6:78:d3:
         13:a5:b5:15:97:eb:7d:62:5d:da:64:d7:c2:f3:1a:51:16:67:
         3a:5d:13:ad:94:4b:17:8f:e0:a6:e7:40:91:f3:a7:f9:a1:b2:
         06:9b:90:71:56:6e:d0:4f:20:0b:58:aa:f4:0d:a4:f3:78:8e:
         58:5c:e1:c2:aa:74:57:54:13:4d:65:b5:a5:1f:fd:56:01:9e:
         85:62:6a:30:5c:3e:d0:71:67:1a:0b:38:20:da:9c:fd:e3:d6:
         1b:97:b1:cb:74:a3:8c:4f:9b:ab:00:14:c7:cf:1d:20:93:99:
         8c:b7:32:13:d9:74:9b:b7:46:21:4c:ec:b0:2a:3b:35:e2:6b:
         bc:cc:51:d5:12:4a:f0:41:f1:a8:2c:f9:db:66:db:8f:40:19:
         56:19:c1:71
-----BEGIN CERTIFICATE-----
MIIFNzCCBB+gAwIBAgIRALyEJMQd94ItfItAx5oJpsswDQYJKoZIhvcNAQELBQAw
ga8xCzAJBgNVBAYTAlVTMRMwEQYDVQQIDApDYWxpZm9ybmlhMRYwFAYDVQQHDA1T
YW4gRnJhbmNpc2NvMSAwHgYDVQQKDBdDb3B5bGVmdCBDZXJ0aWZpY2F0ZSBDbzEf
MB0GA1UECwwWTXkgT3JnYW5pemF0aW9uYWwgVW5pdDERMA8GA1UEAwwIQ2hhbmdl
TWUxHTAbBgkqhkiG9w0BCQEWDm1lQGV4YW1wbGUubmV0MB4XDTIxMDEyMzE4Mjk0
OVoXDTIyMDEyMzE4Mjk0OVowgcIxCzAJBgNVBAYTAlVTMQswCQYDVQQIDAJPSDET
MBEGA1UEBwwKQ2luY2lubmF0aTEhMB8GA1UECgwYVW5pdmVyc2l0eSBvZiBDaW5j
aW5uYXRpMTAwLgYDVQQLDCdEZXB0LiBFbGVjdHJpY2FsIEVuZy4gYW5kIENvbXB1
dGVyIFNjaS4xEjAQBgNVBAMMCWNsaWVudDEwODEoMCYGCSqGSIb3DQEJARYZZnJh
bmNvQGdhdXNzLmVjZWNzLnVjLmVkdTCCASIwDQYJKoZIhvcNAQEBBQADggEPADCC
AQoCggEBAMVGkfkahwEEw5Am2nq7uJzEXQ/y++5ycH7DcEn/trPcbsUob256/iks
xk1UyG+GKFapheY6O65/vs6RNi+VOkY5HXOwnQHKH3afMPlOD9MkckWnA8HIR5vl
FiIaxcQRnQnptlt6h7scEhebF+7g+C3QEICo64nZcYVRIpmAC3hvNvdafeCHumyR
YMLaZWWURR2VNxYZSsJUBVUMd8OqIP+ZDY35HwC9i+r5u3USdd62TcHpebP4LlFL
X4hsCPRT1PSeiTJQ/Fana69kw3XqOk/kEc6CjYpUFOtBF+JYgJbcy3N05r3WWRFk
/YLHvb7/z1qBHucLYu1AXws8YlBxVQECAwEAAaOCATcwggEzMAkGA1UdEwQCMAAw
HQYDVR0OBBYEFEi7xu1E3NIMMWol7GbVpxgfpdrXMIHkBgNVHSMEgdwwgdmAFO/c
tj1L/aeHBcUiPYvcv5kq7uTboYG1pIGyMIGvMQswCQYDVQQGEwJVUzETMBEGA1UE
CAwKQ2FsaWZvcm5pYTEWMBQGA1UEBwwNU2FuIEZyYW5jaXNjbzEgMB4GA1UECgwX
Q29weWxlZnQgQ2VydGlmaWNhdGUgQ28xHzAdBgNVBAsMFk15IE9yZ2FuaXphdGlv
bmFsIFVuaXQxETAPBgNVBAMMCENoYW5nZU1lMR0wGwYJKoZIhvcNAQkBFg5tZUBl
eGFtcGxlLm5ldIIJAIceHdxrjGaIMBMGA1UdJQQMMAoGCCsGAQUFBwMCMAsGA1Ud
DwQEAwIHgDANBgkqhkiG9w0BAQsFAAOCAQEAM4AQilWVOnb0iE0kY+tsdnj8IGdo
/rWXQ6ifHx6LdAQyKNDTGtPDY9K7fzTZ4lk9q8gXaegKQuKypcj8jeCwZEmW/OP/
gOWkup0hGGtP2tVy+qatXTsV1ty670E/600OuzMc/C7up+tZtnjTE6W1FZfrfWJd
2mTXwvMaURZnOl0TrZRLF4/gpudAkfOn+aGyBpuQcVZu0E8gC1iq9A2k83iOWFzh
wqp0V1QTTWW1pR/9VgGehWJqMFw+0HFnGgs4INqc/ePWG5exy3SjjE+bqwAUx88d
IJOZjLcyE9l0m7dGIUzssCo7NeJrvMxR1RJK8EHxqCz522bbj0AZVhnBcQ==
-----END CERTIFICATE-----
