Certificate:
    Data:
        Version: 3 (0x2)
        Serial Number:
            df:ca:eb:d4:a8:1c:13:2d:ec:4b:0e:11:77:c9:58:59
    Signature Algorithm: sha256WithRSAEncryption
        Issuer: C=US, ST=California, L=San Francisco, O=Copyleft Certificate Co, OU=My Organizational Unit, CN=ChangeMe/emailAddress=me@example.net
        Validity
            Not Before: Nov 12 11:46:55 2023 GMT
            Not After : Nov 11 11:46:55 2024 GMT
        Subject: C=US, ST=OH, L=Cincinnati, O=University of Cincinnati, OU=Dept. Elec. Comp. Eng. Comp. Sci., CN=client10/emailAddress=franco@gauss.ececs.uc.edu
        Subject Public Key Info:
            Public Key Algorithm: rsaEncryption
                Public-Key: (2048 bit)
                Modulus:
                    00:9b:8f:ef:8a:a2:7b:3c:db:8e:97:6a:9b:fc:e4:
                    8e:e1:bf:57:53:d4:97:6b:c5:4b:68:8e:03:5a:11:
                    30:90:20:ea:43:62:dc:24:3d:3d:24:d5:5f:42:35:
                    4c:91:2a:d8:18:b4:f8:9d:ff:5e:3d:ea:51:65:25:
                    5e:cc:6e:55:f0:98:d3:0c:67:d7:f4:30:23:ca:44:
                    82:bc:1c:b7:10:7d:ee:0b:b9:a9:65:d3:78:98:06:
                    46:4d:bc:15:68:8f:30:36:bb:b5:12:69:17:82:fc:
                    ba:a2:1d:88:a4:74:96:3a:98:a1:9a:f2:bd:a1:e8:
                    8b:c8:b1:77:39:0c:9d:a8:77:7a:6c:c2:5d:3d:33:
                    52:cd:45:f3:b1:cb:26:cf:75:bc:17:86:98:8e:59:
                    6e:b2:da:27:61:c5:17:d4:60:78:0b:8e:6b:2c:63:
                    3a:86:fe:03:a7:a9:b8:e6:a2:a1:73:d6:08:cb:0c:
                    97:31:76:e7:71:eb:82:a4:65:64:25:6d:9c:aa:e0:
                    c6:06:e3:c5:0c:c1:af:fe:b7:f4:c7:c3:7e:c7:9c:
                    06:e5:c7:d6:30:4b:0c:e1:78:7e:29:b0:5c:31:d7:
                    9f:46:c6:09:3b:61:8a:d5:de:14:52:7d:a7:df:97:
                    85:2a:23:be:6f:7c:29:b5:c6:47:af:c8:e5:9c:03:
                    f8:a1
                Exponent: 65537 (0x10001)
        X509v3 extensions:
            X509v3 Basic Constraints: 
                CA:FALSE
            X509v3 Subject Key Identifier: 
                CE:AC:C3:FD:09:5F:A7:F7:9F:31:6E:BE:5B:5E:38:4F:E6:22:31:6E
            X509v3 Authority Key Identifier: 
                keyid:C4:46:F2:96:38:56:02:B8:9D:09:04:52:25:91:35:97:6A:D7:B1:F0
                DirName:/C=US/ST=California/L=San Francisco/O=Copyleft Certificate Co/OU=My Organizational Unit/CN=ChangeMe/emailAddress=me@example.net
                serial:D1:5A:15:1C:F0:20:95:62

            X509v3 Extended Key Usage: 
                TLS Web Client Authentication
            X509v3 Key Usage: 
                Digital Signature
    Signature Algorithm: sha256WithRSAEncryption
         62:60:79:da:eb:07:b0:e4:70:1a:fa:c3:c8:bd:26:2a:10:98:
         ea:44:37:1c:f0:7d:f8:90:e2:0e:22:5a:b3:5c:0c:ae:26:43:
         10:b6:3b:14:e4:03:82:0e:df:dd:fc:3a:3b:6d:5d:58:70:12:
         18:98:94:2a:83:e6:76:3c:22:6e:01:d9:3b:b7:7f:58:c9:d3:
         81:a0:e4:7d:8c:1c:ae:0b:33:4c:51:4c:e7:fb:78:22:4b:3d:
         b3:f2:65:16:4e:2f:eb:a0:2b:cb:8e:1a:01:f8:33:f1:62:02:
         ef:ae:05:4f:f8:f4:1f:ac:14:b4:57:87:c9:51:43:a3:94:c3:
         95:1f:cf:4d:e5:47:3a:29:42:a4:7d:3f:1c:b7:5f:d0:6b:50:
         f8:10:f2:a9:2c:f7:45:f5:f2:cd:cb:ce:c6:8c:51:eb:ce:d9:
         33:01:9e:9a:3f:84:00:8c:e9:e4:12:0d:d7:60:81:56:a6:7a:
         9e:bd:12:09:4a:89:1d:ea:3f:d0:87:12:ef:7a:39:b3:1c:bd:
         d0:8b:bb:48:32:27:e8:c9:33:f0:8f:11:dc:a2:4d:74:f5:42:
         9c:02:99:3c:42:eb:d6:44:77:b8:87:bc:8d:ff:f6:c1:f5:3d:
         8b:83:8a:1b:fb:4f:a5:cd:6d:ba:1d:35:4b:82:f1:bf:4a:d7:
         cb:3a:d4:4a
-----BEGIN CERTIFICATE-----
MIIFMDCCBBigAwIBAgIRAN/K69SoHBMt7EsOEXfJWFkwDQYJKoZIhvcNAQELBQAw
ga8xCzAJBgNVBAYTAlVTMRMwEQYDVQQIDApDYWxpZm9ybmlhMRYwFAYDVQQHDA1T
YW4gRnJhbmNpc2NvMSAwHgYDVQQKDBdDb3B5bGVmdCBDZXJ0aWZpY2F0ZSBDbzEf
MB0GA1UECwwWTXkgT3JnYW5pemF0aW9uYWwgVW5pdDERMA8GA1UEAwwIQ2hhbmdl
TWUxHTAbBgkqhkiG9w0BCQEWDm1lQGV4YW1wbGUubmV0MB4XDTIzMTExMjExNDY1
NVoXDTI0MTExMTExNDY1NVowgbsxCzAJBgNVBAYTAlVTMQswCQYDVQQIDAJPSDET
MBEGA1UEBwwKQ2luY2lubmF0aTEhMB8GA1UECgwYVW5pdmVyc2l0eSBvZiBDaW5j
aW5uYXRpMSowKAYDVQQLDCFEZXB0LiBFbGVjLiBDb21wLiBFbmcuIENvbXAuIFNj
aS4xETAPBgNVBAMMCGNsaWVudDEwMSgwJgYJKoZIhvcNAQkBFhlmcmFuY29AZ2F1
c3MuZWNlY3MudWMuZWR1MIIBIjANBgkqhkiG9w0BAQEFAAOCAQ8AMIIBCgKCAQEA
m4/viqJ7PNuOl2qb/OSO4b9XU9SXa8VLaI4DWhEwkCDqQ2LcJD09JNVfQjVMkSrY
GLT4nf9ePepRZSVezG5V8JjTDGfX9DAjykSCvBy3EH3uC7mpZdN4mAZGTbwVaI8w
Nru1EmkXgvy6oh2IpHSWOpihmvK9oeiLyLF3OQydqHd6bMJdPTNSzUXzscsmz3W8
F4aYjllustonYcUX1GB4C45rLGM6hv4Dp6m45qKhc9YIywyXMXbnceuCpGVkJW2c
quDGBuPFDMGv/rf0x8N+x5wG5cfWMEsM4Xh+KbBcMdefRsYJO2GK1d4UUn2n35eF
KiO+b3wptcZHr8jlnAP4oQIDAQABo4IBNzCCATMwCQYDVR0TBAIwADAdBgNVHQ4E
FgQUzqzD/Qlfp/efMW6+W144T+YiMW4wgeQGA1UdIwSB3DCB2YAUxEbyljhWArid
CQRSJZE1l2rXsfChgbWkgbIwga8xCzAJBgNVBAYTAlVTMRMwEQYDVQQIDApDYWxp
Zm9ybmlhMRYwFAYDVQQHDA1TYW4gRnJhbmNpc2NvMSAwHgYDVQQKDBdDb3B5bGVm
dCBDZXJ0aWZpY2F0ZSBDbzEfMB0GA1UECwwWTXkgT3JnYW5pemF0aW9uYWwgVW5p
dDERMA8GA1UEAwwIQ2hhbmdlTWUxHTAbBgkqhkiG9w0BCQEWDm1lQGV4YW1wbGUu
bmV0ggkA0VoVHPAglWIwEwYDVR0lBAwwCgYIKwYBBQUHAwIwCwYDVR0PBAQDAgeA
MA0GCSqGSIb3DQEBCwUAA4IBAQBiYHna6wew5HAa+sPIvSYqEJjqRDcc8H34kOIO
IlqzXAyuJkMQtjsU5AOCDt/d/Do7bV1YcBIYmJQqg+Z2PCJuAdk7t39YydOBoOR9
jByuCzNMUUzn+3giSz2z8mUWTi/roCvLjhoB+DPxYgLvrgVP+PQfrBS0V4fJUUOj
lMOVH89N5Uc6KUKkfT8ct1/Qa1D4EPKpLPdF9fLNy87GjFHrztkzAZ6aP4QAjOnk
Eg3XYIFWpnqevRIJSokd6j/QhxLvejmzHL3Qi7tIMifoyTPwjxHcok109UKcApk8
QuvWRHe4h7yN//bB9T2Lg4ob+0+lzW26HTVLgvG/StfLOtRK
-----END CERTIFICATE-----
