Certificate:
    Data:
        Version: 3 (0x2)
        Serial Number:
            94:a2:44:8f:2c:93:b5:16:64:17:72:26:c5:76:13:c6
    Signature Algorithm: sha256WithRSAEncryption
        Issuer: C=US, ST=California, L=San Francisco, O=Copyleft Certificate Co, OU=My Organizational Unit, CN=ChangeMe/emailAddress=me@example.net
        Validity
            Not Before: Nov 11 14:49:46 2023 GMT
            Not After : Nov 10 14:49:46 2024 GMT
        Subject: C=US, ST=OH, L=Cincinnati, O=University of Cincinnati ., OU=Dept. Elec. Comp. . Eng. Comp. Sci., CN=client1/emailAddress=franco@gauss.ececs.uc.edu
        Subject Public Key Info:
            Public Key Algorithm: rsaEncryption
                Public-Key: (2048 bit)
                Modulus:
                    00:be:40:a9:39:7c:04:7b:83:09:ad:1c:67:2a:a5:
                    22:94:e4:e2:54:9e:4b:c2:da:3a:2a:a1:b5:fc:3c:
                    80:e3:c3:16:8a:09:9f:b5:a8:a8:ac:66:52:49:ee:
                    52:b7:4f:ed:26:2c:13:90:e1:be:7a:8f:9c:d2:f7:
                    a6:7d:6c:14:d5:4a:68:94:96:17:77:72:af:3c:e1:
                    a5:26:d5:c1:37:ae:e2:a3:30:6a:7d:be:1c:01:3b:
                    55:76:fd:34:cc:c3:97:da:3b:17:33:f4:78:31:8e:
                    ad:f4:2a:f6:57:29:ac:4e:f8:ac:c4:94:1e:3f:4b:
                    6a:7d:38:2c:6d:21:cd:87:9e:06:56:bc:6a:2e:29:
                    0f:55:68:df:fd:8b:fb:f6:48:28:cc:f4:64:99:bc:
                    45:52:ef:4c:e0:d1:cb:cf:a2:6d:64:18:31:05:d2:
                    1d:ba:ed:f6:8e:24:51:d2:61:b3:a7:3d:ee:08:72:
                    11:ba:6a:4c:45:47:20:ec:64:67:51:1a:b8:77:dd:
                    85:59:27:93:7f:1f:d8:8f:93:84:74:05:be:27:cc:
                    bc:30:a0:d5:21:ea:95:87:fc:99:3d:2c:d1:ec:70:
                    24:36:d0:b7:c3:cb:81:5f:76:99:d1:4d:d1:d5:46:
                    26:12:96:3b:7d:09:15:ed:ca:b7:a7:84:90:8a:5c:
                    f6:43
                Exponent: 65537 (0x10001)
        X509v3 extensions:
            X509v3 Basic Constraints: 
                CA:FALSE
            X509v3 Subject Key Identifier: 
                4B:E7:84:0C:B9:A6:3E:71:3A:5A:AF:17:77:99:0D:B5:DB:EF:43:59
            X509v3 Authority Key Identifier: 
                keyid:37:77:FF:9E:80:0A:A0:2D:03:2E:41:2E:A7:9F:2C:08:1D:27:A7:1F
                DirName:/C=US/ST=California/L=San Francisco/O=Copyleft Certificate Co/OU=My Organizational Unit/CN=ChangeMe/emailAddress=me@example.net
                serial:8E:F4:CE:BF:34:CB:64:72

            X509v3 Extended Key Usage: 
                TLS Web Client Authentication
            X509v3 Key Usage: 
                Digital Signature
    Signature Algorithm: sha256WithRSAEncryption
         57:af:c2:d4:89:38:3c:b8:60:fc:a4:31:23:26:c2:ba:63:f1:
         ec:d0:6d:98:e0:5a:a1:42:71:34:ae:bc:fd:d7:b0:bc:b0:be:
         34:35:02:36:37:91:bf:f7:46:c6:8e:56:ae:b8:2c:c2:3f:30:
         a5:7c:00:bf:f0:46:f9:6a:2e:82:f3:39:96:4a:2f:87:69:32:
         bd:ac:7b:8b:9e:87:45:ab:89:5d:91:a4:82:f4:83:11:cb:45:
         e4:86:91:4e:39:1c:33:b2:32:ce:d4:b6:d6:8e:60:ea:58:8d:
         33:20:e6:5f:1a:9c:a7:54:ed:80:ce:80:4c:22:57:4a:03:96:
         2e:91:05:17:31:b8:18:7e:6b:92:0b:a0:23:c5:82:62:4b:17:
         13:5c:c0:a2:81:f4:65:99:45:fa:b8:e3:16:6e:24:dd:43:bb:
         46:3a:12:f5:0f:ac:8c:ce:94:96:42:d5:74:16:54:5a:2d:b6:
         ae:c2:f0:99:61:5d:47:7c:d8:36:db:f6:f7:0a:8e:b1:59:12:
         40:d2:21:e1:93:96:69:0b:6f:85:c9:c8:07:92:65:81:c4:3e:
         6c:67:63:a1:0a:76:59:80:08:f8:b8:36:55:ab:eb:44:db:72:
         c7:3a:45:81:fa:ad:4e:03:6a:06:e4:4d:a4:e1:35:af:c1:80:
         d0:23:08:f0
-----BEGIN CERTIFICATE-----
MIIFMzCCBBugAwIBAgIRAJSiRI8sk7UWZBdyJsV2E8YwDQYJKoZIhvcNAQELBQAw
ga8xCzAJBgNVBAYTAlVTMRMwEQYDVQQIDApDYWxpZm9ybmlhMRYwFAYDVQQHDA1T
YW4gRnJhbmNpc2NvMSAwHgYDVQQKDBdDb3B5bGVmdCBDZXJ0aWZpY2F0ZSBDbzEf
MB0GA1UECwwWTXkgT3JnYW5pemF0aW9uYWwgVW5pdDERMA8GA1UEAwwIQ2hhbmdl
TWUxHTAbBgkqhkiG9w0BCQEWDm1lQGV4YW1wbGUubmV0MB4XDTIzMTExMTE0NDk0
NloXDTI0MTExMDE0NDk0Nlowgb4xCzAJBgNVBAYTAlVTMQswCQYDVQQIDAJPSDET
MBEGA1UEBwwKQ2luY2lubmF0aTEjMCEGA1UECgwaVW5pdmVyc2l0eSBvZiBDaW5j
aW5uYXRpIC4xLDAqBgNVBAsMI0RlcHQuIEVsZWMuIENvbXAuIC4gRW5nLiBDb21w
LiBTY2kuMRAwDgYDVQQDDAdjbGllbnQxMSgwJgYJKoZIhvcNAQkBFhlmcmFuY29A
Z2F1c3MuZWNlY3MudWMuZWR1MIIBIjANBgkqhkiG9w0BAQEFAAOCAQ8AMIIBCgKC
AQEAvkCpOXwEe4MJrRxnKqUilOTiVJ5Lwto6KqG1/DyA48MWigmftaiorGZSSe5S
t0/tJiwTkOG+eo+c0vemfWwU1UpolJYXd3KvPOGlJtXBN67iozBqfb4cATtVdv00
zMOX2jsXM/R4MY6t9Cr2VymsTvisxJQeP0tqfTgsbSHNh54GVrxqLikPVWjf/Yv7
9kgozPRkmbxFUu9M4NHLz6JtZBgxBdIduu32jiRR0mGzpz3uCHIRumpMRUcg7GRn
URq4d92FWSeTfx/Yj5OEdAW+J8y8MKDVIeqVh/yZPSzR7HAkNtC3w8uBX3aZ0U3R
1UYmEpY7fQkV7cq3p4SQilz2QwIDAQABo4IBNzCCATMwCQYDVR0TBAIwADAdBgNV
HQ4EFgQUS+eEDLmmPnE6Wq8Xd5kNtdvvQ1kwgeQGA1UdIwSB3DCB2YAUN3f/noAK
oC0DLkEup58sCB0npx+hgbWkgbIwga8xCzAJBgNVBAYTAlVTMRMwEQYDVQQIDApD
YWxpZm9ybmlhMRYwFAYDVQQHDA1TYW4gRnJhbmNpc2NvMSAwHgYDVQQKDBdDb3B5
bGVmdCBDZXJ0aWZpY2F0ZSBDbzEfMB0GA1UECwwWTXkgT3JnYW5pemF0aW9uYWwg
VW5pdDERMA8GA1UEAwwIQ2hhbmdlTWUxHTAbBgkqhkiG9w0BCQEWDm1lQGV4YW1w
bGUubmV0ggkAjvTOvzTLZHIwEwYDVR0lBAwwCgYIKwYBBQUHAwIwCwYDVR0PBAQD
AgeAMA0GCSqGSIb3DQEBCwUAA4IBAQBXr8LUiTg8uGD8pDEjJsK6Y/Hs0G2Y4Fqh
QnE0rrz917C8sL40NQI2N5G/90bGjlauuCzCPzClfAC/8Eb5ai6C8zmWSi+HaTK9
rHuLnodFq4ldkaSC9IMRy0XkhpFOORwzsjLO1LbWjmDqWI0zIOZfGpynVO2AzoBM
IldKA5YukQUXMbgYfmuSC6AjxYJiSxcTXMCigfRlmUX6uOMWbiTdQ7tGOhL1D6yM
zpSWQtV0FlRaLbauwvCZYV1HfNg22/b3Co6xWRJA0iHhk5ZpC2+FycgHkmWBxD5s
Z2OhCnZZgAj4uDZVq+tE23LHOkWB+q1OA2oG5E2k4TWvwYDQIwjw
-----END CERTIFICATE-----
