Certificate:
    Data:
        Version: 3 (0x2)
        Serial Number:
            26:0d:36:6d:75:da:34:6f:81:cb:d0:43:af:6a:6f:16
    Signature Algorithm: sha256WithRSAEncryption
        Issuer: C=US, ST=California, L=San Francisco, O=Copyleft Certificate Co, OU=My Organizational Unit, CN=ChangeMe/emailAddress=me@example.net
        Validity
            Not Before: Nov 13 11:46:58 2023 GMT
            Not After : Nov 12 11:46:58 2024 GMT
        Subject: C=US, ST=OH, L=Cincinnati, O=University of Cincinnati, OU=Dept. Elec. Comp. Eng. Comp. Sci., CN=client8/emailAddress=franco@gauss.ececs.uc.edu
        Subject Public Key Info:
            Public Key Algorithm: rsaEncryption
                Public-Key: (2048 bit)
                Modulus:
                    00:ae:e4:53:98:65:54:80:ec:ff:b5:ff:22:03:fe:
                    1e:af:9e:81:66:b7:04:56:ab:92:5c:98:62:ef:bd:
                    fa:fb:d7:99:f6:bc:f5:73:83:54:ad:00:15:5c:ea:
                    fd:9a:03:8e:81:c3:16:c5:fb:9b:72:d2:91:ad:1c:
                    b6:42:4a:4f:b6:cc:ca:22:08:a8:d7:17:2c:68:a8:
                    4f:6a:a4:e1:69:2a:bc:6b:6a:bd:0d:f0:0e:f9:0e:
                    a8:7c:25:b9:35:74:d1:76:97:35:17:43:2d:8f:d7:
                    39:61:a3:ae:cf:17:af:1d:c0:3b:13:8e:27:ed:ea:
                    73:20:2d:19:0d:7d:2b:3c:d0:5b:f8:fb:21:08:c4:
                    a8:f8:9a:7f:34:34:cf:28:d7:cc:5e:e6:98:3a:94:
                    1e:1b:77:cf:3e:57:b9:30:70:d1:87:c8:30:17:94:
                    7a:1c:bf:d0:ca:db:29:c7:3a:d5:5f:e3:d9:d4:b8:
                    55:8f:2f:ea:50:60:49:12:7c:4e:c3:4b:02:2b:9c:
                    2c:00:6c:ee:63:b1:9d:bb:c8:1f:ea:1e:32:5a:4e:
                    2a:16:87:91:81:b5:94:a6:bb:a4:a0:66:e9:16:dc:
                    08:3e:fe:01:18:55:1d:8b:b1:37:62:42:d5:f8:46:
                    7a:06:58:4b:44:f6:d0:61:52:e1:31:21:37:06:22:
                    b6:09
                Exponent: 65537 (0x10001)
        X509v3 extensions:
            X509v3 Basic Constraints: 
                CA:FALSE
            X509v3 Subject Key Identifier: 
                FD:8D:1C:F1:FB:81:66:89:AC:B7:DA:7B:E1:F6:2A:F9:C7:6B:06:D3
            X509v3 Authority Key Identifier: 
                keyid:B4:AE:AB:ED:FC:ED:84:AA:AD:77:5D:7C:84:28:1C:CA:CE:AE:2A:44
                DirName:/C=US/ST=California/L=San Francisco/O=Copyleft Certificate Co/OU=My Organizational Unit/CN=ChangeMe/emailAddress=me@example.net
                serial:BD:6C:3B:F4:D3:07:C9:D1

            X509v3 Extended Key Usage: 
                TLS Web Client Authentication
            X509v3 Key Usage: 
                Digital Signature
    Signature Algorithm: sha256WithRSAEncryption
         25:62:23:fe:90:1d:a6:b4:e0:d5:cb:0c:b1:5b:49:40:6c:0c:
         26:77:0d:2d:a3:6b:1d:45:6a:31:6b:cb:5c:78:51:ef:f7:6d:
         bd:f0:68:0c:2a:a7:63:45:7b:5b:50:80:1e:b1:19:41:0d:ac:
         71:ea:44:ef:79:12:38:a5:76:92:41:b2:eb:6b:d4:b7:a2:79:
         70:79:7a:e3:f0:25:3a:e2:3c:63:91:79:78:e8:81:3d:1e:93:
         58:5d:e7:8f:dc:d0:b9:0a:89:c4:a5:4b:03:20:ce:40:e4:51:
         40:49:49:29:48:94:3e:1b:1c:8c:0d:e2:36:20:58:58:09:b9:
         74:67:ce:29:5f:c9:b5:38:1d:33:a8:ef:73:38:0a:a5:51:8a:
         ef:93:e2:89:c0:2b:72:0b:f6:ed:32:0d:06:57:bd:9c:fa:5d:
         71:43:ec:97:90:75:55:5e:23:25:6e:9f:f3:2b:86:a7:37:b5:
         6a:58:ff:bb:4d:e1:ec:8f:1b:a8:3c:f8:25:fa:77:31:21:ff:
         0e:1e:c8:12:99:3b:fd:2c:b4:18:4f:97:43:ad:1c:46:f6:91:
         86:b9:61:cd:1c:e5:b9:22:9d:f3:95:7e:9d:37:5c:fd:35:49:
         7c:ee:1b:7e:3f:0f:2c:d9:23:7c:27:cb:f9:38:4a:f8:c5:59:
         82:a1:ee:55
-----BEGIN CERTIFICATE-----
MIIFLjCCBBagAwIBAgIQJg02bXXaNG+By9BDr2pvFjANBgkqhkiG9w0BAQsFADCB
rzELMAkGA1UEBhMCVVMxEzARBgNVBAgMCkNhbGlmb3JuaWExFjAUBgNVBAcMDVNh
biBGcmFuY2lzY28xIDAeBgNVBAoMF0NvcHlsZWZ0IENlcnRpZmljYXRlIENvMR8w
HQYDVQQLDBZNeSBPcmdhbml6YXRpb25hbCBVbml0MREwDwYDVQQDDAhDaGFuZ2VN
ZTEdMBsGCSqGSIb3DQEJARYObWVAZXhhbXBsZS5uZXQwHhcNMjMxMTEzMTE0NjU4
WhcNMjQxMTEyMTE0NjU4WjCBujELMAkGA1UEBhMCVVMxCzAJBgNVBAgMAk9IMRMw
EQYDVQQHDApDaW5jaW5uYXRpMSEwHwYDVQQKDBhVbml2ZXJzaXR5IG9mIENpbmNp
bm5hdGkxKjAoBgNVBAsMIURlcHQuIEVsZWMuIENvbXAuIEVuZy4gQ29tcC4gU2Np
LjEQMA4GA1UEAwwHY2xpZW50ODEoMCYGCSqGSIb3DQEJARYZZnJhbmNvQGdhdXNz
LmVjZWNzLnVjLmVkdTCCASIwDQYJKoZIhvcNAQEBBQADggEPADCCAQoCggEBAK7k
U5hlVIDs/7X/IgP+Hq+egWa3BFarklyYYu+9+vvXmfa89XODVK0AFVzq/ZoDjoHD
FsX7m3LSka0ctkJKT7bMyiIIqNcXLGioT2qk4WkqvGtqvQ3wDvkOqHwluTV00XaX
NRdDLY/XOWGjrs8Xrx3AOxOOJ+3qcyAtGQ19KzzQW/j7IQjEqPiafzQ0zyjXzF7m
mDqUHht3zz5XuTBw0YfIMBeUehy/0MrbKcc61V/j2dS4VY8v6lBgSRJ8TsNLAiuc
LABs7mOxnbvIH+oeMlpOKhaHkYG1lKa7pKBm6RbcCD7+ARhVHYuxN2JC1fhGegZY
S0T20GFS4TEhNwYitgkCAwEAAaOCATcwggEzMAkGA1UdEwQCMAAwHQYDVR0OBBYE
FP2NHPH7gWaJrLfae+H2KvnHawbTMIHkBgNVHSMEgdwwgdmAFLSuq+387YSqrXdd
fIQoHMrOripEoYG1pIGyMIGvMQswCQYDVQQGEwJVUzETMBEGA1UECAwKQ2FsaWZv
cm5pYTEWMBQGA1UEBwwNU2FuIEZyYW5jaXNjbzEgMB4GA1UECgwXQ29weWxlZnQg
Q2VydGlmaWNhdGUgQ28xHzAdBgNVBAsMFk15IE9yZ2FuaXphdGlvbmFsIFVuaXQx
ETAPBgNVBAMMCENoYW5nZU1lMR0wGwYJKoZIhvcNAQkBFg5tZUBleGFtcGxlLm5l
dIIJAL1sO/TTB8nRMBMGA1UdJQQMMAoGCCsGAQUFBwMCMAsGA1UdDwQEAwIHgDAN
BgkqhkiG9w0BAQsFAAOCAQEAJWIj/pAdprTg1csMsVtJQGwMJncNLaNrHUVqMWvL
XHhR7/dtvfBoDCqnY0V7W1CAHrEZQQ2scepE73kSOKV2kkGy62vUt6J5cHl64/Al
OuI8Y5F5eOiBPR6TWF3nj9zQuQqJxKVLAyDOQORRQElJKUiUPhscjA3iNiBYWAm5
dGfOKV/JtTgdM6jvczgKpVGK75PiicArcgv27TINBle9nPpdcUPsl5B1VV4jJW6f
8yuGpze1alj/u03h7I8bqDz4Jfp3MSH/Dh7IEpk7/Sy0GE+XQ60cRvaRhrlhzRzl
uSKd85V+nTdc/TVJfO4bfj8PLNkjfCfL+ThK+MVZgqHuVQ==
-----END CERTIFICATE-----
