Certificate:
    Data:
        Version: 3 (0x2)
        Serial Number:
            e9:e4:37:32:f2:3c:57:e9:cc:f1:b5:2b:74:9d:3c:05
    Signature Algorithm: sha256WithRSAEncryption
        Issuer: C=US, ST=California, L=San Francisco, O=Copyleft Certificate Co, OU=My Organizational Unit, CN=ChangeMe/emailAddress=me@example.net
        Validity
            Not Before: Jan 23 18:27:38 2021 GMT
            Not After : Jan 23 18:27:38 2022 GMT
        Subject: C=US, ST=OH, L=Cincinnati, O=University of Cincinnati, OU=Dept. Electrical Eng. and Computer Sci., CN=client15/emailAddress=franco@gauss.ececs.uc.edu
        Subject Public Key Info:
            Public Key Algorithm: rsaEncryption
                Public-Key: (2048 bit)
                Modulus:
                    00:98:6f:8d:df:3d:93:a0:fc:98:ee:5d:ee:b6:2a:
                    92:e3:99:09:29:20:c0:94:71:0f:17:98:ab:91:b3:
                    54:c9:c3:21:50:fc:a8:61:44:30:25:84:7f:1f:e5:
                    68:b8:9d:15:78:61:7d:b5:67:7e:fd:3c:fb:02:6a:
                    18:02:20:79:9e:03:af:3d:6b:f1:34:ab:44:c5:c6:
                    e5:54:d2:87:5f:a7:c4:bf:85:47:ac:17:6a:8d:34:
                    00:c5:aa:72:e2:2a:f2:6f:da:94:56:98:fc:a1:1c:
                    ca:bb:88:1b:2c:03:ec:d3:08:ce:ad:8f:99:0c:96:
                    8c:4a:4a:c1:06:97:a8:2a:99:20:79:f2:9e:21:28:
                    42:c5:ba:e8:00:46:d9:f1:0d:2a:7b:2f:fa:88:c6:
                    44:43:4c:7b:69:35:32:b2:12:28:34:28:2d:d8:36:
                    98:17:23:3c:ce:0b:dd:bb:ac:09:17:b5:9c:ee:f7:
                    f0:06:24:8a:4a:f5:f1:5c:48:bc:4b:14:d4:26:e0:
                    29:49:69:eb:43:ff:ee:4a:e8:2a:b6:df:bd:9b:74:
                    b8:d0:6c:6b:7b:c7:5d:8b:41:cd:9e:c8:61:78:0d:
                    9c:47:e3:d9:ae:a1:01:7f:db:a8:a8:38:ff:1d:5d:
                    67:b6:39:fa:2f:41:88:3f:ec:1e:67:59:00:e2:22:
                    f1:67
                Exponent: 65537 (0x10001)
        X509v3 extensions:
            X509v3 Basic Constraints: 
                CA:FALSE
            X509v3 Subject Key Identifier: 
                EA:6F:9B:BE:E9:51:56:44:28:0B:AA:6A:DB:30:25:F1:32:41:E1:8D
            X509v3 Authority Key Identifier: 
                keyid:EF:DC:B6:3D:4B:FD:A7:87:05:C5:22:3D:8B:DC:BF:99:2A:EE:E4:DB
                DirName:/C=US/ST=California/L=San Francisco/O=Copyleft Certificate Co/OU=My Organizational Unit/CN=ChangeMe/emailAddress=me@example.net
                serial:87:1E:1D:DC:6B:8C:66:88

            X509v3 Extended Key Usage: 
                TLS Web Client Authentication
            X509v3 Key Usage: 
                Digital Signature
    Signature Algorithm: sha256WithRSAEncryption
         89:7d:15:ec:64:37:ce:dc:4e:e8:86:06:de:92:17:47:63:ac:
         d8:e4:72:79:ed:e5:81:97:04:7d:40:40:9c:95:5d:76:d9:2b:
         fc:13:cb:dd:71:a4:c5:82:86:62:99:df:be:0f:db:28:e6:50:
         ea:36:cc:99:4d:29:49:03:09:6b:de:30:82:49:d4:e8:ad:ef:
         db:8e:42:19:50:84:a6:e9:6a:b5:df:3a:8d:a6:ce:78:8b:b8:
         92:b4:77:95:14:5a:e7:04:2b:a1:89:30:cf:23:31:66:7e:bf:
         a5:59:cf:06:86:52:2a:65:70:6f:31:67:20:05:ba:87:e5:c8:
         9f:9c:cc:19:07:da:3a:24:a5:69:7d:db:b5:62:73:55:1d:73:
         0c:5d:96:c2:50:12:3d:fc:6d:69:5c:c7:1c:6b:a1:4c:1e:69:
         27:53:36:ef:69:c6:08:d5:b4:9a:bc:0c:52:0a:89:7b:0b:c3:
         8f:a9:bf:a1:83:e3:28:31:37:5a:a2:9a:3e:f1:ca:2f:d8:86:
         62:1f:c2:66:f9:f5:12:21:ed:60:e3:c6:d1:bb:43:8d:cf:32:
         4e:4e:a8:9c:de:2d:83:07:d5:da:37:9f:16:da:2c:c8:03:c4:
         e9:c6:02:af:86:32:fe:da:b8:e2:9a:db:8d:f3:e6:25:64:40:
         db:ef:ca:ee
-----BEGIN CERTIFICATE-----
MIIFNjCCBB6gAwIBAgIRAOnkNzLyPFfpzPG1K3SdPAUwDQYJKoZIhvcNAQELBQAw
ga8xCzAJBgNVBAYTAlVTMRMwEQYDVQQIDApDYWxpZm9ybmlhMRYwFAYDVQQHDA1T
YW4gRnJhbmNpc2NvMSAwHgYDVQQKDBdDb3B5bGVmdCBDZXJ0aWZpY2F0ZSBDbzEf
MB0GA1UECwwWTXkgT3JnYW5pemF0aW9uYWwgVW5pdDERMA8GA1UEAwwIQ2hhbmdl
TWUxHTAbBgkqhkiG9w0BCQEWDm1lQGV4YW1wbGUubmV0MB4XDTIxMDEyMzE4Mjcz
OFoXDTIyMDEyMzE4MjczOFowgcExCzAJBgNVBAYTAlVTMQswCQYDVQQIDAJPSDET
MBEGA1UEBwwKQ2luY2lubmF0aTEhMB8GA1UECgwYVW5pdmVyc2l0eSBvZiBDaW5j
aW5uYXRpMTAwLgYDVQQLDCdEZXB0LiBFbGVjdHJpY2FsIEVuZy4gYW5kIENvbXB1
dGVyIFNjaS4xETAPBgNVBAMMCGNsaWVudDE1MSgwJgYJKoZIhvcNAQkBFhlmcmFu
Y29AZ2F1c3MuZWNlY3MudWMuZWR1MIIBIjANBgkqhkiG9w0BAQEFAAOCAQ8AMIIB
CgKCAQEAmG+N3z2ToPyY7l3utiqS45kJKSDAlHEPF5irkbNUycMhUPyoYUQwJYR/
H+VouJ0VeGF9tWd+/Tz7AmoYAiB5ngOvPWvxNKtExcblVNKHX6fEv4VHrBdqjTQA
xapy4iryb9qUVpj8oRzKu4gbLAPs0wjOrY+ZDJaMSkrBBpeoKpkgefKeIShCxbro
AEbZ8Q0qey/6iMZEQ0x7aTUyshIoNCgt2DaYFyM8zgvdu6wJF7Wc7vfwBiSKSvXx
XEi8SxTUJuApSWnrQ//uSugqtt+9m3S40Gxre8ddi0HNnshheA2cR+PZrqEBf9uo
qDj/HV1ntjn6L0GIP+weZ1kA4iLxZwIDAQABo4IBNzCCATMwCQYDVR0TBAIwADAd
BgNVHQ4EFgQU6m+bvulRVkQoC6pq2zAl8TJB4Y0wgeQGA1UdIwSB3DCB2YAU79y2
PUv9p4cFxSI9i9y/mSru5NuhgbWkgbIwga8xCzAJBgNVBAYTAlVTMRMwEQYDVQQI
DApDYWxpZm9ybmlhMRYwFAYDVQQHDA1TYW4gRnJhbmNpc2NvMSAwHgYDVQQKDBdD
b3B5bGVmdCBDZXJ0aWZpY2F0ZSBDbzEfMB0GA1UECwwWTXkgT3JnYW5pemF0aW9u
YWwgVW5pdDERMA8GA1UEAwwIQ2hhbmdlTWUxHTAbBgkqhkiG9w0BCQEWDm1lQGV4
YW1wbGUubmV0ggkAhx4d3GuMZogwEwYDVR0lBAwwCgYIKwYBBQUHAwIwCwYDVR0P
BAQDAgeAMA0GCSqGSIb3DQEBCwUAA4IBAQCJfRXsZDfO3E7ohgbekhdHY6zY5HJ5
7eWBlwR9QECclV122Sv8E8vdcaTFgoZimd++D9so5lDqNsyZTSlJAwlr3jCCSdTo
re/bjkIZUISm6Wq13zqNps54i7iStHeVFFrnBCuhiTDPIzFmfr+lWc8GhlIqZXBv
MWcgBbqH5cifnMwZB9o6JKVpfdu1YnNVHXMMXZbCUBI9/G1pXMcca6FMHmknUzbv
acYI1bSavAxSCol7C8OPqb+hg+MoMTdaopo+8cov2IZiH8Jm+fUSIe1g48bRu0ON
zzJOTqic3i2DB9XaN58W2izIA8TpxgKvhjL+2rjimtuN8+YlZEDb78ru
-----END CERTIFICATE-----
