Certificate:
    Data:
        Version: 3 (0x2)
        Serial Number:
            23:ef:6e:7e:ec:0a:4b:3d:c7:07:bb:3e:9c:f0:12:bb
    Signature Algorithm: sha256WithRSAEncryption
        Issuer: C=US, ST=California, L=San Francisco, O=Copyleft Certificate Co, OU=My Organizational Unit, CN=ChangeMe/emailAddress=me@example.net
        Validity
            Not Before: Nov 11 14:50:30 2023 GMT
            Not After : Nov 10 14:50:30 2024 GMT
        Subject: C=US, ST=OH, L=Cincinnati, O=University of Cincinnati ., OU=Dept. Elec. Comp. . Eng. Comp. Sci., CN=client12/emailAddress=franco@gauss.ececs.uc.edu
        Subject Public Key Info:
            Public Key Algorithm: rsaEncryption
                Public-Key: (2048 bit)
                Modulus:
                    00:e1:bc:2c:e1:1f:a5:72:f0:d8:98:52:cd:39:d1:
                    97:d5:f7:80:54:0c:25:8b:99:2f:aa:c7:cf:9b:e3:
                    34:36:8b:cd:95:9b:71:e3:f8:4f:01:b5:ad:5c:a6:
                    43:05:ae:b6:93:77:47:be:91:43:4b:ec:6a:0c:5d:
                    00:0d:7b:29:b6:30:f6:67:81:37:9e:38:c3:d7:ef:
                    82:16:16:9c:26:ee:01:c0:c2:86:4b:52:7f:c7:05:
                    42:61:cd:65:b1:79:96:25:dd:c9:3e:4e:f9:a8:63:
                    d2:62:79:c1:c8:5a:7c:3e:b2:fe:77:93:6f:33:f1:
                    a1:63:ad:a0:79:45:e3:e4:a5:a0:cc:d3:99:48:68:
                    a0:a3:01:04:7d:ba:27:c6:b3:63:00:3d:af:1b:d0:
                    40:7c:89:4c:24:1d:4b:36:b2:1c:fb:4e:fd:19:af:
                    cc:55:c9:02:02:d0:13:30:76:07:c3:8b:16:9c:2d:
                    12:af:39:2c:89:39:f3:2b:de:03:db:cf:5b:69:54:
                    da:ea:a7:ca:4d:72:f0:31:91:b5:4d:f3:58:ba:f9:
                    ed:a3:ed:24:5d:b8:6e:95:55:0c:af:19:45:d3:84:
                    4f:0c:6a:1f:39:92:47:9c:5a:8b:32:fb:76:cc:04:
                    2a:81:81:36:43:f2:05:c9:44:92:e6:22:14:c2:2b:
                    7c:f1
                Exponent: 65537 (0x10001)
        X509v3 extensions:
            X509v3 Basic Constraints: 
                CA:FALSE
            X509v3 Subject Key Identifier: 
                39:6A:FF:F6:9E:B6:DC:59:7C:DF:29:76:68:80:08:D5:6C:0D:4E:AD
            X509v3 Authority Key Identifier: 
                keyid:37:77:FF:9E:80:0A:A0:2D:03:2E:41:2E:A7:9F:2C:08:1D:27:A7:1F
                DirName:/C=US/ST=California/L=San Francisco/O=Copyleft Certificate Co/OU=My Organizational Unit/CN=ChangeMe/emailAddress=me@example.net
                serial:8E:F4:CE:BF:34:CB:64:72

            X509v3 Extended Key Usage: 
                TLS Web Client Authentication
            X509v3 Key Usage: 
                Digital Signature
    Signature Algorithm: sha256WithRSAEncryption
         5f:d4:9c:cc:50:8f:64:f5:6c:5b:fb:ea:bc:b1:8e:e7:79:9f:
         01:4d:cb:af:66:4f:fa:6d:50:30:51:0f:7a:80:a1:96:c7:c6:
         ce:41:6e:10:03:23:91:ba:c0:d1:85:98:94:b8:9a:2a:11:ee:
         87:b5:df:e9:68:45:af:01:7b:26:5c:9c:0f:1a:78:5c:bf:c0:
         b8:d2:be:dd:7c:78:cd:31:fd:fb:5c:20:03:85:da:11:cb:00:
         65:91:eb:76:e1:69:92:f0:e2:b4:0f:d2:12:5a:12:c1:31:38:
         97:69:4c:c3:55:a4:e0:27:68:fe:eb:f3:3f:fd:ac:6d:65:2e:
         bc:bc:af:1e:a4:46:09:ab:1b:ee:f2:3b:b9:47:19:81:cb:8b:
         5d:c3:d1:09:29:44:59:bc:e6:3e:f2:96:b6:76:0f:5f:5e:07:
         1d:1e:a0:de:b3:93:15:fe:9c:7b:0b:83:65:71:bb:ac:4d:21:
         01:37:bb:0e:d0:6c:c9:75:e8:37:8a:9d:17:c7:63:b2:7c:f2:
         d0:2c:8e:45:31:84:fd:5b:1f:2e:aa:a6:fd:8a:80:5b:a1:77:
         8a:b2:81:5e:c7:43:5a:f9:9b:a0:4f:59:a2:d8:1c:80:5b:a5:
         ca:42:c0:b5:9e:7a:9e:90:8b:82:9d:a2:93:b1:dd:14:ae:01:
         75:1f:6f:e6
-----BEGIN CERTIFICATE-----
MIIFMzCCBBugAwIBAgIQI+9ufuwKSz3HB7s+nPASuzANBgkqhkiG9w0BAQsFADCB
rzELMAkGA1UEBhMCVVMxEzARBgNVBAgMCkNhbGlmb3JuaWExFjAUBgNVBAcMDVNh
biBGcmFuY2lzY28xIDAeBgNVBAoMF0NvcHlsZWZ0IENlcnRpZmljYXRlIENvMR8w
HQYDVQQLDBZNeSBPcmdhbml6YXRpb25hbCBVbml0MREwDwYDVQQDDAhDaGFuZ2VN
ZTEdMBsGCSqGSIb3DQEJARYObWVAZXhhbXBsZS5uZXQwHhcNMjMxMTExMTQ1MDMw
WhcNMjQxMTEwMTQ1MDMwWjCBvzELMAkGA1UEBhMCVVMxCzAJBgNVBAgMAk9IMRMw
EQYDVQQHDApDaW5jaW5uYXRpMSMwIQYDVQQKDBpVbml2ZXJzaXR5IG9mIENpbmNp
bm5hdGkgLjEsMCoGA1UECwwjRGVwdC4gRWxlYy4gQ29tcC4gLiBFbmcuIENvbXAu
IFNjaS4xETAPBgNVBAMMCGNsaWVudDEyMSgwJgYJKoZIhvcNAQkBFhlmcmFuY29A
Z2F1c3MuZWNlY3MudWMuZWR1MIIBIjANBgkqhkiG9w0BAQEFAAOCAQ8AMIIBCgKC
AQEA4bws4R+lcvDYmFLNOdGX1feAVAwli5kvqsfPm+M0NovNlZtx4/hPAbWtXKZD
Ba62k3dHvpFDS+xqDF0ADXsptjD2Z4E3njjD1++CFhacJu4BwMKGS1J/xwVCYc1l
sXmWJd3JPk75qGPSYnnByFp8PrL+d5NvM/GhY62geUXj5KWgzNOZSGigowEEfbon
xrNjAD2vG9BAfIlMJB1LNrIc+079Ga/MVckCAtATMHYHw4sWnC0SrzksiTnzK94D
289baVTa6qfKTXLwMZG1TfNYuvnto+0kXbhulVUMrxlF04RPDGofOZJHnFqLMvt2
zAQqgYE2Q/IFyUSS5iIUwit88QIDAQABo4IBNzCCATMwCQYDVR0TBAIwADAdBgNV
HQ4EFgQUOWr/9p623Fl83yl2aIAI1WwNTq0wgeQGA1UdIwSB3DCB2YAUN3f/noAK
oC0DLkEup58sCB0npx+hgbWkgbIwga8xCzAJBgNVBAYTAlVTMRMwEQYDVQQIDApD
YWxpZm9ybmlhMRYwFAYDVQQHDA1TYW4gRnJhbmNpc2NvMSAwHgYDVQQKDBdDb3B5
bGVmdCBDZXJ0aWZpY2F0ZSBDbzEfMB0GA1UECwwWTXkgT3JnYW5pemF0aW9uYWwg
VW5pdDERMA8GA1UEAwwIQ2hhbmdlTWUxHTAbBgkqhkiG9w0BCQEWDm1lQGV4YW1w
bGUubmV0ggkAjvTOvzTLZHIwEwYDVR0lBAwwCgYIKwYBBQUHAwIwCwYDVR0PBAQD
AgeAMA0GCSqGSIb3DQEBCwUAA4IBAQBf1JzMUI9k9Wxb++q8sY7neZ8BTcuvZk/6
bVAwUQ96gKGWx8bOQW4QAyORusDRhZiUuJoqEe6Htd/paEWvAXsmXJwPGnhcv8C4
0r7dfHjNMf37XCADhdoRywBlket24WmS8OK0D9ISWhLBMTiXaUzDVaTgJ2j+6/M/
/axtZS68vK8epEYJqxvu8ju5RxmBy4tdw9EJKURZvOY+8pa2dg9fXgcdHqDes5MV
/px7C4NlcbusTSEBN7sO0GzJdeg3ip0Xx2OyfPLQLI5FMYT9Wx8uqqb9ioBboXeK
soFex0Na+ZugT1mi2ByAW6XKQsC1nnqekIuCnaKTsd0UrgF1H2/m
-----END CERTIFICATE-----
