Certificate:
    Data:
        Version: 3 (0x2)
        Serial Number:
            3b:d1:80:71:cc:6b:d3:fe:68:dd:52:82:a8:c5:b5:5b
    Signature Algorithm: sha256WithRSAEncryption
        Issuer: C=US, ST=California, L=San Francisco, O=Copyleft Certificate Co, OU=My Organizational Unit, CN=ChangeMe/emailAddress=me@example.net
        Validity
            Not Before: Jan 23 18:27:36 2021 GMT
            Not After : Jan 23 18:27:36 2022 GMT
        Subject: C=US, ST=OH, L=Cincinnati, O=University of Cincinnati, OU=Dept. Electrical Eng. and Computer Sci., CN=client14/emailAddress=franco@gauss.ececs.uc.edu
        Subject Public Key Info:
            Public Key Algorithm: rsaEncryption
                Public-Key: (2048 bit)
                Modulus:
                    00:b5:22:34:cc:89:9d:af:34:f8:4e:38:f3:a0:d0:
                    81:5a:c5:ab:a1:a2:ed:14:58:15:50:0b:55:c0:af:
                    04:b7:1d:51:3e:49:31:6f:de:92:0a:d3:20:a5:03:
                    e3:50:d1:a2:21:60:43:fa:61:6f:fb:c9:0b:e0:21:
                    48:db:b0:50:72:cc:f8:13:8c:ec:1c:4e:bb:89:ce:
                    66:08:25:8d:29:02:a0:7a:2e:71:8b:04:c9:3d:5b:
                    1c:0a:a5:99:c6:4a:d8:65:e5:db:6f:39:fc:6e:4d:
                    6b:c9:cd:9b:49:87:67:5c:e9:d3:f1:17:77:51:62:
                    ec:5e:d6:db:74:df:81:be:30:3a:6a:96:68:1d:e2:
                    74:e1:d8:71:c0:3c:37:4d:83:e6:24:80:07:38:4d:
                    48:54:25:60:25:e8:9b:65:82:2b:82:42:e0:4d:ce:
                    99:6e:d8:aa:49:0d:82:55:a5:b6:a6:5d:95:3b:a0:
                    5e:5c:39:9c:09:4f:22:a2:23:a1:7b:b4:15:68:52:
                    7d:f2:88:27:18:b5:f6:ef:8c:e2:5f:1e:6f:d1:10:
                    8f:6c:c3:a4:f1:cf:04:c7:25:4f:0d:f1:0c:67:fe:
                    33:24:04:32:66:26:ef:8a:1c:ec:ef:71:20:7b:c0:
                    a7:75:8f:3d:a1:ef:90:33:2f:b3:35:87:41:2d:78:
                    72:99
                Exponent: 65537 (0x10001)
        X509v3 extensions:
            X509v3 Basic Constraints: 
                CA:FALSE
            X509v3 Subject Key Identifier: 
                73:B5:01:B2:BD:FC:90:6A:0D:91:63:FA:5D:16:5B:74:8F:1F:E2:70
            X509v3 Authority Key Identifier: 
                keyid:EF:DC:B6:3D:4B:FD:A7:87:05:C5:22:3D:8B:DC:BF:99:2A:EE:E4:DB
                DirName:/C=US/ST=California/L=San Francisco/O=Copyleft Certificate Co/OU=My Organizational Unit/CN=ChangeMe/emailAddress=me@example.net
                serial:87:1E:1D:DC:6B:8C:66:88

            X509v3 Extended Key Usage: 
                TLS Web Client Authentication
            X509v3 Key Usage: 
                Digital Signature
    Signature Algorithm: sha256WithRSAEncryption
         19:1b:4f:c0:dc:ac:f3:f9:99:9f:38:9f:56:f8:77:3f:83:dd:
         f9:12:10:c2:c0:cf:07:1a:31:6d:48:fb:31:70:a3:b9:5a:86:
         1b:5d:0b:31:92:87:10:fb:89:5b:cc:d2:26:6c:74:0f:73:6c:
         91:99:bb:0d:44:7e:30:aa:b5:74:2c:34:b9:6d:73:75:b4:a5:
         0d:d7:77:8c:ba:35:65:36:85:a4:59:9e:72:a4:5e:83:56:98:
         06:4d:3f:cd:c5:08:ee:15:92:a9:22:5e:4b:8d:ba:43:83:e3:
         56:9e:53:c9:c3:9e:af:90:50:c8:00:37:d8:98:7d:ac:26:94:
         5a:dc:10:f9:4f:7a:69:d0:5b:0c:a6:41:fd:72:14:98:95:4d:
         30:06:ff:e1:1c:ab:27:f4:e8:bd:ec:5c:85:11:0a:a6:a8:02:
         e8:34:2c:11:91:f1:5b:c1:7c:43:85:1e:c6:59:12:0c:01:dd:
         de:5f:8f:6e:10:b9:31:cf:eb:9c:8d:43:88:ad:f9:64:de:49:
         3c:23:e4:90:7b:e6:f0:ba:22:e1:e7:f0:fa:4e:a9:9d:b5:7c:
         20:d7:5d:c3:0b:f3:81:9b:c8:72:37:d8:7f:29:e9:59:5a:4c:
         9d:d5:6a:6c:5a:c3:fb:a2:48:25:f2:2b:17:24:db:f8:c6:49:
         05:c4:e6:87
-----BEGIN CERTIFICATE-----
MIIFNTCCBB2gAwIBAgIQO9GAccxr0/5o3VKCqMW1WzANBgkqhkiG9w0BAQsFADCB
rzELMAkGA1UEBhMCVVMxEzARBgNVBAgMCkNhbGlmb3JuaWExFjAUBgNVBAcMDVNh
biBGcmFuY2lzY28xIDAeBgNVBAoMF0NvcHlsZWZ0IENlcnRpZmljYXRlIENvMR8w
HQYDVQQLDBZNeSBPcmdhbml6YXRpb25hbCBVbml0MREwDwYDVQQDDAhDaGFuZ2VN
ZTEdMBsGCSqGSIb3DQEJARYObWVAZXhhbXBsZS5uZXQwHhcNMjEwMTIzMTgyNzM2
WhcNMjIwMTIzMTgyNzM2WjCBwTELMAkGA1UEBhMCVVMxCzAJBgNVBAgMAk9IMRMw
EQYDVQQHDApDaW5jaW5uYXRpMSEwHwYDVQQKDBhVbml2ZXJzaXR5IG9mIENpbmNp
bm5hdGkxMDAuBgNVBAsMJ0RlcHQuIEVsZWN0cmljYWwgRW5nLiBhbmQgQ29tcHV0
ZXIgU2NpLjERMA8GA1UEAwwIY2xpZW50MTQxKDAmBgkqhkiG9w0BCQEWGWZyYW5j
b0BnYXVzcy5lY2Vjcy51Yy5lZHUwggEiMA0GCSqGSIb3DQEBAQUAA4IBDwAwggEK
AoIBAQC1IjTMiZ2vNPhOOPOg0IFaxauhou0UWBVQC1XArwS3HVE+STFv3pIK0yCl
A+NQ0aIhYEP6YW/7yQvgIUjbsFByzPgTjOwcTruJzmYIJY0pAqB6LnGLBMk9WxwK
pZnGSthl5dtvOfxuTWvJzZtJh2dc6dPxF3dRYuxe1tt034G+MDpqlmgd4nTh2HHA
PDdNg+YkgAc4TUhUJWAl6JtlgiuCQuBNzplu2KpJDYJVpbamXZU7oF5cOZwJTyKi
I6F7tBVoUn3yiCcYtfbvjOJfHm/REI9sw6TxzwTHJU8N8Qxn/jMkBDJmJu+KHOzv
cSB7wKd1jz2h75AzL7M1h0EteHKZAgMBAAGjggE3MIIBMzAJBgNVHRMEAjAAMB0G
A1UdDgQWBBRztQGyvfyQag2RY/pdFlt0jx/icDCB5AYDVR0jBIHcMIHZgBTv3LY9
S/2nhwXFIj2L3L+ZKu7k26GBtaSBsjCBrzELMAkGA1UEBhMCVVMxEzARBgNVBAgM
CkNhbGlmb3JuaWExFjAUBgNVBAcMDVNhbiBGcmFuY2lzY28xIDAeBgNVBAoMF0Nv
cHlsZWZ0IENlcnRpZmljYXRlIENvMR8wHQYDVQQLDBZNeSBPcmdhbml6YXRpb25h
bCBVbml0MREwDwYDVQQDDAhDaGFuZ2VNZTEdMBsGCSqGSIb3DQEJARYObWVAZXhh
bXBsZS5uZXSCCQCHHh3ca4xmiDATBgNVHSUEDDAKBggrBgEFBQcDAjALBgNVHQ8E
BAMCB4AwDQYJKoZIhvcNAQELBQADggEBABkbT8DcrPP5mZ84n1b4dz+D3fkSEMLA
zwcaMW1I+zFwo7lahhtdCzGShxD7iVvM0iZsdA9zbJGZuw1EfjCqtXQsNLltc3W0
pQ3Xd4y6NWU2haRZnnKkXoNWmAZNP83FCO4VkqkiXkuNukOD41aeU8nDnq+QUMgA
N9iYfawmlFrcEPlPemnQWwymQf1yFJiVTTAG/+Ecqyf06L3sXIURCqaoAug0LBGR
8VvBfEOFHsZZEgwB3d5fj24QuTHP65yNQ4it+WTeSTwj5JB75vC6IuHn8PpOqZ21
fCDXXcML84GbyHI32H8p6VlaTJ3Vamxaw/uiSCXyKxck2/jGSQXE5oc=
-----END CERTIFICATE-----
