Certificate:
    Data:
        Version: 3 (0x2)
        Serial Number:
            cd:2c:f1:4b:8f:69:75:f5:33:4b:9a:da:af:7b:ae:40
    Signature Algorithm: sha256WithRSAEncryption
        Issuer: C=US, ST=California, L=San Francisco, O=Copyleft Certificate Co, OU=My Organizational Unit, CN=ChangeMe/emailAddress=me@example.net
        Validity
            Not Before: Nov 13 11:47:34 2023 GMT
            Not After : Nov 12 11:47:34 2024 GMT
        Subject: C=US, ST=OH, L=Cincinnati, O=University of Cincinnati, OU=Dept. Elec. Comp. Eng. Comp. Sci., CN=client17/emailAddress=franco@gauss.ececs.uc.edu
        Subject Public Key Info:
            Public Key Algorithm: rsaEncryption
                Public-Key: (2048 bit)
                Modulus:
                    00:cc:4f:d6:da:12:3e:c3:92:ec:7e:d1:9f:fd:13:
                    4f:05:7e:3b:13:64:bd:2c:54:96:e5:b0:bc:9a:58:
                    8c:b7:3e:65:08:12:b1:d4:02:8b:9a:a2:8f:91:c1:
                    d6:73:67:ab:c3:cb:22:a1:1a:79:5b:1e:07:86:89:
                    d8:a9:22:c1:61:1e:3e:7c:e2:5c:1b:51:8a:f0:57:
                    81:b5:12:9f:a9:56:95:5f:b4:0c:c8:34:e6:61:6a:
                    37:bc:db:04:53:b7:6f:ea:cf:9c:4d:9a:ff:d9:de:
                    49:c5:33:08:00:f9:ec:e6:64:2c:35:37:3c:97:01:
                    1d:b1:5e:54:c1:60:e0:8c:1c:23:e9:b6:11:7d:c9:
                    6c:df:25:09:88:aa:51:78:02:75:e7:62:48:55:41:
                    77:6c:83:f5:df:a4:6c:91:8a:f0:61:0f:a2:02:ed:
                    f2:17:df:a4:57:15:79:00:94:94:3b:36:b3:2d:2d:
                    3b:58:ce:85:cc:99:81:8a:a6:b8:1a:db:81:5a:83:
                    e6:22:c8:80:fa:17:20:e7:09:2d:2c:c4:87:43:53:
                    88:a8:45:6b:3b:6b:fe:32:80:61:dc:c2:3b:f1:e7:
                    fc:de:19:ad:90:58:50:40:d0:a5:cb:ee:7c:95:65:
                    c8:d5:03:af:af:f3:97:11:d9:04:62:80:41:d3:01:
                    0d:b7
                Exponent: 65537 (0x10001)
        X509v3 extensions:
            X509v3 Basic Constraints: 
                CA:FALSE
            X509v3 Subject Key Identifier: 
                83:06:58:AF:07:2F:EE:A2:89:CC:0D:C9:4D:2F:71:24:76:E9:2A:D0
            X509v3 Authority Key Identifier: 
                keyid:B4:AE:AB:ED:FC:ED:84:AA:AD:77:5D:7C:84:28:1C:CA:CE:AE:2A:44
                DirName:/C=US/ST=California/L=San Francisco/O=Copyleft Certificate Co/OU=My Organizational Unit/CN=ChangeMe/emailAddress=me@example.net
                serial:BD:6C:3B:F4:D3:07:C9:D1

            X509v3 Extended Key Usage: 
                TLS Web Client Authentication
            X509v3 Key Usage: 
                Digital Signature
    Signature Algorithm: sha256WithRSAEncryption
         12:7b:eb:fb:c2:02:11:10:03:85:f6:aa:68:5a:8d:93:17:21:
         4c:33:bd:aa:74:5d:05:2f:f1:59:1a:eb:0b:85:46:44:e8:a5:
         dd:44:c7:3b:a6:6b:2b:59:3f:2f:3f:d1:10:7b:04:52:3d:1c:
         ef:43:ee:d5:78:30:24:8f:01:31:d3:76:5c:3d:42:34:19:3c:
         9d:5e:15:43:12:63:5f:17:f3:7d:1f:fd:bc:a1:1f:ed:55:fe:
         47:11:1a:fc:e4:96:fa:23:14:2a:7a:0d:26:a8:8a:b4:d5:d6:
         10:46:b7:12:4d:29:b1:fc:a3:c1:34:c1:74:2a:82:98:49:67:
         92:87:75:c7:4f:08:73:62:cf:cb:ea:be:55:f0:06:0e:bf:8e:
         01:68:dd:f4:7c:f9:e1:18:a2:26:37:33:27:bd:e7:92:5b:aa:
         04:16:e9:ca:b3:ec:7d:05:c6:83:a3:67:b0:be:84:0d:df:13:
         93:74:5f:68:70:e2:ba:08:ca:47:a0:32:4b:3d:5c:a6:f7:50:
         f0:c1:7b:21:a0:6f:5c:0a:f9:d5:04:9e:d2:bb:df:7f:ed:7e:
         9b:83:66:00:a3:40:e0:9f:5a:e9:5e:ca:f3:44:8f:f5:e0:e9:
         e6:9e:1c:e0:23:68:53:81:ee:9e:f6:49:6f:98:88:0f:32:61:
         49:bb:ec:c5
-----BEGIN CERTIFICATE-----
MIIFMDCCBBigAwIBAgIRAM0s8UuPaXX1M0ua2q97rkAwDQYJKoZIhvcNAQELBQAw
ga8xCzAJBgNVBAYTAlVTMRMwEQYDVQQIDApDYWxpZm9ybmlhMRYwFAYDVQQHDA1T
YW4gRnJhbmNpc2NvMSAwHgYDVQQKDBdDb3B5bGVmdCBDZXJ0aWZpY2F0ZSBDbzEf
MB0GA1UECwwWTXkgT3JnYW5pemF0aW9uYWwgVW5pdDERMA8GA1UEAwwIQ2hhbmdl
TWUxHTAbBgkqhkiG9w0BCQEWDm1lQGV4YW1wbGUubmV0MB4XDTIzMTExMzExNDcz
NFoXDTI0MTExMjExNDczNFowgbsxCzAJBgNVBAYTAlVTMQswCQYDVQQIDAJPSDET
MBEGA1UEBwwKQ2luY2lubmF0aTEhMB8GA1UECgwYVW5pdmVyc2l0eSBvZiBDaW5j
aW5uYXRpMSowKAYDVQQLDCFEZXB0LiBFbGVjLiBDb21wLiBFbmcuIENvbXAuIFNj
aS4xETAPBgNVBAMMCGNsaWVudDE3MSgwJgYJKoZIhvcNAQkBFhlmcmFuY29AZ2F1
c3MuZWNlY3MudWMuZWR1MIIBIjANBgkqhkiG9w0BAQEFAAOCAQ8AMIIBCgKCAQEA
zE/W2hI+w5LsftGf/RNPBX47E2S9LFSW5bC8mliMtz5lCBKx1AKLmqKPkcHWc2er
w8sioRp5Wx4HhonYqSLBYR4+fOJcG1GK8FeBtRKfqVaVX7QMyDTmYWo3vNsEU7dv
6s+cTZr/2d5JxTMIAPns5mQsNTc8lwEdsV5UwWDgjBwj6bYRfcls3yUJiKpReAJ1
52JIVUF3bIP136RskYrwYQ+iAu3yF9+kVxV5AJSUOzazLS07WM6FzJmBiqa4GtuB
WoPmIsiA+hcg5wktLMSHQ1OIqEVrO2v+MoBh3MI78ef83hmtkFhQQNCly+58lWXI
1QOvr/OXEdkEYoBB0wENtwIDAQABo4IBNzCCATMwCQYDVR0TBAIwADAdBgNVHQ4E
FgQUgwZYrwcv7qKJzA3JTS9xJHbpKtAwgeQGA1UdIwSB3DCB2YAUtK6r7fzthKqt
d118hCgcys6uKkShgbWkgbIwga8xCzAJBgNVBAYTAlVTMRMwEQYDVQQIDApDYWxp
Zm9ybmlhMRYwFAYDVQQHDA1TYW4gRnJhbmNpc2NvMSAwHgYDVQQKDBdDb3B5bGVm
dCBDZXJ0aWZpY2F0ZSBDbzEfMB0GA1UECwwWTXkgT3JnYW5pemF0aW9uYWwgVW5p
dDERMA8GA1UEAwwIQ2hhbmdlTWUxHTAbBgkqhkiG9w0BCQEWDm1lQGV4YW1wbGUu
bmV0ggkAvWw79NMHydEwEwYDVR0lBAwwCgYIKwYBBQUHAwIwCwYDVR0PBAQDAgeA
MA0GCSqGSIb3DQEBCwUAA4IBAQASe+v7wgIREAOF9qpoWo2TFyFMM72qdF0FL/FZ
GusLhUZE6KXdRMc7pmsrWT8vP9EQewRSPRzvQ+7VeDAkjwEx03ZcPUI0GTydXhVD
EmNfF/N9H/28oR/tVf5HERr85Jb6IxQqeg0mqIq01dYQRrcSTSmx/KPBNMF0KoKY
SWeSh3XHTwhzYs/L6r5V8AYOv44BaN30fPnhGKImNzMnveeSW6oEFunKs+x9BcaD
o2ewvoQN3xOTdF9ocOK6CMpHoDJLPVym91DwwXshoG9cCvnVBJ7Su99/7X6bg2YA
o0Dgn1rpXsrzRI/14OnmnhzgI2hTge6e9klvmIgPMmFJu+zF
-----END CERTIFICATE-----
