Certificate:
    Data:
        Version: 3 (0x2)
        Serial Number:
            b9:8d:fa:2c:30:80:f7:11:a6:11:8c:ec:1c:d6:0e:a5
    Signature Algorithm: sha256WithRSAEncryption
        Issuer: C=US, ST=California, L=San Francisco, O=Copyleft Certificate Co, OU=My Organizational Unit, CN=ChangeMe/emailAddress=me@example.net
        Validity
            Not Before: Nov 13 11:49:46 2023 GMT
            Not After : Nov 12 11:49:46 2024 GMT
        Subject: C=US, ST=OH, L=Cincinnati, O=University of Cincinnati, OU=Dept. Elec. Comp. Eng. Comp. Sci., CN=client50/emailAddress=franco@gauss.ececs.uc.edu
        Subject Public Key Info:
            Public Key Algorithm: rsaEncryption
                Public-Key: (2048 bit)
                Modulus:
                    00:bc:e4:7e:ba:a2:4d:9b:94:f9:27:ed:cf:8a:bd:
                    a0:ae:95:66:7c:fe:b6:28:13:c5:48:bb:3b:46:fe:
                    64:73:49:1f:92:bd:9a:c7:b3:e9:06:ab:1a:3b:b4:
                    60:02:24:41:4b:24:e6:31:da:c0:81:61:1c:e4:d0:
                    26:ae:74:ec:89:2c:74:aa:f8:4b:4f:f8:20:0f:5f:
                    2a:7e:a2:0d:43:43:10:e4:8b:3d:aa:bc:3e:66:82:
                    cf:ea:7d:15:e7:df:7c:63:dc:c9:83:7c:1c:00:ec:
                    33:4d:39:82:bd:d6:a1:27:61:0a:c8:0a:12:a8:75:
                    7a:8f:2f:b7:51:5b:a7:fe:78:25:a8:ba:2c:9d:e9:
                    bb:4e:d8:e4:05:d1:4f:9e:a8:88:d3:f7:a9:de:f8:
                    4b:26:17:5f:0a:0e:2b:67:67:df:b8:cd:d8:24:2c:
                    75:ae:84:e1:44:cd:cc:65:30:bf:5f:4a:68:44:0e:
                    1a:d9:01:3b:45:53:33:14:61:4c:3f:dc:b9:50:8b:
                    b3:12:27:b8:51:89:f0:bb:52:1a:81:ad:e8:60:45:
                    8c:f1:69:be:01:60:3b:3d:4f:41:36:04:73:98:11:
                    4d:66:26:fc:89:c9:38:95:e7:3c:33:b6:15:10:bc:
                    55:78:a5:89:22:aa:6e:e8:ac:78:7f:e8:ea:2c:23:
                    62:f9
                Exponent: 65537 (0x10001)
        X509v3 extensions:
            X509v3 Basic Constraints: 
                CA:FALSE
            X509v3 Subject Key Identifier: 
                35:AB:FF:B0:DF:6F:F6:B4:98:2F:7F:BA:A2:FC:BC:B7:FA:E3:E7:52
            X509v3 Authority Key Identifier: 
                keyid:B4:AE:AB:ED:FC:ED:84:AA:AD:77:5D:7C:84:28:1C:CA:CE:AE:2A:44
                DirName:/C=US/ST=California/L=San Francisco/O=Copyleft Certificate Co/OU=My Organizational Unit/CN=ChangeMe/emailAddress=me@example.net
                serial:BD:6C:3B:F4:D3:07:C9:D1

            X509v3 Extended Key Usage: 
                TLS Web Client Authentication
            X509v3 Key Usage: 
                Digital Signature
    Signature Algorithm: sha256WithRSAEncryption
         11:cd:d9:20:28:4f:ad:fe:cf:5a:97:c5:71:b9:b1:4e:80:52:
         1f:21:4a:5f:53:03:4a:64:b1:24:0a:c0:a1:8b:f2:28:9c:84:
         be:e1:56:6e:14:01:13:c0:a3:73:ef:f4:0d:ed:28:b4:5a:2f:
         93:2f:98:98:55:58:eb:47:d0:25:fb:08:00:af:62:08:11:c7:
         8d:95:ad:9a:ae:06:3d:0e:a5:5c:88:f4:83:87:2f:41:82:30:
         3d:97:65:0a:91:9e:1e:76:c8:7f:8d:39:77:b7:97:d7:8a:eb:
         6a:6c:44:a2:58:b2:ce:f0:39:b8:1f:ac:0e:71:2d:0e:a9:aa:
         e0:4a:24:64:80:06:d0:ec:c8:32:27:99:5a:6b:3c:9e:a7:63:
         fc:ae:05:15:01:6c:24:68:f8:cb:59:08:6e:85:d5:cd:ac:8b:
         22:bb:82:77:a9:03:f5:fd:78:cc:7f:c5:40:8a:76:18:ee:19:
         1f:7e:ab:6e:46:b1:c6:87:97:58:70:e2:09:d9:1c:84:77:cb:
         f9:ce:d2:95:4a:85:bd:e3:e7:31:59:d7:bd:a2:8e:0b:1a:0b:
         03:81:96:3b:6f:b9:44:64:56:22:6d:95:34:87:aa:26:5e:dd:
         56:46:f4:bc:32:f4:72:50:80:2d:09:8f:63:a1:39:9b:fd:d1:
         0e:72:2f:75
-----BEGIN CERTIFICATE-----
MIIFMDCCBBigAwIBAgIRALmN+iwwgPcRphGM7BzWDqUwDQYJKoZIhvcNAQELBQAw
ga8xCzAJBgNVBAYTAlVTMRMwEQYDVQQIDApDYWxpZm9ybmlhMRYwFAYDVQQHDA1T
YW4gRnJhbmNpc2NvMSAwHgYDVQQKDBdDb3B5bGVmdCBDZXJ0aWZpY2F0ZSBDbzEf
MB0GA1UECwwWTXkgT3JnYW5pemF0aW9uYWwgVW5pdDERMA8GA1UEAwwIQ2hhbmdl
TWUxHTAbBgkqhkiG9w0BCQEWDm1lQGV4YW1wbGUubmV0MB4XDTIzMTExMzExNDk0
NloXDTI0MTExMjExNDk0NlowgbsxCzAJBgNVBAYTAlVTMQswCQYDVQQIDAJPSDET
MBEGA1UEBwwKQ2luY2lubmF0aTEhMB8GA1UECgwYVW5pdmVyc2l0eSBvZiBDaW5j
aW5uYXRpMSowKAYDVQQLDCFEZXB0LiBFbGVjLiBDb21wLiBFbmcuIENvbXAuIFNj
aS4xETAPBgNVBAMMCGNsaWVudDUwMSgwJgYJKoZIhvcNAQkBFhlmcmFuY29AZ2F1
c3MuZWNlY3MudWMuZWR1MIIBIjANBgkqhkiG9w0BAQEFAAOCAQ8AMIIBCgKCAQEA
vOR+uqJNm5T5J+3Pir2grpVmfP62KBPFSLs7Rv5kc0kfkr2ax7PpBqsaO7RgAiRB
SyTmMdrAgWEc5NAmrnTsiSx0qvhLT/ggD18qfqINQ0MQ5Is9qrw+ZoLP6n0V5998
Y9zJg3wcAOwzTTmCvdahJ2EKyAoSqHV6jy+3UVun/nglqLosnem7TtjkBdFPnqiI
0/ep3vhLJhdfCg4rZ2ffuM3YJCx1roThRM3MZTC/X0poRA4a2QE7RVMzFGFMP9y5
UIuzEie4UYnwu1Iaga3oYEWM8Wm+AWA7PU9BNgRzmBFNZib8ick4lec8M7YVELxV
eKWJIqpu6Kx4f+jqLCNi+QIDAQABo4IBNzCCATMwCQYDVR0TBAIwADAdBgNVHQ4E
FgQUNav/sN9v9rSYL3+6ovy8t/rj51IwgeQGA1UdIwSB3DCB2YAUtK6r7fzthKqt
d118hCgcys6uKkShgbWkgbIwga8xCzAJBgNVBAYTAlVTMRMwEQYDVQQIDApDYWxp
Zm9ybmlhMRYwFAYDVQQHDA1TYW4gRnJhbmNpc2NvMSAwHgYDVQQKDBdDb3B5bGVm
dCBDZXJ0aWZpY2F0ZSBDbzEfMB0GA1UECwwWTXkgT3JnYW5pemF0aW9uYWwgVW5p
dDERMA8GA1UEAwwIQ2hhbmdlTWUxHTAbBgkqhkiG9w0BCQEWDm1lQGV4YW1wbGUu
bmV0ggkAvWw79NMHydEwEwYDVR0lBAwwCgYIKwYBBQUHAwIwCwYDVR0PBAQDAgeA
MA0GCSqGSIb3DQEBCwUAA4IBAQARzdkgKE+t/s9al8VxubFOgFIfIUpfUwNKZLEk
CsChi/IonIS+4VZuFAETwKNz7/QN7Si0Wi+TL5iYVVjrR9Al+wgAr2IIEceNla2a
rgY9DqVciPSDhy9BgjA9l2UKkZ4edsh/jTl3t5fXiutqbESiWLLO8Dm4H6wOcS0O
qargSiRkgAbQ7MgyJ5laazyep2P8rgUVAWwkaPjLWQhuhdXNrIsiu4J3qQP1/XjM
f8VAinYY7hkffqtuRrHGh5dYcOIJ2RyEd8v5ztKVSoW94+cxWde9oo4LGgsDgZY7
b7lEZFYibZU0h6omXt1WRvS8MvRyUIAtCY9joTmb/dEOci91
-----END CERTIFICATE-----
