Certificate:
    Data:
        Version: 3 (0x2)
        Serial Number:
            8d:38:df:74:8e:ac:9c:cb:da:41:92:1e:a2:c1:31:14
    Signature Algorithm: sha256WithRSAEncryption
        Issuer: C=US, ST=California, L=San Francisco, O=Copyleft Certificate Co, OU=My Organizational Unit, CN=ChangeMe/emailAddress=me@example.net
        Validity
            Not Before: Nov 12 11:49:27 2023 GMT
            Not After : Nov 11 11:49:27 2024 GMT
        Subject: C=US, ST=OH, L=Cincinnati, O=University of Cincinnati, OU=Dept. Elec. Comp. Eng. Comp. Sci., CN=client48/emailAddress=franco@gauss.ececs.uc.edu
        Subject Public Key Info:
            Public Key Algorithm: rsaEncryption
                Public-Key: (2048 bit)
                Modulus:
                    00:c0:28:4d:4a:a6:ae:30:2a:e2:ed:2b:cf:0f:38:
                    b0:4c:95:5b:74:a1:94:7f:52:82:d1:99:a2:1e:c4:
                    34:8f:7d:54:bd:ec:eb:59:68:64:03:af:82:c4:b5:
                    5b:d2:a2:77:db:ab:38:7b:84:34:d4:36:37:3e:f9:
                    26:d4:0d:76:5d:82:25:c6:a2:3d:5c:51:d2:8a:fd:
                    65:a6:0c:fa:c6:4a:9c:0c:15:d9:66:ce:66:ea:c1:
                    d1:eb:a4:39:98:3d:2e:4d:b1:58:5f:5e:13:dd:28:
                    38:4b:05:53:18:26:52:15:57:0e:b0:40:6a:4f:5e:
                    1c:9d:a2:51:45:49:aa:25:c6:81:d2:dc:49:08:9d:
                    62:6a:6b:50:c4:03:16:dd:e5:4a:3a:57:b2:37:18:
                    f8:76:7d:e8:6a:02:54:af:ef:10:0a:f3:39:6d:86:
                    af:82:17:68:f0:73:7c:26:a6:cc:32:95:2c:91:cf:
                    18:1f:ab:a1:a1:50:5a:3b:fe:4c:fa:4b:3d:06:64:
                    aa:00:f8:fa:fc:8a:89:ec:67:22:5e:bb:52:d1:80:
                    a2:78:53:b1:92:dd:33:37:63:89:46:48:61:86:a6:
                    03:d7:d6:c4:8d:11:2a:75:ef:22:9c:5e:bb:ca:c7:
                    d3:e8:ec:af:da:50:b4:f9:32:f8:fc:77:08:97:e8:
                    3d:b7
                Exponent: 65537 (0x10001)
        X509v3 extensions:
            X509v3 Basic Constraints: 
                CA:FALSE
            X509v3 Subject Key Identifier: 
                6A:0E:4A:13:DD:70:31:72:FB:49:1F:47:EC:30:A1:6A:11:D8:6C:63
            X509v3 Authority Key Identifier: 
                keyid:C4:46:F2:96:38:56:02:B8:9D:09:04:52:25:91:35:97:6A:D7:B1:F0
                DirName:/C=US/ST=California/L=San Francisco/O=Copyleft Certificate Co/OU=My Organizational Unit/CN=ChangeMe/emailAddress=me@example.net
                serial:D1:5A:15:1C:F0:20:95:62

            X509v3 Extended Key Usage: 
                TLS Web Client Authentication
            X509v3 Key Usage: 
                Digital Signature
    Signature Algorithm: sha256WithRSAEncryption
         1b:c8:f6:79:3a:ae:32:86:1b:ea:3c:cb:f2:26:d7:63:0e:b8:
         07:38:a8:54:77:bf:74:fe:e0:29:8a:e4:00:de:4a:62:bc:e2:
         ca:4d:1e:40:0f:c2:ef:fe:6c:54:ed:d7:18:3c:2c:6e:9c:98:
         a4:af:77:05:bc:70:c1:b3:72:e1:66:b3:38:1c:e0:d7:6d:b8:
         b5:90:e7:d3:4b:22:ff:92:1f:49:8d:80:cb:aa:ed:c1:73:b5:
         49:97:6b:81:ef:33:32:8f:7d:3b:a4:15:27:b5:a0:e9:4d:fc:
         76:65:60:ac:fb:7e:40:4e:09:cd:c8:a5:c2:bf:2e:d4:f1:2d:
         1b:b4:78:86:0f:8b:57:28:2f:0d:06:02:d1:30:d4:24:e6:ee:
         93:b6:fa:1d:c3:35:23:b7:57:6a:0d:64:33:bd:75:cb:5d:5b:
         65:6a:60:4d:02:88:2e:4f:98:48:92:e1:07:50:8f:6a:ff:67:
         a2:55:fe:eb:72:0d:29:0d:7b:6d:86:91:b4:c0:5a:4f:4f:dc:
         af:dc:f8:f9:f4:b2:f1:7a:1f:b6:ea:7c:54:d6:6b:46:48:94:
         25:ed:ac:d7:7d:f9:f0:fa:87:eb:ee:bf:fd:0c:8d:76:d5:40:
         25:d4:e5:dd:d7:ce:5f:52:84:5b:80:a0:48:49:e3:36:f9:d8:
         3b:28:07:9b
-----BEGIN CERTIFICATE-----
MIIFMDCCBBigAwIBAgIRAI0433SOrJzL2kGSHqLBMRQwDQYJKoZIhvcNAQELBQAw
ga8xCzAJBgNVBAYTAlVTMRMwEQYDVQQIDApDYWxpZm9ybmlhMRYwFAYDVQQHDA1T
YW4gRnJhbmNpc2NvMSAwHgYDVQQKDBdDb3B5bGVmdCBDZXJ0aWZpY2F0ZSBDbzEf
MB0GA1UECwwWTXkgT3JnYW5pemF0aW9uYWwgVW5pdDERMA8GA1UEAwwIQ2hhbmdl
TWUxHTAbBgkqhkiG9w0BCQEWDm1lQGV4YW1wbGUubmV0MB4XDTIzMTExMjExNDky
N1oXDTI0MTExMTExNDkyN1owgbsxCzAJBgNVBAYTAlVTMQswCQYDVQQIDAJPSDET
MBEGA1UEBwwKQ2luY2lubmF0aTEhMB8GA1UECgwYVW5pdmVyc2l0eSBvZiBDaW5j
aW5uYXRpMSowKAYDVQQLDCFEZXB0LiBFbGVjLiBDb21wLiBFbmcuIENvbXAuIFNj
aS4xETAPBgNVBAMMCGNsaWVudDQ4MSgwJgYJKoZIhvcNAQkBFhlmcmFuY29AZ2F1
c3MuZWNlY3MudWMuZWR1MIIBIjANBgkqhkiG9w0BAQEFAAOCAQ8AMIIBCgKCAQEA
wChNSqauMCri7SvPDziwTJVbdKGUf1KC0ZmiHsQ0j31UvezrWWhkA6+CxLVb0qJ3
26s4e4Q01DY3Pvkm1A12XYIlxqI9XFHSiv1lpgz6xkqcDBXZZs5m6sHR66Q5mD0u
TbFYX14T3Sg4SwVTGCZSFVcOsEBqT14cnaJRRUmqJcaB0txJCJ1iamtQxAMW3eVK
OleyNxj4dn3oagJUr+8QCvM5bYavghdo8HN8JqbMMpUskc8YH6uhoVBaO/5M+ks9
BmSqAPj6/IqJ7GciXrtS0YCieFOxkt0zN2OJRkhhhqYD19bEjREqde8inF67ysfT
6Oyv2lC0+TL4/HcIl+g9twIDAQABo4IBNzCCATMwCQYDVR0TBAIwADAdBgNVHQ4E
FgQUag5KE91wMXL7SR9H7DChahHYbGMwgeQGA1UdIwSB3DCB2YAUxEbyljhWArid
CQRSJZE1l2rXsfChgbWkgbIwga8xCzAJBgNVBAYTAlVTMRMwEQYDVQQIDApDYWxp
Zm9ybmlhMRYwFAYDVQQHDA1TYW4gRnJhbmNpc2NvMSAwHgYDVQQKDBdDb3B5bGVm
dCBDZXJ0aWZpY2F0ZSBDbzEfMB0GA1UECwwWTXkgT3JnYW5pemF0aW9uYWwgVW5p
dDERMA8GA1UEAwwIQ2hhbmdlTWUxHTAbBgkqhkiG9w0BCQEWDm1lQGV4YW1wbGUu
bmV0ggkA0VoVHPAglWIwEwYDVR0lBAwwCgYIKwYBBQUHAwIwCwYDVR0PBAQDAgeA
MA0GCSqGSIb3DQEBCwUAA4IBAQAbyPZ5Oq4yhhvqPMvyJtdjDrgHOKhUd790/uAp
iuQA3kpivOLKTR5AD8Lv/mxU7dcYPCxunJikr3cFvHDBs3LhZrM4HODXbbi1kOfT
SyL/kh9JjYDLqu3Bc7VJl2uB7zMyj307pBUntaDpTfx2ZWCs+35ATgnNyKXCvy7U
8S0btHiGD4tXKC8NBgLRMNQk5u6TtvodwzUjt1dqDWQzvXXLXVtlamBNAoguT5hI
kuEHUI9q/2eiVf7rcg0pDXtthpG0wFpPT9yv3Pj59LLxeh+26nxU1mtGSJQl7azX
ffnw+ofr7r/9DI121UAl1OXd185fUoRbgKBISeM2+dg7KAeb
-----END CERTIFICATE-----
