Certificate:
    Data:
        Version: 3 (0x2)
        Serial Number:
            3e:5e:b4:e6:c7:78:9a:08:bd:93:9d:92:3d:11:a4:75
    Signature Algorithm: sha256WithRSAEncryption
        Issuer: C=US, ST=California, L=San Francisco, O=Copyleft Certificate Co, OU=My Organizational Unit, CN=ChangeMe/emailAddress=me@example.net
        Validity
            Not Before: Jan 23 18:30:40 2021 GMT
            Not After : Jan 23 18:30:40 2022 GMT
        Subject: C=US, ST=OH, L=Cincinnati, O=University of Cincinnati, OU=Dept. Electrical Eng. and Computer Sci., CN=client145/emailAddress=franco@gauss.ececs.uc.edu
        Subject Public Key Info:
            Public Key Algorithm: rsaEncryption
                Public-Key: (2048 bit)
                Modulus:
                    00:df:9d:c0:fe:b2:66:78:ca:e3:af:fa:55:48:11:
                    c5:1f:65:fd:32:44:d3:3a:4e:fc:18:6a:dc:5c:64:
                    d3:50:a7:2a:78:d0:ae:f5:04:3b:83:1e:c3:4a:7c:
                    6b:d1:1b:97:05:88:f8:36:c1:28:81:3c:5b:4b:ec:
                    46:f6:f3:bc:43:49:2d:0b:c1:a8:d5:d7:c1:f6:a7:
                    32:c7:49:cf:ac:cf:91:5c:4b:57:da:77:57:ca:73:
                    63:f1:0f:01:f6:6a:bf:b7:1f:63:aa:09:c3:5d:87:
                    3d:cc:c1:ee:66:07:8c:78:41:d8:f9:6d:8e:44:b3:
                    55:a2:d1:3f:0f:a4:b3:11:29:c4:ca:6a:6e:ab:e5:
                    dc:1f:e9:2a:ff:2a:ed:35:47:51:b1:87:51:df:66:
                    4a:39:2e:10:25:99:57:4d:71:5d:e7:b6:24:26:e9:
                    86:17:73:49:62:c3:a6:bf:a4:28:ee:3b:c2:63:9f:
                    b4:b1:82:d3:1a:ef:b6:03:11:6f:cb:d1:27:ad:01:
                    f5:a4:7b:ec:d9:8d:69:3c:a1:21:7b:4a:5d:ff:1c:
                    d7:e8:87:64:44:88:a5:14:d6:fe:76:e8:8f:40:4c:
                    64:2d:20:dc:d1:0f:fc:a4:fd:00:84:d2:64:ef:66:
                    f2:c0:c2:35:c7:0f:80:d7:3c:0f:94:5a:d9:15:60:
                    3e:63
                Exponent: 65537 (0x10001)
        X509v3 extensions:
            X509v3 Basic Constraints: 
                CA:FALSE
            X509v3 Subject Key Identifier: 
                21:D0:02:FF:BF:47:76:06:CF:6D:B2:E4:2F:B5:6A:85:AD:74:7B:3D
            X509v3 Authority Key Identifier: 
                keyid:EF:DC:B6:3D:4B:FD:A7:87:05:C5:22:3D:8B:DC:BF:99:2A:EE:E4:DB
                DirName:/C=US/ST=California/L=San Francisco/O=Copyleft Certificate Co/OU=My Organizational Unit/CN=ChangeMe/emailAddress=me@example.net
                serial:87:1E:1D:DC:6B:8C:66:88

            X509v3 Extended Key Usage: 
                TLS Web Client Authentication
            X509v3 Key Usage: 
                Digital Signature
    Signature Algorithm: sha256WithRSAEncryption
         7a:bd:41:5c:1f:48:ef:21:2e:59:98:54:c8:d3:b2:93:74:35:
         38:9c:e6:d6:62:5a:56:cb:dd:be:d0:cd:c0:bd:a5:92:aa:49:
         66:be:f7:9f:9e:37:21:28:15:6f:e8:87:d9:84:e2:dc:39:bd:
         44:ed:0f:a4:5c:47:a8:d4:1d:1f:37:3f:c4:68:1c:e4:fb:aa:
         47:f8:1a:c0:15:df:3b:81:c9:50:51:23:4c:df:4c:f1:88:3d:
         ab:24:d3:b2:59:24:90:66:b6:d4:aa:56:61:af:48:10:ac:e2:
         46:67:6c:ef:5e:1d:59:b7:3f:56:df:5a:85:ba:06:8e:be:fd:
         68:d1:9d:30:61:39:57:30:a9:3a:07:7e:e8:78:cc:62:54:3d:
         fe:32:59:ca:1e:d4:1f:d9:5d:35:10:92:7c:cd:69:75:75:e6:
         1e:31:4a:5e:0d:a5:af:a0:1b:69:87:2a:8d:79:ac:89:3d:a2:
         57:9c:4e:d8:dc:e3:be:22:45:e3:ad:1a:9b:79:61:2c:dc:f4:
         f0:69:44:82:33:83:30:97:86:28:87:10:34:9c:09:7b:94:2d:
         5e:48:f6:2d:3f:3f:5b:39:18:31:be:23:f8:43:73:86:49:42:
         6c:40:f5:ad:f8:3c:3a:bb:b7:c3:0d:43:14:fb:90:03:d1:1f:
         da:cd:22:e6
-----BEGIN CERTIFICATE-----
MIIFNjCCBB6gAwIBAgIQPl605sd4mgi9k52SPRGkdTANBgkqhkiG9w0BAQsFADCB
rzELMAkGA1UEBhMCVVMxEzARBgNVBAgMCkNhbGlmb3JuaWExFjAUBgNVBAcMDVNh
biBGcmFuY2lzY28xIDAeBgNVBAoMF0NvcHlsZWZ0IENlcnRpZmljYXRlIENvMR8w
HQYDVQQLDBZNeSBPcmdhbml6YXRpb25hbCBVbml0MREwDwYDVQQDDAhDaGFuZ2VN
ZTEdMBsGCSqGSIb3DQEJARYObWVAZXhhbXBsZS5uZXQwHhcNMjEwMTIzMTgzMDQw
WhcNMjIwMTIzMTgzMDQwWjCBwjELMAkGA1UEBhMCVVMxCzAJBgNVBAgMAk9IMRMw
EQYDVQQHDApDaW5jaW5uYXRpMSEwHwYDVQQKDBhVbml2ZXJzaXR5IG9mIENpbmNp
bm5hdGkxMDAuBgNVBAsMJ0RlcHQuIEVsZWN0cmljYWwgRW5nLiBhbmQgQ29tcHV0
ZXIgU2NpLjESMBAGA1UEAwwJY2xpZW50MTQ1MSgwJgYJKoZIhvcNAQkBFhlmcmFu
Y29AZ2F1c3MuZWNlY3MudWMuZWR1MIIBIjANBgkqhkiG9w0BAQEFAAOCAQ8AMIIB
CgKCAQEA353A/rJmeMrjr/pVSBHFH2X9MkTTOk78GGrcXGTTUKcqeNCu9QQ7gx7D
Snxr0RuXBYj4NsEogTxbS+xG9vO8Q0ktC8Go1dfB9qcyx0nPrM+RXEtX2ndXynNj
8Q8B9mq/tx9jqgnDXYc9zMHuZgeMeEHY+W2ORLNVotE/D6SzESnEympuq+XcH+kq
/yrtNUdRsYdR32ZKOS4QJZlXTXFd57YkJumGF3NJYsOmv6Qo7jvCY5+0sYLTGu+2
AxFvy9EnrQH1pHvs2Y1pPKEhe0pd/xzX6IdkRIilFNb+duiPQExkLSDc0Q/8pP0A
hNJk72bywMI1xw+A1zwPlFrZFWA+YwIDAQABo4IBNzCCATMwCQYDVR0TBAIwADAd
BgNVHQ4EFgQUIdAC/79HdgbPbbLkL7Vqha10ez0wgeQGA1UdIwSB3DCB2YAU79y2
PUv9p4cFxSI9i9y/mSru5NuhgbWkgbIwga8xCzAJBgNVBAYTAlVTMRMwEQYDVQQI
DApDYWxpZm9ybmlhMRYwFAYDVQQHDA1TYW4gRnJhbmNpc2NvMSAwHgYDVQQKDBdD
b3B5bGVmdCBDZXJ0aWZpY2F0ZSBDbzEfMB0GA1UECwwWTXkgT3JnYW5pemF0aW9u
YWwgVW5pdDERMA8GA1UEAwwIQ2hhbmdlTWUxHTAbBgkqhkiG9w0BCQEWDm1lQGV4
YW1wbGUubmV0ggkAhx4d3GuMZogwEwYDVR0lBAwwCgYIKwYBBQUHAwIwCwYDVR0P
BAQDAgeAMA0GCSqGSIb3DQEBCwUAA4IBAQB6vUFcH0jvIS5ZmFTI07KTdDU4nObW
YlpWy92+0M3AvaWSqklmvvefnjchKBVv6IfZhOLcOb1E7Q+kXEeo1B0fNz/EaBzk
+6pH+BrAFd87gclQUSNM30zxiD2rJNOyWSSQZrbUqlZhr0gQrOJGZ2zvXh1Ztz9W
31qFugaOvv1o0Z0wYTlXMKk6B37oeMxiVD3+MlnKHtQf2V01EJJ8zWl1deYeMUpe
DaWvoBtphyqNeayJPaJXnE7Y3OO+IkXjrRqbeWEs3PTwaUSCM4Mwl4YohxA0nAl7
lC1eSPYtPz9bORgxviP4Q3OGSUJsQPWt+Dw6u7fDDUMU+5AD0R/azSLm
-----END CERTIFICATE-----
