Certificate:
    Data:
        Version: 3 (0x2)
        Serial Number:
            46:e5:e7:da:0e:62:08:2c:b3:e6:7e:8c:93:f0:82:c1
    Signature Algorithm: sha256WithRSAEncryption
        Issuer: C=US, ST=California, L=San Francisco, O=Copyleft Certificate Co, OU=My Organizational Unit, CN=ChangeMe/emailAddress=me@example.net
        Validity
            Not Before: Jan 23 18:29:06 2021 GMT
            Not After : Jan 23 18:29:06 2022 GMT
        Subject: C=US, ST=OH, L=Cincinnati, O=University of Cincinnati, OU=Dept. Electrical Eng. and Computer Sci., CN=client79/emailAddress=franco@gauss.ececs.uc.edu
        Subject Public Key Info:
            Public Key Algorithm: rsaEncryption
                Public-Key: (2048 bit)
                Modulus:
                    00:d7:03:63:90:23:ac:4f:93:fe:90:a3:12:eb:f3:
                    06:39:63:d1:7a:79:d5:61:06:85:b4:39:20:e8:01:
                    7d:cf:17:e2:59:db:d1:0a:80:52:d6:b7:c4:9a:c5:
                    be:05:34:1b:51:b3:28:67:df:49:68:3b:ae:c7:53:
                    eb:21:7a:11:2a:c1:bd:9c:7e:7d:e9:89:41:fe:52:
                    00:8e:d4:dd:e5:75:41:74:62:33:28:41:91:aa:39:
                    91:e0:09:ae:78:34:06:36:38:a0:aa:90:fd:56:f2:
                    c5:7b:ef:05:3a:38:1d:33:88:a6:68:c3:aa:18:7a:
                    62:e6:82:04:e6:da:d6:12:e7:bc:79:91:92:cf:de:
                    f0:23:b1:ce:0c:39:92:64:aa:f3:b4:f2:1a:71:00:
                    69:63:be:e2:af:68:21:e4:60:f0:fb:c8:36:e6:74:
                    90:53:c8:e1:52:9b:85:15:b3:d3:62:e0:2d:80:d5:
                    80:ea:a8:10:45:e1:6e:b6:c6:94:2e:14:79:fc:ba:
                    0a:f3:eb:5d:17:53:08:eb:90:18:d0:2e:75:a0:75:
                    f8:04:44:a8:6d:c5:62:75:34:ba:8a:68:1a:cf:9b:
                    8d:02:79:4f:3d:3a:9f:5e:be:3f:b6:9b:23:d0:28:
                    bd:92:de:f0:4b:44:49:74:4d:e0:1a:80:18:ce:56:
                    74:d9
                Exponent: 65537 (0x10001)
        X509v3 extensions:
            X509v3 Basic Constraints: 
                CA:FALSE
            X509v3 Subject Key Identifier: 
                1A:94:6A:12:02:12:D8:51:A4:32:B6:FE:3E:9F:F5:EB:E7:56:04:4B
            X509v3 Authority Key Identifier: 
                keyid:EF:DC:B6:3D:4B:FD:A7:87:05:C5:22:3D:8B:DC:BF:99:2A:EE:E4:DB
                DirName:/C=US/ST=California/L=San Francisco/O=Copyleft Certificate Co/OU=My Organizational Unit/CN=ChangeMe/emailAddress=me@example.net
                serial:87:1E:1D:DC:6B:8C:66:88

            X509v3 Extended Key Usage: 
                TLS Web Client Authentication
            X509v3 Key Usage: 
                Digital Signature
    Signature Algorithm: sha256WithRSAEncryption
         0f:af:20:00:29:00:32:71:d0:01:b4:2e:51:24:da:81:64:79:
         a7:1b:71:73:21:74:cf:62:40:4a:a1:32:03:67:c6:8e:87:73:
         7a:03:eb:f1:73:bf:4d:6f:6e:ad:13:8b:5b:bc:73:f4:5e:99:
         9c:47:b3:99:85:66:cf:47:7d:b3:cb:81:43:71:51:d3:9a:d2:
         83:97:c2:fc:ef:95:6a:85:df:e9:24:22:c4:6d:6c:45:69:8a:
         6f:56:ab:31:f0:15:f3:88:15:f1:e3:9c:97:13:25:53:65:23:
         d8:50:22:06:62:f5:ee:4f:eb:d9:3c:5b:ef:59:b5:8d:00:c1:
         09:12:e6:00:3f:1a:d4:1b:e7:01:37:98:13:3e:ae:78:02:25:
         82:bd:02:b1:19:75:d1:db:9f:f6:2e:c5:f0:94:d0:04:ba:22:
         2e:45:b1:76:cc:de:aa:7d:3b:cc:c5:f6:71:7d:87:bf:9c:04:
         41:03:1e:45:cc:0a:8d:d0:1a:99:28:61:3b:73:a7:1b:c3:e6:
         30:1a:da:e2:5a:90:24:7f:61:1d:6b:70:15:a1:40:3f:94:13:
         81:87:78:9f:70:0a:9a:cd:04:0b:f4:94:bb:e7:ad:82:ee:c6:
         62:08:66:a1:d4:ab:d3:d6:a1:60:09:b3:e0:17:ae:92:69:6e:
         45:23:c7:0d
-----BEGIN CERTIFICATE-----
MIIFNTCCBB2gAwIBAgIQRuXn2g5iCCyz5n6Mk/CCwTANBgkqhkiG9w0BAQsFADCB
rzELMAkGA1UEBhMCVVMxEzARBgNVBAgMCkNhbGlmb3JuaWExFjAUBgNVBAcMDVNh
biBGcmFuY2lzY28xIDAeBgNVBAoMF0NvcHlsZWZ0IENlcnRpZmljYXRlIENvMR8w
HQYDVQQLDBZNeSBPcmdhbml6YXRpb25hbCBVbml0MREwDwYDVQQDDAhDaGFuZ2VN
ZTEdMBsGCSqGSIb3DQEJARYObWVAZXhhbXBsZS5uZXQwHhcNMjEwMTIzMTgyOTA2
WhcNMjIwMTIzMTgyOTA2WjCBwTELMAkGA1UEBhMCVVMxCzAJBgNVBAgMAk9IMRMw
EQYDVQQHDApDaW5jaW5uYXRpMSEwHwYDVQQKDBhVbml2ZXJzaXR5IG9mIENpbmNp
bm5hdGkxMDAuBgNVBAsMJ0RlcHQuIEVsZWN0cmljYWwgRW5nLiBhbmQgQ29tcHV0
ZXIgU2NpLjERMA8GA1UEAwwIY2xpZW50NzkxKDAmBgkqhkiG9w0BCQEWGWZyYW5j
b0BnYXVzcy5lY2Vjcy51Yy5lZHUwggEiMA0GCSqGSIb3DQEBAQUAA4IBDwAwggEK
AoIBAQDXA2OQI6xPk/6QoxLr8wY5Y9F6edVhBoW0OSDoAX3PF+JZ29EKgFLWt8Sa
xb4FNBtRsyhn30loO67HU+shehEqwb2cfn3piUH+UgCO1N3ldUF0YjMoQZGqOZHg
Ca54NAY2OKCqkP1W8sV77wU6OB0ziKZow6oYemLmggTm2tYS57x5kZLP3vAjsc4M
OZJkqvO08hpxAGljvuKvaCHkYPD7yDbmdJBTyOFSm4UVs9Ni4C2A1YDqqBBF4W62
xpQuFHn8ugrz610XUwjrkBjQLnWgdfgERKhtxWJ1NLqKaBrPm40CeU89Op9evj+2
myPQKL2S3vBLREl0TeAagBjOVnTZAgMBAAGjggE3MIIBMzAJBgNVHRMEAjAAMB0G
A1UdDgQWBBQalGoSAhLYUaQytv4+n/Xr51YESzCB5AYDVR0jBIHcMIHZgBTv3LY9
S/2nhwXFIj2L3L+ZKu7k26GBtaSBsjCBrzELMAkGA1UEBhMCVVMxEzARBgNVBAgM
CkNhbGlmb3JuaWExFjAUBgNVBAcMDVNhbiBGcmFuY2lzY28xIDAeBgNVBAoMF0Nv
cHlsZWZ0IENlcnRpZmljYXRlIENvMR8wHQYDVQQLDBZNeSBPcmdhbml6YXRpb25h
bCBVbml0MREwDwYDVQQDDAhDaGFuZ2VNZTEdMBsGCSqGSIb3DQEJARYObWVAZXhh
bXBsZS5uZXSCCQCHHh3ca4xmiDATBgNVHSUEDDAKBggrBgEFBQcDAjALBgNVHQ8E
BAMCB4AwDQYJKoZIhvcNAQELBQADggEBAA+vIAApADJx0AG0LlEk2oFkeacbcXMh
dM9iQEqhMgNnxo6Hc3oD6/Fzv01vbq0Ti1u8c/RemZxHs5mFZs9HfbPLgUNxUdOa
0oOXwvzvlWqF3+kkIsRtbEVpim9WqzHwFfOIFfHjnJcTJVNlI9hQIgZi9e5P69k8
W+9ZtY0AwQkS5gA/GtQb5wE3mBM+rngCJYK9ArEZddHbn/YuxfCU0AS6Ii5FsXbM
3qp9O8zF9nF9h7+cBEEDHkXMCo3QGpkoYTtzpxvD5jAa2uJakCR/YR1rcBWhQD+U
E4GHeJ9wCprNBAv0lLvnrYLuxmIIZqHUq9PWoWAJs+AXrpJpbkUjxw0=
-----END CERTIFICATE-----
