Certificate:
    Data:
        Version: 3 (0x2)
        Serial Number:
            27:85:eb:2e:09:1d:9f:6a:8e:23:1d:2d:20:f0:31:05
    Signature Algorithm: sha256WithRSAEncryption
        Issuer: C=US, ST=California, L=San Francisco, O=Copyleft Certificate Co, OU=My Organizational Unit, CN=ChangeMe/emailAddress=me@example.net
        Validity
            Not Before: Nov 11 01:59:47 2023 GMT
            Not After : Nov 10 01:59:47 2024 GMT
        Subject: C=US, ST=OH, L=Cincinnati, O=University of Cincinnati, OU=Dept. Elec. Comp. Eng. Comp. Sci., CN=client26/emailAddress=franco@gauss.ececs.uc.edu
        Subject Public Key Info:
            Public Key Algorithm: rsaEncryption
                Public-Key: (2048 bit)
                Modulus:
                    00:c6:97:6d:ca:c7:0b:77:b6:db:f2:0b:4a:78:a2:
                    c2:18:73:dc:5a:f2:75:f7:96:6a:c4:f2:e7:d1:bc:
                    63:bf:cb:bf:54:01:47:69:0e:31:25:32:cf:46:38:
                    67:ab:fb:d4:ff:95:a8:6e:5e:71:5c:ea:c2:0d:18:
                    e7:e7:e8:5b:f6:09:44:f6:70:98:40:f9:db:5c:b8:
                    94:d7:86:f1:99:4d:a8:8f:29:ff:c0:ae:4f:58:7d:
                    14:f7:4d:9b:f5:68:9b:9c:74:10:f8:6c:27:e5:d5:
                    69:1b:1c:43:29:b0:bc:a3:d1:f8:91:87:30:cc:90:
                    63:41:8c:14:71:fc:e1:ad:96:1d:4d:75:69:0e:31:
                    5d:65:a5:7f:33:e1:e6:2a:b4:3f:10:b1:43:2e:43:
                    0c:27:31:95:b5:fe:f1:d6:11:cf:15:c8:ea:5f:91:
                    e6:9e:0c:33:f3:5d:1a:8c:81:da:8c:b7:ae:fa:76:
                    dd:9b:23:a3:c0:1d:89:e5:cd:c2:06:f4:3c:b0:74:
                    a0:c8:14:0c:56:e4:0a:85:51:ad:30:67:65:f3:ac:
                    ad:8e:c7:6d:ff:2f:4f:6c:ea:2c:71:d9:8f:bb:6e:
                    e3:99:ad:f2:14:9f:32:cb:75:c4:21:e7:0a:37:b6:
                    7b:36:c7:ae:3b:af:80:10:fc:56:be:8e:d2:27:e9:
                    76:f3
                Exponent: 65537 (0x10001)
        X509v3 extensions:
            X509v3 Basic Constraints: 
                CA:FALSE
            X509v3 Subject Key Identifier: 
                E2:DA:A9:31:A1:03:37:79:F1:74:0B:52:3F:55:C6:D1:96:0F:61:3C
            X509v3 Authority Key Identifier: 
                keyid:7B:0F:93:16:64:9F:71:41:D3:1B:FB:ED:6A:70:9B:CA:2E:70:F0:4B
                DirName:/C=US/ST=California/L=San Francisco/O=Copyleft Certificate Co/OU=My Organizational Unit/CN=ChangeMe/emailAddress=me@example.net
                serial:B9:F2:4E:2C:79:B3:D4:6C

            X509v3 Extended Key Usage: 
                TLS Web Client Authentication
            X509v3 Key Usage: 
                Digital Signature
    Signature Algorithm: sha256WithRSAEncryption
         38:58:2c:83:3e:1a:6c:1a:ea:22:4c:47:d0:03:f9:5b:88:88:
         55:e0:d0:29:67:e2:c7:0f:20:42:8c:18:9f:0b:02:17:55:56:
         58:ae:b7:a9:c3:c3:ba:4b:39:9a:fa:70:46:8e:08:15:44:d8:
         9c:35:a0:80:77:18:5f:df:e5:5d:d3:99:80:12:2b:a6:c2:59:
         38:97:0d:cc:b0:1e:b1:75:c6:0e:44:67:cc:54:3f:e8:89:aa:
         20:ac:be:b0:48:83:de:c9:2b:a5:19:fe:04:eb:b8:d1:8b:90:
         84:cf:28:09:ea:fc:af:3e:0a:f2:62:80:fa:2c:f3:29:6f:1f:
         71:dd:ce:c4:2c:f5:fe:8b:1b:bc:62:0d:aa:d9:44:88:03:ef:
         b6:c8:94:7a:8b:34:b1:84:47:8a:74:de:91:87:b5:b7:0b:51:
         0b:f0:5c:ce:f0:4d:40:7d:9a:5a:9d:a0:f4:e2:de:de:04:45:
         ae:5e:13:8c:cd:32:4c:20:be:d3:d5:c9:b8:8d:6a:2e:42:2f:
         74:31:e9:81:06:16:e0:7b:d7:41:66:d2:2f:38:14:d6:19:5c:
         9b:7f:99:10:1f:46:3a:4d:00:97:f9:6d:13:56:47:4d:78:71:
         e7:2e:24:d3:a4:5e:ec:e2:3a:95:cf:53:cc:25:59:36:67:4c:
         50:70:96:a1
-----BEGIN CERTIFICATE-----
MIIFLzCCBBegAwIBAgIQJ4XrLgkdn2qOIx0tIPAxBTANBgkqhkiG9w0BAQsFADCB
rzELMAkGA1UEBhMCVVMxEzARBgNVBAgMCkNhbGlmb3JuaWExFjAUBgNVBAcMDVNh
biBGcmFuY2lzY28xIDAeBgNVBAoMF0NvcHlsZWZ0IENlcnRpZmljYXRlIENvMR8w
HQYDVQQLDBZNeSBPcmdhbml6YXRpb25hbCBVbml0MREwDwYDVQQDDAhDaGFuZ2VN
ZTEdMBsGCSqGSIb3DQEJARYObWVAZXhhbXBsZS5uZXQwHhcNMjMxMTExMDE1OTQ3
WhcNMjQxMTEwMDE1OTQ3WjCBuzELMAkGA1UEBhMCVVMxCzAJBgNVBAgMAk9IMRMw
EQYDVQQHDApDaW5jaW5uYXRpMSEwHwYDVQQKDBhVbml2ZXJzaXR5IG9mIENpbmNp
bm5hdGkxKjAoBgNVBAsMIURlcHQuIEVsZWMuIENvbXAuIEVuZy4gQ29tcC4gU2Np
LjERMA8GA1UEAwwIY2xpZW50MjYxKDAmBgkqhkiG9w0BCQEWGWZyYW5jb0BnYXVz
cy5lY2Vjcy51Yy5lZHUwggEiMA0GCSqGSIb3DQEBAQUAA4IBDwAwggEKAoIBAQDG
l23Kxwt3ttvyC0p4osIYc9xa8nX3lmrE8ufRvGO/y79UAUdpDjElMs9GOGer+9T/
lahuXnFc6sINGOfn6Fv2CUT2cJhA+dtcuJTXhvGZTaiPKf/Ark9YfRT3TZv1aJuc
dBD4bCfl1WkbHEMpsLyj0fiRhzDMkGNBjBRx/OGtlh1NdWkOMV1lpX8z4eYqtD8Q
sUMuQwwnMZW1/vHWEc8VyOpfkeaeDDPzXRqMgdqMt676dt2bI6PAHYnlzcIG9Dyw
dKDIFAxW5AqFUa0wZ2XzrK2Ox23/L09s6ixx2Y+7buOZrfIUnzLLdcQh5wo3tns2
x647r4AQ/Fa+jtIn6XbzAgMBAAGjggE3MIIBMzAJBgNVHRMEAjAAMB0GA1UdDgQW
BBTi2qkxoQM3efF0C1I/VcbRlg9hPDCB5AYDVR0jBIHcMIHZgBR7D5MWZJ9xQdMb
++1qcJvKLnDwS6GBtaSBsjCBrzELMAkGA1UEBhMCVVMxEzARBgNVBAgMCkNhbGlm
b3JuaWExFjAUBgNVBAcMDVNhbiBGcmFuY2lzY28xIDAeBgNVBAoMF0NvcHlsZWZ0
IENlcnRpZmljYXRlIENvMR8wHQYDVQQLDBZNeSBPcmdhbml6YXRpb25hbCBVbml0
MREwDwYDVQQDDAhDaGFuZ2VNZTEdMBsGCSqGSIb3DQEJARYObWVAZXhhbXBsZS5u
ZXSCCQC58k4sebPUbDATBgNVHSUEDDAKBggrBgEFBQcDAjALBgNVHQ8EBAMCB4Aw
DQYJKoZIhvcNAQELBQADggEBADhYLIM+Gmwa6iJMR9AD+VuIiFXg0Cln4scPIEKM
GJ8LAhdVVliut6nDw7pLOZr6cEaOCBVE2Jw1oIB3GF/f5V3TmYASK6bCWTiXDcyw
HrF1xg5EZ8xUP+iJqiCsvrBIg97JK6UZ/gTruNGLkITPKAnq/K8+CvJigPos8ylv
H3HdzsQs9f6LG7xiDarZRIgD77bIlHqLNLGER4p03pGHtbcLUQvwXM7wTUB9mlqd
oPTi3t4ERa5eE4zNMkwgvtPVybiNai5CL3Qx6YEGFuB710Fm0i84FNYZXJt/mRAf
RjpNAJf5bRNWR014cecuJNOkXuziOpXPU8wlWTZnTFBwlqE=
-----END CERTIFICATE-----
