Certificate:
    Data:
        Version: 3 (0x2)
        Serial Number:
            1a:2f:c6:ac:eb:2a:0d:4a:f5:c9:f0:5a:f9:b8:fc:41
    Signature Algorithm: sha256WithRSAEncryption
        Issuer: C=US, ST=California, L=San Francisco, O=Copyleft Certificate Co, OU=My Organizational Unit, CN=ChangeMe/emailAddress=me@example.net
        Validity
            Not Before: Nov 11 01:58:55 2023 GMT
            Not After : Nov 10 01:58:55 2024 GMT
        Subject: C=US, ST=OH, L=Cincinnati, O=University of Cincinnati, OU=Dept. Elec. Comp. Eng. Comp. Sci., CN=client13/emailAddress=franco@gauss.ececs.uc.edu
        Subject Public Key Info:
            Public Key Algorithm: rsaEncryption
                Public-Key: (2048 bit)
                Modulus:
                    00:d6:22:6a:8f:08:3d:21:3e:ac:a4:1b:c0:26:92:
                    05:1f:dc:49:a6:3c:66:fb:f4:ab:39:72:d0:9e:26:
                    f5:07:dd:f7:98:b5:2d:58:ac:b8:9a:b2:67:31:da:
                    f4:8b:a8:57:9d:5e:02:3e:93:fe:40:35:ba:11:42:
                    d1:14:30:68:d2:6c:e0:c2:db:24:48:5f:99:1e:12:
                    c9:ff:44:c2:0d:49:aa:6c:a4:4f:bb:f8:45:4c:c2:
                    c2:e8:16:3b:5e:66:cb:27:66:18:69:3a:04:56:cd:
                    79:9b:ac:30:48:84:03:d2:5a:4a:a9:a4:ec:57:85:
                    ff:ac:08:c7:c9:22:4b:fc:3a:86:64:ea:fd:bc:fd:
                    04:d9:27:8f:13:5e:55:20:66:c4:c1:d4:c6:a0:47:
                    36:b2:f7:76:95:b1:f1:df:9e:6b:ea:8f:40:39:41:
                    bc:14:0a:c5:43:08:be:72:cc:b6:be:8b:0e:2f:8d:
                    39:eb:e7:ad:fa:95:95:94:a6:ce:2e:40:75:cb:e1:
                    fa:a0:43:54:9e:9c:f4:5c:37:63:19:bf:7a:68:36:
                    c5:15:44:1d:55:19:ca:c1:33:bd:10:32:7c:71:86:
                    de:48:3f:8d:7f:00:93:18:74:13:cb:92:08:d8:4b:
                    5c:bc:e2:dc:64:bb:26:f5:b4:72:de:07:b7:d1:48:
                    61:2d
                Exponent: 65537 (0x10001)
        X509v3 extensions:
            X509v3 Basic Constraints: 
                CA:FALSE
            X509v3 Subject Key Identifier: 
                65:CC:9E:00:4B:56:9B:DE:38:EB:48:A2:6E:2E:7D:E9:9B:2A:25:35
            X509v3 Authority Key Identifier: 
                keyid:7B:0F:93:16:64:9F:71:41:D3:1B:FB:ED:6A:70:9B:CA:2E:70:F0:4B
                DirName:/C=US/ST=California/L=San Francisco/O=Copyleft Certificate Co/OU=My Organizational Unit/CN=ChangeMe/emailAddress=me@example.net
                serial:B9:F2:4E:2C:79:B3:D4:6C

            X509v3 Extended Key Usage: 
                TLS Web Client Authentication
            X509v3 Key Usage: 
                Digital Signature
    Signature Algorithm: sha256WithRSAEncryption
         1b:be:0a:f4:ac:b2:38:34:61:ae:ea:6c:2a:61:15:ba:c3:80:
         1a:cf:c9:50:86:65:6e:1c:b1:71:f2:5b:6c:7f:57:6e:36:47:
         83:f8:ab:81:00:88:22:b5:ed:ac:2c:5c:9f:a1:02:0c:b9:13:
         1e:04:4a:0e:9b:ff:b0:3e:8a:b6:18:62:78:d4:01:67:b2:4b:
         ad:38:5e:02:06:b7:67:fa:65:d8:ec:4e:9a:24:c3:4e:91:75:
         f7:2c:bc:ae:9f:97:ab:ea:72:bc:83:5c:29:d6:9e:57:22:60:
         4c:fe:cf:01:53:c6:7e:18:32:a6:22:f5:20:97:2a:5e:ee:26:
         4b:79:c8:4a:0e:e2:c7:4b:94:c7:2f:4e:9f:ee:04:eb:e8:82:
         aa:1e:6a:90:c1:30:50:d8:9d:a9:cd:3a:d7:ba:00:c4:19:0a:
         71:19:80:a6:96:0c:ca:00:33:44:5c:25:f0:ab:96:01:94:7c:
         b4:a9:6f:e8:be:9b:5f:da:66:f0:fb:fe:54:96:43:1d:f6:41:
         77:33:d5:13:fb:0f:bb:d3:0c:97:6c:91:15:54:13:3d:b7:67:
         10:73:01:3f:6d:17:81:1a:6a:36:f6:f2:dc:2a:6a:cb:fa:6f:
         3a:73:bb:54:b6:d6:2e:56:31:d0:f6:3c:cb:0f:30:1a:80:69:
         99:ed:ce:46
-----BEGIN CERTIFICATE-----
MIIFLzCCBBegAwIBAgIQGi/GrOsqDUr1yfBa+bj8QTANBgkqhkiG9w0BAQsFADCB
rzELMAkGA1UEBhMCVVMxEzARBgNVBAgMCkNhbGlmb3JuaWExFjAUBgNVBAcMDVNh
biBGcmFuY2lzY28xIDAeBgNVBAoMF0NvcHlsZWZ0IENlcnRpZmljYXRlIENvMR8w
HQYDVQQLDBZNeSBPcmdhbml6YXRpb25hbCBVbml0MREwDwYDVQQDDAhDaGFuZ2VN
ZTEdMBsGCSqGSIb3DQEJARYObWVAZXhhbXBsZS5uZXQwHhcNMjMxMTExMDE1ODU1
WhcNMjQxMTEwMDE1ODU1WjCBuzELMAkGA1UEBhMCVVMxCzAJBgNVBAgMAk9IMRMw
EQYDVQQHDApDaW5jaW5uYXRpMSEwHwYDVQQKDBhVbml2ZXJzaXR5IG9mIENpbmNp
bm5hdGkxKjAoBgNVBAsMIURlcHQuIEVsZWMuIENvbXAuIEVuZy4gQ29tcC4gU2Np
LjERMA8GA1UEAwwIY2xpZW50MTMxKDAmBgkqhkiG9w0BCQEWGWZyYW5jb0BnYXVz
cy5lY2Vjcy51Yy5lZHUwggEiMA0GCSqGSIb3DQEBAQUAA4IBDwAwggEKAoIBAQDW
ImqPCD0hPqykG8AmkgUf3EmmPGb79Ks5ctCeJvUH3feYtS1YrLiasmcx2vSLqFed
XgI+k/5ANboRQtEUMGjSbODC2yRIX5keEsn/RMINSapspE+7+EVMwsLoFjteZssn
ZhhpOgRWzXmbrDBIhAPSWkqppOxXhf+sCMfJIkv8OoZk6v28/QTZJ48TXlUgZsTB
1MagRzay93aVsfHfnmvqj0A5QbwUCsVDCL5yzLa+iw4vjTnr5636lZWUps4uQHXL
4fqgQ1SenPRcN2MZv3poNsUVRB1VGcrBM70QMnxxht5IP41/AJMYdBPLkgjYS1y8
4txkuyb1tHLeB7fRSGEtAgMBAAGjggE3MIIBMzAJBgNVHRMEAjAAMB0GA1UdDgQW
BBRlzJ4AS1ab3jjrSKJuLn3pmyolNTCB5AYDVR0jBIHcMIHZgBR7D5MWZJ9xQdMb
++1qcJvKLnDwS6GBtaSBsjCBrzELMAkGA1UEBhMCVVMxEzARBgNVBAgMCkNhbGlm
b3JuaWExFjAUBgNVBAcMDVNhbiBGcmFuY2lzY28xIDAeBgNVBAoMF0NvcHlsZWZ0
IENlcnRpZmljYXRlIENvMR8wHQYDVQQLDBZNeSBPcmdhbml6YXRpb25hbCBVbml0
MREwDwYDVQQDDAhDaGFuZ2VNZTEdMBsGCSqGSIb3DQEJARYObWVAZXhhbXBsZS5u
ZXSCCQC58k4sebPUbDATBgNVHSUEDDAKBggrBgEFBQcDAjALBgNVHQ8EBAMCB4Aw
DQYJKoZIhvcNAQELBQADggEBABu+CvSssjg0Ya7qbCphFbrDgBrPyVCGZW4csXHy
W2x/V242R4P4q4EAiCK17awsXJ+hAgy5Ex4ESg6b/7A+irYYYnjUAWeyS604XgIG
t2f6ZdjsTpokw06RdfcsvK6fl6vqcryDXCnWnlciYEz+zwFTxn4YMqYi9SCXKl7u
Jkt5yEoO4sdLlMcvTp/uBOvogqoeapDBMFDYnanNOte6AMQZCnEZgKaWDMoAM0Rc
JfCrlgGUfLSpb+i+m1/aZvD7/lSWQx32QXcz1RP7D7vTDJdskRVUEz23ZxBzAT9t
F4Eaajb28twqasv6bzpzu1S21i5WMdD2PMsPMBqAaZntzkY=
-----END CERTIFICATE-----
