Certificate:
    Data:
        Version: 3 (0x2)
        Serial Number:
            56:b8:79:9d:26:10:a5:de:43:8a:98:e3:7e:b4:e2:45
    Signature Algorithm: sha256WithRSAEncryption
        Issuer: C=US, ST=California, L=San Francisco, O=Copyleft Certificate Co, OU=My Organizational Unit, CN=ChangeMe/emailAddress=me@example.net
        Validity
            Not Before: Nov 11 02:00:27 2023 GMT
            Not After : Nov 10 02:00:27 2024 GMT
        Subject: C=US, ST=OH, L=Cincinnati, O=University of Cincinnati, OU=Dept. Elec. Comp. Eng. Comp. Sci., CN=client36/emailAddress=franco@gauss.ececs.uc.edu
        Subject Public Key Info:
            Public Key Algorithm: rsaEncryption
                Public-Key: (2048 bit)
                Modulus:
                    00:c2:56:95:62:50:c5:06:c0:1b:cb:45:bc:25:36:
                    1b:1a:26:fe:14:11:f8:65:c0:e2:e1:ea:f9:b6:62:
                    f9:db:8a:bd:63:6c:14:cb:70:9c:e1:3c:f8:c4:24:
                    69:c4:88:3d:0f:8f:a3:e3:4a:e9:26:9e:6a:0f:80:
                    0e:3c:e8:03:d4:c4:8d:ab:43:b6:d8:4b:78:c5:96:
                    7c:ed:0e:46:9d:70:11:a7:8a:3a:d4:72:7a:de:b8:
                    d9:13:d4:77:0d:0d:38:4b:f5:5a:2e:e6:89:5b:41:
                    4c:ef:9a:84:7c:fe:26:dd:06:c5:b2:22:e0:1a:53:
                    da:1d:38:96:a2:56:e6:79:3f:6d:b7:eb:25:19:b0:
                    f0:dd:5c:78:c6:74:99:76:5e:2b:7c:09:ca:13:13:
                    db:70:62:82:96:3c:56:9b:eb:b4:1a:18:a5:13:27:
                    ba:d0:96:82:79:fe:a3:e4:48:f0:81:e2:09:18:28:
                    65:37:a8:05:5e:98:e3:56:21:2c:f0:07:72:ac:cb:
                    2d:5b:bc:39:89:59:1e:6c:e4:12:a3:5a:77:60:75:
                    f6:70:85:71:56:c1:5b:27:65:35:8f:df:5c:2c:ed:
                    34:e6:04:19:19:df:83:d7:b3:da:d4:aa:24:72:69:
                    32:19:ea:ba:50:43:b4:b4:a8:a5:a2:d9:e9:42:cc:
                    7f:e9
                Exponent: 65537 (0x10001)
        X509v3 extensions:
            X509v3 Basic Constraints: 
                CA:FALSE
            X509v3 Subject Key Identifier: 
                40:90:2C:C0:A3:0F:66:B9:92:3C:27:B8:FB:A5:45:EF:95:5C:5E:50
            X509v3 Authority Key Identifier: 
                keyid:7B:0F:93:16:64:9F:71:41:D3:1B:FB:ED:6A:70:9B:CA:2E:70:F0:4B
                DirName:/C=US/ST=California/L=San Francisco/O=Copyleft Certificate Co/OU=My Organizational Unit/CN=ChangeMe/emailAddress=me@example.net
                serial:B9:F2:4E:2C:79:B3:D4:6C

            X509v3 Extended Key Usage: 
                TLS Web Client Authentication
            X509v3 Key Usage: 
                Digital Signature
    Signature Algorithm: sha256WithRSAEncryption
         65:23:93:69:6f:2b:52:eb:74:0c:c2:b4:21:1f:2d:cc:33:2d:
         bf:13:e0:db:ed:b1:6e:b9:de:b5:fe:df:5b:f3:a0:23:99:4b:
         2f:58:eb:04:89:98:f7:7b:e8:b8:9d:9d:aa:6a:06:39:a2:e5:
         49:36:c7:64:20:79:0a:e1:9b:64:9a:da:22:80:3f:d6:d1:0f:
         a0:b8:e8:27:ad:9c:f0:11:de:f8:a3:78:3f:6f:c5:b3:8c:fd:
         d3:c0:ae:73:ed:1f:03:09:33:a2:0d:1b:08:35:6a:87:7e:a4:
         75:08:87:44:85:2f:d0:6a:74:57:d5:b7:86:06:ba:2e:4f:95:
         2f:b5:1f:05:c5:74:88:1f:a0:d6:c8:92:50:62:d1:ee:87:27:
         ed:a9:57:52:3a:31:01:db:b3:bd:32:d4:37:f3:9f:ee:d1:44:
         50:b9:71:ea:82:ef:5d:3e:45:4e:81:0d:01:66:2f:00:66:b6:
         9f:a5:90:36:b5:24:7d:14:79:9b:6c:e9:d1:57:60:c9:b9:56:
         9e:8f:10:cf:f8:82:96:0e:57:06:31:e2:ee:ae:88:1f:17:8a:
         52:d1:5d:b6:5e:72:c4:b8:3e:1f:52:f8:2e:2b:0f:91:66:de:
         58:32:e6:11:25:16:da:5f:07:72:1e:3f:60:98:a1:88:54:21:
         44:49:f6:77
-----BEGIN CERTIFICATE-----
MIIFLzCCBBegAwIBAgIQVrh5nSYQpd5DipjjfrTiRTANBgkqhkiG9w0BAQsFADCB
rzELMAkGA1UEBhMCVVMxEzARBgNVBAgMCkNhbGlmb3JuaWExFjAUBgNVBAcMDVNh
biBGcmFuY2lzY28xIDAeBgNVBAoMF0NvcHlsZWZ0IENlcnRpZmljYXRlIENvMR8w
HQYDVQQLDBZNeSBPcmdhbml6YXRpb25hbCBVbml0MREwDwYDVQQDDAhDaGFuZ2VN
ZTEdMBsGCSqGSIb3DQEJARYObWVAZXhhbXBsZS5uZXQwHhcNMjMxMTExMDIwMDI3
WhcNMjQxMTEwMDIwMDI3WjCBuzELMAkGA1UEBhMCVVMxCzAJBgNVBAgMAk9IMRMw
EQYDVQQHDApDaW5jaW5uYXRpMSEwHwYDVQQKDBhVbml2ZXJzaXR5IG9mIENpbmNp
bm5hdGkxKjAoBgNVBAsMIURlcHQuIEVsZWMuIENvbXAuIEVuZy4gQ29tcC4gU2Np
LjERMA8GA1UEAwwIY2xpZW50MzYxKDAmBgkqhkiG9w0BCQEWGWZyYW5jb0BnYXVz
cy5lY2Vjcy51Yy5lZHUwggEiMA0GCSqGSIb3DQEBAQUAA4IBDwAwggEKAoIBAQDC
VpViUMUGwBvLRbwlNhsaJv4UEfhlwOLh6vm2Yvnbir1jbBTLcJzhPPjEJGnEiD0P
j6PjSukmnmoPgA486APUxI2rQ7bYS3jFlnztDkadcBGnijrUcnreuNkT1HcNDThL
9Vou5olbQUzvmoR8/ibdBsWyIuAaU9odOJaiVuZ5P2236yUZsPDdXHjGdJl2Xit8
CcoTE9twYoKWPFab67QaGKUTJ7rQloJ5/qPkSPCB4gkYKGU3qAVemONWISzwB3Ks
yy1bvDmJWR5s5BKjWndgdfZwhXFWwVsnZTWP31ws7TTmBBkZ34PXs9rUqiRyaTIZ
6rpQQ7S0qKWi2elCzH/pAgMBAAGjggE3MIIBMzAJBgNVHRMEAjAAMB0GA1UdDgQW
BBRAkCzAow9muZI8J7j7pUXvlVxeUDCB5AYDVR0jBIHcMIHZgBR7D5MWZJ9xQdMb
++1qcJvKLnDwS6GBtaSBsjCBrzELMAkGA1UEBhMCVVMxEzARBgNVBAgMCkNhbGlm
b3JuaWExFjAUBgNVBAcMDVNhbiBGcmFuY2lzY28xIDAeBgNVBAoMF0NvcHlsZWZ0
IENlcnRpZmljYXRlIENvMR8wHQYDVQQLDBZNeSBPcmdhbml6YXRpb25hbCBVbml0
MREwDwYDVQQDDAhDaGFuZ2VNZTEdMBsGCSqGSIb3DQEJARYObWVAZXhhbXBsZS5u
ZXSCCQC58k4sebPUbDATBgNVHSUEDDAKBggrBgEFBQcDAjALBgNVHQ8EBAMCB4Aw
DQYJKoZIhvcNAQELBQADggEBAGUjk2lvK1LrdAzCtCEfLcwzLb8T4NvtsW653rX+
31vzoCOZSy9Y6wSJmPd76LidnapqBjmi5Uk2x2QgeQrhm2Sa2iKAP9bRD6C46Cet
nPAR3vijeD9vxbOM/dPArnPtHwMJM6INGwg1aod+pHUIh0SFL9BqdFfVt4YGui5P
lS+1HwXFdIgfoNbIklBi0e6HJ+2pV1I6MQHbs70y1Dfzn+7RRFC5ceqC710+RU6B
DQFmLwBmtp+lkDa1JH0UeZts6dFXYMm5Vp6PEM/4gpYOVwYx4u6uiB8XilLRXbZe
csS4Ph9S+C4rD5Fm3lgy5hElFtpfB3IeP2CYoYhUIURJ9nc=
-----END CERTIFICATE-----
